ARM GAS  C:\Users\kiwamu\AppData\Local\Temp\ccTROAwf.s 			page 1


   1              		.syntax unified
   2              		.cpu cortex-m0plus
   3              		.fpu softvfp
   4              		.eabi_attribute 20, 1
   5              		.eabi_attribute 21, 1
   6              		.eabi_attribute 23, 3
   7              		.eabi_attribute 24, 1
   8              		.eabi_attribute 25, 1
   9              		.eabi_attribute 26, 1
  10              		.eabi_attribute 30, 1
  11              		.eabi_attribute 34, 0
  12              		.eabi_attribute 18, 4
  13              		.thumb
  14              		.syntax unified
  15              		.file	"cy_flash.c"
  16              		.text
  17              	.Ltext0:
  18              		.cfi_sections	.debug_frame
  19              		.section	.text.Cy_Flash_BoundsCheck,"ax",%progbits
  20              		.align	2
  21              		.code	16
  22              		.thumb_func
  23              		.type	Cy_Flash_BoundsCheck, %function
  24              	Cy_Flash_BoundsCheck:
  25              	.LFB152:
  26              		.file 1 "Generated_Source\\PSoC6\\pdl\\drivers\\peripheral\\flash\\cy_flash.c"
   1:Generated_Source\PSoC6\pdl\drivers\peripheral\flash/cy_flash.c **** /***************************************************************************//**
   2:Generated_Source\PSoC6\pdl\drivers\peripheral\flash/cy_flash.c **** * \file cy_flash.c
   3:Generated_Source\PSoC6\pdl\drivers\peripheral\flash/cy_flash.c **** * \version 2.0
   4:Generated_Source\PSoC6\pdl\drivers\peripheral\flash/cy_flash.c **** *
   5:Generated_Source\PSoC6\pdl\drivers\peripheral\flash/cy_flash.c **** * \brief
   6:Generated_Source\PSoC6\pdl\drivers\peripheral\flash/cy_flash.c **** * Provides the public functions for the API for the PSoC 6 Flash Driver.
   7:Generated_Source\PSoC6\pdl\drivers\peripheral\flash/cy_flash.c **** *
   8:Generated_Source\PSoC6\pdl\drivers\peripheral\flash/cy_flash.c **** ********************************************************************************
   9:Generated_Source\PSoC6\pdl\drivers\peripheral\flash/cy_flash.c **** * \copyright
  10:Generated_Source\PSoC6\pdl\drivers\peripheral\flash/cy_flash.c **** * Copyright 2016-2017, Cypress Semiconductor Corporation. All rights reserved.
  11:Generated_Source\PSoC6\pdl\drivers\peripheral\flash/cy_flash.c **** * You may use this file only in accordance with the license, terms, conditions,
  12:Generated_Source\PSoC6\pdl\drivers\peripheral\flash/cy_flash.c **** * disclaimers, and limitations in the end user license agreement accompanying
  13:Generated_Source\PSoC6\pdl\drivers\peripheral\flash/cy_flash.c **** * the software package with which this file was provided.
  14:Generated_Source\PSoC6\pdl\drivers\peripheral\flash/cy_flash.c **** *******************************************************************************/
  15:Generated_Source\PSoC6\pdl\drivers\peripheral\flash/cy_flash.c **** 
  16:Generated_Source\PSoC6\pdl\drivers\peripheral\flash/cy_flash.c **** #include "cy_flash.h"
  17:Generated_Source\PSoC6\pdl\drivers\peripheral\flash/cy_flash.c **** 
  18:Generated_Source\PSoC6\pdl\drivers\peripheral\flash/cy_flash.c **** 
  19:Generated_Source\PSoC6\pdl\drivers\peripheral\flash/cy_flash.c **** /** \cond INTERNAL */
  20:Generated_Source\PSoC6\pdl\drivers\peripheral\flash/cy_flash.c **** /** Slow control register */
  21:Generated_Source\PSoC6\pdl\drivers\peripheral\flash/cy_flash.c **** #define CY_FLASH_TST_DDFT_SLOW_CTL_REG             (*(reg32 *) 0x40260108U)
  22:Generated_Source\PSoC6\pdl\drivers\peripheral\flash/cy_flash.c **** /** Slow control register */                       
  23:Generated_Source\PSoC6\pdl\drivers\peripheral\flash/cy_flash.c **** #define CY_FLASH_TST_DDFT_FAST_CTL_REG             (*(reg32 *) 0x40260104U)
  24:Generated_Source\PSoC6\pdl\drivers\peripheral\flash/cy_flash.c **** /** Slow output register */                        
  25:Generated_Source\PSoC6\pdl\drivers\peripheral\flash/cy_flash.c **** #define CY_FLASH_CLK_OUTPUT_SLOW_REG               (*(reg32 *) 0x40260518U)
  26:Generated_Source\PSoC6\pdl\drivers\peripheral\flash/cy_flash.c **** /** Slow clock calibration register */             
  27:Generated_Source\PSoC6\pdl\drivers\peripheral\flash/cy_flash.c **** #define CY_FLASH_CLK_CAL_CNT1_REG                  (*(reg32 *) 0x4026051CU)
  28:Generated_Source\PSoC6\pdl\drivers\peripheral\flash/cy_flash.c **** /** Define to set the IMO to perform a delay after the flash operation started */
  29:Generated_Source\PSoC6\pdl\drivers\peripheral\flash/cy_flash.c **** #define CY_FLASH_TST_DDFT_SLOW_CTL_MASK            (0x40001F1EU)
  30:Generated_Source\PSoC6\pdl\drivers\peripheral\flash/cy_flash.c **** /** Slow output register */
  31:Generated_Source\PSoC6\pdl\drivers\peripheral\flash/cy_flash.c **** #define CY_FLASH_CLK_OUTPUT_SLOW_MASK              (0x06U)
ARM GAS  C:\Users\kiwamu\AppData\Local\Temp\ccTROAwf.s 			page 2


  32:Generated_Source\PSoC6\pdl\drivers\peripheral\flash/cy_flash.c **** /** Define to indicate that clock is finished counting */
  33:Generated_Source\PSoC6\pdl\drivers\peripheral\flash/cy_flash.c **** #define CY_FLASH_CLK_CAL_CNT1_DONE                 ((uint32_t) ((uint32_t) 1U << CY_FLASH_CLK_CAL_C
  34:Generated_Source\PSoC6\pdl\drivers\peripheral\flash/cy_flash.c **** /** Define to indicate that clock is finished counting */
  35:Generated_Source\PSoC6\pdl\drivers\peripheral\flash/cy_flash.c **** #define CY_FLASH_CLK_CAL_CNT1_DONE_POS             (31U)
  36:Generated_Source\PSoC6\pdl\drivers\peripheral\flash/cy_flash.c **** /* Calculates the time in microseconds to wait for the number of the CM0P ticks */
  37:Generated_Source\PSoC6\pdl\drivers\peripheral\flash/cy_flash.c **** #define CY_FLASH_DEL_CORRECTIVE(ticks)             ((((uint32)Cy_SysClk_ClkPeriGetDivider() + 1UL) 
  38:Generated_Source\PSoC6\pdl\drivers\peripheral\flash/cy_flash.c ****                                                    / ((uint32_t)cy_Hfclk0FreqHz / 1000UL))
  39:Generated_Source\PSoC6\pdl\drivers\peripheral\flash/cy_flash.c **** /* Number of the CM0P ticks for StartWrite function delay corrective time */
  40:Generated_Source\PSoC6\pdl\drivers\peripheral\flash/cy_flash.c **** #define CY_FLASH_START_WRITE_DEL_TICKS             (19000UL)
  41:Generated_Source\PSoC6\pdl\drivers\peripheral\flash/cy_flash.c **** /* Number of the CM0P ticks for StartProgram function delay corrective time */
  42:Generated_Source\PSoC6\pdl\drivers\peripheral\flash/cy_flash.c **** #define CY_FLASH_START_PROGRAM_DEL_TICKS           (5250UL)
  43:Generated_Source\PSoC6\pdl\drivers\peripheral\flash/cy_flash.c **** /* Number of the CM0P ticks for StartErase function delay corrective time */
  44:Generated_Source\PSoC6\pdl\drivers\peripheral\flash/cy_flash.c **** #define CY_FLASH_START_ERASE_DEL_TICKS             (8500UL)
  45:Generated_Source\PSoC6\pdl\drivers\peripheral\flash/cy_flash.c **** /* Delay time for StartWrite function in us */
  46:Generated_Source\PSoC6\pdl\drivers\peripheral\flash/cy_flash.c **** #define CY_FLASH_START_WRITE_DEL_TIME              (9800UL)
  47:Generated_Source\PSoC6\pdl\drivers\peripheral\flash/cy_flash.c **** /* Delay time for StartProgram function in us */
  48:Generated_Source\PSoC6\pdl\drivers\peripheral\flash/cy_flash.c **** #define CY_FLASH_START_PROGRAM_DEL_TIME            (120UL)
  49:Generated_Source\PSoC6\pdl\drivers\peripheral\flash/cy_flash.c **** /* Delay time for StartErase function in us */
  50:Generated_Source\PSoC6\pdl\drivers\peripheral\flash/cy_flash.c **** #define CY_FLASH_START_ERASE_DEL_TIME              (1000UL)
  51:Generated_Source\PSoC6\pdl\drivers\peripheral\flash/cy_flash.c **** /** Delay time for Start Write function in us with corrective time */
  52:Generated_Source\PSoC6\pdl\drivers\peripheral\flash/cy_flash.c **** #define CY_FLASH_START_WRITE_DELAY                 (uint32_t)(CY_FLASH_START_WRITE_DEL_TIME +\
  53:Generated_Source\PSoC6\pdl\drivers\peripheral\flash/cy_flash.c ****                                                    CY_FLASH_DEL_CORRECTIVE(CY_FLASH_START_WRITE_DEL
  54:Generated_Source\PSoC6\pdl\drivers\peripheral\flash/cy_flash.c **** /** Delay time for Start Program function in us with corrective time */
  55:Generated_Source\PSoC6\pdl\drivers\peripheral\flash/cy_flash.c **** #define CY_FLASH_START_PROGRAM_DELAY               (uint32_t)(CY_FLASH_START_PROGRAM_DEL_TIME +\
  56:Generated_Source\PSoC6\pdl\drivers\peripheral\flash/cy_flash.c ****                                                    CY_FLASH_DEL_CORRECTIVE(CY_FLASH_START_PROGRAM_D
  57:Generated_Source\PSoC6\pdl\drivers\peripheral\flash/cy_flash.c **** /** Delay time fot Start Erase function in uS with corrective time */
  58:Generated_Source\PSoC6\pdl\drivers\peripheral\flash/cy_flash.c **** #define CY_FLASH_START_ERASE_DELAY                 (uint32_t)(CY_FLASH_START_ERASE_DEL_TIME +\
  59:Generated_Source\PSoC6\pdl\drivers\peripheral\flash/cy_flash.c ****                                                    CY_FLASH_DEL_CORRECTIVE(CY_FLASH_START_ERASE_DEL
  60:Generated_Source\PSoC6\pdl\drivers\peripheral\flash/cy_flash.c **** /** Number of ticks to wait 1 uS */
  61:Generated_Source\PSoC6\pdl\drivers\peripheral\flash/cy_flash.c **** #define CY_FLASH_TICKS_FOR_1US                     (8U)
  62:Generated_Source\PSoC6\pdl\drivers\peripheral\flash/cy_flash.c **** /** Disable delay */                               
  63:Generated_Source\PSoC6\pdl\drivers\peripheral\flash/cy_flash.c **** #define CY_FLASH_NO_DELAY                          (0U)
  64:Generated_Source\PSoC6\pdl\drivers\peripheral\flash/cy_flash.c **** /** Slow control register */                       
  65:Generated_Source\PSoC6\pdl\drivers\peripheral\flash/cy_flash.c **** #define CY_FLASH_TST_DDFT_FAST_CTL_MASK            (62U)
  66:Generated_Source\PSoC6\pdl\drivers\peripheral\flash/cy_flash.c **** /** Command completed with no errors */
  67:Generated_Source\PSoC6\pdl\drivers\peripheral\flash/cy_flash.c **** #define CY_FLASH_ROMCODE_SUCCESS                   (0xA0000000UL)
  68:Generated_Source\PSoC6\pdl\drivers\peripheral\flash/cy_flash.c **** /** Invalid device protection state */
  69:Generated_Source\PSoC6\pdl\drivers\peripheral\flash/cy_flash.c **** #define CY_FLASH_ROMCODE_INVALID_PROTECTION        (0xF0000001UL)
  70:Generated_Source\PSoC6\pdl\drivers\peripheral\flash/cy_flash.c **** /** Invalid flash page latch address */
  71:Generated_Source\PSoC6\pdl\drivers\peripheral\flash/cy_flash.c **** #define CY_FLASH_ROMCODE_INVALID_FM_PL             (0xF0000003UL)
  72:Generated_Source\PSoC6\pdl\drivers\peripheral\flash/cy_flash.c **** /** Invalid flash address */
  73:Generated_Source\PSoC6\pdl\drivers\peripheral\flash/cy_flash.c **** #define CY_FLASH_ROMCODE_INVALID_FLASH_ADDR        (0xF0000004UL)
  74:Generated_Source\PSoC6\pdl\drivers\peripheral\flash/cy_flash.c **** /** Row is write protected */
  75:Generated_Source\PSoC6\pdl\drivers\peripheral\flash/cy_flash.c **** #define CY_FLASH_ROMCODE_ROW_PROTECTED             (0xF0000005UL)
  76:Generated_Source\PSoC6\pdl\drivers\peripheral\flash/cy_flash.c **** /** Comparison between Page Latches and FM row failed */
  77:Generated_Source\PSoC6\pdl\drivers\peripheral\flash/cy_flash.c **** #define CY_FLASH_ROMCODE_PL_ROW_COMP_FA            (0xF0000022UL)
  78:Generated_Source\PSoC6\pdl\drivers\peripheral\flash/cy_flash.c **** /** Command in progress; no error */
  79:Generated_Source\PSoC6\pdl\drivers\peripheral\flash/cy_flash.c **** #define CY_FLASH_ROMCODE_IN_PROGRESS_NO_ERROR      (0xA0000009UL)
  80:Generated_Source\PSoC6\pdl\drivers\peripheral\flash/cy_flash.c **** /** Flash operation is successfully initiated */
  81:Generated_Source\PSoC6\pdl\drivers\peripheral\flash/cy_flash.c **** #define CY_FLASH_IS_OPERATION_STARTED              (0x00000010UL)
  82:Generated_Source\PSoC6\pdl\drivers\peripheral\flash/cy_flash.c **** /** Flash is under operation */
  83:Generated_Source\PSoC6\pdl\drivers\peripheral\flash/cy_flash.c **** #define CY_FLASH_IS_BUSY                           (0x00000040UL)
  84:Generated_Source\PSoC6\pdl\drivers\peripheral\flash/cy_flash.c **** /** IPC structure is already locked by another process */
  85:Generated_Source\PSoC6\pdl\drivers\peripheral\flash/cy_flash.c **** #define CY_FLASH_IS_IPC_BUSY                       (0x00000080UL)
  86:Generated_Source\PSoC6\pdl\drivers\peripheral\flash/cy_flash.c **** /** Input parameters passed to Flash API are not valid */
  87:Generated_Source\PSoC6\pdl\drivers\peripheral\flash/cy_flash.c **** #define CY_FLASH_IS_INVALID_INPUT_PARAMETERS       (0x00000100UL)
  88:Generated_Source\PSoC6\pdl\drivers\peripheral\flash/cy_flash.c **** /** Result mask */
ARM GAS  C:\Users\kiwamu\AppData\Local\Temp\ccTROAwf.s 			page 3


  89:Generated_Source\PSoC6\pdl\drivers\peripheral\flash/cy_flash.c **** #define CY_FLASH_RESULT_MASK                       (0xFFFFFFFUL)
  90:Generated_Source\PSoC6\pdl\drivers\peripheral\flash/cy_flash.c **** /** Error shift */
  91:Generated_Source\PSoC6\pdl\drivers\peripheral\flash/cy_flash.c **** #define CY_FLASH_ERROR_SHIFT                       (28UL)
  92:Generated_Source\PSoC6\pdl\drivers\peripheral\flash/cy_flash.c **** /** No error */
  93:Generated_Source\PSoC6\pdl\drivers\peripheral\flash/cy_flash.c **** #define CY_FLASH_ERROR_NO_ERROR                    (0xAUL)
  94:Generated_Source\PSoC6\pdl\drivers\peripheral\flash/cy_flash.c **** /** CM4 Flash Proxy address */
  95:Generated_Source\PSoC6\pdl\drivers\peripheral\flash/cy_flash.c **** #define CY_FLASH_CM4_FLASH_PROXY_ADDR              (0x00007001UL)
  96:Generated_Source\PSoC6\pdl\drivers\peripheral\flash/cy_flash.c **** 
  97:Generated_Source\PSoC6\pdl\drivers\peripheral\flash/cy_flash.c **** #if (CY_CPU_CORTEX_M0P)
  98:Generated_Source\PSoC6\pdl\drivers\peripheral\flash/cy_flash.c **** #define IS_CY_PIPE_FREE(...)       (!Cy_IPC_Drv_IsLockAcquired(Cy_IPC_Drv_GetIpcBaseAddress(CY_IPC_
  99:Generated_Source\PSoC6\pdl\drivers\peripheral\flash/cy_flash.c **** #define NOTIFY_PEER_CORE(a)         Cy_IPC_Pipe_SendMessage(CY_IPC_EP_CYPIPE_CM4_ADDR, CY_IPC_EP_CY
 100:Generated_Source\PSoC6\pdl\drivers\peripheral\flash/cy_flash.c **** #else
 101:Generated_Source\PSoC6\pdl\drivers\peripheral\flash/cy_flash.c **** #define IS_CY_PIPE_FREE(...)       (!Cy_IPC_Drv_IsLockAcquired(Cy_IPC_Drv_GetIpcBaseAddress(CY_IPC_
 102:Generated_Source\PSoC6\pdl\drivers\peripheral\flash/cy_flash.c **** #define NOTIFY_PEER_CORE(a)         Cy_IPC_Pipe_SendMessage(CY_IPC_EP_CYPIPE_CM0_ADDR, CY_IPC_EP_CY
 103:Generated_Source\PSoC6\pdl\drivers\peripheral\flash/cy_flash.c **** #endif
 104:Generated_Source\PSoC6\pdl\drivers\peripheral\flash/cy_flash.c **** /** \endcond */
 105:Generated_Source\PSoC6\pdl\drivers\peripheral\flash/cy_flash.c **** 
 106:Generated_Source\PSoC6\pdl\drivers\peripheral\flash/cy_flash.c **** /* Static functions */
 107:Generated_Source\PSoC6\pdl\drivers\peripheral\flash/cy_flash.c **** static bool Cy_Flash_BoundsCheck(uint32_t flashAddr);
 108:Generated_Source\PSoC6\pdl\drivers\peripheral\flash/cy_flash.c **** static uint32_t Cy_Flash_PrepareContext(uint32_t rowAddr, const uint32_t *data, uint32_t blocking);
 109:Generated_Source\PSoC6\pdl\drivers\peripheral\flash/cy_flash.c **** static cy_en_flashdrv_status_t Cy_Flash_ProcessOpcode(uint32_t opcode);
 110:Generated_Source\PSoC6\pdl\drivers\peripheral\flash/cy_flash.c **** static cy_en_flashdrv_status_t Cy_Flash_OperationStatus(void);
 111:Generated_Source\PSoC6\pdl\drivers\peripheral\flash/cy_flash.c **** static cy_en_flashdrv_status_t Cy_Flash_SendCmd(uint32_t mode, uint32_t microseconds);
 112:Generated_Source\PSoC6\pdl\drivers\peripheral\flash/cy_flash.c **** static void Cy_Flash_RAMDelay(uint32_t microseconds);
 113:Generated_Source\PSoC6\pdl\drivers\peripheral\flash/cy_flash.c **** static cy_stc_flash_context_t context;
 114:Generated_Source\PSoC6\pdl\drivers\peripheral\flash/cy_flash.c **** 
 115:Generated_Source\PSoC6\pdl\drivers\peripheral\flash/cy_flash.c **** /** \cond INTERNAL */
 116:Generated_Source\PSoC6\pdl\drivers\peripheral\flash/cy_flash.c **** CY_ALIGN(4) static IPC_MSG ipcWaitMessage = 
 117:Generated_Source\PSoC6\pdl\drivers\peripheral\flash/cy_flash.c **** {
 118:Generated_Source\PSoC6\pdl\drivers\peripheral\flash/cy_flash.c ****     /* .clientID    */ CY_FLASH_IPC_CLIENT_ID,
 119:Generated_Source\PSoC6\pdl\drivers\peripheral\flash/cy_flash.c ****     /* .pktType     */ CY_FLASH_ENTER_WAIT_LOOP,
 120:Generated_Source\PSoC6\pdl\drivers\peripheral\flash/cy_flash.c ****     /* .intrRelMask */ 0
 121:Generated_Source\PSoC6\pdl\drivers\peripheral\flash/cy_flash.c **** };
 122:Generated_Source\PSoC6\pdl\drivers\peripheral\flash/cy_flash.c **** /** \endcond */
 123:Generated_Source\PSoC6\pdl\drivers\peripheral\flash/cy_flash.c **** 
 124:Generated_Source\PSoC6\pdl\drivers\peripheral\flash/cy_flash.c **** /*******************************************************************************
 125:Generated_Source\PSoC6\pdl\drivers\peripheral\flash/cy_flash.c **** * Function Name: Cy_Flash_SendCmd
 126:Generated_Source\PSoC6\pdl\drivers\peripheral\flash/cy_flash.c **** ****************************************************************************//**
 127:Generated_Source\PSoC6\pdl\drivers\peripheral\flash/cy_flash.c **** *
 128:Generated_Source\PSoC6\pdl\drivers\peripheral\flash/cy_flash.c **** * Sends a command to the SROM via the IPC channel. The function is placed to the
 129:Generated_Source\PSoC6\pdl\drivers\peripheral\flash/cy_flash.c **** * SRAM memory to guarantee successful operation. After an IPC message is sent,
 130:Generated_Source\PSoC6\pdl\drivers\peripheral\flash/cy_flash.c **** * the function waits for a defined time before exiting the function.
 131:Generated_Source\PSoC6\pdl\drivers\peripheral\flash/cy_flash.c **** *
 132:Generated_Source\PSoC6\pdl\drivers\peripheral\flash/cy_flash.c **** * \param mode Sets the blocking or non-blocking Flash operation.
 133:Generated_Source\PSoC6\pdl\drivers\peripheral\flash/cy_flash.c **** *
 134:Generated_Source\PSoC6\pdl\drivers\peripheral\flash/cy_flash.c **** * \param microseconds The number of microseconds to wait before exiting the functions.
 135:Generated_Source\PSoC6\pdl\drivers\peripheral\flash/cy_flash.c **** *
 136:Generated_Source\PSoC6\pdl\drivers\peripheral\flash/cy_flash.c **** * \return Returns the status of the Flash operation,
 137:Generated_Source\PSoC6\pdl\drivers\peripheral\flash/cy_flash.c **** * see \ref cy_en_flashdrv_status_t.
 138:Generated_Source\PSoC6\pdl\drivers\peripheral\flash/cy_flash.c **** *
 139:Generated_Source\PSoC6\pdl\drivers\peripheral\flash/cy_flash.c **** *******************************************************************************/
 140:Generated_Source\PSoC6\pdl\drivers\peripheral\flash/cy_flash.c **** #if defined (__ICCARM__)
 141:Generated_Source\PSoC6\pdl\drivers\peripheral\flash/cy_flash.c ****     __ramfunc 
 142:Generated_Source\PSoC6\pdl\drivers\peripheral\flash/cy_flash.c **** #else
 143:Generated_Source\PSoC6\pdl\drivers\peripheral\flash/cy_flash.c ****     CY_SECTION(".cy_ramfunc")
 144:Generated_Source\PSoC6\pdl\drivers\peripheral\flash/cy_flash.c **** #endif
 145:Generated_Source\PSoC6\pdl\drivers\peripheral\flash/cy_flash.c **** static cy_en_flashdrv_status_t Cy_Flash_SendCmd(uint32_t mode, uint32_t microseconds)
ARM GAS  C:\Users\kiwamu\AppData\Local\Temp\ccTROAwf.s 			page 4


 146:Generated_Source\PSoC6\pdl\drivers\peripheral\flash/cy_flash.c **** {
 147:Generated_Source\PSoC6\pdl\drivers\peripheral\flash/cy_flash.c ****     uint32_t intr;
 148:Generated_Source\PSoC6\pdl\drivers\peripheral\flash/cy_flash.c ****     cy_en_flashdrv_status_t result = CY_FLASH_DRV_IPC_BUSY;
 149:Generated_Source\PSoC6\pdl\drivers\peripheral\flash/cy_flash.c **** 
 150:Generated_Source\PSoC6\pdl\drivers\peripheral\flash/cy_flash.c ****     if (IS_CY_PIPE_FREE())
 151:Generated_Source\PSoC6\pdl\drivers\peripheral\flash/cy_flash.c ****     {
 152:Generated_Source\PSoC6\pdl\drivers\peripheral\flash/cy_flash.c ****         if (CY_IPC_SEMA_STATUS_LOCKED != Cy_IPC_Sema_Status(CY_FLASH_WAIT_SEMA))
 153:Generated_Source\PSoC6\pdl\drivers\peripheral\flash/cy_flash.c ****         {
 154:Generated_Source\PSoC6\pdl\drivers\peripheral\flash/cy_flash.c ****             if (CY_IPC_PIPE_SUCCESS == NOTIFY_PEER_CORE(&ipcWaitMessage))
 155:Generated_Source\PSoC6\pdl\drivers\peripheral\flash/cy_flash.c ****             {
 156:Generated_Source\PSoC6\pdl\drivers\peripheral\flash/cy_flash.c ****                 /* Wait for SEMA lock by peer core */
 157:Generated_Source\PSoC6\pdl\drivers\peripheral\flash/cy_flash.c ****                 while(CY_IPC_SEMA_STATUS_LOCKED != Cy_IPC_Sema_Status(CY_FLASH_WAIT_SEMA))
 158:Generated_Source\PSoC6\pdl\drivers\peripheral\flash/cy_flash.c ****                 {
 159:Generated_Source\PSoC6\pdl\drivers\peripheral\flash/cy_flash.c ****                 }
 160:Generated_Source\PSoC6\pdl\drivers\peripheral\flash/cy_flash.c **** 
 161:Generated_Source\PSoC6\pdl\drivers\peripheral\flash/cy_flash.c ****                 intr = Cy_SysLib_EnterCriticalSection();
 162:Generated_Source\PSoC6\pdl\drivers\peripheral\flash/cy_flash.c **** 
 163:Generated_Source\PSoC6\pdl\drivers\peripheral\flash/cy_flash.c ****                 /* Tries to acquire the IPC structure and pass the arguments to SROM API */
 164:Generated_Source\PSoC6\pdl\drivers\peripheral\flash/cy_flash.c ****                 if (Cy_IPC_Drv_SendMsgPtr(CY_FLASH_IPC_STRUCT, CY_FLASH_IPC_NOTIFY_STRUCT0, (void*)
 165:Generated_Source\PSoC6\pdl\drivers\peripheral\flash/cy_flash.c ****                 {
 166:Generated_Source\PSoC6\pdl\drivers\peripheral\flash/cy_flash.c ****                     if (mode == CY_FLASH_NON_BLOCKING_MODE)
 167:Generated_Source\PSoC6\pdl\drivers\peripheral\flash/cy_flash.c ****                     {
 168:Generated_Source\PSoC6\pdl\drivers\peripheral\flash/cy_flash.c ****                         Cy_Flash_RAMDelay(microseconds);
 169:Generated_Source\PSoC6\pdl\drivers\peripheral\flash/cy_flash.c **** 
 170:Generated_Source\PSoC6\pdl\drivers\peripheral\flash/cy_flash.c ****                         /* The Flash operation is successfully initiated */
 171:Generated_Source\PSoC6\pdl\drivers\peripheral\flash/cy_flash.c ****                         result = CY_FLASH_DRV_OPERATION_STARTED;
 172:Generated_Source\PSoC6\pdl\drivers\peripheral\flash/cy_flash.c ****                     }
 173:Generated_Source\PSoC6\pdl\drivers\peripheral\flash/cy_flash.c ****                     else
 174:Generated_Source\PSoC6\pdl\drivers\peripheral\flash/cy_flash.c ****                     {
 175:Generated_Source\PSoC6\pdl\drivers\peripheral\flash/cy_flash.c ****                         /* Polls whether the IPC is released and the Flash operation is performed *
 176:Generated_Source\PSoC6\pdl\drivers\peripheral\flash/cy_flash.c ****                         do
 177:Generated_Source\PSoC6\pdl\drivers\peripheral\flash/cy_flash.c ****                         {
 178:Generated_Source\PSoC6\pdl\drivers\peripheral\flash/cy_flash.c ****                             result = Cy_Flash_IsWriteComplete();
 179:Generated_Source\PSoC6\pdl\drivers\peripheral\flash/cy_flash.c ****                         }
 180:Generated_Source\PSoC6\pdl\drivers\peripheral\flash/cy_flash.c ****                         while (result == CY_FLASH_DRV_OPCODE_BUSY);
 181:Generated_Source\PSoC6\pdl\drivers\peripheral\flash/cy_flash.c ****                     }
 182:Generated_Source\PSoC6\pdl\drivers\peripheral\flash/cy_flash.c ****                 }
 183:Generated_Source\PSoC6\pdl\drivers\peripheral\flash/cy_flash.c ****                 else
 184:Generated_Source\PSoC6\pdl\drivers\peripheral\flash/cy_flash.c ****                 {
 185:Generated_Source\PSoC6\pdl\drivers\peripheral\flash/cy_flash.c ****                     /* The IPC structure is already locked by another process */
 186:Generated_Source\PSoC6\pdl\drivers\peripheral\flash/cy_flash.c ****                     result = CY_FLASH_DRV_IPC_BUSY;
 187:Generated_Source\PSoC6\pdl\drivers\peripheral\flash/cy_flash.c ****                 }
 188:Generated_Source\PSoC6\pdl\drivers\peripheral\flash/cy_flash.c **** 
 189:Generated_Source\PSoC6\pdl\drivers\peripheral\flash/cy_flash.c ****                 while ( CY_IPC_SEMA_SUCCESS != Cy_IPC_Sema_Clear(CY_FLASH_WAIT_SEMA, false))
 190:Generated_Source\PSoC6\pdl\drivers\peripheral\flash/cy_flash.c ****                 {
 191:Generated_Source\PSoC6\pdl\drivers\peripheral\flash/cy_flash.c ****                 }
 192:Generated_Source\PSoC6\pdl\drivers\peripheral\flash/cy_flash.c ****                 
 193:Generated_Source\PSoC6\pdl\drivers\peripheral\flash/cy_flash.c ****                 Cy_SysLib_ExitCriticalSection(intr);
 194:Generated_Source\PSoC6\pdl\drivers\peripheral\flash/cy_flash.c ****             }
 195:Generated_Source\PSoC6\pdl\drivers\peripheral\flash/cy_flash.c ****         }
 196:Generated_Source\PSoC6\pdl\drivers\peripheral\flash/cy_flash.c ****     }
 197:Generated_Source\PSoC6\pdl\drivers\peripheral\flash/cy_flash.c **** 
 198:Generated_Source\PSoC6\pdl\drivers\peripheral\flash/cy_flash.c ****     return (result);
 199:Generated_Source\PSoC6\pdl\drivers\peripheral\flash/cy_flash.c **** }
 200:Generated_Source\PSoC6\pdl\drivers\peripheral\flash/cy_flash.c **** 
 201:Generated_Source\PSoC6\pdl\drivers\peripheral\flash/cy_flash.c **** /*******************************************************************************
 202:Generated_Source\PSoC6\pdl\drivers\peripheral\flash/cy_flash.c **** * Function Name: Cy_Flash_EraseRow
ARM GAS  C:\Users\kiwamu\AppData\Local\Temp\ccTROAwf.s 			page 5


 203:Generated_Source\PSoC6\pdl\drivers\peripheral\flash/cy_flash.c **** ****************************************************************************//**
 204:Generated_Source\PSoC6\pdl\drivers\peripheral\flash/cy_flash.c **** *
 205:Generated_Source\PSoC6\pdl\drivers\peripheral\flash/cy_flash.c **** * This function erases a single row of flash. Reports success or
 206:Generated_Source\PSoC6\pdl\drivers\peripheral\flash/cy_flash.c **** * a reason for failure. Does not return until the Write operation is
 207:Generated_Source\PSoC6\pdl\drivers\peripheral\flash/cy_flash.c **** * complete. Returns immediately and reports a \ref CY_FLASH_DRV_IPC_BUSY error in
 208:Generated_Source\PSoC6\pdl\drivers\peripheral\flash/cy_flash.c **** * the case when another process is writing to flash or erasing the row.
 209:Generated_Source\PSoC6\pdl\drivers\peripheral\flash/cy_flash.c **** * User firmware should not enter the hibernate mode until flash erase is
 210:Generated_Source\PSoC6\pdl\drivers\peripheral\flash/cy_flash.c **** * complete. The Flash operation is allowed in Sleep and Deep-sleep modes.
 211:Generated_Source\PSoC6\pdl\drivers\peripheral\flash/cy_flash.c **** * During the Flash operation, the device should not be reset, including the
 212:Generated_Source\PSoC6\pdl\drivers\peripheral\flash/cy_flash.c **** * XRES pin, a software reset, and watchdog reset sources. Also, low-voltage
 213:Generated_Source\PSoC6\pdl\drivers\peripheral\flash/cy_flash.c **** * detect circuits should be configured to generate an interrupt instead of a
 214:Generated_Source\PSoC6\pdl\drivers\peripheral\flash/cy_flash.c **** * reset. Otherwise, portions of flash may undergo unexpected changes.
 215:Generated_Source\PSoC6\pdl\drivers\peripheral\flash/cy_flash.c **** *
 216:Generated_Source\PSoC6\pdl\drivers\peripheral\flash/cy_flash.c **** * \param rowAddr Address of the flash row number. The number of the flash rows
 217:Generated_Source\PSoC6\pdl\drivers\peripheral\flash/cy_flash.c **** * is defined by the \ref CY_FLASH_NUMBER_ROWS macro for the selected device.
 218:Generated_Source\PSoC6\pdl\drivers\peripheral\flash/cy_flash.c **** * The Read-while-Write violation occurs when the flash read operation is
 219:Generated_Source\PSoC6\pdl\drivers\peripheral\flash/cy_flash.c **** * initiated in the same flash sector where the flash write operation is
 220:Generated_Source\PSoC6\pdl\drivers\peripheral\flash/cy_flash.c **** * performing. Refer to the device datasheet for the details.
 221:Generated_Source\PSoC6\pdl\drivers\peripheral\flash/cy_flash.c **** * Address must match row start address.
 222:Generated_Source\PSoC6\pdl\drivers\peripheral\flash/cy_flash.c **** *
 223:Generated_Source\PSoC6\pdl\drivers\peripheral\flash/cy_flash.c **** * \return Returns the status of the Flash operation,
 224:Generated_Source\PSoC6\pdl\drivers\peripheral\flash/cy_flash.c **** * see \ref cy_en_flashdrv_status_t.
 225:Generated_Source\PSoC6\pdl\drivers\peripheral\flash/cy_flash.c **** *
 226:Generated_Source\PSoC6\pdl\drivers\peripheral\flash/cy_flash.c **** * \sideeffect If this function is called by the CM4 the user code on CM0P and
 227:Generated_Source\PSoC6\pdl\drivers\peripheral\flash/cy_flash.c **** * the user code on CM4 are blocked until erase flash row operation is finished.
 228:Generated_Source\PSoC6\pdl\drivers\peripheral\flash/cy_flash.c **** * If this function is called by the CM0P the user code on CM4 is not blocked and
 229:Generated_Source\PSoC6\pdl\drivers\peripheral\flash/cy_flash.c **** * the user code on CM0P is blocked until erase flash row operation is finished.
 230:Generated_Source\PSoC6\pdl\drivers\peripheral\flash/cy_flash.c **** * Plan your task allocation accordingly.
 231:Generated_Source\PSoC6\pdl\drivers\peripheral\flash/cy_flash.c **** *
 232:Generated_Source\PSoC6\pdl\drivers\peripheral\flash/cy_flash.c **** *******************************************************************************/
 233:Generated_Source\PSoC6\pdl\drivers\peripheral\flash/cy_flash.c **** cy_en_flashdrv_status_t Cy_Flash_EraseRow(uint32_t rowAddr)
 234:Generated_Source\PSoC6\pdl\drivers\peripheral\flash/cy_flash.c **** {
 235:Generated_Source\PSoC6\pdl\drivers\peripheral\flash/cy_flash.c ****     cy_en_flashdrv_status_t result;
 236:Generated_Source\PSoC6\pdl\drivers\peripheral\flash/cy_flash.c **** 
 237:Generated_Source\PSoC6\pdl\drivers\peripheral\flash/cy_flash.c ****     /* Prepares arguments to be passed to SROM API */
 238:Generated_Source\PSoC6\pdl\drivers\peripheral\flash/cy_flash.c ****     if (Cy_Flash_BoundsCheck(rowAddr) != false)
 239:Generated_Source\PSoC6\pdl\drivers\peripheral\flash/cy_flash.c ****     {
 240:Generated_Source\PSoC6\pdl\drivers\peripheral\flash/cy_flash.c ****         context.opcode = CY_FLASH_OPCODE_ERASE_ROW | CY_FLASH_BLOCKING_MODE;
 241:Generated_Source\PSoC6\pdl\drivers\peripheral\flash/cy_flash.c ****         context.arg1 = rowAddr;
 242:Generated_Source\PSoC6\pdl\drivers\peripheral\flash/cy_flash.c ****         context.arg2 = 0UL;
 243:Generated_Source\PSoC6\pdl\drivers\peripheral\flash/cy_flash.c ****         context.arg3 = 0UL;
 244:Generated_Source\PSoC6\pdl\drivers\peripheral\flash/cy_flash.c **** 
 245:Generated_Source\PSoC6\pdl\drivers\peripheral\flash/cy_flash.c **** #if (CY_CPU_CORTEX_M0P)
 246:Generated_Source\PSoC6\pdl\drivers\peripheral\flash/cy_flash.c ****         result = Cy_Flash_SendCmd(CY_FLASH_BLOCKING_MODE, CY_FLASH_NO_DELAY);
 247:Generated_Source\PSoC6\pdl\drivers\peripheral\flash/cy_flash.c **** #else
 248:Generated_Source\PSoC6\pdl\drivers\peripheral\flash/cy_flash.c ****         Cy_Flash_Proxy Cy_Flash_Cm4Proxy;
 249:Generated_Source\PSoC6\pdl\drivers\peripheral\flash/cy_flash.c ****         Cy_Flash_Cm4Proxy = (Cy_Flash_Proxy)CY_FLASH_CM4_FLASH_PROXY_ADDR;
 250:Generated_Source\PSoC6\pdl\drivers\peripheral\flash/cy_flash.c ****         result = Cy_Flash_Cm4Proxy(&context);
 251:Generated_Source\PSoC6\pdl\drivers\peripheral\flash/cy_flash.c ****         result = Cy_Flash_ProcessOpcode((uint32_t)result);
 252:Generated_Source\PSoC6\pdl\drivers\peripheral\flash/cy_flash.c **** 
 253:Generated_Source\PSoC6\pdl\drivers\peripheral\flash/cy_flash.c **** #endif /* (CY_CPU_CORTEX_M0P) */
 254:Generated_Source\PSoC6\pdl\drivers\peripheral\flash/cy_flash.c ****     }
 255:Generated_Source\PSoC6\pdl\drivers\peripheral\flash/cy_flash.c ****     else
 256:Generated_Source\PSoC6\pdl\drivers\peripheral\flash/cy_flash.c ****     {
 257:Generated_Source\PSoC6\pdl\drivers\peripheral\flash/cy_flash.c ****         result = CY_FLASH_DRV_INVALID_INPUT_PARAMETERS;
 258:Generated_Source\PSoC6\pdl\drivers\peripheral\flash/cy_flash.c ****     }
 259:Generated_Source\PSoC6\pdl\drivers\peripheral\flash/cy_flash.c **** 
ARM GAS  C:\Users\kiwamu\AppData\Local\Temp\ccTROAwf.s 			page 6


 260:Generated_Source\PSoC6\pdl\drivers\peripheral\flash/cy_flash.c ****     return (result);
 261:Generated_Source\PSoC6\pdl\drivers\peripheral\flash/cy_flash.c **** }
 262:Generated_Source\PSoC6\pdl\drivers\peripheral\flash/cy_flash.c **** 
 263:Generated_Source\PSoC6\pdl\drivers\peripheral\flash/cy_flash.c **** 
 264:Generated_Source\PSoC6\pdl\drivers\peripheral\flash/cy_flash.c **** /*******************************************************************************
 265:Generated_Source\PSoC6\pdl\drivers\peripheral\flash/cy_flash.c **** * Function Name: Cy_Flash_WriteRow
 266:Generated_Source\PSoC6\pdl\drivers\peripheral\flash/cy_flash.c **** ****************************************************************************//**
 267:Generated_Source\PSoC6\pdl\drivers\peripheral\flash/cy_flash.c **** *
 268:Generated_Source\PSoC6\pdl\drivers\peripheral\flash/cy_flash.c **** * This function writes an array of data to a single row of flash.
 269:Generated_Source\PSoC6\pdl\drivers\peripheral\flash/cy_flash.c **** * Reports success or a reason for failure. Does not return until the Write
 270:Generated_Source\PSoC6\pdl\drivers\peripheral\flash/cy_flash.c **** * operation is complete.
 271:Generated_Source\PSoC6\pdl\drivers\peripheral\flash/cy_flash.c **** * Returns immediately and reports a \ref CY_FLASH_DRV_IPC_BUSY error in the case
 272:Generated_Source\PSoC6\pdl\drivers\peripheral\flash/cy_flash.c **** * when another process is writing to flash. User firmware should not enter the
 273:Generated_Source\PSoC6\pdl\drivers\peripheral\flash/cy_flash.c **** * hibernate mode until flash Write is complete. The Flash operation is allowed
 274:Generated_Source\PSoC6\pdl\drivers\peripheral\flash/cy_flash.c **** * in Sleep and Deep-sleep modes. During the Flash operation, the device should
 275:Generated_Source\PSoC6\pdl\drivers\peripheral\flash/cy_flash.c **** * not be reset, including the XRES pin, a software reset, and watchdog reset
 276:Generated_Source\PSoC6\pdl\drivers\peripheral\flash/cy_flash.c **** * sources. Also, low-voltage detect circuits should be configured to generate
 277:Generated_Source\PSoC6\pdl\drivers\peripheral\flash/cy_flash.c **** * an interrupt instead of a reset. Otherwise, portions of flash may undergo
 278:Generated_Source\PSoC6\pdl\drivers\peripheral\flash/cy_flash.c **** * unexpected changes.
 279:Generated_Source\PSoC6\pdl\drivers\peripheral\flash/cy_flash.c **** *
 280:Generated_Source\PSoC6\pdl\drivers\peripheral\flash/cy_flash.c **** * \param rowAddr Address of the flash row number. The number of the flash rows
 281:Generated_Source\PSoC6\pdl\drivers\peripheral\flash/cy_flash.c **** * is defined by the \ref CY_FLASH_NUMBER_ROWS macro for the selected device.
 282:Generated_Source\PSoC6\pdl\drivers\peripheral\flash/cy_flash.c **** * The Read-while-Write violation occurs when the flash read operation is
 283:Generated_Source\PSoC6\pdl\drivers\peripheral\flash/cy_flash.c **** * initiated in the same flash sector where the flash write operation is
 284:Generated_Source\PSoC6\pdl\drivers\peripheral\flash/cy_flash.c **** * performing. Refer to the device datasheet for the details.
 285:Generated_Source\PSoC6\pdl\drivers\peripheral\flash/cy_flash.c **** * Address must match row start address.
 286:Generated_Source\PSoC6\pdl\drivers\peripheral\flash/cy_flash.c **** *
 287:Generated_Source\PSoC6\pdl\drivers\peripheral\flash/cy_flash.c **** * \param data The pointer to the data which has to be written to flash. The size
 288:Generated_Source\PSoC6\pdl\drivers\peripheral\flash/cy_flash.c **** * of the data array must be equal to the flash row size. The flash row size for
 289:Generated_Source\PSoC6\pdl\drivers\peripheral\flash/cy_flash.c **** * the selected device is defined by the \ref CY_FLASH_SIZEOF_ROW macro. Refer to
 290:Generated_Source\PSoC6\pdl\drivers\peripheral\flash/cy_flash.c **** * the device datasheet for the details.
 291:Generated_Source\PSoC6\pdl\drivers\peripheral\flash/cy_flash.c **** *
 292:Generated_Source\PSoC6\pdl\drivers\peripheral\flash/cy_flash.c **** * \return Returns the status of the Flash operation,
 293:Generated_Source\PSoC6\pdl\drivers\peripheral\flash/cy_flash.c **** * see \ref cy_en_flashdrv_status_t.
 294:Generated_Source\PSoC6\pdl\drivers\peripheral\flash/cy_flash.c **** *
 295:Generated_Source\PSoC6\pdl\drivers\peripheral\flash/cy_flash.c **** * \sideeffect If this function is called by the CM4 the user code on CM0P and
 296:Generated_Source\PSoC6\pdl\drivers\peripheral\flash/cy_flash.c **** * the user code on CM4 are blocked until erase flash row operation is finished.
 297:Generated_Source\PSoC6\pdl\drivers\peripheral\flash/cy_flash.c **** * If this function is called by the CM0P the user code on CM4 is not blocked and
 298:Generated_Source\PSoC6\pdl\drivers\peripheral\flash/cy_flash.c **** * the user code on CM0P is blocked until erase flash row operation is finished.
 299:Generated_Source\PSoC6\pdl\drivers\peripheral\flash/cy_flash.c **** * Plan your task allocation accordingly.
 300:Generated_Source\PSoC6\pdl\drivers\peripheral\flash/cy_flash.c **** *
 301:Generated_Source\PSoC6\pdl\drivers\peripheral\flash/cy_flash.c **** *******************************************************************************/
 302:Generated_Source\PSoC6\pdl\drivers\peripheral\flash/cy_flash.c **** cy_en_flashdrv_status_t Cy_Flash_WriteRow(uint32_t rowAddr, const uint32_t* data)
 303:Generated_Source\PSoC6\pdl\drivers\peripheral\flash/cy_flash.c **** {
 304:Generated_Source\PSoC6\pdl\drivers\peripheral\flash/cy_flash.c ****     cy_en_flashdrv_status_t result;
 305:Generated_Source\PSoC6\pdl\drivers\peripheral\flash/cy_flash.c **** 
 306:Generated_Source\PSoC6\pdl\drivers\peripheral\flash/cy_flash.c **** #if (CY_CPU_CORTEX_M0P)
 307:Generated_Source\PSoC6\pdl\drivers\peripheral\flash/cy_flash.c ****     /* Checks whether the input parameters are valid */
 308:Generated_Source\PSoC6\pdl\drivers\peripheral\flash/cy_flash.c ****     if (Cy_Flash_PrepareContext(rowAddr, data, CY_FLASH_BLOCKING_MODE) != (uint32_t)CY_FLASH_DRV_IN
 309:Generated_Source\PSoC6\pdl\drivers\peripheral\flash/cy_flash.c ****     {
 310:Generated_Source\PSoC6\pdl\drivers\peripheral\flash/cy_flash.c ****         result = Cy_Flash_SendCmd(CY_FLASH_BLOCKING_MODE, CY_FLASH_NO_DELAY);
 311:Generated_Source\PSoC6\pdl\drivers\peripheral\flash/cy_flash.c ****     }
 312:Generated_Source\PSoC6\pdl\drivers\peripheral\flash/cy_flash.c ****     else
 313:Generated_Source\PSoC6\pdl\drivers\peripheral\flash/cy_flash.c ****     {
 314:Generated_Source\PSoC6\pdl\drivers\peripheral\flash/cy_flash.c ****         result = CY_FLASH_DRV_INVALID_INPUT_PARAMETERS;
 315:Generated_Source\PSoC6\pdl\drivers\peripheral\flash/cy_flash.c ****     }
 316:Generated_Source\PSoC6\pdl\drivers\peripheral\flash/cy_flash.c **** 
ARM GAS  C:\Users\kiwamu\AppData\Local\Temp\ccTROAwf.s 			page 7


 317:Generated_Source\PSoC6\pdl\drivers\peripheral\flash/cy_flash.c **** #else
 318:Generated_Source\PSoC6\pdl\drivers\peripheral\flash/cy_flash.c ****     if (Cy_Flash_PrepareContext(rowAddr, data, CY_FLASH_BLOCKING_MODE) != (uint32_t)CY_FLASH_DRV_IN
 319:Generated_Source\PSoC6\pdl\drivers\peripheral\flash/cy_flash.c ****     {
 320:Generated_Source\PSoC6\pdl\drivers\peripheral\flash/cy_flash.c ****         Cy_Flash_Proxy Cy_Flash_Cm4Proxy;
 321:Generated_Source\PSoC6\pdl\drivers\peripheral\flash/cy_flash.c ****         Cy_Flash_Cm4Proxy = (Cy_Flash_Proxy)CY_FLASH_CM4_FLASH_PROXY_ADDR;
 322:Generated_Source\PSoC6\pdl\drivers\peripheral\flash/cy_flash.c ****         result = Cy_Flash_Cm4Proxy(&context);
 323:Generated_Source\PSoC6\pdl\drivers\peripheral\flash/cy_flash.c ****         result = Cy_Flash_ProcessOpcode((uint32_t)result);
 324:Generated_Source\PSoC6\pdl\drivers\peripheral\flash/cy_flash.c ****     }
 325:Generated_Source\PSoC6\pdl\drivers\peripheral\flash/cy_flash.c ****     else
 326:Generated_Source\PSoC6\pdl\drivers\peripheral\flash/cy_flash.c ****     {
 327:Generated_Source\PSoC6\pdl\drivers\peripheral\flash/cy_flash.c ****         result = CY_FLASH_DRV_INVALID_INPUT_PARAMETERS;
 328:Generated_Source\PSoC6\pdl\drivers\peripheral\flash/cy_flash.c ****     }
 329:Generated_Source\PSoC6\pdl\drivers\peripheral\flash/cy_flash.c **** #endif /* (CY_CPU_CORTEX_M0P) */
 330:Generated_Source\PSoC6\pdl\drivers\peripheral\flash/cy_flash.c **** 
 331:Generated_Source\PSoC6\pdl\drivers\peripheral\flash/cy_flash.c **** 
 332:Generated_Source\PSoC6\pdl\drivers\peripheral\flash/cy_flash.c ****     return (result);
 333:Generated_Source\PSoC6\pdl\drivers\peripheral\flash/cy_flash.c **** }
 334:Generated_Source\PSoC6\pdl\drivers\peripheral\flash/cy_flash.c **** 
 335:Generated_Source\PSoC6\pdl\drivers\peripheral\flash/cy_flash.c **** 
 336:Generated_Source\PSoC6\pdl\drivers\peripheral\flash/cy_flash.c **** /*******************************************************************************
 337:Generated_Source\PSoC6\pdl\drivers\peripheral\flash/cy_flash.c **** * Function Name: Cy_Flash_StartWrite
 338:Generated_Source\PSoC6\pdl\drivers\peripheral\flash/cy_flash.c **** ****************************************************************************//**
 339:Generated_Source\PSoC6\pdl\drivers\peripheral\flash/cy_flash.c **** *
 340:Generated_Source\PSoC6\pdl\drivers\peripheral\flash/cy_flash.c **** * Starts writing an array of data to a single row of flash. Returns immediately
 341:Generated_Source\PSoC6\pdl\drivers\peripheral\flash/cy_flash.c **** * and reports a successful start or reason for failure. Returns immediately and
 342:Generated_Source\PSoC6\pdl\drivers\peripheral\flash/cy_flash.c **** * reports a \ref CY_FLASH_DRV_IPC_BUSY error in the case when another process is writing
 343:Generated_Source\PSoC6\pdl\drivers\peripheral\flash/cy_flash.c **** * to flash. User firmware should not enter the hibernate mode until flash Write
 344:Generated_Source\PSoC6\pdl\drivers\peripheral\flash/cy_flash.c **** * is complete. The Flash operation is allowed in Sleep and Deep-sleep modes.
 345:Generated_Source\PSoC6\pdl\drivers\peripheral\flash/cy_flash.c **** * During the flash operation, the device should not be reset, including the
 346:Generated_Source\PSoC6\pdl\drivers\peripheral\flash/cy_flash.c **** * XRES pin, a software reset, and watchdog reset sources. Also, the low-voltage
 347:Generated_Source\PSoC6\pdl\drivers\peripheral\flash/cy_flash.c **** * detect circuits should be configured to generate an interrupt instead of a reset.
 348:Generated_Source\PSoC6\pdl\drivers\peripheral\flash/cy_flash.c **** * Otherwise, portions of flash may undergo unexpected changes.
 349:Generated_Source\PSoC6\pdl\drivers\peripheral\flash/cy_flash.c **** * \note Before reading data from previously programmed/erased flash rows, the
 350:Generated_Source\PSoC6\pdl\drivers\peripheral\flash/cy_flash.c **** * user must clear the flash cache with the Cy_SysLib_ClearFlashCacheAndBuffer()
 351:Generated_Source\PSoC6\pdl\drivers\peripheral\flash/cy_flash.c **** * function.
 352:Generated_Source\PSoC6\pdl\drivers\peripheral\flash/cy_flash.c **** *
 353:Generated_Source\PSoC6\pdl\drivers\peripheral\flash/cy_flash.c **** * \param rowAddr Address of the flash row number. The number of the flash rows
 354:Generated_Source\PSoC6\pdl\drivers\peripheral\flash/cy_flash.c **** * is defined by the \ref CY_FLASH_NUMBER_ROWS macro for the selected device.
 355:Generated_Source\PSoC6\pdl\drivers\peripheral\flash/cy_flash.c **** * The Read-while-Write violation occurs when the flash read operation is
 356:Generated_Source\PSoC6\pdl\drivers\peripheral\flash/cy_flash.c **** * initiated in the same flash sector where the flash write operation is
 357:Generated_Source\PSoC6\pdl\drivers\peripheral\flash/cy_flash.c **** * performing. Refer to the device datasheet for the details.
 358:Generated_Source\PSoC6\pdl\drivers\peripheral\flash/cy_flash.c **** * Address must match row start address.
 359:Generated_Source\PSoC6\pdl\drivers\peripheral\flash/cy_flash.c **** *
 360:Generated_Source\PSoC6\pdl\drivers\peripheral\flash/cy_flash.c **** * \param data The pointer to the data to be written to flash. The size
 361:Generated_Source\PSoC6\pdl\drivers\peripheral\flash/cy_flash.c **** * of the data array must be equal to the flash row size. The flash row size for
 362:Generated_Source\PSoC6\pdl\drivers\peripheral\flash/cy_flash.c **** * the selected device is defined by the \ref CY_FLASH_SIZEOF_ROW macro. Refer to
 363:Generated_Source\PSoC6\pdl\drivers\peripheral\flash/cy_flash.c **** * the device datasheet for the details.
 364:Generated_Source\PSoC6\pdl\drivers\peripheral\flash/cy_flash.c **** *
 365:Generated_Source\PSoC6\pdl\drivers\peripheral\flash/cy_flash.c **** * \return Returns the status of the Flash operation,
 366:Generated_Source\PSoC6\pdl\drivers\peripheral\flash/cy_flash.c **** * see \ref cy_en_flashdrv_status_t.
 367:Generated_Source\PSoC6\pdl\drivers\peripheral\flash/cy_flash.c **** *
 368:Generated_Source\PSoC6\pdl\drivers\peripheral\flash/cy_flash.c **** *******************************************************************************/
 369:Generated_Source\PSoC6\pdl\drivers\peripheral\flash/cy_flash.c **** cy_en_flashdrv_status_t Cy_Flash_StartWrite(uint32_t rowAddr, const uint32_t* data)
 370:Generated_Source\PSoC6\pdl\drivers\peripheral\flash/cy_flash.c **** {
 371:Generated_Source\PSoC6\pdl\drivers\peripheral\flash/cy_flash.c ****     cy_en_flashdrv_status_t result;
 372:Generated_Source\PSoC6\pdl\drivers\peripheral\flash/cy_flash.c **** 
 373:Generated_Source\PSoC6\pdl\drivers\peripheral\flash/cy_flash.c ****     /* Checks whether the input parameters are valid */
ARM GAS  C:\Users\kiwamu\AppData\Local\Temp\ccTROAwf.s 			page 8


 374:Generated_Source\PSoC6\pdl\drivers\peripheral\flash/cy_flash.c ****     if (Cy_Flash_PrepareContext(rowAddr, data, CY_FLASH_NON_BLOCKING_MODE) != (uint32_t)CY_FLASH_DR
 375:Generated_Source\PSoC6\pdl\drivers\peripheral\flash/cy_flash.c ****     {
 376:Generated_Source\PSoC6\pdl\drivers\peripheral\flash/cy_flash.c ****         result = Cy_Flash_SendCmd(CY_FLASH_NON_BLOCKING_MODE, CY_FLASH_START_WRITE_DELAY);
 377:Generated_Source\PSoC6\pdl\drivers\peripheral\flash/cy_flash.c ****     }
 378:Generated_Source\PSoC6\pdl\drivers\peripheral\flash/cy_flash.c ****     else
 379:Generated_Source\PSoC6\pdl\drivers\peripheral\flash/cy_flash.c ****     {
 380:Generated_Source\PSoC6\pdl\drivers\peripheral\flash/cy_flash.c ****         result = CY_FLASH_DRV_INVALID_INPUT_PARAMETERS;
 381:Generated_Source\PSoC6\pdl\drivers\peripheral\flash/cy_flash.c ****     }
 382:Generated_Source\PSoC6\pdl\drivers\peripheral\flash/cy_flash.c **** 
 383:Generated_Source\PSoC6\pdl\drivers\peripheral\flash/cy_flash.c ****     return (result);
 384:Generated_Source\PSoC6\pdl\drivers\peripheral\flash/cy_flash.c **** }
 385:Generated_Source\PSoC6\pdl\drivers\peripheral\flash/cy_flash.c **** 
 386:Generated_Source\PSoC6\pdl\drivers\peripheral\flash/cy_flash.c **** 
 387:Generated_Source\PSoC6\pdl\drivers\peripheral\flash/cy_flash.c **** /*******************************************************************************
 388:Generated_Source\PSoC6\pdl\drivers\peripheral\flash/cy_flash.c **** * Function Name: Cy_Flash_IsWriteComplete
 389:Generated_Source\PSoC6\pdl\drivers\peripheral\flash/cy_flash.c **** ****************************************************************************//**
 390:Generated_Source\PSoC6\pdl\drivers\peripheral\flash/cy_flash.c **** *
 391:Generated_Source\PSoC6\pdl\drivers\peripheral\flash/cy_flash.c **** * Reports a successful Write, reason of failure or busy status
 392:Generated_Source\PSoC6\pdl\drivers\peripheral\flash/cy_flash.c **** * ( \ref CY_FLASH_DRV_OPCODE_BUSY ).
 393:Generated_Source\PSoC6\pdl\drivers\peripheral\flash/cy_flash.c **** *
 394:Generated_Source\PSoC6\pdl\drivers\peripheral\flash/cy_flash.c **** * \return Returns the status of the Flash operation (see \ref cy_en_flashdrv_status_t).
 395:Generated_Source\PSoC6\pdl\drivers\peripheral\flash/cy_flash.c **** *
 396:Generated_Source\PSoC6\pdl\drivers\peripheral\flash/cy_flash.c **** *******************************************************************************/
 397:Generated_Source\PSoC6\pdl\drivers\peripheral\flash/cy_flash.c **** cy_en_flashdrv_status_t Cy_Flash_IsWriteComplete(void)
 398:Generated_Source\PSoC6\pdl\drivers\peripheral\flash/cy_flash.c **** {
 399:Generated_Source\PSoC6\pdl\drivers\peripheral\flash/cy_flash.c ****     return (Cy_Flash_OperationStatus());
 400:Generated_Source\PSoC6\pdl\drivers\peripheral\flash/cy_flash.c **** }
 401:Generated_Source\PSoC6\pdl\drivers\peripheral\flash/cy_flash.c **** 
 402:Generated_Source\PSoC6\pdl\drivers\peripheral\flash/cy_flash.c **** 
 403:Generated_Source\PSoC6\pdl\drivers\peripheral\flash/cy_flash.c **** /*******************************************************************************
 404:Generated_Source\PSoC6\pdl\drivers\peripheral\flash/cy_flash.c **** * Function Name: Cy_Flash_StartErase
 405:Generated_Source\PSoC6\pdl\drivers\peripheral\flash/cy_flash.c **** ****************************************************************************//**
 406:Generated_Source\PSoC6\pdl\drivers\peripheral\flash/cy_flash.c **** *
 407:Generated_Source\PSoC6\pdl\drivers\peripheral\flash/cy_flash.c **** * Starts erasing a single row of flash. Returns immediately
 408:Generated_Source\PSoC6\pdl\drivers\peripheral\flash/cy_flash.c **** * and reports a successful start or reason for failure. Returns immediately and
 409:Generated_Source\PSoC6\pdl\drivers\peripheral\flash/cy_flash.c **** * reports a \ref CY_FLASH_DRV_IPC_BUSY error in the case when IPC structure is locked
 410:Generated_Source\PSoC6\pdl\drivers\peripheral\flash/cy_flash.c **** * by another process. User firmware should not enter the hibernate mode until
 411:Generated_Source\PSoC6\pdl\drivers\peripheral\flash/cy_flash.c **** * flash Erase is complete. The Flash operation is allowed in Sleep and Deep-sleep modes.
 412:Generated_Source\PSoC6\pdl\drivers\peripheral\flash/cy_flash.c **** * During the flash operation, the device should not be reset, including the
 413:Generated_Source\PSoC6\pdl\drivers\peripheral\flash/cy_flash.c **** * XRES pin, a software reset, and watchdog reset sources. Also, the low-voltage
 414:Generated_Source\PSoC6\pdl\drivers\peripheral\flash/cy_flash.c **** * detect circuits should be configured to generate an interrupt instead of a reset.
 415:Generated_Source\PSoC6\pdl\drivers\peripheral\flash/cy_flash.c **** * Otherwise, portions of flash may undergo unexpected changes.
 416:Generated_Source\PSoC6\pdl\drivers\peripheral\flash/cy_flash.c **** * \note Before reading data from previously programmed/erased flash rows, the
 417:Generated_Source\PSoC6\pdl\drivers\peripheral\flash/cy_flash.c **** * user must clear the flash cache with the Cy_SysLib_ClearFlashCacheAndBuffer()
 418:Generated_Source\PSoC6\pdl\drivers\peripheral\flash/cy_flash.c **** * function.
 419:Generated_Source\PSoC6\pdl\drivers\peripheral\flash/cy_flash.c **** *
 420:Generated_Source\PSoC6\pdl\drivers\peripheral\flash/cy_flash.c **** * \param rowAddr Address of the flash row number. The number of the flash rows
 421:Generated_Source\PSoC6\pdl\drivers\peripheral\flash/cy_flash.c **** * is defined by the \ref CY_FLASH_NUMBER_ROWS macro for the selected device.
 422:Generated_Source\PSoC6\pdl\drivers\peripheral\flash/cy_flash.c **** * The Read-while-Write violation occurs when the flash read operation is
 423:Generated_Source\PSoC6\pdl\drivers\peripheral\flash/cy_flash.c **** * initiated in the same flash sector where the flash erase operation is
 424:Generated_Source\PSoC6\pdl\drivers\peripheral\flash/cy_flash.c **** * performing. Refer to the device datasheet for the details.
 425:Generated_Source\PSoC6\pdl\drivers\peripheral\flash/cy_flash.c **** * Address must match row start address.
 426:Generated_Source\PSoC6\pdl\drivers\peripheral\flash/cy_flash.c **** *
 427:Generated_Source\PSoC6\pdl\drivers\peripheral\flash/cy_flash.c **** * \return Returns the status of the Flash operation,
 428:Generated_Source\PSoC6\pdl\drivers\peripheral\flash/cy_flash.c **** * see \ref cy_en_flashdrv_status_t.
 429:Generated_Source\PSoC6\pdl\drivers\peripheral\flash/cy_flash.c **** *
 430:Generated_Source\PSoC6\pdl\drivers\peripheral\flash/cy_flash.c **** *******************************************************************************/
ARM GAS  C:\Users\kiwamu\AppData\Local\Temp\ccTROAwf.s 			page 9


 431:Generated_Source\PSoC6\pdl\drivers\peripheral\flash/cy_flash.c **** cy_en_flashdrv_status_t Cy_Flash_StartErase(uint32_t rowAddr)
 432:Generated_Source\PSoC6\pdl\drivers\peripheral\flash/cy_flash.c **** {
 433:Generated_Source\PSoC6\pdl\drivers\peripheral\flash/cy_flash.c ****     cy_en_flashdrv_status_t retVal;
 434:Generated_Source\PSoC6\pdl\drivers\peripheral\flash/cy_flash.c **** 
 435:Generated_Source\PSoC6\pdl\drivers\peripheral\flash/cy_flash.c ****     /* Prepares arguments to be passed to SROM API */
 436:Generated_Source\PSoC6\pdl\drivers\peripheral\flash/cy_flash.c ****     if (Cy_Flash_BoundsCheck(rowAddr) != false)
 437:Generated_Source\PSoC6\pdl\drivers\peripheral\flash/cy_flash.c ****     {
 438:Generated_Source\PSoC6\pdl\drivers\peripheral\flash/cy_flash.c ****         context.opcode = CY_FLASH_OPCODE_ERASE_ROW;
 439:Generated_Source\PSoC6\pdl\drivers\peripheral\flash/cy_flash.c ****         context.arg1 = rowAddr;
 440:Generated_Source\PSoC6\pdl\drivers\peripheral\flash/cy_flash.c ****         context.arg2 = 0UL;
 441:Generated_Source\PSoC6\pdl\drivers\peripheral\flash/cy_flash.c ****         context.arg3 = 0UL;
 442:Generated_Source\PSoC6\pdl\drivers\peripheral\flash/cy_flash.c ****         retVal = Cy_Flash_SendCmd(CY_FLASH_NON_BLOCKING_MODE, CY_FLASH_START_ERASE_DELAY);
 443:Generated_Source\PSoC6\pdl\drivers\peripheral\flash/cy_flash.c ****     }
 444:Generated_Source\PSoC6\pdl\drivers\peripheral\flash/cy_flash.c ****     else
 445:Generated_Source\PSoC6\pdl\drivers\peripheral\flash/cy_flash.c ****     {
 446:Generated_Source\PSoC6\pdl\drivers\peripheral\flash/cy_flash.c ****         retVal = CY_FLASH_DRV_INVALID_INPUT_PARAMETERS;
 447:Generated_Source\PSoC6\pdl\drivers\peripheral\flash/cy_flash.c ****     }
 448:Generated_Source\PSoC6\pdl\drivers\peripheral\flash/cy_flash.c **** 
 449:Generated_Source\PSoC6\pdl\drivers\peripheral\flash/cy_flash.c ****     return (retVal);
 450:Generated_Source\PSoC6\pdl\drivers\peripheral\flash/cy_flash.c **** }
 451:Generated_Source\PSoC6\pdl\drivers\peripheral\flash/cy_flash.c **** 
 452:Generated_Source\PSoC6\pdl\drivers\peripheral\flash/cy_flash.c **** 
 453:Generated_Source\PSoC6\pdl\drivers\peripheral\flash/cy_flash.c **** /*******************************************************************************
 454:Generated_Source\PSoC6\pdl\drivers\peripheral\flash/cy_flash.c **** * Function Name: Cy_Flash_IsEraseComplete
 455:Generated_Source\PSoC6\pdl\drivers\peripheral\flash/cy_flash.c **** ****************************************************************************//**
 456:Generated_Source\PSoC6\pdl\drivers\peripheral\flash/cy_flash.c **** *
 457:Generated_Source\PSoC6\pdl\drivers\peripheral\flash/cy_flash.c **** * Reports a successful Erase, reason of failure or busy status
 458:Generated_Source\PSoC6\pdl\drivers\peripheral\flash/cy_flash.c **** * ( \ref CY_FLASH_DRV_OPCODE_BUSY ).
 459:Generated_Source\PSoC6\pdl\drivers\peripheral\flash/cy_flash.c **** *
 460:Generated_Source\PSoC6\pdl\drivers\peripheral\flash/cy_flash.c **** * \return Returns the status of the Flash operation (see \ref cy_en_flashdrv_status_t).
 461:Generated_Source\PSoC6\pdl\drivers\peripheral\flash/cy_flash.c **** *
 462:Generated_Source\PSoC6\pdl\drivers\peripheral\flash/cy_flash.c **** *******************************************************************************/
 463:Generated_Source\PSoC6\pdl\drivers\peripheral\flash/cy_flash.c **** cy_en_flashdrv_status_t Cy_Flash_IsEraseComplete(void)
 464:Generated_Source\PSoC6\pdl\drivers\peripheral\flash/cy_flash.c **** {
 465:Generated_Source\PSoC6\pdl\drivers\peripheral\flash/cy_flash.c ****     return (Cy_Flash_OperationStatus());
 466:Generated_Source\PSoC6\pdl\drivers\peripheral\flash/cy_flash.c **** }
 467:Generated_Source\PSoC6\pdl\drivers\peripheral\flash/cy_flash.c **** 
 468:Generated_Source\PSoC6\pdl\drivers\peripheral\flash/cy_flash.c **** 
 469:Generated_Source\PSoC6\pdl\drivers\peripheral\flash/cy_flash.c **** /*******************************************************************************
 470:Generated_Source\PSoC6\pdl\drivers\peripheral\flash/cy_flash.c **** * Function Name: Cy_Flash_StartProgram
 471:Generated_Source\PSoC6\pdl\drivers\peripheral\flash/cy_flash.c **** ****************************************************************************//**
 472:Generated_Source\PSoC6\pdl\drivers\peripheral\flash/cy_flash.c **** * Starts writing an array of data to a single row of flash. Returns immediately 
 473:Generated_Source\PSoC6\pdl\drivers\peripheral\flash/cy_flash.c **** * and reports a successful start or reason for failure. Returns immediately and
 474:Generated_Source\PSoC6\pdl\drivers\peripheral\flash/cy_flash.c **** * reports a \ref CY_FLASH_DRV_IPC_BUSY error if another process is writing
 475:Generated_Source\PSoC6\pdl\drivers\peripheral\flash/cy_flash.c **** * to flash. The user firmware should not enter Hibernate mode until flash Write
 476:Generated_Source\PSoC6\pdl\drivers\peripheral\flash/cy_flash.c **** * is complete. The Flash operation is allowed in Sleep and Deep-Sleep modes.
 477:Generated_Source\PSoC6\pdl\drivers\peripheral\flash/cy_flash.c **** * During the Flash operation, the device should not be reset, including the
 478:Generated_Source\PSoC6\pdl\drivers\peripheral\flash/cy_flash.c **** * XRES pin, a software reset, and watchdog reset sources. Also, the low-voltage
 479:Generated_Source\PSoC6\pdl\drivers\peripheral\flash/cy_flash.c **** * detect circuits should be configured to generate an interrupt instead of a reset.
 480:Generated_Source\PSoC6\pdl\drivers\peripheral\flash/cy_flash.c **** * Otherwise, portions of flash may undergo unexpected changes.\n
 481:Generated_Source\PSoC6\pdl\drivers\peripheral\flash/cy_flash.c **** * Before calling this function, the target flash region must be erased by
 482:Generated_Source\PSoC6\pdl\drivers\peripheral\flash/cy_flash.c **** * the StartErase/EraseRow function.\n
 483:Generated_Source\PSoC6\pdl\drivers\peripheral\flash/cy_flash.c **** * Data to be programmed must be located in the SRAM memory region.
 484:Generated_Source\PSoC6\pdl\drivers\peripheral\flash/cy_flash.c **** * \note Before reading data from previously programmed/erased flash rows, the
 485:Generated_Source\PSoC6\pdl\drivers\peripheral\flash/cy_flash.c **** * user must clear the flash cache with the Cy_SysLib_ClearFlashCacheAndBuffer()
 486:Generated_Source\PSoC6\pdl\drivers\peripheral\flash/cy_flash.c **** * function.
 487:Generated_Source\PSoC6\pdl\drivers\peripheral\flash/cy_flash.c **** *
ARM GAS  C:\Users\kiwamu\AppData\Local\Temp\ccTROAwf.s 			page 10


 488:Generated_Source\PSoC6\pdl\drivers\peripheral\flash/cy_flash.c **** * \param rowAddr The address of the flash row number. The number of the flash rows
 489:Generated_Source\PSoC6\pdl\drivers\peripheral\flash/cy_flash.c **** * is defined by the \ref CY_FLASH_NUMBER_ROWS macro for the selected device.
 490:Generated_Source\PSoC6\pdl\drivers\peripheral\flash/cy_flash.c **** * The Read-while-Write violation occurs when the Flash Write operation is
 491:Generated_Source\PSoC6\pdl\drivers\peripheral\flash/cy_flash.c **** * performing. Refer to the device datasheet for the details.
 492:Generated_Source\PSoC6\pdl\drivers\peripheral\flash/cy_flash.c **** * The address must match the row start address.
 493:Generated_Source\PSoC6\pdl\drivers\peripheral\flash/cy_flash.c **** *
 494:Generated_Source\PSoC6\pdl\drivers\peripheral\flash/cy_flash.c **** * \param data The pointer to the data to be written to flash. The size
 495:Generated_Source\PSoC6\pdl\drivers\peripheral\flash/cy_flash.c **** * of the data array must be equal to the flash row size. The flash row size for
 496:Generated_Source\PSoC6\pdl\drivers\peripheral\flash/cy_flash.c **** * the selected device is defined by the \ref CY_FLASH_SIZEOF_ROW macro. Refer to
 497:Generated_Source\PSoC6\pdl\drivers\peripheral\flash/cy_flash.c **** * the device datasheet for the details.
 498:Generated_Source\PSoC6\pdl\drivers\peripheral\flash/cy_flash.c **** *
 499:Generated_Source\PSoC6\pdl\drivers\peripheral\flash/cy_flash.c **** * \return Returns the status of the Flash operation,
 500:Generated_Source\PSoC6\pdl\drivers\peripheral\flash/cy_flash.c **** * see \ref cy_en_flashdrv_status_t.
 501:Generated_Source\PSoC6\pdl\drivers\peripheral\flash/cy_flash.c **** *
 502:Generated_Source\PSoC6\pdl\drivers\peripheral\flash/cy_flash.c **** *******************************************************************************/
 503:Generated_Source\PSoC6\pdl\drivers\peripheral\flash/cy_flash.c **** cy_en_flashdrv_status_t Cy_Flash_StartProgram(uint32_t rowAddr, const uint32_t* data)
 504:Generated_Source\PSoC6\pdl\drivers\peripheral\flash/cy_flash.c **** {
 505:Generated_Source\PSoC6\pdl\drivers\peripheral\flash/cy_flash.c ****     cy_en_flashdrv_status_t result;
 506:Generated_Source\PSoC6\pdl\drivers\peripheral\flash/cy_flash.c **** 
 507:Generated_Source\PSoC6\pdl\drivers\peripheral\flash/cy_flash.c ****     /* Prepares arguments to be passed to SROM API */
 508:Generated_Source\PSoC6\pdl\drivers\peripheral\flash/cy_flash.c ****     if (Cy_Flash_BoundsCheck(rowAddr) != false)
 509:Generated_Source\PSoC6\pdl\drivers\peripheral\flash/cy_flash.c ****     {
 510:Generated_Source\PSoC6\pdl\drivers\peripheral\flash/cy_flash.c ****         context.opcode = CY_FLASH_OPCODE_PROGRAM_ROW | CY_FLASH_NON_BLOCKING_MODE;
 511:Generated_Source\PSoC6\pdl\drivers\peripheral\flash/cy_flash.c ****         context.arg1 = CY_FLASH_CONFIG_DATASIZE | CY_FLASH_DATA_LOC_SRAM;
 512:Generated_Source\PSoC6\pdl\drivers\peripheral\flash/cy_flash.c ****         context.arg2 = rowAddr;
 513:Generated_Source\PSoC6\pdl\drivers\peripheral\flash/cy_flash.c ****         context.arg3 = (uint32_t)data;
 514:Generated_Source\PSoC6\pdl\drivers\peripheral\flash/cy_flash.c **** 
 515:Generated_Source\PSoC6\pdl\drivers\peripheral\flash/cy_flash.c ****         result = Cy_Flash_SendCmd(CY_FLASH_NON_BLOCKING_MODE, CY_FLASH_START_PROGRAM_DELAY);
 516:Generated_Source\PSoC6\pdl\drivers\peripheral\flash/cy_flash.c ****     }
 517:Generated_Source\PSoC6\pdl\drivers\peripheral\flash/cy_flash.c ****     else
 518:Generated_Source\PSoC6\pdl\drivers\peripheral\flash/cy_flash.c ****     {
 519:Generated_Source\PSoC6\pdl\drivers\peripheral\flash/cy_flash.c ****         result = CY_FLASH_DRV_INVALID_INPUT_PARAMETERS;
 520:Generated_Source\PSoC6\pdl\drivers\peripheral\flash/cy_flash.c ****     }
 521:Generated_Source\PSoC6\pdl\drivers\peripheral\flash/cy_flash.c ****     return (result);
 522:Generated_Source\PSoC6\pdl\drivers\peripheral\flash/cy_flash.c **** }
 523:Generated_Source\PSoC6\pdl\drivers\peripheral\flash/cy_flash.c **** 
 524:Generated_Source\PSoC6\pdl\drivers\peripheral\flash/cy_flash.c **** 
 525:Generated_Source\PSoC6\pdl\drivers\peripheral\flash/cy_flash.c **** /*******************************************************************************
 526:Generated_Source\PSoC6\pdl\drivers\peripheral\flash/cy_flash.c **** * Function Name: Cy_Flash_IsProgramComplete
 527:Generated_Source\PSoC6\pdl\drivers\peripheral\flash/cy_flash.c **** ****************************************************************************//**
 528:Generated_Source\PSoC6\pdl\drivers\peripheral\flash/cy_flash.c **** *
 529:Generated_Source\PSoC6\pdl\drivers\peripheral\flash/cy_flash.c **** * Reports a successful program operation, failure or busy status
 530:Generated_Source\PSoC6\pdl\drivers\peripheral\flash/cy_flash.c **** * ( \ref CY_FLASH_DRV_OPCODE_BUSY ).
 531:Generated_Source\PSoC6\pdl\drivers\peripheral\flash/cy_flash.c **** *
 532:Generated_Source\PSoC6\pdl\drivers\peripheral\flash/cy_flash.c **** * \return Returns the status of the Flash operation (see \ref cy_en_flashdrv_status_t).
 533:Generated_Source\PSoC6\pdl\drivers\peripheral\flash/cy_flash.c **** *
 534:Generated_Source\PSoC6\pdl\drivers\peripheral\flash/cy_flash.c **** *******************************************************************************/
 535:Generated_Source\PSoC6\pdl\drivers\peripheral\flash/cy_flash.c **** cy_en_flashdrv_status_t Cy_Flash_IsProgramComplete(void)
 536:Generated_Source\PSoC6\pdl\drivers\peripheral\flash/cy_flash.c **** {
 537:Generated_Source\PSoC6\pdl\drivers\peripheral\flash/cy_flash.c ****     return (Cy_Flash_OperationStatus());
 538:Generated_Source\PSoC6\pdl\drivers\peripheral\flash/cy_flash.c **** }
 539:Generated_Source\PSoC6\pdl\drivers\peripheral\flash/cy_flash.c **** 
 540:Generated_Source\PSoC6\pdl\drivers\peripheral\flash/cy_flash.c **** /*******************************************************************************
 541:Generated_Source\PSoC6\pdl\drivers\peripheral\flash/cy_flash.c **** * Function Name: Cy_Flash_RowChecksum
 542:Generated_Source\PSoC6\pdl\drivers\peripheral\flash/cy_flash.c **** ****************************************************************************//**
 543:Generated_Source\PSoC6\pdl\drivers\peripheral\flash/cy_flash.c **** *
 544:Generated_Source\PSoC6\pdl\drivers\peripheral\flash/cy_flash.c **** * Returns a checksum value of the specified flash row.
ARM GAS  C:\Users\kiwamu\AppData\Local\Temp\ccTROAwf.s 			page 11


 545:Generated_Source\PSoC6\pdl\drivers\peripheral\flash/cy_flash.c **** *
 546:Generated_Source\PSoC6\pdl\drivers\peripheral\flash/cy_flash.c **** * \param rowNum The Checksum is calculated to the flash row.
 547:Generated_Source\PSoC6\pdl\drivers\peripheral\flash/cy_flash.c **** *
 548:Generated_Source\PSoC6\pdl\drivers\peripheral\flash/cy_flash.c **** * \param checksumPtr The pointer to the address where checksum is to be stored
 549:Generated_Source\PSoC6\pdl\drivers\peripheral\flash/cy_flash.c **** *
 550:Generated_Source\PSoC6\pdl\drivers\peripheral\flash/cy_flash.c **** * \return Returns the status of the Flash operation.
 551:Generated_Source\PSoC6\pdl\drivers\peripheral\flash/cy_flash.c **** *
 552:Generated_Source\PSoC6\pdl\drivers\peripheral\flash/cy_flash.c **** *******************************************************************************/
 553:Generated_Source\PSoC6\pdl\drivers\peripheral\flash/cy_flash.c **** cy_en_flashdrv_status_t Cy_Flash_RowChecksum (uint32_t rowNum, uint32_t* checksumPtr)
 554:Generated_Source\PSoC6\pdl\drivers\peripheral\flash/cy_flash.c **** {
 555:Generated_Source\PSoC6\pdl\drivers\peripheral\flash/cy_flash.c ****     cy_en_flashdrv_status_t result = CY_FLASH_DRV_INVALID_INPUT_PARAMETERS;
 556:Generated_Source\PSoC6\pdl\drivers\peripheral\flash/cy_flash.c ****     uint32_t resTmp;
 557:Generated_Source\PSoC6\pdl\drivers\peripheral\flash/cy_flash.c **** 
 558:Generated_Source\PSoC6\pdl\drivers\peripheral\flash/cy_flash.c ****     /* Checks whether the input parameters are valid */
 559:Generated_Source\PSoC6\pdl\drivers\peripheral\flash/cy_flash.c ****     if (rowNum < CY_FLASH_NUMBER_ROWS)
 560:Generated_Source\PSoC6\pdl\drivers\peripheral\flash/cy_flash.c ****     {
 561:Generated_Source\PSoC6\pdl\drivers\peripheral\flash/cy_flash.c ****         /* Prepares arguments to be passed to SROM API */
 562:Generated_Source\PSoC6\pdl\drivers\peripheral\flash/cy_flash.c ****         context.opcode = CY_FLASH_OPCODE_CHECKSUM | (rowNum << CY_FLASH_OPCODE_CHECKSUM_ROW_SHIFT);
 563:Generated_Source\PSoC6\pdl\drivers\peripheral\flash/cy_flash.c **** 
 564:Generated_Source\PSoC6\pdl\drivers\peripheral\flash/cy_flash.c ****         /* Tries to acquire the IPC structure and pass the arguments to SROM API */
 565:Generated_Source\PSoC6\pdl\drivers\peripheral\flash/cy_flash.c ****         if (Cy_IPC_Drv_SendMsgPtr(CY_FLASH_IPC_STRUCT, CY_FLASH_IPC_NOTIFY_STRUCT0, (void*)&context
 566:Generated_Source\PSoC6\pdl\drivers\peripheral\flash/cy_flash.c ****         {
 567:Generated_Source\PSoC6\pdl\drivers\peripheral\flash/cy_flash.c ****             /* Polls whether IPC is released and the Flash operation is performed */
 568:Generated_Source\PSoC6\pdl\drivers\peripheral\flash/cy_flash.c ****             while (Cy_IPC_Drv_IsLockAcquired(CY_FLASH_IPC_STRUCT) != false)
 569:Generated_Source\PSoC6\pdl\drivers\peripheral\flash/cy_flash.c ****             {
 570:Generated_Source\PSoC6\pdl\drivers\peripheral\flash/cy_flash.c ****                 /* Wait till IPC is released */
 571:Generated_Source\PSoC6\pdl\drivers\peripheral\flash/cy_flash.c ****             }
 572:Generated_Source\PSoC6\pdl\drivers\peripheral\flash/cy_flash.c **** 
 573:Generated_Source\PSoC6\pdl\drivers\peripheral\flash/cy_flash.c ****             resTmp = context.opcode;
 574:Generated_Source\PSoC6\pdl\drivers\peripheral\flash/cy_flash.c **** 
 575:Generated_Source\PSoC6\pdl\drivers\peripheral\flash/cy_flash.c ****             if((resTmp >> CY_FLASH_ERROR_SHIFT) == CY_FLASH_ERROR_NO_ERROR)
 576:Generated_Source\PSoC6\pdl\drivers\peripheral\flash/cy_flash.c ****             {
 577:Generated_Source\PSoC6\pdl\drivers\peripheral\flash/cy_flash.c ****                 result = CY_FLASH_DRV_SUCCESS;
 578:Generated_Source\PSoC6\pdl\drivers\peripheral\flash/cy_flash.c ****                 *checksumPtr = context.opcode & CY_FLASH_RESULT_MASK;
 579:Generated_Source\PSoC6\pdl\drivers\peripheral\flash/cy_flash.c ****             }
 580:Generated_Source\PSoC6\pdl\drivers\peripheral\flash/cy_flash.c ****         }
 581:Generated_Source\PSoC6\pdl\drivers\peripheral\flash/cy_flash.c ****         else
 582:Generated_Source\PSoC6\pdl\drivers\peripheral\flash/cy_flash.c ****         {
 583:Generated_Source\PSoC6\pdl\drivers\peripheral\flash/cy_flash.c ****             /* The IPC structure is already locked by another process */
 584:Generated_Source\PSoC6\pdl\drivers\peripheral\flash/cy_flash.c ****             result = CY_FLASH_DRV_IPC_BUSY;
 585:Generated_Source\PSoC6\pdl\drivers\peripheral\flash/cy_flash.c ****         }
 586:Generated_Source\PSoC6\pdl\drivers\peripheral\flash/cy_flash.c ****     }
 587:Generated_Source\PSoC6\pdl\drivers\peripheral\flash/cy_flash.c **** 
 588:Generated_Source\PSoC6\pdl\drivers\peripheral\flash/cy_flash.c ****     return (result);
 589:Generated_Source\PSoC6\pdl\drivers\peripheral\flash/cy_flash.c **** }
 590:Generated_Source\PSoC6\pdl\drivers\peripheral\flash/cy_flash.c **** 
 591:Generated_Source\PSoC6\pdl\drivers\peripheral\flash/cy_flash.c **** 
 592:Generated_Source\PSoC6\pdl\drivers\peripheral\flash/cy_flash.c **** /*******************************************************************************
 593:Generated_Source\PSoC6\pdl\drivers\peripheral\flash/cy_flash.c **** * Function Name: Cy_Flash_CalculateHash
 594:Generated_Source\PSoC6\pdl\drivers\peripheral\flash/cy_flash.c **** ****************************************************************************//**
 595:Generated_Source\PSoC6\pdl\drivers\peripheral\flash/cy_flash.c **** *
 596:Generated_Source\PSoC6\pdl\drivers\peripheral\flash/cy_flash.c **** * Returns a hash value of the specified region of flash.
 597:Generated_Source\PSoC6\pdl\drivers\peripheral\flash/cy_flash.c **** *
 598:Generated_Source\PSoC6\pdl\drivers\peripheral\flash/cy_flash.c **** * \param data Start the data address.
 599:Generated_Source\PSoC6\pdl\drivers\peripheral\flash/cy_flash.c **** *
 600:Generated_Source\PSoC6\pdl\drivers\peripheral\flash/cy_flash.c **** * \param numberOfBytes The hash value is calculated for the number of bytes after the
 601:Generated_Source\PSoC6\pdl\drivers\peripheral\flash/cy_flash.c **** * start data address (0 - 1 byte, 1- 2 bytes etc).
ARM GAS  C:\Users\kiwamu\AppData\Local\Temp\ccTROAwf.s 			page 12


 602:Generated_Source\PSoC6\pdl\drivers\peripheral\flash/cy_flash.c **** *
 603:Generated_Source\PSoC6\pdl\drivers\peripheral\flash/cy_flash.c **** * \param hashPtr The pointer to the address where hash is to be stored
 604:Generated_Source\PSoC6\pdl\drivers\peripheral\flash/cy_flash.c **** *
 605:Generated_Source\PSoC6\pdl\drivers\peripheral\flash/cy_flash.c **** * \return Returns the status of the Flash operation.
 606:Generated_Source\PSoC6\pdl\drivers\peripheral\flash/cy_flash.c **** *
 607:Generated_Source\PSoC6\pdl\drivers\peripheral\flash/cy_flash.c **** *******************************************************************************/
 608:Generated_Source\PSoC6\pdl\drivers\peripheral\flash/cy_flash.c **** cy_en_flashdrv_status_t Cy_Flash_CalculateHash (const uint32_t* data, uint32_t numberOfBytes,  uint
 609:Generated_Source\PSoC6\pdl\drivers\peripheral\flash/cy_flash.c **** {
 610:Generated_Source\PSoC6\pdl\drivers\peripheral\flash/cy_flash.c ****     cy_en_flashdrv_status_t result = CY_FLASH_DRV_INVALID_INPUT_PARAMETERS;
 611:Generated_Source\PSoC6\pdl\drivers\peripheral\flash/cy_flash.c ****     volatile uint32_t resTmp;
 612:Generated_Source\PSoC6\pdl\drivers\peripheral\flash/cy_flash.c **** 
 613:Generated_Source\PSoC6\pdl\drivers\peripheral\flash/cy_flash.c ****     /* Checks whether the input parameters are valid */
 614:Generated_Source\PSoC6\pdl\drivers\peripheral\flash/cy_flash.c ****     if (data != NULL)
 615:Generated_Source\PSoC6\pdl\drivers\peripheral\flash/cy_flash.c ****     {
 616:Generated_Source\PSoC6\pdl\drivers\peripheral\flash/cy_flash.c ****         /* Prepares arguments to be passed to SROM API */
 617:Generated_Source\PSoC6\pdl\drivers\peripheral\flash/cy_flash.c ****         context.opcode = CY_FLASH_OPCODE_HASH;
 618:Generated_Source\PSoC6\pdl\drivers\peripheral\flash/cy_flash.c ****         context.arg1 = (uint32_t)data;
 619:Generated_Source\PSoC6\pdl\drivers\peripheral\flash/cy_flash.c ****         context.arg2 = numberOfBytes;
 620:Generated_Source\PSoC6\pdl\drivers\peripheral\flash/cy_flash.c **** 
 621:Generated_Source\PSoC6\pdl\drivers\peripheral\flash/cy_flash.c ****         /* Tries to acquire the IPC structure and pass the arguments to SROM API */
 622:Generated_Source\PSoC6\pdl\drivers\peripheral\flash/cy_flash.c ****         if (Cy_IPC_Drv_SendMsgPtr(CY_FLASH_IPC_STRUCT, CY_FLASH_IPC_NOTIFY_STRUCT0, (void*)&context
 623:Generated_Source\PSoC6\pdl\drivers\peripheral\flash/cy_flash.c ****         {
 624:Generated_Source\PSoC6\pdl\drivers\peripheral\flash/cy_flash.c ****             /* Polls whether IPC is released and the Flash operation is performed */
 625:Generated_Source\PSoC6\pdl\drivers\peripheral\flash/cy_flash.c ****             while (Cy_IPC_Drv_IsLockAcquired(CY_FLASH_IPC_STRUCT) != false)
 626:Generated_Source\PSoC6\pdl\drivers\peripheral\flash/cy_flash.c ****             {
 627:Generated_Source\PSoC6\pdl\drivers\peripheral\flash/cy_flash.c ****                 /* Wait till IPC is released */
 628:Generated_Source\PSoC6\pdl\drivers\peripheral\flash/cy_flash.c ****             }
 629:Generated_Source\PSoC6\pdl\drivers\peripheral\flash/cy_flash.c **** 
 630:Generated_Source\PSoC6\pdl\drivers\peripheral\flash/cy_flash.c ****             resTmp = context.opcode;
 631:Generated_Source\PSoC6\pdl\drivers\peripheral\flash/cy_flash.c **** 
 632:Generated_Source\PSoC6\pdl\drivers\peripheral\flash/cy_flash.c ****             if((resTmp >> CY_FLASH_ERROR_SHIFT) == CY_FLASH_ERROR_NO_ERROR)
 633:Generated_Source\PSoC6\pdl\drivers\peripheral\flash/cy_flash.c ****             {
 634:Generated_Source\PSoC6\pdl\drivers\peripheral\flash/cy_flash.c ****                 result = CY_FLASH_DRV_SUCCESS;
 635:Generated_Source\PSoC6\pdl\drivers\peripheral\flash/cy_flash.c ****                 *hashPtr = context.opcode & CY_FLASH_RESULT_MASK;
 636:Generated_Source\PSoC6\pdl\drivers\peripheral\flash/cy_flash.c ****             }
 637:Generated_Source\PSoC6\pdl\drivers\peripheral\flash/cy_flash.c ****         }
 638:Generated_Source\PSoC6\pdl\drivers\peripheral\flash/cy_flash.c ****         else
 639:Generated_Source\PSoC6\pdl\drivers\peripheral\flash/cy_flash.c ****         {
 640:Generated_Source\PSoC6\pdl\drivers\peripheral\flash/cy_flash.c ****             /* The IPC structure is already locked by another process */
 641:Generated_Source\PSoC6\pdl\drivers\peripheral\flash/cy_flash.c ****             result = CY_FLASH_DRV_IPC_BUSY;
 642:Generated_Source\PSoC6\pdl\drivers\peripheral\flash/cy_flash.c ****         }
 643:Generated_Source\PSoC6\pdl\drivers\peripheral\flash/cy_flash.c ****     }
 644:Generated_Source\PSoC6\pdl\drivers\peripheral\flash/cy_flash.c **** 
 645:Generated_Source\PSoC6\pdl\drivers\peripheral\flash/cy_flash.c ****     return (result);
 646:Generated_Source\PSoC6\pdl\drivers\peripheral\flash/cy_flash.c **** }
 647:Generated_Source\PSoC6\pdl\drivers\peripheral\flash/cy_flash.c **** 
 648:Generated_Source\PSoC6\pdl\drivers\peripheral\flash/cy_flash.c **** 
 649:Generated_Source\PSoC6\pdl\drivers\peripheral\flash/cy_flash.c **** /*******************************************************************************
 650:Generated_Source\PSoC6\pdl\drivers\peripheral\flash/cy_flash.c **** * Function Name: Cy_Flash_BoundsCheck
 651:Generated_Source\PSoC6\pdl\drivers\peripheral\flash/cy_flash.c **** ****************************************************************************//**
 652:Generated_Source\PSoC6\pdl\drivers\peripheral\flash/cy_flash.c **** *
 653:Generated_Source\PSoC6\pdl\drivers\peripheral\flash/cy_flash.c **** * Returns false if Flash address is out of boundary, otherwise returns true.
 654:Generated_Source\PSoC6\pdl\drivers\peripheral\flash/cy_flash.c **** *
 655:Generated_Source\PSoC6\pdl\drivers\peripheral\flash/cy_flash.c **** * \param flashAddr Address to be checked
 656:Generated_Source\PSoC6\pdl\drivers\peripheral\flash/cy_flash.c **** *
 657:Generated_Source\PSoC6\pdl\drivers\peripheral\flash/cy_flash.c **** * \return false - out of bound, true - in flash bounds
 658:Generated_Source\PSoC6\pdl\drivers\peripheral\flash/cy_flash.c **** *
ARM GAS  C:\Users\kiwamu\AppData\Local\Temp\ccTROAwf.s 			page 13


 659:Generated_Source\PSoC6\pdl\drivers\peripheral\flash/cy_flash.c **** *******************************************************************************/
 660:Generated_Source\PSoC6\pdl\drivers\peripheral\flash/cy_flash.c **** static bool Cy_Flash_BoundsCheck(uint32_t flashAddr)
 661:Generated_Source\PSoC6\pdl\drivers\peripheral\flash/cy_flash.c **** {
  27              		.loc 1 661 0
  28              		.cfi_startproc
  29              		@ args = 0, pretend = 0, frame = 0
  30              		@ frame_needed = 0, uses_anonymous_args = 0
  31              		@ link register save eliminated.
  32              	.LVL0:
 662:Generated_Source\PSoC6\pdl\drivers\peripheral\flash/cy_flash.c ****     bool result = true;
 663:Generated_Source\PSoC6\pdl\drivers\peripheral\flash/cy_flash.c **** 
 664:Generated_Source\PSoC6\pdl\drivers\peripheral\flash/cy_flash.c ****     if ((flashAddr < CY_FLASH_BASE) || (flashAddr >= (CY_FLASH_BASE + CY_FLASH_SIZE)))
  33              		.loc 1 664 0
  34 0000 F023     		movs	r3, #240
  35 0002 1B06     		lsls	r3, r3, #24
  36 0004 C218     		adds	r2, r0, r3
  37 0006 0B4B     		ldr	r3, .L6
  38 0008 9A42     		cmp	r2, r3
  39 000a 0DD9     		bls	.L3
 665:Generated_Source\PSoC6\pdl\drivers\peripheral\flash/cy_flash.c ****     {
 666:Generated_Source\PSoC6\pdl\drivers\peripheral\flash/cy_flash.c ****         if ((flashAddr < CY_WFLASH_BASE) || (flashAddr >= (CY_WFLASH_BASE + CY_WFLASH_SIZE)))
  40              		.loc 1 666 0
  41 000c 0A4A     		ldr	r2, .L6+4
  42 000e EC23     		movs	r3, #236
  43 0010 1B06     		lsls	r3, r3, #24
  44 0012 C318     		adds	r3, r0, r3
  45 0014 9342     		cmp	r3, r2
  46 0016 09D9     		bls	.L4
 667:Generated_Source\PSoC6\pdl\drivers\peripheral\flash/cy_flash.c ****         {
 668:Generated_Source\PSoC6\pdl\drivers\peripheral\flash/cy_flash.c ****             if ((flashAddr < SFLASH_BASE) || (flashAddr >= (SFLASH_BASE + SFLASH_SECTION_SIZE)))
  47              		.loc 1 668 0
  48 0018 EA23     		movs	r3, #234
  49 001a 1B06     		lsls	r3, r3, #24
  50 001c 9C46     		mov	ip, r3
  51 001e 6044     		add	r0, r0, ip
  52              	.LVL1:
  53 0020 9042     		cmp	r0, r2
  54 0022 05D8     		bhi	.L5
 662:Generated_Source\PSoC6\pdl\drivers\peripheral\flash/cy_flash.c **** 
  55              		.loc 1 662 0
  56 0024 0120     		movs	r0, #1
  57              	.LVL2:
  58 0026 04E0     		b	.L2
  59              	.LVL3:
  60              	.L3:
  61 0028 0120     		movs	r0, #1
  62              	.LVL4:
  63 002a 02E0     		b	.L2
  64              	.LVL5:
  65              	.L4:
  66 002c 0120     		movs	r0, #1
  67              	.LVL6:
  68 002e 00E0     		b	.L2
  69              	.LVL7:
  70              	.L5:
 669:Generated_Source\PSoC6\pdl\drivers\peripheral\flash/cy_flash.c ****             {
 670:Generated_Source\PSoC6\pdl\drivers\peripheral\flash/cy_flash.c ****                 result = false;
ARM GAS  C:\Users\kiwamu\AppData\Local\Temp\ccTROAwf.s 			page 14


  71              		.loc 1 670 0
  72 0030 0020     		movs	r0, #0
  73              	.LVL8:
  74              	.L2:
 671:Generated_Source\PSoC6\pdl\drivers\peripheral\flash/cy_flash.c ****             }
 672:Generated_Source\PSoC6\pdl\drivers\peripheral\flash/cy_flash.c ****         }
 673:Generated_Source\PSoC6\pdl\drivers\peripheral\flash/cy_flash.c ****     }
 674:Generated_Source\PSoC6\pdl\drivers\peripheral\flash/cy_flash.c **** 
 675:Generated_Source\PSoC6\pdl\drivers\peripheral\flash/cy_flash.c ****     return (result);
 676:Generated_Source\PSoC6\pdl\drivers\peripheral\flash/cy_flash.c **** }
  75              		.loc 1 676 0
  76              		@ sp needed
  77 0032 7047     		bx	lr
  78              	.L7:
  79              		.align	2
  80              	.L6:
  81 0034 FFFF0F00 		.word	1048575
  82 0038 FF7F0000 		.word	32767
  83              		.cfi_endproc
  84              	.LFE152:
  85              		.size	Cy_Flash_BoundsCheck, .-Cy_Flash_BoundsCheck
  86              		.section	.text.Cy_Flash_PrepareContext,"ax",%progbits
  87              		.align	2
  88              		.code	16
  89              		.thumb_func
  90              		.type	Cy_Flash_PrepareContext, %function
  91              	Cy_Flash_PrepareContext:
  92              	.LFB153:
 677:Generated_Source\PSoC6\pdl\drivers\peripheral\flash/cy_flash.c **** 
 678:Generated_Source\PSoC6\pdl\drivers\peripheral\flash/cy_flash.c **** 
 679:Generated_Source\PSoC6\pdl\drivers\peripheral\flash/cy_flash.c **** /*******************************************************************************
 680:Generated_Source\PSoC6\pdl\drivers\peripheral\flash/cy_flash.c **** * Function Name: Cy_Flash_PrepareContext
 681:Generated_Source\PSoC6\pdl\drivers\peripheral\flash/cy_flash.c **** ****************************************************************************//**
 682:Generated_Source\PSoC6\pdl\drivers\peripheral\flash/cy_flash.c **** *
 683:Generated_Source\PSoC6\pdl\drivers\peripheral\flash/cy_flash.c **** * Returns 1 if parameters are correct and initialises context, otherwise returns
 684:Generated_Source\PSoC6\pdl\drivers\peripheral\flash/cy_flash.c **** * CY_FLASH_DRV_INVALID_INPUT_PARAMETERS.
 685:Generated_Source\PSoC6\pdl\drivers\peripheral\flash/cy_flash.c **** *
 686:Generated_Source\PSoC6\pdl\drivers\peripheral\flash/cy_flash.c **** * \param rowAddr Address of the flash row number. The number of the flash rows
 687:Generated_Source\PSoC6\pdl\drivers\peripheral\flash/cy_flash.c **** * is defined by the \ref CY_FLASH_NUMBER_ROWS macro for the selected device.
 688:Generated_Source\PSoC6\pdl\drivers\peripheral\flash/cy_flash.c **** * The Read-while-Write violation occurs when the flash read operation is
 689:Generated_Source\PSoC6\pdl\drivers\peripheral\flash/cy_flash.c **** * initiated in the same flash sector where the flash write operation is
 690:Generated_Source\PSoC6\pdl\drivers\peripheral\flash/cy_flash.c **** * performing. Refer to the device datasheet for the details.
 691:Generated_Source\PSoC6\pdl\drivers\peripheral\flash/cy_flash.c **** * Address must match row start address.
 692:Generated_Source\PSoC6\pdl\drivers\peripheral\flash/cy_flash.c **** *
 693:Generated_Source\PSoC6\pdl\drivers\peripheral\flash/cy_flash.c **** * \param data The pointer to the data which has to be written to flash. The size
 694:Generated_Source\PSoC6\pdl\drivers\peripheral\flash/cy_flash.c **** * of the data array must be equal to the flash row size. The flash row size for
 695:Generated_Source\PSoC6\pdl\drivers\peripheral\flash/cy_flash.c **** * the selected device is defined by the \ref CY_FLASH_SIZEOF_ROW macro. Refer to
 696:Generated_Source\PSoC6\pdl\drivers\peripheral\flash/cy_flash.c **** * the device datasheet for the details.
 697:Generated_Source\PSoC6\pdl\drivers\peripheral\flash/cy_flash.c **** *
 698:Generated_Source\PSoC6\pdl\drivers\peripheral\flash/cy_flash.c **** * \param blocking The parameter of how the context will be executed.
 699:Generated_Source\PSoC6\pdl\drivers\peripheral\flash/cy_flash.c **** * * 1 - blocking, If this function is called by the CM4 the user code on CM0P
 700:Generated_Source\PSoC6\pdl\drivers\peripheral\flash/cy_flash.c **** * and the user code on CM4 are blocked until flash write operation is finished.
 701:Generated_Source\PSoC6\pdl\drivers\peripheral\flash/cy_flash.c **** * If this function is called by the CM0P the user code on CM4 is not blocked
 702:Generated_Source\PSoC6\pdl\drivers\peripheral\flash/cy_flash.c **** * and the user code on CM0P is blocked until flash write operation is finished.
 703:Generated_Source\PSoC6\pdl\drivers\peripheral\flash/cy_flash.c **** * * 0 - non-blocking, the user code is not blocked while flash write operation
 704:Generated_Source\PSoC6\pdl\drivers\peripheral\flash/cy_flash.c **** * is executed.
 705:Generated_Source\PSoC6\pdl\drivers\peripheral\flash/cy_flash.c **** *
ARM GAS  C:\Users\kiwamu\AppData\Local\Temp\ccTROAwf.s 			page 15


 706:Generated_Source\PSoC6\pdl\drivers\peripheral\flash/cy_flash.c **** * \return 1 - Context ready, CY_FLASH_DRV_INVALID_INPUT_PARAMETERS - Wrong
 707:Generated_Source\PSoC6\pdl\drivers\peripheral\flash/cy_flash.c **** * arguments
 708:Generated_Source\PSoC6\pdl\drivers\peripheral\flash/cy_flash.c **** *
 709:Generated_Source\PSoC6\pdl\drivers\peripheral\flash/cy_flash.c **** *******************************************************************************/
 710:Generated_Source\PSoC6\pdl\drivers\peripheral\flash/cy_flash.c **** static uint32_t Cy_Flash_PrepareContext(uint32_t rowAddr, const uint32_t* data, uint32_t blocking)
 711:Generated_Source\PSoC6\pdl\drivers\peripheral\flash/cy_flash.c **** {
  93              		.loc 1 711 0
  94              		.cfi_startproc
  95              		@ args = 0, pretend = 0, frame = 0
  96              		@ frame_needed = 0, uses_anonymous_args = 0
  97              	.LVL9:
  98 0000 70B5     		push	{r4, r5, r6, lr}
  99              		.cfi_def_cfa_offset 16
 100              		.cfi_offset 4, -16
 101              		.cfi_offset 5, -12
 102              		.cfi_offset 6, -8
 103              		.cfi_offset 14, -4
 104 0002 0400     		movs	r4, r0
 105 0004 0D00     		movs	r5, r1
 106 0006 1600     		movs	r6, r2
 712:Generated_Source\PSoC6\pdl\drivers\peripheral\flash/cy_flash.c ****     uint32_t result;
 713:Generated_Source\PSoC6\pdl\drivers\peripheral\flash/cy_flash.c **** 
 714:Generated_Source\PSoC6\pdl\drivers\peripheral\flash/cy_flash.c ****     if ((Cy_Flash_BoundsCheck(rowAddr) == false) || (NULL == data))
 107              		.loc 1 714 0
 108 0008 FFF7FEFF 		bl	Cy_Flash_BoundsCheck
 109              	.LVL10:
 110 000c 0028     		cmp	r0, #0
 111 000e 0ED0     		beq	.L10
 112              		.loc 1 714 0 is_stmt 0 discriminator 1
 113 0010 002D     		cmp	r5, #0
 114 0012 0ED0     		beq	.L11
 715:Generated_Source\PSoC6\pdl\drivers\peripheral\flash/cy_flash.c ****     {
 716:Generated_Source\PSoC6\pdl\drivers\peripheral\flash/cy_flash.c ****         result = (uint32_t)CY_FLASH_DRV_INVALID_INPUT_PARAMETERS;
 717:Generated_Source\PSoC6\pdl\drivers\peripheral\flash/cy_flash.c ****     }
 718:Generated_Source\PSoC6\pdl\drivers\peripheral\flash/cy_flash.c ****     else
 719:Generated_Source\PSoC6\pdl\drivers\peripheral\flash/cy_flash.c ****     {
 720:Generated_Source\PSoC6\pdl\drivers\peripheral\flash/cy_flash.c ****         if ((rowAddr%CY_FLASH_SIZEOF_ROW) != 0UL)
 115              		.loc 1 720 0 is_stmt 1
 116 0014 E305     		lsls	r3, r4, #23
 117 0016 0ED1     		bne	.L12
 721:Generated_Source\PSoC6\pdl\drivers\peripheral\flash/cy_flash.c ****         {
 722:Generated_Source\PSoC6\pdl\drivers\peripheral\flash/cy_flash.c ****             result = (uint32_t)CY_FLASH_DRV_INVALID_INPUT_PARAMETERS;
 723:Generated_Source\PSoC6\pdl\drivers\peripheral\flash/cy_flash.c ****         }
 724:Generated_Source\PSoC6\pdl\drivers\peripheral\flash/cy_flash.c ****         else
 725:Generated_Source\PSoC6\pdl\drivers\peripheral\flash/cy_flash.c ****         {
 726:Generated_Source\PSoC6\pdl\drivers\peripheral\flash/cy_flash.c ****             /* Prepares arguments to be passed to SROM API */
 727:Generated_Source\PSoC6\pdl\drivers\peripheral\flash/cy_flash.c ****             context.opcode = CY_FLASH_OPCODE_WRITE_ROW | blocking;
 118              		.loc 1 727 0
 119 0018 A023     		movs	r3, #160
 120 001a DB04     		lsls	r3, r3, #19
 121 001c 1E43     		orrs	r6, r3
 122              	.LVL11:
 123 001e 074B     		ldr	r3, .L13
 124 0020 1E60     		str	r6, [r3]
 728:Generated_Source\PSoC6\pdl\drivers\peripheral\flash/cy_flash.c ****             context.arg1 = CY_FLASH_CONFIG_DATASIZE;
 125              		.loc 1 728 0
 126 0022 0622     		movs	r2, #6
ARM GAS  C:\Users\kiwamu\AppData\Local\Temp\ccTROAwf.s 			page 16


 127 0024 5A60     		str	r2, [r3, #4]
 729:Generated_Source\PSoC6\pdl\drivers\peripheral\flash/cy_flash.c ****             context.arg2 = rowAddr;
 128              		.loc 1 729 0
 129 0026 9C60     		str	r4, [r3, #8]
 730:Generated_Source\PSoC6\pdl\drivers\peripheral\flash/cy_flash.c ****             context.arg3 = (uint32_t)data;
 130              		.loc 1 730 0
 131 0028 DD60     		str	r5, [r3, #12]
 132              	.LVL12:
 731:Generated_Source\PSoC6\pdl\drivers\peripheral\flash/cy_flash.c **** 
 732:Generated_Source\PSoC6\pdl\drivers\peripheral\flash/cy_flash.c ****             result = 1UL;
 133              		.loc 1 732 0
 134 002a 0120     		movs	r0, #1
 135 002c 04E0     		b	.L9
 136              	.LVL13:
 137              	.L10:
 716:Generated_Source\PSoC6\pdl\drivers\peripheral\flash/cy_flash.c ****     }
 138              		.loc 1 716 0
 139 002e 0448     		ldr	r0, .L13+4
 140 0030 02E0     		b	.L9
 141              	.L11:
 142 0032 0348     		ldr	r0, .L13+4
 143 0034 00E0     		b	.L9
 144              	.L12:
 722:Generated_Source\PSoC6\pdl\drivers\peripheral\flash/cy_flash.c ****         }
 145              		.loc 1 722 0
 146 0036 0248     		ldr	r0, .L13+4
 147              	.LVL14:
 148              	.L9:
 733:Generated_Source\PSoC6\pdl\drivers\peripheral\flash/cy_flash.c ****         }
 734:Generated_Source\PSoC6\pdl\drivers\peripheral\flash/cy_flash.c ****     }
 735:Generated_Source\PSoC6\pdl\drivers\peripheral\flash/cy_flash.c **** 
 736:Generated_Source\PSoC6\pdl\drivers\peripheral\flash/cy_flash.c ****     return (result);
 737:Generated_Source\PSoC6\pdl\drivers\peripheral\flash/cy_flash.c **** }
 149              		.loc 1 737 0
 150              		@ sp needed
 151              	.LVL15:
 152              	.LVL16:
 153 0038 70BD     		pop	{r4, r5, r6, pc}
 154              	.L14:
 155 003a C046     		.align	2
 156              	.L13:
 157 003c 00000000 		.word	.LANCHOR0
 158 0040 06005200 		.word	5373958
 159              		.cfi_endproc
 160              	.LFE153:
 161              		.size	Cy_Flash_PrepareContext, .-Cy_Flash_PrepareContext
 162              		.section	.text.Cy_Flash_ProcessOpcode,"ax",%progbits
 163              		.align	2
 164              		.code	16
 165              		.thumb_func
 166              		.type	Cy_Flash_ProcessOpcode, %function
 167              	Cy_Flash_ProcessOpcode:
 168              	.LFB154:
 738:Generated_Source\PSoC6\pdl\drivers\peripheral\flash/cy_flash.c **** 
 739:Generated_Source\PSoC6\pdl\drivers\peripheral\flash/cy_flash.c **** 
 740:Generated_Source\PSoC6\pdl\drivers\peripheral\flash/cy_flash.c **** /*******************************************************************************
 741:Generated_Source\PSoC6\pdl\drivers\peripheral\flash/cy_flash.c **** * Function Name: Cy_Flash_ProcessOpcode
ARM GAS  C:\Users\kiwamu\AppData\Local\Temp\ccTROAwf.s 			page 17


 742:Generated_Source\PSoC6\pdl\drivers\peripheral\flash/cy_flash.c **** ****************************************************************************//**
 743:Generated_Source\PSoC6\pdl\drivers\peripheral\flash/cy_flash.c **** *
 744:Generated_Source\PSoC6\pdl\drivers\peripheral\flash/cy_flash.c **** * Converts System Call returns to the Flash driver return defines.
 745:Generated_Source\PSoC6\pdl\drivers\peripheral\flash/cy_flash.c **** *
 746:Generated_Source\PSoC6\pdl\drivers\peripheral\flash/cy_flash.c **** * \param opcode The value returned by the System Call.
 747:Generated_Source\PSoC6\pdl\drivers\peripheral\flash/cy_flash.c **** *
 748:Generated_Source\PSoC6\pdl\drivers\peripheral\flash/cy_flash.c **** * \return Flash driver return.
 749:Generated_Source\PSoC6\pdl\drivers\peripheral\flash/cy_flash.c **** *
 750:Generated_Source\PSoC6\pdl\drivers\peripheral\flash/cy_flash.c **** *******************************************************************************/
 751:Generated_Source\PSoC6\pdl\drivers\peripheral\flash/cy_flash.c **** static cy_en_flashdrv_status_t Cy_Flash_ProcessOpcode(uint32_t opcode)
 752:Generated_Source\PSoC6\pdl\drivers\peripheral\flash/cy_flash.c **** {
 169              		.loc 1 752 0
 170              		.cfi_startproc
 171              		@ args = 0, pretend = 0, frame = 0
 172              		@ frame_needed = 0, uses_anonymous_args = 0
 173              		@ link register save eliminated.
 174              	.LVL17:
 753:Generated_Source\PSoC6\pdl\drivers\peripheral\flash/cy_flash.c ****     cy_en_flashdrv_status_t retVal;
 754:Generated_Source\PSoC6\pdl\drivers\peripheral\flash/cy_flash.c **** 
 755:Generated_Source\PSoC6\pdl\drivers\peripheral\flash/cy_flash.c ****     switch (opcode)
 175              		.loc 1 755 0
 176 0000 214B     		ldr	r3, .L32
 177 0002 9842     		cmp	r0, r3
 178 0004 30D0     		beq	.L17
 179 0006 0ED8     		bhi	.L18
 180 0008 4028     		cmp	r0, #64
 181 000a 31D0     		beq	.L19
 182 000c 04D8     		bhi	.L20
 183 000e 0028     		cmp	r0, #0
 184 0010 1FD0     		beq	.L21
 185 0012 1028     		cmp	r0, #16
 186 0014 2AD0     		beq	.L22
 187 0016 31E0     		b	.L16
 188              	.L20:
 189 0018 8028     		cmp	r0, #128
 190 001a 2BD0     		beq	.L23
 191 001c 8023     		movs	r3, #128
 192 001e 5B00     		lsls	r3, r3, #1
 193 0020 9842     		cmp	r0, r3
 194 0022 29D0     		beq	.L24
 195 0024 2AE0     		b	.L16
 196              	.L18:
 197 0026 194B     		ldr	r3, .L32+4
 198 0028 9842     		cmp	r0, r3
 199 002a 29D0     		beq	.L31
 200 002c 07D8     		bhi	.L26
 201 002e A023     		movs	r3, #160
 202 0030 1B06     		lsls	r3, r3, #24
 203 0032 9842     		cmp	r0, r3
 204 0034 0DD0     		beq	.L21
 205 0036 164B     		ldr	r3, .L32+8
 206 0038 9842     		cmp	r0, r3
 207 003a 12D0     		beq	.L27
 208 003c 1EE0     		b	.L16
 209              	.L26:
 210 003e 154B     		ldr	r3, .L32+12
 211 0040 9842     		cmp	r0, r3
ARM GAS  C:\Users\kiwamu\AppData\Local\Temp\ccTROAwf.s 			page 18


 212 0042 0AD0     		beq	.L28
 213 0044 144B     		ldr	r3, .L32+16
 214 0046 9842     		cmp	r0, r3
 215 0048 09D0     		beq	.L29
 216 004a 144B     		ldr	r3, .L32+20
 217 004c 9842     		cmp	r0, r3
 218 004e 15D1     		bne	.L16
 219 0050 01E0     		b	.L30
 220              	.L21:
 756:Generated_Source\PSoC6\pdl\drivers\peripheral\flash/cy_flash.c ****     {
 757:Generated_Source\PSoC6\pdl\drivers\peripheral\flash/cy_flash.c ****         case 0UL:
 758:Generated_Source\PSoC6\pdl\drivers\peripheral\flash/cy_flash.c ****         {
 759:Generated_Source\PSoC6\pdl\drivers\peripheral\flash/cy_flash.c ****             retVal = CY_FLASH_DRV_SUCCESS;
 221              		.loc 1 759 0
 222 0052 0020     		movs	r0, #0
 223              	.LVL18:
 224 0054 16E0     		b	.L25
 225              	.LVL19:
 226              	.L30:
 760:Generated_Source\PSoC6\pdl\drivers\peripheral\flash/cy_flash.c ****             break;
 761:Generated_Source\PSoC6\pdl\drivers\peripheral\flash/cy_flash.c ****         }
 762:Generated_Source\PSoC6\pdl\drivers\peripheral\flash/cy_flash.c ****         case CY_FLASH_ROMCODE_SUCCESS:
 763:Generated_Source\PSoC6\pdl\drivers\peripheral\flash/cy_flash.c ****         {
 764:Generated_Source\PSoC6\pdl\drivers\peripheral\flash/cy_flash.c ****             retVal = CY_FLASH_DRV_SUCCESS;
 765:Generated_Source\PSoC6\pdl\drivers\peripheral\flash/cy_flash.c ****             break;
 766:Generated_Source\PSoC6\pdl\drivers\peripheral\flash/cy_flash.c ****         }
 767:Generated_Source\PSoC6\pdl\drivers\peripheral\flash/cy_flash.c ****         case CY_FLASH_ROMCODE_INVALID_PROTECTION:
 768:Generated_Source\PSoC6\pdl\drivers\peripheral\flash/cy_flash.c ****         {
 769:Generated_Source\PSoC6\pdl\drivers\peripheral\flash/cy_flash.c ****             retVal = CY_FLASH_DRV_INV_PROT;
 770:Generated_Source\PSoC6\pdl\drivers\peripheral\flash/cy_flash.c ****             break;
 771:Generated_Source\PSoC6\pdl\drivers\peripheral\flash/cy_flash.c ****         }
 772:Generated_Source\PSoC6\pdl\drivers\peripheral\flash/cy_flash.c ****         case CY_FLASH_ROMCODE_INVALID_FM_PL:
 773:Generated_Source\PSoC6\pdl\drivers\peripheral\flash/cy_flash.c ****         {
 774:Generated_Source\PSoC6\pdl\drivers\peripheral\flash/cy_flash.c ****             retVal = CY_FLASH_DRV_INVALID_FM_PL;
 227              		.loc 1 774 0
 228 0056 1248     		ldr	r0, .L32+24
 229              	.LVL20:
 775:Generated_Source\PSoC6\pdl\drivers\peripheral\flash/cy_flash.c ****             break;
 230              		.loc 1 775 0
 231 0058 14E0     		b	.L25
 232              	.LVL21:
 233              	.L28:
 776:Generated_Source\PSoC6\pdl\drivers\peripheral\flash/cy_flash.c ****         }
 777:Generated_Source\PSoC6\pdl\drivers\peripheral\flash/cy_flash.c ****         case CY_FLASH_ROMCODE_INVALID_FLASH_ADDR:
 778:Generated_Source\PSoC6\pdl\drivers\peripheral\flash/cy_flash.c ****         {
 779:Generated_Source\PSoC6\pdl\drivers\peripheral\flash/cy_flash.c ****             retVal = CY_FLASH_DRV_INVALID_FLASH_ADDR;
 234              		.loc 1 779 0
 235 005a 1248     		ldr	r0, .L32+28
 236              	.LVL22:
 780:Generated_Source\PSoC6\pdl\drivers\peripheral\flash/cy_flash.c ****             break;
 237              		.loc 1 780 0
 238 005c 12E0     		b	.L25
 239              	.LVL23:
 240              	.L29:
 781:Generated_Source\PSoC6\pdl\drivers\peripheral\flash/cy_flash.c ****         }
 782:Generated_Source\PSoC6\pdl\drivers\peripheral\flash/cy_flash.c ****         case CY_FLASH_ROMCODE_ROW_PROTECTED:
 783:Generated_Source\PSoC6\pdl\drivers\peripheral\flash/cy_flash.c ****         {
ARM GAS  C:\Users\kiwamu\AppData\Local\Temp\ccTROAwf.s 			page 19


 784:Generated_Source\PSoC6\pdl\drivers\peripheral\flash/cy_flash.c ****             retVal = CY_FLASH_DRV_ROW_PROTECTED;
 241              		.loc 1 784 0
 242 005e 1248     		ldr	r0, .L32+32
 243              	.LVL24:
 785:Generated_Source\PSoC6\pdl\drivers\peripheral\flash/cy_flash.c ****             break;
 244              		.loc 1 785 0
 245 0060 10E0     		b	.L25
 246              	.LVL25:
 247              	.L27:
 786:Generated_Source\PSoC6\pdl\drivers\peripheral\flash/cy_flash.c ****         }
 787:Generated_Source\PSoC6\pdl\drivers\peripheral\flash/cy_flash.c ****         case CY_FLASH_ROMCODE_IN_PROGRESS_NO_ERROR:
 788:Generated_Source\PSoC6\pdl\drivers\peripheral\flash/cy_flash.c ****         {
 789:Generated_Source\PSoC6\pdl\drivers\peripheral\flash/cy_flash.c ****             retVal = CY_FLASH_DRV_PROGRESS_NO_ERROR;
 248              		.loc 1 789 0
 249 0062 A020     		movs	r0, #160
 250              	.LVL26:
 251 0064 C003     		lsls	r0, r0, #15
 790:Generated_Source\PSoC6\pdl\drivers\peripheral\flash/cy_flash.c ****             break;
 252              		.loc 1 790 0
 253 0066 0DE0     		b	.L25
 254              	.LVL27:
 255              	.L17:
 791:Generated_Source\PSoC6\pdl\drivers\peripheral\flash/cy_flash.c ****         }
 792:Generated_Source\PSoC6\pdl\drivers\peripheral\flash/cy_flash.c ****         case (uint32_t)CY_FLASH_DRV_INVALID_INPUT_PARAMETERS:
 793:Generated_Source\PSoC6\pdl\drivers\peripheral\flash/cy_flash.c ****         {
 794:Generated_Source\PSoC6\pdl\drivers\peripheral\flash/cy_flash.c ****             retVal = CY_FLASH_DRV_INVALID_INPUT_PARAMETERS;
 256              		.loc 1 794 0
 257 0068 0748     		ldr	r0, .L32
 258              	.LVL28:
 795:Generated_Source\PSoC6\pdl\drivers\peripheral\flash/cy_flash.c ****             break;
 259              		.loc 1 795 0
 260 006a 0BE0     		b	.L25
 261              	.LVL29:
 262              	.L22:
 796:Generated_Source\PSoC6\pdl\drivers\peripheral\flash/cy_flash.c ****         }
 797:Generated_Source\PSoC6\pdl\drivers\peripheral\flash/cy_flash.c ****         case CY_FLASH_IS_OPERATION_STARTED :
 798:Generated_Source\PSoC6\pdl\drivers\peripheral\flash/cy_flash.c ****         {
 799:Generated_Source\PSoC6\pdl\drivers\peripheral\flash/cy_flash.c ****             retVal = CY_FLASH_DRV_OPERATION_STARTED;
 263              		.loc 1 799 0
 264 006c 0F48     		ldr	r0, .L32+36
 265              	.LVL30:
 800:Generated_Source\PSoC6\pdl\drivers\peripheral\flash/cy_flash.c ****             break;
 266              		.loc 1 800 0
 267 006e 09E0     		b	.L25
 268              	.LVL31:
 269              	.L19:
 801:Generated_Source\PSoC6\pdl\drivers\peripheral\flash/cy_flash.c ****         }
 802:Generated_Source\PSoC6\pdl\drivers\peripheral\flash/cy_flash.c ****         case CY_FLASH_IS_BUSY :
 803:Generated_Source\PSoC6\pdl\drivers\peripheral\flash/cy_flash.c ****         {
 804:Generated_Source\PSoC6\pdl\drivers\peripheral\flash/cy_flash.c ****             retVal = CY_FLASH_DRV_OPCODE_BUSY;
 270              		.loc 1 804 0
 271 0070 0F48     		ldr	r0, .L32+40
 272              	.LVL32:
 805:Generated_Source\PSoC6\pdl\drivers\peripheral\flash/cy_flash.c ****             break;
 273              		.loc 1 805 0
 274 0072 07E0     		b	.L25
 275              	.LVL33:
ARM GAS  C:\Users\kiwamu\AppData\Local\Temp\ccTROAwf.s 			page 20


 276              	.L23:
 806:Generated_Source\PSoC6\pdl\drivers\peripheral\flash/cy_flash.c ****         }
 807:Generated_Source\PSoC6\pdl\drivers\peripheral\flash/cy_flash.c ****         case CY_FLASH_IS_IPC_BUSY :
 808:Generated_Source\PSoC6\pdl\drivers\peripheral\flash/cy_flash.c ****         {
 809:Generated_Source\PSoC6\pdl\drivers\peripheral\flash/cy_flash.c ****             retVal = CY_FLASH_DRV_IPC_BUSY;
 277              		.loc 1 809 0
 278 0074 0F48     		ldr	r0, .L32+44
 279              	.LVL34:
 810:Generated_Source\PSoC6\pdl\drivers\peripheral\flash/cy_flash.c ****             break;
 280              		.loc 1 810 0
 281 0076 05E0     		b	.L25
 282              	.LVL35:
 283              	.L24:
 811:Generated_Source\PSoC6\pdl\drivers\peripheral\flash/cy_flash.c ****         }
 812:Generated_Source\PSoC6\pdl\drivers\peripheral\flash/cy_flash.c ****         case CY_FLASH_IS_INVALID_INPUT_PARAMETERS :
 813:Generated_Source\PSoC6\pdl\drivers\peripheral\flash/cy_flash.c ****         {
 814:Generated_Source\PSoC6\pdl\drivers\peripheral\flash/cy_flash.c ****             retVal = CY_FLASH_DRV_INVALID_INPUT_PARAMETERS;
 284              		.loc 1 814 0
 285 0078 0348     		ldr	r0, .L32
 286              	.LVL36:
 815:Generated_Source\PSoC6\pdl\drivers\peripheral\flash/cy_flash.c ****             break;
 287              		.loc 1 815 0
 288 007a 03E0     		b	.L25
 289              	.LVL37:
 290              	.L16:
 816:Generated_Source\PSoC6\pdl\drivers\peripheral\flash/cy_flash.c ****         }
 817:Generated_Source\PSoC6\pdl\drivers\peripheral\flash/cy_flash.c ****         default:
 818:Generated_Source\PSoC6\pdl\drivers\peripheral\flash/cy_flash.c ****         {
 819:Generated_Source\PSoC6\pdl\drivers\peripheral\flash/cy_flash.c ****             retVal = CY_FLASH_DRV_ERR_UNC;
 291              		.loc 1 819 0
 292 007c 0E48     		ldr	r0, .L32+48
 293              	.LVL38:
 820:Generated_Source\PSoC6\pdl\drivers\peripheral\flash/cy_flash.c ****             break;
 294              		.loc 1 820 0
 295 007e 01E0     		b	.L25
 296              	.LVL39:
 297              	.L31:
 769:Generated_Source\PSoC6\pdl\drivers\peripheral\flash/cy_flash.c ****             break;
 298              		.loc 1 769 0
 299 0080 A420     		movs	r0, #164
 300              	.LVL40:
 301 0082 C003     		lsls	r0, r0, #15
 302              	.L25:
 303              	.LVL41:
 821:Generated_Source\PSoC6\pdl\drivers\peripheral\flash/cy_flash.c ****         }
 822:Generated_Source\PSoC6\pdl\drivers\peripheral\flash/cy_flash.c ****     }
 823:Generated_Source\PSoC6\pdl\drivers\peripheral\flash/cy_flash.c **** 
 824:Generated_Source\PSoC6\pdl\drivers\peripheral\flash/cy_flash.c ****     return (retVal);
 825:Generated_Source\PSoC6\pdl\drivers\peripheral\flash/cy_flash.c **** }
 304              		.loc 1 825 0
 305              		@ sp needed
 306 0084 7047     		bx	lr
 307              	.L33:
 308 0086 C046     		.align	2
 309              	.L32:
 310 0088 06005200 		.word	5373958
 311 008c 010000F0 		.word	-268435455
ARM GAS  C:\Users\kiwamu\AppData\Local\Temp\ccTROAwf.s 			page 21


 312 0090 090000A0 		.word	-1610612727
 313 0094 040000F0 		.word	-268435452
 314 0098 050000F0 		.word	-268435451
 315 009c 030000F0 		.word	-268435453
 316 00a0 01005200 		.word	5373953
 317 00a4 02005200 		.word	5373954
 318 00a8 03005200 		.word	5373955
 319 00ac 01005000 		.word	5242881
 320 00b0 02005000 		.word	5242882
 321 00b4 05005200 		.word	5373957
 322 00b8 FF005200 		.word	5374207
 323              		.cfi_endproc
 324              	.LFE154:
 325              		.size	Cy_Flash_ProcessOpcode, .-Cy_Flash_ProcessOpcode
 326              		.section	.text.Cy_Flash_OperationStatus,"ax",%progbits
 327              		.align	2
 328              		.code	16
 329              		.thumb_func
 330              		.type	Cy_Flash_OperationStatus, %function
 331              	Cy_Flash_OperationStatus:
 332              	.LFB155:
 826:Generated_Source\PSoC6\pdl\drivers\peripheral\flash/cy_flash.c **** 
 827:Generated_Source\PSoC6\pdl\drivers\peripheral\flash/cy_flash.c **** 
 828:Generated_Source\PSoC6\pdl\drivers\peripheral\flash/cy_flash.c **** /*******************************************************************************
 829:Generated_Source\PSoC6\pdl\drivers\peripheral\flash/cy_flash.c **** * Function Name: Cy_Flash_OperationStatus
 830:Generated_Source\PSoC6\pdl\drivers\peripheral\flash/cy_flash.c **** ****************************************************************************//**
 831:Generated_Source\PSoC6\pdl\drivers\peripheral\flash/cy_flash.c **** *
 832:Generated_Source\PSoC6\pdl\drivers\peripheral\flash/cy_flash.c **** * Checks the status of the Flash Operation, and returns it.
 833:Generated_Source\PSoC6\pdl\drivers\peripheral\flash/cy_flash.c **** *
 834:Generated_Source\PSoC6\pdl\drivers\peripheral\flash/cy_flash.c **** * \return Returns the status of the Flash operation
 835:Generated_Source\PSoC6\pdl\drivers\peripheral\flash/cy_flash.c **** * (see \ref cy_en_flashdrv_status_t).
 836:Generated_Source\PSoC6\pdl\drivers\peripheral\flash/cy_flash.c **** *
 837:Generated_Source\PSoC6\pdl\drivers\peripheral\flash/cy_flash.c **** *******************************************************************************/
 838:Generated_Source\PSoC6\pdl\drivers\peripheral\flash/cy_flash.c **** static cy_en_flashdrv_status_t Cy_Flash_OperationStatus(void)
 839:Generated_Source\PSoC6\pdl\drivers\peripheral\flash/cy_flash.c **** {
 333              		.loc 1 839 0
 334              		.cfi_startproc
 335              		@ args = 0, pretend = 0, frame = 0
 336              		@ frame_needed = 0, uses_anonymous_args = 0
 337 0000 10B5     		push	{r4, lr}
 338              		.cfi_def_cfa_offset 8
 339              		.cfi_offset 4, -8
 340              		.cfi_offset 14, -4
 341              	.LVL42:
 342              	.LBB30:
 343              	.LBB31:
 344              		.file 2 "Generated_Source\\PSoC6\\pdl\\drivers/peripheral/ipc/cy_ipc_drv.h"
   1:Generated_Source\PSoC6\pdl\drivers/peripheral/ipc/cy_ipc_drv.h **** /***************************************************************************//**
   2:Generated_Source\PSoC6\pdl\drivers/peripheral/ipc/cy_ipc_drv.h **** * \file cy_ipc_drv.h
   3:Generated_Source\PSoC6\pdl\drivers/peripheral/ipc/cy_ipc_drv.h **** * \version 1.10
   4:Generated_Source\PSoC6\pdl\drivers/peripheral/ipc/cy_ipc_drv.h **** *
   5:Generated_Source\PSoC6\pdl\drivers/peripheral/ipc/cy_ipc_drv.h **** * Provides an API declaration of the IPC driver.
   6:Generated_Source\PSoC6\pdl\drivers/peripheral/ipc/cy_ipc_drv.h **** *
   7:Generated_Source\PSoC6\pdl\drivers/peripheral/ipc/cy_ipc_drv.h **** ********************************************************************************
   8:Generated_Source\PSoC6\pdl\drivers/peripheral/ipc/cy_ipc_drv.h **** * \copyright
   9:Generated_Source\PSoC6\pdl\drivers/peripheral/ipc/cy_ipc_drv.h **** * Copyright 2016-2017, Cypress Semiconductor Corporation. All rights reserved.
  10:Generated_Source\PSoC6\pdl\drivers/peripheral/ipc/cy_ipc_drv.h **** * You may use this file only in accordance with the license, terms, conditions,
ARM GAS  C:\Users\kiwamu\AppData\Local\Temp\ccTROAwf.s 			page 22


  11:Generated_Source\PSoC6\pdl\drivers/peripheral/ipc/cy_ipc_drv.h **** * disclaimers, and limitations in the end user license agreement accompanying
  12:Generated_Source\PSoC6\pdl\drivers/peripheral/ipc/cy_ipc_drv.h **** * the software package with which this file was provided.
  13:Generated_Source\PSoC6\pdl\drivers/peripheral/ipc/cy_ipc_drv.h **** *******************************************************************************/
  14:Generated_Source\PSoC6\pdl\drivers/peripheral/ipc/cy_ipc_drv.h **** 
  15:Generated_Source\PSoC6\pdl\drivers/peripheral/ipc/cy_ipc_drv.h **** #ifndef CY_IPC_DRV_H
  16:Generated_Source\PSoC6\pdl\drivers/peripheral/ipc/cy_ipc_drv.h **** #define CY_IPC_DRV_H
  17:Generated_Source\PSoC6\pdl\drivers/peripheral/ipc/cy_ipc_drv.h **** 
  18:Generated_Source\PSoC6\pdl\drivers/peripheral/ipc/cy_ipc_drv.h **** 
  19:Generated_Source\PSoC6\pdl\drivers/peripheral/ipc/cy_ipc_drv.h **** /**
  20:Generated_Source\PSoC6\pdl\drivers/peripheral/ipc/cy_ipc_drv.h **** * \defgroup group_ipc Inter Process Communication (IPC)
  21:Generated_Source\PSoC6\pdl\drivers/peripheral/ipc/cy_ipc_drv.h **** * \{
  22:Generated_Source\PSoC6\pdl\drivers/peripheral/ipc/cy_ipc_drv.h **** * The inter-processor communication (IPC) driver provides a safe and reliable
  23:Generated_Source\PSoC6\pdl\drivers/peripheral/ipc/cy_ipc_drv.h **** * method to transfer data between CPUs. Hardware locking ensures that only one
  24:Generated_Source\PSoC6\pdl\drivers/peripheral/ipc/cy_ipc_drv.h **** * device can acquire and transfer data at a time so no data is lost or
  25:Generated_Source\PSoC6\pdl\drivers/peripheral/ipc/cy_ipc_drv.h **** * overwritten by asynchronous processes or CPUs.
  26:Generated_Source\PSoC6\pdl\drivers/peripheral/ipc/cy_ipc_drv.h **** *
  27:Generated_Source\PSoC6\pdl\drivers/peripheral/ipc/cy_ipc_drv.h **** * There are three parts to the API:
  28:Generated_Source\PSoC6\pdl\drivers/peripheral/ipc/cy_ipc_drv.h **** *     - Driver-level (DRV) API - used internally by Semaphore and Pipe levels
  29:Generated_Source\PSoC6\pdl\drivers/peripheral/ipc/cy_ipc_drv.h **** *     - Pipe-level (PIPE) API - establishes a communication channel between
  30:Generated_Source\PSoC6\pdl\drivers/peripheral/ipc/cy_ipc_drv.h **** *       processors
  31:Generated_Source\PSoC6\pdl\drivers/peripheral/ipc/cy_ipc_drv.h **** *     - Semaphore-level (SEMA) API - enables users to set and clear flags to
  32:Generated_Source\PSoC6\pdl\drivers/peripheral/ipc/cy_ipc_drv.h **** *       synchronize operations.
  33:Generated_Source\PSoC6\pdl\drivers/peripheral/ipc/cy_ipc_drv.h **** *
  34:Generated_Source\PSoC6\pdl\drivers/peripheral/ipc/cy_ipc_drv.h **** * Firmware does not need to use the DRV API. It can implement IPC functionality
  35:Generated_Source\PSoC6\pdl\drivers/peripheral/ipc/cy_ipc_drv.h **** * entirely with the PIPE and SEMA APIs.
  36:Generated_Source\PSoC6\pdl\drivers/peripheral/ipc/cy_ipc_drv.h **** *
  37:Generated_Source\PSoC6\pdl\drivers/peripheral/ipc/cy_ipc_drv.h **** * \note "Warning[Ta023]: Call to a non __ramfunc function." - The warning may
  38:Generated_Source\PSoC6\pdl\drivers/peripheral/ipc/cy_ipc_drv.h **** * appear during the build process while using IAR IDE. The reason - some
  39:Generated_Source\PSoC6\pdl\drivers/peripheral/ipc/cy_ipc_drv.h **** * functions in RAM memory that use the __ramfunc keyword, may invoke
  40:Generated_Source\PSoC6\pdl\drivers/peripheral/ipc/cy_ipc_drv.h **** * functions located in the ROM memory. You can ignore this warning or
  41:Generated_Source\PSoC6\pdl\drivers/peripheral/ipc/cy_ipc_drv.h **** * disable it by adding the --diag_suppress=Ta023 option to the compiler.
  42:Generated_Source\PSoC6\pdl\drivers/peripheral/ipc/cy_ipc_drv.h **** *
  43:Generated_Source\PSoC6\pdl\drivers/peripheral/ipc/cy_ipc_drv.h **** * \section group_ipc_background Background
  44:Generated_Source\PSoC6\pdl\drivers/peripheral/ipc/cy_ipc_drv.h **** *
  45:Generated_Source\PSoC6\pdl\drivers/peripheral/ipc/cy_ipc_drv.h **** * IPC is implemented in hardware as a collection of individual communication
  46:Generated_Source\PSoC6\pdl\drivers/peripheral/ipc/cy_ipc_drv.h **** * channels, each with a set of 32-bit registers. The IPC design implements a set
  47:Generated_Source\PSoC6\pdl\drivers/peripheral/ipc/cy_ipc_drv.h **** * of interrupts that enable each processor to notify the other that data is
  48:Generated_Source\PSoC6\pdl\drivers/peripheral/ipc/cy_ipc_drv.h **** * available, or has been processed. There is also a locking mechanism that
  49:Generated_Source\PSoC6\pdl\drivers/peripheral/ipc/cy_ipc_drv.h **** * allows only one CPU to gain access at a time.
  50:Generated_Source\PSoC6\pdl\drivers/peripheral/ipc/cy_ipc_drv.h **** *
  51:Generated_Source\PSoC6\pdl\drivers/peripheral/ipc/cy_ipc_drv.h **** * The Driver-level API manages each channel's registers to implement IPC
  52:Generated_Source\PSoC6\pdl\drivers/peripheral/ipc/cy_ipc_drv.h **** * functionality. For information on the IPC registers, see the IPC chapter of
  53:Generated_Source\PSoC6\pdl\drivers/peripheral/ipc/cy_ipc_drv.h **** * the Technical Reference Manual (TRM).
  54:Generated_Source\PSoC6\pdl\drivers/peripheral/ipc/cy_ipc_drv.h **** *
  55:Generated_Source\PSoC6\pdl\drivers/peripheral/ipc/cy_ipc_drv.h **** * At the hardware level, communication is a five-step process.
  56:Generated_Source\PSoC6\pdl\drivers/peripheral/ipc/cy_ipc_drv.h **** *     -#  The sending processor acquires a channel
  57:Generated_Source\PSoC6\pdl\drivers/peripheral/ipc/cy_ipc_drv.h **** *     -#  It puts data into the channel
  58:Generated_Source\PSoC6\pdl\drivers/peripheral/ipc/cy_ipc_drv.h **** *     -#  The sender generates a notify event (interrupt)
  59:Generated_Source\PSoC6\pdl\drivers/peripheral/ipc/cy_ipc_drv.h **** *     -#  The receiving processor identifies the sender and retrieves the data
  60:Generated_Source\PSoC6\pdl\drivers/peripheral/ipc/cy_ipc_drv.h **** *     -#  The receiving processor generates a release event (interrupt)
  61:Generated_Source\PSoC6\pdl\drivers/peripheral/ipc/cy_ipc_drv.h **** *
  62:Generated_Source\PSoC6\pdl\drivers/peripheral/ipc/cy_ipc_drv.h **** * \image html ipc_driver.png
  63:Generated_Source\PSoC6\pdl\drivers/peripheral/ipc/cy_ipc_drv.h **** *
  64:Generated_Source\PSoC6\pdl\drivers/peripheral/ipc/cy_ipc_drv.h **** * These transactions are handled transparently by the DRV-level API. Use the
  65:Generated_Source\PSoC6\pdl\drivers/peripheral/ipc/cy_ipc_drv.h **** * PIPE and SEMA layers of the API to implement communication in your application.
  66:Generated_Source\PSoC6\pdl\drivers/peripheral/ipc/cy_ipc_drv.h **** * The data transferred is limited to a single 32-bit value. As implemented by
  67:Generated_Source\PSoC6\pdl\drivers/peripheral/ipc/cy_ipc_drv.h **** * the PIPE API, that value is a pointer to a data structure of arbitrary size
ARM GAS  C:\Users\kiwamu\AppData\Local\Temp\ccTROAwf.s 			page 23


  68:Generated_Source\PSoC6\pdl\drivers/peripheral/ipc/cy_ipc_drv.h **** * and complexity.
  69:Generated_Source\PSoC6\pdl\drivers/peripheral/ipc/cy_ipc_drv.h **** *
  70:Generated_Source\PSoC6\pdl\drivers/peripheral/ipc/cy_ipc_drv.h **** * \section group_ipc_overview Overview
  71:Generated_Source\PSoC6\pdl\drivers/peripheral/ipc/cy_ipc_drv.h **** *
  72:Generated_Source\PSoC6\pdl\drivers/peripheral/ipc/cy_ipc_drv.h **** * The Pipe is the key element in the PDL design. A pipe is typically a
  73:Generated_Source\PSoC6\pdl\drivers/peripheral/ipc/cy_ipc_drv.h **** * full-duplex communication channel between CPU cores. A pipe allows a single
  74:Generated_Source\PSoC6\pdl\drivers/peripheral/ipc/cy_ipc_drv.h **** * conduit to transfer messages or data to and from multiple processes or CPUs.
  75:Generated_Source\PSoC6\pdl\drivers/peripheral/ipc/cy_ipc_drv.h **** *
  76:Generated_Source\PSoC6\pdl\drivers/peripheral/ipc/cy_ipc_drv.h **** * A pipe has two endpoints, one on each core. Each endpoint contains a dedicated
  77:Generated_Source\PSoC6\pdl\drivers/peripheral/ipc/cy_ipc_drv.h **** * IPC channel and an interrupt. IPC channels 0-7 and IPC interrupts 0-7 are
  78:Generated_Source\PSoC6\pdl\drivers/peripheral/ipc/cy_ipc_drv.h **** * reserved for system use.
  79:Generated_Source\PSoC6\pdl\drivers/peripheral/ipc/cy_ipc_drv.h **** *
  80:Generated_Source\PSoC6\pdl\drivers/peripheral/ipc/cy_ipc_drv.h **** * The pipe also contains the number of clients it supports, and for each client
  81:Generated_Source\PSoC6\pdl\drivers/peripheral/ipc/cy_ipc_drv.h **** * a callback function. So the pipe can service a number of clients, each with a
  82:Generated_Source\PSoC6\pdl\drivers/peripheral/ipc/cy_ipc_drv.h **** * separate callback function, on either endpoint. The number of clients a pipe
  83:Generated_Source\PSoC6\pdl\drivers/peripheral/ipc/cy_ipc_drv.h **** * supports is the sum of each endpoint's clients.
  84:Generated_Source\PSoC6\pdl\drivers/peripheral/ipc/cy_ipc_drv.h **** *
  85:Generated_Source\PSoC6\pdl\drivers/peripheral/ipc/cy_ipc_drv.h **** * This design enables any number of processes on the sending core to put
  86:Generated_Source\PSoC6\pdl\drivers/peripheral/ipc/cy_ipc_drv.h **** * arbitrary data into a single pipe. The first element of that data is the
  87:Generated_Source\PSoC6\pdl\drivers/peripheral/ipc/cy_ipc_drv.h **** * client ID of the client that should handle the data.
  88:Generated_Source\PSoC6\pdl\drivers/peripheral/ipc/cy_ipc_drv.h **** *
  89:Generated_Source\PSoC6\pdl\drivers/peripheral/ipc/cy_ipc_drv.h **** * An interrupt notifies the receiving core that data is available. The receiving
  90:Generated_Source\PSoC6\pdl\drivers/peripheral/ipc/cy_ipc_drv.h **** * core parses the data to identify the client, and then dispatches the event to
  91:Generated_Source\PSoC6\pdl\drivers/peripheral/ipc/cy_ipc_drv.h **** * the appropriate client via the client callback function. An interrupt notifies
  92:Generated_Source\PSoC6\pdl\drivers/peripheral/ipc/cy_ipc_drv.h **** * the sending core that the receiver is finished. In this way a single pipe can
  93:Generated_Source\PSoC6\pdl\drivers/peripheral/ipc/cy_ipc_drv.h **** * manage arbitrary data transfers between cores with data flowing in either
  94:Generated_Source\PSoC6\pdl\drivers/peripheral/ipc/cy_ipc_drv.h **** * direction.
  95:Generated_Source\PSoC6\pdl\drivers/peripheral/ipc/cy_ipc_drv.h **** *
  96:Generated_Source\PSoC6\pdl\drivers/peripheral/ipc/cy_ipc_drv.h **** * \image html ipc_ints.png
  97:Generated_Source\PSoC6\pdl\drivers/peripheral/ipc/cy_ipc_drv.h **** *
  98:Generated_Source\PSoC6\pdl\drivers/peripheral/ipc/cy_ipc_drv.h **** * The application can use semaphores to control access to shared resources, as
  99:Generated_Source\PSoC6\pdl\drivers/peripheral/ipc/cy_ipc_drv.h **** * required by the application's logic.
 100:Generated_Source\PSoC6\pdl\drivers/peripheral/ipc/cy_ipc_drv.h **** *
 101:Generated_Source\PSoC6\pdl\drivers/peripheral/ipc/cy_ipc_drv.h **** * The PDL provides two specific files that set up default IPC functionality.
 102:Generated_Source\PSoC6\pdl\drivers/peripheral/ipc/cy_ipc_drv.h **** * They are cy_ipc_config.h and cy_ipc_config.c. You can modify these files based
 103:Generated_Source\PSoC6\pdl\drivers/peripheral/ipc/cy_ipc_drv.h **** * on the requirements of your design. If you use PSoC Creator as a development
 104:Generated_Source\PSoC6\pdl\drivers/peripheral/ipc/cy_ipc_drv.h **** * environment, it will not overwrite your changes when you generate the
 105:Generated_Source\PSoC6\pdl\drivers/peripheral/ipc/cy_ipc_drv.h **** * application or build your code.
 106:Generated_Source\PSoC6\pdl\drivers/peripheral/ipc/cy_ipc_drv.h **** *
 107:Generated_Source\PSoC6\pdl\drivers/peripheral/ipc/cy_ipc_drv.h **** * \section group_ipc_pipe_layer PIPE layer
 108:Generated_Source\PSoC6\pdl\drivers/peripheral/ipc/cy_ipc_drv.h **** *
 109:Generated_Source\PSoC6\pdl\drivers/peripheral/ipc/cy_ipc_drv.h **** * A pipe is a communication channel between two endpoints. PSoC 6 devices support
 110:Generated_Source\PSoC6\pdl\drivers/peripheral/ipc/cy_ipc_drv.h **** * 16 IPC channels, and 16 IPC interrupts, each numbered 0-15. IPC Channels 0-7
 111:Generated_Source\PSoC6\pdl\drivers/peripheral/ipc/cy_ipc_drv.h **** * and IPC interrupts 0-7 are reserved for system use. Channels 8-15 and
 112:Generated_Source\PSoC6\pdl\drivers/peripheral/ipc/cy_ipc_drv.h **** * interrupts 8-15 are available for application use.
 113:Generated_Source\PSoC6\pdl\drivers/peripheral/ipc/cy_ipc_drv.h **** *
 114:Generated_Source\PSoC6\pdl\drivers/peripheral/ipc/cy_ipc_drv.h **** * A full duplex pipe uses two IPC channels, one per endpoint. Each endpoint
 115:Generated_Source\PSoC6\pdl\drivers/peripheral/ipc/cy_ipc_drv.h **** * specifies all the information required to process a message (either sent or
 116:Generated_Source\PSoC6\pdl\drivers/peripheral/ipc/cy_ipc_drv.h **** * received). Each endpoint is configured to use an IPC channel, and an IPC
 117:Generated_Source\PSoC6\pdl\drivers/peripheral/ipc/cy_ipc_drv.h **** * interrupt. Common practice is to use the interrupt with the same number as
 118:Generated_Source\PSoC6\pdl\drivers/peripheral/ipc/cy_ipc_drv.h **** * the IPC channel. However, IPC Interrupts are not directly associated with the
 119:Generated_Source\PSoC6\pdl\drivers/peripheral/ipc/cy_ipc_drv.h **** * IPC channels, so any channel can use any interrupt.  Any IPC channel can
 120:Generated_Source\PSoC6\pdl\drivers/peripheral/ipc/cy_ipc_drv.h **** * trigger 0, 1 or all the IPC interrupts at once, depending on the Notify or
 121:Generated_Source\PSoC6\pdl\drivers/peripheral/ipc/cy_ipc_drv.h **** * Release masks used.
 122:Generated_Source\PSoC6\pdl\drivers/peripheral/ipc/cy_ipc_drv.h **** *
 123:Generated_Source\PSoC6\pdl\drivers/peripheral/ipc/cy_ipc_drv.h **** * It is also possible to set up a one-directional pipe, using a single IPC
 124:Generated_Source\PSoC6\pdl\drivers/peripheral/ipc/cy_ipc_drv.h **** * channel. In this design one processor is always the sender, and the other is
ARM GAS  C:\Users\kiwamu\AppData\Local\Temp\ccTROAwf.s 			page 24


 125:Generated_Source\PSoC6\pdl\drivers/peripheral/ipc/cy_ipc_drv.h **** * always the receiver. However, there are still two endpoints.
 126:Generated_Source\PSoC6\pdl\drivers/peripheral/ipc/cy_ipc_drv.h **** *
 127:Generated_Source\PSoC6\pdl\drivers/peripheral/ipc/cy_ipc_drv.h **** * A pipe supports an arbitrary number of clients with an array of callback
 128:Generated_Source\PSoC6\pdl\drivers/peripheral/ipc/cy_ipc_drv.h **** * functions, one per client. The client ID is the index number into the array
 129:Generated_Source\PSoC6\pdl\drivers/peripheral/ipc/cy_ipc_drv.h **** * for the client. After a pipe is configured and initialized, the application
 130:Generated_Source\PSoC6\pdl\drivers/peripheral/ipc/cy_ipc_drv.h **** * calls Cy_IPC_Pipe_RegisterCallback() once per client to register each client's
 131:Generated_Source\PSoC6\pdl\drivers/peripheral/ipc/cy_ipc_drv.h **** * callback function. Multiple clients can use the same callback function. The
 132:Generated_Source\PSoC6\pdl\drivers/peripheral/ipc/cy_ipc_drv.h **** * endpoints in a pipe share the callback array.
 133:Generated_Source\PSoC6\pdl\drivers/peripheral/ipc/cy_ipc_drv.h **** *
 134:Generated_Source\PSoC6\pdl\drivers/peripheral/ipc/cy_ipc_drv.h **** * Use Cy_IPC_Pipe_SendMessage() to send data. You specify both the "to" and
 135:Generated_Source\PSoC6\pdl\drivers/peripheral/ipc/cy_ipc_drv.h **** * "from" endpoints, and a callback function to be used when the data transfer is
 136:Generated_Source\PSoC6\pdl\drivers/peripheral/ipc/cy_ipc_drv.h **** * complete. The data is a 32-bit void pointer. The data pointed to is arbitrary,
 137:Generated_Source\PSoC6\pdl\drivers/peripheral/ipc/cy_ipc_drv.h **** * and can be an array, a structure, or a location in memory. The only limitation
 138:Generated_Source\PSoC6\pdl\drivers/peripheral/ipc/cy_ipc_drv.h **** * is that the first element of the data must be a 32-bit unsigned word containing
 139:Generated_Source\PSoC6\pdl\drivers/peripheral/ipc/cy_ipc_drv.h **** * a client ID number. The ID number is the index into the callback array.
 140:Generated_Source\PSoC6\pdl\drivers/peripheral/ipc/cy_ipc_drv.h **** *
 141:Generated_Source\PSoC6\pdl\drivers/peripheral/ipc/cy_ipc_drv.h **** * When a message is sent, the receiving endpoint's interrupt handler is called.
 142:Generated_Source\PSoC6\pdl\drivers/peripheral/ipc/cy_ipc_drv.h **** * The ISR can perform any task required by the design. However, as part of its
 143:Generated_Source\PSoC6\pdl\drivers/peripheral/ipc/cy_ipc_drv.h **** * function it calls \ref Cy_IPC_Pipe_ExecCallback. This function retrieves the
 144:Generated_Source\PSoC6\pdl\drivers/peripheral/ipc/cy_ipc_drv.h **** * client ID from the data and calls the associated callback function.
 145:Generated_Source\PSoC6\pdl\drivers/peripheral/ipc/cy_ipc_drv.h **** * The user-supplied callback function handles the data in whatever way is
 146:Generated_Source\PSoC6\pdl\drivers/peripheral/ipc/cy_ipc_drv.h **** * appropriate based on the application logic.
 147:Generated_Source\PSoC6\pdl\drivers/peripheral/ipc/cy_ipc_drv.h **** *
 148:Generated_Source\PSoC6\pdl\drivers/peripheral/ipc/cy_ipc_drv.h **** * After the callback function is returned by the receiver, it invokes the release
 149:Generated_Source\PSoC6\pdl\drivers/peripheral/ipc/cy_ipc_drv.h **** * callback function defined by the sender of the message.
 150:Generated_Source\PSoC6\pdl\drivers/peripheral/ipc/cy_ipc_drv.h **** *
 151:Generated_Source\PSoC6\pdl\drivers/peripheral/ipc/cy_ipc_drv.h **** * \section group_ipc_sema_layer SEMA Layer
 152:Generated_Source\PSoC6\pdl\drivers/peripheral/ipc/cy_ipc_drv.h **** *
 153:Generated_Source\PSoC6\pdl\drivers/peripheral/ipc/cy_ipc_drv.h **** * A semaphore is a flag the application uses to control access to a shared
 154:Generated_Source\PSoC6\pdl\drivers/peripheral/ipc/cy_ipc_drv.h **** * resource. The SEMA-level API uses an IPC channel to implement
 155:Generated_Source\PSoC6\pdl\drivers/peripheral/ipc/cy_ipc_drv.h **** * semaphores. Startup code sets up a default semaphore system. The
 156:Generated_Source\PSoC6\pdl\drivers/peripheral/ipc/cy_ipc_drv.h **** * default system creates an array of 128 semaphores (four 32-bit values).
 157:Generated_Source\PSoC6\pdl\drivers/peripheral/ipc/cy_ipc_drv.h **** * Semaphores 0-15 are reserved for system use. See
 158:Generated_Source\PSoC6\pdl\drivers/peripheral/ipc/cy_ipc_drv.h **** * Configuration Considerations - SEMA.
 159:Generated_Source\PSoC6\pdl\drivers/peripheral/ipc/cy_ipc_drv.h **** *
 160:Generated_Source\PSoC6\pdl\drivers/peripheral/ipc/cy_ipc_drv.h **** * Functions are available to initialize the semaphore system, to set or
 161:Generated_Source\PSoC6\pdl\drivers/peripheral/ipc/cy_ipc_drv.h **** * clear a semaphore, or to get the semaphore's current status. Application
 162:Generated_Source\PSoC6\pdl\drivers/peripheral/ipc/cy_ipc_drv.h **** * logic uses SEMA functions to relate a particular semaphore to a particular
 163:Generated_Source\PSoC6\pdl\drivers/peripheral/ipc/cy_ipc_drv.h **** * shared resource, and set, clear, or check the flag when accessing the
 164:Generated_Source\PSoC6\pdl\drivers/peripheral/ipc/cy_ipc_drv.h **** * shared resource.
 165:Generated_Source\PSoC6\pdl\drivers/peripheral/ipc/cy_ipc_drv.h **** *
 166:Generated_Source\PSoC6\pdl\drivers/peripheral/ipc/cy_ipc_drv.h **** * \section group_ipc_configuration_cypipe Configuration Considerations - CYPIPE
 167:Generated_Source\PSoC6\pdl\drivers/peripheral/ipc/cy_ipc_drv.h **** *
 168:Generated_Source\PSoC6\pdl\drivers/peripheral/ipc/cy_ipc_drv.h **** * There are none. The cy_ipc_config files set up the required CYPIPE for system
 169:Generated_Source\PSoC6\pdl\drivers/peripheral/ipc/cy_ipc_drv.h **** * use. Do not modify the CYPIPE. It uses IPC channels 5 and 6 to implement full
 170:Generated_Source\PSoC6\pdl\drivers/peripheral/ipc/cy_ipc_drv.h **** * duplex communication between cores. On the CM0+ the notify interrupt is
 171:Generated_Source\PSoC6\pdl\drivers/peripheral/ipc/cy_ipc_drv.h **** * assigned to NVIC IRQn 27. See System Interrupt (SysInt) for background.
 172:Generated_Source\PSoC6\pdl\drivers/peripheral/ipc/cy_ipc_drv.h **** *
 173:Generated_Source\PSoC6\pdl\drivers/peripheral/ipc/cy_ipc_drv.h **** * \section group_ipc_configuration_sema Configuration Considerations - SEMA
 174:Generated_Source\PSoC6\pdl\drivers/peripheral/ipc/cy_ipc_drv.h **** *
 175:Generated_Source\PSoC6\pdl\drivers/peripheral/ipc/cy_ipc_drv.h **** * Startup code calls Cy_IPC_SystemSemaInit (in cy_ipc_config.c) to set up
 176:Generated_Source\PSoC6\pdl\drivers/peripheral/ipc/cy_ipc_drv.h **** * semaphore functionality. This function calls the PDL init function 
 177:Generated_Source\PSoC6\pdl\drivers/peripheral/ipc/cy_ipc_drv.h **** * Cy_IPC_Sema_Init() with default values. By default the semaphore system
 178:Generated_Source\PSoC6\pdl\drivers/peripheral/ipc/cy_ipc_drv.h **** * uses IPC channel 4, and creates 128 semaphores. Do <b>not</b> change the IPC
 179:Generated_Source\PSoC6\pdl\drivers/peripheral/ipc/cy_ipc_drv.h **** * channel. You can change the number of semaphores.
 180:Generated_Source\PSoC6\pdl\drivers/peripheral/ipc/cy_ipc_drv.h **** *
 181:Generated_Source\PSoC6\pdl\drivers/peripheral/ipc/cy_ipc_drv.h **** * To change the number of semaphores, modify this line of code in cy_ipc_config.h. 
ARM GAS  C:\Users\kiwamu\AppData\Local\Temp\ccTROAwf.s 			page 25


 182:Generated_Source\PSoC6\pdl\drivers/peripheral/ipc/cy_ipc_drv.h **** *
 183:Generated_Source\PSoC6\pdl\drivers/peripheral/ipc/cy_ipc_drv.h **** * \code
 184:Generated_Source\PSoC6\pdl\drivers/peripheral/ipc/cy_ipc_drv.h **** * #define CY_IPC_SEMA_COUNT               (uint32_t)(128u)
 185:Generated_Source\PSoC6\pdl\drivers/peripheral/ipc/cy_ipc_drv.h **** * \endcode
 186:Generated_Source\PSoC6\pdl\drivers/peripheral/ipc/cy_ipc_drv.h **** *
 187:Generated_Source\PSoC6\pdl\drivers/peripheral/ipc/cy_ipc_drv.h **** * The file cy_ipc_config.c declares array ipcSemaArray to hold the semaphore
 188:Generated_Source\PSoC6\pdl\drivers/peripheral/ipc/cy_ipc_drv.h **** * flags based on the size defined for this symbol. Use increments of 32. You
 189:Generated_Source\PSoC6\pdl\drivers/peripheral/ipc/cy_ipc_drv.h **** * must have at least 32 semaphores. Semaphores 0-15 are reserved for
 190:Generated_Source\PSoC6\pdl\drivers/peripheral/ipc/cy_ipc_drv.h **** * system use. Your application can use semaphores greater than 15.
 191:Generated_Source\PSoC6\pdl\drivers/peripheral/ipc/cy_ipc_drv.h **** *
 192:Generated_Source\PSoC6\pdl\drivers/peripheral/ipc/cy_ipc_drv.h **** * \section group_ipc_more_information More Information
 193:Generated_Source\PSoC6\pdl\drivers/peripheral/ipc/cy_ipc_drv.h **** *
 194:Generated_Source\PSoC6\pdl\drivers/peripheral/ipc/cy_ipc_drv.h **** * See the technical reference manual(TRM) for more information on the IPC.
 195:Generated_Source\PSoC6\pdl\drivers/peripheral/ipc/cy_ipc_drv.h **** *
 196:Generated_Source\PSoC6\pdl\drivers/peripheral/ipc/cy_ipc_drv.h **** * \section group_ipc_MISRA MISRA-C Compliance
 197:Generated_Source\PSoC6\pdl\drivers/peripheral/ipc/cy_ipc_drv.h **** *
 198:Generated_Source\PSoC6\pdl\drivers/peripheral/ipc/cy_ipc_drv.h **** * <table class="doxtable">
 199:Generated_Source\PSoC6\pdl\drivers/peripheral/ipc/cy_ipc_drv.h **** *   <tr>
 200:Generated_Source\PSoC6\pdl\drivers/peripheral/ipc/cy_ipc_drv.h **** *     <th>MISRA Rule</th>
 201:Generated_Source\PSoC6\pdl\drivers/peripheral/ipc/cy_ipc_drv.h **** *     <th>Rule Class (Required/Advisory)</th>
 202:Generated_Source\PSoC6\pdl\drivers/peripheral/ipc/cy_ipc_drv.h **** *     <th>Rule Description</th>
 203:Generated_Source\PSoC6\pdl\drivers/peripheral/ipc/cy_ipc_drv.h **** *     <th style="width: 50%;">Description of Deviation(s)</th>
 204:Generated_Source\PSoC6\pdl\drivers/peripheral/ipc/cy_ipc_drv.h **** *   </tr>
 205:Generated_Source\PSoC6\pdl\drivers/peripheral/ipc/cy_ipc_drv.h **** *   <tr>
 206:Generated_Source\PSoC6\pdl\drivers/peripheral/ipc/cy_ipc_drv.h **** *     <td>10.3</td>
 207:Generated_Source\PSoC6\pdl\drivers/peripheral/ipc/cy_ipc_drv.h **** *     <td>R</td>
 208:Generated_Source\PSoC6\pdl\drivers/peripheral/ipc/cy_ipc_drv.h **** *     <td>The value of a complex expression of integer type shall be cast
 209:Generated_Source\PSoC6\pdl\drivers/peripheral/ipc/cy_ipc_drv.h **** *         only to a type of the same signedness that is no wider than the underlying
 210:Generated_Source\PSoC6\pdl\drivers/peripheral/ipc/cy_ipc_drv.h **** *         type of the expression.</td>
 211:Generated_Source\PSoC6\pdl\drivers/peripheral/ipc/cy_ipc_drv.h **** *     <td>The cast from integer to enumeration value is used to calculate
 212:Generated_Source\PSoC6\pdl\drivers/peripheral/ipc/cy_ipc_drv.h **** *         the interrupt vector source from the integer number of the IPC interrupt
 213:Generated_Source\PSoC6\pdl\drivers/peripheral/ipc/cy_ipc_drv.h **** *         structure, so there is no way to avoid this cast.</td>
 214:Generated_Source\PSoC6\pdl\drivers/peripheral/ipc/cy_ipc_drv.h **** *   </tr>
 215:Generated_Source\PSoC6\pdl\drivers/peripheral/ipc/cy_ipc_drv.h **** *   <tr>
 216:Generated_Source\PSoC6\pdl\drivers/peripheral/ipc/cy_ipc_drv.h **** *     <td>11.4</td>
 217:Generated_Source\PSoC6\pdl\drivers/peripheral/ipc/cy_ipc_drv.h **** *     <td>A</td>
 218:Generated_Source\PSoC6\pdl\drivers/peripheral/ipc/cy_ipc_drv.h **** *     <td>A cast should not be performed between a pointer to the void to a
 219:Generated_Source\PSoC6\pdl\drivers/peripheral/ipc/cy_ipc_drv.h **** *         pointer to the object type.</td>
 220:Generated_Source\PSoC6\pdl\drivers/peripheral/ipc/cy_ipc_drv.h **** *     <td>The cast from the void to pointer and vice versa is used to transmit
 221:Generated_Source\PSoC6\pdl\drivers/peripheral/ipc/cy_ipc_drv.h **** *         data via the \ref group_ipc channel by exchanging the pointer. We
 222:Generated_Source\PSoC6\pdl\drivers/peripheral/ipc/cy_ipc_drv.h **** *         exchange only one pointer, so there is no way to avoid this cast.</td>
 223:Generated_Source\PSoC6\pdl\drivers/peripheral/ipc/cy_ipc_drv.h **** *   </tr>
 224:Generated_Source\PSoC6\pdl\drivers/peripheral/ipc/cy_ipc_drv.h **** * </table>
 225:Generated_Source\PSoC6\pdl\drivers/peripheral/ipc/cy_ipc_drv.h **** *
 226:Generated_Source\PSoC6\pdl\drivers/peripheral/ipc/cy_ipc_drv.h **** * \defgroup group_ipc_drv IPC driver layer (IPC_DRV)
 227:Generated_Source\PSoC6\pdl\drivers/peripheral/ipc/cy_ipc_drv.h **** * \{
 228:Generated_Source\PSoC6\pdl\drivers/peripheral/ipc/cy_ipc_drv.h **** *   The functions of this layer are used in the higher IPC levels
 229:Generated_Source\PSoC6\pdl\drivers/peripheral/ipc/cy_ipc_drv.h **** *   (Semaphores and Pipes).
 230:Generated_Source\PSoC6\pdl\drivers/peripheral/ipc/cy_ipc_drv.h **** *   Users should not call any of these IPC functions directly.
 231:Generated_Source\PSoC6\pdl\drivers/peripheral/ipc/cy_ipc_drv.h **** *
 232:Generated_Source\PSoC6\pdl\drivers/peripheral/ipc/cy_ipc_drv.h **** *   \defgroup group_ipc_macros Macros
 233:Generated_Source\PSoC6\pdl\drivers/peripheral/ipc/cy_ipc_drv.h **** *       Macro definitions are used in the driver
 234:Generated_Source\PSoC6\pdl\drivers/peripheral/ipc/cy_ipc_drv.h **** *
 235:Generated_Source\PSoC6\pdl\drivers/peripheral/ipc/cy_ipc_drv.h **** *   \defgroup group_ipc_functions Functions
 236:Generated_Source\PSoC6\pdl\drivers/peripheral/ipc/cy_ipc_drv.h **** *       Functions are used in the driver
 237:Generated_Source\PSoC6\pdl\drivers/peripheral/ipc/cy_ipc_drv.h **** *
 238:Generated_Source\PSoC6\pdl\drivers/peripheral/ipc/cy_ipc_drv.h **** *   \defgroup group_ipc_data_structures Data Structures
ARM GAS  C:\Users\kiwamu\AppData\Local\Temp\ccTROAwf.s 			page 26


 239:Generated_Source\PSoC6\pdl\drivers/peripheral/ipc/cy_ipc_drv.h **** *       Data structures are used in the driver
 240:Generated_Source\PSoC6\pdl\drivers/peripheral/ipc/cy_ipc_drv.h **** *
 241:Generated_Source\PSoC6\pdl\drivers/peripheral/ipc/cy_ipc_drv.h **** *   \defgroup group_ipc_enums Enumerated Types
 242:Generated_Source\PSoC6\pdl\drivers/peripheral/ipc/cy_ipc_drv.h **** *       Enumerations are used in the driver
 243:Generated_Source\PSoC6\pdl\drivers/peripheral/ipc/cy_ipc_drv.h **** * \}
 244:Generated_Source\PSoC6\pdl\drivers/peripheral/ipc/cy_ipc_drv.h **** *
 245:Generated_Source\PSoC6\pdl\drivers/peripheral/ipc/cy_ipc_drv.h **** * \defgroup group_ipc_sema IPC semaphores layer (IPC_SEMA)
 246:Generated_Source\PSoC6\pdl\drivers/peripheral/ipc/cy_ipc_drv.h **** * \defgroup group_ipc_pipe IPC pipes layer (IPC_PIPE)
 247:Generated_Source\PSoC6\pdl\drivers/peripheral/ipc/cy_ipc_drv.h **** *
 248:Generated_Source\PSoC6\pdl\drivers/peripheral/ipc/cy_ipc_drv.h **** */
 249:Generated_Source\PSoC6\pdl\drivers/peripheral/ipc/cy_ipc_drv.h **** 
 250:Generated_Source\PSoC6\pdl\drivers/peripheral/ipc/cy_ipc_drv.h **** /******************************************************************************/
 251:Generated_Source\PSoC6\pdl\drivers/peripheral/ipc/cy_ipc_drv.h **** /* Include files                                                              */
 252:Generated_Source\PSoC6\pdl\drivers/peripheral/ipc/cy_ipc_drv.h **** /******************************************************************************/
 253:Generated_Source\PSoC6\pdl\drivers/peripheral/ipc/cy_ipc_drv.h **** #include "syslib/cy_syslib.h"
 254:Generated_Source\PSoC6\pdl\drivers/peripheral/ipc/cy_ipc_drv.h **** #include "cy_device_headers.h"
 255:Generated_Source\PSoC6\pdl\drivers/peripheral/ipc/cy_ipc_drv.h **** #include "cy_ipc_config.h"
 256:Generated_Source\PSoC6\pdl\drivers/peripheral/ipc/cy_ipc_drv.h **** #include <stddef.h>
 257:Generated_Source\PSoC6\pdl\drivers/peripheral/ipc/cy_ipc_drv.h **** 
 258:Generated_Source\PSoC6\pdl\drivers/peripheral/ipc/cy_ipc_drv.h **** /**
 259:Generated_Source\PSoC6\pdl\drivers/peripheral/ipc/cy_ipc_drv.h **** * \addtogroup group_ipc_macros
 260:Generated_Source\PSoC6\pdl\drivers/peripheral/ipc/cy_ipc_drv.h **** * \{
 261:Generated_Source\PSoC6\pdl\drivers/peripheral/ipc/cy_ipc_drv.h **** */
 262:Generated_Source\PSoC6\pdl\drivers/peripheral/ipc/cy_ipc_drv.h **** 
 263:Generated_Source\PSoC6\pdl\drivers/peripheral/ipc/cy_ipc_drv.h **** /** Driver major version */
 264:Generated_Source\PSoC6\pdl\drivers/peripheral/ipc/cy_ipc_drv.h **** #define CY_IPC_DRV_VERSION_MAJOR       1
 265:Generated_Source\PSoC6\pdl\drivers/peripheral/ipc/cy_ipc_drv.h **** 
 266:Generated_Source\PSoC6\pdl\drivers/peripheral/ipc/cy_ipc_drv.h **** /** Driver minor version */
 267:Generated_Source\PSoC6\pdl\drivers/peripheral/ipc/cy_ipc_drv.h **** #define CY_IPC_DRV_VERSION_MINOR       10
 268:Generated_Source\PSoC6\pdl\drivers/peripheral/ipc/cy_ipc_drv.h **** 
 269:Generated_Source\PSoC6\pdl\drivers/peripheral/ipc/cy_ipc_drv.h **** /** Defines a value to indicate that no notification events are needed */
 270:Generated_Source\PSoC6\pdl\drivers/peripheral/ipc/cy_ipc_drv.h **** #define CY_IPC_NO_NOTIFICATION         (uint32_t)(0x00000000ul)
 271:Generated_Source\PSoC6\pdl\drivers/peripheral/ipc/cy_ipc_drv.h **** 
 272:Generated_Source\PSoC6\pdl\drivers/peripheral/ipc/cy_ipc_drv.h **** /* Error Code constants */
 273:Generated_Source\PSoC6\pdl\drivers/peripheral/ipc/cy_ipc_drv.h **** #define CY_IPC_ID CY_PDL_DRV_ID(0x22u)  /**< Software PDL driver ID for IPC */
 274:Generated_Source\PSoC6\pdl\drivers/peripheral/ipc/cy_ipc_drv.h **** 
 275:Generated_Source\PSoC6\pdl\drivers/peripheral/ipc/cy_ipc_drv.h **** /** Return prefix for IPC driver function status codes */
 276:Generated_Source\PSoC6\pdl\drivers/peripheral/ipc/cy_ipc_drv.h **** #define CY_IPC_ID_INFO    (uint32_t)( CY_IPC_ID | CY_PDL_STATUS_INFO )
 277:Generated_Source\PSoC6\pdl\drivers/peripheral/ipc/cy_ipc_drv.h **** /** Return prefix for IPC driver function warning return values */
 278:Generated_Source\PSoC6\pdl\drivers/peripheral/ipc/cy_ipc_drv.h **** #define CY_IPC_ID_WARNING (uint32_t)( CY_IPC_ID | CY_PDL_STATUS_WARNING)
 279:Generated_Source\PSoC6\pdl\drivers/peripheral/ipc/cy_ipc_drv.h **** /** Return prefix for IPC driver function error return values */
 280:Generated_Source\PSoC6\pdl\drivers/peripheral/ipc/cy_ipc_drv.h **** #define CY_IPC_ID_ERROR   (uint32_t)( CY_IPC_ID | CY_PDL_STATUS_ERROR)
 281:Generated_Source\PSoC6\pdl\drivers/peripheral/ipc/cy_ipc_drv.h **** 
 282:Generated_Source\PSoC6\pdl\drivers/peripheral/ipc/cy_ipc_drv.h **** /** Converts the IPC interrupt channel number to interrupt vector */
 283:Generated_Source\PSoC6\pdl\drivers/peripheral/ipc/cy_ipc_drv.h **** #define CY_IPC_INTR_NUM_TO_VECT(x)         ((int32_t)cpuss_interrupts_ipc_0_IRQn + (x))
 284:Generated_Source\PSoC6\pdl\drivers/peripheral/ipc/cy_ipc_drv.h **** 
 285:Generated_Source\PSoC6\pdl\drivers/peripheral/ipc/cy_ipc_drv.h **** /** \} group_ipc_macros */
 286:Generated_Source\PSoC6\pdl\drivers/peripheral/ipc/cy_ipc_drv.h **** 
 287:Generated_Source\PSoC6\pdl\drivers/peripheral/ipc/cy_ipc_drv.h **** /* end of definition in device.h */
 288:Generated_Source\PSoC6\pdl\drivers/peripheral/ipc/cy_ipc_drv.h **** 
 289:Generated_Source\PSoC6\pdl\drivers/peripheral/ipc/cy_ipc_drv.h **** 
 290:Generated_Source\PSoC6\pdl\drivers/peripheral/ipc/cy_ipc_drv.h **** /**
 291:Generated_Source\PSoC6\pdl\drivers/peripheral/ipc/cy_ipc_drv.h **** * \addtogroup group_ipc_enums
 292:Generated_Source\PSoC6\pdl\drivers/peripheral/ipc/cy_ipc_drv.h **** * \{
 293:Generated_Source\PSoC6\pdl\drivers/peripheral/ipc/cy_ipc_drv.h **** */
 294:Generated_Source\PSoC6\pdl\drivers/peripheral/ipc/cy_ipc_drv.h **** 
 295:Generated_Source\PSoC6\pdl\drivers/peripheral/ipc/cy_ipc_drv.h **** /**
ARM GAS  C:\Users\kiwamu\AppData\Local\Temp\ccTROAwf.s 			page 27


 296:Generated_Source\PSoC6\pdl\drivers/peripheral/ipc/cy_ipc_drv.h **** * This is a list of ENUMs used for function return status.
 297:Generated_Source\PSoC6\pdl\drivers/peripheral/ipc/cy_ipc_drv.h **** */
 298:Generated_Source\PSoC6\pdl\drivers/peripheral/ipc/cy_ipc_drv.h **** typedef enum
 299:Generated_Source\PSoC6\pdl\drivers/peripheral/ipc/cy_ipc_drv.h **** {
 300:Generated_Source\PSoC6\pdl\drivers/peripheral/ipc/cy_ipc_drv.h ****     /** Function was successfully executed */
 301:Generated_Source\PSoC6\pdl\drivers/peripheral/ipc/cy_ipc_drv.h ****     CY_IPC_DRV_SUCCESS      = (0x00u),
 302:Generated_Source\PSoC6\pdl\drivers/peripheral/ipc/cy_ipc_drv.h ****     /** Function was not executed due to an error.
 303:Generated_Source\PSoC6\pdl\drivers/peripheral/ipc/cy_ipc_drv.h ****         Typical conditions for the error explained
 304:Generated_Source\PSoC6\pdl\drivers/peripheral/ipc/cy_ipc_drv.h ****         in the function description */
 305:Generated_Source\PSoC6\pdl\drivers/peripheral/ipc/cy_ipc_drv.h ****     CY_IPC_DRV_ERROR        = ( CY_IPC_ID_ERROR + 1ul),
 306:Generated_Source\PSoC6\pdl\drivers/peripheral/ipc/cy_ipc_drv.h **** } cy_en_ipcdrv_status_t;
 307:Generated_Source\PSoC6\pdl\drivers/peripheral/ipc/cy_ipc_drv.h **** 
 308:Generated_Source\PSoC6\pdl\drivers/peripheral/ipc/cy_ipc_drv.h **** /** \} group_ipc_enums */
 309:Generated_Source\PSoC6\pdl\drivers/peripheral/ipc/cy_ipc_drv.h **** 
 310:Generated_Source\PSoC6\pdl\drivers/peripheral/ipc/cy_ipc_drv.h **** 
 311:Generated_Source\PSoC6\pdl\drivers/peripheral/ipc/cy_ipc_drv.h **** #ifdef __cplusplus
 312:Generated_Source\PSoC6\pdl\drivers/peripheral/ipc/cy_ipc_drv.h **** extern "C" {
 313:Generated_Source\PSoC6\pdl\drivers/peripheral/ipc/cy_ipc_drv.h **** #endif
 314:Generated_Source\PSoC6\pdl\drivers/peripheral/ipc/cy_ipc_drv.h **** 
 315:Generated_Source\PSoC6\pdl\drivers/peripheral/ipc/cy_ipc_drv.h **** /** \cond INTERNAL */
 316:Generated_Source\PSoC6\pdl\drivers/peripheral/ipc/cy_ipc_drv.h **** 
 317:Generated_Source\PSoC6\pdl\drivers/peripheral/ipc/cy_ipc_drv.h **** __STATIC_INLINE void     Cy_IPC_Drv_WriteDataValue (IPC_STRUCT_Type* base, uint32_t dataValue);
 318:Generated_Source\PSoC6\pdl\drivers/peripheral/ipc/cy_ipc_drv.h **** __STATIC_INLINE uint32_t Cy_IPC_Drv_ReadDataValue (IPC_STRUCT_Type const * base);
 319:Generated_Source\PSoC6\pdl\drivers/peripheral/ipc/cy_ipc_drv.h **** __STATIC_INLINE void     Cy_IPC_Drv_ReleaseNotify (IPC_STRUCT_Type* base, uint32_t notifyEventIntr)
 320:Generated_Source\PSoC6\pdl\drivers/peripheral/ipc/cy_ipc_drv.h **** 
 321:Generated_Source\PSoC6\pdl\drivers/peripheral/ipc/cy_ipc_drv.h **** __STATIC_INLINE uint32_t Cy_IPC_Drv_ExtractAcquireMask (uint32_t intMask);
 322:Generated_Source\PSoC6\pdl\drivers/peripheral/ipc/cy_ipc_drv.h **** __STATIC_INLINE uint32_t Cy_IPC_Drv_ExtractReleaseMask (uint32_t intMask);
 323:Generated_Source\PSoC6\pdl\drivers/peripheral/ipc/cy_ipc_drv.h **** 
 324:Generated_Source\PSoC6\pdl\drivers/peripheral/ipc/cy_ipc_drv.h **** /** \endcond */
 325:Generated_Source\PSoC6\pdl\drivers/peripheral/ipc/cy_ipc_drv.h **** 
 326:Generated_Source\PSoC6\pdl\drivers/peripheral/ipc/cy_ipc_drv.h **** /**
 327:Generated_Source\PSoC6\pdl\drivers/peripheral/ipc/cy_ipc_drv.h **** * \addtogroup group_ipc_functions
 328:Generated_Source\PSoC6\pdl\drivers/peripheral/ipc/cy_ipc_drv.h **** * \{
 329:Generated_Source\PSoC6\pdl\drivers/peripheral/ipc/cy_ipc_drv.h **** */
 330:Generated_Source\PSoC6\pdl\drivers/peripheral/ipc/cy_ipc_drv.h **** 
 331:Generated_Source\PSoC6\pdl\drivers/peripheral/ipc/cy_ipc_drv.h **** __STATIC_INLINE IPC_STRUCT_Type*       Cy_IPC_Drv_GetIpcBaseAddress (uint32_t ipcIndex);
 332:Generated_Source\PSoC6\pdl\drivers/peripheral/ipc/cy_ipc_drv.h **** __STATIC_INLINE IPC_INTR_STRUCT_Type*  Cy_IPC_Drv_GetIntrBaseAddr (uint32_t ipcIntrIndex);
 333:Generated_Source\PSoC6\pdl\drivers/peripheral/ipc/cy_ipc_drv.h **** 
 334:Generated_Source\PSoC6\pdl\drivers/peripheral/ipc/cy_ipc_drv.h **** __STATIC_INLINE void     Cy_IPC_Drv_AcquireNotify (IPC_STRUCT_Type * base, uint32_t notifyEventIntr
 335:Generated_Source\PSoC6\pdl\drivers/peripheral/ipc/cy_ipc_drv.h **** 
 336:Generated_Source\PSoC6\pdl\drivers/peripheral/ipc/cy_ipc_drv.h **** __STATIC_INLINE  cy_en_ipcdrv_status_t Cy_IPC_Drv_LockAcquire (IPC_STRUCT_Type const * base);
 337:Generated_Source\PSoC6\pdl\drivers/peripheral/ipc/cy_ipc_drv.h **** cy_en_ipcdrv_status_t    Cy_IPC_Drv_LockRelease (IPC_STRUCT_Type * base, uint32_t releaseEventIntr)
 338:Generated_Source\PSoC6\pdl\drivers/peripheral/ipc/cy_ipc_drv.h **** __STATIC_INLINE bool     Cy_IPC_Drv_IsLockAcquired (IPC_STRUCT_Type const * base);
 339:Generated_Source\PSoC6\pdl\drivers/peripheral/ipc/cy_ipc_drv.h **** __STATIC_INLINE uint32_t Cy_IPC_Drv_GetLockStatus (IPC_STRUCT_Type const * base);
 340:Generated_Source\PSoC6\pdl\drivers/peripheral/ipc/cy_ipc_drv.h **** 
 341:Generated_Source\PSoC6\pdl\drivers/peripheral/ipc/cy_ipc_drv.h **** cy_en_ipcdrv_status_t    Cy_IPC_Drv_SendMsgWord (IPC_STRUCT_Type * base, uint32_t notifyEventIntr, 
 342:Generated_Source\PSoC6\pdl\drivers/peripheral/ipc/cy_ipc_drv.h **** cy_en_ipcdrv_status_t    Cy_IPC_Drv_ReadMsgWord (IPC_STRUCT_Type const * base, uint32_t * message);
 343:Generated_Source\PSoC6\pdl\drivers/peripheral/ipc/cy_ipc_drv.h **** __STATIC_INLINE cy_en_ipcdrv_status_t Cy_IPC_Drv_SendMsgPtr (IPC_STRUCT_Type* base, uint32_t notify
 344:Generated_Source\PSoC6\pdl\drivers/peripheral/ipc/cy_ipc_drv.h **** __STATIC_INLINE cy_en_ipcdrv_status_t Cy_IPC_Drv_ReadMsgPtr (IPC_STRUCT_Type const * base, void ** 
 345:Generated_Source\PSoC6\pdl\drivers/peripheral/ipc/cy_ipc_drv.h **** 
 346:Generated_Source\PSoC6\pdl\drivers/peripheral/ipc/cy_ipc_drv.h **** __STATIC_INLINE void     Cy_IPC_Drv_SetInterruptMask (IPC_INTR_STRUCT_Type * base,
 347:Generated_Source\PSoC6\pdl\drivers/peripheral/ipc/cy_ipc_drv.h ****                                                       uint32_t ipcReleaseMask, uint32_t ipcNotifyMa
 348:Generated_Source\PSoC6\pdl\drivers/peripheral/ipc/cy_ipc_drv.h **** __STATIC_INLINE uint32_t Cy_IPC_Drv_GetInterruptMask (IPC_INTR_STRUCT_Type const * base);
 349:Generated_Source\PSoC6\pdl\drivers/peripheral/ipc/cy_ipc_drv.h **** __STATIC_INLINE uint32_t Cy_IPC_Drv_GetInterruptStatusMasked (IPC_INTR_STRUCT_Type const * base);
 350:Generated_Source\PSoC6\pdl\drivers/peripheral/ipc/cy_ipc_drv.h **** __STATIC_INLINE uint32_t Cy_IPC_Drv_GetInterruptStatus (IPC_INTR_STRUCT_Type const * base);
 351:Generated_Source\PSoC6\pdl\drivers/peripheral/ipc/cy_ipc_drv.h **** __STATIC_INLINE void     Cy_IPC_Drv_SetInterrupt (IPC_INTR_STRUCT_Type * base,
 352:Generated_Source\PSoC6\pdl\drivers/peripheral/ipc/cy_ipc_drv.h ****                                                       uint32_t ipcReleaseMask, uint32_t ipcNotifyMa
ARM GAS  C:\Users\kiwamu\AppData\Local\Temp\ccTROAwf.s 			page 28


 353:Generated_Source\PSoC6\pdl\drivers/peripheral/ipc/cy_ipc_drv.h **** __STATIC_INLINE void     Cy_IPC_Drv_ClearInterrupt (IPC_INTR_STRUCT_Type * base,
 354:Generated_Source\PSoC6\pdl\drivers/peripheral/ipc/cy_ipc_drv.h ****                                                       uint32_t ipcReleaseMask, uint32_t ipcNotifyMa
 355:Generated_Source\PSoC6\pdl\drivers/peripheral/ipc/cy_ipc_drv.h **** 
 356:Generated_Source\PSoC6\pdl\drivers/peripheral/ipc/cy_ipc_drv.h **** /*******************************************************************************
 357:Generated_Source\PSoC6\pdl\drivers/peripheral/ipc/cy_ipc_drv.h **** * Function Name: Cy_IPC_Drv_GetIpcBaseAddress
 358:Generated_Source\PSoC6\pdl\drivers/peripheral/ipc/cy_ipc_drv.h **** ****************************************************************************//**
 359:Generated_Source\PSoC6\pdl\drivers/peripheral/ipc/cy_ipc_drv.h **** *
 360:Generated_Source\PSoC6\pdl\drivers/peripheral/ipc/cy_ipc_drv.h **** * This function takes an IPC channel index as a parameter and returns the base
 361:Generated_Source\PSoC6\pdl\drivers/peripheral/ipc/cy_ipc_drv.h **** * address the IPC registers corresponding to the IPC channel.
 362:Generated_Source\PSoC6\pdl\drivers/peripheral/ipc/cy_ipc_drv.h **** *
 363:Generated_Source\PSoC6\pdl\drivers/peripheral/ipc/cy_ipc_drv.h **** * This function is internal and should not be called directly by user
 364:Generated_Source\PSoC6\pdl\drivers/peripheral/ipc/cy_ipc_drv.h **** * software.
 365:Generated_Source\PSoC6\pdl\drivers/peripheral/ipc/cy_ipc_drv.h **** *
 366:Generated_Source\PSoC6\pdl\drivers/peripheral/ipc/cy_ipc_drv.h **** * \note The user is responsible for ensuring that ipcIndex does not exceed the
 367:Generated_Source\PSoC6\pdl\drivers/peripheral/ipc/cy_ipc_drv.h **** * limits.
 368:Generated_Source\PSoC6\pdl\drivers/peripheral/ipc/cy_ipc_drv.h **** *
 369:Generated_Source\PSoC6\pdl\drivers/peripheral/ipc/cy_ipc_drv.h **** * \param ipcIndex
 370:Generated_Source\PSoC6\pdl\drivers/peripheral/ipc/cy_ipc_drv.h **** * Represents the number of IPC structure. This is converted to the base address of
 371:Generated_Source\PSoC6\pdl\drivers/peripheral/ipc/cy_ipc_drv.h **** * the IPC channel registers.
 372:Generated_Source\PSoC6\pdl\drivers/peripheral/ipc/cy_ipc_drv.h **** *
 373:Generated_Source\PSoC6\pdl\drivers/peripheral/ipc/cy_ipc_drv.h **** * \return
 374:Generated_Source\PSoC6\pdl\drivers/peripheral/ipc/cy_ipc_drv.h **** * Returns a pointer to the base of the IPC registers.
 375:Generated_Source\PSoC6\pdl\drivers/peripheral/ipc/cy_ipc_drv.h **** *
 376:Generated_Source\PSoC6\pdl\drivers/peripheral/ipc/cy_ipc_drv.h **** *******************************************************************************/
 377:Generated_Source\PSoC6\pdl\drivers/peripheral/ipc/cy_ipc_drv.h **** __STATIC_INLINE IPC_STRUCT_Type* Cy_IPC_Drv_GetIpcBaseAddress (uint32_t ipcIndex)
 378:Generated_Source\PSoC6\pdl\drivers/peripheral/ipc/cy_ipc_drv.h **** {
 379:Generated_Source\PSoC6\pdl\drivers/peripheral/ipc/cy_ipc_drv.h ****     CY_ASSERT_L1((uint32_t)CY_IPC_CHANNELS > ipcIndex);
 380:Generated_Source\PSoC6\pdl\drivers/peripheral/ipc/cy_ipc_drv.h ****     return ( (IPC_STRUCT_Type*) ( &IPC->STRUCT[ipcIndex] ) );
 381:Generated_Source\PSoC6\pdl\drivers/peripheral/ipc/cy_ipc_drv.h **** }
 382:Generated_Source\PSoC6\pdl\drivers/peripheral/ipc/cy_ipc_drv.h **** 
 383:Generated_Source\PSoC6\pdl\drivers/peripheral/ipc/cy_ipc_drv.h **** /*******************************************************************************
 384:Generated_Source\PSoC6\pdl\drivers/peripheral/ipc/cy_ipc_drv.h **** * Function Name: Cy_IPC_Drv_GetIntrBaseAddr
 385:Generated_Source\PSoC6\pdl\drivers/peripheral/ipc/cy_ipc_drv.h **** ****************************************************************************//**
 386:Generated_Source\PSoC6\pdl\drivers/peripheral/ipc/cy_ipc_drv.h **** *
 387:Generated_Source\PSoC6\pdl\drivers/peripheral/ipc/cy_ipc_drv.h **** * This function takes an IPC interrupt structure index and returns the base
 388:Generated_Source\PSoC6\pdl\drivers/peripheral/ipc/cy_ipc_drv.h **** * address of the IPC interrupt registers corresponding to the IPC Interrupt.
 389:Generated_Source\PSoC6\pdl\drivers/peripheral/ipc/cy_ipc_drv.h **** *
 390:Generated_Source\PSoC6\pdl\drivers/peripheral/ipc/cy_ipc_drv.h **** * This function is internal and should not be called directly by user
 391:Generated_Source\PSoC6\pdl\drivers/peripheral/ipc/cy_ipc_drv.h **** * software.
 392:Generated_Source\PSoC6\pdl\drivers/peripheral/ipc/cy_ipc_drv.h **** *
 393:Generated_Source\PSoC6\pdl\drivers/peripheral/ipc/cy_ipc_drv.h **** * \note The user is responsible for ensuring that ipcIntrIndex does not exceed the
 394:Generated_Source\PSoC6\pdl\drivers/peripheral/ipc/cy_ipc_drv.h **** * limits.
 395:Generated_Source\PSoC6\pdl\drivers/peripheral/ipc/cy_ipc_drv.h **** *
 396:Generated_Source\PSoC6\pdl\drivers/peripheral/ipc/cy_ipc_drv.h **** * \param ipcIntrIndex
 397:Generated_Source\PSoC6\pdl\drivers/peripheral/ipc/cy_ipc_drv.h **** * Represents the number of IPC interrupt structure. This is converted to the
 398:Generated_Source\PSoC6\pdl\drivers/peripheral/ipc/cy_ipc_drv.h **** * base address of the IPC interrupt registers.
 399:Generated_Source\PSoC6\pdl\drivers/peripheral/ipc/cy_ipc_drv.h **** *
 400:Generated_Source\PSoC6\pdl\drivers/peripheral/ipc/cy_ipc_drv.h **** * \return
 401:Generated_Source\PSoC6\pdl\drivers/peripheral/ipc/cy_ipc_drv.h **** * Returns a pointer to the base of the IPC interrupt registers.
 402:Generated_Source\PSoC6\pdl\drivers/peripheral/ipc/cy_ipc_drv.h **** *
 403:Generated_Source\PSoC6\pdl\drivers/peripheral/ipc/cy_ipc_drv.h **** *******************************************************************************/
 404:Generated_Source\PSoC6\pdl\drivers/peripheral/ipc/cy_ipc_drv.h **** __STATIC_INLINE IPC_INTR_STRUCT_Type* Cy_IPC_Drv_GetIntrBaseAddr (uint32_t ipcIntrIndex)
 405:Generated_Source\PSoC6\pdl\drivers/peripheral/ipc/cy_ipc_drv.h **** {
 406:Generated_Source\PSoC6\pdl\drivers/peripheral/ipc/cy_ipc_drv.h ****     CY_ASSERT_L1((uint32_t)CY_IPC_INTERRUPTS > ipcIntrIndex);
 407:Generated_Source\PSoC6\pdl\drivers/peripheral/ipc/cy_ipc_drv.h ****     return ( (IPC_INTR_STRUCT_Type*) ( &IPC->INTR_STRUCT[ipcIntrIndex] ) );
 408:Generated_Source\PSoC6\pdl\drivers/peripheral/ipc/cy_ipc_drv.h **** }
 409:Generated_Source\PSoC6\pdl\drivers/peripheral/ipc/cy_ipc_drv.h **** 
ARM GAS  C:\Users\kiwamu\AppData\Local\Temp\ccTROAwf.s 			page 29


 410:Generated_Source\PSoC6\pdl\drivers/peripheral/ipc/cy_ipc_drv.h **** /*******************************************************************************
 411:Generated_Source\PSoC6\pdl\drivers/peripheral/ipc/cy_ipc_drv.h **** * Function Name: Cy_IPC_Drv_SetInterruptMask
 412:Generated_Source\PSoC6\pdl\drivers/peripheral/ipc/cy_ipc_drv.h **** ****************************************************************************//**
 413:Generated_Source\PSoC6\pdl\drivers/peripheral/ipc/cy_ipc_drv.h **** *
 414:Generated_Source\PSoC6\pdl\drivers/peripheral/ipc/cy_ipc_drv.h **** * This function is used to set the interrupt mask for an IPC Interrupt.
 415:Generated_Source\PSoC6\pdl\drivers/peripheral/ipc/cy_ipc_drv.h **** * The mask sets release or acquire notification events for all IPC channels.
 416:Generated_Source\PSoC6\pdl\drivers/peripheral/ipc/cy_ipc_drv.h **** *
 417:Generated_Source\PSoC6\pdl\drivers/peripheral/ipc/cy_ipc_drv.h **** * This function is internal and should not be called directly by user
 418:Generated_Source\PSoC6\pdl\drivers/peripheral/ipc/cy_ipc_drv.h **** * software.
 419:Generated_Source\PSoC6\pdl\drivers/peripheral/ipc/cy_ipc_drv.h **** *
 420:Generated_Source\PSoC6\pdl\drivers/peripheral/ipc/cy_ipc_drv.h **** * \param base
 421:Generated_Source\PSoC6\pdl\drivers/peripheral/ipc/cy_ipc_drv.h **** * This is a handle to the IPC interrupt. This handle can be calculated from the
 422:Generated_Source\PSoC6\pdl\drivers/peripheral/ipc/cy_ipc_drv.h **** * IPC interrupt number using \ref Cy_IPC_Drv_GetIntrBaseAddr.
 423:Generated_Source\PSoC6\pdl\drivers/peripheral/ipc/cy_ipc_drv.h **** *
 424:Generated_Source\PSoC6\pdl\drivers/peripheral/ipc/cy_ipc_drv.h **** * \param ipcReleaseMask
 425:Generated_Source\PSoC6\pdl\drivers/peripheral/ipc/cy_ipc_drv.h **** * An encoded list of all IPC channels that can trigger the interrupt on a
 426:Generated_Source\PSoC6\pdl\drivers/peripheral/ipc/cy_ipc_drv.h **** * release event.
 427:Generated_Source\PSoC6\pdl\drivers/peripheral/ipc/cy_ipc_drv.h **** *
 428:Generated_Source\PSoC6\pdl\drivers/peripheral/ipc/cy_ipc_drv.h **** * \param ipcNotifyMask
 429:Generated_Source\PSoC6\pdl\drivers/peripheral/ipc/cy_ipc_drv.h **** * An encoded list of all IPC channels that can trigger the interrupt on a
 430:Generated_Source\PSoC6\pdl\drivers/peripheral/ipc/cy_ipc_drv.h **** * notify event.
 431:Generated_Source\PSoC6\pdl\drivers/peripheral/ipc/cy_ipc_drv.h **** *
 432:Generated_Source\PSoC6\pdl\drivers/peripheral/ipc/cy_ipc_drv.h **** *******************************************************************************/
 433:Generated_Source\PSoC6\pdl\drivers/peripheral/ipc/cy_ipc_drv.h **** __STATIC_INLINE void  Cy_IPC_Drv_SetInterruptMask (IPC_INTR_STRUCT_Type* base,
 434:Generated_Source\PSoC6\pdl\drivers/peripheral/ipc/cy_ipc_drv.h ****                                               uint32_t ipcReleaseMask, uint32_t ipcNotifyMask)
 435:Generated_Source\PSoC6\pdl\drivers/peripheral/ipc/cy_ipc_drv.h **** {
 436:Generated_Source\PSoC6\pdl\drivers/peripheral/ipc/cy_ipc_drv.h ****     CY_ASSERT_L1(0ul == (ipcNotifyMask  & ~(uint32_t)(IPC_STRUCT_NOTIFY_INTR_NOTIFY_Msk)));
 437:Generated_Source\PSoC6\pdl\drivers/peripheral/ipc/cy_ipc_drv.h ****     CY_ASSERT_L1(0ul == (ipcReleaseMask & ~(uint32_t)(IPC_STRUCT_RELEASE_INTR_RELEASE_Msk)));
 438:Generated_Source\PSoC6\pdl\drivers/peripheral/ipc/cy_ipc_drv.h ****     base->INTR_MASK = _VAL2FLD( IPC_INTR_STRUCT_INTR_MASK_NOTIFY,  ipcNotifyMask) |
 439:Generated_Source\PSoC6\pdl\drivers/peripheral/ipc/cy_ipc_drv.h ****                       _VAL2FLD( IPC_INTR_STRUCT_INTR_MASK_RELEASE, ipcReleaseMask);
 440:Generated_Source\PSoC6\pdl\drivers/peripheral/ipc/cy_ipc_drv.h **** }
 441:Generated_Source\PSoC6\pdl\drivers/peripheral/ipc/cy_ipc_drv.h **** 
 442:Generated_Source\PSoC6\pdl\drivers/peripheral/ipc/cy_ipc_drv.h **** 
 443:Generated_Source\PSoC6\pdl\drivers/peripheral/ipc/cy_ipc_drv.h **** /*******************************************************************************
 444:Generated_Source\PSoC6\pdl\drivers/peripheral/ipc/cy_ipc_drv.h **** * Function Name: Cy_IPC_Drv_GetInterruptMask
 445:Generated_Source\PSoC6\pdl\drivers/peripheral/ipc/cy_ipc_drv.h **** ****************************************************************************//**
 446:Generated_Source\PSoC6\pdl\drivers/peripheral/ipc/cy_ipc_drv.h **** *
 447:Generated_Source\PSoC6\pdl\drivers/peripheral/ipc/cy_ipc_drv.h **** * This function is used to read the interrupt mask.
 448:Generated_Source\PSoC6\pdl\drivers/peripheral/ipc/cy_ipc_drv.h **** *
 449:Generated_Source\PSoC6\pdl\drivers/peripheral/ipc/cy_ipc_drv.h **** * This function is internal and should not be called directly by user
 450:Generated_Source\PSoC6\pdl\drivers/peripheral/ipc/cy_ipc_drv.h **** * software.
 451:Generated_Source\PSoC6\pdl\drivers/peripheral/ipc/cy_ipc_drv.h **** *
 452:Generated_Source\PSoC6\pdl\drivers/peripheral/ipc/cy_ipc_drv.h **** * \param base
 453:Generated_Source\PSoC6\pdl\drivers/peripheral/ipc/cy_ipc_drv.h **** * This is a handle to the IPC interrupt. This handle can be calculated from
 454:Generated_Source\PSoC6\pdl\drivers/peripheral/ipc/cy_ipc_drv.h **** * the IPC interrupt number using \ref Cy_IPC_Drv_GetIntrBaseAddr.
 455:Generated_Source\PSoC6\pdl\drivers/peripheral/ipc/cy_ipc_drv.h **** *
 456:Generated_Source\PSoC6\pdl\drivers/peripheral/ipc/cy_ipc_drv.h **** * \return
 457:Generated_Source\PSoC6\pdl\drivers/peripheral/ipc/cy_ipc_drv.h **** *   The return value is encoded as follows
 458:Generated_Source\PSoC6\pdl\drivers/peripheral/ipc/cy_ipc_drv.h **** *   <table>
 459:Generated_Source\PSoC6\pdl\drivers/peripheral/ipc/cy_ipc_drv.h **** *   <tr><th>Interrupt sources   <th>Value
 460:Generated_Source\PSoC6\pdl\drivers/peripheral/ipc/cy_ipc_drv.h **** *   <tr><td>Ipc_PORTX_RELEASE   <td>Xth bit set
 461:Generated_Source\PSoC6\pdl\drivers/peripheral/ipc/cy_ipc_drv.h **** *   <tr><td>Ipc_PORTX_NOTIFY    <td>X+16th bit set
 462:Generated_Source\PSoC6\pdl\drivers/peripheral/ipc/cy_ipc_drv.h **** *   </table>
 463:Generated_Source\PSoC6\pdl\drivers/peripheral/ipc/cy_ipc_drv.h **** *
 464:Generated_Source\PSoC6\pdl\drivers/peripheral/ipc/cy_ipc_drv.h **** *******************************************************************************/
 465:Generated_Source\PSoC6\pdl\drivers/peripheral/ipc/cy_ipc_drv.h **** __STATIC_INLINE uint32_t Cy_IPC_Drv_GetInterruptMask(IPC_INTR_STRUCT_Type const * base)
 466:Generated_Source\PSoC6\pdl\drivers/peripheral/ipc/cy_ipc_drv.h **** {
ARM GAS  C:\Users\kiwamu\AppData\Local\Temp\ccTROAwf.s 			page 30


 467:Generated_Source\PSoC6\pdl\drivers/peripheral/ipc/cy_ipc_drv.h ****     return (base->INTR_MASK);
 468:Generated_Source\PSoC6\pdl\drivers/peripheral/ipc/cy_ipc_drv.h **** }
 469:Generated_Source\PSoC6\pdl\drivers/peripheral/ipc/cy_ipc_drv.h **** 
 470:Generated_Source\PSoC6\pdl\drivers/peripheral/ipc/cy_ipc_drv.h **** /*******************************************************************************
 471:Generated_Source\PSoC6\pdl\drivers/peripheral/ipc/cy_ipc_drv.h **** * Function Name: Cy_IPC_Drv_GetInterruptStatusMasked
 472:Generated_Source\PSoC6\pdl\drivers/peripheral/ipc/cy_ipc_drv.h **** ****************************************************************************//**
 473:Generated_Source\PSoC6\pdl\drivers/peripheral/ipc/cy_ipc_drv.h **** *
 474:Generated_Source\PSoC6\pdl\drivers/peripheral/ipc/cy_ipc_drv.h **** * This function is used to read the active unmasked interrupt. This function
 475:Generated_Source\PSoC6\pdl\drivers/peripheral/ipc/cy_ipc_drv.h **** * can be used in the interrupt service routine to find which source triggered
 476:Generated_Source\PSoC6\pdl\drivers/peripheral/ipc/cy_ipc_drv.h **** * the interrupt.
 477:Generated_Source\PSoC6\pdl\drivers/peripheral/ipc/cy_ipc_drv.h **** *
 478:Generated_Source\PSoC6\pdl\drivers/peripheral/ipc/cy_ipc_drv.h **** * This function is internal and should not be called directly by user
 479:Generated_Source\PSoC6\pdl\drivers/peripheral/ipc/cy_ipc_drv.h **** * software.
 480:Generated_Source\PSoC6\pdl\drivers/peripheral/ipc/cy_ipc_drv.h **** *
 481:Generated_Source\PSoC6\pdl\drivers/peripheral/ipc/cy_ipc_drv.h **** * \param base
 482:Generated_Source\PSoC6\pdl\drivers/peripheral/ipc/cy_ipc_drv.h **** * This is a handle to the IPC interrupt. This handle can be calculated from the
 483:Generated_Source\PSoC6\pdl\drivers/peripheral/ipc/cy_ipc_drv.h **** * IPC interrupt number using \ref Cy_IPC_Drv_GetIntrBaseAddr.
 484:Generated_Source\PSoC6\pdl\drivers/peripheral/ipc/cy_ipc_drv.h **** *
 485:Generated_Source\PSoC6\pdl\drivers/peripheral/ipc/cy_ipc_drv.h **** * \return
 486:Generated_Source\PSoC6\pdl\drivers/peripheral/ipc/cy_ipc_drv.h **** *   The return value is encoded as follows
 487:Generated_Source\PSoC6\pdl\drivers/peripheral/ipc/cy_ipc_drv.h **** *   <table>
 488:Generated_Source\PSoC6\pdl\drivers/peripheral/ipc/cy_ipc_drv.h **** *   <tr><th>Interrupt sources   <th>Value
 489:Generated_Source\PSoC6\pdl\drivers/peripheral/ipc/cy_ipc_drv.h **** *   <tr><td>Ipc_PORTX_RELEASE   <td>Xth bit set
 490:Generated_Source\PSoC6\pdl\drivers/peripheral/ipc/cy_ipc_drv.h **** *   <tr><td>Ipc_PORTX_NOTIFY    <td>X+16th bit set
 491:Generated_Source\PSoC6\pdl\drivers/peripheral/ipc/cy_ipc_drv.h **** *   </table>
 492:Generated_Source\PSoC6\pdl\drivers/peripheral/ipc/cy_ipc_drv.h **** *
 493:Generated_Source\PSoC6\pdl\drivers/peripheral/ipc/cy_ipc_drv.h **** *******************************************************************************/
 494:Generated_Source\PSoC6\pdl\drivers/peripheral/ipc/cy_ipc_drv.h **** __STATIC_INLINE uint32_t Cy_IPC_Drv_GetInterruptStatusMasked (IPC_INTR_STRUCT_Type const * base)
 495:Generated_Source\PSoC6\pdl\drivers/peripheral/ipc/cy_ipc_drv.h **** {
 496:Generated_Source\PSoC6\pdl\drivers/peripheral/ipc/cy_ipc_drv.h ****     return (base->INTR_MASKED);
 497:Generated_Source\PSoC6\pdl\drivers/peripheral/ipc/cy_ipc_drv.h **** }
 498:Generated_Source\PSoC6\pdl\drivers/peripheral/ipc/cy_ipc_drv.h **** 
 499:Generated_Source\PSoC6\pdl\drivers/peripheral/ipc/cy_ipc_drv.h **** /*******************************************************************************
 500:Generated_Source\PSoC6\pdl\drivers/peripheral/ipc/cy_ipc_drv.h **** * Function Name: Cy_IPC_Drv_GetInterruptStatus
 501:Generated_Source\PSoC6\pdl\drivers/peripheral/ipc/cy_ipc_drv.h **** ****************************************************************************//**
 502:Generated_Source\PSoC6\pdl\drivers/peripheral/ipc/cy_ipc_drv.h **** *
 503:Generated_Source\PSoC6\pdl\drivers/peripheral/ipc/cy_ipc_drv.h **** * This function is used to read the pending interrupts. Note that this read is
 504:Generated_Source\PSoC6\pdl\drivers/peripheral/ipc/cy_ipc_drv.h **** * an unmasked read of the interrupt status. Interrupt sources read as active by
 505:Generated_Source\PSoC6\pdl\drivers/peripheral/ipc/cy_ipc_drv.h **** * this function would generate interrupts only if they were not masked.
 506:Generated_Source\PSoC6\pdl\drivers/peripheral/ipc/cy_ipc_drv.h **** 
 507:Generated_Source\PSoC6\pdl\drivers/peripheral/ipc/cy_ipc_drv.h **** * This function is internal and should not be called directly by user
 508:Generated_Source\PSoC6\pdl\drivers/peripheral/ipc/cy_ipc_drv.h **** * software.
 509:Generated_Source\PSoC6\pdl\drivers/peripheral/ipc/cy_ipc_drv.h **** *
 510:Generated_Source\PSoC6\pdl\drivers/peripheral/ipc/cy_ipc_drv.h **** * \param base
 511:Generated_Source\PSoC6\pdl\drivers/peripheral/ipc/cy_ipc_drv.h **** * This is a handle to the IPC interrupt. This handle can be calculated from the
 512:Generated_Source\PSoC6\pdl\drivers/peripheral/ipc/cy_ipc_drv.h **** * IPC interrupt number using \ref Cy_IPC_Drv_GetIntrBaseAddr.
 513:Generated_Source\PSoC6\pdl\drivers/peripheral/ipc/cy_ipc_drv.h **** *
 514:Generated_Source\PSoC6\pdl\drivers/peripheral/ipc/cy_ipc_drv.h **** * \return
 515:Generated_Source\PSoC6\pdl\drivers/peripheral/ipc/cy_ipc_drv.h **** *   The return value is encoded as follows
 516:Generated_Source\PSoC6\pdl\drivers/peripheral/ipc/cy_ipc_drv.h **** *   <table>
 517:Generated_Source\PSoC6\pdl\drivers/peripheral/ipc/cy_ipc_drv.h **** *   <tr><th>Interrupt sources   <th>Value
 518:Generated_Source\PSoC6\pdl\drivers/peripheral/ipc/cy_ipc_drv.h **** *   <tr><td>Ipc_PORTX_RELEASE   <td>Xth bit set
 519:Generated_Source\PSoC6\pdl\drivers/peripheral/ipc/cy_ipc_drv.h **** *   <tr><td>Ipc_PORTX_NOTIFY    <td>X+16th bit set
 520:Generated_Source\PSoC6\pdl\drivers/peripheral/ipc/cy_ipc_drv.h **** *   </table>
 521:Generated_Source\PSoC6\pdl\drivers/peripheral/ipc/cy_ipc_drv.h **** *
 522:Generated_Source\PSoC6\pdl\drivers/peripheral/ipc/cy_ipc_drv.h **** *******************************************************************************/
 523:Generated_Source\PSoC6\pdl\drivers/peripheral/ipc/cy_ipc_drv.h **** __STATIC_INLINE uint32_t Cy_IPC_Drv_GetInterruptStatus(IPC_INTR_STRUCT_Type const * base)
ARM GAS  C:\Users\kiwamu\AppData\Local\Temp\ccTROAwf.s 			page 31


 524:Generated_Source\PSoC6\pdl\drivers/peripheral/ipc/cy_ipc_drv.h **** {
 525:Generated_Source\PSoC6\pdl\drivers/peripheral/ipc/cy_ipc_drv.h ****     return (base->INTR);
 526:Generated_Source\PSoC6\pdl\drivers/peripheral/ipc/cy_ipc_drv.h **** }
 527:Generated_Source\PSoC6\pdl\drivers/peripheral/ipc/cy_ipc_drv.h **** 
 528:Generated_Source\PSoC6\pdl\drivers/peripheral/ipc/cy_ipc_drv.h **** /*******************************************************************************
 529:Generated_Source\PSoC6\pdl\drivers/peripheral/ipc/cy_ipc_drv.h **** * Function Name: Cy_IPC_Drv_SetInterrupt
 530:Generated_Source\PSoC6\pdl\drivers/peripheral/ipc/cy_ipc_drv.h **** ****************************************************************************//**
 531:Generated_Source\PSoC6\pdl\drivers/peripheral/ipc/cy_ipc_drv.h **** *
 532:Generated_Source\PSoC6\pdl\drivers/peripheral/ipc/cy_ipc_drv.h **** * This function is used to set the interrupt source. This function can be used
 533:Generated_Source\PSoC6\pdl\drivers/peripheral/ipc/cy_ipc_drv.h **** * to activate interrupts through software.
 534:Generated_Source\PSoC6\pdl\drivers/peripheral/ipc/cy_ipc_drv.h **** * \note That interrupt sources set using this interrupt would generate interrupts
 535:Generated_Source\PSoC6\pdl\drivers/peripheral/ipc/cy_ipc_drv.h **** * only if they are not masked.
 536:Generated_Source\PSoC6\pdl\drivers/peripheral/ipc/cy_ipc_drv.h **** *
 537:Generated_Source\PSoC6\pdl\drivers/peripheral/ipc/cy_ipc_drv.h **** * This function is internal and should not be called directly by user
 538:Generated_Source\PSoC6\pdl\drivers/peripheral/ipc/cy_ipc_drv.h **** * software.
 539:Generated_Source\PSoC6\pdl\drivers/peripheral/ipc/cy_ipc_drv.h **** *
 540:Generated_Source\PSoC6\pdl\drivers/peripheral/ipc/cy_ipc_drv.h **** * \param base
 541:Generated_Source\PSoC6\pdl\drivers/peripheral/ipc/cy_ipc_drv.h **** * This is a handle to the IPC interrupt. This handle can be calculated from the
 542:Generated_Source\PSoC6\pdl\drivers/peripheral/ipc/cy_ipc_drv.h **** * IPC interrupt number using \ref Cy_IPC_Drv_GetIntrBaseAddr.
 543:Generated_Source\PSoC6\pdl\drivers/peripheral/ipc/cy_ipc_drv.h **** *
 544:Generated_Source\PSoC6\pdl\drivers/peripheral/ipc/cy_ipc_drv.h **** * \param ipcReleaseMask
 545:Generated_Source\PSoC6\pdl\drivers/peripheral/ipc/cy_ipc_drv.h **** * An encoded list of all IPC channels that can trigger the interrupt on a
 546:Generated_Source\PSoC6\pdl\drivers/peripheral/ipc/cy_ipc_drv.h **** * release event.
 547:Generated_Source\PSoC6\pdl\drivers/peripheral/ipc/cy_ipc_drv.h **** *
 548:Generated_Source\PSoC6\pdl\drivers/peripheral/ipc/cy_ipc_drv.h **** * \param ipcNotifyMask
 549:Generated_Source\PSoC6\pdl\drivers/peripheral/ipc/cy_ipc_drv.h **** * An encoded list of all IPC channels that can trigger the interrupt on a
 550:Generated_Source\PSoC6\pdl\drivers/peripheral/ipc/cy_ipc_drv.h **** * notify event.
 551:Generated_Source\PSoC6\pdl\drivers/peripheral/ipc/cy_ipc_drv.h **** *
 552:Generated_Source\PSoC6\pdl\drivers/peripheral/ipc/cy_ipc_drv.h **** *******************************************************************************/
 553:Generated_Source\PSoC6\pdl\drivers/peripheral/ipc/cy_ipc_drv.h **** __STATIC_INLINE void  Cy_IPC_Drv_SetInterrupt(IPC_INTR_STRUCT_Type* base, uint32_t ipcReleaseMask, 
 554:Generated_Source\PSoC6\pdl\drivers/peripheral/ipc/cy_ipc_drv.h **** {
 555:Generated_Source\PSoC6\pdl\drivers/peripheral/ipc/cy_ipc_drv.h ****     CY_ASSERT_L1(0ul == (ipcNotifyMask  & ~(uint32_t)(IPC_STRUCT_NOTIFY_INTR_NOTIFY_Msk)));
 556:Generated_Source\PSoC6\pdl\drivers/peripheral/ipc/cy_ipc_drv.h ****     CY_ASSERT_L1(0ul == (ipcReleaseMask & ~(uint32_t)(IPC_STRUCT_RELEASE_INTR_RELEASE_Msk)));
 557:Generated_Source\PSoC6\pdl\drivers/peripheral/ipc/cy_ipc_drv.h ****     base->INTR_SET =  _VAL2FLD( IPC_INTR_STRUCT_INTR_NOTIFY,  ipcNotifyMask )  |
 558:Generated_Source\PSoC6\pdl\drivers/peripheral/ipc/cy_ipc_drv.h ****                       _VAL2FLD( IPC_INTR_STRUCT_INTR_RELEASE, ipcReleaseMask );
 559:Generated_Source\PSoC6\pdl\drivers/peripheral/ipc/cy_ipc_drv.h **** }
 560:Generated_Source\PSoC6\pdl\drivers/peripheral/ipc/cy_ipc_drv.h **** 
 561:Generated_Source\PSoC6\pdl\drivers/peripheral/ipc/cy_ipc_drv.h **** /*******************************************************************************
 562:Generated_Source\PSoC6\pdl\drivers/peripheral/ipc/cy_ipc_drv.h **** * Function Name: Cy_IPC_Drv_ClearInterrupt
 563:Generated_Source\PSoC6\pdl\drivers/peripheral/ipc/cy_ipc_drv.h **** ****************************************************************************//**
 564:Generated_Source\PSoC6\pdl\drivers/peripheral/ipc/cy_ipc_drv.h **** *
 565:Generated_Source\PSoC6\pdl\drivers/peripheral/ipc/cy_ipc_drv.h **** * This function is used to clear the interrupt source. Use this function to clear
 566:Generated_Source\PSoC6\pdl\drivers/peripheral/ipc/cy_ipc_drv.h **** * a pending interrupt source in the interrupt status.
 567:Generated_Source\PSoC6\pdl\drivers/peripheral/ipc/cy_ipc_drv.h **** *
 568:Generated_Source\PSoC6\pdl\drivers/peripheral/ipc/cy_ipc_drv.h **** * This function is internal and should not be called directly by user
 569:Generated_Source\PSoC6\pdl\drivers/peripheral/ipc/cy_ipc_drv.h **** * software.
 570:Generated_Source\PSoC6\pdl\drivers/peripheral/ipc/cy_ipc_drv.h **** *
 571:Generated_Source\PSoC6\pdl\drivers/peripheral/ipc/cy_ipc_drv.h **** * \param base
 572:Generated_Source\PSoC6\pdl\drivers/peripheral/ipc/cy_ipc_drv.h **** * This is a handle to the IPC interrupt. This handle can be calculated from the
 573:Generated_Source\PSoC6\pdl\drivers/peripheral/ipc/cy_ipc_drv.h **** * IPC interrupt number using \ref Cy_IPC_Drv_GetIntrBaseAddr.
 574:Generated_Source\PSoC6\pdl\drivers/peripheral/ipc/cy_ipc_drv.h **** *
 575:Generated_Source\PSoC6\pdl\drivers/peripheral/ipc/cy_ipc_drv.h **** * \param ipcReleaseMask
 576:Generated_Source\PSoC6\pdl\drivers/peripheral/ipc/cy_ipc_drv.h **** * An encoded list of all IPC channels that can trigger the interrupt on a
 577:Generated_Source\PSoC6\pdl\drivers/peripheral/ipc/cy_ipc_drv.h **** * release event.
 578:Generated_Source\PSoC6\pdl\drivers/peripheral/ipc/cy_ipc_drv.h **** *
 579:Generated_Source\PSoC6\pdl\drivers/peripheral/ipc/cy_ipc_drv.h **** * \param ipcNotifyMask
 580:Generated_Source\PSoC6\pdl\drivers/peripheral/ipc/cy_ipc_drv.h **** * An encoded list of all IPC channels that can trigger the interrupt on a
ARM GAS  C:\Users\kiwamu\AppData\Local\Temp\ccTROAwf.s 			page 32


 581:Generated_Source\PSoC6\pdl\drivers/peripheral/ipc/cy_ipc_drv.h **** * notify event.
 582:Generated_Source\PSoC6\pdl\drivers/peripheral/ipc/cy_ipc_drv.h **** *
 583:Generated_Source\PSoC6\pdl\drivers/peripheral/ipc/cy_ipc_drv.h **** *******************************************************************************/
 584:Generated_Source\PSoC6\pdl\drivers/peripheral/ipc/cy_ipc_drv.h **** __STATIC_INLINE void  Cy_IPC_Drv_ClearInterrupt(IPC_INTR_STRUCT_Type* base, uint32_t ipcReleaseMask
 585:Generated_Source\PSoC6\pdl\drivers/peripheral/ipc/cy_ipc_drv.h **** {
 586:Generated_Source\PSoC6\pdl\drivers/peripheral/ipc/cy_ipc_drv.h ****     CY_ASSERT_L1(0ul == (ipcNotifyMask  & ~(uint32_t)(IPC_STRUCT_NOTIFY_INTR_NOTIFY_Msk)));
 587:Generated_Source\PSoC6\pdl\drivers/peripheral/ipc/cy_ipc_drv.h ****     CY_ASSERT_L1(0ul == (ipcReleaseMask & ~(uint32_t)(IPC_STRUCT_RELEASE_INTR_RELEASE_Msk)));
 588:Generated_Source\PSoC6\pdl\drivers/peripheral/ipc/cy_ipc_drv.h ****     base->INTR =  _VAL2FLD(IPC_INTR_STRUCT_INTR_NOTIFY,  ipcNotifyMask) |
 589:Generated_Source\PSoC6\pdl\drivers/peripheral/ipc/cy_ipc_drv.h ****                   _VAL2FLD(IPC_INTR_STRUCT_INTR_RELEASE, ipcReleaseMask);
 590:Generated_Source\PSoC6\pdl\drivers/peripheral/ipc/cy_ipc_drv.h ****     (void)base->INTR;  /* Read the register to flush the cache */
 591:Generated_Source\PSoC6\pdl\drivers/peripheral/ipc/cy_ipc_drv.h **** }
 592:Generated_Source\PSoC6\pdl\drivers/peripheral/ipc/cy_ipc_drv.h **** 
 593:Generated_Source\PSoC6\pdl\drivers/peripheral/ipc/cy_ipc_drv.h **** /** \} group_ipc_functions */
 594:Generated_Source\PSoC6\pdl\drivers/peripheral/ipc/cy_ipc_drv.h **** 
 595:Generated_Source\PSoC6\pdl\drivers/peripheral/ipc/cy_ipc_drv.h **** /** \} group_ipc */
 596:Generated_Source\PSoC6\pdl\drivers/peripheral/ipc/cy_ipc_drv.h **** 
 597:Generated_Source\PSoC6\pdl\drivers/peripheral/ipc/cy_ipc_drv.h **** /*******************************************************************************
 598:Generated_Source\PSoC6\pdl\drivers/peripheral/ipc/cy_ipc_drv.h **** * Function Name: Cy_IPC_Drv_AcquireNotify
 599:Generated_Source\PSoC6\pdl\drivers/peripheral/ipc/cy_ipc_drv.h **** ****************************************************************************//**
 600:Generated_Source\PSoC6\pdl\drivers/peripheral/ipc/cy_ipc_drv.h **** *
 601:Generated_Source\PSoC6\pdl\drivers/peripheral/ipc/cy_ipc_drv.h **** * The function generates a notify event by IPC interrupt structures.
 602:Generated_Source\PSoC6\pdl\drivers/peripheral/ipc/cy_ipc_drv.h **** *
 603:Generated_Source\PSoC6\pdl\drivers/peripheral/ipc/cy_ipc_drv.h **** * This function is internal and should not be called directly by user
 604:Generated_Source\PSoC6\pdl\drivers/peripheral/ipc/cy_ipc_drv.h **** * software.
 605:Generated_Source\PSoC6\pdl\drivers/peripheral/ipc/cy_ipc_drv.h **** *
 606:Generated_Source\PSoC6\pdl\drivers/peripheral/ipc/cy_ipc_drv.h **** * \param base
 607:Generated_Source\PSoC6\pdl\drivers/peripheral/ipc/cy_ipc_drv.h **** * This parameter is a handle that represents the base address of the registers
 608:Generated_Source\PSoC6\pdl\drivers/peripheral/ipc/cy_ipc_drv.h **** * of the IPC channel.
 609:Generated_Source\PSoC6\pdl\drivers/peripheral/ipc/cy_ipc_drv.h **** * The parameter is generally returned from a call to the \ref
 610:Generated_Source\PSoC6\pdl\drivers/peripheral/ipc/cy_ipc_drv.h **** * Cy_IPC_Drv_GetIpcBaseAddress.
 611:Generated_Source\PSoC6\pdl\drivers/peripheral/ipc/cy_ipc_drv.h **** *
 612:Generated_Source\PSoC6\pdl\drivers/peripheral/ipc/cy_ipc_drv.h **** * \param notifyEventIntr
 613:Generated_Source\PSoC6\pdl\drivers/peripheral/ipc/cy_ipc_drv.h **** * Bit encoded list of IPC interrupt structures that are triggered
 614:Generated_Source\PSoC6\pdl\drivers/peripheral/ipc/cy_ipc_drv.h **** * by a notification. Bit number correspond to number of the IPC interrupt
 615:Generated_Source\PSoC6\pdl\drivers/peripheral/ipc/cy_ipc_drv.h **** * structure.
 616:Generated_Source\PSoC6\pdl\drivers/peripheral/ipc/cy_ipc_drv.h **** *
 617:Generated_Source\PSoC6\pdl\drivers/peripheral/ipc/cy_ipc_drv.h **** *******************************************************************************/
 618:Generated_Source\PSoC6\pdl\drivers/peripheral/ipc/cy_ipc_drv.h **** __STATIC_INLINE void  Cy_IPC_Drv_AcquireNotify (IPC_STRUCT_Type* base, uint32_t notifyEventIntr)
 619:Generated_Source\PSoC6\pdl\drivers/peripheral/ipc/cy_ipc_drv.h **** {
 620:Generated_Source\PSoC6\pdl\drivers/peripheral/ipc/cy_ipc_drv.h ****     CY_ASSERT_L1(0ul == (notifyEventIntr  & ~(uint32_t)(IPC_STRUCT_NOTIFY_INTR_NOTIFY_Msk)));
 621:Generated_Source\PSoC6\pdl\drivers/peripheral/ipc/cy_ipc_drv.h ****     base->NOTIFY = _VAL2FLD(IPC_STRUCT_NOTIFY_INTR_NOTIFY, notifyEventIntr);
 622:Generated_Source\PSoC6\pdl\drivers/peripheral/ipc/cy_ipc_drv.h **** }
 623:Generated_Source\PSoC6\pdl\drivers/peripheral/ipc/cy_ipc_drv.h **** 
 624:Generated_Source\PSoC6\pdl\drivers/peripheral/ipc/cy_ipc_drv.h **** /*******************************************************************************
 625:Generated_Source\PSoC6\pdl\drivers/peripheral/ipc/cy_ipc_drv.h **** * Function Name: Cy_IPC_Drv_ReleaseNotify
 626:Generated_Source\PSoC6\pdl\drivers/peripheral/ipc/cy_ipc_drv.h **** ****************************************************************************//**
 627:Generated_Source\PSoC6\pdl\drivers/peripheral/ipc/cy_ipc_drv.h **** *
 628:Generated_Source\PSoC6\pdl\drivers/peripheral/ipc/cy_ipc_drv.h **** * The function generates a notify event to an IPC interrupt structure.
 629:Generated_Source\PSoC6\pdl\drivers/peripheral/ipc/cy_ipc_drv.h **** *
 630:Generated_Source\PSoC6\pdl\drivers/peripheral/ipc/cy_ipc_drv.h **** * This function is internal and should not be called directly by user
 631:Generated_Source\PSoC6\pdl\drivers/peripheral/ipc/cy_ipc_drv.h **** * software.
 632:Generated_Source\PSoC6\pdl\drivers/peripheral/ipc/cy_ipc_drv.h **** *
 633:Generated_Source\PSoC6\pdl\drivers/peripheral/ipc/cy_ipc_drv.h **** * \param base
 634:Generated_Source\PSoC6\pdl\drivers/peripheral/ipc/cy_ipc_drv.h **** * This parameter is a handle that represents the base address of the registers
 635:Generated_Source\PSoC6\pdl\drivers/peripheral/ipc/cy_ipc_drv.h **** * of the IPC channel.
 636:Generated_Source\PSoC6\pdl\drivers/peripheral/ipc/cy_ipc_drv.h **** * The parameter is generally returned from a call to the \ref
 637:Generated_Source\PSoC6\pdl\drivers/peripheral/ipc/cy_ipc_drv.h **** * Cy_IPC_Drv_GetIpcBaseAddress.
ARM GAS  C:\Users\kiwamu\AppData\Local\Temp\ccTROAwf.s 			page 33


 638:Generated_Source\PSoC6\pdl\drivers/peripheral/ipc/cy_ipc_drv.h **** *
 639:Generated_Source\PSoC6\pdl\drivers/peripheral/ipc/cy_ipc_drv.h **** * \param notifyEventIntr
 640:Generated_Source\PSoC6\pdl\drivers/peripheral/ipc/cy_ipc_drv.h **** * Bit encoded list of IPC interrupt lines that are triggered by a notification.
 641:Generated_Source\PSoC6\pdl\drivers/peripheral/ipc/cy_ipc_drv.h **** *
 642:Generated_Source\PSoC6\pdl\drivers/peripheral/ipc/cy_ipc_drv.h **** *******************************************************************************/
 643:Generated_Source\PSoC6\pdl\drivers/peripheral/ipc/cy_ipc_drv.h **** __STATIC_INLINE void  Cy_IPC_Drv_ReleaseNotify (IPC_STRUCT_Type* base, uint32_t notifyEventIntr)
 644:Generated_Source\PSoC6\pdl\drivers/peripheral/ipc/cy_ipc_drv.h **** {
 645:Generated_Source\PSoC6\pdl\drivers/peripheral/ipc/cy_ipc_drv.h ****     CY_ASSERT_L1(0ul == (notifyEventIntr  & ~(uint32_t)(IPC_STRUCT_NOTIFY_INTR_NOTIFY_Msk)));
 646:Generated_Source\PSoC6\pdl\drivers/peripheral/ipc/cy_ipc_drv.h ****     base->RELEASE = _VAL2FLD(IPC_INTR_STRUCT_INTR_RELEASE, notifyEventIntr);
 647:Generated_Source\PSoC6\pdl\drivers/peripheral/ipc/cy_ipc_drv.h **** }
 648:Generated_Source\PSoC6\pdl\drivers/peripheral/ipc/cy_ipc_drv.h **** 
 649:Generated_Source\PSoC6\pdl\drivers/peripheral/ipc/cy_ipc_drv.h **** /*******************************************************************************
 650:Generated_Source\PSoC6\pdl\drivers/peripheral/ipc/cy_ipc_drv.h **** * Function Name: Cy_IPC_Drv_WriteDataValue
 651:Generated_Source\PSoC6\pdl\drivers/peripheral/ipc/cy_ipc_drv.h **** ****************************************************************************//**
 652:Generated_Source\PSoC6\pdl\drivers/peripheral/ipc/cy_ipc_drv.h **** *
 653:Generated_Source\PSoC6\pdl\drivers/peripheral/ipc/cy_ipc_drv.h **** * The function writes a value to the DATA register of the IPC channel.
 654:Generated_Source\PSoC6\pdl\drivers/peripheral/ipc/cy_ipc_drv.h **** *
 655:Generated_Source\PSoC6\pdl\drivers/peripheral/ipc/cy_ipc_drv.h **** * This function is internal and should not be called directly by user
 656:Generated_Source\PSoC6\pdl\drivers/peripheral/ipc/cy_ipc_drv.h **** * software.
 657:Generated_Source\PSoC6\pdl\drivers/peripheral/ipc/cy_ipc_drv.h **** *
 658:Generated_Source\PSoC6\pdl\drivers/peripheral/ipc/cy_ipc_drv.h **** * \param base
 659:Generated_Source\PSoC6\pdl\drivers/peripheral/ipc/cy_ipc_drv.h **** * This parameter is a handle that represents the base address of the registers
 660:Generated_Source\PSoC6\pdl\drivers/peripheral/ipc/cy_ipc_drv.h **** * of the IPC channel.
 661:Generated_Source\PSoC6\pdl\drivers/peripheral/ipc/cy_ipc_drv.h **** * The parameter is generally returned from a call to the \ref
 662:Generated_Source\PSoC6\pdl\drivers/peripheral/ipc/cy_ipc_drv.h **** * Cy_IPC_Drv_GetIpcBaseAddress.
 663:Generated_Source\PSoC6\pdl\drivers/peripheral/ipc/cy_ipc_drv.h **** *
 664:Generated_Source\PSoC6\pdl\drivers/peripheral/ipc/cy_ipc_drv.h **** * \param dataValue
 665:Generated_Source\PSoC6\pdl\drivers/peripheral/ipc/cy_ipc_drv.h **** * Value to be written.
 666:Generated_Source\PSoC6\pdl\drivers/peripheral/ipc/cy_ipc_drv.h **** *
 667:Generated_Source\PSoC6\pdl\drivers/peripheral/ipc/cy_ipc_drv.h **** *******************************************************************************/
 668:Generated_Source\PSoC6\pdl\drivers/peripheral/ipc/cy_ipc_drv.h **** __STATIC_INLINE void     Cy_IPC_Drv_WriteDataValue (IPC_STRUCT_Type* base, uint32_t dataValue)
 669:Generated_Source\PSoC6\pdl\drivers/peripheral/ipc/cy_ipc_drv.h **** {
 670:Generated_Source\PSoC6\pdl\drivers/peripheral/ipc/cy_ipc_drv.h ****       base->DATA = dataValue;
 671:Generated_Source\PSoC6\pdl\drivers/peripheral/ipc/cy_ipc_drv.h **** }
 672:Generated_Source\PSoC6\pdl\drivers/peripheral/ipc/cy_ipc_drv.h **** 
 673:Generated_Source\PSoC6\pdl\drivers/peripheral/ipc/cy_ipc_drv.h **** /*******************************************************************************
 674:Generated_Source\PSoC6\pdl\drivers/peripheral/ipc/cy_ipc_drv.h **** * Function Name: Cy_IPC_Drv_ReadDataValue
 675:Generated_Source\PSoC6\pdl\drivers/peripheral/ipc/cy_ipc_drv.h **** ****************************************************************************//**
 676:Generated_Source\PSoC6\pdl\drivers/peripheral/ipc/cy_ipc_drv.h **** *
 677:Generated_Source\PSoC6\pdl\drivers/peripheral/ipc/cy_ipc_drv.h **** * The function reads a value from the DATA register of the IPC channel.
 678:Generated_Source\PSoC6\pdl\drivers/peripheral/ipc/cy_ipc_drv.h **** *
 679:Generated_Source\PSoC6\pdl\drivers/peripheral/ipc/cy_ipc_drv.h **** * This function is internal and should not be called directly by user
 680:Generated_Source\PSoC6\pdl\drivers/peripheral/ipc/cy_ipc_drv.h **** * software.
 681:Generated_Source\PSoC6\pdl\drivers/peripheral/ipc/cy_ipc_drv.h **** *
 682:Generated_Source\PSoC6\pdl\drivers/peripheral/ipc/cy_ipc_drv.h **** * \param base
 683:Generated_Source\PSoC6\pdl\drivers/peripheral/ipc/cy_ipc_drv.h **** * This parameter is a handle that represents the base address of the registers
 684:Generated_Source\PSoC6\pdl\drivers/peripheral/ipc/cy_ipc_drv.h **** * of the IPC channel.
 685:Generated_Source\PSoC6\pdl\drivers/peripheral/ipc/cy_ipc_drv.h **** * The parameter is generally returned from a call to the \ref
 686:Generated_Source\PSoC6\pdl\drivers/peripheral/ipc/cy_ipc_drv.h **** * Cy_IPC_Drv_GetIpcBaseAddress.
 687:Generated_Source\PSoC6\pdl\drivers/peripheral/ipc/cy_ipc_drv.h **** *
 688:Generated_Source\PSoC6\pdl\drivers/peripheral/ipc/cy_ipc_drv.h **** * \return
 689:Generated_Source\PSoC6\pdl\drivers/peripheral/ipc/cy_ipc_drv.h **** * Value from DATA register.
 690:Generated_Source\PSoC6\pdl\drivers/peripheral/ipc/cy_ipc_drv.h **** *
 691:Generated_Source\PSoC6\pdl\drivers/peripheral/ipc/cy_ipc_drv.h **** *******************************************************************************/
 692:Generated_Source\PSoC6\pdl\drivers/peripheral/ipc/cy_ipc_drv.h **** #if defined (__ICCARM__)
 693:Generated_Source\PSoC6\pdl\drivers/peripheral/ipc/cy_ipc_drv.h ****     __ramfunc 
 694:Generated_Source\PSoC6\pdl\drivers/peripheral/ipc/cy_ipc_drv.h **** #else
ARM GAS  C:\Users\kiwamu\AppData\Local\Temp\ccTROAwf.s 			page 34


 695:Generated_Source\PSoC6\pdl\drivers/peripheral/ipc/cy_ipc_drv.h ****     CY_SECTION(".cy_ramfunc")
 696:Generated_Source\PSoC6\pdl\drivers/peripheral/ipc/cy_ipc_drv.h **** #endif
 697:Generated_Source\PSoC6\pdl\drivers/peripheral/ipc/cy_ipc_drv.h **** __STATIC_INLINE uint32_t Cy_IPC_Drv_ReadDataValue (IPC_STRUCT_Type const * base)
 698:Generated_Source\PSoC6\pdl\drivers/peripheral/ipc/cy_ipc_drv.h **** {
 699:Generated_Source\PSoC6\pdl\drivers/peripheral/ipc/cy_ipc_drv.h ****     return (base->DATA);
 700:Generated_Source\PSoC6\pdl\drivers/peripheral/ipc/cy_ipc_drv.h **** }
 701:Generated_Source\PSoC6\pdl\drivers/peripheral/ipc/cy_ipc_drv.h **** 
 702:Generated_Source\PSoC6\pdl\drivers/peripheral/ipc/cy_ipc_drv.h **** /*******************************************************************************
 703:Generated_Source\PSoC6\pdl\drivers/peripheral/ipc/cy_ipc_drv.h **** * Function Name: Cy_IPC_Drv_IsLockAcquired
 704:Generated_Source\PSoC6\pdl\drivers/peripheral/ipc/cy_ipc_drv.h **** ****************************************************************************//**
 705:Generated_Source\PSoC6\pdl\drivers/peripheral/ipc/cy_ipc_drv.h **** *
 706:Generated_Source\PSoC6\pdl\drivers/peripheral/ipc/cy_ipc_drv.h **** * The function is used to test the status of an IPC channel. The function
 707:Generated_Source\PSoC6\pdl\drivers/peripheral/ipc/cy_ipc_drv.h **** * tells the reader if the IPC channel was in the locked or released state.
 708:Generated_Source\PSoC6\pdl\drivers/peripheral/ipc/cy_ipc_drv.h **** *
 709:Generated_Source\PSoC6\pdl\drivers/peripheral/ipc/cy_ipc_drv.h **** * This function is internal and should not be called directly by user
 710:Generated_Source\PSoC6\pdl\drivers/peripheral/ipc/cy_ipc_drv.h **** * software.
 711:Generated_Source\PSoC6\pdl\drivers/peripheral/ipc/cy_ipc_drv.h **** *
 712:Generated_Source\PSoC6\pdl\drivers/peripheral/ipc/cy_ipc_drv.h **** * \param base
 713:Generated_Source\PSoC6\pdl\drivers/peripheral/ipc/cy_ipc_drv.h **** * This parameter is a handle that represents the base address of the registers
 714:Generated_Source\PSoC6\pdl\drivers/peripheral/ipc/cy_ipc_drv.h **** * of the IPC channel.
 715:Generated_Source\PSoC6\pdl\drivers/peripheral/ipc/cy_ipc_drv.h **** * The parameter is generally returned from a call to the \ref
 716:Generated_Source\PSoC6\pdl\drivers/peripheral/ipc/cy_ipc_drv.h **** * Cy_IPC_Drv_GetIpcBaseAddress.
 717:Generated_Source\PSoC6\pdl\drivers/peripheral/ipc/cy_ipc_drv.h **** *
 718:Generated_Source\PSoC6\pdl\drivers/peripheral/ipc/cy_ipc_drv.h **** * \return
 719:Generated_Source\PSoC6\pdl\drivers/peripheral/ipc/cy_ipc_drv.h **** *   Status for the function:
 720:Generated_Source\PSoC6\pdl\drivers/peripheral/ipc/cy_ipc_drv.h **** *   true:  The IPC channel is in the Locked state.
 721:Generated_Source\PSoC6\pdl\drivers/peripheral/ipc/cy_ipc_drv.h **** *   false: The IPC channel is in the Released state.
 722:Generated_Source\PSoC6\pdl\drivers/peripheral/ipc/cy_ipc_drv.h **** *
 723:Generated_Source\PSoC6\pdl\drivers/peripheral/ipc/cy_ipc_drv.h **** *******************************************************************************/
 724:Generated_Source\PSoC6\pdl\drivers/peripheral/ipc/cy_ipc_drv.h **** __STATIC_INLINE bool Cy_IPC_Drv_IsLockAcquired (IPC_STRUCT_Type const * base)
 725:Generated_Source\PSoC6\pdl\drivers/peripheral/ipc/cy_ipc_drv.h **** {
 726:Generated_Source\PSoC6\pdl\drivers/peripheral/ipc/cy_ipc_drv.h ****     return ( 0u != _FLD2VAL(IPC_STRUCT_ACQUIRE_SUCCESS, base->LOCK_STATUS) );
 345              		.loc 2 726 0
 346 0002 054B     		ldr	r3, .L37
 347 0004 1B69     		ldr	r3, [r3, #16]
 348              	.LVL43:
 349              	.LBE31:
 350              	.LBE30:
 840:Generated_Source\PSoC6\pdl\drivers\peripheral\flash/cy_flash.c ****     cy_en_flashdrv_status_t retVal = CY_FLASH_DRV_OPCODE_BUSY;
 841:Generated_Source\PSoC6\pdl\drivers\peripheral\flash/cy_flash.c **** 
 842:Generated_Source\PSoC6\pdl\drivers\peripheral\flash/cy_flash.c ****     /* Checks if the IPC structure is not locked */
 843:Generated_Source\PSoC6\pdl\drivers\peripheral\flash/cy_flash.c ****     if (Cy_IPC_Drv_IsLockAcquired(CY_FLASH_IPC_STRUCT) == false)
 351              		.loc 1 843 0
 352 0006 002B     		cmp	r3, #0
 353 0008 04DB     		blt	.L36
 844:Generated_Source\PSoC6\pdl\drivers\peripheral\flash/cy_flash.c ****     {
 845:Generated_Source\PSoC6\pdl\drivers\peripheral\flash/cy_flash.c ****         /* The result of SROM API calling is returned to the driver context */
 846:Generated_Source\PSoC6\pdl\drivers\peripheral\flash/cy_flash.c ****         retVal = Cy_Flash_ProcessOpcode(context.opcode);
 354              		.loc 1 846 0
 355 000a 044B     		ldr	r3, .L37+4
 356 000c 1868     		ldr	r0, [r3]
 357 000e FFF7FEFF 		bl	Cy_Flash_ProcessOpcode
 358              	.LVL44:
 359 0012 00E0     		b	.L35
 360              	.LVL45:
 361              	.L36:
 840:Generated_Source\PSoC6\pdl\drivers\peripheral\flash/cy_flash.c ****     cy_en_flashdrv_status_t retVal = CY_FLASH_DRV_OPCODE_BUSY;
ARM GAS  C:\Users\kiwamu\AppData\Local\Temp\ccTROAwf.s 			page 35


 362              		.loc 1 840 0
 363 0014 0248     		ldr	r0, .L37+8
 364              	.LVL46:
 365              	.L35:
 847:Generated_Source\PSoC6\pdl\drivers\peripheral\flash/cy_flash.c ****     }
 848:Generated_Source\PSoC6\pdl\drivers\peripheral\flash/cy_flash.c **** 
 849:Generated_Source\PSoC6\pdl\drivers\peripheral\flash/cy_flash.c ****     return (retVal);
 850:Generated_Source\PSoC6\pdl\drivers\peripheral\flash/cy_flash.c **** }
 366              		.loc 1 850 0
 367              		@ sp needed
 368 0016 10BD     		pop	{r4, pc}
 369              	.L38:
 370              		.align	2
 371              	.L37:
 372 0018 00002340 		.word	1076035584
 373 001c 00000000 		.word	.LANCHOR0
 374 0020 02005000 		.word	5242882
 375              		.cfi_endproc
 376              	.LFE155:
 377              		.size	Cy_Flash_OperationStatus, .-Cy_Flash_OperationStatus
 378              		.section	.cy_ramfunc,"ax",%progbits
 379              		.align	2
 380              		.code	16
 381              		.thumb_func
 382              		.type	Cy_Flash_RAMDelay, %function
 383              	Cy_Flash_RAMDelay:
 384              	.LFB156:
 851:Generated_Source\PSoC6\pdl\drivers\peripheral\flash/cy_flash.c **** 
 852:Generated_Source\PSoC6\pdl\drivers\peripheral\flash/cy_flash.c **** /*******************************************************************************
 853:Generated_Source\PSoC6\pdl\drivers\peripheral\flash/cy_flash.c **** * Function Name: Cy_Flash_RAMDelay
 854:Generated_Source\PSoC6\pdl\drivers\peripheral\flash/cy_flash.c **** ****************************************************************************//**
 855:Generated_Source\PSoC6\pdl\drivers\peripheral\flash/cy_flash.c **** *
 856:Generated_Source\PSoC6\pdl\drivers\peripheral\flash/cy_flash.c **** * Wait for a defined time in the SRAM memory region.
 857:Generated_Source\PSoC6\pdl\drivers\peripheral\flash/cy_flash.c **** *
 858:Generated_Source\PSoC6\pdl\drivers\peripheral\flash/cy_flash.c **** *******************************************************************************/
 859:Generated_Source\PSoC6\pdl\drivers\peripheral\flash/cy_flash.c **** #if defined (__ICCARM__)
 860:Generated_Source\PSoC6\pdl\drivers\peripheral\flash/cy_flash.c ****     __ramfunc 
 861:Generated_Source\PSoC6\pdl\drivers\peripheral\flash/cy_flash.c **** #else
 862:Generated_Source\PSoC6\pdl\drivers\peripheral\flash/cy_flash.c ****     CY_SECTION(".cy_ramfunc")
 863:Generated_Source\PSoC6\pdl\drivers\peripheral\flash/cy_flash.c **** #endif
 864:Generated_Source\PSoC6\pdl\drivers\peripheral\flash/cy_flash.c **** static void Cy_Flash_RAMDelay(uint32_t microseconds)
 865:Generated_Source\PSoC6\pdl\drivers\peripheral\flash/cy_flash.c **** {
 385              		.loc 1 865 0
 386              		.cfi_startproc
 387              		@ args = 0, pretend = 0, frame = 0
 388              		@ frame_needed = 0, uses_anonymous_args = 0
 389              		@ link register save eliminated.
 390              	.LVL47:
 866:Generated_Source\PSoC6\pdl\drivers\peripheral\flash/cy_flash.c ****     uint32_t ticks = microseconds * CY_FLASH_TICKS_FOR_1US;
 391              		.loc 1 866 0
 392 0000 C000     		lsls	r0, r0, #3
 393              	.LVL48:
 867:Generated_Source\PSoC6\pdl\drivers\peripheral\flash/cy_flash.c ****     if (ticks != CY_FLASH_NO_DELAY)
 394              		.loc 1 867 0
 395 0002 0FD0     		beq	.L39
 868:Generated_Source\PSoC6\pdl\drivers\peripheral\flash/cy_flash.c ****     {
 869:Generated_Source\PSoC6\pdl\drivers\peripheral\flash/cy_flash.c ****         CY_FLASH_TST_DDFT_SLOW_CTL_REG = CY_FLASH_TST_DDFT_SLOW_CTL_MASK;
ARM GAS  C:\Users\kiwamu\AppData\Local\Temp\ccTROAwf.s 			page 36


 396              		.loc 1 869 0
 397 0004 084A     		ldr	r2, .L42
 398 0006 094B     		ldr	r3, .L42+4
 399 0008 1A60     		str	r2, [r3]
 870:Generated_Source\PSoC6\pdl\drivers\peripheral\flash/cy_flash.c ****         CY_FLASH_CLK_OUTPUT_SLOW_REG   = CY_FLASH_CLK_OUTPUT_SLOW_MASK;
 400              		.loc 1 870 0
 401 000a 0622     		movs	r2, #6
 402 000c 084B     		ldr	r3, .L42+8
 403 000e 1A60     		str	r2, [r3]
 871:Generated_Source\PSoC6\pdl\drivers\peripheral\flash/cy_flash.c ****         CY_FLASH_TST_DDFT_FAST_CTL_REG = CY_FLASH_TST_DDFT_FAST_CTL_MASK;
 404              		.loc 1 871 0
 405 0010 3832     		adds	r2, r2, #56
 406 0012 084B     		ldr	r3, .L42+12
 407 0014 1A60     		str	r2, [r3]
 872:Generated_Source\PSoC6\pdl\drivers\peripheral\flash/cy_flash.c **** 
 873:Generated_Source\PSoC6\pdl\drivers\peripheral\flash/cy_flash.c ****         /* Load the down-counter */
 874:Generated_Source\PSoC6\pdl\drivers\peripheral\flash/cy_flash.c ****         CY_FLASH_CLK_CAL_CNT1_REG = ticks;
 408              		.loc 1 874 0
 409 0016 084B     		ldr	r3, .L42+16
 410 0018 1860     		str	r0, [r3]
 875:Generated_Source\PSoC6\pdl\drivers\peripheral\flash/cy_flash.c **** 
 876:Generated_Source\PSoC6\pdl\drivers\peripheral\flash/cy_flash.c ****         /* Make sure that the counter is started */
 877:Generated_Source\PSoC6\pdl\drivers\peripheral\flash/cy_flash.c ****         (void) CY_FLASH_CLK_CAL_CNT1_REG;
 411              		.loc 1 877 0
 412 001a 1B68     		ldr	r3, [r3]
 413              	.L41:
 878:Generated_Source\PSoC6\pdl\drivers\peripheral\flash/cy_flash.c **** 
 879:Generated_Source\PSoC6\pdl\drivers\peripheral\flash/cy_flash.c ****         while(0U == (CY_FLASH_CLK_CAL_CNT1_REG & CY_FLASH_CLK_CAL_CNT1_DONE))
 414              		.loc 1 879 0 discriminator 1
 415 001c 064B     		ldr	r3, .L42+16
 416 001e 1B68     		ldr	r3, [r3]
 417 0020 002B     		cmp	r3, #0
 418 0022 FBDA     		bge	.L41
 419              	.L39:
 880:Generated_Source\PSoC6\pdl\drivers\peripheral\flash/cy_flash.c ****         {
 881:Generated_Source\PSoC6\pdl\drivers\peripheral\flash/cy_flash.c ****             /* Wait until the counter stops counting */
 882:Generated_Source\PSoC6\pdl\drivers\peripheral\flash/cy_flash.c ****         }
 883:Generated_Source\PSoC6\pdl\drivers\peripheral\flash/cy_flash.c ****     }
 884:Generated_Source\PSoC6\pdl\drivers\peripheral\flash/cy_flash.c **** }
 420              		.loc 1 884 0
 421              		@ sp needed
 422 0024 7047     		bx	lr
 423              	.L43:
 424 0026 C046     		.align	2
 425              	.L42:
 426 0028 1E1F0040 		.word	1073749790
 427 002c 08012640 		.word	1076232456
 428 0030 18052640 		.word	1076233496
 429 0034 04012640 		.word	1076232452
 430 0038 1C052640 		.word	1076233500
 431              		.cfi_endproc
 432              	.LFE156:
 433              		.size	Cy_Flash_RAMDelay, .-Cy_Flash_RAMDelay
 434              		.section	.text.Cy_Flash_IsWriteComplete,"ax",%progbits
 435              		.align	2
 436              		.global	Cy_Flash_IsWriteComplete
 437              		.code	16
ARM GAS  C:\Users\kiwamu\AppData\Local\Temp\ccTROAwf.s 			page 37


 438              		.thumb_func
 439              		.type	Cy_Flash_IsWriteComplete, %function
 440              	Cy_Flash_IsWriteComplete:
 441              	.LFB145:
 398:Generated_Source\PSoC6\pdl\drivers\peripheral\flash/cy_flash.c ****     return (Cy_Flash_OperationStatus());
 442              		.loc 1 398 0
 443              		.cfi_startproc
 444              		@ args = 0, pretend = 0, frame = 0
 445              		@ frame_needed = 0, uses_anonymous_args = 0
 446 0000 10B5     		push	{r4, lr}
 447              		.cfi_def_cfa_offset 8
 448              		.cfi_offset 4, -8
 449              		.cfi_offset 14, -4
 399:Generated_Source\PSoC6\pdl\drivers\peripheral\flash/cy_flash.c **** }
 450              		.loc 1 399 0
 451 0002 FFF7FEFF 		bl	Cy_Flash_OperationStatus
 452              	.LVL49:
 400:Generated_Source\PSoC6\pdl\drivers\peripheral\flash/cy_flash.c **** 
 453              		.loc 1 400 0
 454              		@ sp needed
 455 0006 10BD     		pop	{r4, pc}
 456              		.cfi_endproc
 457              	.LFE145:
 458              		.size	Cy_Flash_IsWriteComplete, .-Cy_Flash_IsWriteComplete
 459              		.section	.cy_ramfunc
 460              		.align	2
 461              		.code	16
 462              		.thumb_func
 463              		.type	Cy_Flash_SendCmd, %function
 464              	Cy_Flash_SendCmd:
 465              	.LFB141:
 146:Generated_Source\PSoC6\pdl\drivers\peripheral\flash/cy_flash.c ****     uint32_t intr;
 466              		.loc 1 146 0
 467              		.cfi_startproc
 468              		@ args = 0, pretend = 0, frame = 0
 469              		@ frame_needed = 0, uses_anonymous_args = 0
 470              	.LVL50:
 471 003c 70B5     		push	{r4, r5, r6, lr}
 472              		.cfi_def_cfa_offset 16
 473              		.cfi_offset 4, -16
 474              		.cfi_offset 5, -12
 475              		.cfi_offset 6, -8
 476              		.cfi_offset 14, -4
 477 003e 0400     		movs	r4, r0
 478 0040 0D00     		movs	r5, r1
 479              	.LVL51:
 480              	.LBB32:
 481              	.LBB33:
 482              		.loc 2 726 0
 483 0042 214B     		ldr	r3, .L55
 484 0044 1B69     		ldr	r3, [r3, #16]
 485              	.LBE33:
 486              	.LBE32:
 150:Generated_Source\PSoC6\pdl\drivers\peripheral\flash/cy_flash.c ****     {
 487              		.loc 1 150 0
 488 0046 002B     		cmp	r3, #0
 489 0048 36DB     		blt	.L51
ARM GAS  C:\Users\kiwamu\AppData\Local\Temp\ccTROAwf.s 			page 38


 152:Generated_Source\PSoC6\pdl\drivers\peripheral\flash/cy_flash.c ****         {
 490              		.loc 1 152 0
 491 004a 0020     		movs	r0, #0
 492              	.LVL52:
 493 004c FFF7FEFF 		bl	Cy_IPC_Sema_Status
 494              	.LVL53:
 495 0050 1E4B     		ldr	r3, .L55+4
 496 0052 9842     		cmp	r0, r3
 497 0054 32D0     		beq	.L52
 154:Generated_Source\PSoC6\pdl\drivers\peripheral\flash/cy_flash.c ****             {
 498              		.loc 1 154 0
 499 0056 0023     		movs	r3, #0
 500 0058 1D4A     		ldr	r2, .L55+8
 501 005a 0021     		movs	r1, #0
 502 005c 0120     		movs	r0, #1
 503 005e FFF7FEFF 		bl	Cy_IPC_Pipe_SendMessage
 504              	.LVL54:
 505 0062 0028     		cmp	r0, #0
 506 0064 2CD1     		bne	.L53
 507              	.L47:
 157:Generated_Source\PSoC6\pdl\drivers\peripheral\flash/cy_flash.c ****                 {
 508              		.loc 1 157 0 discriminator 1
 509 0066 0020     		movs	r0, #0
 510 0068 FFF7FEFF 		bl	Cy_IPC_Sema_Status
 511              	.LVL55:
 512 006c 174B     		ldr	r3, .L55+4
 513 006e 9842     		cmp	r0, r3
 514 0070 F9D1     		bne	.L47
 161:Generated_Source\PSoC6\pdl\drivers\peripheral\flash/cy_flash.c **** 
 515              		.loc 1 161 0
 516 0072 FFF7FEFF 		bl	Cy_SysLib_EnterCriticalSection
 517              	.LVL56:
 518 0076 0600     		movs	r6, r0
 519              	.LVL57:
 520              	.LBB34:
 521              	.LBB35:
 727:Generated_Source\PSoC6\pdl\drivers/peripheral/ipc/cy_ipc_drv.h **** }
 728:Generated_Source\PSoC6\pdl\drivers/peripheral/ipc/cy_ipc_drv.h **** 
 729:Generated_Source\PSoC6\pdl\drivers/peripheral/ipc/cy_ipc_drv.h **** /*******************************************************************************
 730:Generated_Source\PSoC6\pdl\drivers/peripheral/ipc/cy_ipc_drv.h **** * Function Name: Cy_IPC_Drv_GetLockStatus
 731:Generated_Source\PSoC6\pdl\drivers/peripheral/ipc/cy_ipc_drv.h **** ****************************************************************************//**
 732:Generated_Source\PSoC6\pdl\drivers/peripheral/ipc/cy_ipc_drv.h **** *
 733:Generated_Source\PSoC6\pdl\drivers/peripheral/ipc/cy_ipc_drv.h **** * The function is used to get the status of an IPC channel.
 734:Generated_Source\PSoC6\pdl\drivers/peripheral/ipc/cy_ipc_drv.h **** *
 735:Generated_Source\PSoC6\pdl\drivers/peripheral/ipc/cy_ipc_drv.h **** * This function is internal and should not be called directly by user
 736:Generated_Source\PSoC6\pdl\drivers/peripheral/ipc/cy_ipc_drv.h **** * software.
 737:Generated_Source\PSoC6\pdl\drivers/peripheral/ipc/cy_ipc_drv.h **** *
 738:Generated_Source\PSoC6\pdl\drivers/peripheral/ipc/cy_ipc_drv.h **** * \param base
 739:Generated_Source\PSoC6\pdl\drivers/peripheral/ipc/cy_ipc_drv.h **** * This parameter is a handle that represents the base address of the registers
 740:Generated_Source\PSoC6\pdl\drivers/peripheral/ipc/cy_ipc_drv.h **** * of the IPC channel.
 741:Generated_Source\PSoC6\pdl\drivers/peripheral/ipc/cy_ipc_drv.h **** * The parameter is generally returned from a call to the \ref
 742:Generated_Source\PSoC6\pdl\drivers/peripheral/ipc/cy_ipc_drv.h **** * Cy_IPC_Drv_GetIpcBaseAddress.
 743:Generated_Source\PSoC6\pdl\drivers/peripheral/ipc/cy_ipc_drv.h **** *
 744:Generated_Source\PSoC6\pdl\drivers/peripheral/ipc/cy_ipc_drv.h **** * \return
 745:Generated_Source\PSoC6\pdl\drivers/peripheral/ipc/cy_ipc_drv.h **** * Value from LOCK_STATUS register.
 746:Generated_Source\PSoC6\pdl\drivers/peripheral/ipc/cy_ipc_drv.h **** *
 747:Generated_Source\PSoC6\pdl\drivers/peripheral/ipc/cy_ipc_drv.h **** *******************************************************************************/
ARM GAS  C:\Users\kiwamu\AppData\Local\Temp\ccTROAwf.s 			page 39


 748:Generated_Source\PSoC6\pdl\drivers/peripheral/ipc/cy_ipc_drv.h **** __STATIC_INLINE uint32_t Cy_IPC_Drv_GetLockStatus (IPC_STRUCT_Type const * base)
 749:Generated_Source\PSoC6\pdl\drivers/peripheral/ipc/cy_ipc_drv.h **** {
 750:Generated_Source\PSoC6\pdl\drivers/peripheral/ipc/cy_ipc_drv.h ****     return (base->LOCK_STATUS);
 751:Generated_Source\PSoC6\pdl\drivers/peripheral/ipc/cy_ipc_drv.h **** }
 752:Generated_Source\PSoC6\pdl\drivers/peripheral/ipc/cy_ipc_drv.h **** 
 753:Generated_Source\PSoC6\pdl\drivers/peripheral/ipc/cy_ipc_drv.h **** /*******************************************************************************
 754:Generated_Source\PSoC6\pdl\drivers/peripheral/ipc/cy_ipc_drv.h **** * Function Name: Cy_IPC_Drv_ExtractAcquireMask
 755:Generated_Source\PSoC6\pdl\drivers/peripheral/ipc/cy_ipc_drv.h **** ****************************************************************************//**
 756:Generated_Source\PSoC6\pdl\drivers/peripheral/ipc/cy_ipc_drv.h **** *
 757:Generated_Source\PSoC6\pdl\drivers/peripheral/ipc/cy_ipc_drv.h **** * The function extracts an Acquire mask part from full interrupt mask value.
 758:Generated_Source\PSoC6\pdl\drivers/peripheral/ipc/cy_ipc_drv.h **** *
 759:Generated_Source\PSoC6\pdl\drivers/peripheral/ipc/cy_ipc_drv.h **** * This function is internal and should not be called directly by user
 760:Generated_Source\PSoC6\pdl\drivers/peripheral/ipc/cy_ipc_drv.h **** * software.
 761:Generated_Source\PSoC6\pdl\drivers/peripheral/ipc/cy_ipc_drv.h **** *
 762:Generated_Source\PSoC6\pdl\drivers/peripheral/ipc/cy_ipc_drv.h **** * \param intMask
 763:Generated_Source\PSoC6\pdl\drivers/peripheral/ipc/cy_ipc_drv.h **** * Interrupt mask value to be processed.
 764:Generated_Source\PSoC6\pdl\drivers/peripheral/ipc/cy_ipc_drv.h **** *
 765:Generated_Source\PSoC6\pdl\drivers/peripheral/ipc/cy_ipc_drv.h **** * \return
 766:Generated_Source\PSoC6\pdl\drivers/peripheral/ipc/cy_ipc_drv.h **** * Acquire mask value.
 767:Generated_Source\PSoC6\pdl\drivers/peripheral/ipc/cy_ipc_drv.h **** *
 768:Generated_Source\PSoC6\pdl\drivers/peripheral/ipc/cy_ipc_drv.h **** *******************************************************************************/
 769:Generated_Source\PSoC6\pdl\drivers/peripheral/ipc/cy_ipc_drv.h **** __STATIC_INLINE uint32_t Cy_IPC_Drv_ExtractAcquireMask (uint32_t intMask)
 770:Generated_Source\PSoC6\pdl\drivers/peripheral/ipc/cy_ipc_drv.h **** {
 771:Generated_Source\PSoC6\pdl\drivers/peripheral/ipc/cy_ipc_drv.h ****     return _FLD2VAL(IPC_INTR_STRUCT_INTR_MASK_NOTIFY, intMask);
 772:Generated_Source\PSoC6\pdl\drivers/peripheral/ipc/cy_ipc_drv.h **** }
 773:Generated_Source\PSoC6\pdl\drivers/peripheral/ipc/cy_ipc_drv.h **** 
 774:Generated_Source\PSoC6\pdl\drivers/peripheral/ipc/cy_ipc_drv.h **** /*******************************************************************************
 775:Generated_Source\PSoC6\pdl\drivers/peripheral/ipc/cy_ipc_drv.h **** * Function Name: Cy_IPC_Drv_ExtractReleaseMask
 776:Generated_Source\PSoC6\pdl\drivers/peripheral/ipc/cy_ipc_drv.h **** ****************************************************************************//**
 777:Generated_Source\PSoC6\pdl\drivers/peripheral/ipc/cy_ipc_drv.h **** *
 778:Generated_Source\PSoC6\pdl\drivers/peripheral/ipc/cy_ipc_drv.h **** * The function extracts a Release mask part from full interrupt mask value.
 779:Generated_Source\PSoC6\pdl\drivers/peripheral/ipc/cy_ipc_drv.h **** *
 780:Generated_Source\PSoC6\pdl\drivers/peripheral/ipc/cy_ipc_drv.h **** * This function is internal and should not be called directly by user
 781:Generated_Source\PSoC6\pdl\drivers/peripheral/ipc/cy_ipc_drv.h **** * software.
 782:Generated_Source\PSoC6\pdl\drivers/peripheral/ipc/cy_ipc_drv.h **** *
 783:Generated_Source\PSoC6\pdl\drivers/peripheral/ipc/cy_ipc_drv.h **** * \param intMask
 784:Generated_Source\PSoC6\pdl\drivers/peripheral/ipc/cy_ipc_drv.h **** * Interrupt mask value to be processed.
 785:Generated_Source\PSoC6\pdl\drivers/peripheral/ipc/cy_ipc_drv.h **** *
 786:Generated_Source\PSoC6\pdl\drivers/peripheral/ipc/cy_ipc_drv.h **** * \return
 787:Generated_Source\PSoC6\pdl\drivers/peripheral/ipc/cy_ipc_drv.h **** * Release mask value.
 788:Generated_Source\PSoC6\pdl\drivers/peripheral/ipc/cy_ipc_drv.h **** *
 789:Generated_Source\PSoC6\pdl\drivers/peripheral/ipc/cy_ipc_drv.h **** *******************************************************************************/
 790:Generated_Source\PSoC6\pdl\drivers/peripheral/ipc/cy_ipc_drv.h **** __STATIC_INLINE uint32_t Cy_IPC_Drv_ExtractReleaseMask (uint32_t intMask)
 791:Generated_Source\PSoC6\pdl\drivers/peripheral/ipc/cy_ipc_drv.h **** {
 792:Generated_Source\PSoC6\pdl\drivers/peripheral/ipc/cy_ipc_drv.h ****     return _FLD2VAL(IPC_INTR_STRUCT_INTR_MASK_RELEASE, intMask);
 793:Generated_Source\PSoC6\pdl\drivers/peripheral/ipc/cy_ipc_drv.h **** }
 794:Generated_Source\PSoC6\pdl\drivers/peripheral/ipc/cy_ipc_drv.h **** 
 795:Generated_Source\PSoC6\pdl\drivers/peripheral/ipc/cy_ipc_drv.h **** /*******************************************************************************
 796:Generated_Source\PSoC6\pdl\drivers/peripheral/ipc/cy_ipc_drv.h **** * Function Name: Cy_IPC_Drv_SendMsgPtr
 797:Generated_Source\PSoC6\pdl\drivers/peripheral/ipc/cy_ipc_drv.h **** ****************************************************************************//**
 798:Generated_Source\PSoC6\pdl\drivers/peripheral/ipc/cy_ipc_drv.h **** *
 799:Generated_Source\PSoC6\pdl\drivers/peripheral/ipc/cy_ipc_drv.h **** * This function is used to send a message pointer through an IPC channel.
 800:Generated_Source\PSoC6\pdl\drivers/peripheral/ipc/cy_ipc_drv.h **** * The message structure may hold a generic pointer that may contain the address
 801:Generated_Source\PSoC6\pdl\drivers/peripheral/ipc/cy_ipc_drv.h **** * of any user data type or structure. This parameter could be a pointer to a 32-bit
 802:Generated_Source\PSoC6\pdl\drivers/peripheral/ipc/cy_ipc_drv.h **** * integer, an array, or even a data structure defined in the user code. This
 803:Generated_Source\PSoC6\pdl\drivers/peripheral/ipc/cy_ipc_drv.h **** * function acts as a transfer engine for sending the pointer. Any memory
 804:Generated_Source\PSoC6\pdl\drivers/peripheral/ipc/cy_ipc_drv.h **** * management of the pointer allocation and deallocation is up to the application
ARM GAS  C:\Users\kiwamu\AppData\Local\Temp\ccTROAwf.s 			page 40


 805:Generated_Source\PSoC6\pdl\drivers/peripheral/ipc/cy_ipc_drv.h **** * code.
 806:Generated_Source\PSoC6\pdl\drivers/peripheral/ipc/cy_ipc_drv.h **** * The function also has an associated notification field that will let the
 807:Generated_Source\PSoC6\pdl\drivers/peripheral/ipc/cy_ipc_drv.h **** * message notify one or multiple interrupts.
 808:Generated_Source\PSoC6\pdl\drivers/peripheral/ipc/cy_ipc_drv.h **** *
 809:Generated_Source\PSoC6\pdl\drivers/peripheral/ipc/cy_ipc_drv.h **** * This function is internal and should not be called directly by user software.
 810:Generated_Source\PSoC6\pdl\drivers/peripheral/ipc/cy_ipc_drv.h **** *
 811:Generated_Source\PSoC6\pdl\drivers/peripheral/ipc/cy_ipc_drv.h **** * \param base
 812:Generated_Source\PSoC6\pdl\drivers/peripheral/ipc/cy_ipc_drv.h **** * This parameter is a handle that represents the base address of the registers
 813:Generated_Source\PSoC6\pdl\drivers/peripheral/ipc/cy_ipc_drv.h **** * of the IPC channel.
 814:Generated_Source\PSoC6\pdl\drivers/peripheral/ipc/cy_ipc_drv.h **** * The parameter is generally returned from a call to the \ref
 815:Generated_Source\PSoC6\pdl\drivers/peripheral/ipc/cy_ipc_drv.h **** * Cy_IPC_Drv_GetIpcBaseAddress.
 816:Generated_Source\PSoC6\pdl\drivers/peripheral/ipc/cy_ipc_drv.h **** *
 817:Generated_Source\PSoC6\pdl\drivers/peripheral/ipc/cy_ipc_drv.h **** * \param notifyEventIntr
 818:Generated_Source\PSoC6\pdl\drivers/peripheral/ipc/cy_ipc_drv.h **** * Bit encoded list of IPC interrupt lines that are triggered during the release
 819:Generated_Source\PSoC6\pdl\drivers/peripheral/ipc/cy_ipc_drv.h **** * action.
 820:Generated_Source\PSoC6\pdl\drivers/peripheral/ipc/cy_ipc_drv.h **** *
 821:Generated_Source\PSoC6\pdl\drivers/peripheral/ipc/cy_ipc_drv.h **** * \param msgPtr
 822:Generated_Source\PSoC6\pdl\drivers/peripheral/ipc/cy_ipc_drv.h **** * The message pointer that is being sent over the IPC channel.
 823:Generated_Source\PSoC6\pdl\drivers/peripheral/ipc/cy_ipc_drv.h **** *
 824:Generated_Source\PSoC6\pdl\drivers/peripheral/ipc/cy_ipc_drv.h **** * \return   Status of the operation:
 825:Generated_Source\PSoC6\pdl\drivers/peripheral/ipc/cy_ipc_drv.h **** *   \retval CY_IPC_DRV_SUCCESS: The send operation was successful.
 826:Generated_Source\PSoC6\pdl\drivers/peripheral/ipc/cy_ipc_drv.h **** *   \retval CY_IPC_DRV_ERROR:   The IPC channel is unavailable because
 827:Generated_Source\PSoC6\pdl\drivers/peripheral/ipc/cy_ipc_drv.h **** *                               it is already locked.
 828:Generated_Source\PSoC6\pdl\drivers/peripheral/ipc/cy_ipc_drv.h **** *
 829:Generated_Source\PSoC6\pdl\drivers/peripheral/ipc/cy_ipc_drv.h **** *******************************************************************************/
 830:Generated_Source\PSoC6\pdl\drivers/peripheral/ipc/cy_ipc_drv.h **** __STATIC_INLINE cy_en_ipcdrv_status_t  Cy_IPC_Drv_SendMsgPtr(IPC_STRUCT_Type* base, uint32_t notify
 831:Generated_Source\PSoC6\pdl\drivers/peripheral/ipc/cy_ipc_drv.h **** {
 832:Generated_Source\PSoC6\pdl\drivers/peripheral/ipc/cy_ipc_drv.h ****     CY_ASSERT_L1(NULL != msgPtr);
 833:Generated_Source\PSoC6\pdl\drivers/peripheral/ipc/cy_ipc_drv.h ****     return Cy_IPC_Drv_SendMsgWord(base, notifyEventIntr, (uint32_t)msgPtr);
 522              		.loc 2 833 0
 523 0078 164A     		ldr	r2, .L55+12
 524 007a 0121     		movs	r1, #1
 525 007c 1648     		ldr	r0, .L55+16
 526              	.LVL58:
 527 007e FFF7FEFF 		bl	Cy_IPC_Drv_SendMsgWord
 528              	.LVL59:
 529              	.LBE35:
 530              	.LBE34:
 164:Generated_Source\PSoC6\pdl\drivers\peripheral\flash/cy_flash.c ****                 {
 531              		.loc 1 164 0
 532 0082 0028     		cmp	r0, #0
 533 0084 0DD1     		bne	.L54
 166:Generated_Source\PSoC6\pdl\drivers\peripheral\flash/cy_flash.c ****                     {
 534              		.loc 1 166 0
 535 0086 002C     		cmp	r4, #0
 536 0088 04D1     		bne	.L49
 168:Generated_Source\PSoC6\pdl\drivers\peripheral\flash/cy_flash.c **** 
 537              		.loc 1 168 0
 538 008a 2800     		movs	r0, r5
 539 008c FFF7B8FF 		bl	Cy_Flash_RAMDelay
 540              	.LVL60:
 171:Generated_Source\PSoC6\pdl\drivers\peripheral\flash/cy_flash.c ****                     }
 541              		.loc 1 171 0
 542 0090 124C     		ldr	r4, .L55+20
 543              	.LVL61:
 544 0092 07E0     		b	.L50
 545              	.LVL62:
ARM GAS  C:\Users\kiwamu\AppData\Local\Temp\ccTROAwf.s 			page 41


 546              	.L49:
 178:Generated_Source\PSoC6\pdl\drivers\peripheral\flash/cy_flash.c ****                         }
 547              		.loc 1 178 0 discriminator 1
 548 0094 FFF7FEFF 		bl	Cy_Flash_IsWriteComplete
 549              	.LVL63:
 550 0098 0400     		movs	r4, r0
 551              	.LVL64:
 180:Generated_Source\PSoC6\pdl\drivers\peripheral\flash/cy_flash.c ****                     }
 552              		.loc 1 180 0 discriminator 1
 553 009a 114B     		ldr	r3, .L55+24
 554 009c 9842     		cmp	r0, r3
 555 009e F9D0     		beq	.L49
 556 00a0 00E0     		b	.L50
 557              	.LVL65:
 558              	.L54:
 186:Generated_Source\PSoC6\pdl\drivers\peripheral\flash/cy_flash.c ****                 }
 559              		.loc 1 186 0
 560 00a2 104C     		ldr	r4, .L55+28
 561              	.LVL66:
 562              	.L50:
 189:Generated_Source\PSoC6\pdl\drivers\peripheral\flash/cy_flash.c ****                 {
 563              		.loc 1 189 0 discriminator 1
 564 00a4 0021     		movs	r1, #0
 565 00a6 0020     		movs	r0, #0
 566 00a8 FFF7FEFF 		bl	Cy_IPC_Sema_Clear
 567              	.LVL67:
 568 00ac 0028     		cmp	r0, #0
 569 00ae F9D1     		bne	.L50
 193:Generated_Source\PSoC6\pdl\drivers\peripheral\flash/cy_flash.c ****             }
 570              		.loc 1 193 0
 571 00b0 3000     		movs	r0, r6
 572 00b2 FFF7FEFF 		bl	Cy_SysLib_ExitCriticalSection
 573              	.LVL68:
 574 00b6 04E0     		b	.L46
 575              	.LVL69:
 576              	.L51:
 148:Generated_Source\PSoC6\pdl\drivers\peripheral\flash/cy_flash.c **** 
 577              		.loc 1 148 0
 578 00b8 0A4C     		ldr	r4, .L55+28
 579 00ba 02E0     		b	.L46
 580              	.LVL70:
 581              	.L52:
 582 00bc 094C     		ldr	r4, .L55+28
 583              	.LVL71:
 584 00be 00E0     		b	.L46
 585              	.LVL72:
 586              	.L53:
 587 00c0 084C     		ldr	r4, .L55+28
 588              	.LVL73:
 589              	.L46:
 199:Generated_Source\PSoC6\pdl\drivers\peripheral\flash/cy_flash.c **** 
 590              		.loc 1 199 0
 591 00c2 2000     		movs	r0, r4
 592              		@ sp needed
 593              	.LVL74:
 594              	.LVL75:
 595 00c4 70BD     		pop	{r4, r5, r6, pc}
ARM GAS  C:\Users\kiwamu\AppData\Local\Temp\ccTROAwf.s 			page 42


 596              	.L56:
 597 00c6 C046     		.align	2
 598              	.L55:
 599 00c8 80002340 		.word	1076035712
 600 00cc 01018800 		.word	8913153
 601 00d0 00000000 		.word	.LANCHOR1
 602 00d4 00000000 		.word	.LANCHOR0
 603 00d8 00002340 		.word	1076035584
 604 00dc 01005000 		.word	5242881
 605 00e0 02005000 		.word	5242882
 606 00e4 05005200 		.word	5373957
 607              		.cfi_endproc
 608              	.LFE141:
 609              		.size	Cy_Flash_SendCmd, .-Cy_Flash_SendCmd
 610              		.section	.text.Cy_Flash_EraseRow,"ax",%progbits
 611              		.align	2
 612              		.global	Cy_Flash_EraseRow
 613              		.code	16
 614              		.thumb_func
 615              		.type	Cy_Flash_EraseRow, %function
 616              	Cy_Flash_EraseRow:
 617              	.LFB142:
 234:Generated_Source\PSoC6\pdl\drivers\peripheral\flash/cy_flash.c ****     cy_en_flashdrv_status_t result;
 618              		.loc 1 234 0
 619              		.cfi_startproc
 620              		@ args = 0, pretend = 0, frame = 0
 621              		@ frame_needed = 0, uses_anonymous_args = 0
 622              	.LVL76:
 623 0000 10B5     		push	{r4, lr}
 624              		.cfi_def_cfa_offset 8
 625              		.cfi_offset 4, -8
 626              		.cfi_offset 14, -4
 627 0002 0400     		movs	r4, r0
 238:Generated_Source\PSoC6\pdl\drivers\peripheral\flash/cy_flash.c ****     {
 628              		.loc 1 238 0
 629 0004 FFF7FEFF 		bl	Cy_Flash_BoundsCheck
 630              	.LVL77:
 631 0008 0028     		cmp	r0, #0
 632 000a 0CD0     		beq	.L59
 240:Generated_Source\PSoC6\pdl\drivers\peripheral\flash/cy_flash.c ****         context.arg1 = rowAddr;
 633              		.loc 1 240 0
 634 000c 074B     		ldr	r3, .L60
 635 000e 084A     		ldr	r2, .L60+4
 636 0010 1A60     		str	r2, [r3]
 241:Generated_Source\PSoC6\pdl\drivers\peripheral\flash/cy_flash.c ****         context.arg2 = 0UL;
 637              		.loc 1 241 0
 638 0012 5C60     		str	r4, [r3, #4]
 242:Generated_Source\PSoC6\pdl\drivers\peripheral\flash/cy_flash.c ****         context.arg3 = 0UL;
 639              		.loc 1 242 0
 640 0014 0022     		movs	r2, #0
 641 0016 9A60     		str	r2, [r3, #8]
 243:Generated_Source\PSoC6\pdl\drivers\peripheral\flash/cy_flash.c **** 
 642              		.loc 1 243 0
 643 0018 DA60     		str	r2, [r3, #12]
 246:Generated_Source\PSoC6\pdl\drivers\peripheral\flash/cy_flash.c **** #else
 644              		.loc 1 246 0
 645 001a 0021     		movs	r1, #0
ARM GAS  C:\Users\kiwamu\AppData\Local\Temp\ccTROAwf.s 			page 43


 646 001c 8020     		movs	r0, #128
 647 001e 4000     		lsls	r0, r0, #1
 648 0020 FFF7FEFF 		bl	Cy_Flash_SendCmd
 649              	.LVL78:
 650 0024 00E0     		b	.L58
 651              	.LVL79:
 652              	.L59:
 257:Generated_Source\PSoC6\pdl\drivers\peripheral\flash/cy_flash.c ****     }
 653              		.loc 1 257 0
 654 0026 0348     		ldr	r0, .L60+8
 655              	.L58:
 656              	.LVL80:
 261:Generated_Source\PSoC6\pdl\drivers\peripheral\flash/cy_flash.c **** 
 657              		.loc 1 261 0
 658              		@ sp needed
 659              	.LVL81:
 660 0028 10BD     		pop	{r4, pc}
 661              	.L61:
 662 002a C046     		.align	2
 663              	.L60:
 664 002c 00000000 		.word	.LANCHOR0
 665 0030 0001001C 		.word	469762304
 666 0034 06005200 		.word	5373958
 667              		.cfi_endproc
 668              	.LFE142:
 669              		.size	Cy_Flash_EraseRow, .-Cy_Flash_EraseRow
 670              		.section	.text.Cy_Flash_WriteRow,"ax",%progbits
 671              		.align	2
 672              		.global	Cy_Flash_WriteRow
 673              		.code	16
 674              		.thumb_func
 675              		.type	Cy_Flash_WriteRow, %function
 676              	Cy_Flash_WriteRow:
 677              	.LFB143:
 303:Generated_Source\PSoC6\pdl\drivers\peripheral\flash/cy_flash.c ****     cy_en_flashdrv_status_t result;
 678              		.loc 1 303 0
 679              		.cfi_startproc
 680              		@ args = 0, pretend = 0, frame = 0
 681              		@ frame_needed = 0, uses_anonymous_args = 0
 682              	.LVL82:
 683 0000 10B5     		push	{r4, lr}
 684              		.cfi_def_cfa_offset 8
 685              		.cfi_offset 4, -8
 686              		.cfi_offset 14, -4
 308:Generated_Source\PSoC6\pdl\drivers\peripheral\flash/cy_flash.c ****     {
 687              		.loc 1 308 0
 688 0002 8022     		movs	r2, #128
 689 0004 5200     		lsls	r2, r2, #1
 690 0006 FFF7FEFF 		bl	Cy_Flash_PrepareContext
 691              	.LVL83:
 692 000a 054B     		ldr	r3, .L65
 693 000c 9842     		cmp	r0, r3
 694 000e 05D0     		beq	.L64
 310:Generated_Source\PSoC6\pdl\drivers\peripheral\flash/cy_flash.c ****     }
 695              		.loc 1 310 0
 696 0010 0021     		movs	r1, #0
 697 0012 8020     		movs	r0, #128
ARM GAS  C:\Users\kiwamu\AppData\Local\Temp\ccTROAwf.s 			page 44


 698 0014 4000     		lsls	r0, r0, #1
 699 0016 FFF7FEFF 		bl	Cy_Flash_SendCmd
 700              	.LVL84:
 701 001a 00E0     		b	.L63
 702              	.LVL85:
 703              	.L64:
 314:Generated_Source\PSoC6\pdl\drivers\peripheral\flash/cy_flash.c ****     }
 704              		.loc 1 314 0
 705 001c 0048     		ldr	r0, .L65
 706              	.L63:
 707              	.LVL86:
 333:Generated_Source\PSoC6\pdl\drivers\peripheral\flash/cy_flash.c **** 
 708              		.loc 1 333 0
 709              		@ sp needed
 710 001e 10BD     		pop	{r4, pc}
 711              	.L66:
 712              		.align	2
 713              	.L65:
 714 0020 06005200 		.word	5373958
 715              		.cfi_endproc
 716              	.LFE143:
 717              		.size	Cy_Flash_WriteRow, .-Cy_Flash_WriteRow
 718              		.global	__aeabi_uidiv
 719              		.section	.text.Cy_Flash_StartWrite,"ax",%progbits
 720              		.align	2
 721              		.global	Cy_Flash_StartWrite
 722              		.code	16
 723              		.thumb_func
 724              		.type	Cy_Flash_StartWrite, %function
 725              	Cy_Flash_StartWrite:
 726              	.LFB144:
 370:Generated_Source\PSoC6\pdl\drivers\peripheral\flash/cy_flash.c ****     cy_en_flashdrv_status_t result;
 727              		.loc 1 370 0
 728              		.cfi_startproc
 729              		@ args = 0, pretend = 0, frame = 0
 730              		@ frame_needed = 0, uses_anonymous_args = 0
 731              	.LVL87:
 732 0000 10B5     		push	{r4, lr}
 733              		.cfi_def_cfa_offset 8
 734              		.cfi_offset 4, -8
 735              		.cfi_offset 14, -4
 374:Generated_Source\PSoC6\pdl\drivers\peripheral\flash/cy_flash.c ****     {
 736              		.loc 1 374 0
 737 0002 0022     		movs	r2, #0
 738 0004 FFF7FEFF 		bl	Cy_Flash_PrepareContext
 739              	.LVL88:
 740 0008 104B     		ldr	r3, .L70
 741 000a 9842     		cmp	r0, r3
 742 000c 1BD0     		beq	.L69
 743              	.LBB36:
 744              	.LBB37:
 745              		.file 3 "Generated_Source\\PSoC6\\pdl\\drivers/peripheral/sysclk/cy_sysclk.h"
   1:Generated_Source\PSoC6\pdl\drivers/peripheral/sysclk/cy_sysclk.h **** /***************************************************************************//**
   2:Generated_Source\PSoC6\pdl\drivers/peripheral/sysclk/cy_sysclk.h **** * \file cy_sysclk.h
   3:Generated_Source\PSoC6\pdl\drivers/peripheral/sysclk/cy_sysclk.h **** * \version 1.10
   4:Generated_Source\PSoC6\pdl\drivers/peripheral/sysclk/cy_sysclk.h **** *
   5:Generated_Source\PSoC6\pdl\drivers/peripheral/sysclk/cy_sysclk.h **** * Provides an API declaration of the sysclk driver.
ARM GAS  C:\Users\kiwamu\AppData\Local\Temp\ccTROAwf.s 			page 45


   6:Generated_Source\PSoC6\pdl\drivers/peripheral/sysclk/cy_sysclk.h **** *
   7:Generated_Source\PSoC6\pdl\drivers/peripheral/sysclk/cy_sysclk.h **** ********************************************************************************
   8:Generated_Source\PSoC6\pdl\drivers/peripheral/sysclk/cy_sysclk.h **** * \copyright
   9:Generated_Source\PSoC6\pdl\drivers/peripheral/sysclk/cy_sysclk.h **** * Copyright 2016-2017, Cypress Semiconductor Corporation. All rights reserved.
  10:Generated_Source\PSoC6\pdl\drivers/peripheral/sysclk/cy_sysclk.h **** * You may use this file only in accordance with the license, terms, conditions,
  11:Generated_Source\PSoC6\pdl\drivers/peripheral/sysclk/cy_sysclk.h **** * disclaimers, and limitations in the end user license agreement accompanying
  12:Generated_Source\PSoC6\pdl\drivers/peripheral/sysclk/cy_sysclk.h **** * the software package with which this file was provided.
  13:Generated_Source\PSoC6\pdl\drivers/peripheral/sysclk/cy_sysclk.h **** *******************************************************************************/
  14:Generated_Source\PSoC6\pdl\drivers/peripheral/sysclk/cy_sysclk.h **** 
  15:Generated_Source\PSoC6\pdl\drivers/peripheral/sysclk/cy_sysclk.h **** /**
  16:Generated_Source\PSoC6\pdl\drivers/peripheral/sysclk/cy_sysclk.h **** * \defgroup group_sysclk System Clock (SysClk)
  17:Generated_Source\PSoC6\pdl\drivers/peripheral/sysclk/cy_sysclk.h **** * \{
  18:Generated_Source\PSoC6\pdl\drivers/peripheral/sysclk/cy_sysclk.h **** * The System Clock (SysClk) driver contains the API for configuring system and
  19:Generated_Source\PSoC6\pdl\drivers/peripheral/sysclk/cy_sysclk.h **** * peripheral clocks. Firmware uses the API to configure , enable, or disable
  20:Generated_Source\PSoC6\pdl\drivers/peripheral/sysclk/cy_sysclk.h **** * a clock.
  21:Generated_Source\PSoC6\pdl\drivers/peripheral/sysclk/cy_sysclk.h **** * 
  22:Generated_Source\PSoC6\pdl\drivers/peripheral/sysclk/cy_sysclk.h **** * The PSoC 6 clock system includes a variety of resources that can vary per
  23:Generated_Source\PSoC6\pdl\drivers/peripheral/sysclk/cy_sysclk.h **** * device, including:
  24:Generated_Source\PSoC6\pdl\drivers/peripheral/sysclk/cy_sysclk.h **** * - Internal clock sources such as internal oscillators
  25:Generated_Source\PSoC6\pdl\drivers/peripheral/sysclk/cy_sysclk.h **** * - External clock sources such as crystal oscillators or a signal on an I/O pin
  26:Generated_Source\PSoC6\pdl\drivers/peripheral/sysclk/cy_sysclk.h **** * - Generated clocks such as an FLL, a PLL, and peripheral clocks
  27:Generated_Source\PSoC6\pdl\drivers/peripheral/sysclk/cy_sysclk.h **** *
  28:Generated_Source\PSoC6\pdl\drivers/peripheral/sysclk/cy_sysclk.h **** * Consult the Technical Reference Manual for your device for details of the 
  29:Generated_Source\PSoC6\pdl\drivers/peripheral/sysclk/cy_sysclk.h **** * clock system.
  30:Generated_Source\PSoC6\pdl\drivers/peripheral/sysclk/cy_sysclk.h **** *
  31:Generated_Source\PSoC6\pdl\drivers/peripheral/sysclk/cy_sysclk.h **** * The PDL defines clock system capabilities in:\n
  32:Generated_Source\PSoC6\pdl\drivers/peripheral/sysclk/cy_sysclk.h **** * devices\<family\>/<series\>/include\<series\>_config.h. For example\n
  33:Generated_Source\PSoC6\pdl\drivers/peripheral/sysclk/cy_sysclk.h **** * devices/psoc6/psoc63/include/psoc63_config.h. User-configurable clock speeds 
  34:Generated_Source\PSoC6\pdl\drivers/peripheral/sysclk/cy_sysclk.h **** * are defined in the file system_<series>.h.
  35:Generated_Source\PSoC6\pdl\drivers/peripheral/sysclk/cy_sysclk.h **** *
  36:Generated_Source\PSoC6\pdl\drivers/peripheral/sysclk/cy_sysclk.h **** * This diagram represents the PSoC 63 series clock tree. The actual tree
  37:Generated_Source\PSoC6\pdl\drivers/peripheral/sysclk/cy_sysclk.h **** * may vary based on series.
  38:Generated_Source\PSoC6\pdl\drivers/peripheral/sysclk/cy_sysclk.h **** * ![](sysclk_tree.png)
  39:Generated_Source\PSoC6\pdl\drivers/peripheral/sysclk/cy_sysclk.h **** *
  40:Generated_Source\PSoC6\pdl\drivers/peripheral/sysclk/cy_sysclk.h **** * In addition to the clocks shown on the diagram, this driver also supports
  41:Generated_Source\PSoC6\pdl\drivers/peripheral/sysclk/cy_sysclk.h **** * multiple peripheral clocks, as well as the fast clock, slow clock, backup
  42:Generated_Source\PSoC6\pdl\drivers/peripheral/sysclk/cy_sysclk.h **** * domain clock, timer clock, and pump clock. There are also functions for 
  43:Generated_Source\PSoC6\pdl\drivers/peripheral/sysclk/cy_sysclk.h **** * clock measurement and trimming.
  44:Generated_Source\PSoC6\pdl\drivers/peripheral/sysclk/cy_sysclk.h **** *
  45:Generated_Source\PSoC6\pdl\drivers/peripheral/sysclk/cy_sysclk.h **** * The API for any given clock contains the functions to manage that clock. These
  46:Generated_Source\PSoC6\pdl\drivers/peripheral/sysclk/cy_sysclk.h **** * functions may include:
  47:Generated_Source\PSoC6\pdl\drivers/peripheral/sysclk/cy_sysclk.h **** * - Enable or Disable
  48:Generated_Source\PSoC6\pdl\drivers/peripheral/sysclk/cy_sysclk.h **** * - Get or Set Source
  49:Generated_Source\PSoC6\pdl\drivers/peripheral/sysclk/cy_sysclk.h **** * - Get or Set Divider
  50:Generated_Source\PSoC6\pdl\drivers/peripheral/sysclk/cy_sysclk.h **** * - Configure
  51:Generated_Source\PSoC6\pdl\drivers/peripheral/sysclk/cy_sysclk.h **** *
  52:Generated_Source\PSoC6\pdl\drivers/peripheral/sysclk/cy_sysclk.h **** * In the API reference for this driver, most clocks have
  53:Generated_Source\PSoC6\pdl\drivers/peripheral/sysclk/cy_sysclk.h **** * a dedicated section, so the information to manage that clock is in one
  54:Generated_Source\PSoC6\pdl\drivers/peripheral/sysclk/cy_sysclk.h **** * place. Use the left navigation menu to locate the desired information.
  55:Generated_Source\PSoC6\pdl\drivers/peripheral/sysclk/cy_sysclk.h **** *
  56:Generated_Source\PSoC6\pdl\drivers/peripheral/sysclk/cy_sysclk.h **** * \section group_sysclk_configuration Configuration Considerations
  57:Generated_Source\PSoC6\pdl\drivers/peripheral/sysclk/cy_sysclk.h **** * There are no general SysClk configuration concerns. 
  58:Generated_Source\PSoC6\pdl\drivers/peripheral/sysclk/cy_sysclk.h **** * Some clocks (for example the PLL) require configuration. For such a clock the
  59:Generated_Source\PSoC6\pdl\drivers/peripheral/sysclk/cy_sysclk.h **** * API typically provides a Configure function to set up the clock. See notes on
  60:Generated_Source\PSoC6\pdl\drivers/peripheral/sysclk/cy_sysclk.h **** * individual function definitions.
  61:Generated_Source\PSoC6\pdl\drivers/peripheral/sysclk/cy_sysclk.h **** * \warning When the device is in the Ultra-Low Power (ULP) mode, the maximum
  62:Generated_Source\PSoC6\pdl\drivers/peripheral/sysclk/cy_sysclk.h **** * frequency of some clocks is reduced. See the device datasheet for details.
ARM GAS  C:\Users\kiwamu\AppData\Local\Temp\ccTROAwf.s 			page 46


  63:Generated_Source\PSoC6\pdl\drivers/peripheral/sysclk/cy_sysclk.h **** *
  64:Generated_Source\PSoC6\pdl\drivers/peripheral/sysclk/cy_sysclk.h **** *
  65:Generated_Source\PSoC6\pdl\drivers/peripheral/sysclk/cy_sysclk.h **** * \section group_sysclk_more_information More Information
  66:Generated_Source\PSoC6\pdl\drivers/peripheral/sysclk/cy_sysclk.h **** * See the Clock Component datasheet. See also the Clocking System chapter of
  67:Generated_Source\PSoC6\pdl\drivers/peripheral/sysclk/cy_sysclk.h **** * the device technical reference manual (TRM).
  68:Generated_Source\PSoC6\pdl\drivers/peripheral/sysclk/cy_sysclk.h **** *
  69:Generated_Source\PSoC6\pdl\drivers/peripheral/sysclk/cy_sysclk.h **** * \section group_sysclk_MISRA MISRA-C Compliance
  70:Generated_Source\PSoC6\pdl\drivers/peripheral/sysclk/cy_sysclk.h **** * <table class="doxtable">
  71:Generated_Source\PSoC6\pdl\drivers/peripheral/sysclk/cy_sysclk.h **** *   <tr>
  72:Generated_Source\PSoC6\pdl\drivers/peripheral/sysclk/cy_sysclk.h **** *     <th>MISRA Rule</th>
  73:Generated_Source\PSoC6\pdl\drivers/peripheral/sysclk/cy_sysclk.h **** *     <th>Rule Class (Required/Advisory)</th>
  74:Generated_Source\PSoC6\pdl\drivers/peripheral/sysclk/cy_sysclk.h **** *     <th>Rule Description</th>
  75:Generated_Source\PSoC6\pdl\drivers/peripheral/sysclk/cy_sysclk.h **** *     <th>Description of Deviation(s)</th>
  76:Generated_Source\PSoC6\pdl\drivers/peripheral/sysclk/cy_sysclk.h **** *   </tr>
  77:Generated_Source\PSoC6\pdl\drivers/peripheral/sysclk/cy_sysclk.h **** *   <tr>
  78:Generated_Source\PSoC6\pdl\drivers/peripheral/sysclk/cy_sysclk.h **** *     <td>1.2</td>
  79:Generated_Source\PSoC6\pdl\drivers/peripheral/sysclk/cy_sysclk.h **** *     <td>R</td>
  80:Generated_Source\PSoC6\pdl\drivers/peripheral/sysclk/cy_sysclk.h **** *     <td>No reliance on undefined behavior.</td>
  81:Generated_Source\PSoC6\pdl\drivers/peripheral/sysclk/cy_sysclk.h **** *     <td>Calculation of an absolute value in the FLL and PLL configuration.</td>
  82:Generated_Source\PSoC6\pdl\drivers/peripheral/sysclk/cy_sysclk.h **** *   </tr>
  83:Generated_Source\PSoC6\pdl\drivers/peripheral/sysclk/cy_sysclk.h **** *   <tr>
  84:Generated_Source\PSoC6\pdl\drivers/peripheral/sysclk/cy_sysclk.h **** *     <td>5.6</td>
  85:Generated_Source\PSoC6\pdl\drivers/peripheral/sysclk/cy_sysclk.h **** *     <td>R</td>
  86:Generated_Source\PSoC6\pdl\drivers/peripheral/sysclk/cy_sysclk.h **** *     <td>No identifier in one name space should have the same spelling as an identifier in another
  87:Generated_Source\PSoC6\pdl\drivers/peripheral/sysclk/cy_sysclk.h **** *         exception of structure member and union member names.</td>
  88:Generated_Source\PSoC6\pdl\drivers/peripheral/sysclk/cy_sysclk.h **** *     <td>The "mode" and "retval" are used as a structure/union member they are a label, tag or ord
  89:Generated_Source\PSoC6\pdl\drivers/peripheral/sysclk/cy_sysclk.h **** *         identifier.</td>
  90:Generated_Source\PSoC6\pdl\drivers/peripheral/sysclk/cy_sysclk.h **** *   </tr>
  91:Generated_Source\PSoC6\pdl\drivers/peripheral/sysclk/cy_sysclk.h **** *   <tr>
  92:Generated_Source\PSoC6\pdl\drivers/peripheral/sysclk/cy_sysclk.h **** *     <td>10.1</td>
  93:Generated_Source\PSoC6\pdl\drivers/peripheral/sysclk/cy_sysclk.h **** *     <td>R</td>
  94:Generated_Source\PSoC6\pdl\drivers/peripheral/sysclk/cy_sysclk.h **** *     <td>The value of an expression of integer type shall not be implicitly converted to a differe
  95:Generated_Source\PSoC6\pdl\drivers/peripheral/sysclk/cy_sysclk.h **** *         if the expression is complex.</td>
  96:Generated_Source\PSoC6\pdl\drivers/peripheral/sysclk/cy_sysclk.h **** *     <td>Use of a Cypress defined macro to access memory mapped objects.
  97:Generated_Source\PSoC6\pdl\drivers/peripheral/sysclk/cy_sysclk.h **** *         Use of a Cypress defined macro to divide with rounding.</td>
  98:Generated_Source\PSoC6\pdl\drivers/peripheral/sysclk/cy_sysclk.h **** *   </tr>
  99:Generated_Source\PSoC6\pdl\drivers/peripheral/sysclk/cy_sysclk.h **** *   <tr>
 100:Generated_Source\PSoC6\pdl\drivers/peripheral/sysclk/cy_sysclk.h **** *     <td>10.2</td>
 101:Generated_Source\PSoC6\pdl\drivers/peripheral/sysclk/cy_sysclk.h **** *     <td>R</td>
 102:Generated_Source\PSoC6\pdl\drivers/peripheral/sysclk/cy_sysclk.h **** *     <td>The value of an expression of floating type shall not be implicitly converted to a differ
 103:Generated_Source\PSoC6\pdl\drivers/peripheral/sysclk/cy_sysclk.h **** *         a) it is not a conversion to a wider floating type, or
 104:Generated_Source\PSoC6\pdl\drivers/peripheral/sysclk/cy_sysclk.h **** *         b) the expression is complex, or
 105:Generated_Source\PSoC6\pdl\drivers/peripheral/sysclk/cy_sysclk.h **** *         c) the expression is a function argument, or
 106:Generated_Source\PSoC6\pdl\drivers/peripheral/sysclk/cy_sysclk.h **** *         d) the expression is a return expression.</td>
 107:Generated_Source\PSoC6\pdl\drivers/peripheral/sysclk/cy_sysclk.h **** *     <td>The operands of this relational operator are expressions of different "essential type" ca
 108:Generated_Source\PSoC6\pdl\drivers/peripheral/sysclk/cy_sysclk.h **** *         (enum and unsigned).</td>
 109:Generated_Source\PSoC6\pdl\drivers/peripheral/sysclk/cy_sysclk.h **** *   </tr>
 110:Generated_Source\PSoC6\pdl\drivers/peripheral/sysclk/cy_sysclk.h **** *   <tr>
 111:Generated_Source\PSoC6\pdl\drivers/peripheral/sysclk/cy_sysclk.h **** *     <td>10.3</td>
 112:Generated_Source\PSoC6\pdl\drivers/peripheral/sysclk/cy_sysclk.h **** *     <td>R</td>
 113:Generated_Source\PSoC6\pdl\drivers/peripheral/sysclk/cy_sysclk.h **** *     <td>A composite integer expression is being cast to a wider type.</td>
 114:Generated_Source\PSoC6\pdl\drivers/peripheral/sysclk/cy_sysclk.h **** *     <td>Use of a Cypress defined macro to access memory-mapped objects. Calculating the clock par
 115:Generated_Source\PSoC6\pdl\drivers/peripheral/sysclk/cy_sysclk.h **** *   </tr>
 116:Generated_Source\PSoC6\pdl\drivers/peripheral/sysclk/cy_sysclk.h **** *   <tr>
 117:Generated_Source\PSoC6\pdl\drivers/peripheral/sysclk/cy_sysclk.h **** *     <td>10.4</td>
 118:Generated_Source\PSoC6\pdl\drivers/peripheral/sysclk/cy_sysclk.h **** *     <td>R</td>
 119:Generated_Source\PSoC6\pdl\drivers/peripheral/sysclk/cy_sysclk.h **** *     <td>A composite floating point expression is being cast to double, or unsigned.</td>
ARM GAS  C:\Users\kiwamu\AppData\Local\Temp\ccTROAwf.s 			page 47


 120:Generated_Source\PSoC6\pdl\drivers/peripheral/sysclk/cy_sysclk.h **** *     <td>Use of the C library sqrt() function. Casting a floating-point calculation result to an i
 121:Generated_Source\PSoC6\pdl\drivers/peripheral/sysclk/cy_sysclk.h **** *   </tr>
 122:Generated_Source\PSoC6\pdl\drivers/peripheral/sysclk/cy_sysclk.h **** *   <tr>
 123:Generated_Source\PSoC6\pdl\drivers/peripheral/sysclk/cy_sysclk.h **** *     <td>10.5</td>
 124:Generated_Source\PSoC6\pdl\drivers/peripheral/sysclk/cy_sysclk.h **** *     <td>R</td>
 125:Generated_Source\PSoC6\pdl\drivers/peripheral/sysclk/cy_sysclk.h **** *     <td>The value of an expression of integer type shall not be implicitly converted to a differe
 126:Generated_Source\PSoC6\pdl\drivers/peripheral/sysclk/cy_sysclk.h **** *         if the expression is complex.</td>
 127:Generated_Source\PSoC6\pdl\drivers/peripheral/sysclk/cy_sysclk.h **** *     <td>Use of a Cypress defined macro to access memory-mapped objects.</td>
 128:Generated_Source\PSoC6\pdl\drivers/peripheral/sysclk/cy_sysclk.h **** *   </tr>
 129:Generated_Source\PSoC6\pdl\drivers/peripheral/sysclk/cy_sysclk.h **** *   <tr>
 130:Generated_Source\PSoC6\pdl\drivers/peripheral/sysclk/cy_sysclk.h **** *     <td>12.1</td>
 131:Generated_Source\PSoC6\pdl\drivers/peripheral/sysclk/cy_sysclk.h **** *     <td>A</td>
 132:Generated_Source\PSoC6\pdl\drivers/peripheral/sysclk/cy_sysclk.h **** *     <td>Extra parentheses recommended.</td>
 133:Generated_Source\PSoC6\pdl\drivers/peripheral/sysclk/cy_sysclk.h **** *     <td>Ternary operator uses constants; extra parentheses not needed.</td>
 134:Generated_Source\PSoC6\pdl\drivers/peripheral/sysclk/cy_sysclk.h **** *   </tr>
 135:Generated_Source\PSoC6\pdl\drivers/peripheral/sysclk/cy_sysclk.h **** *   <tr>
 136:Generated_Source\PSoC6\pdl\drivers/peripheral/sysclk/cy_sysclk.h **** *     <td>12.2</td>
 137:Generated_Source\PSoC6\pdl\drivers/peripheral/sysclk/cy_sysclk.h **** *     <td>A</td>
 138:Generated_Source\PSoC6\pdl\drivers/peripheral/sysclk/cy_sysclk.h **** *     <td>The value of an expression must be the same under any order of evaluation that the standa
 139:Generated_Source\PSoC6\pdl\drivers/peripheral/sysclk/cy_sysclk.h **** *     <td>The "rtnval" is modified more than once between the sequence points - the evaluation orde
 140:Generated_Source\PSoC6\pdl\drivers/peripheral/sysclk/cy_sysclk.h **** *   </tr>
 141:Generated_Source\PSoC6\pdl\drivers/peripheral/sysclk/cy_sysclk.h **** *   <tr>
 142:Generated_Source\PSoC6\pdl\drivers/peripheral/sysclk/cy_sysclk.h **** *     <td>12.4</td>
 143:Generated_Source\PSoC6\pdl\drivers/peripheral/sysclk/cy_sysclk.h **** *     <td>A</td>
 144:Generated_Source\PSoC6\pdl\drivers/peripheral/sysclk/cy_sysclk.h **** *     <td>The right hand operand of a logical && or || operator shall not contain side effects.</td
 145:Generated_Source\PSoC6\pdl\drivers/peripheral/sysclk/cy_sysclk.h **** *     <td>No side effect in this case.</td>
 146:Generated_Source\PSoC6\pdl\drivers/peripheral/sysclk/cy_sysclk.h **** *   </tr>
 147:Generated_Source\PSoC6\pdl\drivers/peripheral/sysclk/cy_sysclk.h **** *   <tr>
 148:Generated_Source\PSoC6\pdl\drivers/peripheral/sysclk/cy_sysclk.h **** *     <td>13.4</td>
 149:Generated_Source\PSoC6\pdl\drivers/peripheral/sysclk/cy_sysclk.h **** *     <td>R</td>
 150:Generated_Source\PSoC6\pdl\drivers/peripheral/sysclk/cy_sysclk.h **** *     <td>The controlling expression of a for statement shall not contain any objects of floating t
 151:Generated_Source\PSoC6\pdl\drivers/peripheral/sysclk/cy_sysclk.h **** *     <td>Scanning through a list of floating point values.</td>
 152:Generated_Source\PSoC6\pdl\drivers/peripheral/sysclk/cy_sysclk.h **** *   </tr>
 153:Generated_Source\PSoC6\pdl\drivers/peripheral/sysclk/cy_sysclk.h **** *   <tr>
 154:Generated_Source\PSoC6\pdl\drivers/peripheral/sysclk/cy_sysclk.h **** *     <td>16.7</td>
 155:Generated_Source\PSoC6\pdl\drivers/peripheral/sysclk/cy_sysclk.h **** *     <td>R</td>
 156:Generated_Source\PSoC6\pdl\drivers/peripheral/sysclk/cy_sysclk.h **** *     <td>The object addressed by the pointer parameter is not modified and so the pointer could be
 157:Generated_Source\PSoC6\pdl\drivers/peripheral/sysclk/cy_sysclk.h **** *         type 'pointer to const'.</td>
 158:Generated_Source\PSoC6\pdl\drivers/peripheral/sysclk/cy_sysclk.h **** *     <td>The callback function for system power management (SysPm) must be of generic callback typ
 159:Generated_Source\PSoC6\pdl\drivers/peripheral/sysclk/cy_sysclk.h **** *         contains non-const pointer parameter.</td>
 160:Generated_Source\PSoC6\pdl\drivers/peripheral/sysclk/cy_sysclk.h **** *   </tr>
 161:Generated_Source\PSoC6\pdl\drivers/peripheral/sysclk/cy_sysclk.h **** *   <tr>
 162:Generated_Source\PSoC6\pdl\drivers/peripheral/sysclk/cy_sysclk.h **** *     <td>18.4</td>
 163:Generated_Source\PSoC6\pdl\drivers/peripheral/sysclk/cy_sysclk.h **** *     <td>R</td>
