ARM GAS  C:\Users\kiwamu\AppData\Local\Temp\ccUfXRBo.s 			page 1


   1              		.syntax unified
   2              		.cpu cortex-m0plus
   3              		.fpu softvfp
   4              		.eabi_attribute 20, 1
   5              		.eabi_attribute 21, 1
   6              		.eabi_attribute 23, 3
   7              		.eabi_attribute 24, 1
   8              		.eabi_attribute 25, 1
   9              		.eabi_attribute 26, 1
  10              		.eabi_attribute 30, 1
  11              		.eabi_attribute 34, 0
  12              		.eabi_attribute 18, 4
  13              		.thumb
  14              		.syntax unified
  15              		.file	"cy_gpio.c"
  16              		.text
  17              	.Ltext0:
  18              		.cfi_sections	.debug_frame
  19              		.section	.text.Cy_GPIO_Pin_Init,"ax",%progbits
  20              		.align	2
  21              		.global	Cy_GPIO_Pin_Init
  22              		.code	16
  23              		.thumb_func
  24              		.type	Cy_GPIO_Pin_Init, %function
  25              	Cy_GPIO_Pin_Init:
  26              	.LFB74:
  27              		.file 1 "Generated_Source\\PSoC6\\pdl\\drivers\\peripheral\\gpio\\cy_gpio.c"
   1:Generated_Source\PSoC6\pdl\drivers\peripheral\gpio/cy_gpio.c **** /***************************************************************************//**
   2:Generated_Source\PSoC6\pdl\drivers\peripheral\gpio/cy_gpio.c **** * \file cy_gpio.c
   3:Generated_Source\PSoC6\pdl\drivers\peripheral\gpio/cy_gpio.c **** * \version 1.0
   4:Generated_Source\PSoC6\pdl\drivers\peripheral\gpio/cy_gpio.c **** *
   5:Generated_Source\PSoC6\pdl\drivers\peripheral\gpio/cy_gpio.c **** * \brief
   6:Generated_Source\PSoC6\pdl\drivers\peripheral\gpio/cy_gpio.c **** * Provides an API implementation of the GPIO driver
   7:Generated_Source\PSoC6\pdl\drivers\peripheral\gpio/cy_gpio.c **** *
   8:Generated_Source\PSoC6\pdl\drivers\peripheral\gpio/cy_gpio.c **** ********************************************************************************
   9:Generated_Source\PSoC6\pdl\drivers\peripheral\gpio/cy_gpio.c **** * \copyright
  10:Generated_Source\PSoC6\pdl\drivers\peripheral\gpio/cy_gpio.c **** * Copyright 2016-2017, Cypress Semiconductor Corporation. All rights reserved.
  11:Generated_Source\PSoC6\pdl\drivers\peripheral\gpio/cy_gpio.c **** * You may use this file only in accordance with the license, terms, conditions,
  12:Generated_Source\PSoC6\pdl\drivers\peripheral\gpio/cy_gpio.c **** * disclaimers, and limitations in the end user license agreement accompanying
  13:Generated_Source\PSoC6\pdl\drivers\peripheral\gpio/cy_gpio.c **** * the software package with which this file was provided.
  14:Generated_Source\PSoC6\pdl\drivers\peripheral\gpio/cy_gpio.c **** *******************************************************************************/
  15:Generated_Source\PSoC6\pdl\drivers\peripheral\gpio/cy_gpio.c **** 
  16:Generated_Source\PSoC6\pdl\drivers\peripheral\gpio/cy_gpio.c **** #include "cy_gpio.h"
  17:Generated_Source\PSoC6\pdl\drivers\peripheral\gpio/cy_gpio.c **** 
  18:Generated_Source\PSoC6\pdl\drivers\peripheral\gpio/cy_gpio.c **** #if defined(__cplusplus)
  19:Generated_Source\PSoC6\pdl\drivers\peripheral\gpio/cy_gpio.c **** extern "C" {
  20:Generated_Source\PSoC6\pdl\drivers\peripheral\gpio/cy_gpio.c **** #endif
  21:Generated_Source\PSoC6\pdl\drivers\peripheral\gpio/cy_gpio.c **** 
  22:Generated_Source\PSoC6\pdl\drivers\peripheral\gpio/cy_gpio.c **** 
  23:Generated_Source\PSoC6\pdl\drivers\peripheral\gpio/cy_gpio.c **** /*******************************************************************************
  24:Generated_Source\PSoC6\pdl\drivers\peripheral\gpio/cy_gpio.c **** * Function Name: Cy_GPIO_Pin_Init
  25:Generated_Source\PSoC6\pdl\drivers\peripheral\gpio/cy_gpio.c **** ****************************************************************************//**
  26:Generated_Source\PSoC6\pdl\drivers\peripheral\gpio/cy_gpio.c **** *
  27:Generated_Source\PSoC6\pdl\drivers\peripheral\gpio/cy_gpio.c **** * \brief Initialize all pin configuration setting for the pin.
  28:Generated_Source\PSoC6\pdl\drivers\peripheral\gpio/cy_gpio.c **** *
  29:Generated_Source\PSoC6\pdl\drivers\peripheral\gpio/cy_gpio.c **** * \param base
  30:Generated_Source\PSoC6\pdl\drivers\peripheral\gpio/cy_gpio.c **** * Pointer to the pin's port register base address
ARM GAS  C:\Users\kiwamu\AppData\Local\Temp\ccUfXRBo.s 			page 2


  31:Generated_Source\PSoC6\pdl\drivers\peripheral\gpio/cy_gpio.c **** *
  32:Generated_Source\PSoC6\pdl\drivers\peripheral\gpio/cy_gpio.c **** * \param pinNum
  33:Generated_Source\PSoC6\pdl\drivers\peripheral\gpio/cy_gpio.c **** * Position of the pin bit-field within the port register
  34:Generated_Source\PSoC6\pdl\drivers\peripheral\gpio/cy_gpio.c **** *
  35:Generated_Source\PSoC6\pdl\drivers\peripheral\gpio/cy_gpio.c **** * \param config
  36:Generated_Source\PSoC6\pdl\drivers\peripheral\gpio/cy_gpio.c **** * Pointer to the pin config structure base address
  37:Generated_Source\PSoC6\pdl\drivers\peripheral\gpio/cy_gpio.c **** *
  38:Generated_Source\PSoC6\pdl\drivers\peripheral\gpio/cy_gpio.c **** * \return
  39:Generated_Source\PSoC6\pdl\drivers\peripheral\gpio/cy_gpio.c **** * Initialization status
  40:Generated_Source\PSoC6\pdl\drivers\peripheral\gpio/cy_gpio.c **** *
  41:Generated_Source\PSoC6\pdl\drivers\peripheral\gpio/cy_gpio.c **** * \note 
  42:Generated_Source\PSoC6\pdl\drivers\peripheral\gpio/cy_gpio.c **** * This function modifies port registers in read-modify-write operations. It is
  43:Generated_Source\PSoC6\pdl\drivers\peripheral\gpio/cy_gpio.c **** * not thread safe as the resource is shared among multiple pins on a port.
  44:Generated_Source\PSoC6\pdl\drivers\peripheral\gpio/cy_gpio.c **** *
  45:Generated_Source\PSoC6\pdl\drivers\peripheral\gpio/cy_gpio.c **** *******************************************************************************/
  46:Generated_Source\PSoC6\pdl\drivers\peripheral\gpio/cy_gpio.c **** cy_en_gpio_status_t Cy_GPIO_Pin_Init(GPIO_PRT_Type *base, uint32_t pinNum, const cy_stc_gpio_pin_co
  47:Generated_Source\PSoC6\pdl\drivers\peripheral\gpio/cy_gpio.c **** {
  28              		.loc 1 47 0
  29              		.cfi_startproc
  30              		@ args = 0, pretend = 0, frame = 0
  31              		@ frame_needed = 0, uses_anonymous_args = 0
  32              	.LVL0:
  33 0000 F0B5     		push	{r4, r5, r6, r7, lr}
  34              		.cfi_def_cfa_offset 20
  35              		.cfi_offset 4, -20
  36              		.cfi_offset 5, -16
  37              		.cfi_offset 6, -12
  38              		.cfi_offset 7, -8
  39              		.cfi_offset 14, -4
  40 0002 4F46     		mov	r7, r9
  41 0004 4646     		mov	r6, r8
  42 0006 C0B4     		push	{r6, r7}
  43              		.cfi_def_cfa_offset 28
  44              		.cfi_offset 8, -28
  45              		.cfi_offset 9, -24
  46              	.LVL1:
  48:Generated_Source\PSoC6\pdl\drivers\peripheral\gpio/cy_gpio.c ****     cy_en_gpio_status_t status = CY_GPIO_SUCCESS;
  49:Generated_Source\PSoC6\pdl\drivers\peripheral\gpio/cy_gpio.c ****     uint32_t maskCfgOut;
  50:Generated_Source\PSoC6\pdl\drivers\peripheral\gpio/cy_gpio.c ****     uint32_t tempReg;
  51:Generated_Source\PSoC6\pdl\drivers\peripheral\gpio/cy_gpio.c **** 
  52:Generated_Source\PSoC6\pdl\drivers\peripheral\gpio/cy_gpio.c ****     if((NULL != base) && (NULL != config))
  47              		.loc 1 52 0
  48 0008 0028     		cmp	r0, #0
  49 000a 00D1     		bne	.LCB22
  50 000c 99E0     		b	.L7	@long jump
  51              	.LCB22:
  52              		.loc 1 52 0 is_stmt 0 discriminator 1
  53 000e 002A     		cmp	r2, #0
  54 0010 00D1     		bne	.LCB24
  55 0012 98E0     		b	.L8	@long jump
  56              	.LCB24:
  57              	.LVL2:
  58              	.LBB24:
  59              	.LBB25:
  60              		.file 2 "Generated_Source\\PSoC6\\pdl\\drivers\\peripheral\\gpio\\cy_gpio.h"
   1:Generated_Source\PSoC6\pdl\drivers\peripheral\gpio/cy_gpio.h **** /***************************************************************************//**
   2:Generated_Source\PSoC6\pdl\drivers\peripheral\gpio/cy_gpio.h **** * \file cy_gpio.h
ARM GAS  C:\Users\kiwamu\AppData\Local\Temp\ccUfXRBo.s 			page 3


   3:Generated_Source\PSoC6\pdl\drivers\peripheral\gpio/cy_gpio.h **** * \version 1.0
   4:Generated_Source\PSoC6\pdl\drivers\peripheral\gpio/cy_gpio.h **** *
   5:Generated_Source\PSoC6\pdl\drivers\peripheral\gpio/cy_gpio.h **** * \brief
   6:Generated_Source\PSoC6\pdl\drivers\peripheral\gpio/cy_gpio.h **** * Provides an API declaration of the GPIO driver
   7:Generated_Source\PSoC6\pdl\drivers\peripheral\gpio/cy_gpio.h **** *
   8:Generated_Source\PSoC6\pdl\drivers\peripheral\gpio/cy_gpio.h **** ********************************************************************************
   9:Generated_Source\PSoC6\pdl\drivers\peripheral\gpio/cy_gpio.h **** * \copyright
  10:Generated_Source\PSoC6\pdl\drivers\peripheral\gpio/cy_gpio.h **** * Copyright 2016-2017, Cypress Semiconductor Corporation. All rights reserved.
  11:Generated_Source\PSoC6\pdl\drivers\peripheral\gpio/cy_gpio.h **** * You may use this file only in accordance with the license, terms, conditions,
  12:Generated_Source\PSoC6\pdl\drivers\peripheral\gpio/cy_gpio.h **** * disclaimers, and limitations in the end user license agreement accompanying
  13:Generated_Source\PSoC6\pdl\drivers\peripheral\gpio/cy_gpio.h **** * the software package with which this file was provided.
  14:Generated_Source\PSoC6\pdl\drivers\peripheral\gpio/cy_gpio.h **** *******************************************************************************/
  15:Generated_Source\PSoC6\pdl\drivers\peripheral\gpio/cy_gpio.h **** 
  16:Generated_Source\PSoC6\pdl\drivers\peripheral\gpio/cy_gpio.h **** /**
  17:Generated_Source\PSoC6\pdl\drivers\peripheral\gpio/cy_gpio.h **** * \defgroup group_gpio General Purpose Input Output (GPIO)
  18:Generated_Source\PSoC6\pdl\drivers\peripheral\gpio/cy_gpio.h **** * \{
  19:Generated_Source\PSoC6\pdl\drivers\peripheral\gpio/cy_gpio.h **** * The GPIO driver provides an API to configure and access device Input/Output pins.
  20:Generated_Source\PSoC6\pdl\drivers\peripheral\gpio/cy_gpio.h **** * IO pins include all general purpose types such as GPIO, SIO, HSIO, AUXIO, and
  21:Generated_Source\PSoC6\pdl\drivers\peripheral\gpio/cy_gpio.h **** * their variants.
  22:Generated_Source\PSoC6\pdl\drivers\peripheral\gpio/cy_gpio.h **** *
  23:Generated_Source\PSoC6\pdl\drivers\peripheral\gpio/cy_gpio.h **** * Initialization can be performed either at the port level or by configuring the
  24:Generated_Source\PSoC6\pdl\drivers\peripheral\gpio/cy_gpio.h **** * individual pins. For efficient use of code space, port
  25:Generated_Source\PSoC6\pdl\drivers\peripheral\gpio/cy_gpio.h **** * configuration should be used in the field. Refer to the product device header files 
  26:Generated_Source\PSoC6\pdl\drivers\peripheral\gpio/cy_gpio.h **** * for the list of supported ports and pins.
  27:Generated_Source\PSoC6\pdl\drivers\peripheral\gpio/cy_gpio.h **** * 
  28:Generated_Source\PSoC6\pdl\drivers\peripheral\gpio/cy_gpio.h **** * - Single pin configuration is performed by using \ref Cy_GPIO_Pin_FastInit 
  29:Generated_Source\PSoC6\pdl\drivers\peripheral\gpio/cy_gpio.h **** *   (provide specific values) or \ref Cy_GPIO_Pin_Init (provide a filled
  30:Generated_Source\PSoC6\pdl\drivers\peripheral\gpio/cy_gpio.h **** *   cy_stc_gpio_pin_config_t structure).
  31:Generated_Source\PSoC6\pdl\drivers\peripheral\gpio/cy_gpio.h **** * - An entire port can be configured using \ref Cy_GPIO_Port_Init. Provide a filled 
  32:Generated_Source\PSoC6\pdl\drivers\peripheral\gpio/cy_gpio.h **** *   cy_stc_gpio_prt_config_t structure. The values in the structure are 
  33:Generated_Source\PSoC6\pdl\drivers\peripheral\gpio/cy_gpio.h **** *   bitfields representing the desired value for each pin in the port.
  34:Generated_Source\PSoC6\pdl\drivers\peripheral\gpio/cy_gpio.h **** * - Pin configuration and management is based on the port address and pin number.
  35:Generated_Source\PSoC6\pdl\drivers\peripheral\gpio/cy_gpio.h **** *   \ref Cy_GPIO_PortToAddr function can optionally be used to calculate the port
  36:Generated_Source\PSoC6\pdl\drivers\peripheral\gpio/cy_gpio.h **** *   address from the port number at run-time.
  37:Generated_Source\PSoC6\pdl\drivers\peripheral\gpio/cy_gpio.h **** *
  38:Generated_Source\PSoC6\pdl\drivers\peripheral\gpio/cy_gpio.h **** * Once the pin/port initialization is complete, each pin can be accessed by 
  39:Generated_Source\PSoC6\pdl\drivers\peripheral\gpio/cy_gpio.h **** * specifying the port (GPIO_PRT_Type) and the pin (0-7) in the provided API 
  40:Generated_Source\PSoC6\pdl\drivers\peripheral\gpio/cy_gpio.h **** * functions.
  41:Generated_Source\PSoC6\pdl\drivers\peripheral\gpio/cy_gpio.h **** *
  42:Generated_Source\PSoC6\pdl\drivers\peripheral\gpio/cy_gpio.h **** * \section group_gpio_configuration Configuration Considerations
  43:Generated_Source\PSoC6\pdl\drivers\peripheral\gpio/cy_gpio.h **** *
  44:Generated_Source\PSoC6\pdl\drivers\peripheral\gpio/cy_gpio.h **** * 1. Pin muxing is controlled through the High-Speed IO Matrix (HSIOM) selection.
  45:Generated_Source\PSoC6\pdl\drivers\peripheral\gpio/cy_gpio.h **** *    This allows the pin to connect to signal sources/sinks throughout the device,
  46:Generated_Source\PSoC6\pdl\drivers\peripheral\gpio/cy_gpio.h **** *    as defined by the pin HSIOM selection options (en_hsiom_sel_t).
  47:Generated_Source\PSoC6\pdl\drivers\peripheral\gpio/cy_gpio.h **** * 2. All pins are initialized to High-Z drive mode with HSIOM connected to CPU (SW
  48:Generated_Source\PSoC6\pdl\drivers\peripheral\gpio/cy_gpio.h **** *    control digital pin only) at Power-On-Reset(POR).
  49:Generated_Source\PSoC6\pdl\drivers\peripheral\gpio/cy_gpio.h **** * 3. Some API functions perform read-modify-write operations on shared port
  50:Generated_Source\PSoC6\pdl\drivers\peripheral\gpio/cy_gpio.h **** *    registers. These functions are not thread safe and care must be taken when
  51:Generated_Source\PSoC6\pdl\drivers\peripheral\gpio/cy_gpio.h **** *    called by the application.
  52:Generated_Source\PSoC6\pdl\drivers\peripheral\gpio/cy_gpio.h **** *
  53:Generated_Source\PSoC6\pdl\drivers\peripheral\gpio/cy_gpio.h **** * The whole gpio port can be updated using the port mask by direct port 
  54:Generated_Source\PSoC6\pdl\drivers\peripheral\gpio/cy_gpio.h **** * register writing. The code example below shows the different ways of 
  55:Generated_Source\PSoC6\pdl\drivers\peripheral\gpio/cy_gpio.h **** * manipulating Port#1 using the Port output data register, 
  56:Generated_Source\PSoC6\pdl\drivers\peripheral\gpio/cy_gpio.h **** * the Port output data set register, and the Port output data clear register:
  57:Generated_Source\PSoC6\pdl\drivers\peripheral\gpio/cy_gpio.h **** *
  58:Generated_Source\PSoC6\pdl\drivers\peripheral\gpio/cy_gpio.h **** * \snippet gpio_sut_01.cydsn/main_cm4.c Cy_GPIO_Snippet
  59:Generated_Source\PSoC6\pdl\drivers\peripheral\gpio/cy_gpio.h **** *
ARM GAS  C:\Users\kiwamu\AppData\Local\Temp\ccUfXRBo.s 			page 4


  60:Generated_Source\PSoC6\pdl\drivers\peripheral\gpio/cy_gpio.h **** *
  61:Generated_Source\PSoC6\pdl\drivers\peripheral\gpio/cy_gpio.h **** * \section group_gpio_more_information More Information
  62:Generated_Source\PSoC6\pdl\drivers\peripheral\gpio/cy_gpio.h **** *
  63:Generated_Source\PSoC6\pdl\drivers\peripheral\gpio/cy_gpio.h **** * Refer to the technical reference manual (TRM) and the device datasheet.
  64:Generated_Source\PSoC6\pdl\drivers\peripheral\gpio/cy_gpio.h **** *
  65:Generated_Source\PSoC6\pdl\drivers\peripheral\gpio/cy_gpio.h **** * \section group_gpio_MISRA MISRA-C Compliance]
  66:Generated_Source\PSoC6\pdl\drivers\peripheral\gpio/cy_gpio.h **** *
  67:Generated_Source\PSoC6\pdl\drivers\peripheral\gpio/cy_gpio.h **** * The gpio driver does not have any specific deviations.
  68:Generated_Source\PSoC6\pdl\drivers\peripheral\gpio/cy_gpio.h **** *
  69:Generated_Source\PSoC6\pdl\drivers\peripheral\gpio/cy_gpio.h **** * \section group_gpio_changelog Changelog
  70:Generated_Source\PSoC6\pdl\drivers\peripheral\gpio/cy_gpio.h **** * <table class="doxtable">
  71:Generated_Source\PSoC6\pdl\drivers\peripheral\gpio/cy_gpio.h **** *   <tr><th>Version</th><th>Changes</th><th>Reason for Change</th></tr>
  72:Generated_Source\PSoC6\pdl\drivers\peripheral\gpio/cy_gpio.h **** *   <tr>
  73:Generated_Source\PSoC6\pdl\drivers\peripheral\gpio/cy_gpio.h **** *     <td>1.0</td>
  74:Generated_Source\PSoC6\pdl\drivers\peripheral\gpio/cy_gpio.h **** *     <td>Initial version</td>
  75:Generated_Source\PSoC6\pdl\drivers\peripheral\gpio/cy_gpio.h **** *     <td></td>
  76:Generated_Source\PSoC6\pdl\drivers\peripheral\gpio/cy_gpio.h **** *   </tr>
  77:Generated_Source\PSoC6\pdl\drivers\peripheral\gpio/cy_gpio.h **** * </table>
  78:Generated_Source\PSoC6\pdl\drivers\peripheral\gpio/cy_gpio.h **** *
  79:Generated_Source\PSoC6\pdl\drivers\peripheral\gpio/cy_gpio.h **** * \defgroup group_gpio_macros Macros
  80:Generated_Source\PSoC6\pdl\drivers\peripheral\gpio/cy_gpio.h **** * \defgroup group_gpio_functions Functions
  81:Generated_Source\PSoC6\pdl\drivers\peripheral\gpio/cy_gpio.h **** * \{
  82:Generated_Source\PSoC6\pdl\drivers\peripheral\gpio/cy_gpio.h **** *   \defgroup group_gpio_functions_init       Initialization Functions
  83:Generated_Source\PSoC6\pdl\drivers\peripheral\gpio/cy_gpio.h **** *   \defgroup group_gpio_functions_gpio       GPIO Functions
  84:Generated_Source\PSoC6\pdl\drivers\peripheral\gpio/cy_gpio.h **** *   \defgroup group_gpio_functions_sio        SIO Functions
  85:Generated_Source\PSoC6\pdl\drivers\peripheral\gpio/cy_gpio.h **** *   \defgroup group_gpio_functions_interrupt  Port Interrupt Functions
  86:Generated_Source\PSoC6\pdl\drivers\peripheral\gpio/cy_gpio.h **** * \}
  87:Generated_Source\PSoC6\pdl\drivers\peripheral\gpio/cy_gpio.h **** * \defgroup group_gpio_data_structures Data structures
  88:Generated_Source\PSoC6\pdl\drivers\peripheral\gpio/cy_gpio.h **** * \defgroup group_gpio_enums Enumerated types
  89:Generated_Source\PSoC6\pdl\drivers\peripheral\gpio/cy_gpio.h **** */
  90:Generated_Source\PSoC6\pdl\drivers\peripheral\gpio/cy_gpio.h **** 
  91:Generated_Source\PSoC6\pdl\drivers\peripheral\gpio/cy_gpio.h **** #if !defined(CY_GPIO_H)
  92:Generated_Source\PSoC6\pdl\drivers\peripheral\gpio/cy_gpio.h **** #define CY_GPIO_H
  93:Generated_Source\PSoC6\pdl\drivers\peripheral\gpio/cy_gpio.h **** 
  94:Generated_Source\PSoC6\pdl\drivers\peripheral\gpio/cy_gpio.h **** #include <stddef.h>
  95:Generated_Source\PSoC6\pdl\drivers\peripheral\gpio/cy_gpio.h **** #include "syslib/cy_syslib.h"
  96:Generated_Source\PSoC6\pdl\drivers\peripheral\gpio/cy_gpio.h **** #include "cy_device_headers.h"
  97:Generated_Source\PSoC6\pdl\drivers\peripheral\gpio/cy_gpio.h **** 
  98:Generated_Source\PSoC6\pdl\drivers\peripheral\gpio/cy_gpio.h **** #if defined(__cplusplus)
  99:Generated_Source\PSoC6\pdl\drivers\peripheral\gpio/cy_gpio.h **** extern "C" {
 100:Generated_Source\PSoC6\pdl\drivers\peripheral\gpio/cy_gpio.h **** #endif
 101:Generated_Source\PSoC6\pdl\drivers\peripheral\gpio/cy_gpio.h **** 
 102:Generated_Source\PSoC6\pdl\drivers\peripheral\gpio/cy_gpio.h **** /** \addtogroup group_gpio_macros
 103:Generated_Source\PSoC6\pdl\drivers\peripheral\gpio/cy_gpio.h **** * \{
 104:Generated_Source\PSoC6\pdl\drivers\peripheral\gpio/cy_gpio.h **** */
 105:Generated_Source\PSoC6\pdl\drivers\peripheral\gpio/cy_gpio.h **** 
 106:Generated_Source\PSoC6\pdl\drivers\peripheral\gpio/cy_gpio.h **** /** Driver major version */
 107:Generated_Source\PSoC6\pdl\drivers\peripheral\gpio/cy_gpio.h **** #define CY_GPIO_DRV_VERSION_MAJOR       1
 108:Generated_Source\PSoC6\pdl\drivers\peripheral\gpio/cy_gpio.h **** 
 109:Generated_Source\PSoC6\pdl\drivers\peripheral\gpio/cy_gpio.h **** /** Driver minor version */
 110:Generated_Source\PSoC6\pdl\drivers\peripheral\gpio/cy_gpio.h **** #define CY_GPIO_DRV_VERSION_MINOR       0
 111:Generated_Source\PSoC6\pdl\drivers\peripheral\gpio/cy_gpio.h **** 
 112:Generated_Source\PSoC6\pdl\drivers\peripheral\gpio/cy_gpio.h **** /** GPIO driver ID */
 113:Generated_Source\PSoC6\pdl\drivers\peripheral\gpio/cy_gpio.h **** #define CY_GPIO_ID CY_PDL_DRV_ID(0x16u)
 114:Generated_Source\PSoC6\pdl\drivers\peripheral\gpio/cy_gpio.h **** 
 115:Generated_Source\PSoC6\pdl\drivers\peripheral\gpio/cy_gpio.h **** /** \} group_gpio_macros */
 116:Generated_Source\PSoC6\pdl\drivers\peripheral\gpio/cy_gpio.h **** 
ARM GAS  C:\Users\kiwamu\AppData\Local\Temp\ccUfXRBo.s 			page 5


 117:Generated_Source\PSoC6\pdl\drivers\peripheral\gpio/cy_gpio.h **** 
 118:Generated_Source\PSoC6\pdl\drivers\peripheral\gpio/cy_gpio.h **** /***************************************
 119:Generated_Source\PSoC6\pdl\drivers\peripheral\gpio/cy_gpio.h **** *       Enumerations
 120:Generated_Source\PSoC6\pdl\drivers\peripheral\gpio/cy_gpio.h **** ***************************************/
 121:Generated_Source\PSoC6\pdl\drivers\peripheral\gpio/cy_gpio.h **** /**
 122:Generated_Source\PSoC6\pdl\drivers\peripheral\gpio/cy_gpio.h **** * \addtogroup group_gpio_enums
 123:Generated_Source\PSoC6\pdl\drivers\peripheral\gpio/cy_gpio.h **** * \{
 124:Generated_Source\PSoC6\pdl\drivers\peripheral\gpio/cy_gpio.h **** */
 125:Generated_Source\PSoC6\pdl\drivers\peripheral\gpio/cy_gpio.h **** 
 126:Generated_Source\PSoC6\pdl\drivers\peripheral\gpio/cy_gpio.h **** /**
 127:Generated_Source\PSoC6\pdl\drivers\peripheral\gpio/cy_gpio.h **** * GPIO Driver error codes
 128:Generated_Source\PSoC6\pdl\drivers\peripheral\gpio/cy_gpio.h **** */
 129:Generated_Source\PSoC6\pdl\drivers\peripheral\gpio/cy_gpio.h **** typedef enum 
 130:Generated_Source\PSoC6\pdl\drivers\peripheral\gpio/cy_gpio.h **** {
 131:Generated_Source\PSoC6\pdl\drivers\peripheral\gpio/cy_gpio.h ****     CY_GPIO_SUCCESS   = 0x00u,                                    /**< Returned successful */
 132:Generated_Source\PSoC6\pdl\drivers\peripheral\gpio/cy_gpio.h ****     CY_GPIO_BAD_PARAM = CY_GPIO_ID | CY_PDL_STATUS_ERROR | 0x01u, /**< Bad parameter was passed */
 133:Generated_Source\PSoC6\pdl\drivers\peripheral\gpio/cy_gpio.h **** } cy_en_gpio_status_t;
 134:Generated_Source\PSoC6\pdl\drivers\peripheral\gpio/cy_gpio.h **** 
 135:Generated_Source\PSoC6\pdl\drivers\peripheral\gpio/cy_gpio.h **** /** \} group_gpio_enums */
 136:Generated_Source\PSoC6\pdl\drivers\peripheral\gpio/cy_gpio.h **** 
 137:Generated_Source\PSoC6\pdl\drivers\peripheral\gpio/cy_gpio.h **** 
 138:Generated_Source\PSoC6\pdl\drivers\peripheral\gpio/cy_gpio.h **** /***************************************
 139:Generated_Source\PSoC6\pdl\drivers\peripheral\gpio/cy_gpio.h **** *       Configuration Structures
 140:Generated_Source\PSoC6\pdl\drivers\peripheral\gpio/cy_gpio.h **** ***************************************/
 141:Generated_Source\PSoC6\pdl\drivers\peripheral\gpio/cy_gpio.h **** 
 142:Generated_Source\PSoC6\pdl\drivers\peripheral\gpio/cy_gpio.h **** /**
 143:Generated_Source\PSoC6\pdl\drivers\peripheral\gpio/cy_gpio.h **** * \addtogroup group_gpio_data_structures
 144:Generated_Source\PSoC6\pdl\drivers\peripheral\gpio/cy_gpio.h **** * \{
 145:Generated_Source\PSoC6\pdl\drivers\peripheral\gpio/cy_gpio.h **** */
 146:Generated_Source\PSoC6\pdl\drivers\peripheral\gpio/cy_gpio.h **** 
 147:Generated_Source\PSoC6\pdl\drivers\peripheral\gpio/cy_gpio.h **** /** This structure is used to initialize a port of GPIO pins */
 148:Generated_Source\PSoC6\pdl\drivers\peripheral\gpio/cy_gpio.h **** typedef struct {
 149:Generated_Source\PSoC6\pdl\drivers\peripheral\gpio/cy_gpio.h ****     uint32_t out;           /**< Initial output data for the IO pins in the port */
 150:Generated_Source\PSoC6\pdl\drivers\peripheral\gpio/cy_gpio.h ****     uint32_t intrMask;      /**< Interrupt enable mask for the port interrupt */
 151:Generated_Source\PSoC6\pdl\drivers\peripheral\gpio/cy_gpio.h ****     uint32_t intrCfg;       /**< Port pin interrupt edge detection configuration */
 152:Generated_Source\PSoC6\pdl\drivers\peripheral\gpio/cy_gpio.h ****     uint32_t cfg;           /**< Port pin drive modes and input buffer enable configuration */
 153:Generated_Source\PSoC6\pdl\drivers\peripheral\gpio/cy_gpio.h ****     uint32_t cfgIn;         /**< Port pin input buffer configuration */
 154:Generated_Source\PSoC6\pdl\drivers\peripheral\gpio/cy_gpio.h ****     uint32_t cfgOut;        /**< Port pin output buffer configuration */
 155:Generated_Source\PSoC6\pdl\drivers\peripheral\gpio/cy_gpio.h ****     uint32_t cfgSIO;        /**< Port SIO pins configuration */
 156:Generated_Source\PSoC6\pdl\drivers\peripheral\gpio/cy_gpio.h ****     uint32_t sel0Active;    /**< HSIOM selection for port pins 0,1,2,3 */
 157:Generated_Source\PSoC6\pdl\drivers\peripheral\gpio/cy_gpio.h ****     uint32_t sel1Active;    /**< HSIOM selection for port pins 4,5,6,7 */
 158:Generated_Source\PSoC6\pdl\drivers\peripheral\gpio/cy_gpio.h **** } cy_stc_gpio_prt_config_t;
 159:Generated_Source\PSoC6\pdl\drivers\peripheral\gpio/cy_gpio.h **** 
 160:Generated_Source\PSoC6\pdl\drivers\peripheral\gpio/cy_gpio.h **** /** This structure is used to initialize a single GPIO pin */
 161:Generated_Source\PSoC6\pdl\drivers\peripheral\gpio/cy_gpio.h **** typedef struct {
 162:Generated_Source\PSoC6\pdl\drivers\peripheral\gpio/cy_gpio.h ****     uint32_t outVal;         /**< Pin output state */
 163:Generated_Source\PSoC6\pdl\drivers\peripheral\gpio/cy_gpio.h ****     uint32_t driveMode;      /**< Drive mode */
 164:Generated_Source\PSoC6\pdl\drivers\peripheral\gpio/cy_gpio.h ****     en_hsiom_sel_t hsiom;   /**< HSIOM selection */
 165:Generated_Source\PSoC6\pdl\drivers\peripheral\gpio/cy_gpio.h ****     uint32_t intEdge;        /**< Interrupt Edge type */
 166:Generated_Source\PSoC6\pdl\drivers\peripheral\gpio/cy_gpio.h ****     uint32_t intMask;        /**< Interrupt enable mask */
 167:Generated_Source\PSoC6\pdl\drivers\peripheral\gpio/cy_gpio.h ****     uint32_t vtrip;          /**< Input buffer voltage trip type */
 168:Generated_Source\PSoC6\pdl\drivers\peripheral\gpio/cy_gpio.h ****     uint32_t slewRate;       /**< Output buffer slew rate */
 169:Generated_Source\PSoC6\pdl\drivers\peripheral\gpio/cy_gpio.h ****     uint32_t driveSel;       /**< Drive strength */
 170:Generated_Source\PSoC6\pdl\drivers\peripheral\gpio/cy_gpio.h ****     uint32_t vregEn;         /**< SIO pair output buffer mode */
 171:Generated_Source\PSoC6\pdl\drivers\peripheral\gpio/cy_gpio.h ****     uint32_t ibufMode;       /**< SIO pair input buffer mode */
 172:Generated_Source\PSoC6\pdl\drivers\peripheral\gpio/cy_gpio.h ****     uint32_t vtripSel;       /**< SIO pair input buffer trip point */
 173:Generated_Source\PSoC6\pdl\drivers\peripheral\gpio/cy_gpio.h ****     uint32_t vrefSel;        /**< SIO pair reference voltage for input buffer trip point */
ARM GAS  C:\Users\kiwamu\AppData\Local\Temp\ccUfXRBo.s 			page 6


 174:Generated_Source\PSoC6\pdl\drivers\peripheral\gpio/cy_gpio.h ****     uint32_t vohSel;         /**< SIO pair regulated voltage output level */
 175:Generated_Source\PSoC6\pdl\drivers\peripheral\gpio/cy_gpio.h **** } cy_stc_gpio_pin_config_t;
 176:Generated_Source\PSoC6\pdl\drivers\peripheral\gpio/cy_gpio.h **** 
 177:Generated_Source\PSoC6\pdl\drivers\peripheral\gpio/cy_gpio.h **** /** \} group_gpio_data_structures */
 178:Generated_Source\PSoC6\pdl\drivers\peripheral\gpio/cy_gpio.h **** 
 179:Generated_Source\PSoC6\pdl\drivers\peripheral\gpio/cy_gpio.h **** /***************************************
 180:Generated_Source\PSoC6\pdl\drivers\peripheral\gpio/cy_gpio.h **** *        Constants
 181:Generated_Source\PSoC6\pdl\drivers\peripheral\gpio/cy_gpio.h **** ***************************************/
 182:Generated_Source\PSoC6\pdl\drivers\peripheral\gpio/cy_gpio.h **** 
 183:Generated_Source\PSoC6\pdl\drivers\peripheral\gpio/cy_gpio.h **** /** \cond INTERNAL */
 184:Generated_Source\PSoC6\pdl\drivers\peripheral\gpio/cy_gpio.h **** 
 185:Generated_Source\PSoC6\pdl\drivers\peripheral\gpio/cy_gpio.h **** /* General Constants */
 186:Generated_Source\PSoC6\pdl\drivers\peripheral\gpio/cy_gpio.h **** #define CY_GPIO_PRT_HALF                       (4UL)      /**< Half-way point of a GPIO port */
 187:Generated_Source\PSoC6\pdl\drivers\peripheral\gpio/cy_gpio.h **** #define CY_GPIO_PRT_DEINIT                     (0UL)      /**< De-init value for port registers */
 188:Generated_Source\PSoC6\pdl\drivers\peripheral\gpio/cy_gpio.h **** 
 189:Generated_Source\PSoC6\pdl\drivers\peripheral\gpio/cy_gpio.h **** /* GPIO Masks */
 190:Generated_Source\PSoC6\pdl\drivers\peripheral\gpio/cy_gpio.h **** #define CY_GPIO_HSIOM_MASK                     (0x1FUL)   /**< HSIOM selection mask */
 191:Generated_Source\PSoC6\pdl\drivers\peripheral\gpio/cy_gpio.h **** #define CY_GPIO_OUT_MASK                       (0x01UL)   /**< Single pin mask for OUT register */
 192:Generated_Source\PSoC6\pdl\drivers\peripheral\gpio/cy_gpio.h **** #define CY_GPIO_IN_MASK                        (0x01UL)   /**< Single pin mask for IN register */
 193:Generated_Source\PSoC6\pdl\drivers\peripheral\gpio/cy_gpio.h **** #define CY_GPIO_CFG_DM_MASK                    (0x0FUL)   /**< Single pin mask for drive mode in CF
 194:Generated_Source\PSoC6\pdl\drivers\peripheral\gpio/cy_gpio.h **** #define CY_GPIO_CFG_IN_VTRIP_SEL_MASK          (0x01UL)   /**< Single pin mask for VTRIP selection 
 195:Generated_Source\PSoC6\pdl\drivers\peripheral\gpio/cy_gpio.h **** #define CY_GPIO_CFG_OUT_SLOW_MASK              (0x01UL)   /**< Single pin mask for slew rate in CFG
 196:Generated_Source\PSoC6\pdl\drivers\peripheral\gpio/cy_gpio.h **** #define CY_GPIO_CFG_OUT_DRIVE_SEL_MASK         (0x03UL)   /**< Single pin mask for drive strength i
 197:Generated_Source\PSoC6\pdl\drivers\peripheral\gpio/cy_gpio.h **** #define CY_GPIO_INTR_STATUS_MASK               (0x01UL)   /**< Single pin mask for interrupt status
 198:Generated_Source\PSoC6\pdl\drivers\peripheral\gpio/cy_gpio.h **** #define CY_GPIO_INTR_EN_MASK                   (0x01UL)   /**< Single pin mask for interrupt status
 199:Generated_Source\PSoC6\pdl\drivers\peripheral\gpio/cy_gpio.h **** #define CY_GPIO_INTR_MASKED_MASK               (0x01UL)   /**< Single pin mask for masked interrupt
 200:Generated_Source\PSoC6\pdl\drivers\peripheral\gpio/cy_gpio.h **** #define CY_GPIO_INTR_SET_MASK                  (0x01UL)   /**< Single pin mask for setting the inte
 201:Generated_Source\PSoC6\pdl\drivers\peripheral\gpio/cy_gpio.h **** #define CY_GPIO_INTR_EDGE_MASK                 (0x03UL)   /**< Single pin mask for interrupt edge t
 202:Generated_Source\PSoC6\pdl\drivers\peripheral\gpio/cy_gpio.h **** #define CY_GPIO_INTR_FLT_EDGE_MASK             (0x07UL)   /**< Single pin mask for setting filtered
 203:Generated_Source\PSoC6\pdl\drivers\peripheral\gpio/cy_gpio.h **** 
 204:Generated_Source\PSoC6\pdl\drivers\peripheral\gpio/cy_gpio.h **** /* SIO Masks */
 205:Generated_Source\PSoC6\pdl\drivers\peripheral\gpio/cy_gpio.h **** #define CY_GPIO_VREG_EN_MASK                   (0x01UL)   /**< Single SIO pin mask for voltage regu
 206:Generated_Source\PSoC6\pdl\drivers\peripheral\gpio/cy_gpio.h **** #define CY_GPIO_IBUF_MASK                      (0x01UL)   /**< Single SIO pin mask for input buffer
 207:Generated_Source\PSoC6\pdl\drivers\peripheral\gpio/cy_gpio.h **** #define CY_GPIO_IBUF_SHIFT                     (0x01UL)   /**< Single SIO pin shift for input buffe
 208:Generated_Source\PSoC6\pdl\drivers\peripheral\gpio/cy_gpio.h **** #define CY_GPIO_VTRIP_SEL_MASK                 (0x01UL)   /**< Single SIO pin mask for the input bu
 209:Generated_Source\PSoC6\pdl\drivers\peripheral\gpio/cy_gpio.h **** #define CY_GPIO_VTRIP_SEL_SHIFT                (0x02UL)   /**< Single SIO pin shift for the input b
 210:Generated_Source\PSoC6\pdl\drivers\peripheral\gpio/cy_gpio.h **** #define CY_GPIO_VREF_SEL_MASK                  (0x03UL)   /**< Single SIO pin mask for voltage refe
 211:Generated_Source\PSoC6\pdl\drivers\peripheral\gpio/cy_gpio.h **** #define CY_GPIO_VREF_SEL_SHIFT                 (0x03UL)   /**< Single SIO pin shift for voltage ref
 212:Generated_Source\PSoC6\pdl\drivers\peripheral\gpio/cy_gpio.h **** #define CY_GPIO_VOH_SEL_MASK                   (0x07UL)   /**< Single SIO pin mask for VOH */
 213:Generated_Source\PSoC6\pdl\drivers\peripheral\gpio/cy_gpio.h **** #define CY_GPIO_VOH_SEL_SHIFT                  (0x05UL)   /**< Single SIO pin shift for VOH */
 214:Generated_Source\PSoC6\pdl\drivers\peripheral\gpio/cy_gpio.h **** 
 215:Generated_Source\PSoC6\pdl\drivers\peripheral\gpio/cy_gpio.h **** /* Special mask for SIO pin pair setting */
 216:Generated_Source\PSoC6\pdl\drivers\peripheral\gpio/cy_gpio.h **** #define CY_GPIO_SIO_ODD_PIN_MASK               (0x00FEUL) /**< SIO pin pair selection mask */
 217:Generated_Source\PSoC6\pdl\drivers\peripheral\gpio/cy_gpio.h **** #define CY_GPIO_SIO_PIN_MASK                   (0x00FFUL) /**< SIO pin pair mask */
 218:Generated_Source\PSoC6\pdl\drivers\peripheral\gpio/cy_gpio.h **** 
 219:Generated_Source\PSoC6\pdl\drivers\peripheral\gpio/cy_gpio.h **** /* Offsets */
 220:Generated_Source\PSoC6\pdl\drivers\peripheral\gpio/cy_gpio.h **** #define CY_GPIO_HSIOM_OFFSET                   (3UL)      /**< Offset for HSIOM */
 221:Generated_Source\PSoC6\pdl\drivers\peripheral\gpio/cy_gpio.h **** #define CY_GPIO_DRIVE_MODE_OFFSET              (2UL)      /**< Offset for Drive mode */
 222:Generated_Source\PSoC6\pdl\drivers\peripheral\gpio/cy_gpio.h **** #define CY_GPIO_INBUF_OFFSET                   (3UL)      /**< Offset for input buffer */
 223:Generated_Source\PSoC6\pdl\drivers\peripheral\gpio/cy_gpio.h **** #define CY_GPIO_CFG_OUT_DRIVE_OFFSET           (16UL)     /**< Offset for drive strength */
 224:Generated_Source\PSoC6\pdl\drivers\peripheral\gpio/cy_gpio.h **** #define CY_GPIO_INTR_CFG_OFFSET                (1UL)      /**< Offset for interrupt config */
 225:Generated_Source\PSoC6\pdl\drivers\peripheral\gpio/cy_gpio.h **** #define CY_GPIO_INTR_FILT_OFFSET               (18UL)     /**< Offset for filtered interrupt config
 226:Generated_Source\PSoC6\pdl\drivers\peripheral\gpio/cy_gpio.h **** #define CY_GPIO_CFG_SIO_OFFSET                 (2UL)      /**< Offset for SIO config */
 227:Generated_Source\PSoC6\pdl\drivers\peripheral\gpio/cy_gpio.h **** 
 228:Generated_Source\PSoC6\pdl\drivers\peripheral\gpio/cy_gpio.h **** #define CY_GPIO_ZERO                           (0UL)      /**< Constant zero */
 229:Generated_Source\PSoC6\pdl\drivers\peripheral\gpio/cy_gpio.h **** 
 230:Generated_Source\PSoC6\pdl\drivers\peripheral\gpio/cy_gpio.h **** /** \endcond */
ARM GAS  C:\Users\kiwamu\AppData\Local\Temp\ccUfXRBo.s 			page 7


 231:Generated_Source\PSoC6\pdl\drivers\peripheral\gpio/cy_gpio.h **** 
 232:Generated_Source\PSoC6\pdl\drivers\peripheral\gpio/cy_gpio.h **** 
 233:Generated_Source\PSoC6\pdl\drivers\peripheral\gpio/cy_gpio.h **** /***************************************
 234:Generated_Source\PSoC6\pdl\drivers\peripheral\gpio/cy_gpio.h **** *        Function Constants
 235:Generated_Source\PSoC6\pdl\drivers\peripheral\gpio/cy_gpio.h **** ***************************************/
 236:Generated_Source\PSoC6\pdl\drivers\peripheral\gpio/cy_gpio.h **** 
 237:Generated_Source\PSoC6\pdl\drivers\peripheral\gpio/cy_gpio.h **** /**
 238:Generated_Source\PSoC6\pdl\drivers\peripheral\gpio/cy_gpio.h **** * \addtogroup group_gpio_macros
 239:Generated_Source\PSoC6\pdl\drivers\peripheral\gpio/cy_gpio.h **** * \{
 240:Generated_Source\PSoC6\pdl\drivers\peripheral\gpio/cy_gpio.h **** */
 241:Generated_Source\PSoC6\pdl\drivers\peripheral\gpio/cy_gpio.h **** 
 242:Generated_Source\PSoC6\pdl\drivers\peripheral\gpio/cy_gpio.h **** /**
 243:Generated_Source\PSoC6\pdl\drivers\peripheral\gpio/cy_gpio.h **** * \defgroup group_gpio_driveModes Pin drive mode
 244:Generated_Source\PSoC6\pdl\drivers\peripheral\gpio/cy_gpio.h **** * \{
 245:Generated_Source\PSoC6\pdl\drivers\peripheral\gpio/cy_gpio.h **** * Constants to be used for setting the drive mode of the pin.
 246:Generated_Source\PSoC6\pdl\drivers\peripheral\gpio/cy_gpio.h **** */
 247:Generated_Source\PSoC6\pdl\drivers\peripheral\gpio/cy_gpio.h **** #define CY_GPIO_DM_ANALOG                      (0x00UL) /**< \brief Analog High-Z. Input buffer off
 248:Generated_Source\PSoC6\pdl\drivers\peripheral\gpio/cy_gpio.h **** #define CY_GPIO_DM_PULLUP_IN_OFF               (0x02UL) /**< \brief Resistive Pull-Up. Input buffer
 249:Generated_Source\PSoC6\pdl\drivers\peripheral\gpio/cy_gpio.h **** #define CY_GPIO_DM_PULLDOWN_IN_OFF             (0x03UL) /**< \brief Resistive Pull-Down. Input buff
 250:Generated_Source\PSoC6\pdl\drivers\peripheral\gpio/cy_gpio.h **** #define CY_GPIO_DM_OD_DRIVESLOW_IN_OFF         (0x04UL) /**< \brief Open Drain, Drives Low. Input b
 251:Generated_Source\PSoC6\pdl\drivers\peripheral\gpio/cy_gpio.h **** #define CY_GPIO_DM_OD_DRIVESHIGH_IN_OFF        (0x05UL) /**< \brief Open Drain, Drives High. Input 
 252:Generated_Source\PSoC6\pdl\drivers\peripheral\gpio/cy_gpio.h **** #define CY_GPIO_DM_STRONG_IN_OFF               (0x06UL) /**< \brief Strong Drive. Input buffer off 
 253:Generated_Source\PSoC6\pdl\drivers\peripheral\gpio/cy_gpio.h **** #define CY_GPIO_DM_PULLUP_DOWN_IN_OFF          (0x07UL) /**< \brief Resistive Pull-Up/Down. Input b
 254:Generated_Source\PSoC6\pdl\drivers\peripheral\gpio/cy_gpio.h **** #define CY_GPIO_DM_HIGHZ                       (0x08UL) /**< \brief Digital High-Z. Input buffer on
 255:Generated_Source\PSoC6\pdl\drivers\peripheral\gpio/cy_gpio.h **** #define CY_GPIO_DM_PULLUP                      (0x0AUL) /**< \brief Resistive Pull-Up. Input buffer
 256:Generated_Source\PSoC6\pdl\drivers\peripheral\gpio/cy_gpio.h **** #define CY_GPIO_DM_PULLDOWN                    (0x0BUL) /**< \brief Resistive Pull-Down. Input buff
 257:Generated_Source\PSoC6\pdl\drivers\peripheral\gpio/cy_gpio.h **** #define CY_GPIO_DM_OD_DRIVESLOW                (0x0CUL) /**< \brief Open Drain, Drives Low. Input b
 258:Generated_Source\PSoC6\pdl\drivers\peripheral\gpio/cy_gpio.h **** #define CY_GPIO_DM_OD_DRIVESHIGH               (0x0DUL) /**< \brief Open Drain, Drives High. Input 
 259:Generated_Source\PSoC6\pdl\drivers\peripheral\gpio/cy_gpio.h **** #define CY_GPIO_DM_STRONG                      (0x0EUL) /**< \brief Strong Drive. Input buffer on *
 260:Generated_Source\PSoC6\pdl\drivers\peripheral\gpio/cy_gpio.h **** #define CY_GPIO_DM_PULLUP_DOWN                 (0x0FUL) /**< \brief Resistive Pull-Up/Down. Input b
 261:Generated_Source\PSoC6\pdl\drivers\peripheral\gpio/cy_gpio.h **** /** \} */
 262:Generated_Source\PSoC6\pdl\drivers\peripheral\gpio/cy_gpio.h **** 
 263:Generated_Source\PSoC6\pdl\drivers\peripheral\gpio/cy_gpio.h **** /**
 264:Generated_Source\PSoC6\pdl\drivers\peripheral\gpio/cy_gpio.h **** * \defgroup group_gpio_vtrip Voltage trip mode
 265:Generated_Source\PSoC6\pdl\drivers\peripheral\gpio/cy_gpio.h **** * \{
 266:Generated_Source\PSoC6\pdl\drivers\peripheral\gpio/cy_gpio.h **** * Constants to be used for setting the voltage trip type on the pin.
 267:Generated_Source\PSoC6\pdl\drivers\peripheral\gpio/cy_gpio.h **** */
 268:Generated_Source\PSoC6\pdl\drivers\peripheral\gpio/cy_gpio.h **** #define CY_GPIO_VTRIP_CMOS                     (0x00UL) /**< \brief Input buffer compatible with CM
 269:Generated_Source\PSoC6\pdl\drivers\peripheral\gpio/cy_gpio.h **** #define CY_GPIO_VTRIP_TTL                      (0x01UL) /**< \brief Input buffer compatible with TT
 270:Generated_Source\PSoC6\pdl\drivers\peripheral\gpio/cy_gpio.h **** /** \} */
 271:Generated_Source\PSoC6\pdl\drivers\peripheral\gpio/cy_gpio.h **** 
 272:Generated_Source\PSoC6\pdl\drivers\peripheral\gpio/cy_gpio.h **** /**
 273:Generated_Source\PSoC6\pdl\drivers\peripheral\gpio/cy_gpio.h **** * \defgroup group_gpio_slewRate Slew Rate Mode
 274:Generated_Source\PSoC6\pdl\drivers\peripheral\gpio/cy_gpio.h **** * \{
 275:Generated_Source\PSoC6\pdl\drivers\peripheral\gpio/cy_gpio.h **** * Constants to be used for setting the slew rate of the pin.
 276:Generated_Source\PSoC6\pdl\drivers\peripheral\gpio/cy_gpio.h **** */
 277:Generated_Source\PSoC6\pdl\drivers\peripheral\gpio/cy_gpio.h **** #define CY_GPIO_SLEW_FAST                      (0x00UL) /**< \brief Fast slew rate */
 278:Generated_Source\PSoC6\pdl\drivers\peripheral\gpio/cy_gpio.h **** #define CY_GPIO_SLEW_SLOW                      (0x01UL) /**< \brief Slow slew rate */
 279:Generated_Source\PSoC6\pdl\drivers\peripheral\gpio/cy_gpio.h **** /** \} */
 280:Generated_Source\PSoC6\pdl\drivers\peripheral\gpio/cy_gpio.h **** 
 281:Generated_Source\PSoC6\pdl\drivers\peripheral\gpio/cy_gpio.h **** /**
 282:Generated_Source\PSoC6\pdl\drivers\peripheral\gpio/cy_gpio.h **** * \defgroup group_gpio_driveStrength Pin drive strength
 283:Generated_Source\PSoC6\pdl\drivers\peripheral\gpio/cy_gpio.h **** * \{
 284:Generated_Source\PSoC6\pdl\drivers\peripheral\gpio/cy_gpio.h **** * Constants to be used for setting the drive strength of the pin.
 285:Generated_Source\PSoC6\pdl\drivers\peripheral\gpio/cy_gpio.h **** */
 286:Generated_Source\PSoC6\pdl\drivers\peripheral\gpio/cy_gpio.h **** #define CY_GPIO_DRIVE_FULL                     (0x00UL) /**< \brief Full drive strength: Max drive 
 287:Generated_Source\PSoC6\pdl\drivers\peripheral\gpio/cy_gpio.h **** #define CY_GPIO_DRIVE_1_2                      (0x01UL) /**< \brief 1/2 drive strength: 1/2 drive c
ARM GAS  C:\Users\kiwamu\AppData\Local\Temp\ccUfXRBo.s 			page 8


 288:Generated_Source\PSoC6\pdl\drivers\peripheral\gpio/cy_gpio.h **** #define CY_GPIO_DRIVE_1_4                      (0x02UL) /**< \brief 1/4 drive strength: 1/4 drive c
 289:Generated_Source\PSoC6\pdl\drivers\peripheral\gpio/cy_gpio.h **** #define CY_GPIO_DRIVE_1_8                      (0x03UL) /**< \brief 1/8 drive strength: 1/8 drive c
 290:Generated_Source\PSoC6\pdl\drivers\peripheral\gpio/cy_gpio.h **** /** \} */
 291:Generated_Source\PSoC6\pdl\drivers\peripheral\gpio/cy_gpio.h **** 
 292:Generated_Source\PSoC6\pdl\drivers\peripheral\gpio/cy_gpio.h **** /**
 293:Generated_Source\PSoC6\pdl\drivers\peripheral\gpio/cy_gpio.h **** * \defgroup group_gpio_interruptTrigger Interrupt trigger type
 294:Generated_Source\PSoC6\pdl\drivers\peripheral\gpio/cy_gpio.h **** * \{
 295:Generated_Source\PSoC6\pdl\drivers\peripheral\gpio/cy_gpio.h **** * Constants to be used for setting the interrupt trigger type on the pin.
 296:Generated_Source\PSoC6\pdl\drivers\peripheral\gpio/cy_gpio.h **** */
 297:Generated_Source\PSoC6\pdl\drivers\peripheral\gpio/cy_gpio.h **** #define CY_GPIO_INTR_DISABLE                   (0x00UL) /**< \brief Disable the pin interrupt gener
 298:Generated_Source\PSoC6\pdl\drivers\peripheral\gpio/cy_gpio.h **** #define CY_GPIO_INTR_RISING                    (0x01UL) /**< \brief Rising-Edge interrupt */
 299:Generated_Source\PSoC6\pdl\drivers\peripheral\gpio/cy_gpio.h **** #define CY_GPIO_INTR_FALLING                   (0x02UL) /**< \brief Falling-Edge interrupt */
 300:Generated_Source\PSoC6\pdl\drivers\peripheral\gpio/cy_gpio.h **** #define CY_GPIO_INTR_BOTH                      (0x03UL) /**< \brief Both-Edge interrupt */
 301:Generated_Source\PSoC6\pdl\drivers\peripheral\gpio/cy_gpio.h **** /** \} */
 302:Generated_Source\PSoC6\pdl\drivers\peripheral\gpio/cy_gpio.h **** 
 303:Generated_Source\PSoC6\pdl\drivers\peripheral\gpio/cy_gpio.h **** /**
 304:Generated_Source\PSoC6\pdl\drivers\peripheral\gpio/cy_gpio.h **** * \defgroup group_gpio_sioVreg SIO output buffer mode
 305:Generated_Source\PSoC6\pdl\drivers\peripheral\gpio/cy_gpio.h **** * \{
 306:Generated_Source\PSoC6\pdl\drivers\peripheral\gpio/cy_gpio.h **** * Constants to be used for setting the SIO output buffer mode on the pin.
 307:Generated_Source\PSoC6\pdl\drivers\peripheral\gpio/cy_gpio.h **** */
 308:Generated_Source\PSoC6\pdl\drivers\peripheral\gpio/cy_gpio.h **** #define CY_SIO_VREG_UNREGULATED                (0x00UL) /**< \brief Unregulated output buffer */
 309:Generated_Source\PSoC6\pdl\drivers\peripheral\gpio/cy_gpio.h **** #define CY_SIO_VREG_REGULATED                  (0x01UL) /**< \brief Regulated output buffer */
 310:Generated_Source\PSoC6\pdl\drivers\peripheral\gpio/cy_gpio.h **** /** \} */
 311:Generated_Source\PSoC6\pdl\drivers\peripheral\gpio/cy_gpio.h **** 
 312:Generated_Source\PSoC6\pdl\drivers\peripheral\gpio/cy_gpio.h **** /**
 313:Generated_Source\PSoC6\pdl\drivers\peripheral\gpio/cy_gpio.h **** * \defgroup group_gpio_sioIbuf SIO input buffer mode
 314:Generated_Source\PSoC6\pdl\drivers\peripheral\gpio/cy_gpio.h **** * \{
 315:Generated_Source\PSoC6\pdl\drivers\peripheral\gpio/cy_gpio.h **** * Constants to be used for setting the SIO input buffer mode on the pin.
 316:Generated_Source\PSoC6\pdl\drivers\peripheral\gpio/cy_gpio.h **** */
 317:Generated_Source\PSoC6\pdl\drivers\peripheral\gpio/cy_gpio.h **** #define CY_SIO_IBUF_SINGLEENDED                (0x00UL) /**< \brief Single ended input buffer */
 318:Generated_Source\PSoC6\pdl\drivers\peripheral\gpio/cy_gpio.h **** #define CY_SIO_IBUF_DIFFERENTIAL               (0x01UL) /**< \brief Differential input buffer */
 319:Generated_Source\PSoC6\pdl\drivers\peripheral\gpio/cy_gpio.h **** /** \} */
 320:Generated_Source\PSoC6\pdl\drivers\peripheral\gpio/cy_gpio.h **** 
 321:Generated_Source\PSoC6\pdl\drivers\peripheral\gpio/cy_gpio.h **** /**
 322:Generated_Source\PSoC6\pdl\drivers\peripheral\gpio/cy_gpio.h **** * \defgroup group_gpio_sioVtrip SIO input buffer trip-point
 323:Generated_Source\PSoC6\pdl\drivers\peripheral\gpio/cy_gpio.h **** * \{
 324:Generated_Source\PSoC6\pdl\drivers\peripheral\gpio/cy_gpio.h **** * Constants to be used for setting the SIO input buffer trip-point of the pin.
 325:Generated_Source\PSoC6\pdl\drivers\peripheral\gpio/cy_gpio.h **** */
 326:Generated_Source\PSoC6\pdl\drivers\peripheral\gpio/cy_gpio.h **** #define CY_SIO_VTRIP_CMOS                      (0x00UL) /**< \brief CMOS input buffer (single-ended
 327:Generated_Source\PSoC6\pdl\drivers\peripheral\gpio/cy_gpio.h **** #define CY_SIO_VTRIP_TTL                       (0x01UL) /**< \brief TTL input buffer (single-ended)
 328:Generated_Source\PSoC6\pdl\drivers\peripheral\gpio/cy_gpio.h **** #define CY_SIO_VTRIP_0_5VDDIO_0_5VOH           (0x00UL) /**< \brief 0.5xVddio or 0.5xVoh (different
 329:Generated_Source\PSoC6\pdl\drivers\peripheral\gpio/cy_gpio.h **** #define CY_SIO_VTRIP_0_4VDDIO_1_0VREF          (0x01UL) /**< \brief 0.4xVddio or 0.4xVoh (different
 330:Generated_Source\PSoC6\pdl\drivers\peripheral\gpio/cy_gpio.h **** /** \} */
 331:Generated_Source\PSoC6\pdl\drivers\peripheral\gpio/cy_gpio.h **** 
 332:Generated_Source\PSoC6\pdl\drivers\peripheral\gpio/cy_gpio.h **** /**
 333:Generated_Source\PSoC6\pdl\drivers\peripheral\gpio/cy_gpio.h **** * \defgroup group_gpio_sioVref SIO reference voltage for input buffer trip-point
 334:Generated_Source\PSoC6\pdl\drivers\peripheral\gpio/cy_gpio.h **** * \{
 335:Generated_Source\PSoC6\pdl\drivers\peripheral\gpio/cy_gpio.h **** * Constants to be used for setting the reference voltage of SIO input buffer trip-point.
 336:Generated_Source\PSoC6\pdl\drivers\peripheral\gpio/cy_gpio.h **** */
 337:Generated_Source\PSoC6\pdl\drivers\peripheral\gpio/cy_gpio.h **** #define CY_SIO_VREF_PINREF                     (0x00UL) /**< \brief Vref from analog pin */
 338:Generated_Source\PSoC6\pdl\drivers\peripheral\gpio/cy_gpio.h **** #define CY_SIO_VREF_1_2V                       (0x01UL) /**< \brief Vref from internal 1.2V referen
 339:Generated_Source\PSoC6\pdl\drivers\peripheral\gpio/cy_gpio.h **** #define CY_SIO_VREF_AMUX_A                     (0x02UL) /**< \brief Vref from AMUXBUS_A */
 340:Generated_Source\PSoC6\pdl\drivers\peripheral\gpio/cy_gpio.h **** #define CY_SIO_VREF_AMUX_B                     (0x03UL) /**< \brief Vref from AMUXBUS_B */
 341:Generated_Source\PSoC6\pdl\drivers\peripheral\gpio/cy_gpio.h **** /** \} */
 342:Generated_Source\PSoC6\pdl\drivers\peripheral\gpio/cy_gpio.h **** 
 343:Generated_Source\PSoC6\pdl\drivers\peripheral\gpio/cy_gpio.h **** /**
 344:Generated_Source\PSoC6\pdl\drivers\peripheral\gpio/cy_gpio.h **** * \defgroup group_gpio_sioVoh Regulated output voltage level (Voh) and input buffer trip-point of a
ARM GAS  C:\Users\kiwamu\AppData\Local\Temp\ccUfXRBo.s 			page 9


 345:Generated_Source\PSoC6\pdl\drivers\peripheral\gpio/cy_gpio.h **** * \{
 346:Generated_Source\PSoC6\pdl\drivers\peripheral\gpio/cy_gpio.h **** * Constants to be used for setting the Voh and input buffer trip-point of an SIO pair
 347:Generated_Source\PSoC6\pdl\drivers\peripheral\gpio/cy_gpio.h **** */
 348:Generated_Source\PSoC6\pdl\drivers\peripheral\gpio/cy_gpio.h **** #define CY_SIO_VOH_1_00                        (0x00UL) /**< \brief Voh = 1 x Reference */
 349:Generated_Source\PSoC6\pdl\drivers\peripheral\gpio/cy_gpio.h **** #define CY_SIO_VOH_1_25                        (0x01UL) /**< \brief Voh = 1.25 x Reference */
 350:Generated_Source\PSoC6\pdl\drivers\peripheral\gpio/cy_gpio.h **** #define CY_SIO_VOH_1_49                        (0x02UL) /**< \brief Voh = 1.49 x Reference */
 351:Generated_Source\PSoC6\pdl\drivers\peripheral\gpio/cy_gpio.h **** #define CY_SIO_VOH_1_67                        (0x03UL) /**< \brief Voh = 1.67 x Reference */
 352:Generated_Source\PSoC6\pdl\drivers\peripheral\gpio/cy_gpio.h **** #define CY_SIO_VOH_2_08                        (0x04UL) /**< \brief Voh = 2.08 x Reference */
 353:Generated_Source\PSoC6\pdl\drivers\peripheral\gpio/cy_gpio.h **** #define CY_SIO_VOH_2_50                        (0x05UL) /**< \brief Voh = 2.50 x Reference */
 354:Generated_Source\PSoC6\pdl\drivers\peripheral\gpio/cy_gpio.h **** #define CY_SIO_VOH_2_78                        (0x06UL) /**< \brief Voh = 2.78 x Reference */
 355:Generated_Source\PSoC6\pdl\drivers\peripheral\gpio/cy_gpio.h **** #define CY_SIO_VOH_4_16                        (0x07UL) /**< \brief Voh = 4.16 x Reference */
 356:Generated_Source\PSoC6\pdl\drivers\peripheral\gpio/cy_gpio.h **** /** \} */
 357:Generated_Source\PSoC6\pdl\drivers\peripheral\gpio/cy_gpio.h **** 
 358:Generated_Source\PSoC6\pdl\drivers\peripheral\gpio/cy_gpio.h **** /** \} group_gpio_macros */
 359:Generated_Source\PSoC6\pdl\drivers\peripheral\gpio/cy_gpio.h **** 
 360:Generated_Source\PSoC6\pdl\drivers\peripheral\gpio/cy_gpio.h **** /***************************************
 361:Generated_Source\PSoC6\pdl\drivers\peripheral\gpio/cy_gpio.h **** *        Function Prototypes
 362:Generated_Source\PSoC6\pdl\drivers\peripheral\gpio/cy_gpio.h **** ***************************************/
 363:Generated_Source\PSoC6\pdl\drivers\peripheral\gpio/cy_gpio.h **** 
 364:Generated_Source\PSoC6\pdl\drivers\peripheral\gpio/cy_gpio.h **** /**
 365:Generated_Source\PSoC6\pdl\drivers\peripheral\gpio/cy_gpio.h **** * \addtogroup group_gpio_functions
 366:Generated_Source\PSoC6\pdl\drivers\peripheral\gpio/cy_gpio.h **** * \{
 367:Generated_Source\PSoC6\pdl\drivers\peripheral\gpio/cy_gpio.h **** */
 368:Generated_Source\PSoC6\pdl\drivers\peripheral\gpio/cy_gpio.h **** 
 369:Generated_Source\PSoC6\pdl\drivers\peripheral\gpio/cy_gpio.h **** /**
 370:Generated_Source\PSoC6\pdl\drivers\peripheral\gpio/cy_gpio.h **** * \addtogroup group_gpio_functions_init
 371:Generated_Source\PSoC6\pdl\drivers\peripheral\gpio/cy_gpio.h **** * \{
 372:Generated_Source\PSoC6\pdl\drivers\peripheral\gpio/cy_gpio.h **** */
 373:Generated_Source\PSoC6\pdl\drivers\peripheral\gpio/cy_gpio.h **** 
 374:Generated_Source\PSoC6\pdl\drivers\peripheral\gpio/cy_gpio.h **** cy_en_gpio_status_t Cy_GPIO_Pin_Init(GPIO_PRT_Type* base, uint32_t pinNum, const cy_stc_gpio_pin_co
 375:Generated_Source\PSoC6\pdl\drivers\peripheral\gpio/cy_gpio.h **** cy_en_gpio_status_t Cy_GPIO_Port_Init(GPIO_PRT_Type* base, const cy_stc_gpio_prt_config_t *config);
 376:Generated_Source\PSoC6\pdl\drivers\peripheral\gpio/cy_gpio.h **** __STATIC_INLINE void Cy_GPIO_Pin_FastInit(GPIO_PRT_Type* base, uint32_t pinNum, uint32_t driveMode,
 377:Generated_Source\PSoC6\pdl\drivers\peripheral\gpio/cy_gpio.h ****                                         uint32_t outVal, en_hsiom_sel_t hsiom);
 378:Generated_Source\PSoC6\pdl\drivers\peripheral\gpio/cy_gpio.h **** __STATIC_INLINE void Cy_GPIO_Port_Deinit(GPIO_PRT_Type* base);
 379:Generated_Source\PSoC6\pdl\drivers\peripheral\gpio/cy_gpio.h **** __STATIC_INLINE void Cy_GPIO_SetHSIOM(GPIO_PRT_Type* base, uint32_t pinNum, en_hsiom_sel_t value);
 380:Generated_Source\PSoC6\pdl\drivers\peripheral\gpio/cy_gpio.h **** __STATIC_INLINE en_hsiom_sel_t Cy_GPIO_GetHSIOM(GPIO_PRT_Type* base, uint32_t pinNum);
 381:Generated_Source\PSoC6\pdl\drivers\peripheral\gpio/cy_gpio.h **** __STATIC_INLINE GPIO_PRT_Type* Cy_GPIO_PortToAddr(uint32_t portNum);
 382:Generated_Source\PSoC6\pdl\drivers\peripheral\gpio/cy_gpio.h **** 
 383:Generated_Source\PSoC6\pdl\drivers\peripheral\gpio/cy_gpio.h **** /** \} group_gpio_functions_init */
 384:Generated_Source\PSoC6\pdl\drivers\peripheral\gpio/cy_gpio.h **** 
 385:Generated_Source\PSoC6\pdl\drivers\peripheral\gpio/cy_gpio.h **** /**
 386:Generated_Source\PSoC6\pdl\drivers\peripheral\gpio/cy_gpio.h **** * \addtogroup group_gpio_functions_gpio
 387:Generated_Source\PSoC6\pdl\drivers\peripheral\gpio/cy_gpio.h **** * \{
 388:Generated_Source\PSoC6\pdl\drivers\peripheral\gpio/cy_gpio.h **** */
 389:Generated_Source\PSoC6\pdl\drivers\peripheral\gpio/cy_gpio.h **** 
 390:Generated_Source\PSoC6\pdl\drivers\peripheral\gpio/cy_gpio.h **** __STATIC_INLINE uint32_t Cy_GPIO_Read(GPIO_PRT_Type* base, uint32_t pinNum);
 391:Generated_Source\PSoC6\pdl\drivers\peripheral\gpio/cy_gpio.h **** __STATIC_INLINE void Cy_GPIO_Write(GPIO_PRT_Type* base, uint32_t pinNum, uint32_t value);
 392:Generated_Source\PSoC6\pdl\drivers\peripheral\gpio/cy_gpio.h **** __STATIC_INLINE uint32_t Cy_GPIO_ReadOut(GPIO_PRT_Type* base, uint32_t pinNum);
 393:Generated_Source\PSoC6\pdl\drivers\peripheral\gpio/cy_gpio.h **** __STATIC_INLINE void Cy_GPIO_Set(GPIO_PRT_Type* base, uint32_t pinNum);
 394:Generated_Source\PSoC6\pdl\drivers\peripheral\gpio/cy_gpio.h **** __STATIC_INLINE void Cy_GPIO_Clr(GPIO_PRT_Type* base, uint32_t pinNum);
 395:Generated_Source\PSoC6\pdl\drivers\peripheral\gpio/cy_gpio.h **** __STATIC_INLINE void Cy_GPIO_Inv(GPIO_PRT_Type* base, uint32_t pinNum);
 396:Generated_Source\PSoC6\pdl\drivers\peripheral\gpio/cy_gpio.h **** __STATIC_INLINE void Cy_GPIO_SetDrivemode(GPIO_PRT_Type* base, uint32_t pinNum, uint32_t value);
 397:Generated_Source\PSoC6\pdl\drivers\peripheral\gpio/cy_gpio.h **** __STATIC_INLINE uint32_t Cy_GPIO_GetDrivemode(GPIO_PRT_Type* base, uint32_t pinNum);
 398:Generated_Source\PSoC6\pdl\drivers\peripheral\gpio/cy_gpio.h **** __STATIC_INLINE void Cy_GPIO_SetVtrip(GPIO_PRT_Type* base, uint32_t pinNum, uint32_t value);
 399:Generated_Source\PSoC6\pdl\drivers\peripheral\gpio/cy_gpio.h **** __STATIC_INLINE uint32_t Cy_GPIO_GetVtrip(GPIO_PRT_Type* base, uint32_t pinNum);
 400:Generated_Source\PSoC6\pdl\drivers\peripheral\gpio/cy_gpio.h **** __STATIC_INLINE void Cy_GPIO_SetSlewRate(GPIO_PRT_Type* base, uint32_t pinNum, uint32_t value);
 401:Generated_Source\PSoC6\pdl\drivers\peripheral\gpio/cy_gpio.h **** __STATIC_INLINE uint32_t Cy_GPIO_GetSlewRate(GPIO_PRT_Type* base, uint32_t pinNum);
ARM GAS  C:\Users\kiwamu\AppData\Local\Temp\ccUfXRBo.s 			page 10


 402:Generated_Source\PSoC6\pdl\drivers\peripheral\gpio/cy_gpio.h **** __STATIC_INLINE void Cy_GPIO_SetDriveSel(GPIO_PRT_Type* base, uint32_t pinNum, uint32_t value);
 403:Generated_Source\PSoC6\pdl\drivers\peripheral\gpio/cy_gpio.h **** __STATIC_INLINE uint32_t Cy_GPIO_GetDriveSel(GPIO_PRT_Type* base, uint32_t pinNum);
 404:Generated_Source\PSoC6\pdl\drivers\peripheral\gpio/cy_gpio.h **** 
 405:Generated_Source\PSoC6\pdl\drivers\peripheral\gpio/cy_gpio.h **** /** \} group_gpio_functions_gpio */
 406:Generated_Source\PSoC6\pdl\drivers\peripheral\gpio/cy_gpio.h **** 
 407:Generated_Source\PSoC6\pdl\drivers\peripheral\gpio/cy_gpio.h **** /**
 408:Generated_Source\PSoC6\pdl\drivers\peripheral\gpio/cy_gpio.h **** * \addtogroup group_gpio_functions_sio
 409:Generated_Source\PSoC6\pdl\drivers\peripheral\gpio/cy_gpio.h **** * \{
 410:Generated_Source\PSoC6\pdl\drivers\peripheral\gpio/cy_gpio.h **** */
 411:Generated_Source\PSoC6\pdl\drivers\peripheral\gpio/cy_gpio.h **** 
 412:Generated_Source\PSoC6\pdl\drivers\peripheral\gpio/cy_gpio.h **** __STATIC_INLINE void Cy_GPIO_SetVregEn(GPIO_PRT_Type* base, uint32_t pinNum, uint32_t value);
 413:Generated_Source\PSoC6\pdl\drivers\peripheral\gpio/cy_gpio.h **** __STATIC_INLINE uint32_t Cy_GPIO_GetVregEn(GPIO_PRT_Type* base, uint32_t pinNum);
 414:Generated_Source\PSoC6\pdl\drivers\peripheral\gpio/cy_gpio.h **** __STATIC_INLINE void Cy_GPIO_SetIbufMode(GPIO_PRT_Type* base, uint32_t pinNum, uint32_t value);
 415:Generated_Source\PSoC6\pdl\drivers\peripheral\gpio/cy_gpio.h **** __STATIC_INLINE uint32_t Cy_GPIO_GetIbufMode(GPIO_PRT_Type* base, uint32_t pinNum);
 416:Generated_Source\PSoC6\pdl\drivers\peripheral\gpio/cy_gpio.h **** __STATIC_INLINE void Cy_GPIO_SetVtripSel(GPIO_PRT_Type* base, uint32_t pinNum, uint32_t value);
 417:Generated_Source\PSoC6\pdl\drivers\peripheral\gpio/cy_gpio.h **** __STATIC_INLINE uint32_t Cy_GPIO_GetVtripSel(GPIO_PRT_Type* base, uint32_t pinNum);
 418:Generated_Source\PSoC6\pdl\drivers\peripheral\gpio/cy_gpio.h **** __STATIC_INLINE void Cy_GPIO_SetVrefSel(GPIO_PRT_Type* base, uint32_t pinNum, uint32_t value);
 419:Generated_Source\PSoC6\pdl\drivers\peripheral\gpio/cy_gpio.h **** __STATIC_INLINE uint32_t Cy_GPIO_GetVrefSel(GPIO_PRT_Type* base, uint32_t pinNum);
 420:Generated_Source\PSoC6\pdl\drivers\peripheral\gpio/cy_gpio.h **** __STATIC_INLINE void Cy_GPIO_SetVohSel(GPIO_PRT_Type* base, uint32_t pinNum, uint32_t value);
 421:Generated_Source\PSoC6\pdl\drivers\peripheral\gpio/cy_gpio.h **** __STATIC_INLINE uint32_t Cy_GPIO_GetVohSel(GPIO_PRT_Type* base, uint32_t pinNum);
 422:Generated_Source\PSoC6\pdl\drivers\peripheral\gpio/cy_gpio.h **** 
 423:Generated_Source\PSoC6\pdl\drivers\peripheral\gpio/cy_gpio.h **** /** \} group_gpio_functions_sio */
 424:Generated_Source\PSoC6\pdl\drivers\peripheral\gpio/cy_gpio.h **** 
 425:Generated_Source\PSoC6\pdl\drivers\peripheral\gpio/cy_gpio.h **** /**
 426:Generated_Source\PSoC6\pdl\drivers\peripheral\gpio/cy_gpio.h **** * \addtogroup group_gpio_functions_interrupt
 427:Generated_Source\PSoC6\pdl\drivers\peripheral\gpio/cy_gpio.h **** * \{
 428:Generated_Source\PSoC6\pdl\drivers\peripheral\gpio/cy_gpio.h **** */
 429:Generated_Source\PSoC6\pdl\drivers\peripheral\gpio/cy_gpio.h **** 
 430:Generated_Source\PSoC6\pdl\drivers\peripheral\gpio/cy_gpio.h **** __STATIC_INLINE uint32_t Cy_GPIO_GetInterruptStatus(GPIO_PRT_Type* base, uint32_t pinNum);
 431:Generated_Source\PSoC6\pdl\drivers\peripheral\gpio/cy_gpio.h **** __STATIC_INLINE void Cy_GPIO_ClearInterrupt(GPIO_PRT_Type* base, uint32_t pinNum);
 432:Generated_Source\PSoC6\pdl\drivers\peripheral\gpio/cy_gpio.h **** __STATIC_INLINE void Cy_GPIO_SetInterruptMask(GPIO_PRT_Type* base, uint32_t pinNum, uint32_t value)
 433:Generated_Source\PSoC6\pdl\drivers\peripheral\gpio/cy_gpio.h **** __STATIC_INLINE uint32_t Cy_GPIO_GetInterruptMask(GPIO_PRT_Type* base, uint32_t pinNum);
 434:Generated_Source\PSoC6\pdl\drivers\peripheral\gpio/cy_gpio.h **** __STATIC_INLINE uint32_t Cy_GPIO_GetInterruptStatusMasked(GPIO_PRT_Type* base, uint32_t pinNum);
 435:Generated_Source\PSoC6\pdl\drivers\peripheral\gpio/cy_gpio.h **** __STATIC_INLINE void Cy_GPIO_SetSwInterrupt(GPIO_PRT_Type* base, uint32_t pinNum);
 436:Generated_Source\PSoC6\pdl\drivers\peripheral\gpio/cy_gpio.h **** __STATIC_INLINE void Cy_GPIO_SetInterruptEdge(GPIO_PRT_Type* base, uint32_t pinNum, uint32_t value)
 437:Generated_Source\PSoC6\pdl\drivers\peripheral\gpio/cy_gpio.h **** __STATIC_INLINE uint32_t Cy_GPIO_GetInterruptEdge(GPIO_PRT_Type* base, uint32_t pinNum);
 438:Generated_Source\PSoC6\pdl\drivers\peripheral\gpio/cy_gpio.h **** __STATIC_INLINE void Cy_GPIO_SetFilter(GPIO_PRT_Type* base, uint32_t value);
 439:Generated_Source\PSoC6\pdl\drivers\peripheral\gpio/cy_gpio.h **** __STATIC_INLINE uint32_t Cy_GPIO_GetFilter(GPIO_PRT_Type* base);
 440:Generated_Source\PSoC6\pdl\drivers\peripheral\gpio/cy_gpio.h **** 
 441:Generated_Source\PSoC6\pdl\drivers\peripheral\gpio/cy_gpio.h **** #if (IOSS_GPIO_GPIO_PORT_NR_0_31 != 0) || defined (CY_DOXYGEN)
 442:Generated_Source\PSoC6\pdl\drivers\peripheral\gpio/cy_gpio.h **** __STATIC_INLINE uint32_t Cy_GPIO_GetInterruptCause0(void);
 443:Generated_Source\PSoC6\pdl\drivers\peripheral\gpio/cy_gpio.h **** #endif /* (IOSS_GPIO_GPIO_PORT_NR_0_31 != 0) */
 444:Generated_Source\PSoC6\pdl\drivers\peripheral\gpio/cy_gpio.h **** 
 445:Generated_Source\PSoC6\pdl\drivers\peripheral\gpio/cy_gpio.h **** #if (IOSS_GPIO_GPIO_PORT_NR_32_63 != 0) || defined (CY_DOXYGEN)
 446:Generated_Source\PSoC6\pdl\drivers\peripheral\gpio/cy_gpio.h **** __STATIC_INLINE uint32_t Cy_GPIO_GetInterruptCause1(void);
 447:Generated_Source\PSoC6\pdl\drivers\peripheral\gpio/cy_gpio.h **** #endif /* (IOSS_GPIO_GPIO_PORT_NR_32_63 != 0) */
 448:Generated_Source\PSoC6\pdl\drivers\peripheral\gpio/cy_gpio.h **** 
 449:Generated_Source\PSoC6\pdl\drivers\peripheral\gpio/cy_gpio.h **** #if (IOSS_GPIO_GPIO_PORT_NR_64_95 != 0) || defined (CY_DOXYGEN)
 450:Generated_Source\PSoC6\pdl\drivers\peripheral\gpio/cy_gpio.h **** __STATIC_INLINE uint32_t Cy_GPIO_GetInterruptCause2(void);
 451:Generated_Source\PSoC6\pdl\drivers\peripheral\gpio/cy_gpio.h **** #endif /* (IOSS_GPIO_GPIO_PORT_NR_64_95 != 0) */
 452:Generated_Source\PSoC6\pdl\drivers\peripheral\gpio/cy_gpio.h **** 
 453:Generated_Source\PSoC6\pdl\drivers\peripheral\gpio/cy_gpio.h **** #if (IOSS_GPIO_GPIO_PORT_NR_96_127 != 0) || defined (CY_DOXYGEN)
 454:Generated_Source\PSoC6\pdl\drivers\peripheral\gpio/cy_gpio.h **** __STATIC_INLINE uint32_t Cy_GPIO_GetInterruptCause3(void);
 455:Generated_Source\PSoC6\pdl\drivers\peripheral\gpio/cy_gpio.h **** #endif /* (IOSS_GPIO_GPIO_PORT_NR_96_127 != 0) */
 456:Generated_Source\PSoC6\pdl\drivers\peripheral\gpio/cy_gpio.h **** 
 457:Generated_Source\PSoC6\pdl\drivers\peripheral\gpio/cy_gpio.h **** /** \} group_gpio_functions_interrupt */
 458:Generated_Source\PSoC6\pdl\drivers\peripheral\gpio/cy_gpio.h **** 
ARM GAS  C:\Users\kiwamu\AppData\Local\Temp\ccUfXRBo.s 			page 11


 459:Generated_Source\PSoC6\pdl\drivers\peripheral\gpio/cy_gpio.h **** 
 460:Generated_Source\PSoC6\pdl\drivers\peripheral\gpio/cy_gpio.h **** /**
 461:Generated_Source\PSoC6\pdl\drivers\peripheral\gpio/cy_gpio.h **** * \addtogroup group_gpio_functions_init
 462:Generated_Source\PSoC6\pdl\drivers\peripheral\gpio/cy_gpio.h **** * \{
 463:Generated_Source\PSoC6\pdl\drivers\peripheral\gpio/cy_gpio.h **** */
 464:Generated_Source\PSoC6\pdl\drivers\peripheral\gpio/cy_gpio.h **** 
 465:Generated_Source\PSoC6\pdl\drivers\peripheral\gpio/cy_gpio.h **** /*******************************************************************************
 466:Generated_Source\PSoC6\pdl\drivers\peripheral\gpio/cy_gpio.h **** * Function Name: Cy_GPIO_Pin_FastInit
 467:Generated_Source\PSoC6\pdl\drivers\peripheral\gpio/cy_gpio.h **** ****************************************************************************//**
 468:Generated_Source\PSoC6\pdl\drivers\peripheral\gpio/cy_gpio.h **** *
 469:Generated_Source\PSoC6\pdl\drivers\peripheral\gpio/cy_gpio.h **** * \brief Initialize the most common configuration settings for all pin types.
 470:Generated_Source\PSoC6\pdl\drivers\peripheral\gpio/cy_gpio.h **** *
 471:Generated_Source\PSoC6\pdl\drivers\peripheral\gpio/cy_gpio.h **** * These include, drive mode, initial output value, and HSIOM connection.
 472:Generated_Source\PSoC6\pdl\drivers\peripheral\gpio/cy_gpio.h **** *
 473:Generated_Source\PSoC6\pdl\drivers\peripheral\gpio/cy_gpio.h **** * \param base
 474:Generated_Source\PSoC6\pdl\drivers\peripheral\gpio/cy_gpio.h **** * Pointer to the pin's port register base address
 475:Generated_Source\PSoC6\pdl\drivers\peripheral\gpio/cy_gpio.h **** *
 476:Generated_Source\PSoC6\pdl\drivers\peripheral\gpio/cy_gpio.h **** * \param pinNum
 477:Generated_Source\PSoC6\pdl\drivers\peripheral\gpio/cy_gpio.h **** * Position of the pin bit-field within the port register
 478:Generated_Source\PSoC6\pdl\drivers\peripheral\gpio/cy_gpio.h **** *
 479:Generated_Source\PSoC6\pdl\drivers\peripheral\gpio/cy_gpio.h **** * \param driveMode
 480:Generated_Source\PSoC6\pdl\drivers\peripheral\gpio/cy_gpio.h **** * Pin drive mode. Options are detailed in \ref group_gpio_driveModes macros
 481:Generated_Source\PSoC6\pdl\drivers\peripheral\gpio/cy_gpio.h **** *
 482:Generated_Source\PSoC6\pdl\drivers\peripheral\gpio/cy_gpio.h **** * \param outVal
 483:Generated_Source\PSoC6\pdl\drivers\peripheral\gpio/cy_gpio.h **** * Logic state of the output buffer driven to the pin (1 or 0)
 484:Generated_Source\PSoC6\pdl\drivers\peripheral\gpio/cy_gpio.h **** *
 485:Generated_Source\PSoC6\pdl\drivers\peripheral\gpio/cy_gpio.h **** * \param hsiom
 486:Generated_Source\PSoC6\pdl\drivers\peripheral\gpio/cy_gpio.h **** * HSIOM input selection
 487:Generated_Source\PSoC6\pdl\drivers\peripheral\gpio/cy_gpio.h **** *
 488:Generated_Source\PSoC6\pdl\drivers\peripheral\gpio/cy_gpio.h **** * \return
 489:Generated_Source\PSoC6\pdl\drivers\peripheral\gpio/cy_gpio.h **** * void
 490:Generated_Source\PSoC6\pdl\drivers\peripheral\gpio/cy_gpio.h **** *
 491:Generated_Source\PSoC6\pdl\drivers\peripheral\gpio/cy_gpio.h **** * \note 
 492:Generated_Source\PSoC6\pdl\drivers\peripheral\gpio/cy_gpio.h **** * This function modifies port registers in read-modify-write operations. It is
 493:Generated_Source\PSoC6\pdl\drivers\peripheral\gpio/cy_gpio.h **** * not thread safe as the resource is shared among multiple pins on a port.
 494:Generated_Source\PSoC6\pdl\drivers\peripheral\gpio/cy_gpio.h **** *
 495:Generated_Source\PSoC6\pdl\drivers\peripheral\gpio/cy_gpio.h **** *******************************************************************************/
 496:Generated_Source\PSoC6\pdl\drivers\peripheral\gpio/cy_gpio.h **** __STATIC_INLINE void Cy_GPIO_Pin_FastInit(GPIO_PRT_Type* base, uint32_t pinNum, uint32_t driveMode,
 497:Generated_Source\PSoC6\pdl\drivers\peripheral\gpio/cy_gpio.h ****                                         uint32_t outVal, en_hsiom_sel_t hsiom)
 498:Generated_Source\PSoC6\pdl\drivers\peripheral\gpio/cy_gpio.h **** {
 499:Generated_Source\PSoC6\pdl\drivers\peripheral\gpio/cy_gpio.h ****     uint32_t tempReg;
 500:Generated_Source\PSoC6\pdl\drivers\peripheral\gpio/cy_gpio.h ****     uint32_t portNum;
 501:Generated_Source\PSoC6\pdl\drivers\peripheral\gpio/cy_gpio.h ****     HSIOM_PRT_Type* portAddrHSIOM;
 502:Generated_Source\PSoC6\pdl\drivers\peripheral\gpio/cy_gpio.h **** 
 503:Generated_Source\PSoC6\pdl\drivers\peripheral\gpio/cy_gpio.h ****     tempReg = (base->OUT & ~(CY_GPIO_OUT_MASK << pinNum));
 504:Generated_Source\PSoC6\pdl\drivers\peripheral\gpio/cy_gpio.h ****     base->OUT = tempReg | ((outVal & CY_GPIO_OUT_MASK) << pinNum);
 505:Generated_Source\PSoC6\pdl\drivers\peripheral\gpio/cy_gpio.h **** 
 506:Generated_Source\PSoC6\pdl\drivers\peripheral\gpio/cy_gpio.h ****     tempReg = (base->CFG & ~(CY_GPIO_CFG_DM_MASK << (pinNum << CY_GPIO_DRIVE_MODE_OFFSET)));
 507:Generated_Source\PSoC6\pdl\drivers\peripheral\gpio/cy_gpio.h ****     base->CFG = tempReg | ((driveMode & CY_GPIO_CFG_DM_MASK) << (pinNum << CY_GPIO_DRIVE_MODE_OFFSE
 508:Generated_Source\PSoC6\pdl\drivers\peripheral\gpio/cy_gpio.h **** 
 509:Generated_Source\PSoC6\pdl\drivers\peripheral\gpio/cy_gpio.h ****     portNum = ((uint32_t)(base) - GPIO_BASE) / GPIO_PRT_SECTION_SIZE;
 510:Generated_Source\PSoC6\pdl\drivers\peripheral\gpio/cy_gpio.h ****     portAddrHSIOM = (HSIOM_PRT_Type*)(HSIOM_BASE + (HSIOM_PRT_SECTION_SIZE * portNum));
 511:Generated_Source\PSoC6\pdl\drivers\peripheral\gpio/cy_gpio.h **** 
 512:Generated_Source\PSoC6\pdl\drivers\peripheral\gpio/cy_gpio.h ****     if(pinNum < CY_GPIO_PRT_HALF)
 513:Generated_Source\PSoC6\pdl\drivers\peripheral\gpio/cy_gpio.h ****     {
 514:Generated_Source\PSoC6\pdl\drivers\peripheral\gpio/cy_gpio.h ****         tempReg = portAddrHSIOM->PORT_SEL0 & ~(CY_GPIO_HSIOM_MASK << (pinNum << CY_GPIO_HSIOM_OFFSE
 515:Generated_Source\PSoC6\pdl\drivers\peripheral\gpio/cy_gpio.h ****         portAddrHSIOM->PORT_SEL0 = tempReg | ((hsiom & CY_GPIO_HSIOM_MASK) << (pinNum << CY_GPIO_HS
ARM GAS  C:\Users\kiwamu\AppData\Local\Temp\ccUfXRBo.s 			page 12


 516:Generated_Source\PSoC6\pdl\drivers\peripheral\gpio/cy_gpio.h ****     }
 517:Generated_Source\PSoC6\pdl\drivers\peripheral\gpio/cy_gpio.h ****     else
 518:Generated_Source\PSoC6\pdl\drivers\peripheral\gpio/cy_gpio.h ****     {
 519:Generated_Source\PSoC6\pdl\drivers\peripheral\gpio/cy_gpio.h ****         pinNum -= CY_GPIO_PRT_HALF;
 520:Generated_Source\PSoC6\pdl\drivers\peripheral\gpio/cy_gpio.h ****         tempReg = portAddrHSIOM->PORT_SEL1 & ~(CY_GPIO_HSIOM_MASK << (pinNum << CY_GPIO_HSIOM_OFFSE
 521:Generated_Source\PSoC6\pdl\drivers\peripheral\gpio/cy_gpio.h ****         portAddrHSIOM->PORT_SEL1 = tempReg | ((hsiom & CY_GPIO_HSIOM_MASK) << (pinNum << CY_GPIO_HS
 522:Generated_Source\PSoC6\pdl\drivers\peripheral\gpio/cy_gpio.h ****     }
 523:Generated_Source\PSoC6\pdl\drivers\peripheral\gpio/cy_gpio.h **** }
 524:Generated_Source\PSoC6\pdl\drivers\peripheral\gpio/cy_gpio.h **** 
 525:Generated_Source\PSoC6\pdl\drivers\peripheral\gpio/cy_gpio.h **** 
 526:Generated_Source\PSoC6\pdl\drivers\peripheral\gpio/cy_gpio.h **** /*******************************************************************************
 527:Generated_Source\PSoC6\pdl\drivers\peripheral\gpio/cy_gpio.h **** * Function Name: Cy_GPIO_Port_Deinit
 528:Generated_Source\PSoC6\pdl\drivers\peripheral\gpio/cy_gpio.h **** ****************************************************************************//**
 529:Generated_Source\PSoC6\pdl\drivers\peripheral\gpio/cy_gpio.h **** *
 530:Generated_Source\PSoC6\pdl\drivers\peripheral\gpio/cy_gpio.h **** * \brief Reset a complete port of pins back to power on reset defaults.
 531:Generated_Source\PSoC6\pdl\drivers\peripheral\gpio/cy_gpio.h **** *
 532:Generated_Source\PSoC6\pdl\drivers\peripheral\gpio/cy_gpio.h **** * \param base
 533:Generated_Source\PSoC6\pdl\drivers\peripheral\gpio/cy_gpio.h **** * Pointer to the pin's port register base address
 534:Generated_Source\PSoC6\pdl\drivers\peripheral\gpio/cy_gpio.h **** *
 535:Generated_Source\PSoC6\pdl\drivers\peripheral\gpio/cy_gpio.h **** * \return
 536:Generated_Source\PSoC6\pdl\drivers\peripheral\gpio/cy_gpio.h **** * void
 537:Generated_Source\PSoC6\pdl\drivers\peripheral\gpio/cy_gpio.h **** *
 538:Generated_Source\PSoC6\pdl\drivers\peripheral\gpio/cy_gpio.h **** *******************************************************************************/
 539:Generated_Source\PSoC6\pdl\drivers\peripheral\gpio/cy_gpio.h **** __STATIC_INLINE void Cy_GPIO_Port_Deinit(GPIO_PRT_Type* base)
 540:Generated_Source\PSoC6\pdl\drivers\peripheral\gpio/cy_gpio.h **** {
 541:Generated_Source\PSoC6\pdl\drivers\peripheral\gpio/cy_gpio.h ****     uint32_t portNum;
 542:Generated_Source\PSoC6\pdl\drivers\peripheral\gpio/cy_gpio.h ****     HSIOM_PRT_Type* portAddrHSIOM;
 543:Generated_Source\PSoC6\pdl\drivers\peripheral\gpio/cy_gpio.h **** 
 544:Generated_Source\PSoC6\pdl\drivers\peripheral\gpio/cy_gpio.h ****     portNum = ((uint32_t)(base) - GPIO_BASE) / GPIO_PRT_SECTION_SIZE;
 545:Generated_Source\PSoC6\pdl\drivers\peripheral\gpio/cy_gpio.h ****     portAddrHSIOM = (HSIOM_PRT_Type*)(HSIOM_BASE + (HSIOM_PRT_SECTION_SIZE * portNum));
 546:Generated_Source\PSoC6\pdl\drivers\peripheral\gpio/cy_gpio.h **** 
 547:Generated_Source\PSoC6\pdl\drivers\peripheral\gpio/cy_gpio.h ****     base->OUT = CY_GPIO_PRT_DEINIT;
 548:Generated_Source\PSoC6\pdl\drivers\peripheral\gpio/cy_gpio.h ****     base->CFG = CY_GPIO_PRT_DEINIT;
 549:Generated_Source\PSoC6\pdl\drivers\peripheral\gpio/cy_gpio.h ****     base->CFG_IN = CY_GPIO_PRT_DEINIT;
 550:Generated_Source\PSoC6\pdl\drivers\peripheral\gpio/cy_gpio.h ****     base->CFG_OUT = CY_GPIO_PRT_DEINIT;
 551:Generated_Source\PSoC6\pdl\drivers\peripheral\gpio/cy_gpio.h ****     base->INTR_CFG = CY_GPIO_PRT_DEINIT;
 552:Generated_Source\PSoC6\pdl\drivers\peripheral\gpio/cy_gpio.h ****     base->INTR_MASK = CY_GPIO_PRT_DEINIT;
 553:Generated_Source\PSoC6\pdl\drivers\peripheral\gpio/cy_gpio.h ****     base->CFG_SIO = CY_GPIO_PRT_DEINIT;
 554:Generated_Source\PSoC6\pdl\drivers\peripheral\gpio/cy_gpio.h ****     portAddrHSIOM->PORT_SEL0 = CY_GPIO_PRT_DEINIT;
 555:Generated_Source\PSoC6\pdl\drivers\peripheral\gpio/cy_gpio.h ****     portAddrHSIOM->PORT_SEL1 = CY_GPIO_PRT_DEINIT;
 556:Generated_Source\PSoC6\pdl\drivers\peripheral\gpio/cy_gpio.h **** }
 557:Generated_Source\PSoC6\pdl\drivers\peripheral\gpio/cy_gpio.h **** 
 558:Generated_Source\PSoC6\pdl\drivers\peripheral\gpio/cy_gpio.h **** 
 559:Generated_Source\PSoC6\pdl\drivers\peripheral\gpio/cy_gpio.h **** /*******************************************************************************
 560:Generated_Source\PSoC6\pdl\drivers\peripheral\gpio/cy_gpio.h **** * Function Name: Cy_GPIO_SetHSIOM
 561:Generated_Source\PSoC6\pdl\drivers\peripheral\gpio/cy_gpio.h **** ****************************************************************************//**
 562:Generated_Source\PSoC6\pdl\drivers\peripheral\gpio/cy_gpio.h **** *
 563:Generated_Source\PSoC6\pdl\drivers\peripheral\gpio/cy_gpio.h **** * \brief Configures the HSIOM connection to the pin.
 564:Generated_Source\PSoC6\pdl\drivers\peripheral\gpio/cy_gpio.h **** *
 565:Generated_Source\PSoC6\pdl\drivers\peripheral\gpio/cy_gpio.h **** * Connects the specified High-Speed Input Output Multiplexer (HSIOM) selection
 566:Generated_Source\PSoC6\pdl\drivers\peripheral\gpio/cy_gpio.h **** * to the pin.
 567:Generated_Source\PSoC6\pdl\drivers\peripheral\gpio/cy_gpio.h **** *
 568:Generated_Source\PSoC6\pdl\drivers\peripheral\gpio/cy_gpio.h **** * \param base
 569:Generated_Source\PSoC6\pdl\drivers\peripheral\gpio/cy_gpio.h **** * Pointer to the pin's port register base address
 570:Generated_Source\PSoC6\pdl\drivers\peripheral\gpio/cy_gpio.h **** *
 571:Generated_Source\PSoC6\pdl\drivers\peripheral\gpio/cy_gpio.h **** * \param pinNum
 572:Generated_Source\PSoC6\pdl\drivers\peripheral\gpio/cy_gpio.h **** * Position of the pin bit-field within the port register
ARM GAS  C:\Users\kiwamu\AppData\Local\Temp\ccUfXRBo.s 			page 13


 573:Generated_Source\PSoC6\pdl\drivers\peripheral\gpio/cy_gpio.h **** *
 574:Generated_Source\PSoC6\pdl\drivers\peripheral\gpio/cy_gpio.h **** * \param value
 575:Generated_Source\PSoC6\pdl\drivers\peripheral\gpio/cy_gpio.h **** * HSIOM input selection
 576:Generated_Source\PSoC6\pdl\drivers\peripheral\gpio/cy_gpio.h **** *
 577:Generated_Source\PSoC6\pdl\drivers\peripheral\gpio/cy_gpio.h **** * \return
 578:Generated_Source\PSoC6\pdl\drivers\peripheral\gpio/cy_gpio.h **** * void
 579:Generated_Source\PSoC6\pdl\drivers\peripheral\gpio/cy_gpio.h **** *
 580:Generated_Source\PSoC6\pdl\drivers\peripheral\gpio/cy_gpio.h **** * \note 
 581:Generated_Source\PSoC6\pdl\drivers\peripheral\gpio/cy_gpio.h **** * This function modifies a port register in a read-modify-write operation. It is
 582:Generated_Source\PSoC6\pdl\drivers\peripheral\gpio/cy_gpio.h **** * not thread safe as the resource is shared among multiple pins on a port.
 583:Generated_Source\PSoC6\pdl\drivers\peripheral\gpio/cy_gpio.h **** *
 584:Generated_Source\PSoC6\pdl\drivers\peripheral\gpio/cy_gpio.h **** *******************************************************************************/
 585:Generated_Source\PSoC6\pdl\drivers\peripheral\gpio/cy_gpio.h **** __STATIC_INLINE void Cy_GPIO_SetHSIOM(GPIO_PRT_Type* base, uint32_t pinNum, en_hsiom_sel_t value)
 586:Generated_Source\PSoC6\pdl\drivers\peripheral\gpio/cy_gpio.h **** {
 587:Generated_Source\PSoC6\pdl\drivers\peripheral\gpio/cy_gpio.h ****     uint32_t portNum;
 588:Generated_Source\PSoC6\pdl\drivers\peripheral\gpio/cy_gpio.h ****     uint32_t tempReg;
 589:Generated_Source\PSoC6\pdl\drivers\peripheral\gpio/cy_gpio.h ****     HSIOM_PRT_Type* portAddrHSIOM;
 590:Generated_Source\PSoC6\pdl\drivers\peripheral\gpio/cy_gpio.h **** 
 591:Generated_Source\PSoC6\pdl\drivers\peripheral\gpio/cy_gpio.h ****     portNum = ((uint32_t)(base) - GPIO_BASE) / GPIO_PRT_SECTION_SIZE;
 592:Generated_Source\PSoC6\pdl\drivers\peripheral\gpio/cy_gpio.h ****     portAddrHSIOM = (HSIOM_PRT_Type*)(HSIOM_BASE + (HSIOM_PRT_SECTION_SIZE * portNum));
 593:Generated_Source\PSoC6\pdl\drivers\peripheral\gpio/cy_gpio.h **** 
 594:Generated_Source\PSoC6\pdl\drivers\peripheral\gpio/cy_gpio.h ****     if(pinNum < CY_GPIO_PRT_HALF)
 595:Generated_Source\PSoC6\pdl\drivers\peripheral\gpio/cy_gpio.h ****     {
 596:Generated_Source\PSoC6\pdl\drivers\peripheral\gpio/cy_gpio.h ****         tempReg = portAddrHSIOM->PORT_SEL0 & ~(CY_GPIO_HSIOM_MASK << (pinNum << CY_GPIO_HSIOM_OFFSE
 597:Generated_Source\PSoC6\pdl\drivers\peripheral\gpio/cy_gpio.h ****         portAddrHSIOM->PORT_SEL0 = tempReg | ((value & CY_GPIO_HSIOM_MASK) << (pinNum << CY_GPIO_HS
 598:Generated_Source\PSoC6\pdl\drivers\peripheral\gpio/cy_gpio.h ****     }
 599:Generated_Source\PSoC6\pdl\drivers\peripheral\gpio/cy_gpio.h ****     else
 600:Generated_Source\PSoC6\pdl\drivers\peripheral\gpio/cy_gpio.h ****     {
 601:Generated_Source\PSoC6\pdl\drivers\peripheral\gpio/cy_gpio.h ****         pinNum -= CY_GPIO_PRT_HALF;
 602:Generated_Source\PSoC6\pdl\drivers\peripheral\gpio/cy_gpio.h ****         tempReg = portAddrHSIOM->PORT_SEL1 & ~(CY_GPIO_HSIOM_MASK << (pinNum << CY_GPIO_HSIOM_OFFSE
 603:Generated_Source\PSoC6\pdl\drivers\peripheral\gpio/cy_gpio.h ****         portAddrHSIOM->PORT_SEL1 = tempReg | ((value & CY_GPIO_HSIOM_MASK) << (pinNum << CY_GPIO_HS
 604:Generated_Source\PSoC6\pdl\drivers\peripheral\gpio/cy_gpio.h ****     }
 605:Generated_Source\PSoC6\pdl\drivers\peripheral\gpio/cy_gpio.h **** }
 606:Generated_Source\PSoC6\pdl\drivers\peripheral\gpio/cy_gpio.h **** 
 607:Generated_Source\PSoC6\pdl\drivers\peripheral\gpio/cy_gpio.h **** 
 608:Generated_Source\PSoC6\pdl\drivers\peripheral\gpio/cy_gpio.h **** /*******************************************************************************
 609:Generated_Source\PSoC6\pdl\drivers\peripheral\gpio/cy_gpio.h **** * Function Name: Cy_GPIO_GetHSIOM
 610:Generated_Source\PSoC6\pdl\drivers\peripheral\gpio/cy_gpio.h **** ****************************************************************************//**
 611:Generated_Source\PSoC6\pdl\drivers\peripheral\gpio/cy_gpio.h **** *
 612:Generated_Source\PSoC6\pdl\drivers\peripheral\gpio/cy_gpio.h **** * \brief Returns the current HSIOM multiplexer connection to the pin.
 613:Generated_Source\PSoC6\pdl\drivers\peripheral\gpio/cy_gpio.h **** *
 614:Generated_Source\PSoC6\pdl\drivers\peripheral\gpio/cy_gpio.h **** * \param base
 615:Generated_Source\PSoC6\pdl\drivers\peripheral\gpio/cy_gpio.h **** * Pointer to the pin's port register base address
 616:Generated_Source\PSoC6\pdl\drivers\peripheral\gpio/cy_gpio.h **** *
 617:Generated_Source\PSoC6\pdl\drivers\peripheral\gpio/cy_gpio.h **** * \param pinNum
 618:Generated_Source\PSoC6\pdl\drivers\peripheral\gpio/cy_gpio.h **** * Position of the pin bit-field within the port register
 619:Generated_Source\PSoC6\pdl\drivers\peripheral\gpio/cy_gpio.h **** *
 620:Generated_Source\PSoC6\pdl\drivers\peripheral\gpio/cy_gpio.h **** * \return
 621:Generated_Source\PSoC6\pdl\drivers\peripheral\gpio/cy_gpio.h **** * HSIOM input selection
 622:Generated_Source\PSoC6\pdl\drivers\peripheral\gpio/cy_gpio.h **** *
 623:Generated_Source\PSoC6\pdl\drivers\peripheral\gpio/cy_gpio.h **** *******************************************************************************/
 624:Generated_Source\PSoC6\pdl\drivers\peripheral\gpio/cy_gpio.h **** __STATIC_INLINE en_hsiom_sel_t Cy_GPIO_GetHSIOM(GPIO_PRT_Type* base, uint32_t pinNum)
 625:Generated_Source\PSoC6\pdl\drivers\peripheral\gpio/cy_gpio.h **** {
 626:Generated_Source\PSoC6\pdl\drivers\peripheral\gpio/cy_gpio.h ****     uint32_t returnValue;
 627:Generated_Source\PSoC6\pdl\drivers\peripheral\gpio/cy_gpio.h ****     uint32_t portNum;
 628:Generated_Source\PSoC6\pdl\drivers\peripheral\gpio/cy_gpio.h ****     HSIOM_PRT_Type* portAddrHSIOM;
 629:Generated_Source\PSoC6\pdl\drivers\peripheral\gpio/cy_gpio.h **** 
ARM GAS  C:\Users\kiwamu\AppData\Local\Temp\ccUfXRBo.s 			page 14


 630:Generated_Source\PSoC6\pdl\drivers\peripheral\gpio/cy_gpio.h ****     portNum = ((uint32_t)(base) - GPIO_BASE) / GPIO_PRT_SECTION_SIZE;
 631:Generated_Source\PSoC6\pdl\drivers\peripheral\gpio/cy_gpio.h ****     portAddrHSIOM = (HSIOM_PRT_Type*)(HSIOM_BASE + (HSIOM_PRT_SECTION_SIZE * portNum));
 632:Generated_Source\PSoC6\pdl\drivers\peripheral\gpio/cy_gpio.h **** 
 633:Generated_Source\PSoC6\pdl\drivers\peripheral\gpio/cy_gpio.h ****     if(pinNum < CY_GPIO_PRT_HALF)
 634:Generated_Source\PSoC6\pdl\drivers\peripheral\gpio/cy_gpio.h ****     {
 635:Generated_Source\PSoC6\pdl\drivers\peripheral\gpio/cy_gpio.h ****         returnValue = (portAddrHSIOM->PORT_SEL0 >> (pinNum << CY_GPIO_HSIOM_OFFSET)) & CY_GPIO_HSIO
 636:Generated_Source\PSoC6\pdl\drivers\peripheral\gpio/cy_gpio.h ****     }
 637:Generated_Source\PSoC6\pdl\drivers\peripheral\gpio/cy_gpio.h ****     else
 638:Generated_Source\PSoC6\pdl\drivers\peripheral\gpio/cy_gpio.h ****     {
 639:Generated_Source\PSoC6\pdl\drivers\peripheral\gpio/cy_gpio.h ****         pinNum -= CY_GPIO_PRT_HALF;
 640:Generated_Source\PSoC6\pdl\drivers\peripheral\gpio/cy_gpio.h ****         returnValue = (portAddrHSIOM->PORT_SEL1 >> (pinNum << CY_GPIO_HSIOM_OFFSET)) & CY_GPIO_HSIO
 641:Generated_Source\PSoC6\pdl\drivers\peripheral\gpio/cy_gpio.h ****     }
 642:Generated_Source\PSoC6\pdl\drivers\peripheral\gpio/cy_gpio.h **** 
 643:Generated_Source\PSoC6\pdl\drivers\peripheral\gpio/cy_gpio.h ****     return (en_hsiom_sel_t)returnValue;
 644:Generated_Source\PSoC6\pdl\drivers\peripheral\gpio/cy_gpio.h **** }
 645:Generated_Source\PSoC6\pdl\drivers\peripheral\gpio/cy_gpio.h **** 
 646:Generated_Source\PSoC6\pdl\drivers\peripheral\gpio/cy_gpio.h **** 
 647:Generated_Source\PSoC6\pdl\drivers\peripheral\gpio/cy_gpio.h **** /*******************************************************************************
 648:Generated_Source\PSoC6\pdl\drivers\peripheral\gpio/cy_gpio.h **** * Function Name: Cy_GPIO_PortToAddr
 649:Generated_Source\PSoC6\pdl\drivers\peripheral\gpio/cy_gpio.h **** ****************************************************************************//**
 650:Generated_Source\PSoC6\pdl\drivers\peripheral\gpio/cy_gpio.h **** *
 651:Generated_Source\PSoC6\pdl\drivers\peripheral\gpio/cy_gpio.h **** * \brief Retrieves the port address based on the given port number.
 652:Generated_Source\PSoC6\pdl\drivers\peripheral\gpio/cy_gpio.h **** *
 653:Generated_Source\PSoC6\pdl\drivers\peripheral\gpio/cy_gpio.h **** * This is a helper function to calculate the port base address when given a port
 654:Generated_Source\PSoC6\pdl\drivers\peripheral\gpio/cy_gpio.h **** * number. It is to be used when pin access needs to be calculated at runtime.
 655:Generated_Source\PSoC6\pdl\drivers\peripheral\gpio/cy_gpio.h **** *
 656:Generated_Source\PSoC6\pdl\drivers\peripheral\gpio/cy_gpio.h **** * \param portNum
 657:Generated_Source\PSoC6\pdl\drivers\peripheral\gpio/cy_gpio.h **** * Port number
 658:Generated_Source\PSoC6\pdl\drivers\peripheral\gpio/cy_gpio.h **** *
 659:Generated_Source\PSoC6\pdl\drivers\peripheral\gpio/cy_gpio.h **** * \return
 660:Generated_Source\PSoC6\pdl\drivers\peripheral\gpio/cy_gpio.h **** * Base address of the port register structure
 661:Generated_Source\PSoC6\pdl\drivers\peripheral\gpio/cy_gpio.h **** *
 662:Generated_Source\PSoC6\pdl\drivers\peripheral\gpio/cy_gpio.h **** *******************************************************************************/
 663:Generated_Source\PSoC6\pdl\drivers\peripheral\gpio/cy_gpio.h **** __STATIC_INLINE GPIO_PRT_Type* Cy_GPIO_PortToAddr(uint32_t portNum)
 664:Generated_Source\PSoC6\pdl\drivers\peripheral\gpio/cy_gpio.h **** {
 665:Generated_Source\PSoC6\pdl\drivers\peripheral\gpio/cy_gpio.h ****     GPIO_PRT_Type* base;
 666:Generated_Source\PSoC6\pdl\drivers\peripheral\gpio/cy_gpio.h **** 
 667:Generated_Source\PSoC6\pdl\drivers\peripheral\gpio/cy_gpio.h ****     if(portNum < (uint32_t)IOSS_GPIO_GPIO_PORT_NR)
 668:Generated_Source\PSoC6\pdl\drivers\peripheral\gpio/cy_gpio.h ****     {
 669:Generated_Source\PSoC6\pdl\drivers\peripheral\gpio/cy_gpio.h ****          base = (GPIO_PRT_Type *)(GPIO_BASE + (GPIO_PRT_SECTION_SIZE * portNum));
 670:Generated_Source\PSoC6\pdl\drivers\peripheral\gpio/cy_gpio.h ****     }
 671:Generated_Source\PSoC6\pdl\drivers\peripheral\gpio/cy_gpio.h ****     else
 672:Generated_Source\PSoC6\pdl\drivers\peripheral\gpio/cy_gpio.h ****     {
 673:Generated_Source\PSoC6\pdl\drivers\peripheral\gpio/cy_gpio.h ****         /* Error: Return default base address */
 674:Generated_Source\PSoC6\pdl\drivers\peripheral\gpio/cy_gpio.h ****         base = (GPIO_PRT_Type *)(GPIO_BASE);
 675:Generated_Source\PSoC6\pdl\drivers\peripheral\gpio/cy_gpio.h ****     }
 676:Generated_Source\PSoC6\pdl\drivers\peripheral\gpio/cy_gpio.h **** 
 677:Generated_Source\PSoC6\pdl\drivers\peripheral\gpio/cy_gpio.h ****     return (base);
 678:Generated_Source\PSoC6\pdl\drivers\peripheral\gpio/cy_gpio.h **** }
 679:Generated_Source\PSoC6\pdl\drivers\peripheral\gpio/cy_gpio.h **** 
 680:Generated_Source\PSoC6\pdl\drivers\peripheral\gpio/cy_gpio.h **** /** \} group_gpio_functions_init */
 681:Generated_Source\PSoC6\pdl\drivers\peripheral\gpio/cy_gpio.h **** 
 682:Generated_Source\PSoC6\pdl\drivers\peripheral\gpio/cy_gpio.h **** /**
 683:Generated_Source\PSoC6\pdl\drivers\peripheral\gpio/cy_gpio.h **** * \addtogroup group_gpio_functions_gpio
 684:Generated_Source\PSoC6\pdl\drivers\peripheral\gpio/cy_gpio.h **** * \{
 685:Generated_Source\PSoC6\pdl\drivers\peripheral\gpio/cy_gpio.h **** */
 686:Generated_Source\PSoC6\pdl\drivers\peripheral\gpio/cy_gpio.h **** 
ARM GAS  C:\Users\kiwamu\AppData\Local\Temp\ccUfXRBo.s 			page 15


 687:Generated_Source\PSoC6\pdl\drivers\peripheral\gpio/cy_gpio.h **** /*******************************************************************************
 688:Generated_Source\PSoC6\pdl\drivers\peripheral\gpio/cy_gpio.h **** * Function Name: Cy_GPIO_Read
 689:Generated_Source\PSoC6\pdl\drivers\peripheral\gpio/cy_gpio.h **** ****************************************************************************//**
 690:Generated_Source\PSoC6\pdl\drivers\peripheral\gpio/cy_gpio.h **** *
 691:Generated_Source\PSoC6\pdl\drivers\peripheral\gpio/cy_gpio.h **** * \brief Reads the current logic level on the input buffer of the pin.
 692:Generated_Source\PSoC6\pdl\drivers\peripheral\gpio/cy_gpio.h **** *
 693:Generated_Source\PSoC6\pdl\drivers\peripheral\gpio/cy_gpio.h **** * \param base
 694:Generated_Source\PSoC6\pdl\drivers\peripheral\gpio/cy_gpio.h **** * Pointer to the pin's port register base address
 695:Generated_Source\PSoC6\pdl\drivers\peripheral\gpio/cy_gpio.h **** *
 696:Generated_Source\PSoC6\pdl\drivers\peripheral\gpio/cy_gpio.h **** * \param pinNum
 697:Generated_Source\PSoC6\pdl\drivers\peripheral\gpio/cy_gpio.h **** * Position of the pin bit-field within the port register
 698:Generated_Source\PSoC6\pdl\drivers\peripheral\gpio/cy_gpio.h **** *
 699:Generated_Source\PSoC6\pdl\drivers\peripheral\gpio/cy_gpio.h **** * \return
 700:Generated_Source\PSoC6\pdl\drivers\peripheral\gpio/cy_gpio.h **** * Logic level present on the pin
 701:Generated_Source\PSoC6\pdl\drivers\peripheral\gpio/cy_gpio.h **** *
 702:Generated_Source\PSoC6\pdl\drivers\peripheral\gpio/cy_gpio.h **** *******************************************************************************/
 703:Generated_Source\PSoC6\pdl\drivers\peripheral\gpio/cy_gpio.h **** __STATIC_INLINE uint32_t Cy_GPIO_Read(GPIO_PRT_Type* base, uint32_t pinNum)
 704:Generated_Source\PSoC6\pdl\drivers\peripheral\gpio/cy_gpio.h **** {
 705:Generated_Source\PSoC6\pdl\drivers\peripheral\gpio/cy_gpio.h ****     return (base->IN >> (pinNum)) & CY_GPIO_IN_MASK;
 706:Generated_Source\PSoC6\pdl\drivers\peripheral\gpio/cy_gpio.h **** }
 707:Generated_Source\PSoC6\pdl\drivers\peripheral\gpio/cy_gpio.h **** 
 708:Generated_Source\PSoC6\pdl\drivers\peripheral\gpio/cy_gpio.h **** 
 709:Generated_Source\PSoC6\pdl\drivers\peripheral\gpio/cy_gpio.h **** /*******************************************************************************
 710:Generated_Source\PSoC6\pdl\drivers\peripheral\gpio/cy_gpio.h **** * Function Name: Cy_GPIO_Write
 711:Generated_Source\PSoC6\pdl\drivers\peripheral\gpio/cy_gpio.h **** ****************************************************************************//**
 712:Generated_Source\PSoC6\pdl\drivers\peripheral\gpio/cy_gpio.h **** *
 713:Generated_Source\PSoC6\pdl\drivers\peripheral\gpio/cy_gpio.h **** * \brief Write a logic 0 or logic 1 state to the output driver.
 714:Generated_Source\PSoC6\pdl\drivers\peripheral\gpio/cy_gpio.h **** *
 715:Generated_Source\PSoC6\pdl\drivers\peripheral\gpio/cy_gpio.h **** * This function should be used only for software driven pins. It does not have
 716:Generated_Source\PSoC6\pdl\drivers\peripheral\gpio/cy_gpio.h **** * any effect on peripheral driven pins.
 717:Generated_Source\PSoC6\pdl\drivers\peripheral\gpio/cy_gpio.h **** *
 718:Generated_Source\PSoC6\pdl\drivers\peripheral\gpio/cy_gpio.h **** * \param base
 719:Generated_Source\PSoC6\pdl\drivers\peripheral\gpio/cy_gpio.h **** * Pointer to the pin's port register base address
 720:Generated_Source\PSoC6\pdl\drivers\peripheral\gpio/cy_gpio.h **** *
 721:Generated_Source\PSoC6\pdl\drivers\peripheral\gpio/cy_gpio.h **** * \param pinNum
 722:Generated_Source\PSoC6\pdl\drivers\peripheral\gpio/cy_gpio.h **** * Position of the pin bit-field within the port register
 723:Generated_Source\PSoC6\pdl\drivers\peripheral\gpio/cy_gpio.h **** *
 724:Generated_Source\PSoC6\pdl\drivers\peripheral\gpio/cy_gpio.h **** * \param value
 725:Generated_Source\PSoC6\pdl\drivers\peripheral\gpio/cy_gpio.h **** * Logic level to drive out on the pin
 726:Generated_Source\PSoC6\pdl\drivers\peripheral\gpio/cy_gpio.h **** *
 727:Generated_Source\PSoC6\pdl\drivers\peripheral\gpio/cy_gpio.h **** * \return
 728:Generated_Source\PSoC6\pdl\drivers\peripheral\gpio/cy_gpio.h **** * void
 729:Generated_Source\PSoC6\pdl\drivers\peripheral\gpio/cy_gpio.h **** *
 730:Generated_Source\PSoC6\pdl\drivers\peripheral\gpio/cy_gpio.h **** *******************************************************************************/
 731:Generated_Source\PSoC6\pdl\drivers\peripheral\gpio/cy_gpio.h **** __STATIC_INLINE void Cy_GPIO_Write(GPIO_PRT_Type* base, uint32_t pinNum, uint32_t value)
 732:Generated_Source\PSoC6\pdl\drivers\peripheral\gpio/cy_gpio.h **** {
 733:Generated_Source\PSoC6\pdl\drivers\peripheral\gpio/cy_gpio.h ****     /* Thread-safe: Directly access the pin registers instead of base->OUT */
 734:Generated_Source\PSoC6\pdl\drivers\peripheral\gpio/cy_gpio.h ****     if(CY_GPIO_ZERO == value)
  61              		.loc 2 734 0 is_stmt 1
  62 0014 1368     		ldr	r3, [r2]
  63 0016 002B     		cmp	r3, #0
  64 0018 03D1     		bne	.L3
 735:Generated_Source\PSoC6\pdl\drivers\peripheral\gpio/cy_gpio.h ****     {
 736:Generated_Source\PSoC6\pdl\drivers\peripheral\gpio/cy_gpio.h ****         base->OUT_CLR = CY_GPIO_OUT_MASK << pinNum;
  65              		.loc 2 736 0
  66 001a 0133     		adds	r3, r3, #1
  67 001c 8B40     		lsls	r3, r3, r1
ARM GAS  C:\Users\kiwamu\AppData\Local\Temp\ccUfXRBo.s 			page 16


  68 001e 4360     		str	r3, [r0, #4]
  69              	.LVL3:
  70 0020 02E0     		b	.L4
  71              	.LVL4:
  72              	.L3:
 737:Generated_Source\PSoC6\pdl\drivers\peripheral\gpio/cy_gpio.h ****     }
 738:Generated_Source\PSoC6\pdl\drivers\peripheral\gpio/cy_gpio.h ****     else
 739:Generated_Source\PSoC6\pdl\drivers\peripheral\gpio/cy_gpio.h ****     {
 740:Generated_Source\PSoC6\pdl\drivers\peripheral\gpio/cy_gpio.h ****         base->OUT_SET = CY_GPIO_OUT_MASK << pinNum;
  73              		.loc 2 740 0
  74 0022 0123     		movs	r3, #1
  75              	.LVL5:
  76 0024 8B40     		lsls	r3, r3, r1
  77 0026 8360     		str	r3, [r0, #8]
  78              	.LVL6:
  79              	.L4:
  80              	.LBE25:
  81              	.LBE24:
  82              	.LBB26:
  83              	.LBB27:
 741:Generated_Source\PSoC6\pdl\drivers\peripheral\gpio/cy_gpio.h ****     }
 742:Generated_Source\PSoC6\pdl\drivers\peripheral\gpio/cy_gpio.h **** }
 743:Generated_Source\PSoC6\pdl\drivers\peripheral\gpio/cy_gpio.h **** 
 744:Generated_Source\PSoC6\pdl\drivers\peripheral\gpio/cy_gpio.h **** 
 745:Generated_Source\PSoC6\pdl\drivers\peripheral\gpio/cy_gpio.h **** /*******************************************************************************
 746:Generated_Source\PSoC6\pdl\drivers\peripheral\gpio/cy_gpio.h **** * Function Name: Cy_GPIO_ReadOut
 747:Generated_Source\PSoC6\pdl\drivers\peripheral\gpio/cy_gpio.h **** ****************************************************************************//**
 748:Generated_Source\PSoC6\pdl\drivers\peripheral\gpio/cy_gpio.h **** *
 749:Generated_Source\PSoC6\pdl\drivers\peripheral\gpio/cy_gpio.h **** * \brief Reads the current logic level on the pin output driver.
 750:Generated_Source\PSoC6\pdl\drivers\peripheral\gpio/cy_gpio.h **** *
 751:Generated_Source\PSoC6\pdl\drivers\peripheral\gpio/cy_gpio.h **** * \param base
 752:Generated_Source\PSoC6\pdl\drivers\peripheral\gpio/cy_gpio.h **** * Pointer to the pin's port register base address
 753:Generated_Source\PSoC6\pdl\drivers\peripheral\gpio/cy_gpio.h **** *
 754:Generated_Source\PSoC6\pdl\drivers\peripheral\gpio/cy_gpio.h **** * \param pinNum
 755:Generated_Source\PSoC6\pdl\drivers\peripheral\gpio/cy_gpio.h **** * Position of the pin bit-field within the port register
 756:Generated_Source\PSoC6\pdl\drivers\peripheral\gpio/cy_gpio.h **** *
 757:Generated_Source\PSoC6\pdl\drivers\peripheral\gpio/cy_gpio.h **** * \return
 758:Generated_Source\PSoC6\pdl\drivers\peripheral\gpio/cy_gpio.h **** * Logic level on the pin output driver
 759:Generated_Source\PSoC6\pdl\drivers\peripheral\gpio/cy_gpio.h **** *
 760:Generated_Source\PSoC6\pdl\drivers\peripheral\gpio/cy_gpio.h **** *******************************************************************************/
 761:Generated_Source\PSoC6\pdl\drivers\peripheral\gpio/cy_gpio.h **** __STATIC_INLINE uint32_t Cy_GPIO_ReadOut(GPIO_PRT_Type* base, uint32_t pinNum)
 762:Generated_Source\PSoC6\pdl\drivers\peripheral\gpio/cy_gpio.h **** {
 763:Generated_Source\PSoC6\pdl\drivers\peripheral\gpio/cy_gpio.h ****     return (base->OUT >> pinNum) & CY_GPIO_OUT_MASK;
 764:Generated_Source\PSoC6\pdl\drivers\peripheral\gpio/cy_gpio.h **** }
 765:Generated_Source\PSoC6\pdl\drivers\peripheral\gpio/cy_gpio.h **** 
 766:Generated_Source\PSoC6\pdl\drivers\peripheral\gpio/cy_gpio.h **** 
 767:Generated_Source\PSoC6\pdl\drivers\peripheral\gpio/cy_gpio.h **** /*******************************************************************************
 768:Generated_Source\PSoC6\pdl\drivers\peripheral\gpio/cy_gpio.h **** * Function Name: Cy_GPIO_Set
 769:Generated_Source\PSoC6\pdl\drivers\peripheral\gpio/cy_gpio.h **** ****************************************************************************//**
 770:Generated_Source\PSoC6\pdl\drivers\peripheral\gpio/cy_gpio.h **** *
 771:Generated_Source\PSoC6\pdl\drivers\peripheral\gpio/cy_gpio.h **** * \brief Set a pin output to logic state high.
 772:Generated_Source\PSoC6\pdl\drivers\peripheral\gpio/cy_gpio.h **** *
 773:Generated_Source\PSoC6\pdl\drivers\peripheral\gpio/cy_gpio.h **** * This function should be used only for software driven pins. It does not have
 774:Generated_Source\PSoC6\pdl\drivers\peripheral\gpio/cy_gpio.h **** * any effect on peripheral driven pins.
 775:Generated_Source\PSoC6\pdl\drivers\peripheral\gpio/cy_gpio.h **** *
 776:Generated_Source\PSoC6\pdl\drivers\peripheral\gpio/cy_gpio.h **** * \param base
 777:Generated_Source\PSoC6\pdl\drivers\peripheral\gpio/cy_gpio.h **** * Pointer to the pin's port register base address
ARM GAS  C:\Users\kiwamu\AppData\Local\Temp\ccUfXRBo.s 			page 17


 778:Generated_Source\PSoC6\pdl\drivers\peripheral\gpio/cy_gpio.h **** *
 779:Generated_Source\PSoC6\pdl\drivers\peripheral\gpio/cy_gpio.h **** * \param pinNum
 780:Generated_Source\PSoC6\pdl\drivers\peripheral\gpio/cy_gpio.h **** * Position of the pin bit-field within the port register
 781:Generated_Source\PSoC6\pdl\drivers\peripheral\gpio/cy_gpio.h **** *
 782:Generated_Source\PSoC6\pdl\drivers\peripheral\gpio/cy_gpio.h **** * \return
 783:Generated_Source\PSoC6\pdl\drivers\peripheral\gpio/cy_gpio.h **** * void
 784:Generated_Source\PSoC6\pdl\drivers\peripheral\gpio/cy_gpio.h **** *
 785:Generated_Source\PSoC6\pdl\drivers\peripheral\gpio/cy_gpio.h **** *******************************************************************************/
 786:Generated_Source\PSoC6\pdl\drivers\peripheral\gpio/cy_gpio.h **** __STATIC_INLINE void Cy_GPIO_Set(GPIO_PRT_Type* base, uint32_t pinNum)
 787:Generated_Source\PSoC6\pdl\drivers\peripheral\gpio/cy_gpio.h **** {
 788:Generated_Source\PSoC6\pdl\drivers\peripheral\gpio/cy_gpio.h ****     base->OUT_SET = CY_GPIO_OUT_MASK << pinNum;
 789:Generated_Source\PSoC6\pdl\drivers\peripheral\gpio/cy_gpio.h **** }
 790:Generated_Source\PSoC6\pdl\drivers\peripheral\gpio/cy_gpio.h **** 
 791:Generated_Source\PSoC6\pdl\drivers\peripheral\gpio/cy_gpio.h **** 
 792:Generated_Source\PSoC6\pdl\drivers\peripheral\gpio/cy_gpio.h **** /*******************************************************************************
 793:Generated_Source\PSoC6\pdl\drivers\peripheral\gpio/cy_gpio.h **** * Function Name: Cy_GPIO_Clr
 794:Generated_Source\PSoC6\pdl\drivers\peripheral\gpio/cy_gpio.h **** ****************************************************************************//**
 795:Generated_Source\PSoC6\pdl\drivers\peripheral\gpio/cy_gpio.h **** *
 796:Generated_Source\PSoC6\pdl\drivers\peripheral\gpio/cy_gpio.h **** * \brief Set a pin output to logic state Low.
 797:Generated_Source\PSoC6\pdl\drivers\peripheral\gpio/cy_gpio.h **** *
 798:Generated_Source\PSoC6\pdl\drivers\peripheral\gpio/cy_gpio.h **** * This function should be used only for software driven pins. It does not have
 799:Generated_Source\PSoC6\pdl\drivers\peripheral\gpio/cy_gpio.h **** * any effect on peripheral driven pins.
 800:Generated_Source\PSoC6\pdl\drivers\peripheral\gpio/cy_gpio.h **** *
 801:Generated_Source\PSoC6\pdl\drivers\peripheral\gpio/cy_gpio.h **** * \param base
 802:Generated_Source\PSoC6\pdl\drivers\peripheral\gpio/cy_gpio.h **** * Pointer to the pin's port register base address
 803:Generated_Source\PSoC6\pdl\drivers\peripheral\gpio/cy_gpio.h **** *
 804:Generated_Source\PSoC6\pdl\drivers\peripheral\gpio/cy_gpio.h **** * \param pinNum
 805:Generated_Source\PSoC6\pdl\drivers\peripheral\gpio/cy_gpio.h **** * Position of the pin bit-field within the port register
 806:Generated_Source\PSoC6\pdl\drivers\peripheral\gpio/cy_gpio.h **** *
 807:Generated_Source\PSoC6\pdl\drivers\peripheral\gpio/cy_gpio.h **** * \return
 808:Generated_Source\PSoC6\pdl\drivers\peripheral\gpio/cy_gpio.h **** * void
 809:Generated_Source\PSoC6\pdl\drivers\peripheral\gpio/cy_gpio.h **** *
 810:Generated_Source\PSoC6\pdl\drivers\peripheral\gpio/cy_gpio.h **** *******************************************************************************/
 811:Generated_Source\PSoC6\pdl\drivers\peripheral\gpio/cy_gpio.h **** __STATIC_INLINE void Cy_GPIO_Clr(GPIO_PRT_Type* base, uint32_t pinNum)
 812:Generated_Source\PSoC6\pdl\drivers\peripheral\gpio/cy_gpio.h **** {
 813:Generated_Source\PSoC6\pdl\drivers\peripheral\gpio/cy_gpio.h ****     base->OUT_CLR = CY_GPIO_OUT_MASK << pinNum;
 814:Generated_Source\PSoC6\pdl\drivers\peripheral\gpio/cy_gpio.h **** }
 815:Generated_Source\PSoC6\pdl\drivers\peripheral\gpio/cy_gpio.h **** 
 816:Generated_Source\PSoC6\pdl\drivers\peripheral\gpio/cy_gpio.h **** 
 817:Generated_Source\PSoC6\pdl\drivers\peripheral\gpio/cy_gpio.h **** /*******************************************************************************
 818:Generated_Source\PSoC6\pdl\drivers\peripheral\gpio/cy_gpio.h **** * Function Name: Cy_GPIO_Inv
 819:Generated_Source\PSoC6\pdl\drivers\peripheral\gpio/cy_gpio.h **** ****************************************************************************//**
 820:Generated_Source\PSoC6\pdl\drivers\peripheral\gpio/cy_gpio.h **** *
 821:Generated_Source\PSoC6\pdl\drivers\peripheral\gpio/cy_gpio.h **** * \brief Set a pin output logic state to the inverse of the current output
 822:Generated_Source\PSoC6\pdl\drivers\peripheral\gpio/cy_gpio.h **** * logic state.
 823:Generated_Source\PSoC6\pdl\drivers\peripheral\gpio/cy_gpio.h **** *
 824:Generated_Source\PSoC6\pdl\drivers\peripheral\gpio/cy_gpio.h **** * This function should be used only for software driven pins. It does not have
 825:Generated_Source\PSoC6\pdl\drivers\peripheral\gpio/cy_gpio.h **** * any effect on peripheral driven pins.
 826:Generated_Source\PSoC6\pdl\drivers\peripheral\gpio/cy_gpio.h **** *
 827:Generated_Source\PSoC6\pdl\drivers\peripheral\gpio/cy_gpio.h **** * \param base
 828:Generated_Source\PSoC6\pdl\drivers\peripheral\gpio/cy_gpio.h **** * Pointer to the pin's port register base address
 829:Generated_Source\PSoC6\pdl\drivers\peripheral\gpio/cy_gpio.h **** *
 830:Generated_Source\PSoC6\pdl\drivers\peripheral\gpio/cy_gpio.h **** * \param pinNum
 831:Generated_Source\PSoC6\pdl\drivers\peripheral\gpio/cy_gpio.h **** * Position of the pin bit-field within the port register
 832:Generated_Source\PSoC6\pdl\drivers\peripheral\gpio/cy_gpio.h **** *
 833:Generated_Source\PSoC6\pdl\drivers\peripheral\gpio/cy_gpio.h **** * \return
 834:Generated_Source\PSoC6\pdl\drivers\peripheral\gpio/cy_gpio.h **** * void
ARM GAS  C:\Users\kiwamu\AppData\Local\Temp\ccUfXRBo.s 			page 18


 835:Generated_Source\PSoC6\pdl\drivers\peripheral\gpio/cy_gpio.h **** *
 836:Generated_Source\PSoC6\pdl\drivers\peripheral\gpio/cy_gpio.h **** *******************************************************************************/
 837:Generated_Source\PSoC6\pdl\drivers\peripheral\gpio/cy_gpio.h **** __STATIC_INLINE void Cy_GPIO_Inv(GPIO_PRT_Type* base, uint32_t pinNum)
 838:Generated_Source\PSoC6\pdl\drivers\peripheral\gpio/cy_gpio.h **** {
 839:Generated_Source\PSoC6\pdl\drivers\peripheral\gpio/cy_gpio.h ****     base->OUT_INV = CY_GPIO_OUT_MASK << pinNum;
 840:Generated_Source\PSoC6\pdl\drivers\peripheral\gpio/cy_gpio.h **** }
 841:Generated_Source\PSoC6\pdl\drivers\peripheral\gpio/cy_gpio.h **** 
 842:Generated_Source\PSoC6\pdl\drivers\peripheral\gpio/cy_gpio.h **** 
 843:Generated_Source\PSoC6\pdl\drivers\peripheral\gpio/cy_gpio.h **** /*******************************************************************************
 844:Generated_Source\PSoC6\pdl\drivers\peripheral\gpio/cy_gpio.h **** * Function Name: Cy_GPIO_SetDrivemode
 845:Generated_Source\PSoC6\pdl\drivers\peripheral\gpio/cy_gpio.h **** ****************************************************************************//**
 846:Generated_Source\PSoC6\pdl\drivers\peripheral\gpio/cy_gpio.h **** *
 847:Generated_Source\PSoC6\pdl\drivers\peripheral\gpio/cy_gpio.h **** * \brief Configures the pin output buffer drive mode and input buffer enable.
 848:Generated_Source\PSoC6\pdl\drivers\peripheral\gpio/cy_gpio.h **** *
 849:Generated_Source\PSoC6\pdl\drivers\peripheral\gpio/cy_gpio.h **** * The output buffer drive mode and input buffer enable are combined into a single
 850:Generated_Source\PSoC6\pdl\drivers\peripheral\gpio/cy_gpio.h **** * parameter. The drive mode controls the behavior of the pin in general.
 851:Generated_Source\PSoC6\pdl\drivers\peripheral\gpio/cy_gpio.h **** * Enabling the input buffer allows the digital pin state to be read but also
 852:Generated_Source\PSoC6\pdl\drivers\peripheral\gpio/cy_gpio.h **** * contributes to extra current consumption.
 853:Generated_Source\PSoC6\pdl\drivers\peripheral\gpio/cy_gpio.h **** *
 854:Generated_Source\PSoC6\pdl\drivers\peripheral\gpio/cy_gpio.h **** * \param base
 855:Generated_Source\PSoC6\pdl\drivers\peripheral\gpio/cy_gpio.h **** * Pointer to the pin's port register base address
 856:Generated_Source\PSoC6\pdl\drivers\peripheral\gpio/cy_gpio.h **** *
 857:Generated_Source\PSoC6\pdl\drivers\peripheral\gpio/cy_gpio.h **** * \param pinNum
 858:Generated_Source\PSoC6\pdl\drivers\peripheral\gpio/cy_gpio.h **** * Position of the pin bit-field within the port register
 859:Generated_Source\PSoC6\pdl\drivers\peripheral\gpio/cy_gpio.h **** *
 860:Generated_Source\PSoC6\pdl\drivers\peripheral\gpio/cy_gpio.h **** * \param value
 861:Generated_Source\PSoC6\pdl\drivers\peripheral\gpio/cy_gpio.h **** * Pin drive mode. Options are detailed in \ref group_gpio_driveModes macros
 862:Generated_Source\PSoC6\pdl\drivers\peripheral\gpio/cy_gpio.h **** *
 863:Generated_Source\PSoC6\pdl\drivers\peripheral\gpio/cy_gpio.h **** * \return
 864:Generated_Source\PSoC6\pdl\drivers\peripheral\gpio/cy_gpio.h **** * void
 865:Generated_Source\PSoC6\pdl\drivers\peripheral\gpio/cy_gpio.h **** *
 866:Generated_Source\PSoC6\pdl\drivers\peripheral\gpio/cy_gpio.h **** * \note 
 867:Generated_Source\PSoC6\pdl\drivers\peripheral\gpio/cy_gpio.h **** * This function modifies a port register in a read-modify-write operation. It is
 868:Generated_Source\PSoC6\pdl\drivers\peripheral\gpio/cy_gpio.h **** * not thread safe as the resource is shared among multiple pins on a port.
 869:Generated_Source\PSoC6\pdl\drivers\peripheral\gpio/cy_gpio.h **** *
 870:Generated_Source\PSoC6\pdl\drivers\peripheral\gpio/cy_gpio.h **** *******************************************************************************/
 871:Generated_Source\PSoC6\pdl\drivers\peripheral\gpio/cy_gpio.h **** __STATIC_INLINE void Cy_GPIO_SetDrivemode(GPIO_PRT_Type* base, uint32_t pinNum, uint32_t value)
 872:Generated_Source\PSoC6\pdl\drivers\peripheral\gpio/cy_gpio.h **** {
 873:Generated_Source\PSoC6\pdl\drivers\peripheral\gpio/cy_gpio.h ****     uint32_t tempReg;
 874:Generated_Source\PSoC6\pdl\drivers\peripheral\gpio/cy_gpio.h ****     uint32_t pinLoc;
 875:Generated_Source\PSoC6\pdl\drivers\peripheral\gpio/cy_gpio.h **** 
 876:Generated_Source\PSoC6\pdl\drivers\peripheral\gpio/cy_gpio.h ****     pinLoc = pinNum << CY_GPIO_DRIVE_MODE_OFFSET;
  84              		.loc 2 876 0
  85 0028 8D00     		lsls	r5, r1, #2
  86              	.LVL7:
 877:Generated_Source\PSoC6\pdl\drivers\peripheral\gpio/cy_gpio.h ****     tempReg = (base->CFG & ~(CY_GPIO_CFG_DM_MASK << pinLoc));
  87              		.loc 2 877 0
  88 002a 846A     		ldr	r4, [r0, #40]
  89 002c 0F23     		movs	r3, #15
  90 002e 1E00     		movs	r6, r3
  91 0030 AE40     		lsls	r6, r6, r5
  92 0032 B443     		bics	r4, r6
  93              	.LVL8:
 878:Generated_Source\PSoC6\pdl\drivers\peripheral\gpio/cy_gpio.h ****     base->CFG = tempReg | ((value & CY_GPIO_CFG_DM_MASK) << pinLoc);
  94              		.loc 2 878 0
  95 0034 5668     		ldr	r6, [r2, #4]
  96 0036 3340     		ands	r3, r6
ARM GAS  C:\Users\kiwamu\AppData\Local\Temp\ccUfXRBo.s 			page 19


  97 0038 AB40     		lsls	r3, r3, r5
  98 003a 2343     		orrs	r3, r4
  99 003c 8362     		str	r3, [r0, #40]
 100              	.LVL9:
 101              	.LBE27:
 102              	.LBE26:
  53:Generated_Source\PSoC6\pdl\drivers\peripheral\gpio/cy_gpio.c ****     {
  54:Generated_Source\PSoC6\pdl\drivers\peripheral\gpio/cy_gpio.c ****         Cy_GPIO_Write(base, pinNum, config->outVal);
  55:Generated_Source\PSoC6\pdl\drivers\peripheral\gpio/cy_gpio.c ****         Cy_GPIO_SetDrivemode(base, pinNum, config->driveMode);
  56:Generated_Source\PSoC6\pdl\drivers\peripheral\gpio/cy_gpio.c ****         Cy_GPIO_SetHSIOM(base, pinNum, config->hsiom);
 103              		.loc 1 56 0
 104 003e 137A     		ldrb	r3, [r2, #8]
 105 0040 9846     		mov	r8, r3
 106              	.LVL10:
 107              	.LBB28:
 108              	.LBB29:
 591:Generated_Source\PSoC6\pdl\drivers\peripheral\gpio/cy_gpio.h ****     portAddrHSIOM = (HSIOM_PRT_Type*)(HSIOM_BASE + (HSIOM_PRT_SECTION_SIZE * portNum));
 109              		.loc 2 591 0
 110 0042 434B     		ldr	r3, .L9
 111 0044 C318     		adds	r3, r0, r3
 112 0046 DB09     		lsrs	r3, r3, #7
 113              	.LVL11:
 592:Generated_Source\PSoC6\pdl\drivers\peripheral\gpio/cy_gpio.h **** 
 114              		.loc 2 592 0
 115 0048 424E     		ldr	r6, .L9+4
 116 004a B446     		mov	ip, r6
 117 004c 6344     		add	r3, r3, ip
 118              	.LVL12:
 119 004e 1B01     		lsls	r3, r3, #4
 120              	.LVL13:
 594:Generated_Source\PSoC6\pdl\drivers\peripheral\gpio/cy_gpio.h ****     {
 121              		.loc 2 594 0
 122 0050 0329     		cmp	r1, #3
 123 0052 0DD8     		bhi	.L5
 596:Generated_Source\PSoC6\pdl\drivers\peripheral\gpio/cy_gpio.h ****         portAddrHSIOM->PORT_SEL0 = tempReg | ((value & CY_GPIO_HSIOM_MASK) << (pinNum << CY_GPIO_HS
 124              		.loc 2 596 0
 125 0054 1F68     		ldr	r7, [r3]
 126 0056 CC00     		lsls	r4, r1, #3
 127 0058 A446     		mov	ip, r4
 128 005a 1F26     		movs	r6, #31
 129 005c A640     		lsls	r6, r6, r4
 130 005e B743     		bics	r7, r6
 131              	.LVL14:
 597:Generated_Source\PSoC6\pdl\drivers\peripheral\gpio/cy_gpio.h ****     }
 132              		.loc 2 597 0
 133 0060 1F26     		movs	r6, #31
 134 0062 4446     		mov	r4, r8
 135 0064 3440     		ands	r4, r6
 136 0066 6646     		mov	r6, ip
 137 0068 B440     		lsls	r4, r4, r6
 138 006a 3C43     		orrs	r4, r7
 139 006c 1C60     		str	r4, [r3]
 140 006e 0EE0     		b	.L6
 141              	.LVL15:
 142              	.L5:
 601:Generated_Source\PSoC6\pdl\drivers\peripheral\gpio/cy_gpio.h ****         tempReg = portAddrHSIOM->PORT_SEL1 & ~(CY_GPIO_HSIOM_MASK << (pinNum << CY_GPIO_HSIOM_OFFSE
 143              		.loc 2 601 0
ARM GAS  C:\Users\kiwamu\AppData\Local\Temp\ccUfXRBo.s 			page 20


 144 0070 0E1F     		subs	r6, r1, #4
 145              	.LVL16:
 602:Generated_Source\PSoC6\pdl\drivers\peripheral\gpio/cy_gpio.h ****         portAddrHSIOM->PORT_SEL1 = tempReg | ((value & CY_GPIO_HSIOM_MASK) << (pinNum << CY_GPIO_HS
 146              		.loc 2 602 0
 147 0072 5F68     		ldr	r7, [r3, #4]
 148 0074 F600     		lsls	r6, r6, #3
 149 0076 1F24     		movs	r4, #31
 150 0078 B440     		lsls	r4, r4, r6
 151 007a A743     		bics	r7, r4
 152 007c B946     		mov	r9, r7
 153              	.LVL17:
 603:Generated_Source\PSoC6\pdl\drivers\peripheral\gpio/cy_gpio.h ****     }
 154              		.loc 2 603 0
 155 007e 1F24     		movs	r4, #31
 156 0080 4746     		mov	r7, r8
 157              	.LVL18:
 158 0082 2740     		ands	r7, r4
 159 0084 3C00     		movs	r4, r7
 160 0086 B440     		lsls	r4, r4, r6
 161 0088 4E46     		mov	r6, r9
 162 008a 3443     		orrs	r4, r6
 163 008c 5C60     		str	r4, [r3, #4]
 164              	.LVL19:
 165              	.L6:
 166              	.LBE29:
 167              	.LBE28:
 168              	.LBB30:
 169              	.LBB31:
 879:Generated_Source\PSoC6\pdl\drivers\peripheral\gpio/cy_gpio.h **** }
 880:Generated_Source\PSoC6\pdl\drivers\peripheral\gpio/cy_gpio.h **** 
 881:Generated_Source\PSoC6\pdl\drivers\peripheral\gpio/cy_gpio.h **** 
 882:Generated_Source\PSoC6\pdl\drivers\peripheral\gpio/cy_gpio.h **** /*******************************************************************************
 883:Generated_Source\PSoC6\pdl\drivers\peripheral\gpio/cy_gpio.h **** * Function Name: Cy_GPIO_GetDrivemode
 884:Generated_Source\PSoC6\pdl\drivers\peripheral\gpio/cy_gpio.h **** ****************************************************************************//**
 885:Generated_Source\PSoC6\pdl\drivers\peripheral\gpio/cy_gpio.h **** *
 886:Generated_Source\PSoC6\pdl\drivers\peripheral\gpio/cy_gpio.h **** * \brief Returns the pin output buffer drive mode and input buffer enable state.
 887:Generated_Source\PSoC6\pdl\drivers\peripheral\gpio/cy_gpio.h **** *
 888:Generated_Source\PSoC6\pdl\drivers\peripheral\gpio/cy_gpio.h **** * \param base
 889:Generated_Source\PSoC6\pdl\drivers\peripheral\gpio/cy_gpio.h **** * Pointer to the pin's port register base address
 890:Generated_Source\PSoC6\pdl\drivers\peripheral\gpio/cy_gpio.h **** *
 891:Generated_Source\PSoC6\pdl\drivers\peripheral\gpio/cy_gpio.h **** * \param pinNum
 892:Generated_Source\PSoC6\pdl\drivers\peripheral\gpio/cy_gpio.h **** * Position of the pin bit-field within the port register
 893:Generated_Source\PSoC6\pdl\drivers\peripheral\gpio/cy_gpio.h **** *
 894:Generated_Source\PSoC6\pdl\drivers\peripheral\gpio/cy_gpio.h **** * \return
 895:Generated_Source\PSoC6\pdl\drivers\peripheral\gpio/cy_gpio.h **** * Pin drive mode. Options are detailed in \ref group_gpio_driveModes macros
 896:Generated_Source\PSoC6\pdl\drivers\peripheral\gpio/cy_gpio.h **** *
 897:Generated_Source\PSoC6\pdl\drivers\peripheral\gpio/cy_gpio.h **** *******************************************************************************/
 898:Generated_Source\PSoC6\pdl\drivers\peripheral\gpio/cy_gpio.h **** __STATIC_INLINE uint32_t Cy_GPIO_GetDrivemode(GPIO_PRT_Type* base, uint32_t pinNum)
 899:Generated_Source\PSoC6\pdl\drivers\peripheral\gpio/cy_gpio.h **** {
 900:Generated_Source\PSoC6\pdl\drivers\peripheral\gpio/cy_gpio.h ****     return (base->CFG >> (pinNum << CY_GPIO_DRIVE_MODE_OFFSET)) & CY_GPIO_CFG_DM_MASK;
 901:Generated_Source\PSoC6\pdl\drivers\peripheral\gpio/cy_gpio.h **** }
 902:Generated_Source\PSoC6\pdl\drivers\peripheral\gpio/cy_gpio.h **** 
 903:Generated_Source\PSoC6\pdl\drivers\peripheral\gpio/cy_gpio.h **** 
 904:Generated_Source\PSoC6\pdl\drivers\peripheral\gpio/cy_gpio.h **** /*******************************************************************************
 905:Generated_Source\PSoC6\pdl\drivers\peripheral\gpio/cy_gpio.h **** * Function Name: Cy_GPIO_SetVtrip
 906:Generated_Source\PSoC6\pdl\drivers\peripheral\gpio/cy_gpio.h **** ****************************************************************************//**
 907:Generated_Source\PSoC6\pdl\drivers\peripheral\gpio/cy_gpio.h **** *
ARM GAS  C:\Users\kiwamu\AppData\Local\Temp\ccUfXRBo.s 			page 21


 908:Generated_Source\PSoC6\pdl\drivers\peripheral\gpio/cy_gpio.h **** * \brief Configures the GPIO pin input buffer voltage threshold mode.
 909:Generated_Source\PSoC6\pdl\drivers\peripheral\gpio/cy_gpio.h **** *
 910:Generated_Source\PSoC6\pdl\drivers\peripheral\gpio/cy_gpio.h **** * \param base
 911:Generated_Source\PSoC6\pdl\drivers\peripheral\gpio/cy_gpio.h **** * Pointer to the pin's port register base address
 912:Generated_Source\PSoC6\pdl\drivers\peripheral\gpio/cy_gpio.h **** *
 913:Generated_Source\PSoC6\pdl\drivers\peripheral\gpio/cy_gpio.h **** * \param pinNum
 914:Generated_Source\PSoC6\pdl\drivers\peripheral\gpio/cy_gpio.h **** * Position of the pin bit-field within the port register
 915:Generated_Source\PSoC6\pdl\drivers\peripheral\gpio/cy_gpio.h **** *
 916:Generated_Source\PSoC6\pdl\drivers\peripheral\gpio/cy_gpio.h **** * \param value
 917:Generated_Source\PSoC6\pdl\drivers\peripheral\gpio/cy_gpio.h **** * Pin voltage threshold mode. Options are detailed in \ref group_gpio_vtrip macros
 918:Generated_Source\PSoC6\pdl\drivers\peripheral\gpio/cy_gpio.h **** *
 919:Generated_Source\PSoC6\pdl\drivers\peripheral\gpio/cy_gpio.h **** * \return
 920:Generated_Source\PSoC6\pdl\drivers\peripheral\gpio/cy_gpio.h **** * void
 921:Generated_Source\PSoC6\pdl\drivers\peripheral\gpio/cy_gpio.h **** *
 922:Generated_Source\PSoC6\pdl\drivers\peripheral\gpio/cy_gpio.h **** * \note 
 923:Generated_Source\PSoC6\pdl\drivers\peripheral\gpio/cy_gpio.h **** * This function modifies a port register in a read-modify-write operation. It is
 924:Generated_Source\PSoC6\pdl\drivers\peripheral\gpio/cy_gpio.h **** * not thread safe as the resource is shared among multiple pins on a port.
 925:Generated_Source\PSoC6\pdl\drivers\peripheral\gpio/cy_gpio.h **** *
 926:Generated_Source\PSoC6\pdl\drivers\peripheral\gpio/cy_gpio.h **** *******************************************************************************/
 927:Generated_Source\PSoC6\pdl\drivers\peripheral\gpio/cy_gpio.h **** __STATIC_INLINE void Cy_GPIO_SetVtrip(GPIO_PRT_Type* base, uint32_t pinNum, uint32_t value)
 928:Generated_Source\PSoC6\pdl\drivers\peripheral\gpio/cy_gpio.h **** {
 929:Generated_Source\PSoC6\pdl\drivers\peripheral\gpio/cy_gpio.h ****     uint32_t tempReg;
 930:Generated_Source\PSoC6\pdl\drivers\peripheral\gpio/cy_gpio.h **** 
 931:Generated_Source\PSoC6\pdl\drivers\peripheral\gpio/cy_gpio.h ****     tempReg = base->CFG_IN & ~(CY_GPIO_CFG_IN_VTRIP_SEL_MASK << pinNum);
 932:Generated_Source\PSoC6\pdl\drivers\peripheral\gpio/cy_gpio.h ****     base->CFG_IN = tempReg | ((value & CY_GPIO_CFG_IN_VTRIP_SEL_MASK) << pinNum);
 933:Generated_Source\PSoC6\pdl\drivers\peripheral\gpio/cy_gpio.h **** }
 934:Generated_Source\PSoC6\pdl\drivers\peripheral\gpio/cy_gpio.h **** 
 935:Generated_Source\PSoC6\pdl\drivers\peripheral\gpio/cy_gpio.h **** 
 936:Generated_Source\PSoC6\pdl\drivers\peripheral\gpio/cy_gpio.h **** /*******************************************************************************
 937:Generated_Source\PSoC6\pdl\drivers\peripheral\gpio/cy_gpio.h **** * Function Name: Cy_GPIO_GetVtrip
 938:Generated_Source\PSoC6\pdl\drivers\peripheral\gpio/cy_gpio.h **** ****************************************************************************//**
 939:Generated_Source\PSoC6\pdl\drivers\peripheral\gpio/cy_gpio.h **** *
 940:Generated_Source\PSoC6\pdl\drivers\peripheral\gpio/cy_gpio.h **** * \brief Returns the pin input buffer voltage threshold mode.
 941:Generated_Source\PSoC6\pdl\drivers\peripheral\gpio/cy_gpio.h **** *
 942:Generated_Source\PSoC6\pdl\drivers\peripheral\gpio/cy_gpio.h **** * \param base
 943:Generated_Source\PSoC6\pdl\drivers\peripheral\gpio/cy_gpio.h **** * Pointer to the pin's port register base address
 944:Generated_Source\PSoC6\pdl\drivers\peripheral\gpio/cy_gpio.h **** *
 945:Generated_Source\PSoC6\pdl\drivers\peripheral\gpio/cy_gpio.h **** * \param pinNum
 946:Generated_Source\PSoC6\pdl\drivers\peripheral\gpio/cy_gpio.h **** * Position of the pin bit-field within the port register
 947:Generated_Source\PSoC6\pdl\drivers\peripheral\gpio/cy_gpio.h **** *
 948:Generated_Source\PSoC6\pdl\drivers\peripheral\gpio/cy_gpio.h **** * \return
 949:Generated_Source\PSoC6\pdl\drivers\peripheral\gpio/cy_gpio.h **** * Pin voltage threshold mode. Options are detailed in \ref group_gpio_vtrip macros
 950:Generated_Source\PSoC6\pdl\drivers\peripheral\gpio/cy_gpio.h **** *
 951:Generated_Source\PSoC6\pdl\drivers\peripheral\gpio/cy_gpio.h **** *******************************************************************************/
 952:Generated_Source\PSoC6\pdl\drivers\peripheral\gpio/cy_gpio.h **** __STATIC_INLINE uint32_t Cy_GPIO_GetVtrip(GPIO_PRT_Type* base, uint32_t pinNum)
 953:Generated_Source\PSoC6\pdl\drivers\peripheral\gpio/cy_gpio.h **** {
 954:Generated_Source\PSoC6\pdl\drivers\peripheral\gpio/cy_gpio.h ****     return (base->CFG_IN >> pinNum) & CY_GPIO_CFG_IN_VTRIP_SEL_MASK;
 955:Generated_Source\PSoC6\pdl\drivers\peripheral\gpio/cy_gpio.h **** }
 956:Generated_Source\PSoC6\pdl\drivers\peripheral\gpio/cy_gpio.h **** 
 957:Generated_Source\PSoC6\pdl\drivers\peripheral\gpio/cy_gpio.h **** 
 958:Generated_Source\PSoC6\pdl\drivers\peripheral\gpio/cy_gpio.h **** /*******************************************************************************
 959:Generated_Source\PSoC6\pdl\drivers\peripheral\gpio/cy_gpio.h **** * Function Name: Cy_GPIO_SetSlewRate
 960:Generated_Source\PSoC6\pdl\drivers\peripheral\gpio/cy_gpio.h **** ****************************************************************************//**
 961:Generated_Source\PSoC6\pdl\drivers\peripheral\gpio/cy_gpio.h **** *
 962:Generated_Source\PSoC6\pdl\drivers\peripheral\gpio/cy_gpio.h **** * \brief Configures the pin output buffer slew rate.
 963:Generated_Source\PSoC6\pdl\drivers\peripheral\gpio/cy_gpio.h **** *
 964:Generated_Source\PSoC6\pdl\drivers\peripheral\gpio/cy_gpio.h **** * \param base
ARM GAS  C:\Users\kiwamu\AppData\Local\Temp\ccUfXRBo.s 			page 22


 965:Generated_Source\PSoC6\pdl\drivers\peripheral\gpio/cy_gpio.h **** * Pointer to the pin's port register base address
 966:Generated_Source\PSoC6\pdl\drivers\peripheral\gpio/cy_gpio.h **** *
 967:Generated_Source\PSoC6\pdl\drivers\peripheral\gpio/cy_gpio.h **** * \param pinNum
 968:Generated_Source\PSoC6\pdl\drivers\peripheral\gpio/cy_gpio.h **** * Position of the pin bit-field within the port register
 969:Generated_Source\PSoC6\pdl\drivers\peripheral\gpio/cy_gpio.h **** *
 970:Generated_Source\PSoC6\pdl\drivers\peripheral\gpio/cy_gpio.h **** * \param value
 971:Generated_Source\PSoC6\pdl\drivers\peripheral\gpio/cy_gpio.h **** * Pin slew rate. Options are detailed in \ref group_gpio_slewRate macros
 972:Generated_Source\PSoC6\pdl\drivers\peripheral\gpio/cy_gpio.h **** *
 973:Generated_Source\PSoC6\pdl\drivers\peripheral\gpio/cy_gpio.h **** * \return
 974:Generated_Source\PSoC6\pdl\drivers\peripheral\gpio/cy_gpio.h **** * void
 975:Generated_Source\PSoC6\pdl\drivers\peripheral\gpio/cy_gpio.h **** *
 976:Generated_Source\PSoC6\pdl\drivers\peripheral\gpio/cy_gpio.h **** * \note 
 977:Generated_Source\PSoC6\pdl\drivers\peripheral\gpio/cy_gpio.h **** * This function modifies a port register in a read-modify-write operation. It is
 978:Generated_Source\PSoC6\pdl\drivers\peripheral\gpio/cy_gpio.h **** * not thread safe as the resource is shared among multiple pins on a port.
 979:Generated_Source\PSoC6\pdl\drivers\peripheral\gpio/cy_gpio.h **** *
 980:Generated_Source\PSoC6\pdl\drivers\peripheral\gpio/cy_gpio.h **** *******************************************************************************/
 981:Generated_Source\PSoC6\pdl\drivers\peripheral\gpio/cy_gpio.h **** __STATIC_INLINE void Cy_GPIO_SetSlewRate(GPIO_PRT_Type* base, uint32_t pinNum, uint32_t value)
 982:Generated_Source\PSoC6\pdl\drivers\peripheral\gpio/cy_gpio.h **** {
 983:Generated_Source\PSoC6\pdl\drivers\peripheral\gpio/cy_gpio.h ****     uint32_t tempReg;
 984:Generated_Source\PSoC6\pdl\drivers\peripheral\gpio/cy_gpio.h **** 
 985:Generated_Source\PSoC6\pdl\drivers\peripheral\gpio/cy_gpio.h ****     tempReg = base->CFG_OUT & ~(CY_GPIO_CFG_OUT_SLOW_MASK << pinNum);
 986:Generated_Source\PSoC6\pdl\drivers\peripheral\gpio/cy_gpio.h ****     base->CFG_OUT = tempReg | ((value & CY_GPIO_CFG_OUT_SLOW_MASK) << pinNum);
 987:Generated_Source\PSoC6\pdl\drivers\peripheral\gpio/cy_gpio.h **** }
 988:Generated_Source\PSoC6\pdl\drivers\peripheral\gpio/cy_gpio.h **** 
 989:Generated_Source\PSoC6\pdl\drivers\peripheral\gpio/cy_gpio.h **** 
 990:Generated_Source\PSoC6\pdl\drivers\peripheral\gpio/cy_gpio.h **** /*******************************************************************************
 991:Generated_Source\PSoC6\pdl\drivers\peripheral\gpio/cy_gpio.h **** * Function Name: Cy_GPIO_GetSlewRate
 992:Generated_Source\PSoC6\pdl\drivers\peripheral\gpio/cy_gpio.h **** ****************************************************************************//**
 993:Generated_Source\PSoC6\pdl\drivers\peripheral\gpio/cy_gpio.h **** *
 994:Generated_Source\PSoC6\pdl\drivers\peripheral\gpio/cy_gpio.h **** * \brief Returns the pin output buffer slew rate.
 995:Generated_Source\PSoC6\pdl\drivers\peripheral\gpio/cy_gpio.h **** *
 996:Generated_Source\PSoC6\pdl\drivers\peripheral\gpio/cy_gpio.h **** * \param base
 997:Generated_Source\PSoC6\pdl\drivers\peripheral\gpio/cy_gpio.h **** * Pointer to the pin's port register base address
 998:Generated_Source\PSoC6\pdl\drivers\peripheral\gpio/cy_gpio.h **** *
 999:Generated_Source\PSoC6\pdl\drivers\peripheral\gpio/cy_gpio.h **** * \param pinNum
1000:Generated_Source\PSoC6\pdl\drivers\peripheral\gpio/cy_gpio.h **** * Position of the pin bit-field within the port register
1001:Generated_Source\PSoC6\pdl\drivers\peripheral\gpio/cy_gpio.h **** *
1002:Generated_Source\PSoC6\pdl\drivers\peripheral\gpio/cy_gpio.h **** * \return
1003:Generated_Source\PSoC6\pdl\drivers\peripheral\gpio/cy_gpio.h **** * Pin slew rate. Options are detailed in \ref group_gpio_slewRate macros
1004:Generated_Source\PSoC6\pdl\drivers\peripheral\gpio/cy_gpio.h **** *
1005:Generated_Source\PSoC6\pdl\drivers\peripheral\gpio/cy_gpio.h **** *******************************************************************************/
1006:Generated_Source\PSoC6\pdl\drivers\peripheral\gpio/cy_gpio.h **** __STATIC_INLINE uint32_t Cy_GPIO_GetSlewRate(GPIO_PRT_Type* base, uint32_t pinNum)
1007:Generated_Source\PSoC6\pdl\drivers\peripheral\gpio/cy_gpio.h **** {
1008:Generated_Source\PSoC6\pdl\drivers\peripheral\gpio/cy_gpio.h ****     return (base->CFG_OUT >> pinNum) & CY_GPIO_CFG_OUT_SLOW_MASK;
1009:Generated_Source\PSoC6\pdl\drivers\peripheral\gpio/cy_gpio.h **** }
1010:Generated_Source\PSoC6\pdl\drivers\peripheral\gpio/cy_gpio.h **** 
1011:Generated_Source\PSoC6\pdl\drivers\peripheral\gpio/cy_gpio.h **** 
1012:Generated_Source\PSoC6\pdl\drivers\peripheral\gpio/cy_gpio.h **** /*******************************************************************************
1013:Generated_Source\PSoC6\pdl\drivers\peripheral\gpio/cy_gpio.h **** * Function Name: Cy_GPIO_SetDriveSel
1014:Generated_Source\PSoC6\pdl\drivers\peripheral\gpio/cy_gpio.h **** ****************************************************************************//**
1015:Generated_Source\PSoC6\pdl\drivers\peripheral\gpio/cy_gpio.h **** *
1016:Generated_Source\PSoC6\pdl\drivers\peripheral\gpio/cy_gpio.h **** * \brief Configures the pin output buffer drive strength.
1017:Generated_Source\PSoC6\pdl\drivers\peripheral\gpio/cy_gpio.h **** *
1018:Generated_Source\PSoC6\pdl\drivers\peripheral\gpio/cy_gpio.h **** * \param base
1019:Generated_Source\PSoC6\pdl\drivers\peripheral\gpio/cy_gpio.h **** * Pointer to the pin's port register base address
1020:Generated_Source\PSoC6\pdl\drivers\peripheral\gpio/cy_gpio.h **** *
1021:Generated_Source\PSoC6\pdl\drivers\peripheral\gpio/cy_gpio.h **** * \param pinNum
ARM GAS  C:\Users\kiwamu\AppData\Local\Temp\ccUfXRBo.s 			page 23


1022:Generated_Source\PSoC6\pdl\drivers\peripheral\gpio/cy_gpio.h **** * Position of the pin bit-field within the port register
1023:Generated_Source\PSoC6\pdl\drivers\peripheral\gpio/cy_gpio.h **** *
1024:Generated_Source\PSoC6\pdl\drivers\peripheral\gpio/cy_gpio.h **** * \param value
1025:Generated_Source\PSoC6\pdl\drivers\peripheral\gpio/cy_gpio.h **** * Pin drive strength. Options are detailed in \ref group_gpio_driveStrength macros
1026:Generated_Source\PSoC6\pdl\drivers\peripheral\gpio/cy_gpio.h **** *
1027:Generated_Source\PSoC6\pdl\drivers\peripheral\gpio/cy_gpio.h **** * \return
1028:Generated_Source\PSoC6\pdl\drivers\peripheral\gpio/cy_gpio.h **** * void
1029:Generated_Source\PSoC6\pdl\drivers\peripheral\gpio/cy_gpio.h **** *
1030:Generated_Source\PSoC6\pdl\drivers\peripheral\gpio/cy_gpio.h **** * \note 
1031:Generated_Source\PSoC6\pdl\drivers\peripheral\gpio/cy_gpio.h **** * This function modifies a port register in a read-modify-write operation. It is
1032:Generated_Source\PSoC6\pdl\drivers\peripheral\gpio/cy_gpio.h **** * not thread safe as the resource is shared among multiple pins on a port.
1033:Generated_Source\PSoC6\pdl\drivers\peripheral\gpio/cy_gpio.h **** *
1034:Generated_Source\PSoC6\pdl\drivers\peripheral\gpio/cy_gpio.h **** *******************************************************************************/
1035:Generated_Source\PSoC6\pdl\drivers\peripheral\gpio/cy_gpio.h **** __STATIC_INLINE void Cy_GPIO_SetDriveSel(GPIO_PRT_Type* base, uint32_t pinNum, uint32_t value)
1036:Generated_Source\PSoC6\pdl\drivers\peripheral\gpio/cy_gpio.h **** {
1037:Generated_Source\PSoC6\pdl\drivers\peripheral\gpio/cy_gpio.h ****     uint32_t tempReg;
1038:Generated_Source\PSoC6\pdl\drivers\peripheral\gpio/cy_gpio.h ****     uint32_t pinLoc;
1039:Generated_Source\PSoC6\pdl\drivers\peripheral\gpio/cy_gpio.h **** 
1040:Generated_Source\PSoC6\pdl\drivers\peripheral\gpio/cy_gpio.h ****     pinLoc = pinNum + CY_GPIO_CFG_OUT_DRIVE_OFFSET;
1041:Generated_Source\PSoC6\pdl\drivers\peripheral\gpio/cy_gpio.h ****     tempReg = base->CFG_OUT & ~(CY_GPIO_CFG_OUT_DRIVE_SEL_MASK << pinLoc);
1042:Generated_Source\PSoC6\pdl\drivers\peripheral\gpio/cy_gpio.h ****     base->CFG_OUT = tempReg | ((value & CY_GPIO_CFG_OUT_DRIVE_SEL_MASK) << pinLoc);
1043:Generated_Source\PSoC6\pdl\drivers\peripheral\gpio/cy_gpio.h **** }
1044:Generated_Source\PSoC6\pdl\drivers\peripheral\gpio/cy_gpio.h **** 
1045:Generated_Source\PSoC6\pdl\drivers\peripheral\gpio/cy_gpio.h **** 
1046:Generated_Source\PSoC6\pdl\drivers\peripheral\gpio/cy_gpio.h **** /*******************************************************************************
1047:Generated_Source\PSoC6\pdl\drivers\peripheral\gpio/cy_gpio.h **** * Function Name: Cy_GPIO_GetDriveSel
1048:Generated_Source\PSoC6\pdl\drivers\peripheral\gpio/cy_gpio.h **** ****************************************************************************//**
1049:Generated_Source\PSoC6\pdl\drivers\peripheral\gpio/cy_gpio.h **** *
1050:Generated_Source\PSoC6\pdl\drivers\peripheral\gpio/cy_gpio.h **** * \brief Returns the pin output buffer drive strength.
1051:Generated_Source\PSoC6\pdl\drivers\peripheral\gpio/cy_gpio.h **** *
1052:Generated_Source\PSoC6\pdl\drivers\peripheral\gpio/cy_gpio.h **** * \param base
1053:Generated_Source\PSoC6\pdl\drivers\peripheral\gpio/cy_gpio.h **** * Pointer to the pin's port register base address
1054:Generated_Source\PSoC6\pdl\drivers\peripheral\gpio/cy_gpio.h **** *
1055:Generated_Source\PSoC6\pdl\drivers\peripheral\gpio/cy_gpio.h **** * \param pinNum
1056:Generated_Source\PSoC6\pdl\drivers\peripheral\gpio/cy_gpio.h **** * Position of the pin bit-field within the port register
1057:Generated_Source\PSoC6\pdl\drivers\peripheral\gpio/cy_gpio.h **** *
1058:Generated_Source\PSoC6\pdl\drivers\peripheral\gpio/cy_gpio.h **** * \return
1059:Generated_Source\PSoC6\pdl\drivers\peripheral\gpio/cy_gpio.h **** * Pin drive strength. Options are detailed in \ref group_gpio_driveStrength macros
1060:Generated_Source\PSoC6\pdl\drivers\peripheral\gpio/cy_gpio.h **** *
1061:Generated_Source\PSoC6\pdl\drivers\peripheral\gpio/cy_gpio.h **** *******************************************************************************/
1062:Generated_Source\PSoC6\pdl\drivers\peripheral\gpio/cy_gpio.h **** __STATIC_INLINE uint32_t Cy_GPIO_GetDriveSel(GPIO_PRT_Type* base, uint32_t pinNum)
1063:Generated_Source\PSoC6\pdl\drivers\peripheral\gpio/cy_gpio.h **** {
1064:Generated_Source\PSoC6\pdl\drivers\peripheral\gpio/cy_gpio.h ****     return (base->CFG_OUT >> (pinNum + CY_GPIO_CFG_OUT_DRIVE_OFFSET)) & CY_GPIO_CFG_OUT_DRIVE_SEL_M
1065:Generated_Source\PSoC6\pdl\drivers\peripheral\gpio/cy_gpio.h **** }
1066:Generated_Source\PSoC6\pdl\drivers\peripheral\gpio/cy_gpio.h **** 
1067:Generated_Source\PSoC6\pdl\drivers\peripheral\gpio/cy_gpio.h **** /** \} group_gpio_functions_gpio */
1068:Generated_Source\PSoC6\pdl\drivers\peripheral\gpio/cy_gpio.h **** 
1069:Generated_Source\PSoC6\pdl\drivers\peripheral\gpio/cy_gpio.h **** /**
1070:Generated_Source\PSoC6\pdl\drivers\peripheral\gpio/cy_gpio.h **** * \addtogroup group_gpio_functions_sio
1071:Generated_Source\PSoC6\pdl\drivers\peripheral\gpio/cy_gpio.h **** * \{
1072:Generated_Source\PSoC6\pdl\drivers\peripheral\gpio/cy_gpio.h **** */
1073:Generated_Source\PSoC6\pdl\drivers\peripheral\gpio/cy_gpio.h **** 
1074:Generated_Source\PSoC6\pdl\drivers\peripheral\gpio/cy_gpio.h **** /*******************************************************************************
1075:Generated_Source\PSoC6\pdl\drivers\peripheral\gpio/cy_gpio.h **** * Function Name: Cy_GPIO_SetVregEn
1076:Generated_Source\PSoC6\pdl\drivers\peripheral\gpio/cy_gpio.h **** ****************************************************************************//**
1077:Generated_Source\PSoC6\pdl\drivers\peripheral\gpio/cy_gpio.h **** *
1078:Generated_Source\PSoC6\pdl\drivers\peripheral\gpio/cy_gpio.h **** * \brief Configures the SIO pin pair output buffer regulation mode.
ARM GAS  C:\Users\kiwamu\AppData\Local\Temp\ccUfXRBo.s 			page 24


1079:Generated_Source\PSoC6\pdl\drivers\peripheral\gpio/cy_gpio.h **** *
1080:Generated_Source\PSoC6\pdl\drivers\peripheral\gpio/cy_gpio.h **** * Note that this function has no effect on non-SIO pins.
1081:Generated_Source\PSoC6\pdl\drivers\peripheral\gpio/cy_gpio.h **** *
1082:Generated_Source\PSoC6\pdl\drivers\peripheral\gpio/cy_gpio.h **** * \param base
1083:Generated_Source\PSoC6\pdl\drivers\peripheral\gpio/cy_gpio.h **** * Pointer to the pin's port register base address
1084:Generated_Source\PSoC6\pdl\drivers\peripheral\gpio/cy_gpio.h **** *
1085:Generated_Source\PSoC6\pdl\drivers\peripheral\gpio/cy_gpio.h **** * \param pinNum
1086:Generated_Source\PSoC6\pdl\drivers\peripheral\gpio/cy_gpio.h **** * Position of the pin bit-field within the port register
1087:Generated_Source\PSoC6\pdl\drivers\peripheral\gpio/cy_gpio.h **** *
1088:Generated_Source\PSoC6\pdl\drivers\peripheral\gpio/cy_gpio.h **** * \param value
1089:Generated_Source\PSoC6\pdl\drivers\peripheral\gpio/cy_gpio.h **** * SIO pair output buffer regulator mode. Options are detailed in \ref group_gpio_sioVreg macros
1090:Generated_Source\PSoC6\pdl\drivers\peripheral\gpio/cy_gpio.h **** *
1091:Generated_Source\PSoC6\pdl\drivers\peripheral\gpio/cy_gpio.h **** * \return
1092:Generated_Source\PSoC6\pdl\drivers\peripheral\gpio/cy_gpio.h **** * void
1093:Generated_Source\PSoC6\pdl\drivers\peripheral\gpio/cy_gpio.h **** *
1094:Generated_Source\PSoC6\pdl\drivers\peripheral\gpio/cy_gpio.h **** * \note 
1095:Generated_Source\PSoC6\pdl\drivers\peripheral\gpio/cy_gpio.h **** * This function modifies a port register in a read-modify-write operation. It is
1096:Generated_Source\PSoC6\pdl\drivers\peripheral\gpio/cy_gpio.h **** * not thread safe as the resource is shared among multiple pins on a port.
1097:Generated_Source\PSoC6\pdl\drivers\peripheral\gpio/cy_gpio.h **** *
1098:Generated_Source\PSoC6\pdl\drivers\peripheral\gpio/cy_gpio.h **** *******************************************************************************/
1099:Generated_Source\PSoC6\pdl\drivers\peripheral\gpio/cy_gpio.h **** __STATIC_INLINE void Cy_GPIO_SetVregEn(GPIO_PRT_Type* base, uint32_t pinNum, uint32_t value)
1100:Generated_Source\PSoC6\pdl\drivers\peripheral\gpio/cy_gpio.h **** {
1101:Generated_Source\PSoC6\pdl\drivers\peripheral\gpio/cy_gpio.h ****     uint32_t tempReg;
1102:Generated_Source\PSoC6\pdl\drivers\peripheral\gpio/cy_gpio.h ****     uint32_t pinLoc;
1103:Generated_Source\PSoC6\pdl\drivers\peripheral\gpio/cy_gpio.h **** 
1104:Generated_Source\PSoC6\pdl\drivers\peripheral\gpio/cy_gpio.h ****     pinLoc = (pinNum & CY_GPIO_SIO_ODD_PIN_MASK) << CY_GPIO_CFG_SIO_OFFSET;
1105:Generated_Source\PSoC6\pdl\drivers\peripheral\gpio/cy_gpio.h ****     tempReg = base->CFG_SIO & ~(CY_GPIO_VREG_EN_MASK << pinLoc);
1106:Generated_Source\PSoC6\pdl\drivers\peripheral\gpio/cy_gpio.h ****     base->CFG_SIO = tempReg | ((value & CY_GPIO_VREG_EN_MASK) << pinLoc);
1107:Generated_Source\PSoC6\pdl\drivers\peripheral\gpio/cy_gpio.h **** }
1108:Generated_Source\PSoC6\pdl\drivers\peripheral\gpio/cy_gpio.h **** 
1109:Generated_Source\PSoC6\pdl\drivers\peripheral\gpio/cy_gpio.h **** 
1110:Generated_Source\PSoC6\pdl\drivers\peripheral\gpio/cy_gpio.h **** /*******************************************************************************
1111:Generated_Source\PSoC6\pdl\drivers\peripheral\gpio/cy_gpio.h **** * Function Name: Cy_GPIO_GetVregEn
1112:Generated_Source\PSoC6\pdl\drivers\peripheral\gpio/cy_gpio.h **** ****************************************************************************//**
1113:Generated_Source\PSoC6\pdl\drivers\peripheral\gpio/cy_gpio.h **** *
1114:Generated_Source\PSoC6\pdl\drivers\peripheral\gpio/cy_gpio.h **** * \brief Returns the SIO pin pair output buffer regulation mode.
1115:Generated_Source\PSoC6\pdl\drivers\peripheral\gpio/cy_gpio.h **** *
1116:Generated_Source\PSoC6\pdl\drivers\peripheral\gpio/cy_gpio.h **** * Note that this function has no effect on non-SIO pins.
1117:Generated_Source\PSoC6\pdl\drivers\peripheral\gpio/cy_gpio.h **** *
1118:Generated_Source\PSoC6\pdl\drivers\peripheral\gpio/cy_gpio.h **** * \param base
1119:Generated_Source\PSoC6\pdl\drivers\peripheral\gpio/cy_gpio.h **** * Pointer to the pin's port register base address
1120:Generated_Source\PSoC6\pdl\drivers\peripheral\gpio/cy_gpio.h **** *
1121:Generated_Source\PSoC6\pdl\drivers\peripheral\gpio/cy_gpio.h **** * \param pinNum
1122:Generated_Source\PSoC6\pdl\drivers\peripheral\gpio/cy_gpio.h **** * Position of the pin bit-field within the port register
1123:Generated_Source\PSoC6\pdl\drivers\peripheral\gpio/cy_gpio.h **** *
1124:Generated_Source\PSoC6\pdl\drivers\peripheral\gpio/cy_gpio.h **** * \return
1125:Generated_Source\PSoC6\pdl\drivers\peripheral\gpio/cy_gpio.h **** * SIO pair output buffer regulator mode. Options are detailed in \ref group_gpio_sioVreg macros
1126:Generated_Source\PSoC6\pdl\drivers\peripheral\gpio/cy_gpio.h **** *
1127:Generated_Source\PSoC6\pdl\drivers\peripheral\gpio/cy_gpio.h **** *******************************************************************************/
1128:Generated_Source\PSoC6\pdl\drivers\peripheral\gpio/cy_gpio.h **** __STATIC_INLINE uint32_t Cy_GPIO_GetVregEn(GPIO_PRT_Type* base, uint32_t pinNum)
1129:Generated_Source\PSoC6\pdl\drivers\peripheral\gpio/cy_gpio.h **** {
1130:Generated_Source\PSoC6\pdl\drivers\peripheral\gpio/cy_gpio.h ****     return (base->CFG_SIO >> ((pinNum & CY_GPIO_SIO_ODD_PIN_MASK) << CY_GPIO_CFG_SIO_OFFSET)) & CY_
1131:Generated_Source\PSoC6\pdl\drivers\peripheral\gpio/cy_gpio.h **** }
1132:Generated_Source\PSoC6\pdl\drivers\peripheral\gpio/cy_gpio.h **** 
1133:Generated_Source\PSoC6\pdl\drivers\peripheral\gpio/cy_gpio.h **** 
1134:Generated_Source\PSoC6\pdl\drivers\peripheral\gpio/cy_gpio.h **** /*******************************************************************************
1135:Generated_Source\PSoC6\pdl\drivers\peripheral\gpio/cy_gpio.h **** * Function Name: Cy_GPIO_SetIbufMode
ARM GAS  C:\Users\kiwamu\AppData\Local\Temp\ccUfXRBo.s 			page 25


1136:Generated_Source\PSoC6\pdl\drivers\peripheral\gpio/cy_gpio.h **** ****************************************************************************//**
1137:Generated_Source\PSoC6\pdl\drivers\peripheral\gpio/cy_gpio.h **** *
1138:Generated_Source\PSoC6\pdl\drivers\peripheral\gpio/cy_gpio.h **** * \brief Configures the SIO pin pair input buffer mode.
1139:Generated_Source\PSoC6\pdl\drivers\peripheral\gpio/cy_gpio.h **** *
1140:Generated_Source\PSoC6\pdl\drivers\peripheral\gpio/cy_gpio.h **** * Note that this function has no effect on non-SIO pins.
1141:Generated_Source\PSoC6\pdl\drivers\peripheral\gpio/cy_gpio.h **** *
1142:Generated_Source\PSoC6\pdl\drivers\peripheral\gpio/cy_gpio.h **** * \param base
1143:Generated_Source\PSoC6\pdl\drivers\peripheral\gpio/cy_gpio.h **** * Pointer to the pin's port register base address
1144:Generated_Source\PSoC6\pdl\drivers\peripheral\gpio/cy_gpio.h **** *
1145:Generated_Source\PSoC6\pdl\drivers\peripheral\gpio/cy_gpio.h **** * \param pinNum
1146:Generated_Source\PSoC6\pdl\drivers\peripheral\gpio/cy_gpio.h **** * Position of the pin bit-field within the port register
1147:Generated_Source\PSoC6\pdl\drivers\peripheral\gpio/cy_gpio.h **** *
1148:Generated_Source\PSoC6\pdl\drivers\peripheral\gpio/cy_gpio.h **** * \param value
1149:Generated_Source\PSoC6\pdl\drivers\peripheral\gpio/cy_gpio.h **** * SIO pair input buffer mode. Options are detailed in \ref group_gpio_sioIbuf macros
1150:Generated_Source\PSoC6\pdl\drivers\peripheral\gpio/cy_gpio.h **** *
1151:Generated_Source\PSoC6\pdl\drivers\peripheral\gpio/cy_gpio.h **** * \return
1152:Generated_Source\PSoC6\pdl\drivers\peripheral\gpio/cy_gpio.h **** * void
1153:Generated_Source\PSoC6\pdl\drivers\peripheral\gpio/cy_gpio.h **** *
1154:Generated_Source\PSoC6\pdl\drivers\peripheral\gpio/cy_gpio.h **** * \note 
1155:Generated_Source\PSoC6\pdl\drivers\peripheral\gpio/cy_gpio.h **** * This function modifies a port register in a read-modify-write operation. It is
1156:Generated_Source\PSoC6\pdl\drivers\peripheral\gpio/cy_gpio.h **** * not thread safe as the resource is shared among multiple pins on a port.
1157:Generated_Source\PSoC6\pdl\drivers\peripheral\gpio/cy_gpio.h **** *
1158:Generated_Source\PSoC6\pdl\drivers\peripheral\gpio/cy_gpio.h **** *******************************************************************************/
1159:Generated_Source\PSoC6\pdl\drivers\peripheral\gpio/cy_gpio.h **** __STATIC_INLINE void Cy_GPIO_SetIbufMode(GPIO_PRT_Type* base, uint32_t pinNum, uint32_t value)
1160:Generated_Source\PSoC6\pdl\drivers\peripheral\gpio/cy_gpio.h **** {
1161:Generated_Source\PSoC6\pdl\drivers\peripheral\gpio/cy_gpio.h ****     uint32_t tempReg;
1162:Generated_Source\PSoC6\pdl\drivers\peripheral\gpio/cy_gpio.h ****     uint32_t pinLoc;
1163:Generated_Source\PSoC6\pdl\drivers\peripheral\gpio/cy_gpio.h **** 
1164:Generated_Source\PSoC6\pdl\drivers\peripheral\gpio/cy_gpio.h ****     pinLoc = ((pinNum & CY_GPIO_SIO_ODD_PIN_MASK) << CY_GPIO_CFG_SIO_OFFSET) + CY_GPIO_IBUF_SHIFT;
1165:Generated_Source\PSoC6\pdl\drivers\peripheral\gpio/cy_gpio.h ****     tempReg = (base->CFG_SIO & ~(CY_GPIO_IBUF_MASK << pinLoc));
1166:Generated_Source\PSoC6\pdl\drivers\peripheral\gpio/cy_gpio.h ****     base->CFG_SIO = tempReg | ((value & CY_GPIO_IBUF_MASK) << pinLoc);
1167:Generated_Source\PSoC6\pdl\drivers\peripheral\gpio/cy_gpio.h **** }
1168:Generated_Source\PSoC6\pdl\drivers\peripheral\gpio/cy_gpio.h **** 
1169:Generated_Source\PSoC6\pdl\drivers\peripheral\gpio/cy_gpio.h **** 
1170:Generated_Source\PSoC6\pdl\drivers\peripheral\gpio/cy_gpio.h **** /*******************************************************************************
1171:Generated_Source\PSoC6\pdl\drivers\peripheral\gpio/cy_gpio.h **** * Function Name: Cy_GPIO_GetIbufMode
1172:Generated_Source\PSoC6\pdl\drivers\peripheral\gpio/cy_gpio.h **** ****************************************************************************//**
1173:Generated_Source\PSoC6\pdl\drivers\peripheral\gpio/cy_gpio.h **** *
1174:Generated_Source\PSoC6\pdl\drivers\peripheral\gpio/cy_gpio.h **** * \brief Returns the SIO pin pair input buffer mode.
1175:Generated_Source\PSoC6\pdl\drivers\peripheral\gpio/cy_gpio.h **** *
1176:Generated_Source\PSoC6\pdl\drivers\peripheral\gpio/cy_gpio.h **** * Note that this function has no effect on non-SIO pins.
1177:Generated_Source\PSoC6\pdl\drivers\peripheral\gpio/cy_gpio.h **** *
1178:Generated_Source\PSoC6\pdl\drivers\peripheral\gpio/cy_gpio.h **** * \param base
1179:Generated_Source\PSoC6\pdl\drivers\peripheral\gpio/cy_gpio.h **** * Pointer to the pin's port register base address
1180:Generated_Source\PSoC6\pdl\drivers\peripheral\gpio/cy_gpio.h **** *
1181:Generated_Source\PSoC6\pdl\drivers\peripheral\gpio/cy_gpio.h **** * \param pinNum
1182:Generated_Source\PSoC6\pdl\drivers\peripheral\gpio/cy_gpio.h **** * Position of the pin bit-field within the port register
1183:Generated_Source\PSoC6\pdl\drivers\peripheral\gpio/cy_gpio.h **** *
1184:Generated_Source\PSoC6\pdl\drivers\peripheral\gpio/cy_gpio.h **** * \return
1185:Generated_Source\PSoC6\pdl\drivers\peripheral\gpio/cy_gpio.h **** * SIO pair input buffer mode. Options are detailed in \ref group_gpio_sioIbuf macros
1186:Generated_Source\PSoC6\pdl\drivers\peripheral\gpio/cy_gpio.h **** *
1187:Generated_Source\PSoC6\pdl\drivers\peripheral\gpio/cy_gpio.h **** *******************************************************************************/
1188:Generated_Source\PSoC6\pdl\drivers\peripheral\gpio/cy_gpio.h **** __STATIC_INLINE uint32_t Cy_GPIO_GetIbufMode(GPIO_PRT_Type* base, uint32_t pinNum)
1189:Generated_Source\PSoC6\pdl\drivers\peripheral\gpio/cy_gpio.h **** {
1190:Generated_Source\PSoC6\pdl\drivers\peripheral\gpio/cy_gpio.h ****     return (base->CFG_SIO >> (((pinNum & CY_GPIO_SIO_ODD_PIN_MASK) << CY_GPIO_CFG_SIO_OFFSET) + CY_
1191:Generated_Source\PSoC6\pdl\drivers\peripheral\gpio/cy_gpio.h **** }
1192:Generated_Source\PSoC6\pdl\drivers\peripheral\gpio/cy_gpio.h **** 
ARM GAS  C:\Users\kiwamu\AppData\Local\Temp\ccUfXRBo.s 			page 26


1193:Generated_Source\PSoC6\pdl\drivers\peripheral\gpio/cy_gpio.h **** 
1194:Generated_Source\PSoC6\pdl\drivers\peripheral\gpio/cy_gpio.h **** /*******************************************************************************
1195:Generated_Source\PSoC6\pdl\drivers\peripheral\gpio/cy_gpio.h **** * Function Name: Cy_GPIO_SetVtripSel
1196:Generated_Source\PSoC6\pdl\drivers\peripheral\gpio/cy_gpio.h **** ****************************************************************************//**
1197:Generated_Source\PSoC6\pdl\drivers\peripheral\gpio/cy_gpio.h **** *
1198:Generated_Source\PSoC6\pdl\drivers\peripheral\gpio/cy_gpio.h **** * \brief Configures the SIO pin pair input buffer trip point.
1199:Generated_Source\PSoC6\pdl\drivers\peripheral\gpio/cy_gpio.h **** *
1200:Generated_Source\PSoC6\pdl\drivers\peripheral\gpio/cy_gpio.h **** * Note that this function has no effect on non-SIO pins.
1201:Generated_Source\PSoC6\pdl\drivers\peripheral\gpio/cy_gpio.h **** *
1202:Generated_Source\PSoC6\pdl\drivers\peripheral\gpio/cy_gpio.h **** * \param base
1203:Generated_Source\PSoC6\pdl\drivers\peripheral\gpio/cy_gpio.h **** * Pointer to the pin's port register base address
1204:Generated_Source\PSoC6\pdl\drivers\peripheral\gpio/cy_gpio.h **** *
1205:Generated_Source\PSoC6\pdl\drivers\peripheral\gpio/cy_gpio.h **** * \param pinNum
1206:Generated_Source\PSoC6\pdl\drivers\peripheral\gpio/cy_gpio.h **** * Position of the pin bit-field within the port register
1207:Generated_Source\PSoC6\pdl\drivers\peripheral\gpio/cy_gpio.h **** *
1208:Generated_Source\PSoC6\pdl\drivers\peripheral\gpio/cy_gpio.h **** * \param value
1209:Generated_Source\PSoC6\pdl\drivers\peripheral\gpio/cy_gpio.h **** * SIO pair input buffer trip point. Options are detailed in \ref group_gpio_sioVtrip macros
1210:Generated_Source\PSoC6\pdl\drivers\peripheral\gpio/cy_gpio.h **** *
1211:Generated_Source\PSoC6\pdl\drivers\peripheral\gpio/cy_gpio.h **** * \return
1212:Generated_Source\PSoC6\pdl\drivers\peripheral\gpio/cy_gpio.h **** * void
1213:Generated_Source\PSoC6\pdl\drivers\peripheral\gpio/cy_gpio.h **** *
1214:Generated_Source\PSoC6\pdl\drivers\peripheral\gpio/cy_gpio.h **** * \note 
1215:Generated_Source\PSoC6\pdl\drivers\peripheral\gpio/cy_gpio.h **** * This function modifies a port register in a read-modify-write operation. It is
1216:Generated_Source\PSoC6\pdl\drivers\peripheral\gpio/cy_gpio.h **** * not thread safe as the resource is shared among multiple pins on a port.
1217:Generated_Source\PSoC6\pdl\drivers\peripheral\gpio/cy_gpio.h **** *
1218:Generated_Source\PSoC6\pdl\drivers\peripheral\gpio/cy_gpio.h **** *******************************************************************************/
1219:Generated_Source\PSoC6\pdl\drivers\peripheral\gpio/cy_gpio.h **** __STATIC_INLINE void Cy_GPIO_SetVtripSel(GPIO_PRT_Type* base, uint32_t pinNum, uint32_t value)
1220:Generated_Source\PSoC6\pdl\drivers\peripheral\gpio/cy_gpio.h **** {
1221:Generated_Source\PSoC6\pdl\drivers\peripheral\gpio/cy_gpio.h ****     uint32_t tempReg;
1222:Generated_Source\PSoC6\pdl\drivers\peripheral\gpio/cy_gpio.h ****     uint32_t pinLoc;
1223:Generated_Source\PSoC6\pdl\drivers\peripheral\gpio/cy_gpio.h **** 
1224:Generated_Source\PSoC6\pdl\drivers\peripheral\gpio/cy_gpio.h ****     pinLoc = ((pinNum & CY_GPIO_SIO_ODD_PIN_MASK) << CY_GPIO_CFG_SIO_OFFSET) + CY_GPIO_VTRIP_SEL_SH
1225:Generated_Source\PSoC6\pdl\drivers\peripheral\gpio/cy_gpio.h ****     tempReg = (base->CFG_SIO & ~(CY_GPIO_VTRIP_SEL_MASK << pinLoc));
1226:Generated_Source\PSoC6\pdl\drivers\peripheral\gpio/cy_gpio.h ****     base->CFG_SIO = tempReg | ((value & CY_GPIO_VTRIP_SEL_MASK) << pinLoc);
1227:Generated_Source\PSoC6\pdl\drivers\peripheral\gpio/cy_gpio.h **** }
1228:Generated_Source\PSoC6\pdl\drivers\peripheral\gpio/cy_gpio.h **** 
1229:Generated_Source\PSoC6\pdl\drivers\peripheral\gpio/cy_gpio.h **** 
1230:Generated_Source\PSoC6\pdl\drivers\peripheral\gpio/cy_gpio.h **** /*******************************************************************************
1231:Generated_Source\PSoC6\pdl\drivers\peripheral\gpio/cy_gpio.h **** * Function Name: Cy_GPIO_GetVtripSel
1232:Generated_Source\PSoC6\pdl\drivers\peripheral\gpio/cy_gpio.h **** ****************************************************************************//**
1233:Generated_Source\PSoC6\pdl\drivers\peripheral\gpio/cy_gpio.h **** *
1234:Generated_Source\PSoC6\pdl\drivers\peripheral\gpio/cy_gpio.h **** * \brief Returns the SIO pin pair input buffer trip point.
1235:Generated_Source\PSoC6\pdl\drivers\peripheral\gpio/cy_gpio.h **** *
1236:Generated_Source\PSoC6\pdl\drivers\peripheral\gpio/cy_gpio.h **** * Note that this function has no effect on non-SIO pins.
1237:Generated_Source\PSoC6\pdl\drivers\peripheral\gpio/cy_gpio.h **** *
1238:Generated_Source\PSoC6\pdl\drivers\peripheral\gpio/cy_gpio.h **** * \param base
1239:Generated_Source\PSoC6\pdl\drivers\peripheral\gpio/cy_gpio.h **** * Pointer to the pin's port register base address
1240:Generated_Source\PSoC6\pdl\drivers\peripheral\gpio/cy_gpio.h **** *
1241:Generated_Source\PSoC6\pdl\drivers\peripheral\gpio/cy_gpio.h **** * \param pinNum
1242:Generated_Source\PSoC6\pdl\drivers\peripheral\gpio/cy_gpio.h **** * Position of the pin bit-field within the port register
1243:Generated_Source\PSoC6\pdl\drivers\peripheral\gpio/cy_gpio.h **** *
1244:Generated_Source\PSoC6\pdl\drivers\peripheral\gpio/cy_gpio.h **** * \return
1245:Generated_Source\PSoC6\pdl\drivers\peripheral\gpio/cy_gpio.h **** * SIO pair input buffer trip point. Options are detailed in \ref group_gpio_sioVtrip macros
1246:Generated_Source\PSoC6\pdl\drivers\peripheral\gpio/cy_gpio.h **** *
1247:Generated_Source\PSoC6\pdl\drivers\peripheral\gpio/cy_gpio.h **** *******************************************************************************/
1248:Generated_Source\PSoC6\pdl\drivers\peripheral\gpio/cy_gpio.h **** __STATIC_INLINE uint32_t Cy_GPIO_GetVtripSel(GPIO_PRT_Type* base, uint32_t pinNum)
1249:Generated_Source\PSoC6\pdl\drivers\peripheral\gpio/cy_gpio.h **** {
ARM GAS  C:\Users\kiwamu\AppData\Local\Temp\ccUfXRBo.s 			page 27


1250:Generated_Source\PSoC6\pdl\drivers\peripheral\gpio/cy_gpio.h ****     return (base->CFG_SIO >> (((pinNum & CY_GPIO_SIO_ODD_PIN_MASK) << CY_GPIO_CFG_SIO_OFFSET) + CY_
1251:Generated_Source\PSoC6\pdl\drivers\peripheral\gpio/cy_gpio.h **** }
1252:Generated_Source\PSoC6\pdl\drivers\peripheral\gpio/cy_gpio.h **** 
1253:Generated_Source\PSoC6\pdl\drivers\peripheral\gpio/cy_gpio.h **** 
1254:Generated_Source\PSoC6\pdl\drivers\peripheral\gpio/cy_gpio.h **** /*******************************************************************************
1255:Generated_Source\PSoC6\pdl\drivers\peripheral\gpio/cy_gpio.h **** * Function Name: Cy_GPIO_SetVrefSel
1256:Generated_Source\PSoC6\pdl\drivers\peripheral\gpio/cy_gpio.h **** ****************************************************************************//**
1257:Generated_Source\PSoC6\pdl\drivers\peripheral\gpio/cy_gpio.h **** *
1258:Generated_Source\PSoC6\pdl\drivers\peripheral\gpio/cy_gpio.h **** * \brief Configures the SIO reference voltage for the input buffer trip point.
1259:Generated_Source\PSoC6\pdl\drivers\peripheral\gpio/cy_gpio.h **** *
1260:Generated_Source\PSoC6\pdl\drivers\peripheral\gpio/cy_gpio.h **** * Note that this function has no effect on non-SIO pins.
1261:Generated_Source\PSoC6\pdl\drivers\peripheral\gpio/cy_gpio.h **** *
1262:Generated_Source\PSoC6\pdl\drivers\peripheral\gpio/cy_gpio.h **** * \param base
1263:Generated_Source\PSoC6\pdl\drivers\peripheral\gpio/cy_gpio.h **** * Pointer to the pin's port register base address
1264:Generated_Source\PSoC6\pdl\drivers\peripheral\gpio/cy_gpio.h **** *
1265:Generated_Source\PSoC6\pdl\drivers\peripheral\gpio/cy_gpio.h **** * \param pinNum
1266:Generated_Source\PSoC6\pdl\drivers\peripheral\gpio/cy_gpio.h **** * Position of the pin bit-field within the port register
1267:Generated_Source\PSoC6\pdl\drivers\peripheral\gpio/cy_gpio.h **** *
1268:Generated_Source\PSoC6\pdl\drivers\peripheral\gpio/cy_gpio.h **** * \param value
1269:Generated_Source\PSoC6\pdl\drivers\peripheral\gpio/cy_gpio.h **** * SIO pair reference voltage. Options are detailed in \ref group_gpio_sioVref macros
1270:Generated_Source\PSoC6\pdl\drivers\peripheral\gpio/cy_gpio.h **** *
1271:Generated_Source\PSoC6\pdl\drivers\peripheral\gpio/cy_gpio.h **** * \return
1272:Generated_Source\PSoC6\pdl\drivers\peripheral\gpio/cy_gpio.h **** * void
1273:Generated_Source\PSoC6\pdl\drivers\peripheral\gpio/cy_gpio.h **** *
1274:Generated_Source\PSoC6\pdl\drivers\peripheral\gpio/cy_gpio.h **** * \note 
1275:Generated_Source\PSoC6\pdl\drivers\peripheral\gpio/cy_gpio.h **** * This function modifies a port register in a read-modify-write operation. It is
1276:Generated_Source\PSoC6\pdl\drivers\peripheral\gpio/cy_gpio.h **** * not thread safe as the resource is shared among multiple pins on a port.
1277:Generated_Source\PSoC6\pdl\drivers\peripheral\gpio/cy_gpio.h **** *
1278:Generated_Source\PSoC6\pdl\drivers\peripheral\gpio/cy_gpio.h **** *******************************************************************************/
1279:Generated_Source\PSoC6\pdl\drivers\peripheral\gpio/cy_gpio.h **** __STATIC_INLINE void Cy_GPIO_SetVrefSel(GPIO_PRT_Type* base, uint32_t pinNum, uint32_t value)
1280:Generated_Source\PSoC6\pdl\drivers\peripheral\gpio/cy_gpio.h **** {
1281:Generated_Source\PSoC6\pdl\drivers\peripheral\gpio/cy_gpio.h ****     uint32_t tempReg;
1282:Generated_Source\PSoC6\pdl\drivers\peripheral\gpio/cy_gpio.h ****     uint32_t pinLoc;
1283:Generated_Source\PSoC6\pdl\drivers\peripheral\gpio/cy_gpio.h **** 
1284:Generated_Source\PSoC6\pdl\drivers\peripheral\gpio/cy_gpio.h ****     pinLoc = ((pinNum & CY_GPIO_SIO_ODD_PIN_MASK) << CY_GPIO_CFG_SIO_OFFSET) + CY_GPIO_VREF_SEL_SHI
1285:Generated_Source\PSoC6\pdl\drivers\peripheral\gpio/cy_gpio.h ****     tempReg = (base->CFG_SIO & ~(CY_GPIO_VREF_SEL_MASK << pinLoc));
1286:Generated_Source\PSoC6\pdl\drivers\peripheral\gpio/cy_gpio.h ****     base->CFG_SIO = tempReg | ((value & CY_GPIO_VREF_SEL_MASK) << pinLoc);
1287:Generated_Source\PSoC6\pdl\drivers\peripheral\gpio/cy_gpio.h **** }
1288:Generated_Source\PSoC6\pdl\drivers\peripheral\gpio/cy_gpio.h **** 
1289:Generated_Source\PSoC6\pdl\drivers\peripheral\gpio/cy_gpio.h **** 
1290:Generated_Source\PSoC6\pdl\drivers\peripheral\gpio/cy_gpio.h **** /*******************************************************************************
1291:Generated_Source\PSoC6\pdl\drivers\peripheral\gpio/cy_gpio.h **** * Function Name: Cy_GPIO_GetVrefSel
1292:Generated_Source\PSoC6\pdl\drivers\peripheral\gpio/cy_gpio.h **** ****************************************************************************//**
1293:Generated_Source\PSoC6\pdl\drivers\peripheral\gpio/cy_gpio.h **** *
1294:Generated_Source\PSoC6\pdl\drivers\peripheral\gpio/cy_gpio.h **** * \brief Returns the SIO reference voltage for the input buffer trip point.
1295:Generated_Source\PSoC6\pdl\drivers\peripheral\gpio/cy_gpio.h **** *
1296:Generated_Source\PSoC6\pdl\drivers\peripheral\gpio/cy_gpio.h **** * Note that this function has no effect on non-SIO pins.
1297:Generated_Source\PSoC6\pdl\drivers\peripheral\gpio/cy_gpio.h **** *
1298:Generated_Source\PSoC6\pdl\drivers\peripheral\gpio/cy_gpio.h **** * \param base
1299:Generated_Source\PSoC6\pdl\drivers\peripheral\gpio/cy_gpio.h **** * Pointer to the pin's port register base address
1300:Generated_Source\PSoC6\pdl\drivers\peripheral\gpio/cy_gpio.h **** *
1301:Generated_Source\PSoC6\pdl\drivers\peripheral\gpio/cy_gpio.h **** * \param pinNum
1302:Generated_Source\PSoC6\pdl\drivers\peripheral\gpio/cy_gpio.h **** * Position of the pin bit-field within the port register
1303:Generated_Source\PSoC6\pdl\drivers\peripheral\gpio/cy_gpio.h **** *
1304:Generated_Source\PSoC6\pdl\drivers\peripheral\gpio/cy_gpio.h **** * \return
1305:Generated_Source\PSoC6\pdl\drivers\peripheral\gpio/cy_gpio.h **** * SIO pair reference voltage. Options are detailed in \ref group_gpio_sioVref macros
1306:Generated_Source\PSoC6\pdl\drivers\peripheral\gpio/cy_gpio.h **** *
ARM GAS  C:\Users\kiwamu\AppData\Local\Temp\ccUfXRBo.s 			page 28


1307:Generated_Source\PSoC6\pdl\drivers\peripheral\gpio/cy_gpio.h **** *******************************************************************************/
1308:Generated_Source\PSoC6\pdl\drivers\peripheral\gpio/cy_gpio.h **** __STATIC_INLINE uint32_t Cy_GPIO_GetVrefSel(GPIO_PRT_Type* base, uint32_t pinNum)
1309:Generated_Source\PSoC6\pdl\drivers\peripheral\gpio/cy_gpio.h **** {
1310:Generated_Source\PSoC6\pdl\drivers\peripheral\gpio/cy_gpio.h ****     return (base->CFG_SIO >> (((pinNum & CY_GPIO_SIO_ODD_PIN_MASK) << CY_GPIO_CFG_SIO_OFFSET) + CY_
1311:Generated_Source\PSoC6\pdl\drivers\peripheral\gpio/cy_gpio.h **** }
1312:Generated_Source\PSoC6\pdl\drivers\peripheral\gpio/cy_gpio.h **** 
1313:Generated_Source\PSoC6\pdl\drivers\peripheral\gpio/cy_gpio.h **** 
1314:Generated_Source\PSoC6\pdl\drivers\peripheral\gpio/cy_gpio.h **** /*******************************************************************************
1315:Generated_Source\PSoC6\pdl\drivers\peripheral\gpio/cy_gpio.h **** * Function Name: Cy_GPIO_SetVohSel
1316:Generated_Source\PSoC6\pdl\drivers\peripheral\gpio/cy_gpio.h **** ****************************************************************************//**
1317:Generated_Source\PSoC6\pdl\drivers\peripheral\gpio/cy_gpio.h **** *
1318:Generated_Source\PSoC6\pdl\drivers\peripheral\gpio/cy_gpio.h **** * \brief Configures the regulated output reference multiplier for the SIO pin pair.
1319:Generated_Source\PSoC6\pdl\drivers\peripheral\gpio/cy_gpio.h **** *
1320:Generated_Source\PSoC6\pdl\drivers\peripheral\gpio/cy_gpio.h **** * The regulated output reference controls both the output level of digital output
1321:Generated_Source\PSoC6\pdl\drivers\peripheral\gpio/cy_gpio.h **** * pin and the input trip point of digital input pin in the SIO pair.
1322:Generated_Source\PSoC6\pdl\drivers\peripheral\gpio/cy_gpio.h **** *
1323:Generated_Source\PSoC6\pdl\drivers\peripheral\gpio/cy_gpio.h **** * Note that this function has no effect on non-SIO pins.
1324:Generated_Source\PSoC6\pdl\drivers\peripheral\gpio/cy_gpio.h **** *
1325:Generated_Source\PSoC6\pdl\drivers\peripheral\gpio/cy_gpio.h **** * \param base
1326:Generated_Source\PSoC6\pdl\drivers\peripheral\gpio/cy_gpio.h **** * Pointer to the pin's port register base address
1327:Generated_Source\PSoC6\pdl\drivers\peripheral\gpio/cy_gpio.h **** *
1328:Generated_Source\PSoC6\pdl\drivers\peripheral\gpio/cy_gpio.h **** * \param pinNum
1329:Generated_Source\PSoC6\pdl\drivers\peripheral\gpio/cy_gpio.h **** * Position of the pin bit-field within the port register
1330:Generated_Source\PSoC6\pdl\drivers\peripheral\gpio/cy_gpio.h **** *
1331:Generated_Source\PSoC6\pdl\drivers\peripheral\gpio/cy_gpio.h **** * \param value
1332:Generated_Source\PSoC6\pdl\drivers\peripheral\gpio/cy_gpio.h **** * SIO pair reference voltage. Options are detailed in \ref group_gpio_sioVoh macros
1333:Generated_Source\PSoC6\pdl\drivers\peripheral\gpio/cy_gpio.h **** *
1334:Generated_Source\PSoC6\pdl\drivers\peripheral\gpio/cy_gpio.h **** * \return
1335:Generated_Source\PSoC6\pdl\drivers\peripheral\gpio/cy_gpio.h **** * void
1336:Generated_Source\PSoC6\pdl\drivers\peripheral\gpio/cy_gpio.h **** *
1337:Generated_Source\PSoC6\pdl\drivers\peripheral\gpio/cy_gpio.h **** * \note 
1338:Generated_Source\PSoC6\pdl\drivers\peripheral\gpio/cy_gpio.h **** * This function modifies a port register in a read-modify-write operation. It is
1339:Generated_Source\PSoC6\pdl\drivers\peripheral\gpio/cy_gpio.h **** * not thread safe as the resource is shared among multiple pins on a port.
1340:Generated_Source\PSoC6\pdl\drivers\peripheral\gpio/cy_gpio.h **** *
1341:Generated_Source\PSoC6\pdl\drivers\peripheral\gpio/cy_gpio.h **** *******************************************************************************/
1342:Generated_Source\PSoC6\pdl\drivers\peripheral\gpio/cy_gpio.h **** __STATIC_INLINE void Cy_GPIO_SetVohSel(GPIO_PRT_Type* base, uint32_t pinNum, uint32_t value)
1343:Generated_Source\PSoC6\pdl\drivers\peripheral\gpio/cy_gpio.h **** {
1344:Generated_Source\PSoC6\pdl\drivers\peripheral\gpio/cy_gpio.h ****     uint32_t tempReg;
1345:Generated_Source\PSoC6\pdl\drivers\peripheral\gpio/cy_gpio.h ****     uint32_t pinLoc;
1346:Generated_Source\PSoC6\pdl\drivers\peripheral\gpio/cy_gpio.h **** 
1347:Generated_Source\PSoC6\pdl\drivers\peripheral\gpio/cy_gpio.h ****     pinLoc = ((pinNum & CY_GPIO_SIO_ODD_PIN_MASK) << CY_GPIO_CFG_SIO_OFFSET) + CY_GPIO_VOH_SEL_SHIF
1348:Generated_Source\PSoC6\pdl\drivers\peripheral\gpio/cy_gpio.h ****     tempReg = (base->CFG_SIO & ~(CY_GPIO_VOH_SEL_MASK << pinLoc));
1349:Generated_Source\PSoC6\pdl\drivers\peripheral\gpio/cy_gpio.h ****     base->CFG_SIO = tempReg | ((value & CY_GPIO_VOH_SEL_MASK) << pinLoc);
1350:Generated_Source\PSoC6\pdl\drivers\peripheral\gpio/cy_gpio.h **** }
1351:Generated_Source\PSoC6\pdl\drivers\peripheral\gpio/cy_gpio.h **** 
1352:Generated_Source\PSoC6\pdl\drivers\peripheral\gpio/cy_gpio.h **** 
1353:Generated_Source\PSoC6\pdl\drivers\peripheral\gpio/cy_gpio.h **** /*******************************************************************************
1354:Generated_Source\PSoC6\pdl\drivers\peripheral\gpio/cy_gpio.h **** * Function Name: Cy_GPIO_GetVohSel
1355:Generated_Source\PSoC6\pdl\drivers\peripheral\gpio/cy_gpio.h **** ****************************************************************************//**
1356:Generated_Source\PSoC6\pdl\drivers\peripheral\gpio/cy_gpio.h **** *
1357:Generated_Source\PSoC6\pdl\drivers\peripheral\gpio/cy_gpio.h **** * \brief Returns the regulated output reference multiplier for the SIO pin pair.
1358:Generated_Source\PSoC6\pdl\drivers\peripheral\gpio/cy_gpio.h **** *
1359:Generated_Source\PSoC6\pdl\drivers\peripheral\gpio/cy_gpio.h **** * Note that this function has no effect on non-SIO pins.
1360:Generated_Source\PSoC6\pdl\drivers\peripheral\gpio/cy_gpio.h **** *
1361:Generated_Source\PSoC6\pdl\drivers\peripheral\gpio/cy_gpio.h **** * \param base
1362:Generated_Source\PSoC6\pdl\drivers\peripheral\gpio/cy_gpio.h **** * Pointer to the pin's port register base address
1363:Generated_Source\PSoC6\pdl\drivers\peripheral\gpio/cy_gpio.h **** *
ARM GAS  C:\Users\kiwamu\AppData\Local\Temp\ccUfXRBo.s 			page 29


1364:Generated_Source\PSoC6\pdl\drivers\peripheral\gpio/cy_gpio.h **** * \param pinNum
1365:Generated_Source\PSoC6\pdl\drivers\peripheral\gpio/cy_gpio.h **** * Position of the pin bit-field within the port register
1366:Generated_Source\PSoC6\pdl\drivers\peripheral\gpio/cy_gpio.h **** *
1367:Generated_Source\PSoC6\pdl\drivers\peripheral\gpio/cy_gpio.h **** * \return
1368:Generated_Source\PSoC6\pdl\drivers\peripheral\gpio/cy_gpio.h **** * SIO pair reference voltage. Options are detailed in \ref group_gpio_sioVoh macros
1369:Generated_Source\PSoC6\pdl\drivers\peripheral\gpio/cy_gpio.h **** *
1370:Generated_Source\PSoC6\pdl\drivers\peripheral\gpio/cy_gpio.h **** *******************************************************************************/
1371:Generated_Source\PSoC6\pdl\drivers\peripheral\gpio/cy_gpio.h **** __STATIC_INLINE uint32_t Cy_GPIO_GetVohSel(GPIO_PRT_Type* base, uint32_t pinNum)
1372:Generated_Source\PSoC6\pdl\drivers\peripheral\gpio/cy_gpio.h **** {
1373:Generated_Source\PSoC6\pdl\drivers\peripheral\gpio/cy_gpio.h ****     return (base->CFG_SIO >> (((pinNum & CY_GPIO_SIO_ODD_PIN_MASK) << CY_GPIO_CFG_SIO_OFFSET) + CY_
1374:Generated_Source\PSoC6\pdl\drivers\peripheral\gpio/cy_gpio.h **** }
1375:Generated_Source\PSoC6\pdl\drivers\peripheral\gpio/cy_gpio.h **** 
1376:Generated_Source\PSoC6\pdl\drivers\peripheral\gpio/cy_gpio.h **** /** \} group_gpio_functions_sio */
1377:Generated_Source\PSoC6\pdl\drivers\peripheral\gpio/cy_gpio.h **** 
1378:Generated_Source\PSoC6\pdl\drivers\peripheral\gpio/cy_gpio.h **** /**
1379:Generated_Source\PSoC6\pdl\drivers\peripheral\gpio/cy_gpio.h **** * \addtogroup group_gpio_functions_interrupt
1380:Generated_Source\PSoC6\pdl\drivers\peripheral\gpio/cy_gpio.h **** * \{
1381:Generated_Source\PSoC6\pdl\drivers\peripheral\gpio/cy_gpio.h **** */
1382:Generated_Source\PSoC6\pdl\drivers\peripheral\gpio/cy_gpio.h **** 
1383:Generated_Source\PSoC6\pdl\drivers\peripheral\gpio/cy_gpio.h **** /*******************************************************************************
1384:Generated_Source\PSoC6\pdl\drivers\peripheral\gpio/cy_gpio.h **** * Function Name: Cy_GPIO_GetInterruptStatus
1385:Generated_Source\PSoC6\pdl\drivers\peripheral\gpio/cy_gpio.h **** ****************************************************************************//**
1386:Generated_Source\PSoC6\pdl\drivers\peripheral\gpio/cy_gpio.h **** *
1387:Generated_Source\PSoC6\pdl\drivers\peripheral\gpio/cy_gpio.h **** * \brief Return the current interrupt state of the pin.
1388:Generated_Source\PSoC6\pdl\drivers\peripheral\gpio/cy_gpio.h **** *
1389:Generated_Source\PSoC6\pdl\drivers\peripheral\gpio/cy_gpio.h **** * \param base
1390:Generated_Source\PSoC6\pdl\drivers\peripheral\gpio/cy_gpio.h **** * Pointer to the pin's port register base address
1391:Generated_Source\PSoC6\pdl\drivers\peripheral\gpio/cy_gpio.h **** *
1392:Generated_Source\PSoC6\pdl\drivers\peripheral\gpio/cy_gpio.h **** * \param pinNum
1393:Generated_Source\PSoC6\pdl\drivers\peripheral\gpio/cy_gpio.h **** * Position of the pin bit-field within the port register
1394:Generated_Source\PSoC6\pdl\drivers\peripheral\gpio/cy_gpio.h **** *
1395:Generated_Source\PSoC6\pdl\drivers\peripheral\gpio/cy_gpio.h **** * \return
1396:Generated_Source\PSoC6\pdl\drivers\peripheral\gpio/cy_gpio.h **** * 0 = Pin interrupt condition not detected
1397:Generated_Source\PSoC6\pdl\drivers\peripheral\gpio/cy_gpio.h **** * 1 = Pin interrupt condition detected
1398:Generated_Source\PSoC6\pdl\drivers\peripheral\gpio/cy_gpio.h **** *
1399:Generated_Source\PSoC6\pdl\drivers\peripheral\gpio/cy_gpio.h **** *******************************************************************************/
1400:Generated_Source\PSoC6\pdl\drivers\peripheral\gpio/cy_gpio.h **** __STATIC_INLINE uint32_t Cy_GPIO_GetInterruptStatus(GPIO_PRT_Type* base, uint32_t pinNum)
1401:Generated_Source\PSoC6\pdl\drivers\peripheral\gpio/cy_gpio.h **** {
1402:Generated_Source\PSoC6\pdl\drivers\peripheral\gpio/cy_gpio.h ****     return (base->INTR >> pinNum) & CY_GPIO_INTR_STATUS_MASK;
1403:Generated_Source\PSoC6\pdl\drivers\peripheral\gpio/cy_gpio.h **** }
1404:Generated_Source\PSoC6\pdl\drivers\peripheral\gpio/cy_gpio.h **** 
1405:Generated_Source\PSoC6\pdl\drivers\peripheral\gpio/cy_gpio.h **** 
1406:Generated_Source\PSoC6\pdl\drivers\peripheral\gpio/cy_gpio.h **** /*******************************************************************************
1407:Generated_Source\PSoC6\pdl\drivers\peripheral\gpio/cy_gpio.h **** * Function Name: Cy_GPIO_ClearInterrupt
1408:Generated_Source\PSoC6\pdl\drivers\peripheral\gpio/cy_gpio.h **** ****************************************************************************//**
1409:Generated_Source\PSoC6\pdl\drivers\peripheral\gpio/cy_gpio.h **** *
1410:Generated_Source\PSoC6\pdl\drivers\peripheral\gpio/cy_gpio.h **** * \brief Clears the triggered pin interrupt.
1411:Generated_Source\PSoC6\pdl\drivers\peripheral\gpio/cy_gpio.h **** *
1412:Generated_Source\PSoC6\pdl\drivers\peripheral\gpio/cy_gpio.h **** * \param base
1413:Generated_Source\PSoC6\pdl\drivers\peripheral\gpio/cy_gpio.h **** * Pointer to the pin's port register base address
1414:Generated_Source\PSoC6\pdl\drivers\peripheral\gpio/cy_gpio.h **** *
1415:Generated_Source\PSoC6\pdl\drivers\peripheral\gpio/cy_gpio.h **** * \param pinNum
1416:Generated_Source\PSoC6\pdl\drivers\peripheral\gpio/cy_gpio.h **** * Position of the pin bit-field within the port register
1417:Generated_Source\PSoC6\pdl\drivers\peripheral\gpio/cy_gpio.h **** *
1418:Generated_Source\PSoC6\pdl\drivers\peripheral\gpio/cy_gpio.h **** * \return
1419:Generated_Source\PSoC6\pdl\drivers\peripheral\gpio/cy_gpio.h **** * void
1420:Generated_Source\PSoC6\pdl\drivers\peripheral\gpio/cy_gpio.h **** *
ARM GAS  C:\Users\kiwamu\AppData\Local\Temp\ccUfXRBo.s 			page 30


1421:Generated_Source\PSoC6\pdl\drivers\peripheral\gpio/cy_gpio.h **** *******************************************************************************/
1422:Generated_Source\PSoC6\pdl\drivers\peripheral\gpio/cy_gpio.h **** __STATIC_INLINE void Cy_GPIO_ClearInterrupt(GPIO_PRT_Type* base, uint32_t pinNum)
1423:Generated_Source\PSoC6\pdl\drivers\peripheral\gpio/cy_gpio.h **** {
1424:Generated_Source\PSoC6\pdl\drivers\peripheral\gpio/cy_gpio.h ****     /* Any INTR MMIO registers AHB clearing must be preceded with an AHB read access */
1425:Generated_Source\PSoC6\pdl\drivers\peripheral\gpio/cy_gpio.h ****     (void)base->INTR;
1426:Generated_Source\PSoC6\pdl\drivers\peripheral\gpio/cy_gpio.h **** 
1427:Generated_Source\PSoC6\pdl\drivers\peripheral\gpio/cy_gpio.h ****     base->INTR = CY_GPIO_INTR_STATUS_MASK << pinNum;
1428:Generated_Source\PSoC6\pdl\drivers\peripheral\gpio/cy_gpio.h **** 
1429:Generated_Source\PSoC6\pdl\drivers\peripheral\gpio/cy_gpio.h ****     /* This read ensures that the initial write has been flushed out to the hardware */
1430:Generated_Source\PSoC6\pdl\drivers\peripheral\gpio/cy_gpio.h ****     (void)base->INTR;
1431:Generated_Source\PSoC6\pdl\drivers\peripheral\gpio/cy_gpio.h **** }
1432:Generated_Source\PSoC6\pdl\drivers\peripheral\gpio/cy_gpio.h **** 
1433:Generated_Source\PSoC6\pdl\drivers\peripheral\gpio/cy_gpio.h **** 
1434:Generated_Source\PSoC6\pdl\drivers\peripheral\gpio/cy_gpio.h **** /*******************************************************************************
1435:Generated_Source\PSoC6\pdl\drivers\peripheral\gpio/cy_gpio.h **** * Function Name: Cy_GPIO_SetInterruptMask
1436:Generated_Source\PSoC6\pdl\drivers\peripheral\gpio/cy_gpio.h **** ****************************************************************************//**
1437:Generated_Source\PSoC6\pdl\drivers\peripheral\gpio/cy_gpio.h **** *
1438:Generated_Source\PSoC6\pdl\drivers\peripheral\gpio/cy_gpio.h **** * \brief Configures the pin interrupt to be forwarded to the CPU NVIC.
1439:Generated_Source\PSoC6\pdl\drivers\peripheral\gpio/cy_gpio.h **** *
1440:Generated_Source\PSoC6\pdl\drivers\peripheral\gpio/cy_gpio.h **** * \param base
1441:Generated_Source\PSoC6\pdl\drivers\peripheral\gpio/cy_gpio.h **** * Pointer to the pin's port register base address
1442:Generated_Source\PSoC6\pdl\drivers\peripheral\gpio/cy_gpio.h **** *
1443:Generated_Source\PSoC6\pdl\drivers\peripheral\gpio/cy_gpio.h **** * \param pinNum
1444:Generated_Source\PSoC6\pdl\drivers\peripheral\gpio/cy_gpio.h **** * Position of the pin bit-field within the port register
1445:Generated_Source\PSoC6\pdl\drivers\peripheral\gpio/cy_gpio.h **** *
1446:Generated_Source\PSoC6\pdl\drivers\peripheral\gpio/cy_gpio.h **** * \param value
1447:Generated_Source\PSoC6\pdl\drivers\peripheral\gpio/cy_gpio.h **** * 0 = Pin interrupt not forwarded to CPU interrupt controller
1448:Generated_Source\PSoC6\pdl\drivers\peripheral\gpio/cy_gpio.h **** * 1 = Pin interrupt masked and forwarded to CPU interrupt controller
1449:Generated_Source\PSoC6\pdl\drivers\peripheral\gpio/cy_gpio.h **** *
1450:Generated_Source\PSoC6\pdl\drivers\peripheral\gpio/cy_gpio.h **** * \return
1451:Generated_Source\PSoC6\pdl\drivers\peripheral\gpio/cy_gpio.h **** * void
1452:Generated_Source\PSoC6\pdl\drivers\peripheral\gpio/cy_gpio.h **** *
1453:Generated_Source\PSoC6\pdl\drivers\peripheral\gpio/cy_gpio.h **** * \note 
1454:Generated_Source\PSoC6\pdl\drivers\peripheral\gpio/cy_gpio.h **** * This function modifies a port register in a read-modify-write operation. It is
1455:Generated_Source\PSoC6\pdl\drivers\peripheral\gpio/cy_gpio.h **** * not thread safe as the resource is shared among multiple pins on a port.
1456:Generated_Source\PSoC6\pdl\drivers\peripheral\gpio/cy_gpio.h **** *
1457:Generated_Source\PSoC6\pdl\drivers\peripheral\gpio/cy_gpio.h **** *******************************************************************************/
1458:Generated_Source\PSoC6\pdl\drivers\peripheral\gpio/cy_gpio.h **** __STATIC_INLINE void Cy_GPIO_SetInterruptMask(GPIO_PRT_Type* base, uint32_t pinNum, uint32_t value)
1459:Generated_Source\PSoC6\pdl\drivers\peripheral\gpio/cy_gpio.h **** {
1460:Generated_Source\PSoC6\pdl\drivers\peripheral\gpio/cy_gpio.h ****     uint32_t tempReg;
1461:Generated_Source\PSoC6\pdl\drivers\peripheral\gpio/cy_gpio.h **** 
1462:Generated_Source\PSoC6\pdl\drivers\peripheral\gpio/cy_gpio.h ****     tempReg= base->INTR_MASK & ~(CY_GPIO_INTR_EN_MASK << pinNum);
1463:Generated_Source\PSoC6\pdl\drivers\peripheral\gpio/cy_gpio.h ****     base->INTR_MASK = tempReg | ((value & CY_GPIO_INTR_EN_MASK) << pinNum);
1464:Generated_Source\PSoC6\pdl\drivers\peripheral\gpio/cy_gpio.h **** }
1465:Generated_Source\PSoC6\pdl\drivers\peripheral\gpio/cy_gpio.h **** 
1466:Generated_Source\PSoC6\pdl\drivers\peripheral\gpio/cy_gpio.h **** 
1467:Generated_Source\PSoC6\pdl\drivers\peripheral\gpio/cy_gpio.h **** /*******************************************************************************
1468:Generated_Source\PSoC6\pdl\drivers\peripheral\gpio/cy_gpio.h **** * Function Name: Cy_GPIO_GetInterruptMask
1469:Generated_Source\PSoC6\pdl\drivers\peripheral\gpio/cy_gpio.h **** ****************************************************************************//**
1470:Generated_Source\PSoC6\pdl\drivers\peripheral\gpio/cy_gpio.h **** *
1471:Generated_Source\PSoC6\pdl\drivers\peripheral\gpio/cy_gpio.h **** * \brief Returns the state of the pin interrupt mask to determine whether it is
1472:Generated_Source\PSoC6\pdl\drivers\peripheral\gpio/cy_gpio.h **** * configured to be forwarded to the CPU interrupt controller.
1473:Generated_Source\PSoC6\pdl\drivers\peripheral\gpio/cy_gpio.h **** *
1474:Generated_Source\PSoC6\pdl\drivers\peripheral\gpio/cy_gpio.h **** * \param base
1475:Generated_Source\PSoC6\pdl\drivers\peripheral\gpio/cy_gpio.h **** * Pointer to the pin's port register base address
1476:Generated_Source\PSoC6\pdl\drivers\peripheral\gpio/cy_gpio.h **** *
1477:Generated_Source\PSoC6\pdl\drivers\peripheral\gpio/cy_gpio.h **** * \param pinNum
ARM GAS  C:\Users\kiwamu\AppData\Local\Temp\ccUfXRBo.s 			page 31


1478:Generated_Source\PSoC6\pdl\drivers\peripheral\gpio/cy_gpio.h **** * Position of the pin bit-field within the port register
1479:Generated_Source\PSoC6\pdl\drivers\peripheral\gpio/cy_gpio.h **** *
1480:Generated_Source\PSoC6\pdl\drivers\peripheral\gpio/cy_gpio.h **** * \return
1481:Generated_Source\PSoC6\pdl\drivers\peripheral\gpio/cy_gpio.h **** * 0 = Pin interrupt not forwarded to CPU interrupt controller
1482:Generated_Source\PSoC6\pdl\drivers\peripheral\gpio/cy_gpio.h **** * 1 = Pin interrupt masked and forwarded to CPU interrupt controller
1483:Generated_Source\PSoC6\pdl\drivers\peripheral\gpio/cy_gpio.h **** *
1484:Generated_Source\PSoC6\pdl\drivers\peripheral\gpio/cy_gpio.h **** *******************************************************************************/
1485:Generated_Source\PSoC6\pdl\drivers\peripheral\gpio/cy_gpio.h **** __STATIC_INLINE uint32_t Cy_GPIO_GetInterruptMask(GPIO_PRT_Type* base, uint32_t pinNum)
1486:Generated_Source\PSoC6\pdl\drivers\peripheral\gpio/cy_gpio.h **** {
1487:Generated_Source\PSoC6\pdl\drivers\peripheral\gpio/cy_gpio.h ****     return (base->INTR_MASK >> pinNum) & CY_GPIO_INTR_EN_MASK;
1488:Generated_Source\PSoC6\pdl\drivers\peripheral\gpio/cy_gpio.h **** }
1489:Generated_Source\PSoC6\pdl\drivers\peripheral\gpio/cy_gpio.h **** 
1490:Generated_Source\PSoC6\pdl\drivers\peripheral\gpio/cy_gpio.h **** 
1491:Generated_Source\PSoC6\pdl\drivers\peripheral\gpio/cy_gpio.h **** /*******************************************************************************
1492:Generated_Source\PSoC6\pdl\drivers\peripheral\gpio/cy_gpio.h **** * Function Name: Cy_GPIO_GetInterruptStatusMasked
1493:Generated_Source\PSoC6\pdl\drivers\peripheral\gpio/cy_gpio.h **** ****************************************************************************//**
1494:Generated_Source\PSoC6\pdl\drivers\peripheral\gpio/cy_gpio.h **** *
1495:Generated_Source\PSoC6\pdl\drivers\peripheral\gpio/cy_gpio.h **** * \brief Return the pin's current interrupt state after being masked.
1496:Generated_Source\PSoC6\pdl\drivers\peripheral\gpio/cy_gpio.h **** *
1497:Generated_Source\PSoC6\pdl\drivers\peripheral\gpio/cy_gpio.h **** * \param base
1498:Generated_Source\PSoC6\pdl\drivers\peripheral\gpio/cy_gpio.h **** * Pointer to the pin's port register base address
1499:Generated_Source\PSoC6\pdl\drivers\peripheral\gpio/cy_gpio.h **** *
1500:Generated_Source\PSoC6\pdl\drivers\peripheral\gpio/cy_gpio.h **** * \param pinNum
1501:Generated_Source\PSoC6\pdl\drivers\peripheral\gpio/cy_gpio.h **** * Position of the pin bit-field within the port register
1502:Generated_Source\PSoC6\pdl\drivers\peripheral\gpio/cy_gpio.h **** *
1503:Generated_Source\PSoC6\pdl\drivers\peripheral\gpio/cy_gpio.h **** * \return
1504:Generated_Source\PSoC6\pdl\drivers\peripheral\gpio/cy_gpio.h **** * 0 = Pin interrupt not detected or not forwarded to CPU interrupt controller
1505:Generated_Source\PSoC6\pdl\drivers\peripheral\gpio/cy_gpio.h **** * 1 = Pin interrupt detected and forwarded to CPU interrupt controller
1506:Generated_Source\PSoC6\pdl\drivers\peripheral\gpio/cy_gpio.h **** *
1507:Generated_Source\PSoC6\pdl\drivers\peripheral\gpio/cy_gpio.h **** *******************************************************************************/
1508:Generated_Source\PSoC6\pdl\drivers\peripheral\gpio/cy_gpio.h **** __STATIC_INLINE uint32_t Cy_GPIO_GetInterruptStatusMasked(GPIO_PRT_Type* base, uint32_t pinNum)
1509:Generated_Source\PSoC6\pdl\drivers\peripheral\gpio/cy_gpio.h **** {
1510:Generated_Source\PSoC6\pdl\drivers\peripheral\gpio/cy_gpio.h ****     return (base->INTR_MASKED >> pinNum) & CY_GPIO_INTR_MASKED_MASK;
1511:Generated_Source\PSoC6\pdl\drivers\peripheral\gpio/cy_gpio.h **** }
1512:Generated_Source\PSoC6\pdl\drivers\peripheral\gpio/cy_gpio.h **** 
1513:Generated_Source\PSoC6\pdl\drivers\peripheral\gpio/cy_gpio.h **** 
1514:Generated_Source\PSoC6\pdl\drivers\peripheral\gpio/cy_gpio.h **** /*******************************************************************************
1515:Generated_Source\PSoC6\pdl\drivers\peripheral\gpio/cy_gpio.h **** * Function Name: Cy_GPIO_SetSwInterrupt
1516:Generated_Source\PSoC6\pdl\drivers\peripheral\gpio/cy_gpio.h **** ****************************************************************************//**
1517:Generated_Source\PSoC6\pdl\drivers\peripheral\gpio/cy_gpio.h **** *
1518:Generated_Source\PSoC6\pdl\drivers\peripheral\gpio/cy_gpio.h **** * \brief Force a pin interrupt to trigger.
1519:Generated_Source\PSoC6\pdl\drivers\peripheral\gpio/cy_gpio.h **** *
1520:Generated_Source\PSoC6\pdl\drivers\peripheral\gpio/cy_gpio.h **** * \param base
1521:Generated_Source\PSoC6\pdl\drivers\peripheral\gpio/cy_gpio.h **** * Pointer to the pin's port register base address
1522:Generated_Source\PSoC6\pdl\drivers\peripheral\gpio/cy_gpio.h **** *
1523:Generated_Source\PSoC6\pdl\drivers\peripheral\gpio/cy_gpio.h **** * \param pinNum
1524:Generated_Source\PSoC6\pdl\drivers\peripheral\gpio/cy_gpio.h **** * Position of the pin bit-field within the port register
1525:Generated_Source\PSoC6\pdl\drivers\peripheral\gpio/cy_gpio.h **** *
1526:Generated_Source\PSoC6\pdl\drivers\peripheral\gpio/cy_gpio.h **** * \return
1527:Generated_Source\PSoC6\pdl\drivers\peripheral\gpio/cy_gpio.h **** * void
1528:Generated_Source\PSoC6\pdl\drivers\peripheral\gpio/cy_gpio.h **** *
1529:Generated_Source\PSoC6\pdl\drivers\peripheral\gpio/cy_gpio.h **** *******************************************************************************/
1530:Generated_Source\PSoC6\pdl\drivers\peripheral\gpio/cy_gpio.h **** __STATIC_INLINE void Cy_GPIO_SetSwInterrupt(GPIO_PRT_Type* base, uint32_t pinNum)
1531:Generated_Source\PSoC6\pdl\drivers\peripheral\gpio/cy_gpio.h **** {
1532:Generated_Source\PSoC6\pdl\drivers\peripheral\gpio/cy_gpio.h ****     base->INTR_SET = CY_GPIO_INTR_SET_MASK << pinNum;
1533:Generated_Source\PSoC6\pdl\drivers\peripheral\gpio/cy_gpio.h **** }
1534:Generated_Source\PSoC6\pdl\drivers\peripheral\gpio/cy_gpio.h **** 
ARM GAS  C:\Users\kiwamu\AppData\Local\Temp\ccUfXRBo.s 			page 32


1535:Generated_Source\PSoC6\pdl\drivers\peripheral\gpio/cy_gpio.h **** 
1536:Generated_Source\PSoC6\pdl\drivers\peripheral\gpio/cy_gpio.h **** /*******************************************************************************
1537:Generated_Source\PSoC6\pdl\drivers\peripheral\gpio/cy_gpio.h **** * Function Name: Cy_GPIO_SetInterruptEdge
1538:Generated_Source\PSoC6\pdl\drivers\peripheral\gpio/cy_gpio.h **** ****************************************************************************//**
1539:Generated_Source\PSoC6\pdl\drivers\peripheral\gpio/cy_gpio.h **** *
1540:Generated_Source\PSoC6\pdl\drivers\peripheral\gpio/cy_gpio.h **** * \brief Configures the type of edge that will trigger a pin interrupt.
1541:Generated_Source\PSoC6\pdl\drivers\peripheral\gpio/cy_gpio.h **** *
1542:Generated_Source\PSoC6\pdl\drivers\peripheral\gpio/cy_gpio.h **** * \param base
1543:Generated_Source\PSoC6\pdl\drivers\peripheral\gpio/cy_gpio.h **** * Pointer to the pin's port register base address
1544:Generated_Source\PSoC6\pdl\drivers\peripheral\gpio/cy_gpio.h **** *
1545:Generated_Source\PSoC6\pdl\drivers\peripheral\gpio/cy_gpio.h **** * \param pinNum
1546:Generated_Source\PSoC6\pdl\drivers\peripheral\gpio/cy_gpio.h **** * Position of the pin bit-field within the port register
1547:Generated_Source\PSoC6\pdl\drivers\peripheral\gpio/cy_gpio.h **** *
1548:Generated_Source\PSoC6\pdl\drivers\peripheral\gpio/cy_gpio.h **** * \param value
1549:Generated_Source\PSoC6\pdl\drivers\peripheral\gpio/cy_gpio.h **** * Pin interrupt mode. Options are detailed in \ref group_gpio_interruptTrigger macros
1550:Generated_Source\PSoC6\pdl\drivers\peripheral\gpio/cy_gpio.h **** *
1551:Generated_Source\PSoC6\pdl\drivers\peripheral\gpio/cy_gpio.h **** * \return
1552:Generated_Source\PSoC6\pdl\drivers\peripheral\gpio/cy_gpio.h **** * void
1553:Generated_Source\PSoC6\pdl\drivers\peripheral\gpio/cy_gpio.h **** *
1554:Generated_Source\PSoC6\pdl\drivers\peripheral\gpio/cy_gpio.h **** * \note 
1555:Generated_Source\PSoC6\pdl\drivers\peripheral\gpio/cy_gpio.h **** * This function modifies a port register in a read-modify-write operation. It is
1556:Generated_Source\PSoC6\pdl\drivers\peripheral\gpio/cy_gpio.h **** * not thread safe as the resource is shared among multiple pins on a port.
1557:Generated_Source\PSoC6\pdl\drivers\peripheral\gpio/cy_gpio.h **** *
1558:Generated_Source\PSoC6\pdl\drivers\peripheral\gpio/cy_gpio.h **** *******************************************************************************/
1559:Generated_Source\PSoC6\pdl\drivers\peripheral\gpio/cy_gpio.h **** __STATIC_INLINE void Cy_GPIO_SetInterruptEdge(GPIO_PRT_Type* base, uint32_t pinNum, uint32_t value)
1560:Generated_Source\PSoC6\pdl\drivers\peripheral\gpio/cy_gpio.h **** {
1561:Generated_Source\PSoC6\pdl\drivers\peripheral\gpio/cy_gpio.h ****     uint32_t tempReg;
1562:Generated_Source\PSoC6\pdl\drivers\peripheral\gpio/cy_gpio.h ****     uint32_t pinLoc;
1563:Generated_Source\PSoC6\pdl\drivers\peripheral\gpio/cy_gpio.h **** 
1564:Generated_Source\PSoC6\pdl\drivers\peripheral\gpio/cy_gpio.h ****     pinLoc = pinNum << CY_GPIO_INTR_CFG_OFFSET;
 170              		.loc 2 1564 0
 171 008e 4F00     		lsls	r7, r1, #1
 172              	.LVL20:
1565:Generated_Source\PSoC6\pdl\drivers\peripheral\gpio/cy_gpio.h ****     tempReg = base->INTR_CFG & ~(CY_GPIO_INTR_EDGE_MASK << pinLoc);
 173              		.loc 2 1565 0
 174 0090 436A     		ldr	r3, [r0, #36]
 175 0092 0326     		movs	r6, #3
 176 0094 3400     		movs	r4, r6
 177 0096 BC40     		lsls	r4, r4, r7
 178 0098 A343     		bics	r3, r4
 179 009a 1C00     		movs	r4, r3
 180              	.LVL21:
1566:Generated_Source\PSoC6\pdl\drivers\peripheral\gpio/cy_gpio.h ****     base->INTR_CFG = tempReg | ((value & CY_GPIO_INTR_EDGE_MASK) << pinLoc);
 181              		.loc 2 1566 0
 182 009c D368     		ldr	r3, [r2, #12]
 183              	.LVL22:
 184 009e 3340     		ands	r3, r6
 185 00a0 BB40     		lsls	r3, r3, r7
 186 00a2 2343     		orrs	r3, r4
 187 00a4 4362     		str	r3, [r0, #36]
 188              	.LVL23:
 189              	.LBE31:
 190              	.LBE30:
 191              	.LBB32:
 192              	.LBB33:
1462:Generated_Source\PSoC6\pdl\drivers\peripheral\gpio/cy_gpio.h ****     base->INTR_MASK = tempReg | ((value & CY_GPIO_INTR_EN_MASK) << pinNum);
 193              		.loc 2 1462 0
ARM GAS  C:\Users\kiwamu\AppData\Local\Temp\ccUfXRBo.s 			page 33


 194 00a6 8769     		ldr	r7, [r0, #24]
 195 00a8 0124     		movs	r4, #1
 196 00aa 2300     		movs	r3, r4
 197 00ac 8B40     		lsls	r3, r3, r1
 198 00ae 9C46     		mov	ip, r3
 199 00b0 DB43     		mvns	r3, r3
 200 00b2 9946     		mov	r9, r3
 201 00b4 3B40     		ands	r3, r7
 202              	.LVL24:
1463:Generated_Source\PSoC6\pdl\drivers\peripheral\gpio/cy_gpio.h **** }
 203              		.loc 2 1463 0
 204 00b6 1769     		ldr	r7, [r2, #16]
 205 00b8 2740     		ands	r7, r4
 206 00ba 8F40     		lsls	r7, r7, r1
 207 00bc 1F43     		orrs	r7, r3
 208 00be 8761     		str	r7, [r0, #24]
 209              	.LVL25:
 210              	.LBE33:
 211              	.LBE32:
 212              	.LBB34:
 213              	.LBB35:
 931:Generated_Source\PSoC6\pdl\drivers\peripheral\gpio/cy_gpio.h ****     base->CFG_IN = tempReg | ((value & CY_GPIO_CFG_IN_VTRIP_SEL_MASK) << pinNum);
 214              		.loc 2 931 0
 215 00c0 C36A     		ldr	r3, [r0, #44]
 216 00c2 4F46     		mov	r7, r9
 217 00c4 3B40     		ands	r3, r7
 218              	.LVL26:
 932:Generated_Source\PSoC6\pdl\drivers\peripheral\gpio/cy_gpio.h **** }
 219              		.loc 2 932 0
 220 00c6 5769     		ldr	r7, [r2, #20]
 221 00c8 2740     		ands	r7, r4
 222 00ca 8F40     		lsls	r7, r7, r1
 223 00cc 3B43     		orrs	r3, r7
 224              	.LVL27:
 225 00ce C362     		str	r3, [r0, #44]
 226              	.LVL28:
 227              	.LBE35:
 228              	.LBE34:
  57:Generated_Source\PSoC6\pdl\drivers\peripheral\gpio/cy_gpio.c **** 
  58:Generated_Source\PSoC6\pdl\drivers\peripheral\gpio/cy_gpio.c ****         Cy_GPIO_SetInterruptEdge(base, pinNum, config->intEdge);
  59:Generated_Source\PSoC6\pdl\drivers\peripheral\gpio/cy_gpio.c ****         Cy_GPIO_SetInterruptMask(base, pinNum, config->intMask);
  60:Generated_Source\PSoC6\pdl\drivers\peripheral\gpio/cy_gpio.c ****         Cy_GPIO_SetVtrip(base, pinNum, config->vtrip);
  61:Generated_Source\PSoC6\pdl\drivers\peripheral\gpio/cy_gpio.c **** 
  62:Generated_Source\PSoC6\pdl\drivers\peripheral\gpio/cy_gpio.c ****         /* Slew rate and Driver strength */
  63:Generated_Source\PSoC6\pdl\drivers\peripheral\gpio/cy_gpio.c ****         maskCfgOut = (CY_GPIO_CFG_OUT_SLOW_MASK << pinNum) | (CY_GPIO_CFG_OUT_DRIVE_SEL_MASK << (pi
 229              		.loc 1 63 0
 230 00d0 1023     		movs	r3, #16
 231 00d2 9846     		mov	r8, r3
 232 00d4 8844     		add	r8, r8, r1
 233 00d6 3300     		movs	r3, r6
 234 00d8 4746     		mov	r7, r8
 235 00da BB40     		lsls	r3, r3, r7
 236 00dc 6746     		mov	r7, ip
 237 00de 3B43     		orrs	r3, r7
 238              	.LVL29:
  64:Generated_Source\PSoC6\pdl\drivers\peripheral\gpio/cy_gpio.c ****         tempReg = base->CFG_OUT & ~(maskCfgOut);
 239              		.loc 1 64 0
ARM GAS  C:\Users\kiwamu\AppData\Local\Temp\ccUfXRBo.s 			page 34


 240 00e0 076B     		ldr	r7, [r0, #48]
 241 00e2 9F43     		bics	r7, r3
 242 00e4 3B00     		movs	r3, r7
 243              	.LVL30:
  65:Generated_Source\PSoC6\pdl\drivers\peripheral\gpio/cy_gpio.c ****         base->CFG_OUT = tempReg | ((config->slewRate & CY_GPIO_CFG_OUT_SLOW_MASK) << pinNum)
 244              		.loc 1 65 0
 245 00e6 9769     		ldr	r7, [r2, #24]
 246 00e8 2740     		ands	r7, r4
 247 00ea 8F40     		lsls	r7, r7, r1
 248 00ec 3B43     		orrs	r3, r7
 249              	.LVL31:
 250 00ee 1900     		movs	r1, r3
 251              	.LVL32:
  66:Generated_Source\PSoC6\pdl\drivers\peripheral\gpio/cy_gpio.c ****                             | ((config->driveSel & CY_GPIO_CFG_OUT_DRIVE_SEL_MASK) << (pinNum + CY_
 252              		.loc 1 66 0
 253 00f0 D369     		ldr	r3, [r2, #28]
 254 00f2 1E40     		ands	r6, r3
 255              	.LVL33:
 256 00f4 4346     		mov	r3, r8
 257 00f6 9E40     		lsls	r6, r6, r3
 258 00f8 3143     		orrs	r1, r6
  65:Generated_Source\PSoC6\pdl\drivers\peripheral\gpio/cy_gpio.c ****         base->CFG_OUT = tempReg | ((config->slewRate & CY_GPIO_CFG_OUT_SLOW_MASK) << pinNum)
 259              		.loc 1 65 0
 260 00fa 0163     		str	r1, [r0, #48]
  67:Generated_Source\PSoC6\pdl\drivers\peripheral\gpio/cy_gpio.c **** 
  68:Generated_Source\PSoC6\pdl\drivers\peripheral\gpio/cy_gpio.c ****         /* SIO specific configuration */
  69:Generated_Source\PSoC6\pdl\drivers\peripheral\gpio/cy_gpio.c ****         tempReg = base->CFG_SIO & ~(CY_GPIO_SIO_PIN_MASK);
 261              		.loc 1 69 0
 262 00fc 436B     		ldr	r3, [r0, #52]
 263 00fe FF27     		movs	r7, #255
 264 0100 BB43     		bics	r3, r7
 265 0102 1E00     		movs	r6, r3
 266              	.LVL34:
  70:Generated_Source\PSoC6\pdl\drivers\peripheral\gpio/cy_gpio.c ****         base->CFG_SIO = tempReg | (((config->vregEn & CY_GPIO_VREG_EN_MASK)
 267              		.loc 1 70 0
 268 0104 136A     		ldr	r3, [r2, #32]
 269              	.LVL35:
 270 0106 1C40     		ands	r4, r3
  71:Generated_Source\PSoC6\pdl\drivers\peripheral\gpio/cy_gpio.c ****                                         | ((config->ibufMode & CY_GPIO_IBUF_MASK) << CY_GPIO_IBUF_S
 271              		.loc 1 71 0
 272 0108 536A     		ldr	r3, [r2, #36]
 273 010a 5900     		lsls	r1, r3, #1
 274 010c 0223     		movs	r3, #2
 275 010e 0B40     		ands	r3, r1
 276 0110 2343     		orrs	r3, r4
  72:Generated_Source\PSoC6\pdl\drivers\peripheral\gpio/cy_gpio.c ****                                         | ((config->vtripSel & CY_GPIO_VTRIP_SEL_MASK) << CY_GPIO_V
 277              		.loc 1 72 0
 278 0112 916A     		ldr	r1, [r2, #40]
 279 0114 8900     		lsls	r1, r1, #2
 280 0116 0424     		movs	r4, #4
 281 0118 2140     		ands	r1, r4
 282 011a 0B43     		orrs	r3, r1
 283 011c 1C00     		movs	r4, r3
  73:Generated_Source\PSoC6\pdl\drivers\peripheral\gpio/cy_gpio.c ****                                         | ((config->vrefSel & CY_GPIO_VREF_SEL_MASK)  << CY_GPIO_VR
 284              		.loc 1 73 0
 285 011e D36A     		ldr	r3, [r2, #44]
 286 0120 D900     		lsls	r1, r3, #3
ARM GAS  C:\Users\kiwamu\AppData\Local\Temp\ccUfXRBo.s 			page 35


 287 0122 1823     		movs	r3, #24
 288 0124 1940     		ands	r1, r3
 289 0126 2300     		movs	r3, r4
 290 0128 0B43     		orrs	r3, r1
  74:Generated_Source\PSoC6\pdl\drivers\peripheral\gpio/cy_gpio.c ****                                         | ((config->vohSel & CY_GPIO_VOH_SEL_MASK) << CY_GPIO_VOH_S
 291              		.loc 1 74 0
 292 012a 126B     		ldr	r2, [r2, #48]
 293              	.LVL36:
 294 012c 5201     		lsls	r2, r2, #5
 295 012e 3A40     		ands	r2, r7
 296 0130 1343     		orrs	r3, r2
  75:Generated_Source\PSoC6\pdl\drivers\peripheral\gpio/cy_gpio.c ****                                             << ((pinNum & CY_GPIO_SIO_ODD_PIN_MASK) << CY_GPIO_CFG_
 297              		.loc 1 75 0
 298 0132 FE22     		movs	r2, #254
 299 0134 9200     		lsls	r2, r2, #2
 300 0136 1540     		ands	r5, r2
 301 0138 AB40     		lsls	r3, r3, r5
  70:Generated_Source\PSoC6\pdl\drivers\peripheral\gpio/cy_gpio.c ****                                         | ((config->ibufMode & CY_GPIO_IBUF_MASK) << CY_GPIO_IBUF_S
 302              		.loc 1 70 0
 303 013a 3343     		orrs	r3, r6
 304 013c 4363     		str	r3, [r0, #52]
  48:Generated_Source\PSoC6\pdl\drivers\peripheral\gpio/cy_gpio.c ****     uint32_t maskCfgOut;
 305              		.loc 1 48 0
 306 013e 0020     		movs	r0, #0
 307              	.LVL37:
  70:Generated_Source\PSoC6\pdl\drivers\peripheral\gpio/cy_gpio.c ****                                         | ((config->ibufMode & CY_GPIO_IBUF_MASK) << CY_GPIO_IBUF_S
 308              		.loc 1 70 0
 309 0140 02E0     		b	.L2
 310              	.LVL38:
 311              	.L7:
  76:Generated_Source\PSoC6\pdl\drivers\peripheral\gpio/cy_gpio.c ****     }
  77:Generated_Source\PSoC6\pdl\drivers\peripheral\gpio/cy_gpio.c ****     else
  78:Generated_Source\PSoC6\pdl\drivers\peripheral\gpio/cy_gpio.c ****     {
  79:Generated_Source\PSoC6\pdl\drivers\peripheral\gpio/cy_gpio.c ****         status = CY_GPIO_BAD_PARAM;
 312              		.loc 1 79 0
 313 0142 0548     		ldr	r0, .L9+8
 314              	.LVL39:
 315 0144 00E0     		b	.L2
 316              	.LVL40:
 317              	.L8:
 318 0146 0448     		ldr	r0, .L9+8
 319              	.LVL41:
 320              	.L2:
  80:Generated_Source\PSoC6\pdl\drivers\peripheral\gpio/cy_gpio.c ****     }
  81:Generated_Source\PSoC6\pdl\drivers\peripheral\gpio/cy_gpio.c ****     
  82:Generated_Source\PSoC6\pdl\drivers\peripheral\gpio/cy_gpio.c ****     return(status);
  83:Generated_Source\PSoC6\pdl\drivers\peripheral\gpio/cy_gpio.c **** }
 321              		.loc 1 83 0
 322              		@ sp needed
 323 0148 0CBC     		pop	{r2, r3}
 324 014a 9046     		mov	r8, r2
 325 014c 9946     		mov	r9, r3
 326 014e F0BD     		pop	{r4, r5, r6, r7, pc}
 327              	.L10:
 328              		.align	2
 329              	.L9:
 330 0150 0000CEBF 		.word	-1077018624
ARM GAS  C:\Users\kiwamu\AppData\Local\Temp\ccUfXRBo.s 			page 36


 331 0154 00100304 		.word	67309568
 332 0158 01005A00 		.word	5898241
 333              		.cfi_endproc
 334              	.LFE74:
 335              		.size	Cy_GPIO_Pin_Init, .-Cy_GPIO_Pin_Init
 336              		.section	.text.Cy_GPIO_Port_Init,"ax",%progbits
 337              		.align	2
 338              		.global	Cy_GPIO_Port_Init
 339              		.code	16
 340              		.thumb_func
 341              		.type	Cy_GPIO_Port_Init, %function
 342              	Cy_GPIO_Port_Init:
 343              	.LFB75:
  84:Generated_Source\PSoC6\pdl\drivers\peripheral\gpio/cy_gpio.c **** 
  85:Generated_Source\PSoC6\pdl\drivers\peripheral\gpio/cy_gpio.c **** 
  86:Generated_Source\PSoC6\pdl\drivers\peripheral\gpio/cy_gpio.c **** /*******************************************************************************
  87:Generated_Source\PSoC6\pdl\drivers\peripheral\gpio/cy_gpio.c **** * Function Name: Cy_GPIO_Port_Init
  88:Generated_Source\PSoC6\pdl\drivers\peripheral\gpio/cy_gpio.c **** ****************************************************************************//**
  89:Generated_Source\PSoC6\pdl\drivers\peripheral\gpio/cy_gpio.c **** *
  90:Generated_Source\PSoC6\pdl\drivers\peripheral\gpio/cy_gpio.c **** * \brief Initialize a complete port of pins from a single init structure.
  91:Generated_Source\PSoC6\pdl\drivers\peripheral\gpio/cy_gpio.c **** *
  92:Generated_Source\PSoC6\pdl\drivers\peripheral\gpio/cy_gpio.c **** * \param base
  93:Generated_Source\PSoC6\pdl\drivers\peripheral\gpio/cy_gpio.c **** * Pointer to the pin's port register base address
  94:Generated_Source\PSoC6\pdl\drivers\peripheral\gpio/cy_gpio.c **** *
  95:Generated_Source\PSoC6\pdl\drivers\peripheral\gpio/cy_gpio.c **** * \param config
  96:Generated_Source\PSoC6\pdl\drivers\peripheral\gpio/cy_gpio.c **** * Pointer to the pin config structure base address
  97:Generated_Source\PSoC6\pdl\drivers\peripheral\gpio/cy_gpio.c **** *
  98:Generated_Source\PSoC6\pdl\drivers\peripheral\gpio/cy_gpio.c **** * \return
  99:Generated_Source\PSoC6\pdl\drivers\peripheral\gpio/cy_gpio.c **** * Initialization status
 100:Generated_Source\PSoC6\pdl\drivers\peripheral\gpio/cy_gpio.c **** *
 101:Generated_Source\PSoC6\pdl\drivers\peripheral\gpio/cy_gpio.c **** *******************************************************************************/
 102:Generated_Source\PSoC6\pdl\drivers\peripheral\gpio/cy_gpio.c **** cy_en_gpio_status_t Cy_GPIO_Port_Init(GPIO_PRT_Type* base, const cy_stc_gpio_prt_config_t *config)
 103:Generated_Source\PSoC6\pdl\drivers\peripheral\gpio/cy_gpio.c **** {
 344              		.loc 1 103 0
 345              		.cfi_startproc
 346              		@ args = 0, pretend = 0, frame = 0
 347              		@ frame_needed = 0, uses_anonymous_args = 0
 348              		@ link register save eliminated.
 349              	.LVL42:
 104:Generated_Source\PSoC6\pdl\drivers\peripheral\gpio/cy_gpio.c ****     cy_en_gpio_status_t status = CY_GPIO_SUCCESS;
 105:Generated_Source\PSoC6\pdl\drivers\peripheral\gpio/cy_gpio.c ****     uint32_t portNum;
 106:Generated_Source\PSoC6\pdl\drivers\peripheral\gpio/cy_gpio.c ****     HSIOM_PRT_Type* baseHSIOM;
 107:Generated_Source\PSoC6\pdl\drivers\peripheral\gpio/cy_gpio.c **** 
 108:Generated_Source\PSoC6\pdl\drivers\peripheral\gpio/cy_gpio.c ****     if((NULL != base) && (NULL != config))
 350              		.loc 1 108 0
 351 0000 0028     		cmp	r0, #0
 352 0002 1CD0     		beq	.L13
 353              		.loc 1 108 0 is_stmt 0 discriminator 1
 354 0004 0029     		cmp	r1, #0
 355 0006 1CD0     		beq	.L14
 109:Generated_Source\PSoC6\pdl\drivers\peripheral\gpio/cy_gpio.c ****     {
 110:Generated_Source\PSoC6\pdl\drivers\peripheral\gpio/cy_gpio.c ****         portNum = ((uint32_t)(base) - GPIO_BASE) / GPIO_PRT_SECTION_SIZE;
 356              		.loc 1 110 0 is_stmt 1
 357 0008 0F4B     		ldr	r3, .L15
 358 000a C318     		adds	r3, r0, r3
 359 000c DB09     		lsrs	r3, r3, #7
 360              	.LVL43:
ARM GAS  C:\Users\kiwamu\AppData\Local\Temp\ccUfXRBo.s 			page 37


 111:Generated_Source\PSoC6\pdl\drivers\peripheral\gpio/cy_gpio.c ****         baseHSIOM = (HSIOM_PRT_Type*)(HSIOM_BASE + (HSIOM_PRT_SECTION_SIZE * portNum));
 361              		.loc 1 111 0
 362 000e 0F4A     		ldr	r2, .L15+4
 363 0010 9446     		mov	ip, r2
 364 0012 6344     		add	r3, r3, ip
 365              	.LVL44:
 366 0014 1B01     		lsls	r3, r3, #4
 367              	.LVL45:
 112:Generated_Source\PSoC6\pdl\drivers\peripheral\gpio/cy_gpio.c **** 
 113:Generated_Source\PSoC6\pdl\drivers\peripheral\gpio/cy_gpio.c ****         base->OUT            = config->out;
 368              		.loc 1 113 0
 369 0016 0A68     		ldr	r2, [r1]
 370 0018 0260     		str	r2, [r0]
 114:Generated_Source\PSoC6\pdl\drivers\peripheral\gpio/cy_gpio.c ****         base->CFG            = config->cfg;
 371              		.loc 1 114 0
 372 001a CA68     		ldr	r2, [r1, #12]
 373 001c 8262     		str	r2, [r0, #40]
 115:Generated_Source\PSoC6\pdl\drivers\peripheral\gpio/cy_gpio.c ****         base->CFG_IN         = config->cfgIn;
 374              		.loc 1 115 0
 375 001e 0A69     		ldr	r2, [r1, #16]
 376 0020 C262     		str	r2, [r0, #44]
 116:Generated_Source\PSoC6\pdl\drivers\peripheral\gpio/cy_gpio.c ****         base->CFG_OUT        = config->cfgOut;
 377              		.loc 1 116 0
 378 0022 4A69     		ldr	r2, [r1, #20]
 379 0024 0263     		str	r2, [r0, #48]
 117:Generated_Source\PSoC6\pdl\drivers\peripheral\gpio/cy_gpio.c ****         base->INTR_CFG       = config->intrCfg;
 380              		.loc 1 117 0
 381 0026 8A68     		ldr	r2, [r1, #8]
 382 0028 4262     		str	r2, [r0, #36]
 118:Generated_Source\PSoC6\pdl\drivers\peripheral\gpio/cy_gpio.c ****         base->INTR_MASK      = config->intrMask;
 383              		.loc 1 118 0
 384 002a 4A68     		ldr	r2, [r1, #4]
 385 002c 8261     		str	r2, [r0, #24]
 119:Generated_Source\PSoC6\pdl\drivers\peripheral\gpio/cy_gpio.c ****         base->CFG_SIO        = config->cfgSIO;
 386              		.loc 1 119 0
 387 002e 8A69     		ldr	r2, [r1, #24]
 388 0030 4263     		str	r2, [r0, #52]
 120:Generated_Source\PSoC6\pdl\drivers\peripheral\gpio/cy_gpio.c ****         baseHSIOM->PORT_SEL0 = config->sel0Active;
 389              		.loc 1 120 0
 390 0032 CA69     		ldr	r2, [r1, #28]
 391 0034 1A60     		str	r2, [r3]
 121:Generated_Source\PSoC6\pdl\drivers\peripheral\gpio/cy_gpio.c ****         baseHSIOM->PORT_SEL1 = config->sel1Active;
 392              		.loc 1 121 0
 393 0036 0A6A     		ldr	r2, [r1, #32]
 394 0038 5A60     		str	r2, [r3, #4]
 104:Generated_Source\PSoC6\pdl\drivers\peripheral\gpio/cy_gpio.c ****     uint32_t portNum;
 395              		.loc 1 104 0
 396 003a 0020     		movs	r0, #0
 397              	.LVL46:
 398              		.loc 1 121 0
 399 003c 02E0     		b	.L12
 400              	.LVL47:
 401              	.L13:
 122:Generated_Source\PSoC6\pdl\drivers\peripheral\gpio/cy_gpio.c ****     }
 123:Generated_Source\PSoC6\pdl\drivers\peripheral\gpio/cy_gpio.c ****     else
 124:Generated_Source\PSoC6\pdl\drivers\peripheral\gpio/cy_gpio.c ****     {
 125:Generated_Source\PSoC6\pdl\drivers\peripheral\gpio/cy_gpio.c ****         status = CY_GPIO_BAD_PARAM;
ARM GAS  C:\Users\kiwamu\AppData\Local\Temp\ccUfXRBo.s 			page 38


 402              		.loc 1 125 0
 403 003e 0448     		ldr	r0, .L15+8
 404              	.LVL48:
 405 0040 00E0     		b	.L12
 406              	.LVL49:
 407              	.L14:
 408 0042 0348     		ldr	r0, .L15+8
 409              	.LVL50:
 410              	.L12:
 126:Generated_Source\PSoC6\pdl\drivers\peripheral\gpio/cy_gpio.c ****     }
 127:Generated_Source\PSoC6\pdl\drivers\peripheral\gpio/cy_gpio.c ****     
 128:Generated_Source\PSoC6\pdl\drivers\peripheral\gpio/cy_gpio.c ****     return(status);
 129:Generated_Source\PSoC6\pdl\drivers\peripheral\gpio/cy_gpio.c **** }
 411              		.loc 1 129 0
 412              		@ sp needed
 413 0044 7047     		bx	lr
 414              	.L16:
 415 0046 C046     		.align	2
 416              	.L15:
 417 0048 0000CEBF 		.word	-1077018624
 418 004c 00100304 		.word	67309568
 419 0050 01005A00 		.word	5898241
 420              		.cfi_endproc
 421              	.LFE75:
 422              		.size	Cy_GPIO_Port_Init, .-Cy_GPIO_Port_Init
 423              		.text
 424              	.Letext0:
 425              		.file 3 "c:\\program files (x86)\\cypress\\psoc creator\\4.2\\psoc creator\\import\\gnu\\arm\\5.4.
 426              		.file 4 "c:\\program files (x86)\\cypress\\psoc creator\\4.2\\psoc creator\\import\\gnu\\arm\\5.4.
 427              		.file 5 "Generated_Source\\PSoC6\\pdl\\devices/psoc6/psoc63/include/gpio_psoc63_116_bga_ble.h"
 428              		.file 6 "Generated_Source\\PSoC6\\pdl\\devices/psoc6/ip/cyip_hsiom.h"
 429              		.file 7 "Generated_Source\\PSoC6\\pdl\\devices/psoc6/ip/cyip_gpio.h"