ARM GAS  C:\Users\kiwamu\AppData\Local\Temp\ccwiAToj.s 			page 1


   1              		.syntax unified
   2              		.cpu cortex-m0plus
   3              		.fpu softvfp
   4              		.eabi_attribute 20, 1
   5              		.eabi_attribute 21, 1
   6              		.eabi_attribute 23, 3
   7              		.eabi_attribute 24, 1
   8              		.eabi_attribute 25, 1
   9              		.eabi_attribute 26, 1
  10              		.eabi_attribute 30, 1
  11              		.eabi_attribute 34, 0
  12              		.eabi_attribute 18, 4
  13              		.thumb
  14              		.syntax unified
  15              		.file	"cy_ipc_config.c"
  16              		.text
  17              	.Ltext0:
  18              		.cfi_sections	.debug_frame
  19              		.section	.cy_ramfunc,"ax",%progbits
  20              		.align	2
  21              		.code	16
  22              		.thumb_func
  23              		.type	Cy_Flash_NotifyHandler, %function
  24              	Cy_Flash_NotifyHandler:
  25              	.LFB144:
  26              		.file 1 "cy_ipc_config.c"
   1:cy_ipc_config.c **** /***************************************************************************//**
   2:cy_ipc_config.c **** * \file cy_ipc_config.c
   3:cy_ipc_config.c **** * \version 1.10
   4:cy_ipc_config.c **** *
   5:cy_ipc_config.c **** *  Description:
   6:cy_ipc_config.c **** *  This C file is not intended to be part of the IPC driver. It is the code
   7:cy_ipc_config.c **** *  required to configure the device specific IPC channels for semaphores
   8:cy_ipc_config.c **** *  and pipes.
   9:cy_ipc_config.c **** *
  10:cy_ipc_config.c **** ********************************************************************************
  11:cy_ipc_config.c **** * Copyright 2016-2017, Cypress Semiconductor Corporation.  All rights reserved.
  12:cy_ipc_config.c **** * You may use this file only in accordance with the license, terms, conditions,
  13:cy_ipc_config.c **** * disclaimers, and limitations in the end user license agreement accompanying
  14:cy_ipc_config.c **** * the software package with which this file was provided.
  15:cy_ipc_config.c **** *******************************************************************************/
  16:cy_ipc_config.c **** 
  17:cy_ipc_config.c **** #include "flash/cy_flash.h"
  18:cy_ipc_config.c **** #include "ipc/cy_ipc_drv.h"
  19:cy_ipc_config.c **** #include "ipc/cy_ipc_pipe.h"
  20:cy_ipc_config.c **** #include "ipc/cy_ipc_sema.h"
  21:cy_ipc_config.c **** #include "sysint/cy_sysint.h"
  22:cy_ipc_config.c **** 
  23:cy_ipc_config.c **** #include "cy_ipc_config.h"
  24:cy_ipc_config.c **** 
  25:cy_ipc_config.c **** static void Cy_Flash_NotifyHandler(uint32_t * msgPtr);
  26:cy_ipc_config.c **** 
  27:cy_ipc_config.c **** /* Create an array of endpoint structures */
  28:cy_ipc_config.c **** static cy_stc_ipc_pipe_ep_t        cy_ipc_pipe_sysEpArray[CY_IPC_MAX_ENDPOINTS];
  29:cy_ipc_config.c **** 
  30:cy_ipc_config.c **** #define CY_CYPIPE_DEFAULT_CONFIG    \
  31:cy_ipc_config.c **** {\
ARM GAS  C:\Users\kiwamu\AppData\Local\Temp\ccwiAToj.s 			page 2


  32:cy_ipc_config.c ****     /* .ep0ConfigData */ {\
  33:cy_ipc_config.c ****         /* .ipcNotifierNumber    */  CY_IPC_INTR_CYPIPE_EP0,\
  34:cy_ipc_config.c ****         /* .ipcNotifierPriority  */  CY_IPC_INTR_CYPIPE_PRIOR_EP0,\
  35:cy_ipc_config.c ****         /* .ipcNotifierMuxNumber */  CY_IPC_INTR_CYPIPE_MUX_EP0,\
  36:cy_ipc_config.c ****         /* .epAddress            */  CY_IPC_EP_CYPIPE_CM0_ADDR,\
  37:cy_ipc_config.c ****         /* .epConfig             */  CY_IPC_CYPIPE_CONFIG_EP0\
  38:cy_ipc_config.c ****     },\
  39:cy_ipc_config.c ****     /* .ep1ConfigData */ {\
  40:cy_ipc_config.c ****         /* .ipcNotifierNumber    */  CY_IPC_INTR_CYPIPE_EP1,\
  41:cy_ipc_config.c ****         /* .ipcNotifierPriority  */  CY_IPC_INTR_CYPIPE_PRIOR_EP1,\
  42:cy_ipc_config.c ****         /* .ipcNotifierMuxNumber */  0u,\
  43:cy_ipc_config.c ****         /* .epAddress            */  CY_IPC_EP_CYPIPE_CM4_ADDR,\
  44:cy_ipc_config.c ****         /* .epConfig             */  CY_IPC_CYPIPE_CONFIG_EP1\
  45:cy_ipc_config.c ****     },\
  46:cy_ipc_config.c ****     /* .endpointClientsCount     */  CY_IPC_CYPIPE_CLIENT_CNT,\
  47:cy_ipc_config.c ****     /* .endpointsCallbacksArray  */  cy_ipc_pipe_sysCbArray,\
  48:cy_ipc_config.c ****     /* .userPipeIsrHandler       */  &Cy_IPC_SystemPipeIsr\
  49:cy_ipc_config.c **** }
  50:cy_ipc_config.c **** 
  51:cy_ipc_config.c **** /*******************************************************************************
  52:cy_ipc_config.c **** * Function Name: Cy_IPC_SystemSemaInit
  53:cy_ipc_config.c **** ****************************************************************************//**
  54:cy_ipc_config.c **** *
  55:cy_ipc_config.c **** * Initializes the system semaphores.
  56:cy_ipc_config.c **** *
  57:cy_ipc_config.c **** *******************************************************************************/
  58:cy_ipc_config.c **** void Cy_IPC_SystemSemaInit(void)
  59:cy_ipc_config.c **** {
  60:cy_ipc_config.c **** /* Create array used for semaphores */
  61:cy_ipc_config.c **** #if !(CY_CPU_CORTEX_M0P)
  62:cy_ipc_config.c ****     (void) Cy_IPC_Sema_Init(CY_IPC_CHAN_SEMA, 0ul, NULL);
  63:cy_ipc_config.c **** #else
  64:cy_ipc_config.c ****     static uint32_t ipcSemaArray[CY_IPC_SEMA_COUNT / CY_IPC_SEMA_PER_WORD];
  65:cy_ipc_config.c ****     (void) Cy_IPC_Sema_Init(CY_IPC_CHAN_SEMA, CY_IPC_SEMA_COUNT, ipcSemaArray);
  66:cy_ipc_config.c **** #endif
  67:cy_ipc_config.c **** }
  68:cy_ipc_config.c **** 
  69:cy_ipc_config.c **** /*******************************************************************************
  70:cy_ipc_config.c **** * Function Name: Cy_IPC_SystemPipeInit
  71:cy_ipc_config.c **** ****************************************************************************//**
  72:cy_ipc_config.c **** *
  73:cy_ipc_config.c **** * Initializes the system pipes. The system pipes are used by BLE.
  74:cy_ipc_config.c **** * \note The function should be called on all CPUs.
  75:cy_ipc_config.c **** *
  76:cy_ipc_config.c **** *******************************************************************************/
  77:cy_ipc_config.c **** void Cy_IPC_SystemPipeInit(void)
  78:cy_ipc_config.c **** {
  79:cy_ipc_config.c ****     uint32_t intr;
  80:cy_ipc_config.c **** 
  81:cy_ipc_config.c ****     intr = Cy_SysLib_EnterCriticalSection();
  82:cy_ipc_config.c **** 
  83:cy_ipc_config.c ****     static cy_ipc_pipe_callback_ptr_t cy_ipc_pipe_sysCbArray[CY_IPC_CYPIPE_CLIENT_CNT];
  84:cy_ipc_config.c **** 
  85:cy_ipc_config.c ****     static const cy_stc_ipc_pipe_config_t systemPipeConfig = CY_CYPIPE_DEFAULT_CONFIG;
  86:cy_ipc_config.c **** 
  87:cy_ipc_config.c ****     Cy_IPC_Pipe_Config(cy_ipc_pipe_sysEpArray);
  88:cy_ipc_config.c **** 
ARM GAS  C:\Users\kiwamu\AppData\Local\Temp\ccwiAToj.s 			page 3


  89:cy_ipc_config.c ****     Cy_IPC_Pipe_Init(&systemPipeConfig);
  90:cy_ipc_config.c **** 
  91:cy_ipc_config.c ****     (void)Cy_IPC_Pipe_RegisterCallback(CY_IPC_EP_CYPIPE_ADDR, &Cy_Flash_NotifyHandler, (uint32_t)CY
  92:cy_ipc_config.c **** 
  93:cy_ipc_config.c ****     Cy_SysLib_ExitCriticalSection(intr);
  94:cy_ipc_config.c **** }
  95:cy_ipc_config.c **** 
  96:cy_ipc_config.c **** /*******************************************************************************
  97:cy_ipc_config.c **** * Function Name: Cy_IPC_SystemPipeIsr
  98:cy_ipc_config.c **** ****************************************************************************//**
  99:cy_ipc_config.c **** *
 100:cy_ipc_config.c **** * This is the interrupt service routine for the system pipe.
 101:cy_ipc_config.c **** *
 102:cy_ipc_config.c **** *******************************************************************************/
 103:cy_ipc_config.c **** void Cy_IPC_SystemPipeIsr(void)
 104:cy_ipc_config.c **** {
 105:cy_ipc_config.c ****     Cy_IPC_Pipe_ExecCallback(&cy_ipc_pipe_sysEpArray[CY_IPC_EP_CYPIPE_ADDR]);
 106:cy_ipc_config.c **** }
 107:cy_ipc_config.c **** 
 108:cy_ipc_config.c **** /*******************************************************************************
 109:cy_ipc_config.c **** * Function Name: Cy_Flash_NotifyHandler
 110:cy_ipc_config.c **** ****************************************************************************//**
 111:cy_ipc_config.c **** *
 112:cy_ipc_config.c **** * This is the interrupt service routine for the pipe notifications.
 113:cy_ipc_config.c **** *
 114:cy_ipc_config.c **** *******************************************************************************/
 115:cy_ipc_config.c **** #if defined (__ICCARM__)
 116:cy_ipc_config.c ****     __ramfunc 
 117:cy_ipc_config.c **** #else
 118:cy_ipc_config.c ****     CY_SECTION(".cy_ramfunc")
 119:cy_ipc_config.c **** #endif
 120:cy_ipc_config.c **** static void Cy_Flash_NotifyHandler(uint32_t * msgPtr)
 121:cy_ipc_config.c **** {
  27              		.loc 1 121 0
  28              		.cfi_startproc
  29              		@ args = 0, pretend = 0, frame = 0
  30              		@ frame_needed = 0, uses_anonymous_args = 0
  31              	.LVL0:
  32 0000 10B5     		push	{r4, lr}
  33              		.cfi_def_cfa_offset 8
  34              		.cfi_offset 4, -8
  35              		.cfi_offset 14, -4
  36              	.LVL1:
 122:cy_ipc_config.c ****     uint32_t intr;
 123:cy_ipc_config.c **** 
 124:cy_ipc_config.c ****     IPC_MSG *ipcMsgPtr = (IPC_MSG *)msgPtr;
 125:cy_ipc_config.c **** 
 126:cy_ipc_config.c ****     if (CY_FLASH_ENTER_WAIT_LOOP == ipcMsgPtr->pktType)
  37              		.loc 1 126 0
  38 0002 4378     		ldrb	r3, [r0, #1]
  39 0004 FF2B     		cmp	r3, #255
  40 0006 0FD1     		bne	.L1
 127:cy_ipc_config.c ****     {
 128:cy_ipc_config.c ****         intr = Cy_SysLib_EnterCriticalSection();
  41              		.loc 1 128 0
  42 0008 FFF7FEFF 		bl	Cy_SysLib_EnterCriticalSection
  43              	.LVL2:
ARM GAS  C:\Users\kiwamu\AppData\Local\Temp\ccwiAToj.s 			page 4


  44 000c 0400     		movs	r4, r0
  45              	.LVL3:
 129:cy_ipc_config.c **** 
 130:cy_ipc_config.c ****         /* Notification to the Flash driver to start the current operation */
 131:cy_ipc_config.c ****         (void) Cy_IPC_Sema_Set(CY_FLASH_WAIT_SEMA, true);
  46              		.loc 1 131 0
  47 000e 0121     		movs	r1, #1
  48 0010 0020     		movs	r0, #0
  49              	.LVL4:
  50 0012 FFF7FEFF 		bl	Cy_IPC_Sema_Set
  51              	.LVL5:
  52              	.L3:
 132:cy_ipc_config.c **** 
 133:cy_ipc_config.c ****         /* Notification to me about the end of the operation */
 134:cy_ipc_config.c ****         while (CY_IPC_SEMA_STATUS_LOCKED == Cy_IPC_Sema_Status(CY_FLASH_WAIT_SEMA))
  53              		.loc 1 134 0 discriminator 1
  54 0016 0020     		movs	r0, #0
  55 0018 FFF7FEFF 		bl	Cy_IPC_Sema_Status
  56              	.LVL6:
  57 001c 034B     		ldr	r3, .L4
  58 001e 9842     		cmp	r0, r3
  59 0020 F9D0     		beq	.L3
 135:cy_ipc_config.c ****         {
 136:cy_ipc_config.c ****         }
 137:cy_ipc_config.c **** 
 138:cy_ipc_config.c ****         Cy_SysLib_ExitCriticalSection(intr);
  60              		.loc 1 138 0
  61 0022 2000     		movs	r0, r4
  62 0024 FFF7FEFF 		bl	Cy_SysLib_ExitCriticalSection
  63              	.LVL7:
  64              	.L1:
 139:cy_ipc_config.c ****     }
 140:cy_ipc_config.c **** }
  65              		.loc 1 140 0
  66              		@ sp needed
  67 0028 10BD     		pop	{r4, pc}
  68              	.L5:
  69 002a C046     		.align	2
  70              	.L4:
  71 002c 01018800 		.word	8913153
  72              		.cfi_endproc
  73              	.LFE144:
  74              		.size	Cy_Flash_NotifyHandler, .-Cy_Flash_NotifyHandler
  75              		.section	.text.NvicMux1_IRQHandler,"ax",%progbits
  76              		.align	2
  77              		.global	NvicMux1_IRQHandler
  78              		.code	16
  79              		.thumb_func
  80              		.type	NvicMux1_IRQHandler, %function
  81              	NvicMux1_IRQHandler:
  82              	.LFB143:
 104:cy_ipc_config.c ****     Cy_IPC_Pipe_ExecCallback(&cy_ipc_pipe_sysEpArray[CY_IPC_EP_CYPIPE_ADDR]);
  83              		.loc 1 104 0
  84              		.cfi_startproc
  85              		@ args = 0, pretend = 0, frame = 0
  86              		@ frame_needed = 0, uses_anonymous_args = 0
  87 0000 10B5     		push	{r4, lr}
ARM GAS  C:\Users\kiwamu\AppData\Local\Temp\ccwiAToj.s 			page 5


  88              		.cfi_def_cfa_offset 8
  89              		.cfi_offset 4, -8
  90              		.cfi_offset 14, -4
 105:cy_ipc_config.c **** }
  91              		.loc 1 105 0
  92 0002 0248     		ldr	r0, .L7
  93 0004 FFF7FEFF 		bl	Cy_IPC_Pipe_ExecCallback
  94              	.LVL8:
 106:cy_ipc_config.c **** 
  95              		.loc 1 106 0
  96              		@ sp needed
  97 0008 10BD     		pop	{r4, pc}
  98              	.L8:
  99 000a C046     		.align	2
 100              	.L7:
 101 000c 00000000 		.word	.LANCHOR0
 102              		.cfi_endproc
 103              	.LFE143:
 104              		.size	NvicMux1_IRQHandler, .-NvicMux1_IRQHandler
 105              		.section	.text.Cy_IPC_SystemSemaInit,"ax",%progbits
 106              		.align	2
 107              		.global	Cy_IPC_SystemSemaInit
 108              		.code	16
 109              		.thumb_func
 110              		.type	Cy_IPC_SystemSemaInit, %function
 111              	Cy_IPC_SystemSemaInit:
 112              	.LFB141:
  59:cy_ipc_config.c **** /* Create array used for semaphores */
 113              		.loc 1 59 0
 114              		.cfi_startproc
 115              		@ args = 0, pretend = 0, frame = 0
 116              		@ frame_needed = 0, uses_anonymous_args = 0
 117 0000 10B5     		push	{r4, lr}
 118              		.cfi_def_cfa_offset 8
 119              		.cfi_offset 4, -8
 120              		.cfi_offset 14, -4
  65:cy_ipc_config.c **** #endif
 121              		.loc 1 65 0
 122 0002 034A     		ldr	r2, .L10
 123 0004 6032     		adds	r2, r2, #96
 124 0006 8021     		movs	r1, #128
 125 0008 0420     		movs	r0, #4
 126 000a FFF7FEFF 		bl	Cy_IPC_Sema_Init
 127              	.LVL9:
  67:cy_ipc_config.c **** 
 128              		.loc 1 67 0
 129              		@ sp needed
 130 000e 10BD     		pop	{r4, pc}
 131              	.L11:
 132              		.align	2
 133              	.L10:
 134 0010 00010000 		.word	.LANCHOR1
 135              		.cfi_endproc
 136              	.LFE141:
 137              		.size	Cy_IPC_SystemSemaInit, .-Cy_IPC_SystemSemaInit
 138              		.section	.text.Cy_IPC_SystemPipeInit,"ax",%progbits
 139              		.align	2
ARM GAS  C:\Users\kiwamu\AppData\Local\Temp\ccwiAToj.s 			page 6


 140              		.global	Cy_IPC_SystemPipeInit
 141              		.code	16
 142              		.thumb_func
 143              		.type	Cy_IPC_SystemPipeInit, %function
 144              	Cy_IPC_SystemPipeInit:
 145              	.LFB142:
  78:cy_ipc_config.c ****     uint32_t intr;
 146              		.loc 1 78 0
 147              		.cfi_startproc
 148              		@ args = 0, pretend = 0, frame = 0
 149              		@ frame_needed = 0, uses_anonymous_args = 0
 150 0000 10B5     		push	{r4, lr}
 151              		.cfi_def_cfa_offset 8
 152              		.cfi_offset 4, -8
 153              		.cfi_offset 14, -4
  81:cy_ipc_config.c **** 
 154              		.loc 1 81 0
 155 0002 FFF7FEFF 		bl	Cy_SysLib_EnterCriticalSection
 156              	.LVL10:
 157 0006 0400     		movs	r4, r0
 158              	.LVL11:
  87:cy_ipc_config.c **** 
 159              		.loc 1 87 0
 160 0008 0748     		ldr	r0, .L13
 161              	.LVL12:
 162 000a FFF7FEFF 		bl	Cy_IPC_Pipe_Config
 163              	.LVL13:
  89:cy_ipc_config.c **** 
 164              		.loc 1 89 0
 165 000e 0748     		ldr	r0, .L13+4
 166 0010 FFF7FEFF 		bl	Cy_IPC_Pipe_Init
 167              	.LVL14:
  91:cy_ipc_config.c **** 
 168              		.loc 1 91 0
 169 0014 0222     		movs	r2, #2
 170 0016 0649     		ldr	r1, .L13+8
 171 0018 0020     		movs	r0, #0
 172 001a FFF7FEFF 		bl	Cy_IPC_Pipe_RegisterCallback
 173              	.LVL15:
  93:cy_ipc_config.c **** }
 174              		.loc 1 93 0
 175 001e 2000     		movs	r0, r4
 176 0020 FFF7FEFF 		bl	Cy_SysLib_ExitCriticalSection
 177              	.LVL16:
  94:cy_ipc_config.c **** 
 178              		.loc 1 94 0
 179              		@ sp needed
 180              	.LVL17:
 181 0024 10BD     		pop	{r4, pc}
 182              	.L14:
 183 0026 C046     		.align	2
 184              	.L13:
 185 0028 00000000 		.word	.LANCHOR0
 186 002c 00000000 		.word	.LANCHOR2
 187 0030 00000000 		.word	Cy_Flash_NotifyHandler
 188              		.cfi_endproc
 189              	.LFE142:
ARM GAS  C:\Users\kiwamu\AppData\Local\Temp\ccwiAToj.s 			page 7


 190              		.size	Cy_IPC_SystemPipeInit, .-Cy_IPC_SystemPipeInit
 191              		.section	.rodata
 192              		.align	2
 193              		.set	.LANCHOR2,. + 0
 194              		.type	systemPipeConfig.10234, %object
 195              		.size	systemPipeConfig.10234, 52
 196              	systemPipeConfig.10234:
 197 0000 03000000 		.word	3
 198 0004 01000000 		.word	1
 199 0008 01000000 		.word	1
 200 000c 00000000 		.word	0
 201 0010 05036000 		.word	6292229
 202 0014 04000000 		.word	4
 203 0018 01000000 		.word	1
 204 001c 00000000 		.word	0
 205 0020 01000000 		.word	1
 206 0024 06046000 		.word	6292486
 207 0028 08000000 		.word	8
 208 002c 70010000 		.word	cy_ipc_pipe_sysCbArray.10233
 209 0030 00000000 		.word	NvicMux1_IRQHandler
 210              		.bss
 211              		.align	2
 212              		.set	.LANCHOR0,. + 0
 213              		.set	.LANCHOR1,. + 256
 214              		.type	cy_ipc_pipe_sysEpArray, %object
 215              		.size	cy_ipc_pipe_sysEpArray, 352
 216              	cy_ipc_pipe_sysEpArray:
 217 0000 00000000 		.space	352
 217      00000000 
 217      00000000 
 217      00000000 
 217      00000000 
 218              		.type	ipcSemaArray.10228, %object
 219              		.size	ipcSemaArray.10228, 16
 220              	ipcSemaArray.10228:
 221 0160 00000000 		.space	16
 221      00000000 
 221      00000000 
 221      00000000 
 222              		.type	cy_ipc_pipe_sysCbArray.10233, %object
 223              		.size	cy_ipc_pipe_sysCbArray.10233, 32
 224              	cy_ipc_pipe_sysCbArray.10233:
 225 0170 00000000 		.space	32
 225      00000000 
 225      00000000 
 225      00000000 
 225      00000000 
 226              		.text
 227              	.Letext0:
 228              		.file 2 "Generated_Source\\PSoC6\\pdl\\devices/psoc6/psoc63/include/cy8c6347bzi_bld53.h"
 229              		.file 3 "c:\\program files (x86)\\cypress\\psoc creator\\4.2\\psoc creator\\import\\gnu\\arm\\5.4.
 230              		.file 4 "c:\\program files (x86)\\cypress\\psoc creator\\4.2\\psoc creator\\import\\gnu\\arm\\5.4.
 231              		.file 5 "Generated_Source\\PSoC6\\pdl\\devices/psoc6/ip/cyip_ipc.h"
 232              		.file 6 "Generated_Source\\PSoC6\\pdl\\drivers/peripheral/syslib/cy_syslib.h"
 233              		.file 7 "Generated_Source\\PSoC6\\pdl\\drivers/peripheral/ipc/cy_ipc_sema.h"
 234              		.file 8 "Generated_Source\\PSoC6\\pdl\\drivers/peripheral/ipc/cy_ipc_pipe.h"
 235              		.file 9 "Generated_Source\\PSoC6\\pdl\\drivers/peripheral/flash/cy_flash.h"
ARM GAS  C:\Users\kiwamu\AppData\Local\Temp\ccwiAToj.s 			page 8

