ARM GAS  C:\Users\kiwamu\AppData\Local\Temp\ccj1MWYe.s 			page 1


   1              		.syntax unified
   2              		.cpu cortex-m0plus
   3              		.fpu softvfp
   4              		.eabi_attribute 20, 1
   5              		.eabi_attribute 21, 1
   6              		.eabi_attribute 23, 3
   7              		.eabi_attribute 24, 1
   8              		.eabi_attribute 25, 1
   9              		.eabi_attribute 26, 1
  10              		.eabi_attribute 30, 1
  11              		.eabi_attribute 34, 0
  12              		.eabi_attribute 18, 4
  13              		.thumb
  14              		.syntax unified
  15              		.file	"cy_prot.c"
  16              		.text
  17              	.Ltext0:
  18              		.cfi_sections	.debug_frame
  19              		.section	.text.Cy_Prot_ConfigBusMaster,"ax",%progbits
  20              		.align	2
  21              		.global	Cy_Prot_ConfigBusMaster
  22              		.code	16
  23              		.thumb_func
  24              		.type	Cy_Prot_ConfigBusMaster, %function
  25              	Cy_Prot_ConfigBusMaster:
  26              	.LFB34:
  27              		.file 1 "Generated_Source\\PSoC6\\pdl\\drivers\\peripheral\\prot\\cy_prot.c"
   1:Generated_Source\PSoC6\pdl\drivers\peripheral\prot/cy_prot.c **** /***************************************************************************//**
   2:Generated_Source\PSoC6\pdl\drivers\peripheral\prot/cy_prot.c **** * \file cy_prot.c
   3:Generated_Source\PSoC6\pdl\drivers\peripheral\prot/cy_prot.c **** * \version 1.0
   4:Generated_Source\PSoC6\pdl\drivers\peripheral\prot/cy_prot.c **** *
   5:Generated_Source\PSoC6\pdl\drivers\peripheral\prot/cy_prot.c **** * \brief
   6:Generated_Source\PSoC6\pdl\drivers\peripheral\prot/cy_prot.c **** * Provides an API implementation of the Protection Unit driver
   7:Generated_Source\PSoC6\pdl\drivers\peripheral\prot/cy_prot.c **** *
   8:Generated_Source\PSoC6\pdl\drivers\peripheral\prot/cy_prot.c **** ********************************************************************************
   9:Generated_Source\PSoC6\pdl\drivers\peripheral\prot/cy_prot.c **** * \copyright
  10:Generated_Source\PSoC6\pdl\drivers\peripheral\prot/cy_prot.c **** * Copyright 2016-2017, Cypress Semiconductor Corporation. All rights reserved.
  11:Generated_Source\PSoC6\pdl\drivers\peripheral\prot/cy_prot.c **** * You may use this file only in accordance with the license, terms, conditions,
  12:Generated_Source\PSoC6\pdl\drivers\peripheral\prot/cy_prot.c **** * disclaimers, and limitations in the end user license agreement accompanying
  13:Generated_Source\PSoC6\pdl\drivers\peripheral\prot/cy_prot.c **** * the software package with which this file was provided.
  14:Generated_Source\PSoC6\pdl\drivers\peripheral\prot/cy_prot.c **** *******************************************************************************/
  15:Generated_Source\PSoC6\pdl\drivers\peripheral\prot/cy_prot.c **** 
  16:Generated_Source\PSoC6\pdl\drivers\peripheral\prot/cy_prot.c **** #include "cy_prot.h"
  17:Generated_Source\PSoC6\pdl\drivers\peripheral\prot/cy_prot.c **** 
  18:Generated_Source\PSoC6\pdl\drivers\peripheral\prot/cy_prot.c **** #if defined(__cplusplus)
  19:Generated_Source\PSoC6\pdl\drivers\peripheral\prot/cy_prot.c **** extern "C" {
  20:Generated_Source\PSoC6\pdl\drivers\peripheral\prot/cy_prot.c **** #endif
  21:Generated_Source\PSoC6\pdl\drivers\peripheral\prot/cy_prot.c **** 
  22:Generated_Source\PSoC6\pdl\drivers\peripheral\prot/cy_prot.c **** 
  23:Generated_Source\PSoC6\pdl\drivers\peripheral\prot/cy_prot.c **** /*******************************************************************************
  24:Generated_Source\PSoC6\pdl\drivers\peripheral\prot/cy_prot.c **** * Function Name: Cy_Prot_ConfigBusMaster
  25:Generated_Source\PSoC6\pdl\drivers\peripheral\prot/cy_prot.c **** ****************************************************************************//**
  26:Generated_Source\PSoC6\pdl\drivers\peripheral\prot/cy_prot.c **** *
  27:Generated_Source\PSoC6\pdl\drivers\peripheral\prot/cy_prot.c **** * \brief Configures the allowed protection contexts, security (secure/non-secure)
  28:Generated_Source\PSoC6\pdl\drivers\peripheral\prot/cy_prot.c **** * and privilege level of the bus transaction created by the specified master. 
  29:Generated_Source\PSoC6\pdl\drivers\peripheral\prot/cy_prot.c **** *
  30:Generated_Source\PSoC6\pdl\drivers\peripheral\prot/cy_prot.c **** * \param busMaster
ARM GAS  C:\Users\kiwamu\AppData\Local\Temp\ccj1MWYe.s 			page 2


  31:Generated_Source\PSoC6\pdl\drivers\peripheral\prot/cy_prot.c **** * Indicates which master needs to be configured. Refer to the CY_PROT_MASTER_X
  32:Generated_Source\PSoC6\pdl\drivers\peripheral\prot/cy_prot.c **** * defines.
  33:Generated_Source\PSoC6\pdl\drivers\peripheral\prot/cy_prot.c **** * 
  34:Generated_Source\PSoC6\pdl\drivers\peripheral\prot/cy_prot.c **** * \param privileged
  35:Generated_Source\PSoC6\pdl\drivers\peripheral\prot/cy_prot.c **** * Boolean to define the privilege level of all subsequent bus transfers.
  36:Generated_Source\PSoC6\pdl\drivers\peripheral\prot/cy_prot.c **** * True - privileged, False - not privileged.
  37:Generated_Source\PSoC6\pdl\drivers\peripheral\prot/cy_prot.c **** * Note that this is an inherited value. If not inherited, then this bit will 
  38:Generated_Source\PSoC6\pdl\drivers\peripheral\prot/cy_prot.c **** * be used.
  39:Generated_Source\PSoC6\pdl\drivers\peripheral\prot/cy_prot.c **** *
  40:Generated_Source\PSoC6\pdl\drivers\peripheral\prot/cy_prot.c **** * \param secure
  41:Generated_Source\PSoC6\pdl\drivers\peripheral\prot/cy_prot.c **** * Security setting for the master. True - Secure, False - Not secure.
  42:Generated_Source\PSoC6\pdl\drivers\peripheral\prot/cy_prot.c **** * 
  43:Generated_Source\PSoC6\pdl\drivers\peripheral\prot/cy_prot.c **** * \param pcMask
  44:Generated_Source\PSoC6\pdl\drivers\peripheral\prot/cy_prot.c **** * This is a 16 bit value of the allowed contexts, it is an OR'ed (|) field of the
  45:Generated_Source\PSoC6\pdl\drivers\peripheral\prot/cy_prot.c **** * provided defines in cy_prot.h. For example: (PROT_PC1 | PROT_PC3 | PROT_PC4)
  46:Generated_Source\PSoC6\pdl\drivers\peripheral\prot/cy_prot.c **** * 
  47:Generated_Source\PSoC6\pdl\drivers\peripheral\prot/cy_prot.c **** * \return
  48:Generated_Source\PSoC6\pdl\drivers\peripheral\prot/cy_prot.c **** * Status of the function call.
  49:Generated_Source\PSoC6\pdl\drivers\peripheral\prot/cy_prot.c **** *
  50:Generated_Source\PSoC6\pdl\drivers\peripheral\prot/cy_prot.c **** *   Status               | Description
  51:Generated_Source\PSoC6\pdl\drivers\peripheral\prot/cy_prot.c **** *   ------------         | -----------
  52:Generated_Source\PSoC6\pdl\drivers\peripheral\prot/cy_prot.c **** *   CY_PROT_SUCCESS      | The function completed successfully
  53:Generated_Source\PSoC6\pdl\drivers\peripheral\prot/cy_prot.c **** *   CY_PROT_FAILURE      | The resource is locked
  54:Generated_Source\PSoC6\pdl\drivers\peripheral\prot/cy_prot.c **** *   CY_PROT_BAD_PARAM    | An incorrect/invalid parameter was passed
  55:Generated_Source\PSoC6\pdl\drivers\peripheral\prot/cy_prot.c **** *  
  56:Generated_Source\PSoC6\pdl\drivers\peripheral\prot/cy_prot.c **** *******************************************************************************/
  57:Generated_Source\PSoC6\pdl\drivers\peripheral\prot/cy_prot.c **** cy_en_prot_status_t Cy_Prot_ConfigBusMaster(en_prot_master_t busMaster, bool privileged, bool secur
  58:Generated_Source\PSoC6\pdl\drivers\peripheral\prot/cy_prot.c **** {
  28              		.loc 1 58 0
  29              		.cfi_startproc
  30              		@ args = 0, pretend = 0, frame = 0
  31              		@ frame_needed = 0, uses_anonymous_args = 0
  32              	.LVL0:
  33 0000 30B5     		push	{r4, r5, lr}
  34              		.cfi_def_cfa_offset 12
  35              		.cfi_offset 4, -12
  36              		.cfi_offset 5, -8
  37              		.cfi_offset 14, -4
  38              	.LVL1:
  59:Generated_Source\PSoC6\pdl\drivers\peripheral\prot/cy_prot.c ****     cy_en_prot_status_t status = CY_PROT_SUCCESS;
  60:Generated_Source\PSoC6\pdl\drivers\peripheral\prot/cy_prot.c ****     uint32_t regVal;
  61:Generated_Source\PSoC6\pdl\drivers\peripheral\prot/cy_prot.c ****     uint32_t * addrMsCtl = (uint32_t *)(PROT_BASE + (uint32_t)((uint32_t)busMaster << CY_PROT_MSX_C
  39              		.loc 1 61 0
  40 0002 8000     		lsls	r0, r0, #2
  41              	.LVL2:
  42 0004 0A4C     		ldr	r4, .L4
  43 0006 A446     		mov	ip, r4
  44 0008 6044     		add	r0, r0, ip
  45              	.LVL3:
  62:Generated_Source\PSoC6\pdl\drivers\peripheral\prot/cy_prot.c **** 
  63:Generated_Source\PSoC6\pdl\drivers\peripheral\prot/cy_prot.c ****     if((uint32_t)(pcMask & CY_PROT_MPU_PC_LIMIT_MASK) != 0UL) 
  46              		.loc 1 63 0
  47 000a 7F24     		movs	r4, #127
  48 000c 1D00     		movs	r5, r3
  49 000e A543     		bics	r5, r4
  50 0010 0BD1     		bne	.L3
  64:Generated_Source\PSoC6\pdl\drivers\peripheral\prot/cy_prot.c ****     {
ARM GAS  C:\Users\kiwamu\AppData\Local\Temp\ccj1MWYe.s 			page 3


  65:Generated_Source\PSoC6\pdl\drivers\peripheral\prot/cy_prot.c ****         /* PC mask out of range - not supported in device */
  66:Generated_Source\PSoC6\pdl\drivers\peripheral\prot/cy_prot.c ****         status = CY_PROT_BAD_PARAM;
  67:Generated_Source\PSoC6\pdl\drivers\peripheral\prot/cy_prot.c ****     }
  68:Generated_Source\PSoC6\pdl\drivers\peripheral\prot/cy_prot.c ****     else
  69:Generated_Source\PSoC6\pdl\drivers\peripheral\prot/cy_prot.c ****     {
  70:Generated_Source\PSoC6\pdl\drivers\peripheral\prot/cy_prot.c ****         regVal = _VAL2FLD(PROT_SMPU_MS0_CTL_NS, !secure)
  51              		.loc 1 70 0
  52 0012 0124     		movs	r4, #1
  53 0014 6240     		eors	r2, r4
  54              	.LVL4:
  55 0016 D2B2     		uxtb	r2, r2
  56 0018 5200     		lsls	r2, r2, #1
  57 001a 0224     		movs	r4, #2
  58 001c 2240     		ands	r2, r4
  71:Generated_Source\PSoC6\pdl\drivers\peripheral\prot/cy_prot.c ****                 | _VAL2FLD(PROT_SMPU_MS0_CTL_P, privileged)
  59              		.loc 1 71 0
  60 001e 1143     		orrs	r1, r2
  61              	.LVL5:
  72:Generated_Source\PSoC6\pdl\drivers\peripheral\prot/cy_prot.c ****                 | _VAL2FLD(PROT_SMPU_MS0_CTL_PC_MASK_15_TO_1, pcMask);
  62              		.loc 1 72 0
  63 0020 5B04     		lsls	r3, r3, #17
  64              	.LVL6:
  70:Generated_Source\PSoC6\pdl\drivers\peripheral\prot/cy_prot.c ****                 | _VAL2FLD(PROT_SMPU_MS0_CTL_P, privileged)
  65              		.loc 1 70 0
  66 0022 0B43     		orrs	r3, r1
  67              	.LVL7:
  73:Generated_Source\PSoC6\pdl\drivers\peripheral\prot/cy_prot.c ****         *addrMsCtl = regVal;
  68              		.loc 1 73 0
  69 0024 0360     		str	r3, [r0]
  74:Generated_Source\PSoC6\pdl\drivers\peripheral\prot/cy_prot.c ****         status = (*addrMsCtl != regVal) ? CY_PROT_FAILURE : CY_PROT_SUCCESS;
  70              		.loc 1 74 0
  71 0026 0020     		movs	r0, #0
  72              	.LVL8:
  73 0028 00E0     		b	.L2
  74              	.LVL9:
  75              	.L3:
  66:Generated_Source\PSoC6\pdl\drivers\peripheral\prot/cy_prot.c ****     }
  76              		.loc 1 66 0
  77 002a 0248     		ldr	r0, .L4+4
  78              	.LVL10:
  79              	.L2:
  75:Generated_Source\PSoC6\pdl\drivers\peripheral\prot/cy_prot.c ****     }
  76:Generated_Source\PSoC6\pdl\drivers\peripheral\prot/cy_prot.c ****     
  77:Generated_Source\PSoC6\pdl\drivers\peripheral\prot/cy_prot.c ****     return status;
  78:Generated_Source\PSoC6\pdl\drivers\peripheral\prot/cy_prot.c **** }
  80              		.loc 1 78 0
  81              		@ sp needed
  82 002c 30BD     		pop	{r4, r5, pc}
  83              	.L5:
  84 002e C046     		.align	2
  85              	.L4:
  86 0030 00002440 		.word	1076101120
  87 0034 0100C200 		.word	12713985
  88              		.cfi_endproc
  89              	.LFE34:
  90              		.size	Cy_Prot_ConfigBusMaster, .-Cy_Prot_ConfigBusMaster
  91              		.section	.text.Cy_Prot_SetActivePC,"ax",%progbits
ARM GAS  C:\Users\kiwamu\AppData\Local\Temp\ccj1MWYe.s 			page 4


  92              		.align	2
  93              		.global	Cy_Prot_SetActivePC
  94              		.code	16
  95              		.thumb_func
  96              		.type	Cy_Prot_SetActivePC, %function
  97              	Cy_Prot_SetActivePC:
  98              	.LFB35:
  79:Generated_Source\PSoC6\pdl\drivers\peripheral\prot/cy_prot.c **** 
  80:Generated_Source\PSoC6\pdl\drivers\peripheral\prot/cy_prot.c **** 
  81:Generated_Source\PSoC6\pdl\drivers\peripheral\prot/cy_prot.c **** /*******************************************************************************
  82:Generated_Source\PSoC6\pdl\drivers\peripheral\prot/cy_prot.c **** * Function Name: Cy_Prot_SetActivePC
  83:Generated_Source\PSoC6\pdl\drivers\peripheral\prot/cy_prot.c **** ****************************************************************************//**
  84:Generated_Source\PSoC6\pdl\drivers\peripheral\prot/cy_prot.c **** *
  85:Generated_Source\PSoC6\pdl\drivers\peripheral\prot/cy_prot.c **** * \brief Sets the current/active protection context of the specified bus master.
  86:Generated_Source\PSoC6\pdl\drivers\peripheral\prot/cy_prot.c **** * 
  87:Generated_Source\PSoC6\pdl\drivers\peripheral\prot/cy_prot.c **** * Allowed PC values are 1-15. If this value is not inherited from another bus 
  88:Generated_Source\PSoC6\pdl\drivers\peripheral\prot/cy_prot.c **** * master, the value set through this function is used.
  89:Generated_Source\PSoC6\pdl\drivers\peripheral\prot/cy_prot.c **** *
  90:Generated_Source\PSoC6\pdl\drivers\peripheral\prot/cy_prot.c **** * \param busMaster
  91:Generated_Source\PSoC6\pdl\drivers\peripheral\prot/cy_prot.c **** * The bus master to configure. Refer to the CY_PROT_MASTER_X defines.
  92:Generated_Source\PSoC6\pdl\drivers\peripheral\prot/cy_prot.c **** * 
  93:Generated_Source\PSoC6\pdl\drivers\peripheral\prot/cy_prot.c **** * \param pc
  94:Generated_Source\PSoC6\pdl\drivers\peripheral\prot/cy_prot.c **** * Active protection context of the specified master. Note that only those 
  95:Generated_Source\PSoC6\pdl\drivers\peripheral\prot/cy_prot.c **** * protection contexts allowed by the pcMask will take effect. 
  96:Generated_Source\PSoC6\pdl\drivers\peripheral\prot/cy_prot.c **** *
  97:Generated_Source\PSoC6\pdl\drivers\peripheral\prot/cy_prot.c **** * \return
  98:Generated_Source\PSoC6\pdl\drivers\peripheral\prot/cy_prot.c **** * Status of the function call.
  99:Generated_Source\PSoC6\pdl\drivers\peripheral\prot/cy_prot.c **** *
 100:Generated_Source\PSoC6\pdl\drivers\peripheral\prot/cy_prot.c **** *   Status               | Description
 101:Generated_Source\PSoC6\pdl\drivers\peripheral\prot/cy_prot.c **** *   ------------         | -----------
 102:Generated_Source\PSoC6\pdl\drivers\peripheral\prot/cy_prot.c **** *   CY_PROT_SUCCESS      | The function completed successfully
 103:Generated_Source\PSoC6\pdl\drivers\peripheral\prot/cy_prot.c **** *   CY_PROT_FAILURE      | The resource is locked
 104:Generated_Source\PSoC6\pdl\drivers\peripheral\prot/cy_prot.c **** *   CY_PROT_BAD_PARAM    | An incorrect/invalid parameter was passed
 105:Generated_Source\PSoC6\pdl\drivers\peripheral\prot/cy_prot.c **** *  
 106:Generated_Source\PSoC6\pdl\drivers\peripheral\prot/cy_prot.c **** *******************************************************************************/
 107:Generated_Source\PSoC6\pdl\drivers\peripheral\prot/cy_prot.c **** cy_en_prot_status_t Cy_Prot_SetActivePC(en_prot_master_t busMaster, uint32_t pc)
 108:Generated_Source\PSoC6\pdl\drivers\peripheral\prot/cy_prot.c **** {
  99              		.loc 1 108 0
 100              		.cfi_startproc
 101              		@ args = 0, pretend = 0, frame = 0
 102              		@ frame_needed = 0, uses_anonymous_args = 0
 103              	.LVL11:
 104 0000 30B5     		push	{r4, r5, lr}
 105              		.cfi_def_cfa_offset 12
 106              		.cfi_offset 4, -12
 107              		.cfi_offset 5, -8
 108              		.cfi_offset 14, -4
 109              	.LVL12:
 109:Generated_Source\PSoC6\pdl\drivers\peripheral\prot/cy_prot.c ****     cy_en_prot_status_t status = CY_PROT_SUCCESS;
 110:Generated_Source\PSoC6\pdl\drivers\peripheral\prot/cy_prot.c ****     PROT_MPU_Type* addrMpu = (PROT_MPU_Type*)(&PROT->CYMPU[busMaster]);
 110              		.loc 1 110 0
 111 0002 8002     		lsls	r0, r0, #10
 112              	.LVL13:
 113 0004 0B4B     		ldr	r3, .L10
 114 0006 9C46     		mov	ip, r3
 115 0008 6044     		add	r0, r0, ip
 116              	.LVL14:
ARM GAS  C:\Users\kiwamu\AppData\Local\Temp\ccj1MWYe.s 			page 5


 111:Generated_Source\PSoC6\pdl\drivers\peripheral\prot/cy_prot.c ****     
 112:Generated_Source\PSoC6\pdl\drivers\peripheral\prot/cy_prot.c ****     if(pc >= (uint32_t)CY_PROT_MS_PC_NR_MAX) 
 117              		.loc 1 112 0
 118 000a 0629     		cmp	r1, #6
 119 000c 0ED8     		bhi	.L8
 113:Generated_Source\PSoC6\pdl\drivers\peripheral\prot/cy_prot.c ****     {
 114:Generated_Source\PSoC6\pdl\drivers\peripheral\prot/cy_prot.c ****         /* Invalid PC value - not supported in device */
 115:Generated_Source\PSoC6\pdl\drivers\peripheral\prot/cy_prot.c ****         status = CY_PROT_BAD_PARAM;
 116:Generated_Source\PSoC6\pdl\drivers\peripheral\prot/cy_prot.c ****     }
 117:Generated_Source\PSoC6\pdl\drivers\peripheral\prot/cy_prot.c ****     else
 118:Generated_Source\PSoC6\pdl\drivers\peripheral\prot/cy_prot.c ****     {
 119:Generated_Source\PSoC6\pdl\drivers\peripheral\prot/cy_prot.c ****         addrMpu->MS_CTL = _VAL2FLD(PROT_MPU_MS_CTL_PC, pc) | _VAL2FLD(PROT_MPU_MS_CTL_PC_SAVED, pc)
 120              		.loc 1 119 0
 121 000e 0F24     		movs	r4, #15
 122 0010 2500     		movs	r5, r4
 123 0012 0D40     		ands	r5, r1
 124 0014 0B04     		lsls	r3, r1, #16
 125 0016 F022     		movs	r2, #240
 126 0018 1203     		lsls	r2, r2, #12
 127 001a 1340     		ands	r3, r2
 128 001c 2B43     		orrs	r3, r5
 129 001e 0360     		str	r3, [r0]
 120:Generated_Source\PSoC6\pdl\drivers\peripheral\prot/cy_prot.c ****         status = (_FLD2VAL(PROT_MPU_MS_CTL_PC, addrMpu->MS_CTL) != pc) ? CY_PROT_FAILURE : CY_PROT_
 130              		.loc 1 120 0
 131 0020 0368     		ldr	r3, [r0]
 132 0022 2340     		ands	r3, r4
 133 0024 9942     		cmp	r1, r3
 134 0026 03D0     		beq	.L9
 135 0028 0348     		ldr	r0, .L10+4
 136              	.LVL15:
 137 002a 02E0     		b	.L7
 138              	.LVL16:
 139              	.L8:
 115:Generated_Source\PSoC6\pdl\drivers\peripheral\prot/cy_prot.c ****     }
 140              		.loc 1 115 0
 141 002c 0348     		ldr	r0, .L10+8
 142              	.LVL17:
 143 002e 00E0     		b	.L7
 144              	.LVL18:
 145              	.L9:
 146              		.loc 1 120 0
 147 0030 0020     		movs	r0, #0
 148              	.LVL19:
 149              	.L7:
 121:Generated_Source\PSoC6\pdl\drivers\peripheral\prot/cy_prot.c ****     }
 122:Generated_Source\PSoC6\pdl\drivers\peripheral\prot/cy_prot.c ****     
 123:Generated_Source\PSoC6\pdl\drivers\peripheral\prot/cy_prot.c ****     return status;
 124:Generated_Source\PSoC6\pdl\drivers\peripheral\prot/cy_prot.c **** }
 150              		.loc 1 124 0
 151              		@ sp needed
 152 0032 30BD     		pop	{r4, r5, pc}
 153              	.L11:
 154              		.align	2
 155              	.L10:
 156 0034 00402440 		.word	1076117504
 157 0038 0300C200 		.word	12713987
 158 003c 0100C200 		.word	12713985
ARM GAS  C:\Users\kiwamu\AppData\Local\Temp\ccj1MWYe.s 			page 6


 159              		.cfi_endproc
 160              	.LFE35:
 161              		.size	Cy_Prot_SetActivePC, .-Cy_Prot_SetActivePC
 162              		.section	.text.Cy_Prot_GetActivePC,"ax",%progbits
 163              		.align	2
 164              		.global	Cy_Prot_GetActivePC
 165              		.code	16
 166              		.thumb_func
 167              		.type	Cy_Prot_GetActivePC, %function
 168              	Cy_Prot_GetActivePC:
 169              	.LFB36:
 125:Generated_Source\PSoC6\pdl\drivers\peripheral\prot/cy_prot.c **** 
 126:Generated_Source\PSoC6\pdl\drivers\peripheral\prot/cy_prot.c **** 
 127:Generated_Source\PSoC6\pdl\drivers\peripheral\prot/cy_prot.c **** /*******************************************************************************
 128:Generated_Source\PSoC6\pdl\drivers\peripheral\prot/cy_prot.c **** * Function Name: Cy_Prot_GetActivePC
 129:Generated_Source\PSoC6\pdl\drivers\peripheral\prot/cy_prot.c **** ****************************************************************************//**
 130:Generated_Source\PSoC6\pdl\drivers\peripheral\prot/cy_prot.c **** *
 131:Generated_Source\PSoC6\pdl\drivers\peripheral\prot/cy_prot.c **** * \brief Returns the active protection context of a master. 
 132:Generated_Source\PSoC6\pdl\drivers\peripheral\prot/cy_prot.c **** *
 133:Generated_Source\PSoC6\pdl\drivers\peripheral\prot/cy_prot.c **** * \param busMaster
 134:Generated_Source\PSoC6\pdl\drivers\peripheral\prot/cy_prot.c **** * The bus master, whose protection context is being read. Refer to the 
 135:Generated_Source\PSoC6\pdl\drivers\peripheral\prot/cy_prot.c **** * CY_PROT_MASTER_X defines.
 136:Generated_Source\PSoC6\pdl\drivers\peripheral\prot/cy_prot.c **** * 
 137:Generated_Source\PSoC6\pdl\drivers\peripheral\prot/cy_prot.c **** * \return
 138:Generated_Source\PSoC6\pdl\drivers\peripheral\prot/cy_prot.c **** * Active protection context of the master
 139:Generated_Source\PSoC6\pdl\drivers\peripheral\prot/cy_prot.c **** *  
 140:Generated_Source\PSoC6\pdl\drivers\peripheral\prot/cy_prot.c **** *******************************************************************************/
 141:Generated_Source\PSoC6\pdl\drivers\peripheral\prot/cy_prot.c **** uint32_t Cy_Prot_GetActivePC(en_prot_master_t busMaster)
 142:Generated_Source\PSoC6\pdl\drivers\peripheral\prot/cy_prot.c **** {
 170              		.loc 1 142 0
 171              		.cfi_startproc
 172              		@ args = 0, pretend = 0, frame = 0
 173              		@ frame_needed = 0, uses_anonymous_args = 0
 174              		@ link register save eliminated.
 175              	.LVL20:
 143:Generated_Source\PSoC6\pdl\drivers\peripheral\prot/cy_prot.c ****     PROT_MPU_Type* addrMpu = (PROT_MPU_Type*)(&PROT->CYMPU[busMaster]);
 176              		.loc 1 143 0
 177 0000 8002     		lsls	r0, r0, #10
 178              	.LVL21:
 179 0002 034B     		ldr	r3, .L13
 180 0004 9C46     		mov	ip, r3
 181 0006 6044     		add	r0, r0, ip
 182              	.LVL22:
 144:Generated_Source\PSoC6\pdl\drivers\peripheral\prot/cy_prot.c ****     
 145:Generated_Source\PSoC6\pdl\drivers\peripheral\prot/cy_prot.c ****     return ((uint32_t)_FLD2VAL(PROT_MPU_MS_CTL_PC, addrMpu->MS_CTL));
 183              		.loc 1 145 0
 184 0008 0368     		ldr	r3, [r0]
 185 000a 0F20     		movs	r0, #15
 186              	.LVL23:
 187 000c 1840     		ands	r0, r3
 146:Generated_Source\PSoC6\pdl\drivers\peripheral\prot/cy_prot.c **** }
 188              		.loc 1 146 0
 189              		@ sp needed
 190 000e 7047     		bx	lr
 191              	.L14:
 192              		.align	2
 193              	.L13:
ARM GAS  C:\Users\kiwamu\AppData\Local\Temp\ccj1MWYe.s 			page 7


 194 0010 00402440 		.word	1076117504
 195              		.cfi_endproc
 196              	.LFE36:
 197              		.size	Cy_Prot_GetActivePC, .-Cy_Prot_GetActivePC
 198              		.section	.text.Cy_Prot_ConfigMpuStruct,"ax",%progbits
 199              		.align	2
 200              		.global	Cy_Prot_ConfigMpuStruct
 201              		.code	16
 202              		.thumb_func
 203              		.type	Cy_Prot_ConfigMpuStruct, %function
 204              	Cy_Prot_ConfigMpuStruct:
 205              	.LFB37:
 147:Generated_Source\PSoC6\pdl\drivers\peripheral\prot/cy_prot.c **** 
 148:Generated_Source\PSoC6\pdl\drivers\peripheral\prot/cy_prot.c **** 
 149:Generated_Source\PSoC6\pdl\drivers\peripheral\prot/cy_prot.c **** /*******************************************************************************
 150:Generated_Source\PSoC6\pdl\drivers\peripheral\prot/cy_prot.c **** * Function Name: Cy_Prot_ConfigMpuStruct
 151:Generated_Source\PSoC6\pdl\drivers\peripheral\prot/cy_prot.c **** ****************************************************************************//**
 152:Generated_Source\PSoC6\pdl\drivers\peripheral\prot/cy_prot.c **** *
 153:Generated_Source\PSoC6\pdl\drivers\peripheral\prot/cy_prot.c **** * \brief This function configures a memory protection unit (MPU) struct with its 
 154:Generated_Source\PSoC6\pdl\drivers\peripheral\prot/cy_prot.c **** * protection attributes. 
 155:Generated_Source\PSoC6\pdl\drivers\peripheral\prot/cy_prot.c **** *
 156:Generated_Source\PSoC6\pdl\drivers\peripheral\prot/cy_prot.c **** * The protection structs act like the gatekeepers for a master's accesses to
 157:Generated_Source\PSoC6\pdl\drivers\peripheral\prot/cy_prot.c **** * memory, allowing only the permitted transactions to go through.
 158:Generated_Source\PSoC6\pdl\drivers\peripheral\prot/cy_prot.c **** *
 159:Generated_Source\PSoC6\pdl\drivers\peripheral\prot/cy_prot.c **** * \param base
 160:Generated_Source\PSoC6\pdl\drivers\peripheral\prot/cy_prot.c **** * The base address for the MPU struct being configured. 
 161:Generated_Source\PSoC6\pdl\drivers\peripheral\prot/cy_prot.c **** * 
 162:Generated_Source\PSoC6\pdl\drivers\peripheral\prot/cy_prot.c **** * \param config
 163:Generated_Source\PSoC6\pdl\drivers\peripheral\prot/cy_prot.c **** * Initialization structure containing all the protection attributes.
 164:Generated_Source\PSoC6\pdl\drivers\peripheral\prot/cy_prot.c **** * 
 165:Generated_Source\PSoC6\pdl\drivers\peripheral\prot/cy_prot.c **** * \return
 166:Generated_Source\PSoC6\pdl\drivers\peripheral\prot/cy_prot.c **** * Status of the function call.
 167:Generated_Source\PSoC6\pdl\drivers\peripheral\prot/cy_prot.c **** *
 168:Generated_Source\PSoC6\pdl\drivers\peripheral\prot/cy_prot.c **** *   Status               | Description
 169:Generated_Source\PSoC6\pdl\drivers\peripheral\prot/cy_prot.c **** *   ------------         | -----------
 170:Generated_Source\PSoC6\pdl\drivers\peripheral\prot/cy_prot.c **** *   CY_PROT_SUCCESS      | The MPU struct was configured
 171:Generated_Source\PSoC6\pdl\drivers\peripheral\prot/cy_prot.c **** *   CY_PROT_FAILURE      | Configuration failed due to a protection violation
 172:Generated_Source\PSoC6\pdl\drivers\peripheral\prot/cy_prot.c **** *  
 173:Generated_Source\PSoC6\pdl\drivers\peripheral\prot/cy_prot.c **** *******************************************************************************/
 174:Generated_Source\PSoC6\pdl\drivers\peripheral\prot/cy_prot.c **** cy_en_prot_status_t Cy_Prot_ConfigMpuStruct(PROT_MPU_MPU_STRUCT_Type* base, const cy_stc_mpu_cfg_t*
 175:Generated_Source\PSoC6\pdl\drivers\peripheral\prot/cy_prot.c **** {
 206              		.loc 1 175 0
 207              		.cfi_startproc
 208              		@ args = 0, pretend = 0, frame = 0
 209              		@ frame_needed = 0, uses_anonymous_args = 0
 210              	.LVL24:
 211 0000 70B5     		push	{r4, r5, r6, lr}
 212              		.cfi_def_cfa_offset 16
 213              		.cfi_offset 4, -16
 214              		.cfi_offset 5, -12
 215              		.cfi_offset 6, -8
 216              		.cfi_offset 14, -4
 217              	.LVL25:
 176:Generated_Source\PSoC6\pdl\drivers\peripheral\prot/cy_prot.c ****     cy_en_prot_status_t status = CY_PROT_SUCCESS;
 177:Generated_Source\PSoC6\pdl\drivers\peripheral\prot/cy_prot.c ****     uint32_t addrReg;
 178:Generated_Source\PSoC6\pdl\drivers\peripheral\prot/cy_prot.c ****     uint32_t attReg;
 179:Generated_Source\PSoC6\pdl\drivers\peripheral\prot/cy_prot.c ****     
ARM GAS  C:\Users\kiwamu\AppData\Local\Temp\ccj1MWYe.s 			page 8


 180:Generated_Source\PSoC6\pdl\drivers\peripheral\prot/cy_prot.c ****     addrReg = _VAL2FLD(PROT_MPU_MPU_STRUCT_ADDR_SUBREGION_DISABLE, config->subregions)
 218              		.loc 1 180 0
 219 0002 4D79     		ldrb	r5, [r1, #5]
 181:Generated_Source\PSoC6\pdl\drivers\peripheral\prot/cy_prot.c ****               | _VAL2FLD(PROT_MPU_MPU_STRUCT_ADDR_ADDR24, (uint32_t)((uint32_t)config->address >> C
 220              		.loc 1 181 0
 221 0004 FF23     		movs	r3, #255
 222 0006 0A68     		ldr	r2, [r1]
 223 0008 9A43     		bics	r2, r3
 180:Generated_Source\PSoC6\pdl\drivers\peripheral\prot/cy_prot.c ****               | _VAL2FLD(PROT_MPU_MPU_STRUCT_ADDR_ADDR24, (uint32_t)((uint32_t)config->address >> C
 224              		.loc 1 180 0
 225 000a 1543     		orrs	r5, r2
 226              	.LVL26:
 182:Generated_Source\PSoC6\pdl\drivers\peripheral\prot/cy_prot.c ****     attReg  = ((uint32_t)config->userPermission & CY_PROT_ATT_PERMISSION_MASK)
 227              		.loc 1 182 0
 228 000c 8B79     		ldrb	r3, [r1, #6]
 229 000e 0724     		movs	r4, #7
 230 0010 1C40     		ands	r4, r3
 183:Generated_Source\PSoC6\pdl\drivers\peripheral\prot/cy_prot.c ****               | (((uint32_t)config->privPermission & CY_PROT_ATT_PERMISSION_MASK) << CY_PROT_ATT_PR
 231              		.loc 1 183 0
 232 0012 CA79     		ldrb	r2, [r1, #7]
 233 0014 D200     		lsls	r2, r2, #3
 234 0016 3823     		movs	r3, #56
 235 0018 1340     		ands	r3, r2
 236 001a 1C43     		orrs	r4, r3
 184:Generated_Source\PSoC6\pdl\drivers\peripheral\prot/cy_prot.c ****               | _VAL2FLD(PROT_MPU_MPU_STRUCT_ATT_NS, !(config->secure))
 237              		.loc 1 184 0
 238 001c 0B7A     		ldrb	r3, [r1, #8]
 239 001e 0122     		movs	r2, #1
 240 0020 5A40     		eors	r2, r3
 241 0022 D2B2     		uxtb	r2, r2
 242 0024 9201     		lsls	r2, r2, #6
 243 0026 4023     		movs	r3, #64
 244 0028 1A40     		ands	r2, r3
 245 002a 2300     		movs	r3, r4
 246 002c 1343     		orrs	r3, r2
 185:Generated_Source\PSoC6\pdl\drivers\peripheral\prot/cy_prot.c ****               | _VAL2FLD(PROT_MPU_MPU_STRUCT_ATT_REGION_SIZE, config->regionSize);
 247              		.loc 1 185 0
 248 002e 0A79     		ldrb	r2, [r1, #4]
 249 0030 1206     		lsls	r2, r2, #24
 250 0032 F821     		movs	r1, #248
 251              	.LVL27:
 252 0034 4905     		lsls	r1, r1, #21
 253 0036 0A40     		ands	r2, r1
 182:Generated_Source\PSoC6\pdl\drivers\peripheral\prot/cy_prot.c ****               | (((uint32_t)config->privPermission & CY_PROT_ATT_PERMISSION_MASK) << CY_PROT_ATT_PR
 254              		.loc 1 182 0
 255 0038 1343     		orrs	r3, r2
 256              	.LVL28:
 186:Generated_Source\PSoC6\pdl\drivers\peripheral\prot/cy_prot.c ****     base->ATT = attReg;
 257              		.loc 1 186 0
 258 003a 4360     		str	r3, [r0, #4]
 187:Generated_Source\PSoC6\pdl\drivers\peripheral\prot/cy_prot.c ****     base->ADDR = addrReg;
 259              		.loc 1 187 0
 260 003c 0560     		str	r5, [r0]
 188:Generated_Source\PSoC6\pdl\drivers\peripheral\prot/cy_prot.c ****     status = ((base->ADDR != addrReg) || (base->ATT != attReg)) ? CY_PROT_FAILURE : CY_PROT_SUCCESS
 261              		.loc 1 188 0
 262 003e 0268     		ldr	r2, [r0]
 263 0040 9542     		cmp	r5, r2
ARM GAS  C:\Users\kiwamu\AppData\Local\Temp\ccj1MWYe.s 			page 9


 264 0042 04D1     		bne	.L17
 265              		.loc 1 188 0 is_stmt 0 discriminator 2
 266 0044 4268     		ldr	r2, [r0, #4]
 267 0046 9342     		cmp	r3, r2
 268 0048 03D0     		beq	.L18
 269              		.loc 1 188 0
 270 004a 0348     		ldr	r0, .L19
 271              	.LVL29:
 272 004c 02E0     		b	.L16
 273              	.LVL30:
 274              	.L17:
 275 004e 0248     		ldr	r0, .L19
 276              	.LVL31:
 277 0050 00E0     		b	.L16
 278              	.LVL32:
 279              	.L18:
 280 0052 0020     		movs	r0, #0
 281              	.LVL33:
 282              	.L16:
 189:Generated_Source\PSoC6\pdl\drivers\peripheral\prot/cy_prot.c ****     
 190:Generated_Source\PSoC6\pdl\drivers\peripheral\prot/cy_prot.c ****     return status;
 191:Generated_Source\PSoC6\pdl\drivers\peripheral\prot/cy_prot.c **** }
 283              		.loc 1 191 0 is_stmt 1 discriminator 6
 284              		@ sp needed
 285              	.LVL34:
 286 0054 70BD     		pop	{r4, r5, r6, pc}
 287              	.L20:
 288 0056 C046     		.align	2
 289              	.L19:
 290 0058 0300C200 		.word	12713987
 291              		.cfi_endproc
 292              	.LFE37:
 293              		.size	Cy_Prot_ConfigMpuStruct, .-Cy_Prot_ConfigMpuStruct
 294              		.section	.text.Cy_Prot_EnableMpuStruct,"ax",%progbits
 295              		.align	2
 296              		.global	Cy_Prot_EnableMpuStruct
 297              		.code	16
 298              		.thumb_func
 299              		.type	Cy_Prot_EnableMpuStruct, %function
 300              	Cy_Prot_EnableMpuStruct:
 301              	.LFB38:
 192:Generated_Source\PSoC6\pdl\drivers\peripheral\prot/cy_prot.c **** 
 193:Generated_Source\PSoC6\pdl\drivers\peripheral\prot/cy_prot.c **** 
 194:Generated_Source\PSoC6\pdl\drivers\peripheral\prot/cy_prot.c **** /*******************************************************************************
 195:Generated_Source\PSoC6\pdl\drivers\peripheral\prot/cy_prot.c **** * Function Name: Cy_Prot_EnableMpuStruct
 196:Generated_Source\PSoC6\pdl\drivers\peripheral\prot/cy_prot.c **** ****************************************************************************//**
 197:Generated_Source\PSoC6\pdl\drivers\peripheral\prot/cy_prot.c **** *
 198:Generated_Source\PSoC6\pdl\drivers\peripheral\prot/cy_prot.c **** * \brief Enables the MPU struct, which allows the MPU protection attributes to 
 199:Generated_Source\PSoC6\pdl\drivers\peripheral\prot/cy_prot.c **** * take effect. 
 200:Generated_Source\PSoC6\pdl\drivers\peripheral\prot/cy_prot.c **** *
 201:Generated_Source\PSoC6\pdl\drivers\peripheral\prot/cy_prot.c **** * \param base
 202:Generated_Source\PSoC6\pdl\drivers\peripheral\prot/cy_prot.c **** * The base address of the MPU struct being configured. 
 203:Generated_Source\PSoC6\pdl\drivers\peripheral\prot/cy_prot.c **** *
 204:Generated_Source\PSoC6\pdl\drivers\peripheral\prot/cy_prot.c **** * \return
 205:Generated_Source\PSoC6\pdl\drivers\peripheral\prot/cy_prot.c **** * Status of the function call.
 206:Generated_Source\PSoC6\pdl\drivers\peripheral\prot/cy_prot.c **** *
 207:Generated_Source\PSoC6\pdl\drivers\peripheral\prot/cy_prot.c **** *   Status               | Description
ARM GAS  C:\Users\kiwamu\AppData\Local\Temp\ccj1MWYe.s 			page 10


 208:Generated_Source\PSoC6\pdl\drivers\peripheral\prot/cy_prot.c **** *   ------------         | -----------
 209:Generated_Source\PSoC6\pdl\drivers\peripheral\prot/cy_prot.c **** *   CY_PROT_SUCCESS      | The MPU struct was enabled
 210:Generated_Source\PSoC6\pdl\drivers\peripheral\prot/cy_prot.c **** *   CY_PROT_FAILURE      | The MPU struct is disabled and possibly locked
 211:Generated_Source\PSoC6\pdl\drivers\peripheral\prot/cy_prot.c **** *  
 212:Generated_Source\PSoC6\pdl\drivers\peripheral\prot/cy_prot.c **** *******************************************************************************/
 213:Generated_Source\PSoC6\pdl\drivers\peripheral\prot/cy_prot.c **** cy_en_prot_status_t Cy_Prot_EnableMpuStruct(PROT_MPU_MPU_STRUCT_Type* base)
 214:Generated_Source\PSoC6\pdl\drivers\peripheral\prot/cy_prot.c **** {
 302              		.loc 1 214 0
 303              		.cfi_startproc
 304              		@ args = 0, pretend = 0, frame = 0
 305              		@ frame_needed = 0, uses_anonymous_args = 0
 306              		@ link register save eliminated.
 307              	.LVL35:
 215:Generated_Source\PSoC6\pdl\drivers\peripheral\prot/cy_prot.c ****     cy_en_prot_status_t status = CY_PROT_SUCCESS;
 216:Generated_Source\PSoC6\pdl\drivers\peripheral\prot/cy_prot.c ****     
 217:Generated_Source\PSoC6\pdl\drivers\peripheral\prot/cy_prot.c ****     base->ATT |= _VAL2FLD(PROT_MPU_MPU_STRUCT_ATT_ENABLED, CY_PROT_STRUCT_ENABLE);
 308              		.loc 1 217 0
 309 0000 4368     		ldr	r3, [r0, #4]
 310 0002 8022     		movs	r2, #128
 311 0004 1206     		lsls	r2, r2, #24
 312 0006 1343     		orrs	r3, r2
 313 0008 4360     		str	r3, [r0, #4]
 218:Generated_Source\PSoC6\pdl\drivers\peripheral\prot/cy_prot.c ****     status = (_FLD2VAL(PROT_MPU_MPU_STRUCT_ATT_ENABLED, base->ATT) != CY_PROT_STRUCT_ENABLE) ?
 314              		.loc 1 218 0
 315 000a 4368     		ldr	r3, [r0, #4]
 316 000c 002B     		cmp	r3, #0
 317 000e 01DB     		blt	.L23
 318 0010 0148     		ldr	r0, .L24
 319              	.LVL36:
 320 0012 00E0     		b	.L22
 321              	.LVL37:
 322              	.L23:
 323 0014 0020     		movs	r0, #0
 324              	.LVL38:
 325              	.L22:
 219:Generated_Source\PSoC6\pdl\drivers\peripheral\prot/cy_prot.c ****                 CY_PROT_FAILURE : CY_PROT_SUCCESS;
 220:Generated_Source\PSoC6\pdl\drivers\peripheral\prot/cy_prot.c ****     
 221:Generated_Source\PSoC6\pdl\drivers\peripheral\prot/cy_prot.c ****     return status;
 222:Generated_Source\PSoC6\pdl\drivers\peripheral\prot/cy_prot.c **** }
 326              		.loc 1 222 0 discriminator 4
 327              		@ sp needed
 328 0016 7047     		bx	lr
 329              	.L25:
 330              		.align	2
 331              	.L24:
 332 0018 0300C200 		.word	12713987
 333              		.cfi_endproc
 334              	.LFE38:
 335              		.size	Cy_Prot_EnableMpuStruct, .-Cy_Prot_EnableMpuStruct
 336              		.section	.text.Cy_Prot_DisableMpuStruct,"ax",%progbits
 337              		.align	2
 338              		.global	Cy_Prot_DisableMpuStruct
 339              		.code	16
 340              		.thumb_func
 341              		.type	Cy_Prot_DisableMpuStruct, %function
 342              	Cy_Prot_DisableMpuStruct:
 343              	.LFB39:
ARM GAS  C:\Users\kiwamu\AppData\Local\Temp\ccj1MWYe.s 			page 11


 223:Generated_Source\PSoC6\pdl\drivers\peripheral\prot/cy_prot.c **** 
 224:Generated_Source\PSoC6\pdl\drivers\peripheral\prot/cy_prot.c **** 
 225:Generated_Source\PSoC6\pdl\drivers\peripheral\prot/cy_prot.c **** /*******************************************************************************
 226:Generated_Source\PSoC6\pdl\drivers\peripheral\prot/cy_prot.c **** * Function Name: Cy_Prot_DisableMpuStruct
 227:Generated_Source\PSoC6\pdl\drivers\peripheral\prot/cy_prot.c **** ****************************************************************************//**
 228:Generated_Source\PSoC6\pdl\drivers\peripheral\prot/cy_prot.c **** *
 229:Generated_Source\PSoC6\pdl\drivers\peripheral\prot/cy_prot.c **** * \brief Disbles the MPU struct, which prevents the MPU protection attributes
 230:Generated_Source\PSoC6\pdl\drivers\peripheral\prot/cy_prot.c **** * from taking effect.
 231:Generated_Source\PSoC6\pdl\drivers\peripheral\prot/cy_prot.c **** *
 232:Generated_Source\PSoC6\pdl\drivers\peripheral\prot/cy_prot.c **** * \param base
 233:Generated_Source\PSoC6\pdl\drivers\peripheral\prot/cy_prot.c **** * The base address of the MPU struct being configured. 
 234:Generated_Source\PSoC6\pdl\drivers\peripheral\prot/cy_prot.c **** *
 235:Generated_Source\PSoC6\pdl\drivers\peripheral\prot/cy_prot.c **** * \return
 236:Generated_Source\PSoC6\pdl\drivers\peripheral\prot/cy_prot.c **** * Status of the function call.
 237:Generated_Source\PSoC6\pdl\drivers\peripheral\prot/cy_prot.c **** *
 238:Generated_Source\PSoC6\pdl\drivers\peripheral\prot/cy_prot.c **** *   Status               | Description
 239:Generated_Source\PSoC6\pdl\drivers\peripheral\prot/cy_prot.c **** *   ------------         | -----------
 240:Generated_Source\PSoC6\pdl\drivers\peripheral\prot/cy_prot.c **** *   CY_PROT_SUCCESS      | The MPU struct was disabled
 241:Generated_Source\PSoC6\pdl\drivers\peripheral\prot/cy_prot.c **** *   CY_PROT_FAILURE      | The MPU struct is enabled and possibly locked
 242:Generated_Source\PSoC6\pdl\drivers\peripheral\prot/cy_prot.c **** *  
 243:Generated_Source\PSoC6\pdl\drivers\peripheral\prot/cy_prot.c **** *******************************************************************************/
 244:Generated_Source\PSoC6\pdl\drivers\peripheral\prot/cy_prot.c **** cy_en_prot_status_t Cy_Prot_DisableMpuStruct(PROT_MPU_MPU_STRUCT_Type* base)
 245:Generated_Source\PSoC6\pdl\drivers\peripheral\prot/cy_prot.c **** {
 344              		.loc 1 245 0
 345              		.cfi_startproc
 346              		@ args = 0, pretend = 0, frame = 0
 347              		@ frame_needed = 0, uses_anonymous_args = 0
 348              		@ link register save eliminated.
 349              	.LVL39:
 246:Generated_Source\PSoC6\pdl\drivers\peripheral\prot/cy_prot.c ****     cy_en_prot_status_t status = CY_PROT_SUCCESS;
 247:Generated_Source\PSoC6\pdl\drivers\peripheral\prot/cy_prot.c ****     
 248:Generated_Source\PSoC6\pdl\drivers\peripheral\prot/cy_prot.c ****     base->ATT &= ~_VAL2FLD(PROT_MPU_MPU_STRUCT_ATT_ENABLED, CY_PROT_STRUCT_ENABLE);
 350              		.loc 1 248 0
 351 0000 4368     		ldr	r3, [r0, #4]
 352 0002 5B00     		lsls	r3, r3, #1
 353 0004 5B08     		lsrs	r3, r3, #1
 354 0006 4360     		str	r3, [r0, #4]
 249:Generated_Source\PSoC6\pdl\drivers\peripheral\prot/cy_prot.c ****     status = (_FLD2VAL(PROT_MPU_MPU_STRUCT_ATT_ENABLED, base->ATT) == CY_PROT_STRUCT_ENABLE) ?
 355              		.loc 1 249 0
 356 0008 4368     		ldr	r3, [r0, #4]
 357 000a 002B     		cmp	r3, #0
 358 000c 01DA     		bge	.L28
 359 000e 0248     		ldr	r0, .L29
 360              	.LVL40:
 361 0010 00E0     		b	.L27
 362              	.LVL41:
 363              	.L28:
 364 0012 0020     		movs	r0, #0
 365              	.LVL42:
 366              	.L27:
 250:Generated_Source\PSoC6\pdl\drivers\peripheral\prot/cy_prot.c ****             CY_PROT_FAILURE : CY_PROT_SUCCESS;
 251:Generated_Source\PSoC6\pdl\drivers\peripheral\prot/cy_prot.c ****     
 252:Generated_Source\PSoC6\pdl\drivers\peripheral\prot/cy_prot.c ****     return status;
 253:Generated_Source\PSoC6\pdl\drivers\peripheral\prot/cy_prot.c **** }
 367              		.loc 1 253 0 discriminator 4
 368              		@ sp needed
 369 0014 7047     		bx	lr
ARM GAS  C:\Users\kiwamu\AppData\Local\Temp\ccj1MWYe.s 			page 12


 370              	.L30:
 371 0016 C046     		.align	2
 372              	.L29:
 373 0018 0300C200 		.word	12713987
 374              		.cfi_endproc
 375              	.LFE39:
 376              		.size	Cy_Prot_DisableMpuStruct, .-Cy_Prot_DisableMpuStruct
 377              		.section	.text.Cy_Prot_ConfigSmpuMasterStruct,"ax",%progbits
 378              		.align	2
 379              		.global	Cy_Prot_ConfigSmpuMasterStruct
 380              		.code	16
 381              		.thumb_func
 382              		.type	Cy_Prot_ConfigSmpuMasterStruct, %function
 383              	Cy_Prot_ConfigSmpuMasterStruct:
 384              	.LFB40:
 254:Generated_Source\PSoC6\pdl\drivers\peripheral\prot/cy_prot.c **** 
 255:Generated_Source\PSoC6\pdl\drivers\peripheral\prot/cy_prot.c **** 
 256:Generated_Source\PSoC6\pdl\drivers\peripheral\prot/cy_prot.c **** /*******************************************************************************
 257:Generated_Source\PSoC6\pdl\drivers\peripheral\prot/cy_prot.c **** * Function Name: Cy_Prot_ConfigSmpuMasterStruct
 258:Generated_Source\PSoC6\pdl\drivers\peripheral\prot/cy_prot.c **** ****************************************************************************//**
 259:Generated_Source\PSoC6\pdl\drivers\peripheral\prot/cy_prot.c **** *
 260:Generated_Source\PSoC6\pdl\drivers\peripheral\prot/cy_prot.c **** * \brief Configures a Shared Memory Protection Unit (SMPU) master protection 
 261:Generated_Source\PSoC6\pdl\drivers\peripheral\prot/cy_prot.c **** * struct with its protection attributes. 
 262:Generated_Source\PSoC6\pdl\drivers\peripheral\prot/cy_prot.c **** *
 263:Generated_Source\PSoC6\pdl\drivers\peripheral\prot/cy_prot.c **** * This function configures the master struct governing the corresponding slave
 264:Generated_Source\PSoC6\pdl\drivers\peripheral\prot/cy_prot.c **** * struct pair. It is a mechanism to protect the slave SMPU struct. Since the
 265:Generated_Source\PSoC6\pdl\drivers\peripheral\prot/cy_prot.c **** * memory location of the slave struct is known, the address, regionSize and
 266:Generated_Source\PSoC6\pdl\drivers\peripheral\prot/cy_prot.c **** * subregions of the configuration struct are not applicable.
 267:Generated_Source\PSoC6\pdl\drivers\peripheral\prot/cy_prot.c **** *
 268:Generated_Source\PSoC6\pdl\drivers\peripheral\prot/cy_prot.c **** * Note that only the user/privileged write permissions are configurable. The 
 269:Generated_Source\PSoC6\pdl\drivers\peripheral\prot/cy_prot.c **** * read and execute permissions are read-only and cannot be configured.
 270:Generated_Source\PSoC6\pdl\drivers\peripheral\prot/cy_prot.c **** *
 271:Generated_Source\PSoC6\pdl\drivers\peripheral\prot/cy_prot.c **** * \param base
 272:Generated_Source\PSoC6\pdl\drivers\peripheral\prot/cy_prot.c **** * The register base address of the protection struct being configured.
 273:Generated_Source\PSoC6\pdl\drivers\peripheral\prot/cy_prot.c **** * 
 274:Generated_Source\PSoC6\pdl\drivers\peripheral\prot/cy_prot.c **** * \param config
 275:Generated_Source\PSoC6\pdl\drivers\peripheral\prot/cy_prot.c **** * Initialization structure with all the protection attributes.
 276:Generated_Source\PSoC6\pdl\drivers\peripheral\prot/cy_prot.c **** * 
 277:Generated_Source\PSoC6\pdl\drivers\peripheral\prot/cy_prot.c **** * \return
 278:Generated_Source\PSoC6\pdl\drivers\peripheral\prot/cy_prot.c **** * Status of the function call.
 279:Generated_Source\PSoC6\pdl\drivers\peripheral\prot/cy_prot.c **** *
 280:Generated_Source\PSoC6\pdl\drivers\peripheral\prot/cy_prot.c **** *   Status               | Description
 281:Generated_Source\PSoC6\pdl\drivers\peripheral\prot/cy_prot.c **** *   ------------         | -----------
 282:Generated_Source\PSoC6\pdl\drivers\peripheral\prot/cy_prot.c **** *   CY_PROT_SUCCESS      | SMPU master struct was successfully configured
 283:Generated_Source\PSoC6\pdl\drivers\peripheral\prot/cy_prot.c **** *   CY_PROT_FAILURE      | The resource is locked
 284:Generated_Source\PSoC6\pdl\drivers\peripheral\prot/cy_prot.c **** *   CY_PROT_BAD_PARAM    | An incorrect/invalid parameter was passed
 285:Generated_Source\PSoC6\pdl\drivers\peripheral\prot/cy_prot.c **** *  
 286:Generated_Source\PSoC6\pdl\drivers\peripheral\prot/cy_prot.c **** *******************************************************************************/
 287:Generated_Source\PSoC6\pdl\drivers\peripheral\prot/cy_prot.c **** cy_en_prot_status_t Cy_Prot_ConfigSmpuMasterStruct(PROT_SMPU_SMPU_STRUCT_Type* base, const cy_stc_s
 288:Generated_Source\PSoC6\pdl\drivers\peripheral\prot/cy_prot.c **** {
 385              		.loc 1 288 0
 386              		.cfi_startproc
 387              		@ args = 0, pretend = 0, frame = 0
 388              		@ frame_needed = 0, uses_anonymous_args = 0
 389              	.LVL43:
 390 0000 70B5     		push	{r4, r5, r6, lr}
 391              		.cfi_def_cfa_offset 16
ARM GAS  C:\Users\kiwamu\AppData\Local\Temp\ccj1MWYe.s 			page 13


 392              		.cfi_offset 4, -16
 393              		.cfi_offset 5, -12
 394              		.cfi_offset 6, -8
 395              		.cfi_offset 14, -4
 396              	.LVL44:
 289:Generated_Source\PSoC6\pdl\drivers\peripheral\prot/cy_prot.c ****     cy_en_prot_status_t status = CY_PROT_SUCCESS;
 290:Generated_Source\PSoC6\pdl\drivers\peripheral\prot/cy_prot.c ****     uint32_t attReg;
 291:Generated_Source\PSoC6\pdl\drivers\peripheral\prot/cy_prot.c ****     
 292:Generated_Source\PSoC6\pdl\drivers\peripheral\prot/cy_prot.c ****     if(((uint32_t)config->pcMask & CY_PROT_SMPU_PC_LIMIT_MASK) != 0UL) 
 397              		.loc 1 292 0
 398 0002 4C89     		ldrh	r4, [r1, #10]
 399 0004 7F23     		movs	r3, #127
 400 0006 2200     		movs	r2, r4
 401 0008 9A43     		bics	r2, r3
 402 000a 28D1     		bne	.L33
 293:Generated_Source\PSoC6\pdl\drivers\peripheral\prot/cy_prot.c ****     {
 294:Generated_Source\PSoC6\pdl\drivers\peripheral\prot/cy_prot.c ****         /* PC mask out of range - not supported in device */
 295:Generated_Source\PSoC6\pdl\drivers\peripheral\prot/cy_prot.c ****         status = CY_PROT_BAD_PARAM;
 296:Generated_Source\PSoC6\pdl\drivers\peripheral\prot/cy_prot.c ****     }
 297:Generated_Source\PSoC6\pdl\drivers\peripheral\prot/cy_prot.c ****     else
 298:Generated_Source\PSoC6\pdl\drivers\peripheral\prot/cy_prot.c ****     {
 299:Generated_Source\PSoC6\pdl\drivers\peripheral\prot/cy_prot.c ****         /* ADDR1 is read only. Only configure ATT1 */
 300:Generated_Source\PSoC6\pdl\drivers\peripheral\prot/cy_prot.c ****         attReg = ((uint32_t)config->userPermission & CY_PROT_ATT_PERMISSION_MASK)
 403              		.loc 1 300 0
 404 000c 8B79     		ldrb	r3, [r1, #6]
 405 000e 0725     		movs	r5, #7
 406 0010 1D40     		ands	r5, r3
 301:Generated_Source\PSoC6\pdl\drivers\peripheral\prot/cy_prot.c ****                     | (uint32_t)(((uint32_t)config->privPermission & CY_PROT_ATT_PERMISSION_MASK) <
 407              		.loc 1 301 0
 408 0012 CA79     		ldrb	r2, [r1, #7]
 409 0014 D200     		lsls	r2, r2, #3
 410 0016 3823     		movs	r3, #56
 411 0018 1340     		ands	r3, r2
 412 001a 1D43     		orrs	r5, r3
 302:Generated_Source\PSoC6\pdl\drivers\peripheral\prot/cy_prot.c ****                     | _VAL2FLD(PROT_SMPU_SMPU_STRUCT_ATT1_NS, !(config->secure))
 413              		.loc 1 302 0
 414 001c 0B7A     		ldrb	r3, [r1, #8]
 415 001e 0122     		movs	r2, #1
 416 0020 5A40     		eors	r2, r3
 417 0022 D2B2     		uxtb	r2, r2
 418 0024 9201     		lsls	r2, r2, #6
 419 0026 4023     		movs	r3, #64
 420 0028 1A40     		ands	r2, r3
 421 002a 2B00     		movs	r3, r5
 422 002c 1343     		orrs	r3, r2
 303:Generated_Source\PSoC6\pdl\drivers\peripheral\prot/cy_prot.c ****                     | _VAL2FLD(PROT_SMPU_SMPU_STRUCT_ATT1_PC_MASK_15_TO_1, config->pcMask)
 423              		.loc 1 303 0
 424 002e 6402     		lsls	r4, r4, #9
 425 0030 0E4A     		ldr	r2, .L36
 426 0032 1440     		ands	r4, r2
 427 0034 1C43     		orrs	r4, r3
 304:Generated_Source\PSoC6\pdl\drivers\peripheral\prot/cy_prot.c ****                     /* No region size - read only for master structs */
 305:Generated_Source\PSoC6\pdl\drivers\peripheral\prot/cy_prot.c ****                     | _VAL2FLD(PROT_SMPU_SMPU_STRUCT_ATT1_PC_MATCH, config->pcMatch);
 428              		.loc 1 305 0
 429 0036 4B7A     		ldrb	r3, [r1, #9]
 430 0038 9B07     		lsls	r3, r3, #30
 431 003a 8021     		movs	r1, #128
ARM GAS  C:\Users\kiwamu\AppData\Local\Temp\ccj1MWYe.s 			page 14


 432              	.LVL45:
 433 003c C905     		lsls	r1, r1, #23
 434 003e 0B40     		ands	r3, r1
 435 0040 1A00     		movs	r2, r3
 300:Generated_Source\PSoC6\pdl\drivers\peripheral\prot/cy_prot.c ****                     | (uint32_t)(((uint32_t)config->privPermission & CY_PROT_ATT_PERMISSION_MASK) <
 436              		.loc 1 300 0
 437 0042 2300     		movs	r3, r4
 438 0044 1343     		orrs	r3, r2
 439              	.LVL46:
 306:Generated_Source\PSoC6\pdl\drivers\peripheral\prot/cy_prot.c ****         if ((attReg & CY_PROT_SMPU_ATT1_MASK) != attReg)
 440              		.loc 1 306 0
 441 0046 0A4A     		ldr	r2, .L36+4
 442 0048 1A40     		ands	r2, r3
 443 004a 9342     		cmp	r3, r2
 444 004c 09D1     		bne	.L34
 307:Generated_Source\PSoC6\pdl\drivers\peripheral\prot/cy_prot.c ****         {
 308:Generated_Source\PSoC6\pdl\drivers\peripheral\prot/cy_prot.c ****             /* Invalid parameter was passed */
 309:Generated_Source\PSoC6\pdl\drivers\peripheral\prot/cy_prot.c ****             status = CY_PROT_BAD_PARAM;
 310:Generated_Source\PSoC6\pdl\drivers\peripheral\prot/cy_prot.c ****         }
 311:Generated_Source\PSoC6\pdl\drivers\peripheral\prot/cy_prot.c ****         else
 312:Generated_Source\PSoC6\pdl\drivers\peripheral\prot/cy_prot.c ****         {
 313:Generated_Source\PSoC6\pdl\drivers\peripheral\prot/cy_prot.c ****             base->ATT1 = attReg;
 445              		.loc 1 313 0
 446 004e 4362     		str	r3, [r0, #36]
 314:Generated_Source\PSoC6\pdl\drivers\peripheral\prot/cy_prot.c ****             status = ((base->ATT1 & CY_PROT_SMPU_ATT1_MASK) != attReg) ? CY_PROT_FAILURE : CY_PROT_
 447              		.loc 1 314 0
 448 0050 416A     		ldr	r1, [r0, #36]
 449 0052 074A     		ldr	r2, .L36+4
 450 0054 0A40     		ands	r2, r1
 451 0056 9342     		cmp	r3, r2
 452 0058 05D0     		beq	.L35
 453 005a 0648     		ldr	r0, .L36+8
 454              	.LVL47:
 455 005c 04E0     		b	.L32
 456              	.LVL48:
 457              	.L33:
 295:Generated_Source\PSoC6\pdl\drivers\peripheral\prot/cy_prot.c ****     }
 458              		.loc 1 295 0
 459 005e 0648     		ldr	r0, .L36+12
 460              	.LVL49:
 461 0060 02E0     		b	.L32
 462              	.LVL50:
 463              	.L34:
 309:Generated_Source\PSoC6\pdl\drivers\peripheral\prot/cy_prot.c ****         }
 464              		.loc 1 309 0
 465 0062 0548     		ldr	r0, .L36+12
 466              	.LVL51:
 467 0064 00E0     		b	.L32
 468              	.LVL52:
 469              	.L35:
 470              		.loc 1 314 0
 471 0066 0020     		movs	r0, #0
 472              	.LVL53:
 473              	.L32:
 315:Generated_Source\PSoC6\pdl\drivers\peripheral\prot/cy_prot.c ****         }
 316:Generated_Source\PSoC6\pdl\drivers\peripheral\prot/cy_prot.c ****     }
 317:Generated_Source\PSoC6\pdl\drivers\peripheral\prot/cy_prot.c ****     
ARM GAS  C:\Users\kiwamu\AppData\Local\Temp\ccj1MWYe.s 			page 15


 318:Generated_Source\PSoC6\pdl\drivers\peripheral\prot/cy_prot.c ****     return status;
 319:Generated_Source\PSoC6\pdl\drivers\peripheral\prot/cy_prot.c **** }
 474              		.loc 1 319 0
 475              		@ sp needed
 476 0068 70BD     		pop	{r4, r5, r6, pc}
 477              	.L37:
 478 006a C046     		.align	2
 479              	.L36:
 480 006c 00FEFF00 		.word	16776704
 481 0070 D2FEFFE0 		.word	-520093998
 482 0074 0300C200 		.word	12713987
 483 0078 0100C200 		.word	12713985
 484              		.cfi_endproc
 485              	.LFE40:
 486              		.size	Cy_Prot_ConfigSmpuMasterStruct, .-Cy_Prot_ConfigSmpuMasterStruct
 487              		.section	.text.Cy_Prot_ConfigSmpuSlaveStruct,"ax",%progbits
 488              		.align	2
 489              		.global	Cy_Prot_ConfigSmpuSlaveStruct
 490              		.code	16
 491              		.thumb_func
 492              		.type	Cy_Prot_ConfigSmpuSlaveStruct, %function
 493              	Cy_Prot_ConfigSmpuSlaveStruct:
 494              	.LFB41:
 320:Generated_Source\PSoC6\pdl\drivers\peripheral\prot/cy_prot.c **** 
 321:Generated_Source\PSoC6\pdl\drivers\peripheral\prot/cy_prot.c **** /*******************************************************************************
 322:Generated_Source\PSoC6\pdl\drivers\peripheral\prot/cy_prot.c **** * Function Name: Cy_Prot_ConfigSmpuSlaveStruct
 323:Generated_Source\PSoC6\pdl\drivers\peripheral\prot/cy_prot.c **** ****************************************************************************//**
 324:Generated_Source\PSoC6\pdl\drivers\peripheral\prot/cy_prot.c **** *
 325:Generated_Source\PSoC6\pdl\drivers\peripheral\prot/cy_prot.c **** * \brief Configures a Shared Memory Protection Unit (SMPU) slave protection 
 326:Generated_Source\PSoC6\pdl\drivers\peripheral\prot/cy_prot.c **** * struct with its protection attributes. 
 327:Generated_Source\PSoC6\pdl\drivers\peripheral\prot/cy_prot.c **** * 
 328:Generated_Source\PSoC6\pdl\drivers\peripheral\prot/cy_prot.c **** * This function configures the slave struct of an SMPU pair, which can protect
 329:Generated_Source\PSoC6\pdl\drivers\peripheral\prot/cy_prot.c **** * any memory region in a device from invalid bus master accesses.
 330:Generated_Source\PSoC6\pdl\drivers\peripheral\prot/cy_prot.c **** *
 331:Generated_Source\PSoC6\pdl\drivers\peripheral\prot/cy_prot.c **** * \param base
 332:Generated_Source\PSoC6\pdl\drivers\peripheral\prot/cy_prot.c **** * The register base address of the protection structure being configured.
 333:Generated_Source\PSoC6\pdl\drivers\peripheral\prot/cy_prot.c **** * 
 334:Generated_Source\PSoC6\pdl\drivers\peripheral\prot/cy_prot.c **** * \param config
 335:Generated_Source\PSoC6\pdl\drivers\peripheral\prot/cy_prot.c **** * Initialization structure with all the protection attributes.
 336:Generated_Source\PSoC6\pdl\drivers\peripheral\prot/cy_prot.c **** * 
 337:Generated_Source\PSoC6\pdl\drivers\peripheral\prot/cy_prot.c **** * \return
 338:Generated_Source\PSoC6\pdl\drivers\peripheral\prot/cy_prot.c **** * Status of the function call.
 339:Generated_Source\PSoC6\pdl\drivers\peripheral\prot/cy_prot.c **** *
 340:Generated_Source\PSoC6\pdl\drivers\peripheral\prot/cy_prot.c **** *   Status               | Description
 341:Generated_Source\PSoC6\pdl\drivers\peripheral\prot/cy_prot.c **** *   ------------         | -----------
 342:Generated_Source\PSoC6\pdl\drivers\peripheral\prot/cy_prot.c **** *   CY_PROT_SUCCESS      | SMPU slave struct was successfully configured
 343:Generated_Source\PSoC6\pdl\drivers\peripheral\prot/cy_prot.c **** *   CY_PROT_FAILURE      | The resource is locked
 344:Generated_Source\PSoC6\pdl\drivers\peripheral\prot/cy_prot.c **** *   CY_PROT_BAD_PARAM    | An incorrect/invalid parameter was passed
 345:Generated_Source\PSoC6\pdl\drivers\peripheral\prot/cy_prot.c **** *  
 346:Generated_Source\PSoC6\pdl\drivers\peripheral\prot/cy_prot.c **** *******************************************************************************/
 347:Generated_Source\PSoC6\pdl\drivers\peripheral\prot/cy_prot.c **** cy_en_prot_status_t Cy_Prot_ConfigSmpuSlaveStruct(PROT_SMPU_SMPU_STRUCT_Type* base, const cy_stc_sm
 348:Generated_Source\PSoC6\pdl\drivers\peripheral\prot/cy_prot.c **** {
 495              		.loc 1 348 0
 496              		.cfi_startproc
 497              		@ args = 0, pretend = 0, frame = 0
 498              		@ frame_needed = 0, uses_anonymous_args = 0
 499              	.LVL54:
ARM GAS  C:\Users\kiwamu\AppData\Local\Temp\ccj1MWYe.s 			page 16


 500 0000 F0B5     		push	{r4, r5, r6, r7, lr}
 501              		.cfi_def_cfa_offset 20
 502              		.cfi_offset 4, -20
 503              		.cfi_offset 5, -16
 504              		.cfi_offset 6, -12
 505              		.cfi_offset 7, -8
 506              		.cfi_offset 14, -4
 507              	.LVL55:
 349:Generated_Source\PSoC6\pdl\drivers\peripheral\prot/cy_prot.c ****     cy_en_prot_status_t status = CY_PROT_SUCCESS;
 350:Generated_Source\PSoC6\pdl\drivers\peripheral\prot/cy_prot.c ****     uint32_t addrReg;
 351:Generated_Source\PSoC6\pdl\drivers\peripheral\prot/cy_prot.c ****     uint32_t attReg;
 352:Generated_Source\PSoC6\pdl\drivers\peripheral\prot/cy_prot.c ****     
 353:Generated_Source\PSoC6\pdl\drivers\peripheral\prot/cy_prot.c ****     if(((uint32_t)config->pcMask & CY_PROT_SMPU_PC_LIMIT_MASK) != 0UL) 
 508              		.loc 1 353 0
 509 0002 4C89     		ldrh	r4, [r1, #10]
 510 0004 7F23     		movs	r3, #127
 511 0006 2200     		movs	r2, r4
 512 0008 9A43     		bics	r2, r3
 513 000a 131E     		subs	r3, r2, #0
 514 000c 35D1     		bne	.L40
 354:Generated_Source\PSoC6\pdl\drivers\peripheral\prot/cy_prot.c ****     {
 355:Generated_Source\PSoC6\pdl\drivers\peripheral\prot/cy_prot.c ****         /* PC mask out of range - not supported in device */
 356:Generated_Source\PSoC6\pdl\drivers\peripheral\prot/cy_prot.c ****         status = CY_PROT_BAD_PARAM;
 357:Generated_Source\PSoC6\pdl\drivers\peripheral\prot/cy_prot.c ****     }
 358:Generated_Source\PSoC6\pdl\drivers\peripheral\prot/cy_prot.c ****     else
 359:Generated_Source\PSoC6\pdl\drivers\peripheral\prot/cy_prot.c ****     {
 360:Generated_Source\PSoC6\pdl\drivers\peripheral\prot/cy_prot.c ****         addrReg= _VAL2FLD(PROT_SMPU_SMPU_STRUCT_ADDR0_SUBREGION_DISABLE, config->subregions)
 515              		.loc 1 360 0
 516 000e 4E79     		ldrb	r6, [r1, #5]
 361:Generated_Source\PSoC6\pdl\drivers\peripheral\prot/cy_prot.c ****                     | _VAL2FLD(PROT_SMPU_SMPU_STRUCT_ADDR0_ADDR24, (uint32_t)((uint32_t)config->add
 517              		.loc 1 361 0
 518 0010 FF33     		adds	r3, r3, #255
 519 0012 0A68     		ldr	r2, [r1]
 520 0014 9A43     		bics	r2, r3
 360:Generated_Source\PSoC6\pdl\drivers\peripheral\prot/cy_prot.c ****                     | _VAL2FLD(PROT_SMPU_SMPU_STRUCT_ADDR0_ADDR24, (uint32_t)((uint32_t)config->add
 521              		.loc 1 360 0
 522 0016 1643     		orrs	r6, r2
 523              	.LVL56:
 362:Generated_Source\PSoC6\pdl\drivers\peripheral\prot/cy_prot.c ****         attReg= ((uint32_t)config->userPermission & CY_PROT_ATT_PERMISSION_MASK)
 524              		.loc 1 362 0
 525 0018 8B79     		ldrb	r3, [r1, #6]
 526 001a 0725     		movs	r5, #7
 527 001c 1D40     		ands	r5, r3
 363:Generated_Source\PSoC6\pdl\drivers\peripheral\prot/cy_prot.c ****                     | (uint32_t)(((uint32_t)config->privPermission & CY_PROT_ATT_PERMISSION_MASK) <
 528              		.loc 1 363 0
 529 001e CA79     		ldrb	r2, [r1, #7]
 530 0020 D200     		lsls	r2, r2, #3
 531 0022 3823     		movs	r3, #56
 532 0024 1340     		ands	r3, r2
 533 0026 1D43     		orrs	r5, r3
 364:Generated_Source\PSoC6\pdl\drivers\peripheral\prot/cy_prot.c ****                     | _VAL2FLD(PROT_SMPU_SMPU_STRUCT_ATT0_NS, !(config->secure))
 534              		.loc 1 364 0
 535 0028 0B7A     		ldrb	r3, [r1, #8]
 536 002a 0122     		movs	r2, #1
 537 002c 5A40     		eors	r2, r3
 538 002e D2B2     		uxtb	r2, r2
 539 0030 9201     		lsls	r2, r2, #6
ARM GAS  C:\Users\kiwamu\AppData\Local\Temp\ccj1MWYe.s 			page 17


 540 0032 4023     		movs	r3, #64
 541 0034 1A40     		ands	r2, r3
 542 0036 2B00     		movs	r3, r5
 543 0038 1343     		orrs	r3, r2
 365:Generated_Source\PSoC6\pdl\drivers\peripheral\prot/cy_prot.c ****                     | _VAL2FLD(PROT_SMPU_SMPU_STRUCT_ATT0_PC_MASK_15_TO_1, config->pcMask)
 544              		.loc 1 365 0
 545 003a 6402     		lsls	r4, r4, #9
 546 003c 124A     		ldr	r2, .L43
 547 003e 1440     		ands	r4, r2
 548 0040 2343     		orrs	r3, r4
 366:Generated_Source\PSoC6\pdl\drivers\peripheral\prot/cy_prot.c ****                     | _VAL2FLD(PROT_SMPU_SMPU_STRUCT_ATT0_REGION_SIZE, config->regionSize)
 549              		.loc 1 366 0
 550 0042 0C79     		ldrb	r4, [r1, #4]
 551 0044 2406     		lsls	r4, r4, #24
 552 0046 F825     		movs	r5, #248
 553 0048 6D05     		lsls	r5, r5, #21
 554 004a 2200     		movs	r2, r4
 555 004c 2A40     		ands	r2, r5
 556 004e 1343     		orrs	r3, r2
 557 0050 1C00     		movs	r4, r3
 367:Generated_Source\PSoC6\pdl\drivers\peripheral\prot/cy_prot.c ****                     | _VAL2FLD(PROT_SMPU_SMPU_STRUCT_ATT0_PC_MATCH, config->pcMatch);
 558              		.loc 1 367 0
 559 0052 4B7A     		ldrb	r3, [r1, #9]
 560 0054 9B07     		lsls	r3, r3, #30
 561 0056 8021     		movs	r1, #128
 562              	.LVL57:
 563 0058 C905     		lsls	r1, r1, #23
 564 005a 0B40     		ands	r3, r1
 565 005c 1A00     		movs	r2, r3
 362:Generated_Source\PSoC6\pdl\drivers\peripheral\prot/cy_prot.c ****                     | (uint32_t)(((uint32_t)config->privPermission & CY_PROT_ATT_PERMISSION_MASK) <
 566              		.loc 1 362 0
 567 005e 2300     		movs	r3, r4
 568 0060 1343     		orrs	r3, r2
 569              	.LVL58:
 368:Generated_Source\PSoC6\pdl\drivers\peripheral\prot/cy_prot.c ****         base->ATT0 = attReg;
 570              		.loc 1 368 0
 571 0062 4360     		str	r3, [r0, #4]
 369:Generated_Source\PSoC6\pdl\drivers\peripheral\prot/cy_prot.c ****         base->ADDR0 = addrReg;
 572              		.loc 1 369 0
 573 0064 0660     		str	r6, [r0]
 370:Generated_Source\PSoC6\pdl\drivers\peripheral\prot/cy_prot.c ****         status = ((base->ADDR0 != addrReg) || ((base->ATT0 & CY_PROT_SMPU_ATT0_MASK) != attReg))
 574              		.loc 1 370 0
 575 0066 0268     		ldr	r2, [r0]
 576 0068 9642     		cmp	r6, r2
 577 006a 08D1     		bne	.L41
 578              		.loc 1 370 0 is_stmt 0 discriminator 2
 579 006c 4168     		ldr	r1, [r0, #4]
 580 006e 074A     		ldr	r2, .L43+4
 581 0070 0A40     		ands	r2, r1
 582 0072 9342     		cmp	r3, r2
 583 0074 05D0     		beq	.L42
 584              		.loc 1 370 0
 585 0076 0648     		ldr	r0, .L43+8
 586              	.LVL59:
 587 0078 04E0     		b	.L39
 588              	.LVL60:
 589              	.L40:
ARM GAS  C:\Users\kiwamu\AppData\Local\Temp\ccj1MWYe.s 			page 18


 356:Generated_Source\PSoC6\pdl\drivers\peripheral\prot/cy_prot.c ****     }
 590              		.loc 1 356 0 is_stmt 1
 591 007a 0648     		ldr	r0, .L43+12
 592              	.LVL61:
 593 007c 02E0     		b	.L39
 594              	.LVL62:
 595              	.L41:
 596              		.loc 1 370 0
 597 007e 0448     		ldr	r0, .L43+8
 598              	.LVL63:
 599 0080 00E0     		b	.L39
 600              	.LVL64:
 601              	.L42:
 602 0082 0020     		movs	r0, #0
 603              	.LVL65:
 604              	.L39:
 371:Generated_Source\PSoC6\pdl\drivers\peripheral\prot/cy_prot.c ****                     ? CY_PROT_FAILURE : CY_PROT_SUCCESS;
 372:Generated_Source\PSoC6\pdl\drivers\peripheral\prot/cy_prot.c ****     }
 373:Generated_Source\PSoC6\pdl\drivers\peripheral\prot/cy_prot.c ****     
 374:Generated_Source\PSoC6\pdl\drivers\peripheral\prot/cy_prot.c ****     return status;
 375:Generated_Source\PSoC6\pdl\drivers\peripheral\prot/cy_prot.c **** }
 605              		.loc 1 375 0
 606              		@ sp needed
 607 0084 F0BD     		pop	{r4, r5, r6, r7, pc}
 608              	.L44:
 609 0086 C046     		.align	2
 610              	.L43:
 611 0088 00FEFF00 		.word	16776704
 612 008c FFFEFFFF 		.word	-257
 613 0090 0300C200 		.word	12713987
 614 0094 0100C200 		.word	12713985
 615              		.cfi_endproc
 616              	.LFE41:
 617              		.size	Cy_Prot_ConfigSmpuSlaveStruct, .-Cy_Prot_ConfigSmpuSlaveStruct
 618              		.section	.text.Cy_Prot_EnableSmpuMasterStruct,"ax",%progbits
 619              		.align	2
 620              		.global	Cy_Prot_EnableSmpuMasterStruct
 621              		.code	16
 622              		.thumb_func
 623              		.type	Cy_Prot_EnableSmpuMasterStruct, %function
 624              	Cy_Prot_EnableSmpuMasterStruct:
 625              	.LFB42:
 376:Generated_Source\PSoC6\pdl\drivers\peripheral\prot/cy_prot.c **** 
 377:Generated_Source\PSoC6\pdl\drivers\peripheral\prot/cy_prot.c **** 
 378:Generated_Source\PSoC6\pdl\drivers\peripheral\prot/cy_prot.c **** /*******************************************************************************
 379:Generated_Source\PSoC6\pdl\drivers\peripheral\prot/cy_prot.c **** * Function Name: Cy_Prot_EnableSmpuMasterStruct
 380:Generated_Source\PSoC6\pdl\drivers\peripheral\prot/cy_prot.c **** ****************************************************************************//**
 381:Generated_Source\PSoC6\pdl\drivers\peripheral\prot/cy_prot.c **** *
 382:Generated_Source\PSoC6\pdl\drivers\peripheral\prot/cy_prot.c **** * \brief Enables the Master SMPU structure.
 383:Generated_Source\PSoC6\pdl\drivers\peripheral\prot/cy_prot.c **** *
 384:Generated_Source\PSoC6\pdl\drivers\peripheral\prot/cy_prot.c **** * This is an SMPU master struct enable function. The SMPU protection settings
 385:Generated_Source\PSoC6\pdl\drivers\peripheral\prot/cy_prot.c **** * will take effect after successful completion of this function call.
 386:Generated_Source\PSoC6\pdl\drivers\peripheral\prot/cy_prot.c **** *
 387:Generated_Source\PSoC6\pdl\drivers\peripheral\prot/cy_prot.c **** * \param base
 388:Generated_Source\PSoC6\pdl\drivers\peripheral\prot/cy_prot.c **** * The base address for the protection unit structure being configured. 
 389:Generated_Source\PSoC6\pdl\drivers\peripheral\prot/cy_prot.c **** *
 390:Generated_Source\PSoC6\pdl\drivers\peripheral\prot/cy_prot.c **** * \return
ARM GAS  C:\Users\kiwamu\AppData\Local\Temp\ccj1MWYe.s 			page 19


 391:Generated_Source\PSoC6\pdl\drivers\peripheral\prot/cy_prot.c **** * Status of the function call.
 392:Generated_Source\PSoC6\pdl\drivers\peripheral\prot/cy_prot.c **** *
 393:Generated_Source\PSoC6\pdl\drivers\peripheral\prot/cy_prot.c **** *   Status               | Description
 394:Generated_Source\PSoC6\pdl\drivers\peripheral\prot/cy_prot.c **** *   ------------         | -----------
 395:Generated_Source\PSoC6\pdl\drivers\peripheral\prot/cy_prot.c **** *   CY_PROT_SUCCESS      | The Master PU struct was enabled
 396:Generated_Source\PSoC6\pdl\drivers\peripheral\prot/cy_prot.c **** *   CY_PROT_FAILURE      | The Master PU struct is disabled and possibly locked
 397:Generated_Source\PSoC6\pdl\drivers\peripheral\prot/cy_prot.c **** *  
 398:Generated_Source\PSoC6\pdl\drivers\peripheral\prot/cy_prot.c **** *******************************************************************************/
 399:Generated_Source\PSoC6\pdl\drivers\peripheral\prot/cy_prot.c **** cy_en_prot_status_t Cy_Prot_EnableSmpuMasterStruct(PROT_SMPU_SMPU_STRUCT_Type* base)
 400:Generated_Source\PSoC6\pdl\drivers\peripheral\prot/cy_prot.c **** {
 626              		.loc 1 400 0
 627              		.cfi_startproc
 628              		@ args = 0, pretend = 0, frame = 0
 629              		@ frame_needed = 0, uses_anonymous_args = 0
 630              		@ link register save eliminated.
 631              	.LVL66:
 401:Generated_Source\PSoC6\pdl\drivers\peripheral\prot/cy_prot.c ****     cy_en_prot_status_t status = CY_PROT_SUCCESS;
 402:Generated_Source\PSoC6\pdl\drivers\peripheral\prot/cy_prot.c ****     
 403:Generated_Source\PSoC6\pdl\drivers\peripheral\prot/cy_prot.c ****     base->ATT1 |= _VAL2FLD(PROT_SMPU_SMPU_STRUCT_ATT1_ENABLED, CY_PROT_STRUCT_ENABLE);
 632              		.loc 1 403 0
 633 0000 436A     		ldr	r3, [r0, #36]
 634 0002 8022     		movs	r2, #128
 635 0004 1206     		lsls	r2, r2, #24
 636 0006 1343     		orrs	r3, r2
 637 0008 4362     		str	r3, [r0, #36]
 404:Generated_Source\PSoC6\pdl\drivers\peripheral\prot/cy_prot.c ****     status = (_FLD2VAL(PROT_SMPU_SMPU_STRUCT_ATT1_ENABLED, base->ATT1) != CY_PROT_STRUCT_ENABLE) ?
 638              		.loc 1 404 0
 639 000a 436A     		ldr	r3, [r0, #36]
 640 000c 002B     		cmp	r3, #0
 641 000e 01DB     		blt	.L47
 642 0010 0148     		ldr	r0, .L48
 643              	.LVL67:
 644 0012 00E0     		b	.L46
 645              	.LVL68:
 646              	.L47:
 647 0014 0020     		movs	r0, #0
 648              	.LVL69:
 649              	.L46:
 405:Generated_Source\PSoC6\pdl\drivers\peripheral\prot/cy_prot.c ****                 CY_PROT_FAILURE : CY_PROT_SUCCESS;
 406:Generated_Source\PSoC6\pdl\drivers\peripheral\prot/cy_prot.c ****     
 407:Generated_Source\PSoC6\pdl\drivers\peripheral\prot/cy_prot.c ****     return status;
 408:Generated_Source\PSoC6\pdl\drivers\peripheral\prot/cy_prot.c **** }
 650              		.loc 1 408 0 discriminator 4
 651              		@ sp needed
 652 0016 7047     		bx	lr
 653              	.L49:
 654              		.align	2
 655              	.L48:
 656 0018 0300C200 		.word	12713987
 657              		.cfi_endproc
 658              	.LFE42:
 659              		.size	Cy_Prot_EnableSmpuMasterStruct, .-Cy_Prot_EnableSmpuMasterStruct
 660              		.section	.text.Cy_Prot_DisableSmpuMasterStruct,"ax",%progbits
 661              		.align	2
 662              		.global	Cy_Prot_DisableSmpuMasterStruct
 663              		.code	16
 664              		.thumb_func
ARM GAS  C:\Users\kiwamu\AppData\Local\Temp\ccj1MWYe.s 			page 20


 665              		.type	Cy_Prot_DisableSmpuMasterStruct, %function
 666              	Cy_Prot_DisableSmpuMasterStruct:
 667              	.LFB43:
 409:Generated_Source\PSoC6\pdl\drivers\peripheral\prot/cy_prot.c **** 
 410:Generated_Source\PSoC6\pdl\drivers\peripheral\prot/cy_prot.c **** 
 411:Generated_Source\PSoC6\pdl\drivers\peripheral\prot/cy_prot.c **** /*******************************************************************************
 412:Generated_Source\PSoC6\pdl\drivers\peripheral\prot/cy_prot.c **** * Function Name: Cy_Prot_DisableSmpuMasterStruct
 413:Generated_Source\PSoC6\pdl\drivers\peripheral\prot/cy_prot.c **** ****************************************************************************//**
 414:Generated_Source\PSoC6\pdl\drivers\peripheral\prot/cy_prot.c **** *
 415:Generated_Source\PSoC6\pdl\drivers\peripheral\prot/cy_prot.c **** * \brief Disables the Master SMPU structure.
 416:Generated_Source\PSoC6\pdl\drivers\peripheral\prot/cy_prot.c **** *
 417:Generated_Source\PSoC6\pdl\drivers\peripheral\prot/cy_prot.c **** * This is an SMPU master struct disable function. The SMPU protection settings
 418:Generated_Source\PSoC6\pdl\drivers\peripheral\prot/cy_prot.c **** * will seize to take effect after successful completion of this function call.
 419:Generated_Source\PSoC6\pdl\drivers\peripheral\prot/cy_prot.c **** *
 420:Generated_Source\PSoC6\pdl\drivers\peripheral\prot/cy_prot.c **** * \param base
 421:Generated_Source\PSoC6\pdl\drivers\peripheral\prot/cy_prot.c **** * The base address for the protection unit structure being configured. 
 422:Generated_Source\PSoC6\pdl\drivers\peripheral\prot/cy_prot.c **** *
 423:Generated_Source\PSoC6\pdl\drivers\peripheral\prot/cy_prot.c **** * \return
 424:Generated_Source\PSoC6\pdl\drivers\peripheral\prot/cy_prot.c **** * Status of the function call.
 425:Generated_Source\PSoC6\pdl\drivers\peripheral\prot/cy_prot.c **** *
 426:Generated_Source\PSoC6\pdl\drivers\peripheral\prot/cy_prot.c **** *   Status               | Description
 427:Generated_Source\PSoC6\pdl\drivers\peripheral\prot/cy_prot.c **** *   ------------         | -----------
 428:Generated_Source\PSoC6\pdl\drivers\peripheral\prot/cy_prot.c **** *   CY_PROT_SUCCESS      | The Master PU struct was disabled
 429:Generated_Source\PSoC6\pdl\drivers\peripheral\prot/cy_prot.c **** *   CY_PROT_FAILURE      | The Master PU struct is enabled and possibly locked
 430:Generated_Source\PSoC6\pdl\drivers\peripheral\prot/cy_prot.c **** *  
 431:Generated_Source\PSoC6\pdl\drivers\peripheral\prot/cy_prot.c **** *******************************************************************************/
 432:Generated_Source\PSoC6\pdl\drivers\peripheral\prot/cy_prot.c **** cy_en_prot_status_t Cy_Prot_DisableSmpuMasterStruct(PROT_SMPU_SMPU_STRUCT_Type* base)
 433:Generated_Source\PSoC6\pdl\drivers\peripheral\prot/cy_prot.c **** {
 668              		.loc 1 433 0
 669              		.cfi_startproc
 670              		@ args = 0, pretend = 0, frame = 0
 671              		@ frame_needed = 0, uses_anonymous_args = 0
 672              		@ link register save eliminated.
 673              	.LVL70:
 434:Generated_Source\PSoC6\pdl\drivers\peripheral\prot/cy_prot.c ****     cy_en_prot_status_t status = CY_PROT_SUCCESS;
 435:Generated_Source\PSoC6\pdl\drivers\peripheral\prot/cy_prot.c ****     
 436:Generated_Source\PSoC6\pdl\drivers\peripheral\prot/cy_prot.c ****     base->ATT1 &= ~_VAL2FLD(PROT_SMPU_SMPU_STRUCT_ATT1_ENABLED, CY_PROT_STRUCT_ENABLE);
 674              		.loc 1 436 0
 675 0000 436A     		ldr	r3, [r0, #36]
 676 0002 5B00     		lsls	r3, r3, #1
 677 0004 5B08     		lsrs	r3, r3, #1
 678 0006 4362     		str	r3, [r0, #36]
 437:Generated_Source\PSoC6\pdl\drivers\peripheral\prot/cy_prot.c ****     status = (_FLD2VAL(PROT_SMPU_SMPU_STRUCT_ATT1_ENABLED, base->ATT1) == CY_PROT_STRUCT_ENABLE) ?
 679              		.loc 1 437 0
 680 0008 436A     		ldr	r3, [r0, #36]
 681 000a 002B     		cmp	r3, #0
 682 000c 01DA     		bge	.L52
 683 000e 0248     		ldr	r0, .L53
 684              	.LVL71:
 685 0010 00E0     		b	.L51
 686              	.LVL72:
 687              	.L52:
 688 0012 0020     		movs	r0, #0
 689              	.LVL73:
 690              	.L51:
 438:Generated_Source\PSoC6\pdl\drivers\peripheral\prot/cy_prot.c ****                 CY_PROT_FAILURE : CY_PROT_SUCCESS;
 439:Generated_Source\PSoC6\pdl\drivers\peripheral\prot/cy_prot.c ****     
ARM GAS  C:\Users\kiwamu\AppData\Local\Temp\ccj1MWYe.s 			page 21


 440:Generated_Source\PSoC6\pdl\drivers\peripheral\prot/cy_prot.c ****     return status;
 441:Generated_Source\PSoC6\pdl\drivers\peripheral\prot/cy_prot.c **** }
 691              		.loc 1 441 0 discriminator 4
 692              		@ sp needed
 693 0014 7047     		bx	lr
 694              	.L54:
 695 0016 C046     		.align	2
 696              	.L53:
 697 0018 0300C200 		.word	12713987
 698              		.cfi_endproc
 699              	.LFE43:
 700              		.size	Cy_Prot_DisableSmpuMasterStruct, .-Cy_Prot_DisableSmpuMasterStruct
 701              		.section	.text.Cy_Prot_EnableSmpuSlaveStruct,"ax",%progbits
 702              		.align	2
 703              		.global	Cy_Prot_EnableSmpuSlaveStruct
 704              		.code	16
 705              		.thumb_func
 706              		.type	Cy_Prot_EnableSmpuSlaveStruct, %function
 707              	Cy_Prot_EnableSmpuSlaveStruct:
 708              	.LFB44:
 442:Generated_Source\PSoC6\pdl\drivers\peripheral\prot/cy_prot.c **** 
 443:Generated_Source\PSoC6\pdl\drivers\peripheral\prot/cy_prot.c **** 
 444:Generated_Source\PSoC6\pdl\drivers\peripheral\prot/cy_prot.c **** /*******************************************************************************
 445:Generated_Source\PSoC6\pdl\drivers\peripheral\prot/cy_prot.c **** * Function Name: Cy_Prot_EnableSmpuSlaveStruct
 446:Generated_Source\PSoC6\pdl\drivers\peripheral\prot/cy_prot.c **** ****************************************************************************//**
 447:Generated_Source\PSoC6\pdl\drivers\peripheral\prot/cy_prot.c **** *
 448:Generated_Source\PSoC6\pdl\drivers\peripheral\prot/cy_prot.c **** * \brief Enables the Slave SMPU structure.
 449:Generated_Source\PSoC6\pdl\drivers\peripheral\prot/cy_prot.c **** *
 450:Generated_Source\PSoC6\pdl\drivers\peripheral\prot/cy_prot.c **** * This is an SMPU slave struct enable function. The SMPU protection settings
 451:Generated_Source\PSoC6\pdl\drivers\peripheral\prot/cy_prot.c **** * will take effect after successful completion of this function call.
 452:Generated_Source\PSoC6\pdl\drivers\peripheral\prot/cy_prot.c **** *
 453:Generated_Source\PSoC6\pdl\drivers\peripheral\prot/cy_prot.c **** * \param base
 454:Generated_Source\PSoC6\pdl\drivers\peripheral\prot/cy_prot.c **** * The base address for the protection unit structure being configured. 
 455:Generated_Source\PSoC6\pdl\drivers\peripheral\prot/cy_prot.c **** *
 456:Generated_Source\PSoC6\pdl\drivers\peripheral\prot/cy_prot.c **** * \return
 457:Generated_Source\PSoC6\pdl\drivers\peripheral\prot/cy_prot.c **** * Status of the function call.
 458:Generated_Source\PSoC6\pdl\drivers\peripheral\prot/cy_prot.c **** *
 459:Generated_Source\PSoC6\pdl\drivers\peripheral\prot/cy_prot.c **** *   Status               | Description
 460:Generated_Source\PSoC6\pdl\drivers\peripheral\prot/cy_prot.c **** *   ------------         | -----------
 461:Generated_Source\PSoC6\pdl\drivers\peripheral\prot/cy_prot.c **** *   CY_PROT_SUCCESS      | The Slave PU struct was enabled
 462:Generated_Source\PSoC6\pdl\drivers\peripheral\prot/cy_prot.c **** *   CY_PROT_FAILURE      | The Slave PU struct is disabled and possibly locked
 463:Generated_Source\PSoC6\pdl\drivers\peripheral\prot/cy_prot.c **** *  
 464:Generated_Source\PSoC6\pdl\drivers\peripheral\prot/cy_prot.c **** *******************************************************************************/
 465:Generated_Source\PSoC6\pdl\drivers\peripheral\prot/cy_prot.c **** cy_en_prot_status_t Cy_Prot_EnableSmpuSlaveStruct(PROT_SMPU_SMPU_STRUCT_Type* base)
 466:Generated_Source\PSoC6\pdl\drivers\peripheral\prot/cy_prot.c **** {   
 709              		.loc 1 466 0
 710              		.cfi_startproc
 711              		@ args = 0, pretend = 0, frame = 0
 712              		@ frame_needed = 0, uses_anonymous_args = 0
 713              		@ link register save eliminated.
 714              	.LVL74:
 467:Generated_Source\PSoC6\pdl\drivers\peripheral\prot/cy_prot.c ****     cy_en_prot_status_t status = CY_PROT_SUCCESS;
 468:Generated_Source\PSoC6\pdl\drivers\peripheral\prot/cy_prot.c ****     
 469:Generated_Source\PSoC6\pdl\drivers\peripheral\prot/cy_prot.c ****     base->ATT0 |= _VAL2FLD(PROT_SMPU_SMPU_STRUCT_ATT0_ENABLED, CY_PROT_STRUCT_ENABLE);
 715              		.loc 1 469 0
 716 0000 4368     		ldr	r3, [r0, #4]
 717 0002 8022     		movs	r2, #128
ARM GAS  C:\Users\kiwamu\AppData\Local\Temp\ccj1MWYe.s 			page 22


 718 0004 1206     		lsls	r2, r2, #24
 719 0006 1343     		orrs	r3, r2
 720 0008 4360     		str	r3, [r0, #4]
 470:Generated_Source\PSoC6\pdl\drivers\peripheral\prot/cy_prot.c ****     status = (_FLD2VAL(PROT_SMPU_SMPU_STRUCT_ATT0_ENABLED, base->ATT0) != CY_PROT_STRUCT_ENABLE) ?
 721              		.loc 1 470 0
 722 000a 4368     		ldr	r3, [r0, #4]
 723 000c 002B     		cmp	r3, #0
 724 000e 01DB     		blt	.L57
 725 0010 0148     		ldr	r0, .L58
 726              	.LVL75:
 727 0012 00E0     		b	.L56
 728              	.LVL76:
 729              	.L57:
 730 0014 0020     		movs	r0, #0
 731              	.LVL77:
 732              	.L56:
 471:Generated_Source\PSoC6\pdl\drivers\peripheral\prot/cy_prot.c ****                 CY_PROT_FAILURE : CY_PROT_SUCCESS;
 472:Generated_Source\PSoC6\pdl\drivers\peripheral\prot/cy_prot.c ****     
 473:Generated_Source\PSoC6\pdl\drivers\peripheral\prot/cy_prot.c ****     return status;
 474:Generated_Source\PSoC6\pdl\drivers\peripheral\prot/cy_prot.c **** }
 733              		.loc 1 474 0 discriminator 4
 734              		@ sp needed
 735 0016 7047     		bx	lr
 736              	.L59:
 737              		.align	2
 738              	.L58:
 739 0018 0300C200 		.word	12713987
 740              		.cfi_endproc
 741              	.LFE44:
 742              		.size	Cy_Prot_EnableSmpuSlaveStruct, .-Cy_Prot_EnableSmpuSlaveStruct
 743              		.section	.text.Cy_Prot_DisableSmpuSlaveStruct,"ax",%progbits
 744              		.align	2
 745              		.global	Cy_Prot_DisableSmpuSlaveStruct
 746              		.code	16
 747              		.thumb_func
 748              		.type	Cy_Prot_DisableSmpuSlaveStruct, %function
 749              	Cy_Prot_DisableSmpuSlaveStruct:
 750              	.LFB45:
 475:Generated_Source\PSoC6\pdl\drivers\peripheral\prot/cy_prot.c **** 
 476:Generated_Source\PSoC6\pdl\drivers\peripheral\prot/cy_prot.c **** 
 477:Generated_Source\PSoC6\pdl\drivers\peripheral\prot/cy_prot.c **** /*******************************************************************************
 478:Generated_Source\PSoC6\pdl\drivers\peripheral\prot/cy_prot.c **** * Function Name: Cy_Prot_DisableSmpuSlaveStruct
 479:Generated_Source\PSoC6\pdl\drivers\peripheral\prot/cy_prot.c **** ****************************************************************************//**
 480:Generated_Source\PSoC6\pdl\drivers\peripheral\prot/cy_prot.c **** *
 481:Generated_Source\PSoC6\pdl\drivers\peripheral\prot/cy_prot.c **** * \brief Disables the Slave SMPU structure.
 482:Generated_Source\PSoC6\pdl\drivers\peripheral\prot/cy_prot.c **** *
 483:Generated_Source\PSoC6\pdl\drivers\peripheral\prot/cy_prot.c **** * This is an SMPU slave struct disable function. The SMPU protection settings
 484:Generated_Source\PSoC6\pdl\drivers\peripheral\prot/cy_prot.c **** * will seize to take effect after successful completion of this function call.
 485:Generated_Source\PSoC6\pdl\drivers\peripheral\prot/cy_prot.c **** *
 486:Generated_Source\PSoC6\pdl\drivers\peripheral\prot/cy_prot.c **** * \param base
 487:Generated_Source\PSoC6\pdl\drivers\peripheral\prot/cy_prot.c **** * The base address for the protection unit structure being configured. 
 488:Generated_Source\PSoC6\pdl\drivers\peripheral\prot/cy_prot.c **** *
 489:Generated_Source\PSoC6\pdl\drivers\peripheral\prot/cy_prot.c **** * \return
 490:Generated_Source\PSoC6\pdl\drivers\peripheral\prot/cy_prot.c **** * Status of the function call.
 491:Generated_Source\PSoC6\pdl\drivers\peripheral\prot/cy_prot.c **** *
 492:Generated_Source\PSoC6\pdl\drivers\peripheral\prot/cy_prot.c **** *   Status               | Description
 493:Generated_Source\PSoC6\pdl\drivers\peripheral\prot/cy_prot.c **** *   ------------         | -----------
ARM GAS  C:\Users\kiwamu\AppData\Local\Temp\ccj1MWYe.s 			page 23


 494:Generated_Source\PSoC6\pdl\drivers\peripheral\prot/cy_prot.c **** *   CY_PROT_SUCCESS      | The Slave PU struct was disabled
 495:Generated_Source\PSoC6\pdl\drivers\peripheral\prot/cy_prot.c **** *   CY_PROT_FAILURE      | The Slave PU struct is enabled and possibly locked
 496:Generated_Source\PSoC6\pdl\drivers\peripheral\prot/cy_prot.c **** *  
 497:Generated_Source\PSoC6\pdl\drivers\peripheral\prot/cy_prot.c **** *******************************************************************************/
 498:Generated_Source\PSoC6\pdl\drivers\peripheral\prot/cy_prot.c **** cy_en_prot_status_t Cy_Prot_DisableSmpuSlaveStruct(PROT_SMPU_SMPU_STRUCT_Type* base)
 499:Generated_Source\PSoC6\pdl\drivers\peripheral\prot/cy_prot.c **** {
 751              		.loc 1 499 0
 752              		.cfi_startproc
 753              		@ args = 0, pretend = 0, frame = 0
 754              		@ frame_needed = 0, uses_anonymous_args = 0
 755              		@ link register save eliminated.
 756              	.LVL78:
 500:Generated_Source\PSoC6\pdl\drivers\peripheral\prot/cy_prot.c ****     cy_en_prot_status_t status = CY_PROT_SUCCESS;
 501:Generated_Source\PSoC6\pdl\drivers\peripheral\prot/cy_prot.c ****     
 502:Generated_Source\PSoC6\pdl\drivers\peripheral\prot/cy_prot.c ****     base->ATT0 &= ~_VAL2FLD(PROT_SMPU_SMPU_STRUCT_ATT0_ENABLED, CY_PROT_STRUCT_ENABLE);
 757              		.loc 1 502 0
 758 0000 4368     		ldr	r3, [r0, #4]
 759 0002 5B00     		lsls	r3, r3, #1
 760 0004 5B08     		lsrs	r3, r3, #1
 761 0006 4360     		str	r3, [r0, #4]
 503:Generated_Source\PSoC6\pdl\drivers\peripheral\prot/cy_prot.c ****     status = (_FLD2VAL(PROT_SMPU_SMPU_STRUCT_ATT0_ENABLED, base->ATT0) == CY_PROT_STRUCT_ENABLE) ?
 762              		.loc 1 503 0
 763 0008 4368     		ldr	r3, [r0, #4]
 764 000a 002B     		cmp	r3, #0
 765 000c 01DA     		bge	.L62
 766 000e 0248     		ldr	r0, .L63
 767              	.LVL79:
 768 0010 00E0     		b	.L61
 769              	.LVL80:
 770              	.L62:
 771 0012 0020     		movs	r0, #0
 772              	.LVL81:
 773              	.L61:
 504:Generated_Source\PSoC6\pdl\drivers\peripheral\prot/cy_prot.c ****                 CY_PROT_FAILURE : CY_PROT_SUCCESS;
 505:Generated_Source\PSoC6\pdl\drivers\peripheral\prot/cy_prot.c ****     
 506:Generated_Source\PSoC6\pdl\drivers\peripheral\prot/cy_prot.c ****     return status;
 507:Generated_Source\PSoC6\pdl\drivers\peripheral\prot/cy_prot.c **** }
 774              		.loc 1 507 0 discriminator 4
 775              		@ sp needed
 776 0014 7047     		bx	lr
 777              	.L64:
 778 0016 C046     		.align	2
 779              	.L63:
 780 0018 0300C200 		.word	12713987
 781              		.cfi_endproc
 782              	.LFE45:
 783              		.size	Cy_Prot_DisableSmpuSlaveStruct, .-Cy_Prot_DisableSmpuSlaveStruct
 784              		.section	.text.Cy_Prot_ConfigPpuProgMasterStruct,"ax",%progbits
 785              		.align	2
 786              		.global	Cy_Prot_ConfigPpuProgMasterStruct
 787              		.code	16
 788              		.thumb_func
 789              		.type	Cy_Prot_ConfigPpuProgMasterStruct, %function
 790              	Cy_Prot_ConfigPpuProgMasterStruct:
 791              	.LFB46:
 508:Generated_Source\PSoC6\pdl\drivers\peripheral\prot/cy_prot.c **** 
 509:Generated_Source\PSoC6\pdl\drivers\peripheral\prot/cy_prot.c **** 
ARM GAS  C:\Users\kiwamu\AppData\Local\Temp\ccj1MWYe.s 			page 24


 510:Generated_Source\PSoC6\pdl\drivers\peripheral\prot/cy_prot.c **** /*******************************************************************************
 511:Generated_Source\PSoC6\pdl\drivers\peripheral\prot/cy_prot.c **** * Function Name: Cy_Prot_ConfigPpuProgMasterStruct
 512:Generated_Source\PSoC6\pdl\drivers\peripheral\prot/cy_prot.c **** ****************************************************************************//**
 513:Generated_Source\PSoC6\pdl\drivers\peripheral\prot/cy_prot.c **** *
 514:Generated_Source\PSoC6\pdl\drivers\peripheral\prot/cy_prot.c **** * \brief Configures a Programmable Peripheral Protection Unit (PPU PROG) master 
 515:Generated_Source\PSoC6\pdl\drivers\peripheral\prot/cy_prot.c **** * protection struct with its protection attributes. 
 516:Generated_Source\PSoC6\pdl\drivers\peripheral\prot/cy_prot.c **** *
 517:Generated_Source\PSoC6\pdl\drivers\peripheral\prot/cy_prot.c **** * This function configures the master struct governing the corresponding slave
 518:Generated_Source\PSoC6\pdl\drivers\peripheral\prot/cy_prot.c **** * struct pair. It is a mechanism to protect the slave PPU PROG struct. Since
 519:Generated_Source\PSoC6\pdl\drivers\peripheral\prot/cy_prot.c **** * the memory location of the slave struct is known, the address, regionSize and
 520:Generated_Source\PSoC6\pdl\drivers\peripheral\prot/cy_prot.c **** * subregions of the configuration struct are not applicable.
 521:Generated_Source\PSoC6\pdl\drivers\peripheral\prot/cy_prot.c **** *
 522:Generated_Source\PSoC6\pdl\drivers\peripheral\prot/cy_prot.c **** * Note that only the user/privileged write permissions are configurable. The 
 523:Generated_Source\PSoC6\pdl\drivers\peripheral\prot/cy_prot.c **** * read and execute permissions are read-only and cannot be configured.
 524:Generated_Source\PSoC6\pdl\drivers\peripheral\prot/cy_prot.c **** *
 525:Generated_Source\PSoC6\pdl\drivers\peripheral\prot/cy_prot.c **** * \param base
 526:Generated_Source\PSoC6\pdl\drivers\peripheral\prot/cy_prot.c **** * The register base address of the protection struct being configured.
 527:Generated_Source\PSoC6\pdl\drivers\peripheral\prot/cy_prot.c **** * 
 528:Generated_Source\PSoC6\pdl\drivers\peripheral\prot/cy_prot.c **** * \param config
 529:Generated_Source\PSoC6\pdl\drivers\peripheral\prot/cy_prot.c **** * Initialization structure with all the protection attributes.
 530:Generated_Source\PSoC6\pdl\drivers\peripheral\prot/cy_prot.c **** * 
 531:Generated_Source\PSoC6\pdl\drivers\peripheral\prot/cy_prot.c **** * \return
 532:Generated_Source\PSoC6\pdl\drivers\peripheral\prot/cy_prot.c **** * Status of the function call.
 533:Generated_Source\PSoC6\pdl\drivers\peripheral\prot/cy_prot.c **** *
 534:Generated_Source\PSoC6\pdl\drivers\peripheral\prot/cy_prot.c **** *   Status               | Description
 535:Generated_Source\PSoC6\pdl\drivers\peripheral\prot/cy_prot.c **** *   ------------         | -----------
 536:Generated_Source\PSoC6\pdl\drivers\peripheral\prot/cy_prot.c **** *   CY_PROT_SUCCESS      | PPU PROG master struct was successfully configured
 537:Generated_Source\PSoC6\pdl\drivers\peripheral\prot/cy_prot.c **** *   CY_PROT_FAILURE      | The resource is locked
 538:Generated_Source\PSoC6\pdl\drivers\peripheral\prot/cy_prot.c **** *   CY_PROT_BAD_PARAM    | An incorrect/invalid parameter was passed
 539:Generated_Source\PSoC6\pdl\drivers\peripheral\prot/cy_prot.c **** *  
 540:Generated_Source\PSoC6\pdl\drivers\peripheral\prot/cy_prot.c **** *******************************************************************************/
 541:Generated_Source\PSoC6\pdl\drivers\peripheral\prot/cy_prot.c **** cy_en_prot_status_t Cy_Prot_ConfigPpuProgMasterStruct(PERI_PPU_PR_Type* base, const cy_stc_ppu_prog
 542:Generated_Source\PSoC6\pdl\drivers\peripheral\prot/cy_prot.c **** {
 792              		.loc 1 542 0
 793              		.cfi_startproc
 794              		@ args = 0, pretend = 0, frame = 0
 795              		@ frame_needed = 0, uses_anonymous_args = 0
 796              	.LVL82:
 797 0000 70B5     		push	{r4, r5, r6, lr}
 798              		.cfi_def_cfa_offset 16
 799              		.cfi_offset 4, -16
 800              		.cfi_offset 5, -12
 801              		.cfi_offset 6, -8
 802              		.cfi_offset 14, -4
 803              	.LVL83:
 543:Generated_Source\PSoC6\pdl\drivers\peripheral\prot/cy_prot.c ****     cy_en_prot_status_t status = CY_PROT_SUCCESS;
 544:Generated_Source\PSoC6\pdl\drivers\peripheral\prot/cy_prot.c ****     uint32_t attReg;
 545:Generated_Source\PSoC6\pdl\drivers\peripheral\prot/cy_prot.c ****     
 546:Generated_Source\PSoC6\pdl\drivers\peripheral\prot/cy_prot.c ****     if(((uint32_t)config->pcMask & CY_PROT_PPU_PROG_PC_LIMIT_MASK) != 0UL) 
 804              		.loc 1 546 0
 805 0002 4C89     		ldrh	r4, [r1, #10]
 806 0004 7F23     		movs	r3, #127
 807 0006 2200     		movs	r2, r4
 808 0008 9A43     		bics	r2, r3
 809 000a 28D1     		bne	.L67
 547:Generated_Source\PSoC6\pdl\drivers\peripheral\prot/cy_prot.c ****     {
 548:Generated_Source\PSoC6\pdl\drivers\peripheral\prot/cy_prot.c ****         /* PC mask out of range - not supported in device */
ARM GAS  C:\Users\kiwamu\AppData\Local\Temp\ccj1MWYe.s 			page 25


 549:Generated_Source\PSoC6\pdl\drivers\peripheral\prot/cy_prot.c ****         status = CY_PROT_BAD_PARAM;
 550:Generated_Source\PSoC6\pdl\drivers\peripheral\prot/cy_prot.c ****     }
 551:Generated_Source\PSoC6\pdl\drivers\peripheral\prot/cy_prot.c ****     else
 552:Generated_Source\PSoC6\pdl\drivers\peripheral\prot/cy_prot.c ****     {
 553:Generated_Source\PSoC6\pdl\drivers\peripheral\prot/cy_prot.c ****         /* ADDR1 is read only. Only configure ATT1 */
 554:Generated_Source\PSoC6\pdl\drivers\peripheral\prot/cy_prot.c ****         attReg = ((uint32_t)config->userPermission & CY_PROT_ATT_PERMISSION_MASK)
 810              		.loc 1 554 0
 811 000c 8B79     		ldrb	r3, [r1, #6]
 812 000e 0725     		movs	r5, #7
 813 0010 1D40     		ands	r5, r3
 555:Generated_Source\PSoC6\pdl\drivers\peripheral\prot/cy_prot.c ****                     | (uint32_t)(((uint32_t)config->privPermission & CY_PROT_ATT_PERMISSION_MASK) <
 814              		.loc 1 555 0
 815 0012 CA79     		ldrb	r2, [r1, #7]
 816 0014 D200     		lsls	r2, r2, #3
 817 0016 3823     		movs	r3, #56
 818 0018 1340     		ands	r3, r2
 819 001a 1D43     		orrs	r5, r3
 556:Generated_Source\PSoC6\pdl\drivers\peripheral\prot/cy_prot.c ****                     | _VAL2FLD(PERI_PPU_PR_ATT1_NS, !(config->secure))
 820              		.loc 1 556 0
 821 001c 0B7A     		ldrb	r3, [r1, #8]
 822 001e 0122     		movs	r2, #1
 823 0020 5A40     		eors	r2, r3
 824 0022 D2B2     		uxtb	r2, r2
 825 0024 9201     		lsls	r2, r2, #6
 826 0026 4023     		movs	r3, #64
 827 0028 1A40     		ands	r2, r3
 828 002a 2B00     		movs	r3, r5
 829 002c 1343     		orrs	r3, r2
 557:Generated_Source\PSoC6\pdl\drivers\peripheral\prot/cy_prot.c ****                     | _VAL2FLD(PERI_PPU_PR_ATT1_PC_MASK_15_TO_1, config->pcMask)
 830              		.loc 1 557 0
 831 002e 6402     		lsls	r4, r4, #9
 832 0030 0E4A     		ldr	r2, .L70
 833 0032 1440     		ands	r4, r2
 834 0034 1C43     		orrs	r4, r3
 558:Generated_Source\PSoC6\pdl\drivers\peripheral\prot/cy_prot.c ****                     /* No region size - read only for master structs */
 559:Generated_Source\PSoC6\pdl\drivers\peripheral\prot/cy_prot.c ****                     | _VAL2FLD(PERI_PPU_PR_ATT1_PC_MATCH, config->pcMatch);
 835              		.loc 1 559 0
 836 0036 4B7A     		ldrb	r3, [r1, #9]
 837 0038 9B07     		lsls	r3, r3, #30
 838 003a 8021     		movs	r1, #128
 839              	.LVL84:
 840 003c C905     		lsls	r1, r1, #23
 841 003e 0B40     		ands	r3, r1
 842 0040 1A00     		movs	r2, r3
 554:Generated_Source\PSoC6\pdl\drivers\peripheral\prot/cy_prot.c ****                     | (uint32_t)(((uint32_t)config->privPermission & CY_PROT_ATT_PERMISSION_MASK) <
 843              		.loc 1 554 0
 844 0042 2300     		movs	r3, r4
 845 0044 1343     		orrs	r3, r2
 846              	.LVL85:
 560:Generated_Source\PSoC6\pdl\drivers\peripheral\prot/cy_prot.c ****         if ((attReg & CY_PROT_PPU_PROG_ATT1_MASK) != attReg)
 847              		.loc 1 560 0
 848 0046 0A4A     		ldr	r2, .L70+4
 849 0048 1A40     		ands	r2, r3
 850 004a 9342     		cmp	r3, r2
 851 004c 09D1     		bne	.L68
 561:Generated_Source\PSoC6\pdl\drivers\peripheral\prot/cy_prot.c ****         {
 562:Generated_Source\PSoC6\pdl\drivers\peripheral\prot/cy_prot.c ****             /* Invalid parameter was passed */
ARM GAS  C:\Users\kiwamu\AppData\Local\Temp\ccj1MWYe.s 			page 26


 563:Generated_Source\PSoC6\pdl\drivers\peripheral\prot/cy_prot.c ****             status = CY_PROT_BAD_PARAM;
 564:Generated_Source\PSoC6\pdl\drivers\peripheral\prot/cy_prot.c ****         }
 565:Generated_Source\PSoC6\pdl\drivers\peripheral\prot/cy_prot.c ****         else
 566:Generated_Source\PSoC6\pdl\drivers\peripheral\prot/cy_prot.c ****         {
 567:Generated_Source\PSoC6\pdl\drivers\peripheral\prot/cy_prot.c ****             base->ATT1 = attReg;
 852              		.loc 1 567 0
 853 004e 4362     		str	r3, [r0, #36]
 568:Generated_Source\PSoC6\pdl\drivers\peripheral\prot/cy_prot.c ****             status = ((base->ATT1 & CY_PROT_PPU_PROG_ATT1_MASK) != attReg) ? CY_PROT_FAILURE : CY_P
 854              		.loc 1 568 0
 855 0050 416A     		ldr	r1, [r0, #36]
 856 0052 074A     		ldr	r2, .L70+4
 857 0054 0A40     		ands	r2, r1
 858 0056 9342     		cmp	r3, r2
 859 0058 05D0     		beq	.L69
 860 005a 0648     		ldr	r0, .L70+8
 861              	.LVL86:
 862 005c 04E0     		b	.L66
 863              	.LVL87:
 864              	.L67:
 549:Generated_Source\PSoC6\pdl\drivers\peripheral\prot/cy_prot.c ****     }
 865              		.loc 1 549 0
 866 005e 0648     		ldr	r0, .L70+12
 867              	.LVL88:
 868 0060 02E0     		b	.L66
 869              	.LVL89:
 870              	.L68:
 563:Generated_Source\PSoC6\pdl\drivers\peripheral\prot/cy_prot.c ****         }
 871              		.loc 1 563 0
 872 0062 0548     		ldr	r0, .L70+12
 873              	.LVL90:
 874 0064 00E0     		b	.L66
 875              	.LVL91:
 876              	.L69:
 877              		.loc 1 568 0
 878 0066 0020     		movs	r0, #0
 879              	.LVL92:
 880              	.L66:
 569:Generated_Source\PSoC6\pdl\drivers\peripheral\prot/cy_prot.c ****         }
 570:Generated_Source\PSoC6\pdl\drivers\peripheral\prot/cy_prot.c ****     }
 571:Generated_Source\PSoC6\pdl\drivers\peripheral\prot/cy_prot.c **** 
 572:Generated_Source\PSoC6\pdl\drivers\peripheral\prot/cy_prot.c ****     return status;
 573:Generated_Source\PSoC6\pdl\drivers\peripheral\prot/cy_prot.c **** }
 881              		.loc 1 573 0
 882              		@ sp needed
 883 0068 70BD     		pop	{r4, r5, r6, pc}
 884              	.L71:
 885 006a C046     		.align	2
 886              	.L70:
 887 006c 00FEFF00 		.word	16776704
 888 0070 D2FEFFE0 		.word	-520093998
 889 0074 0300C200 		.word	12713987
 890 0078 0100C200 		.word	12713985
 891              		.cfi_endproc
 892              	.LFE46:
 893              		.size	Cy_Prot_ConfigPpuProgMasterStruct, .-Cy_Prot_ConfigPpuProgMasterStruct
 894              		.section	.text.Cy_Prot_ConfigPpuProgSlaveStruct,"ax",%progbits
 895              		.align	2
ARM GAS  C:\Users\kiwamu\AppData\Local\Temp\ccj1MWYe.s 			page 27


 896              		.global	Cy_Prot_ConfigPpuProgSlaveStruct
 897              		.code	16
 898              		.thumb_func
 899              		.type	Cy_Prot_ConfigPpuProgSlaveStruct, %function
 900              	Cy_Prot_ConfigPpuProgSlaveStruct:
 901              	.LFB47:
 574:Generated_Source\PSoC6\pdl\drivers\peripheral\prot/cy_prot.c **** 
 575:Generated_Source\PSoC6\pdl\drivers\peripheral\prot/cy_prot.c **** /*******************************************************************************
 576:Generated_Source\PSoC6\pdl\drivers\peripheral\prot/cy_prot.c **** * Function Name: Cy_Prot_ConfigPpuProgSlaveStruct
 577:Generated_Source\PSoC6\pdl\drivers\peripheral\prot/cy_prot.c **** ****************************************************************************//**
 578:Generated_Source\PSoC6\pdl\drivers\peripheral\prot/cy_prot.c **** *
 579:Generated_Source\PSoC6\pdl\drivers\peripheral\prot/cy_prot.c **** * \brief Configures a Programmable Peripheral Protection Unit (PPU PROG) slave
 580:Generated_Source\PSoC6\pdl\drivers\peripheral\prot/cy_prot.c **** * protection struct with its protection attributes. 
 581:Generated_Source\PSoC6\pdl\drivers\peripheral\prot/cy_prot.c **** * 
 582:Generated_Source\PSoC6\pdl\drivers\peripheral\prot/cy_prot.c **** * This function configures the slave struct of a PPU PROG pair, which can 
 583:Generated_Source\PSoC6\pdl\drivers\peripheral\prot/cy_prot.c **** * protect any peripheral memory region in a device from invalid bus master 
 584:Generated_Source\PSoC6\pdl\drivers\peripheral\prot/cy_prot.c **** * accesses.
 585:Generated_Source\PSoC6\pdl\drivers\peripheral\prot/cy_prot.c **** *
 586:Generated_Source\PSoC6\pdl\drivers\peripheral\prot/cy_prot.c **** * Note that the user/privileged execute accesses are read-only and are always 
 587:Generated_Source\PSoC6\pdl\drivers\peripheral\prot/cy_prot.c **** * enabled. 
 588:Generated_Source\PSoC6\pdl\drivers\peripheral\prot/cy_prot.c **** *
 589:Generated_Source\PSoC6\pdl\drivers\peripheral\prot/cy_prot.c **** * \param base
 590:Generated_Source\PSoC6\pdl\drivers\peripheral\prot/cy_prot.c **** * The register base address of the protection structure being configured.
 591:Generated_Source\PSoC6\pdl\drivers\peripheral\prot/cy_prot.c **** * 
 592:Generated_Source\PSoC6\pdl\drivers\peripheral\prot/cy_prot.c **** * \param config
 593:Generated_Source\PSoC6\pdl\drivers\peripheral\prot/cy_prot.c **** * Initialization structure with all the protection attributes.
 594:Generated_Source\PSoC6\pdl\drivers\peripheral\prot/cy_prot.c **** * 
 595:Generated_Source\PSoC6\pdl\drivers\peripheral\prot/cy_prot.c **** * \return
 596:Generated_Source\PSoC6\pdl\drivers\peripheral\prot/cy_prot.c **** * Status of the function call.
 597:Generated_Source\PSoC6\pdl\drivers\peripheral\prot/cy_prot.c **** *
 598:Generated_Source\PSoC6\pdl\drivers\peripheral\prot/cy_prot.c **** *   Status               | Description
 599:Generated_Source\PSoC6\pdl\drivers\peripheral\prot/cy_prot.c **** *   ------------         | -----------
 600:Generated_Source\PSoC6\pdl\drivers\peripheral\prot/cy_prot.c **** *   CY_PROT_SUCCESS      | PPU PROG slave struct was successfully configured
 601:Generated_Source\PSoC6\pdl\drivers\peripheral\prot/cy_prot.c **** *   CY_PROT_FAILURE      | The resource is locked
 602:Generated_Source\PSoC6\pdl\drivers\peripheral\prot/cy_prot.c **** *   CY_PROT_BAD_PARAM    | An incorrect/invalid parameter was passed
 603:Generated_Source\PSoC6\pdl\drivers\peripheral\prot/cy_prot.c **** *  
 604:Generated_Source\PSoC6\pdl\drivers\peripheral\prot/cy_prot.c **** *******************************************************************************/
 605:Generated_Source\PSoC6\pdl\drivers\peripheral\prot/cy_prot.c **** cy_en_prot_status_t Cy_Prot_ConfigPpuProgSlaveStruct(PERI_PPU_PR_Type* base, const cy_stc_ppu_prog_
 606:Generated_Source\PSoC6\pdl\drivers\peripheral\prot/cy_prot.c **** {
 902              		.loc 1 606 0
 903              		.cfi_startproc
 904              		@ args = 0, pretend = 0, frame = 0
 905              		@ frame_needed = 0, uses_anonymous_args = 0
 906              	.LVL93:
 907 0000 F0B5     		push	{r4, r5, r6, r7, lr}
 908              		.cfi_def_cfa_offset 20
 909              		.cfi_offset 4, -20
 910              		.cfi_offset 5, -16
 911              		.cfi_offset 6, -12
 912              		.cfi_offset 7, -8
 913              		.cfi_offset 14, -4
 914              	.LVL94:
 607:Generated_Source\PSoC6\pdl\drivers\peripheral\prot/cy_prot.c ****     cy_en_prot_status_t status = CY_PROT_SUCCESS;
 608:Generated_Source\PSoC6\pdl\drivers\peripheral\prot/cy_prot.c ****     uint32_t addrReg;
 609:Generated_Source\PSoC6\pdl\drivers\peripheral\prot/cy_prot.c ****     uint32_t attReg;
 610:Generated_Source\PSoC6\pdl\drivers\peripheral\prot/cy_prot.c ****     
 611:Generated_Source\PSoC6\pdl\drivers\peripheral\prot/cy_prot.c ****     if(((uint32_t)config->pcMask & CY_PROT_PPU_PROG_PC_LIMIT_MASK) != 0UL) 
ARM GAS  C:\Users\kiwamu\AppData\Local\Temp\ccj1MWYe.s 			page 28


 915              		.loc 1 611 0
 916 0002 4C89     		ldrh	r4, [r1, #10]
 917 0004 7F23     		movs	r3, #127
 918 0006 2200     		movs	r2, r4
 919 0008 9A43     		bics	r2, r3
 920 000a 131E     		subs	r3, r2, #0
 921 000c 39D1     		bne	.L74
 612:Generated_Source\PSoC6\pdl\drivers\peripheral\prot/cy_prot.c ****     {
 613:Generated_Source\PSoC6\pdl\drivers\peripheral\prot/cy_prot.c ****         /* PC mask out of range - not supported in device */
 614:Generated_Source\PSoC6\pdl\drivers\peripheral\prot/cy_prot.c ****         status = CY_PROT_BAD_PARAM;
 615:Generated_Source\PSoC6\pdl\drivers\peripheral\prot/cy_prot.c ****     }
 616:Generated_Source\PSoC6\pdl\drivers\peripheral\prot/cy_prot.c ****     else
 617:Generated_Source\PSoC6\pdl\drivers\peripheral\prot/cy_prot.c ****     {
 618:Generated_Source\PSoC6\pdl\drivers\peripheral\prot/cy_prot.c ****         addrReg= _VAL2FLD(PERI_PPU_PR_ADDR0_SUBREGION_DISABLE, config->subregions)
 922              		.loc 1 618 0
 923 000e 4E79     		ldrb	r6, [r1, #5]
 619:Generated_Source\PSoC6\pdl\drivers\peripheral\prot/cy_prot.c ****                     | _VAL2FLD(PERI_PPU_PR_ADDR0_ADDR24, (uint32_t)((uint32_t)config->address >> CY
 924              		.loc 1 619 0
 925 0010 FF33     		adds	r3, r3, #255
 926 0012 0A68     		ldr	r2, [r1]
 927 0014 9A43     		bics	r2, r3
 618:Generated_Source\PSoC6\pdl\drivers\peripheral\prot/cy_prot.c ****                     | _VAL2FLD(PERI_PPU_PR_ADDR0_ADDR24, (uint32_t)((uint32_t)config->address >> CY
 928              		.loc 1 618 0
 929 0016 1643     		orrs	r6, r2
 930              	.LVL95:
 620:Generated_Source\PSoC6\pdl\drivers\peripheral\prot/cy_prot.c ****         attReg= ((uint32_t)config->userPermission & CY_PROT_ATT_PERMISSION_MASK)
 931              		.loc 1 620 0
 932 0018 8B79     		ldrb	r3, [r1, #6]
 933 001a 0725     		movs	r5, #7
 934 001c 1D40     		ands	r5, r3
 621:Generated_Source\PSoC6\pdl\drivers\peripheral\prot/cy_prot.c ****                     | (uint32_t)(((uint32_t)config->privPermission & CY_PROT_ATT_PERMISSION_MASK) <
 935              		.loc 1 621 0
 936 001e CA79     		ldrb	r2, [r1, #7]
 937 0020 D200     		lsls	r2, r2, #3
 938 0022 3823     		movs	r3, #56
 939 0024 1340     		ands	r3, r2
 940 0026 1D43     		orrs	r5, r3
 622:Generated_Source\PSoC6\pdl\drivers\peripheral\prot/cy_prot.c ****                     | _VAL2FLD(PERI_PPU_PR_ATT0_NS, !(config->secure))
 941              		.loc 1 622 0
 942 0028 0B7A     		ldrb	r3, [r1, #8]
 943 002a 0122     		movs	r2, #1
 944 002c 5A40     		eors	r2, r3
 945 002e D2B2     		uxtb	r2, r2
 946 0030 9201     		lsls	r2, r2, #6
 947 0032 4023     		movs	r3, #64
 948 0034 1A40     		ands	r2, r3
 949 0036 2B00     		movs	r3, r5
 950 0038 1343     		orrs	r3, r2
 623:Generated_Source\PSoC6\pdl\drivers\peripheral\prot/cy_prot.c ****                     | _VAL2FLD(PERI_PPU_PR_ATT0_PC_MASK_15_TO_1, config->pcMask)
 951              		.loc 1 623 0
 952 003a 6402     		lsls	r4, r4, #9
 953 003c 154A     		ldr	r2, .L78
 954 003e 1440     		ands	r4, r2
 955 0040 2343     		orrs	r3, r4
 624:Generated_Source\PSoC6\pdl\drivers\peripheral\prot/cy_prot.c ****                     | _VAL2FLD(PERI_PPU_PR_ATT0_REGION_SIZE, config->regionSize)
 956              		.loc 1 624 0
 957 0042 0C79     		ldrb	r4, [r1, #4]
ARM GAS  C:\Users\kiwamu\AppData\Local\Temp\ccj1MWYe.s 			page 29


 958 0044 2406     		lsls	r4, r4, #24
 959 0046 F825     		movs	r5, #248
 960 0048 6D05     		lsls	r5, r5, #21
 961 004a 2200     		movs	r2, r4
 962 004c 2A40     		ands	r2, r5
 963 004e 1343     		orrs	r3, r2
 964 0050 1C00     		movs	r4, r3
 625:Generated_Source\PSoC6\pdl\drivers\peripheral\prot/cy_prot.c ****                     | _VAL2FLD(PERI_PPU_PR_ATT0_PC_MATCH, config->pcMatch);
 965              		.loc 1 625 0
 966 0052 4B7A     		ldrb	r3, [r1, #9]
 967 0054 9B07     		lsls	r3, r3, #30
 968 0056 8021     		movs	r1, #128
 969              	.LVL96:
 970 0058 C905     		lsls	r1, r1, #23
 971 005a 0B40     		ands	r3, r1
 972 005c 1A00     		movs	r2, r3
 620:Generated_Source\PSoC6\pdl\drivers\peripheral\prot/cy_prot.c ****                     | (uint32_t)(((uint32_t)config->privPermission & CY_PROT_ATT_PERMISSION_MASK) <
 973              		.loc 1 620 0
 974 005e 2300     		movs	r3, r4
 975 0060 1343     		orrs	r3, r2
 976              	.LVL97:
 626:Generated_Source\PSoC6\pdl\drivers\peripheral\prot/cy_prot.c ****         if ((attReg & CY_PROT_PPU_PROG_ATT0_MASK) != attReg)
 977              		.loc 1 626 0
 978 0062 0D4A     		ldr	r2, .L78+4
 979 0064 1A40     		ands	r2, r3
 980 0066 9342     		cmp	r3, r2
 981 0068 0DD1     		bne	.L75
 627:Generated_Source\PSoC6\pdl\drivers\peripheral\prot/cy_prot.c ****         {
 628:Generated_Source\PSoC6\pdl\drivers\peripheral\prot/cy_prot.c ****             /* Invalid parameter was passed */
 629:Generated_Source\PSoC6\pdl\drivers\peripheral\prot/cy_prot.c ****             status = CY_PROT_BAD_PARAM;
 630:Generated_Source\PSoC6\pdl\drivers\peripheral\prot/cy_prot.c ****         }
 631:Generated_Source\PSoC6\pdl\drivers\peripheral\prot/cy_prot.c ****         else
 632:Generated_Source\PSoC6\pdl\drivers\peripheral\prot/cy_prot.c ****         {
 633:Generated_Source\PSoC6\pdl\drivers\peripheral\prot/cy_prot.c ****             base->ATT0 = attReg;
 982              		.loc 1 633 0
 983 006a 4360     		str	r3, [r0, #4]
 634:Generated_Source\PSoC6\pdl\drivers\peripheral\prot/cy_prot.c ****             base->ADDR0 = addrReg;
 984              		.loc 1 634 0
 985 006c 0660     		str	r6, [r0]
 635:Generated_Source\PSoC6\pdl\drivers\peripheral\prot/cy_prot.c ****             status = ((base->ADDR0 != addrReg) || ((base->ATT0 & CY_PROT_PPU_PROG_ATT0_MASK) != att
 986              		.loc 1 635 0
 987 006e 0268     		ldr	r2, [r0]
 988 0070 9642     		cmp	r6, r2
 989 0072 0AD1     		bne	.L76
 990              		.loc 1 635 0 is_stmt 0 discriminator 2
 991 0074 4168     		ldr	r1, [r0, #4]
 992 0076 084A     		ldr	r2, .L78+4
 993 0078 0A40     		ands	r2, r1
 994 007a 9342     		cmp	r3, r2
 995 007c 07D0     		beq	.L77
 996              		.loc 1 635 0
 997 007e 0748     		ldr	r0, .L78+8
 998              	.LVL98:
 999 0080 06E0     		b	.L73
 1000              	.LVL99:
 1001              	.L74:
 614:Generated_Source\PSoC6\pdl\drivers\peripheral\prot/cy_prot.c ****     }
ARM GAS  C:\Users\kiwamu\AppData\Local\Temp\ccj1MWYe.s 			page 30


 1002              		.loc 1 614 0 is_stmt 1
 1003 0082 0748     		ldr	r0, .L78+12
 1004              	.LVL100:
 1005 0084 04E0     		b	.L73
 1006              	.LVL101:
 1007              	.L75:
 629:Generated_Source\PSoC6\pdl\drivers\peripheral\prot/cy_prot.c ****         }
 1008              		.loc 1 629 0
 1009 0086 0648     		ldr	r0, .L78+12
 1010              	.LVL102:
 1011 0088 02E0     		b	.L73
 1012              	.LVL103:
 1013              	.L76:
 1014              		.loc 1 635 0
 1015 008a 0448     		ldr	r0, .L78+8
 1016              	.LVL104:
 1017 008c 00E0     		b	.L73
 1018              	.LVL105:
 1019              	.L77:
 1020 008e 0020     		movs	r0, #0
 1021              	.LVL106:
 1022              	.L73:
 636:Generated_Source\PSoC6\pdl\drivers\peripheral\prot/cy_prot.c ****                         ? CY_PROT_FAILURE : CY_PROT_SUCCESS;
 637:Generated_Source\PSoC6\pdl\drivers\peripheral\prot/cy_prot.c ****         }
 638:Generated_Source\PSoC6\pdl\drivers\peripheral\prot/cy_prot.c ****     }
 639:Generated_Source\PSoC6\pdl\drivers\peripheral\prot/cy_prot.c ****     
 640:Generated_Source\PSoC6\pdl\drivers\peripheral\prot/cy_prot.c ****     return status;
 641:Generated_Source\PSoC6\pdl\drivers\peripheral\prot/cy_prot.c **** }
 1023              		.loc 1 641 0
 1024              		@ sp needed
 1025 0090 F0BD     		pop	{r4, r5, r6, r7, pc}
 1026              	.L79:
 1027 0092 C046     		.align	2
 1028              	.L78:
 1029 0094 00FEFF00 		.word	16776704
 1030 0098 DBFEFFFF 		.word	-293
 1031 009c 0300C200 		.word	12713987
 1032 00a0 0100C200 		.word	12713985
 1033              		.cfi_endproc
 1034              	.LFE47:
 1035              		.size	Cy_Prot_ConfigPpuProgSlaveStruct, .-Cy_Prot_ConfigPpuProgSlaveStruct
 1036              		.section	.text.Cy_Prot_EnablePpuProgMasterStruct,"ax",%progbits
 1037              		.align	2
 1038              		.global	Cy_Prot_EnablePpuProgMasterStruct
 1039              		.code	16
 1040              		.thumb_func
 1041              		.type	Cy_Prot_EnablePpuProgMasterStruct, %function
 1042              	Cy_Prot_EnablePpuProgMasterStruct:
 1043              	.LFB48:
 642:Generated_Source\PSoC6\pdl\drivers\peripheral\prot/cy_prot.c **** 
 643:Generated_Source\PSoC6\pdl\drivers\peripheral\prot/cy_prot.c **** 
 644:Generated_Source\PSoC6\pdl\drivers\peripheral\prot/cy_prot.c **** /*******************************************************************************
 645:Generated_Source\PSoC6\pdl\drivers\peripheral\prot/cy_prot.c **** * Function Name: Cy_Prot_EnablePpuProgMasterStruct
 646:Generated_Source\PSoC6\pdl\drivers\peripheral\prot/cy_prot.c **** ****************************************************************************//**
 647:Generated_Source\PSoC6\pdl\drivers\peripheral\prot/cy_prot.c **** *
 648:Generated_Source\PSoC6\pdl\drivers\peripheral\prot/cy_prot.c **** * \brief Enables the Master PPU PROG structure.
 649:Generated_Source\PSoC6\pdl\drivers\peripheral\prot/cy_prot.c **** *
ARM GAS  C:\Users\kiwamu\AppData\Local\Temp\ccj1MWYe.s 			page 31


 650:Generated_Source\PSoC6\pdl\drivers\peripheral\prot/cy_prot.c **** * This is a PPU PROG master struct enable function. The PPU PROG protection 
 651:Generated_Source\PSoC6\pdl\drivers\peripheral\prot/cy_prot.c **** * settings will take effect after successful completion of this function call.
 652:Generated_Source\PSoC6\pdl\drivers\peripheral\prot/cy_prot.c **** *
 653:Generated_Source\PSoC6\pdl\drivers\peripheral\prot/cy_prot.c **** * \param base
 654:Generated_Source\PSoC6\pdl\drivers\peripheral\prot/cy_prot.c **** * The base address for the protection unit structure being configured. 
 655:Generated_Source\PSoC6\pdl\drivers\peripheral\prot/cy_prot.c **** *
 656:Generated_Source\PSoC6\pdl\drivers\peripheral\prot/cy_prot.c **** * \return
 657:Generated_Source\PSoC6\pdl\drivers\peripheral\prot/cy_prot.c **** * Status of the function call.
 658:Generated_Source\PSoC6\pdl\drivers\peripheral\prot/cy_prot.c **** *
 659:Generated_Source\PSoC6\pdl\drivers\peripheral\prot/cy_prot.c **** *   Status               | Description
 660:Generated_Source\PSoC6\pdl\drivers\peripheral\prot/cy_prot.c **** *   ------------         | -----------
 661:Generated_Source\PSoC6\pdl\drivers\peripheral\prot/cy_prot.c **** *   CY_PROT_SUCCESS      | The Master PU struct was enabled
 662:Generated_Source\PSoC6\pdl\drivers\peripheral\prot/cy_prot.c **** *   CY_PROT_FAILURE      | The Master PU struct is disabled and possibly locked
 663:Generated_Source\PSoC6\pdl\drivers\peripheral\prot/cy_prot.c **** *  
 664:Generated_Source\PSoC6\pdl\drivers\peripheral\prot/cy_prot.c **** *******************************************************************************/
 665:Generated_Source\PSoC6\pdl\drivers\peripheral\prot/cy_prot.c **** cy_en_prot_status_t Cy_Prot_EnablePpuProgMasterStruct(PERI_PPU_PR_Type* base)
 666:Generated_Source\PSoC6\pdl\drivers\peripheral\prot/cy_prot.c **** {
 1044              		.loc 1 666 0
 1045              		.cfi_startproc
 1046              		@ args = 0, pretend = 0, frame = 0
 1047              		@ frame_needed = 0, uses_anonymous_args = 0
 1048              		@ link register save eliminated.
 1049              	.LVL107:
 667:Generated_Source\PSoC6\pdl\drivers\peripheral\prot/cy_prot.c ****     cy_en_prot_status_t status = CY_PROT_SUCCESS;
 668:Generated_Source\PSoC6\pdl\drivers\peripheral\prot/cy_prot.c ****     
 669:Generated_Source\PSoC6\pdl\drivers\peripheral\prot/cy_prot.c ****     base->ATT1 |= _VAL2FLD(PERI_PPU_PR_ATT1_ENABLED, CY_PROT_STRUCT_ENABLE);
 1050              		.loc 1 669 0
 1051 0000 436A     		ldr	r3, [r0, #36]
 1052 0002 8022     		movs	r2, #128
 1053 0004 1206     		lsls	r2, r2, #24
 1054 0006 1343     		orrs	r3, r2
 1055 0008 4362     		str	r3, [r0, #36]
 670:Generated_Source\PSoC6\pdl\drivers\peripheral\prot/cy_prot.c ****     status = (_FLD2VAL(PERI_PPU_PR_ATT1_ENABLED, base->ATT1) != CY_PROT_STRUCT_ENABLE) ?
 1056              		.loc 1 670 0
 1057 000a 436A     		ldr	r3, [r0, #36]
 1058 000c 002B     		cmp	r3, #0
 1059 000e 01DB     		blt	.L82
 1060 0010 0148     		ldr	r0, .L83
 1061              	.LVL108:
 1062 0012 00E0     		b	.L81
 1063              	.LVL109:
 1064              	.L82:
 1065 0014 0020     		movs	r0, #0
 1066              	.LVL110:
 1067              	.L81:
 671:Generated_Source\PSoC6\pdl\drivers\peripheral\prot/cy_prot.c ****                 CY_PROT_FAILURE : CY_PROT_SUCCESS;
 672:Generated_Source\PSoC6\pdl\drivers\peripheral\prot/cy_prot.c ****     
 673:Generated_Source\PSoC6\pdl\drivers\peripheral\prot/cy_prot.c ****     return status;
 674:Generated_Source\PSoC6\pdl\drivers\peripheral\prot/cy_prot.c **** }
 1068              		.loc 1 674 0 discriminator 4
 1069              		@ sp needed
 1070 0016 7047     		bx	lr
 1071              	.L84:
 1072              		.align	2
 1073              	.L83:
 1074 0018 0300C200 		.word	12713987
 1075              		.cfi_endproc
ARM GAS  C:\Users\kiwamu\AppData\Local\Temp\ccj1MWYe.s 			page 32


 1076              	.LFE48:
 1077              		.size	Cy_Prot_EnablePpuProgMasterStruct, .-Cy_Prot_EnablePpuProgMasterStruct
 1078              		.section	.text.Cy_Prot_DisablePpuProgMasterStruct,"ax",%progbits
 1079              		.align	2
 1080              		.global	Cy_Prot_DisablePpuProgMasterStruct
 1081              		.code	16
 1082              		.thumb_func
 1083              		.type	Cy_Prot_DisablePpuProgMasterStruct, %function
 1084              	Cy_Prot_DisablePpuProgMasterStruct:
 1085              	.LFB49:
 675:Generated_Source\PSoC6\pdl\drivers\peripheral\prot/cy_prot.c **** 
 676:Generated_Source\PSoC6\pdl\drivers\peripheral\prot/cy_prot.c **** 
 677:Generated_Source\PSoC6\pdl\drivers\peripheral\prot/cy_prot.c **** /*******************************************************************************
 678:Generated_Source\PSoC6\pdl\drivers\peripheral\prot/cy_prot.c **** * Function Name: Cy_Prot_DisablePpuProgMasterStruct
 679:Generated_Source\PSoC6\pdl\drivers\peripheral\prot/cy_prot.c **** ****************************************************************************//**
 680:Generated_Source\PSoC6\pdl\drivers\peripheral\prot/cy_prot.c **** *
 681:Generated_Source\PSoC6\pdl\drivers\peripheral\prot/cy_prot.c **** * \brief Disables the Master PPU PROG structure.
 682:Generated_Source\PSoC6\pdl\drivers\peripheral\prot/cy_prot.c **** *
 683:Generated_Source\PSoC6\pdl\drivers\peripheral\prot/cy_prot.c **** * This is a PPU PROG master struct disable function. The PPU PROG protection 
 684:Generated_Source\PSoC6\pdl\drivers\peripheral\prot/cy_prot.c **** * settings will seize to take effect after successful completion of this 
 685:Generated_Source\PSoC6\pdl\drivers\peripheral\prot/cy_prot.c **** * function call.
 686:Generated_Source\PSoC6\pdl\drivers\peripheral\prot/cy_prot.c **** *
 687:Generated_Source\PSoC6\pdl\drivers\peripheral\prot/cy_prot.c **** * \param base
 688:Generated_Source\PSoC6\pdl\drivers\peripheral\prot/cy_prot.c **** * The base address for the protection unit structure being configured. 
 689:Generated_Source\PSoC6\pdl\drivers\peripheral\prot/cy_prot.c **** *
 690:Generated_Source\PSoC6\pdl\drivers\peripheral\prot/cy_prot.c **** * \return
 691:Generated_Source\PSoC6\pdl\drivers\peripheral\prot/cy_prot.c **** * Status of the function call.
 692:Generated_Source\PSoC6\pdl\drivers\peripheral\prot/cy_prot.c **** *
 693:Generated_Source\PSoC6\pdl\drivers\peripheral\prot/cy_prot.c **** *   Status               | Description
 694:Generated_Source\PSoC6\pdl\drivers\peripheral\prot/cy_prot.c **** *   ------------         | -----------
 695:Generated_Source\PSoC6\pdl\drivers\peripheral\prot/cy_prot.c **** *   CY_PROT_SUCCESS      | The Master PU struct was disabled
 696:Generated_Source\PSoC6\pdl\drivers\peripheral\prot/cy_prot.c **** *   CY_PROT_FAILURE      | The Master PU struct is enabled and possibly locked
 697:Generated_Source\PSoC6\pdl\drivers\peripheral\prot/cy_prot.c **** *  
 698:Generated_Source\PSoC6\pdl\drivers\peripheral\prot/cy_prot.c **** *******************************************************************************/
 699:Generated_Source\PSoC6\pdl\drivers\peripheral\prot/cy_prot.c **** cy_en_prot_status_t Cy_Prot_DisablePpuProgMasterStruct(PERI_PPU_PR_Type* base)
 700:Generated_Source\PSoC6\pdl\drivers\peripheral\prot/cy_prot.c **** {
 1086              		.loc 1 700 0
 1087              		.cfi_startproc
 1088              		@ args = 0, pretend = 0, frame = 0
 1089              		@ frame_needed = 0, uses_anonymous_args = 0
 1090              		@ link register save eliminated.
 1091              	.LVL111:
 701:Generated_Source\PSoC6\pdl\drivers\peripheral\prot/cy_prot.c ****     cy_en_prot_status_t status = CY_PROT_SUCCESS;
 702:Generated_Source\PSoC6\pdl\drivers\peripheral\prot/cy_prot.c ****     
 703:Generated_Source\PSoC6\pdl\drivers\peripheral\prot/cy_prot.c ****     base->ATT1 &= ~_VAL2FLD(PERI_PPU_PR_ATT1_ENABLED, CY_PROT_STRUCT_ENABLE);
 1092              		.loc 1 703 0
 1093 0000 436A     		ldr	r3, [r0, #36]
 1094 0002 5B00     		lsls	r3, r3, #1
 1095 0004 5B08     		lsrs	r3, r3, #1
 1096 0006 4362     		str	r3, [r0, #36]
 704:Generated_Source\PSoC6\pdl\drivers\peripheral\prot/cy_prot.c ****     status = (_FLD2VAL(PERI_PPU_PR_ATT1_ENABLED, base->ATT1) == CY_PROT_STRUCT_ENABLE) ?
 1097              		.loc 1 704 0
 1098 0008 436A     		ldr	r3, [r0, #36]
 1099 000a 002B     		cmp	r3, #0
 1100 000c 01DA     		bge	.L87
 1101 000e 0248     		ldr	r0, .L88
 1102              	.LVL112:
ARM GAS  C:\Users\kiwamu\AppData\Local\Temp\ccj1MWYe.s 			page 33


 1103 0010 00E0     		b	.L86
 1104              	.LVL113:
 1105              	.L87:
 1106 0012 0020     		movs	r0, #0
 1107              	.LVL114:
 1108              	.L86:
 705:Generated_Source\PSoC6\pdl\drivers\peripheral\prot/cy_prot.c ****                 CY_PROT_FAILURE : CY_PROT_SUCCESS;
 706:Generated_Source\PSoC6\pdl\drivers\peripheral\prot/cy_prot.c ****     
 707:Generated_Source\PSoC6\pdl\drivers\peripheral\prot/cy_prot.c ****     return status;
 708:Generated_Source\PSoC6\pdl\drivers\peripheral\prot/cy_prot.c **** }
 1109              		.loc 1 708 0 discriminator 4
 1110              		@ sp needed
 1111 0014 7047     		bx	lr
 1112              	.L89:
 1113 0016 C046     		.align	2
 1114              	.L88:
 1115 0018 0300C200 		.word	12713987
 1116              		.cfi_endproc
 1117              	.LFE49:
 1118              		.size	Cy_Prot_DisablePpuProgMasterStruct, .-Cy_Prot_DisablePpuProgMasterStruct
 1119              		.section	.text.Cy_Prot_EnablePpuProgSlaveStruct,"ax",%progbits
 1120              		.align	2
 1121              		.global	Cy_Prot_EnablePpuProgSlaveStruct
 1122              		.code	16
 1123              		.thumb_func
 1124              		.type	Cy_Prot_EnablePpuProgSlaveStruct, %function
 1125              	Cy_Prot_EnablePpuProgSlaveStruct:
 1126              	.LFB50:
 709:Generated_Source\PSoC6\pdl\drivers\peripheral\prot/cy_prot.c **** 
 710:Generated_Source\PSoC6\pdl\drivers\peripheral\prot/cy_prot.c **** 
 711:Generated_Source\PSoC6\pdl\drivers\peripheral\prot/cy_prot.c **** /*******************************************************************************
 712:Generated_Source\PSoC6\pdl\drivers\peripheral\prot/cy_prot.c **** * Function Name: Cy_Prot_EnablePpuProgSlaveStruct
 713:Generated_Source\PSoC6\pdl\drivers\peripheral\prot/cy_prot.c **** ****************************************************************************//**
 714:Generated_Source\PSoC6\pdl\drivers\peripheral\prot/cy_prot.c **** *
 715:Generated_Source\PSoC6\pdl\drivers\peripheral\prot/cy_prot.c **** * \brief Enables the Slave PPU PROG structure.
 716:Generated_Source\PSoC6\pdl\drivers\peripheral\prot/cy_prot.c **** *
 717:Generated_Source\PSoC6\pdl\drivers\peripheral\prot/cy_prot.c **** * This is a PPU PROG slave struct enable function. The PPU PROG protection 
 718:Generated_Source\PSoC6\pdl\drivers\peripheral\prot/cy_prot.c **** * settings will take effect after successful completion of this function call.
 719:Generated_Source\PSoC6\pdl\drivers\peripheral\prot/cy_prot.c **** *
 720:Generated_Source\PSoC6\pdl\drivers\peripheral\prot/cy_prot.c **** * \param base
 721:Generated_Source\PSoC6\pdl\drivers\peripheral\prot/cy_prot.c **** * The base address for the protection unit structure being configured. 
 722:Generated_Source\PSoC6\pdl\drivers\peripheral\prot/cy_prot.c **** *
 723:Generated_Source\PSoC6\pdl\drivers\peripheral\prot/cy_prot.c **** * \return
 724:Generated_Source\PSoC6\pdl\drivers\peripheral\prot/cy_prot.c **** * Status of the function call.
 725:Generated_Source\PSoC6\pdl\drivers\peripheral\prot/cy_prot.c **** *
 726:Generated_Source\PSoC6\pdl\drivers\peripheral\prot/cy_prot.c **** *   Status               | Description
 727:Generated_Source\PSoC6\pdl\drivers\peripheral\prot/cy_prot.c **** *   ------------         | -----------
 728:Generated_Source\PSoC6\pdl\drivers\peripheral\prot/cy_prot.c **** *   CY_PROT_SUCCESS      | The Slave PU struct was enabled
 729:Generated_Source\PSoC6\pdl\drivers\peripheral\prot/cy_prot.c **** *   CY_PROT_FAILURE      | The Slave PU struct is disabled and possibly locked
 730:Generated_Source\PSoC6\pdl\drivers\peripheral\prot/cy_prot.c **** *  
 731:Generated_Source\PSoC6\pdl\drivers\peripheral\prot/cy_prot.c **** *******************************************************************************/
 732:Generated_Source\PSoC6\pdl\drivers\peripheral\prot/cy_prot.c **** cy_en_prot_status_t Cy_Prot_EnablePpuProgSlaveStruct(PERI_PPU_PR_Type* base)
 733:Generated_Source\PSoC6\pdl\drivers\peripheral\prot/cy_prot.c **** {   
 1127              		.loc 1 733 0
 1128              		.cfi_startproc
 1129              		@ args = 0, pretend = 0, frame = 0
 1130              		@ frame_needed = 0, uses_anonymous_args = 0
ARM GAS  C:\Users\kiwamu\AppData\Local\Temp\ccj1MWYe.s 			page 34


 1131              		@ link register save eliminated.
 1132              	.LVL115:
 734:Generated_Source\PSoC6\pdl\drivers\peripheral\prot/cy_prot.c ****     cy_en_prot_status_t status = CY_PROT_SUCCESS;
 735:Generated_Source\PSoC6\pdl\drivers\peripheral\prot/cy_prot.c ****     
 736:Generated_Source\PSoC6\pdl\drivers\peripheral\prot/cy_prot.c ****     base->ATT0 |= _VAL2FLD(PERI_PPU_PR_ATT0_ENABLED, CY_PROT_STRUCT_ENABLE);
 1133              		.loc 1 736 0
 1134 0000 4368     		ldr	r3, [r0, #4]
 1135 0002 8022     		movs	r2, #128
 1136 0004 1206     		lsls	r2, r2, #24
 1137 0006 1343     		orrs	r3, r2
 1138 0008 4360     		str	r3, [r0, #4]
 737:Generated_Source\PSoC6\pdl\drivers\peripheral\prot/cy_prot.c ****     status = (_FLD2VAL(PERI_PPU_PR_ATT0_ENABLED, base->ATT0) != CY_PROT_STRUCT_ENABLE) ?
 1139              		.loc 1 737 0
 1140 000a 4368     		ldr	r3, [r0, #4]
 1141 000c 002B     		cmp	r3, #0
 1142 000e 01DB     		blt	.L92
 1143 0010 0148     		ldr	r0, .L93
 1144              	.LVL116:
 1145 0012 00E0     		b	.L91
 1146              	.LVL117:
 1147              	.L92:
 1148 0014 0020     		movs	r0, #0
 1149              	.LVL118:
 1150              	.L91:
 738:Generated_Source\PSoC6\pdl\drivers\peripheral\prot/cy_prot.c ****                 CY_PROT_FAILURE : CY_PROT_SUCCESS;
 739:Generated_Source\PSoC6\pdl\drivers\peripheral\prot/cy_prot.c ****     
 740:Generated_Source\PSoC6\pdl\drivers\peripheral\prot/cy_prot.c ****     return status;
 741:Generated_Source\PSoC6\pdl\drivers\peripheral\prot/cy_prot.c **** }
 1151              		.loc 1 741 0 discriminator 4
 1152              		@ sp needed
 1153 0016 7047     		bx	lr
 1154              	.L94:
 1155              		.align	2
 1156              	.L93:
 1157 0018 0300C200 		.word	12713987
 1158              		.cfi_endproc
 1159              	.LFE50:
 1160              		.size	Cy_Prot_EnablePpuProgSlaveStruct, .-Cy_Prot_EnablePpuProgSlaveStruct
 1161              		.section	.text.Cy_Prot_DisablePpuProgSlaveStruct,"ax",%progbits
 1162              		.align	2
 1163              		.global	Cy_Prot_DisablePpuProgSlaveStruct
 1164              		.code	16
 1165              		.thumb_func
 1166              		.type	Cy_Prot_DisablePpuProgSlaveStruct, %function
 1167              	Cy_Prot_DisablePpuProgSlaveStruct:
 1168              	.LFB51:
 742:Generated_Source\PSoC6\pdl\drivers\peripheral\prot/cy_prot.c **** 
 743:Generated_Source\PSoC6\pdl\drivers\peripheral\prot/cy_prot.c **** 
 744:Generated_Source\PSoC6\pdl\drivers\peripheral\prot/cy_prot.c **** /*******************************************************************************
 745:Generated_Source\PSoC6\pdl\drivers\peripheral\prot/cy_prot.c **** * Function Name: Cy_Prot_DisablePpuProgSlaveStruct
 746:Generated_Source\PSoC6\pdl\drivers\peripheral\prot/cy_prot.c **** ****************************************************************************//**
 747:Generated_Source\PSoC6\pdl\drivers\peripheral\prot/cy_prot.c **** *
 748:Generated_Source\PSoC6\pdl\drivers\peripheral\prot/cy_prot.c **** * \brief Disables the Slave PPU PROG structure.
 749:Generated_Source\PSoC6\pdl\drivers\peripheral\prot/cy_prot.c **** *
 750:Generated_Source\PSoC6\pdl\drivers\peripheral\prot/cy_prot.c **** * This is a PPU PROG slave struct disable function. The PPU PROG protection 
 751:Generated_Source\PSoC6\pdl\drivers\peripheral\prot/cy_prot.c **** * settings will seize to take effect after successful completion of this 
 752:Generated_Source\PSoC6\pdl\drivers\peripheral\prot/cy_prot.c **** * function call.
ARM GAS  C:\Users\kiwamu\AppData\Local\Temp\ccj1MWYe.s 			page 35


 753:Generated_Source\PSoC6\pdl\drivers\peripheral\prot/cy_prot.c **** *
 754:Generated_Source\PSoC6\pdl\drivers\peripheral\prot/cy_prot.c **** * \param base
 755:Generated_Source\PSoC6\pdl\drivers\peripheral\prot/cy_prot.c **** * The base address for the protection unit structure being configured. 
 756:Generated_Source\PSoC6\pdl\drivers\peripheral\prot/cy_prot.c **** *
 757:Generated_Source\PSoC6\pdl\drivers\peripheral\prot/cy_prot.c **** * \return
 758:Generated_Source\PSoC6\pdl\drivers\peripheral\prot/cy_prot.c **** * Status of the function call.
 759:Generated_Source\PSoC6\pdl\drivers\peripheral\prot/cy_prot.c **** *
 760:Generated_Source\PSoC6\pdl\drivers\peripheral\prot/cy_prot.c **** *   Status               | Description
 761:Generated_Source\PSoC6\pdl\drivers\peripheral\prot/cy_prot.c **** *   ------------         | -----------
 762:Generated_Source\PSoC6\pdl\drivers\peripheral\prot/cy_prot.c **** *   CY_PROT_SUCCESS      | The Slave PU struct was disabled
 763:Generated_Source\PSoC6\pdl\drivers\peripheral\prot/cy_prot.c **** *   CY_PROT_FAILURE      | The Slave PU struct is enabled and possibly locked
 764:Generated_Source\PSoC6\pdl\drivers\peripheral\prot/cy_prot.c **** *  
 765:Generated_Source\PSoC6\pdl\drivers\peripheral\prot/cy_prot.c **** *******************************************************************************/
 766:Generated_Source\PSoC6\pdl\drivers\peripheral\prot/cy_prot.c **** cy_en_prot_status_t Cy_Prot_DisablePpuProgSlaveStruct(PERI_PPU_PR_Type* base)
 767:Generated_Source\PSoC6\pdl\drivers\peripheral\prot/cy_prot.c **** {
 1169              		.loc 1 767 0
 1170              		.cfi_startproc
 1171              		@ args = 0, pretend = 0, frame = 0
 1172              		@ frame_needed = 0, uses_anonymous_args = 0
 1173              		@ link register save eliminated.
 1174              	.LVL119:
 768:Generated_Source\PSoC6\pdl\drivers\peripheral\prot/cy_prot.c ****     cy_en_prot_status_t status = CY_PROT_SUCCESS;
 769:Generated_Source\PSoC6\pdl\drivers\peripheral\prot/cy_prot.c ****     
 770:Generated_Source\PSoC6\pdl\drivers\peripheral\prot/cy_prot.c ****     base->ATT0 &= ~_VAL2FLD(PERI_PPU_PR_ATT0_ENABLED, CY_PROT_STRUCT_ENABLE);
 1175              		.loc 1 770 0
 1176 0000 4368     		ldr	r3, [r0, #4]
 1177 0002 5B00     		lsls	r3, r3, #1
 1178 0004 5B08     		lsrs	r3, r3, #1
 1179 0006 4360     		str	r3, [r0, #4]
 771:Generated_Source\PSoC6\pdl\drivers\peripheral\prot/cy_prot.c ****     status = (_FLD2VAL(PERI_PPU_PR_ATT0_ENABLED, base->ATT0) == CY_PROT_STRUCT_ENABLE) ?
 1180              		.loc 1 771 0
 1181 0008 4368     		ldr	r3, [r0, #4]
 1182 000a 002B     		cmp	r3, #0
 1183 000c 01DA     		bge	.L97
 1184 000e 0248     		ldr	r0, .L98
 1185              	.LVL120:
 1186 0010 00E0     		b	.L96
 1187              	.LVL121:
 1188              	.L97:
 1189 0012 0020     		movs	r0, #0
 1190              	.LVL122:
 1191              	.L96:
 772:Generated_Source\PSoC6\pdl\drivers\peripheral\prot/cy_prot.c ****                 CY_PROT_FAILURE : CY_PROT_SUCCESS;
 773:Generated_Source\PSoC6\pdl\drivers\peripheral\prot/cy_prot.c ****     
 774:Generated_Source\PSoC6\pdl\drivers\peripheral\prot/cy_prot.c ****     return status;
 775:Generated_Source\PSoC6\pdl\drivers\peripheral\prot/cy_prot.c **** }
 1192              		.loc 1 775 0 discriminator 4
 1193              		@ sp needed
 1194 0014 7047     		bx	lr
 1195              	.L99:
 1196 0016 C046     		.align	2
 1197              	.L98:
 1198 0018 0300C200 		.word	12713987
 1199              		.cfi_endproc
 1200              	.LFE51:
 1201              		.size	Cy_Prot_DisablePpuProgSlaveStruct, .-Cy_Prot_DisablePpuProgSlaveStruct
 1202              		.section	.text.Cy_Prot_ConfigPpuFixedGrMasterStruct,"ax",%progbits
ARM GAS  C:\Users\kiwamu\AppData\Local\Temp\ccj1MWYe.s 			page 36


 1203              		.align	2
 1204              		.global	Cy_Prot_ConfigPpuFixedGrMasterStruct
 1205              		.code	16
 1206              		.thumb_func
 1207              		.type	Cy_Prot_ConfigPpuFixedGrMasterStruct, %function
 1208              	Cy_Prot_ConfigPpuFixedGrMasterStruct:
 1209              	.LFB52:
 776:Generated_Source\PSoC6\pdl\drivers\peripheral\prot/cy_prot.c **** 
 777:Generated_Source\PSoC6\pdl\drivers\peripheral\prot/cy_prot.c **** 
 778:Generated_Source\PSoC6\pdl\drivers\peripheral\prot/cy_prot.c **** /*******************************************************************************
 779:Generated_Source\PSoC6\pdl\drivers\peripheral\prot/cy_prot.c **** * Function Name: Cy_Prot_ConfigPpuFixedGrMasterStruct
 780:Generated_Source\PSoC6\pdl\drivers\peripheral\prot/cy_prot.c **** ****************************************************************************//**
 781:Generated_Source\PSoC6\pdl\drivers\peripheral\prot/cy_prot.c **** *
 782:Generated_Source\PSoC6\pdl\drivers\peripheral\prot/cy_prot.c **** * \brief Configures a Fixed Peripheral Group Protection Unit (PPU GR) master 
 783:Generated_Source\PSoC6\pdl\drivers\peripheral\prot/cy_prot.c **** * protection struct with its protection attributes. 
 784:Generated_Source\PSoC6\pdl\drivers\peripheral\prot/cy_prot.c **** *
 785:Generated_Source\PSoC6\pdl\drivers\peripheral\prot/cy_prot.c **** * This function configures the master struct governing the corresponding slave
 786:Generated_Source\PSoC6\pdl\drivers\peripheral\prot/cy_prot.c **** * struct pair. It is a mechanism to protect the slave PPU GR struct. Since
 787:Generated_Source\PSoC6\pdl\drivers\peripheral\prot/cy_prot.c **** * the memory location of the slave struct is known, the address, regionSize and
 788:Generated_Source\PSoC6\pdl\drivers\peripheral\prot/cy_prot.c **** * subregions of the configuration struct are not applicable.
 789:Generated_Source\PSoC6\pdl\drivers\peripheral\prot/cy_prot.c **** *
 790:Generated_Source\PSoC6\pdl\drivers\peripheral\prot/cy_prot.c **** * Note that only the user/privileged write permissions are configurable. The 
 791:Generated_Source\PSoC6\pdl\drivers\peripheral\prot/cy_prot.c **** * read and execute permissions are read-only and cannot be configured.
 792:Generated_Source\PSoC6\pdl\drivers\peripheral\prot/cy_prot.c **** *
 793:Generated_Source\PSoC6\pdl\drivers\peripheral\prot/cy_prot.c **** * \param base
 794:Generated_Source\PSoC6\pdl\drivers\peripheral\prot/cy_prot.c **** * The register base address of the protection struct being configured.
 795:Generated_Source\PSoC6\pdl\drivers\peripheral\prot/cy_prot.c **** * 
 796:Generated_Source\PSoC6\pdl\drivers\peripheral\prot/cy_prot.c **** * \param config
 797:Generated_Source\PSoC6\pdl\drivers\peripheral\prot/cy_prot.c **** * Initialization structure with all the protection attributes.
 798:Generated_Source\PSoC6\pdl\drivers\peripheral\prot/cy_prot.c **** * 
 799:Generated_Source\PSoC6\pdl\drivers\peripheral\prot/cy_prot.c **** * \return
 800:Generated_Source\PSoC6\pdl\drivers\peripheral\prot/cy_prot.c **** * Status of the function call.
 801:Generated_Source\PSoC6\pdl\drivers\peripheral\prot/cy_prot.c **** *
 802:Generated_Source\PSoC6\pdl\drivers\peripheral\prot/cy_prot.c **** *   Status               | Description
 803:Generated_Source\PSoC6\pdl\drivers\peripheral\prot/cy_prot.c **** *   ------------         | -----------
 804:Generated_Source\PSoC6\pdl\drivers\peripheral\prot/cy_prot.c **** *   CY_PROT_SUCCESS      | PPU GR master struct was successfully configured
 805:Generated_Source\PSoC6\pdl\drivers\peripheral\prot/cy_prot.c **** *   CY_PROT_FAILURE      | The resource is locked
 806:Generated_Source\PSoC6\pdl\drivers\peripheral\prot/cy_prot.c **** *   CY_PROT_BAD_PARAM    | An incorrect/invalid parameter was passed
 807:Generated_Source\PSoC6\pdl\drivers\peripheral\prot/cy_prot.c **** *  
 808:Generated_Source\PSoC6\pdl\drivers\peripheral\prot/cy_prot.c **** *******************************************************************************/
 809:Generated_Source\PSoC6\pdl\drivers\peripheral\prot/cy_prot.c **** cy_en_prot_status_t Cy_Prot_ConfigPpuFixedGrMasterStruct(PERI_PPU_GR_Type* base, const cy_stc_ppu_g
 810:Generated_Source\PSoC6\pdl\drivers\peripheral\prot/cy_prot.c **** {
 1210              		.loc 1 810 0
 1211              		.cfi_startproc
 1212              		@ args = 0, pretend = 0, frame = 0
 1213              		@ frame_needed = 0, uses_anonymous_args = 0
 1214              	.LVL123:
 1215 0000 70B5     		push	{r4, r5, r6, lr}
 1216              		.cfi_def_cfa_offset 16
 1217              		.cfi_offset 4, -16
 1218              		.cfi_offset 5, -12
 1219              		.cfi_offset 6, -8
 1220              		.cfi_offset 14, -4
 1221              	.LVL124:
 811:Generated_Source\PSoC6\pdl\drivers\peripheral\prot/cy_prot.c ****     cy_en_prot_status_t status = CY_PROT_SUCCESS;
 812:Generated_Source\PSoC6\pdl\drivers\peripheral\prot/cy_prot.c ****     uint32_t attReg;
 813:Generated_Source\PSoC6\pdl\drivers\peripheral\prot/cy_prot.c ****     
ARM GAS  C:\Users\kiwamu\AppData\Local\Temp\ccj1MWYe.s 			page 37


 814:Generated_Source\PSoC6\pdl\drivers\peripheral\prot/cy_prot.c ****     if(((uint32_t)config->pcMask & CY_PROT_PPU_FIXED_PC_LIMIT_MASK) != 0UL) 
 1222              		.loc 1 814 0
 1223 0002 8C88     		ldrh	r4, [r1, #4]
 1224 0004 7F23     		movs	r3, #127
 1225 0006 2200     		movs	r2, r4
 1226 0008 9A43     		bics	r2, r3
 1227 000a 28D1     		bne	.L102
 815:Generated_Source\PSoC6\pdl\drivers\peripheral\prot/cy_prot.c ****     {
 816:Generated_Source\PSoC6\pdl\drivers\peripheral\prot/cy_prot.c ****         /* PC mask out of range - not supported in device */
 817:Generated_Source\PSoC6\pdl\drivers\peripheral\prot/cy_prot.c ****         status = CY_PROT_BAD_PARAM;
 818:Generated_Source\PSoC6\pdl\drivers\peripheral\prot/cy_prot.c ****     }
 819:Generated_Source\PSoC6\pdl\drivers\peripheral\prot/cy_prot.c ****     else
 820:Generated_Source\PSoC6\pdl\drivers\peripheral\prot/cy_prot.c ****     {
 821:Generated_Source\PSoC6\pdl\drivers\peripheral\prot/cy_prot.c ****         /* ADDR1 is read only. Only configure ATT1 */
 822:Generated_Source\PSoC6\pdl\drivers\peripheral\prot/cy_prot.c ****         attReg = (((uint32_t)config->userPermission & CY_PROT_ATT_PERMISSION_MASK))
 1228              		.loc 1 822 0
 1229 000c 0B78     		ldrb	r3, [r1]
 1230 000e 0725     		movs	r5, #7
 1231 0010 1D40     		ands	r5, r3
 823:Generated_Source\PSoC6\pdl\drivers\peripheral\prot/cy_prot.c ****                     | (uint32_t)(((uint32_t)config->privPermission & CY_PROT_ATT_PERMISSION_MASK) <
 1232              		.loc 1 823 0
 1233 0012 4A78     		ldrb	r2, [r1, #1]
 1234 0014 D200     		lsls	r2, r2, #3
 1235 0016 3823     		movs	r3, #56
 1236 0018 1340     		ands	r3, r2
 1237 001a 1D43     		orrs	r5, r3
 824:Generated_Source\PSoC6\pdl\drivers\peripheral\prot/cy_prot.c ****                     | _VAL2FLD(PERI_PPU_GR_ATT1_NS, !(config->secure))
 1238              		.loc 1 824 0
 1239 001c 8B78     		ldrb	r3, [r1, #2]
 1240 001e 0122     		movs	r2, #1
 1241 0020 5A40     		eors	r2, r3
 1242 0022 D2B2     		uxtb	r2, r2
 1243 0024 9201     		lsls	r2, r2, #6
 1244 0026 4023     		movs	r3, #64
 1245 0028 1A40     		ands	r2, r3
 1246 002a 2B00     		movs	r3, r5
 1247 002c 1343     		orrs	r3, r2
 825:Generated_Source\PSoC6\pdl\drivers\peripheral\prot/cy_prot.c ****                     | _VAL2FLD(PERI_PPU_GR_ATT1_PC_MASK_15_TO_1, config->pcMask)
 1248              		.loc 1 825 0
 1249 002e 6402     		lsls	r4, r4, #9
 1250 0030 0E4A     		ldr	r2, .L105
 1251 0032 1440     		ands	r4, r2
 1252 0034 1C43     		orrs	r4, r3
 826:Generated_Source\PSoC6\pdl\drivers\peripheral\prot/cy_prot.c ****                     /* No region size - read only for master structs */
 827:Generated_Source\PSoC6\pdl\drivers\peripheral\prot/cy_prot.c ****                     | _VAL2FLD(PERI_PPU_GR_ATT1_PC_MATCH, config->pcMatch);
 1253              		.loc 1 827 0
 1254 0036 CB78     		ldrb	r3, [r1, #3]
 1255 0038 9B07     		lsls	r3, r3, #30
 1256 003a 8021     		movs	r1, #128
 1257              	.LVL125:
 1258 003c C905     		lsls	r1, r1, #23
 1259 003e 0B40     		ands	r3, r1
 1260 0040 1A00     		movs	r2, r3
 822:Generated_Source\PSoC6\pdl\drivers\peripheral\prot/cy_prot.c ****                     | (uint32_t)(((uint32_t)config->privPermission & CY_PROT_ATT_PERMISSION_MASK) <
 1261              		.loc 1 822 0
 1262 0042 2300     		movs	r3, r4
 1263 0044 1343     		orrs	r3, r2
ARM GAS  C:\Users\kiwamu\AppData\Local\Temp\ccj1MWYe.s 			page 38


 1264              	.LVL126:
 828:Generated_Source\PSoC6\pdl\drivers\peripheral\prot/cy_prot.c ****         if ((attReg & CY_PROT_PPU_GR_ATT1_MASK) != attReg)
 1265              		.loc 1 828 0
 1266 0046 0A4A     		ldr	r2, .L105+4
 1267 0048 1A40     		ands	r2, r3
 1268 004a 9342     		cmp	r3, r2
 1269 004c 09D1     		bne	.L103
 829:Generated_Source\PSoC6\pdl\drivers\peripheral\prot/cy_prot.c ****         {
 830:Generated_Source\PSoC6\pdl\drivers\peripheral\prot/cy_prot.c ****             /* Invalid parameter was passed */
 831:Generated_Source\PSoC6\pdl\drivers\peripheral\prot/cy_prot.c ****             status = CY_PROT_BAD_PARAM;
 832:Generated_Source\PSoC6\pdl\drivers\peripheral\prot/cy_prot.c ****         }
 833:Generated_Source\PSoC6\pdl\drivers\peripheral\prot/cy_prot.c ****         else
 834:Generated_Source\PSoC6\pdl\drivers\peripheral\prot/cy_prot.c ****         {
 835:Generated_Source\PSoC6\pdl\drivers\peripheral\prot/cy_prot.c ****             base->ATT1 = attReg;
 1270              		.loc 1 835 0
 1271 004e 4362     		str	r3, [r0, #36]
 836:Generated_Source\PSoC6\pdl\drivers\peripheral\prot/cy_prot.c ****             status = ((base->ATT1 & CY_PROT_PPU_GR_ATT1_MASK) != attReg) ? CY_PROT_FAILURE : CY_PRO
 1272              		.loc 1 836 0
 1273 0050 416A     		ldr	r1, [r0, #36]
 1274 0052 074A     		ldr	r2, .L105+4
 1275 0054 0A40     		ands	r2, r1
 1276 0056 9342     		cmp	r3, r2
 1277 0058 05D0     		beq	.L104
 1278 005a 0648     		ldr	r0, .L105+8
 1279              	.LVL127:
 1280 005c 04E0     		b	.L101
 1281              	.LVL128:
 1282              	.L102:
 817:Generated_Source\PSoC6\pdl\drivers\peripheral\prot/cy_prot.c ****     }
 1283              		.loc 1 817 0
 1284 005e 0648     		ldr	r0, .L105+12
 1285              	.LVL129:
 1286 0060 02E0     		b	.L101
 1287              	.LVL130:
 1288              	.L103:
 831:Generated_Source\PSoC6\pdl\drivers\peripheral\prot/cy_prot.c ****         }
 1289              		.loc 1 831 0
 1290 0062 0548     		ldr	r0, .L105+12
 1291              	.LVL131:
 1292 0064 00E0     		b	.L101
 1293              	.LVL132:
 1294              	.L104:
 1295              		.loc 1 836 0
 1296 0066 0020     		movs	r0, #0
 1297              	.LVL133:
 1298              	.L101:
 837:Generated_Source\PSoC6\pdl\drivers\peripheral\prot/cy_prot.c ****         }
 838:Generated_Source\PSoC6\pdl\drivers\peripheral\prot/cy_prot.c ****     }
 839:Generated_Source\PSoC6\pdl\drivers\peripheral\prot/cy_prot.c ****     
 840:Generated_Source\PSoC6\pdl\drivers\peripheral\prot/cy_prot.c ****     return status;
 841:Generated_Source\PSoC6\pdl\drivers\peripheral\prot/cy_prot.c **** }
 1299              		.loc 1 841 0
 1300              		@ sp needed
 1301 0068 70BD     		pop	{r4, r5, r6, pc}
 1302              	.L106:
 1303 006a C046     		.align	2
 1304              	.L105:
ARM GAS  C:\Users\kiwamu\AppData\Local\Temp\ccj1MWYe.s 			page 39


 1305 006c 00FEFF00 		.word	16776704
 1306 0070 D2FEFFE0 		.word	-520093998
 1307 0074 0300C200 		.word	12713987
 1308 0078 0100C200 		.word	12713985
 1309              		.cfi_endproc
 1310              	.LFE52:
 1311              		.size	Cy_Prot_ConfigPpuFixedGrMasterStruct, .-Cy_Prot_ConfigPpuFixedGrMasterStruct
 1312              		.section	.text.Cy_Prot_ConfigPpuFixedGrSlaveStruct,"ax",%progbits
 1313              		.align	2
 1314              		.global	Cy_Prot_ConfigPpuFixedGrSlaveStruct
 1315              		.code	16
 1316              		.thumb_func
 1317              		.type	Cy_Prot_ConfigPpuFixedGrSlaveStruct, %function
 1318              	Cy_Prot_ConfigPpuFixedGrSlaveStruct:
 1319              	.LFB53:
 842:Generated_Source\PSoC6\pdl\drivers\peripheral\prot/cy_prot.c **** 
 843:Generated_Source\PSoC6\pdl\drivers\peripheral\prot/cy_prot.c **** 
 844:Generated_Source\PSoC6\pdl\drivers\peripheral\prot/cy_prot.c **** /*******************************************************************************
 845:Generated_Source\PSoC6\pdl\drivers\peripheral\prot/cy_prot.c **** * Function Name: Cy_Prot_ConfigPpuFixedGrSlaveStruct
 846:Generated_Source\PSoC6\pdl\drivers\peripheral\prot/cy_prot.c **** ****************************************************************************//**
 847:Generated_Source\PSoC6\pdl\drivers\peripheral\prot/cy_prot.c **** *
 848:Generated_Source\PSoC6\pdl\drivers\peripheral\prot/cy_prot.c **** * \brief Configures a Fixed Peripheral Group Protection Unit (PPU GR) slave
 849:Generated_Source\PSoC6\pdl\drivers\peripheral\prot/cy_prot.c **** * protection struct with its protection attributes. 
 850:Generated_Source\PSoC6\pdl\drivers\peripheral\prot/cy_prot.c **** * 
 851:Generated_Source\PSoC6\pdl\drivers\peripheral\prot/cy_prot.c **** * This function configures the slave struct of a PPU GR pair, which can 
 852:Generated_Source\PSoC6\pdl\drivers\peripheral\prot/cy_prot.c **** * protect an entire peripheral MMIO group from invalid bus master accesses.
 853:Generated_Source\PSoC6\pdl\drivers\peripheral\prot/cy_prot.c **** * Refer to the device Technical Reference manual for details on peripheral
 854:Generated_Source\PSoC6\pdl\drivers\peripheral\prot/cy_prot.c **** * MMIO grouping and which peripherals belong to which groups.
 855:Generated_Source\PSoC6\pdl\drivers\peripheral\prot/cy_prot.c **** *
 856:Generated_Source\PSoC6\pdl\drivers\peripheral\prot/cy_prot.c **** * Each fixed PPU GR is devoted to a defined MMIO group. Hence the address, 
 857:Generated_Source\PSoC6\pdl\drivers\peripheral\prot/cy_prot.c **** * regionSize and subregions of the configuration struct are not applicable.
 858:Generated_Source\PSoC6\pdl\drivers\peripheral\prot/cy_prot.c **** *
 859:Generated_Source\PSoC6\pdl\drivers\peripheral\prot/cy_prot.c **** * Note that the user/privileged execute accesses are read-only and are always 
 860:Generated_Source\PSoC6\pdl\drivers\peripheral\prot/cy_prot.c **** * enabled. 
 861:Generated_Source\PSoC6\pdl\drivers\peripheral\prot/cy_prot.c **** *
 862:Generated_Source\PSoC6\pdl\drivers\peripheral\prot/cy_prot.c **** * \param base
 863:Generated_Source\PSoC6\pdl\drivers\peripheral\prot/cy_prot.c **** * The register base address of the protection structure being configured.
 864:Generated_Source\PSoC6\pdl\drivers\peripheral\prot/cy_prot.c **** * 
 865:Generated_Source\PSoC6\pdl\drivers\peripheral\prot/cy_prot.c **** * \param config
 866:Generated_Source\PSoC6\pdl\drivers\peripheral\prot/cy_prot.c **** * Initialization structure with all the protection attributes.
 867:Generated_Source\PSoC6\pdl\drivers\peripheral\prot/cy_prot.c **** * 
 868:Generated_Source\PSoC6\pdl\drivers\peripheral\prot/cy_prot.c **** * \return
 869:Generated_Source\PSoC6\pdl\drivers\peripheral\prot/cy_prot.c **** * Status of the function call.
 870:Generated_Source\PSoC6\pdl\drivers\peripheral\prot/cy_prot.c **** *
 871:Generated_Source\PSoC6\pdl\drivers\peripheral\prot/cy_prot.c **** *   Status               | Description
 872:Generated_Source\PSoC6\pdl\drivers\peripheral\prot/cy_prot.c **** *   ------------         | -----------
 873:Generated_Source\PSoC6\pdl\drivers\peripheral\prot/cy_prot.c **** *   CY_PROT_SUCCESS      | PPU GR slave struct was successfully configured
 874:Generated_Source\PSoC6\pdl\drivers\peripheral\prot/cy_prot.c **** *   CY_PROT_FAILURE      | The resource is locked
 875:Generated_Source\PSoC6\pdl\drivers\peripheral\prot/cy_prot.c **** *   CY_PROT_BAD_PARAM    | An incorrect/invalid parameter was passed
 876:Generated_Source\PSoC6\pdl\drivers\peripheral\prot/cy_prot.c **** *  
 877:Generated_Source\PSoC6\pdl\drivers\peripheral\prot/cy_prot.c **** *******************************************************************************/
 878:Generated_Source\PSoC6\pdl\drivers\peripheral\prot/cy_prot.c **** cy_en_prot_status_t Cy_Prot_ConfigPpuFixedGrSlaveStruct(PERI_PPU_GR_Type* base, const cy_stc_ppu_gr
 879:Generated_Source\PSoC6\pdl\drivers\peripheral\prot/cy_prot.c **** {
 1320              		.loc 1 879 0
 1321              		.cfi_startproc
 1322              		@ args = 0, pretend = 0, frame = 0
 1323              		@ frame_needed = 0, uses_anonymous_args = 0
ARM GAS  C:\Users\kiwamu\AppData\Local\Temp\ccj1MWYe.s 			page 40


 1324              	.LVL134:
 1325 0000 70B5     		push	{r4, r5, r6, lr}
 1326              		.cfi_def_cfa_offset 16
 1327              		.cfi_offset 4, -16
 1328              		.cfi_offset 5, -12
 1329              		.cfi_offset 6, -8
 1330              		.cfi_offset 14, -4
 1331              	.LVL135:
 880:Generated_Source\PSoC6\pdl\drivers\peripheral\prot/cy_prot.c ****     cy_en_prot_status_t status = CY_PROT_SUCCESS;
 881:Generated_Source\PSoC6\pdl\drivers\peripheral\prot/cy_prot.c ****     uint32_t attReg;
 882:Generated_Source\PSoC6\pdl\drivers\peripheral\prot/cy_prot.c ****     
 883:Generated_Source\PSoC6\pdl\drivers\peripheral\prot/cy_prot.c ****     if(((uint32_t)config->pcMask & CY_PROT_PPU_FIXED_PC_LIMIT_MASK) != 0UL) 
 1332              		.loc 1 883 0
 1333 0002 8C88     		ldrh	r4, [r1, #4]
 1334 0004 7F23     		movs	r3, #127
 1335 0006 2200     		movs	r2, r4
 1336 0008 9A43     		bics	r2, r3
 1337 000a 28D1     		bne	.L109
 884:Generated_Source\PSoC6\pdl\drivers\peripheral\prot/cy_prot.c ****     {
 885:Generated_Source\PSoC6\pdl\drivers\peripheral\prot/cy_prot.c ****         /* PC mask out of range - not supported in device */
 886:Generated_Source\PSoC6\pdl\drivers\peripheral\prot/cy_prot.c ****         status = CY_PROT_BAD_PARAM;
 887:Generated_Source\PSoC6\pdl\drivers\peripheral\prot/cy_prot.c ****     }
 888:Generated_Source\PSoC6\pdl\drivers\peripheral\prot/cy_prot.c ****     else
 889:Generated_Source\PSoC6\pdl\drivers\peripheral\prot/cy_prot.c ****     {
 890:Generated_Source\PSoC6\pdl\drivers\peripheral\prot/cy_prot.c ****         /* ADDR0 is read only. Only configure ATT0 */
 891:Generated_Source\PSoC6\pdl\drivers\peripheral\prot/cy_prot.c ****         attReg = (uint32_t)(((uint32_t)config->userPermission & CY_PROT_ATT_PERMISSION_MASK))
 1338              		.loc 1 891 0
 1339 000c 0B78     		ldrb	r3, [r1]
 1340 000e 0725     		movs	r5, #7
 1341 0010 1D40     		ands	r5, r3
 892:Generated_Source\PSoC6\pdl\drivers\peripheral\prot/cy_prot.c ****                     | (uint32_t)(((uint32_t)config->privPermission & CY_PROT_ATT_PERMISSION_MASK) <
 1342              		.loc 1 892 0
 1343 0012 4A78     		ldrb	r2, [r1, #1]
 1344 0014 D200     		lsls	r2, r2, #3
 1345 0016 3823     		movs	r3, #56
 1346 0018 1340     		ands	r3, r2
 1347 001a 1D43     		orrs	r5, r3
 893:Generated_Source\PSoC6\pdl\drivers\peripheral\prot/cy_prot.c ****                     | _VAL2FLD(PERI_PPU_GR_ATT0_NS, !(config->secure))
 1348              		.loc 1 893 0
 1349 001c 8B78     		ldrb	r3, [r1, #2]
 1350 001e 0122     		movs	r2, #1
 1351 0020 5A40     		eors	r2, r3
 1352 0022 D2B2     		uxtb	r2, r2
 1353 0024 9201     		lsls	r2, r2, #6
 1354 0026 4023     		movs	r3, #64
 1355 0028 1A40     		ands	r2, r3
 1356 002a 2B00     		movs	r3, r5
 1357 002c 1343     		orrs	r3, r2
 894:Generated_Source\PSoC6\pdl\drivers\peripheral\prot/cy_prot.c ****                     | _VAL2FLD(PERI_PPU_GR_ATT0_PC_MASK_15_TO_1, config->pcMask)
 1358              		.loc 1 894 0
 1359 002e 6402     		lsls	r4, r4, #9
 1360 0030 0E4A     		ldr	r2, .L112
 1361 0032 1440     		ands	r4, r2
 1362 0034 1C43     		orrs	r4, r3
 895:Generated_Source\PSoC6\pdl\drivers\peripheral\prot/cy_prot.c ****                     /* No region size - read only */
 896:Generated_Source\PSoC6\pdl\drivers\peripheral\prot/cy_prot.c ****                     | _VAL2FLD(PERI_PPU_GR_ATT0_PC_MATCH, config->pcMatch);
 1363              		.loc 1 896 0
ARM GAS  C:\Users\kiwamu\AppData\Local\Temp\ccj1MWYe.s 			page 41


 1364 0036 CB78     		ldrb	r3, [r1, #3]
 1365 0038 9B07     		lsls	r3, r3, #30
 1366 003a 8021     		movs	r1, #128
 1367              	.LVL136:
 1368 003c C905     		lsls	r1, r1, #23
 1369 003e 0B40     		ands	r3, r1
 1370 0040 1A00     		movs	r2, r3
 891:Generated_Source\PSoC6\pdl\drivers\peripheral\prot/cy_prot.c ****                     | (uint32_t)(((uint32_t)config->privPermission & CY_PROT_ATT_PERMISSION_MASK) <
 1371              		.loc 1 891 0
 1372 0042 2300     		movs	r3, r4
 1373 0044 1343     		orrs	r3, r2
 1374              	.LVL137:
 897:Generated_Source\PSoC6\pdl\drivers\peripheral\prot/cy_prot.c ****         if ((attReg & CY_PROT_PPU_GR_ATT0_MASK) != attReg)
 1375              		.loc 1 897 0
 1376 0046 0A4A     		ldr	r2, .L112+4
 1377 0048 1A40     		ands	r2, r3
 1378 004a 9342     		cmp	r3, r2
 1379 004c 09D1     		bne	.L110
 898:Generated_Source\PSoC6\pdl\drivers\peripheral\prot/cy_prot.c ****         {
 899:Generated_Source\PSoC6\pdl\drivers\peripheral\prot/cy_prot.c ****             /* Invalid parameter was passed */
 900:Generated_Source\PSoC6\pdl\drivers\peripheral\prot/cy_prot.c ****             status = CY_PROT_BAD_PARAM;
 901:Generated_Source\PSoC6\pdl\drivers\peripheral\prot/cy_prot.c ****         }
 902:Generated_Source\PSoC6\pdl\drivers\peripheral\prot/cy_prot.c ****         else
 903:Generated_Source\PSoC6\pdl\drivers\peripheral\prot/cy_prot.c ****         {
 904:Generated_Source\PSoC6\pdl\drivers\peripheral\prot/cy_prot.c ****             base->ATT0 = attReg;
 1380              		.loc 1 904 0
 1381 004e 4360     		str	r3, [r0, #4]
 905:Generated_Source\PSoC6\pdl\drivers\peripheral\prot/cy_prot.c ****             status = ((base->ATT0 & CY_PROT_PPU_GR_ATT0_MASK) != attReg) ? CY_PROT_FAILURE : CY_PRO
 1382              		.loc 1 905 0
 1383 0050 4168     		ldr	r1, [r0, #4]
 1384 0052 074A     		ldr	r2, .L112+4
 1385 0054 0A40     		ands	r2, r1
 1386 0056 9342     		cmp	r3, r2
 1387 0058 05D0     		beq	.L111
 1388 005a 0648     		ldr	r0, .L112+8
 1389              	.LVL138:
 1390 005c 04E0     		b	.L108
 1391              	.LVL139:
 1392              	.L109:
 886:Generated_Source\PSoC6\pdl\drivers\peripheral\prot/cy_prot.c ****     }
 1393              		.loc 1 886 0
 1394 005e 0648     		ldr	r0, .L112+12
 1395              	.LVL140:
 1396 0060 02E0     		b	.L108
 1397              	.LVL141:
 1398              	.L110:
 900:Generated_Source\PSoC6\pdl\drivers\peripheral\prot/cy_prot.c ****         }
 1399              		.loc 1 900 0
 1400 0062 0548     		ldr	r0, .L112+12
 1401              	.LVL142:
 1402 0064 00E0     		b	.L108
 1403              	.LVL143:
 1404              	.L111:
 1405              		.loc 1 905 0
 1406 0066 0020     		movs	r0, #0
 1407              	.LVL144:
 1408              	.L108:
ARM GAS  C:\Users\kiwamu\AppData\Local\Temp\ccj1MWYe.s 			page 42


 906:Generated_Source\PSoC6\pdl\drivers\peripheral\prot/cy_prot.c ****         }
 907:Generated_Source\PSoC6\pdl\drivers\peripheral\prot/cy_prot.c ****     }    
 908:Generated_Source\PSoC6\pdl\drivers\peripheral\prot/cy_prot.c ****     return status;
 909:Generated_Source\PSoC6\pdl\drivers\peripheral\prot/cy_prot.c **** }
 1409              		.loc 1 909 0
 1410              		@ sp needed
 1411 0068 70BD     		pop	{r4, r5, r6, pc}
 1412              	.L113:
 1413 006a C046     		.align	2
 1414              	.L112:
 1415 006c 00FEFF00 		.word	16776704
 1416 0070 DBFEFFE0 		.word	-520093989
 1417 0074 0300C200 		.word	12713987
 1418 0078 0100C200 		.word	12713985
 1419              		.cfi_endproc
 1420              	.LFE53:
 1421              		.size	Cy_Prot_ConfigPpuFixedGrSlaveStruct, .-Cy_Prot_ConfigPpuFixedGrSlaveStruct
 1422              		.section	.text.Cy_Prot_EnablePpuFixedGrMasterStruct,"ax",%progbits
 1423              		.align	2
 1424              		.global	Cy_Prot_EnablePpuFixedGrMasterStruct
 1425              		.code	16
 1426              		.thumb_func
 1427              		.type	Cy_Prot_EnablePpuFixedGrMasterStruct, %function
 1428              	Cy_Prot_EnablePpuFixedGrMasterStruct:
 1429              	.LFB54:
 910:Generated_Source\PSoC6\pdl\drivers\peripheral\prot/cy_prot.c **** 
 911:Generated_Source\PSoC6\pdl\drivers\peripheral\prot/cy_prot.c **** 
 912:Generated_Source\PSoC6\pdl\drivers\peripheral\prot/cy_prot.c **** /*******************************************************************************
 913:Generated_Source\PSoC6\pdl\drivers\peripheral\prot/cy_prot.c **** * Function Name: Cy_Prot_EnablePpuFixedGrMasterStruct
 914:Generated_Source\PSoC6\pdl\drivers\peripheral\prot/cy_prot.c **** ****************************************************************************//**
 915:Generated_Source\PSoC6\pdl\drivers\peripheral\prot/cy_prot.c **** *
 916:Generated_Source\PSoC6\pdl\drivers\peripheral\prot/cy_prot.c **** * \brief Enables the Master PPU GR structure.
 917:Generated_Source\PSoC6\pdl\drivers\peripheral\prot/cy_prot.c **** *
 918:Generated_Source\PSoC6\pdl\drivers\peripheral\prot/cy_prot.c **** * This is a PPU GR master struct enable function. The PPU GR protection 
 919:Generated_Source\PSoC6\pdl\drivers\peripheral\prot/cy_prot.c **** * settings will take effect after successful completion of this function call.
 920:Generated_Source\PSoC6\pdl\drivers\peripheral\prot/cy_prot.c **** *
 921:Generated_Source\PSoC6\pdl\drivers\peripheral\prot/cy_prot.c **** * \param base
 922:Generated_Source\PSoC6\pdl\drivers\peripheral\prot/cy_prot.c **** * The base address for the protection unit structure being configured. 
 923:Generated_Source\PSoC6\pdl\drivers\peripheral\prot/cy_prot.c **** *
 924:Generated_Source\PSoC6\pdl\drivers\peripheral\prot/cy_prot.c **** * \return
 925:Generated_Source\PSoC6\pdl\drivers\peripheral\prot/cy_prot.c **** * Status of the function call.
 926:Generated_Source\PSoC6\pdl\drivers\peripheral\prot/cy_prot.c **** *
 927:Generated_Source\PSoC6\pdl\drivers\peripheral\prot/cy_prot.c **** *   Status               | Description
 928:Generated_Source\PSoC6\pdl\drivers\peripheral\prot/cy_prot.c **** *   ------------         | -----------
 929:Generated_Source\PSoC6\pdl\drivers\peripheral\prot/cy_prot.c **** *   CY_PROT_SUCCESS      | The Master PU struct was enabled
 930:Generated_Source\PSoC6\pdl\drivers\peripheral\prot/cy_prot.c **** *   CY_PROT_FAILURE      | The Master PU struct is disabled and possibly locked
 931:Generated_Source\PSoC6\pdl\drivers\peripheral\prot/cy_prot.c **** *  
 932:Generated_Source\PSoC6\pdl\drivers\peripheral\prot/cy_prot.c **** *******************************************************************************/
 933:Generated_Source\PSoC6\pdl\drivers\peripheral\prot/cy_prot.c **** cy_en_prot_status_t Cy_Prot_EnablePpuFixedGrMasterStruct(PERI_PPU_GR_Type* base)
 934:Generated_Source\PSoC6\pdl\drivers\peripheral\prot/cy_prot.c **** {
 1430              		.loc 1 934 0
 1431              		.cfi_startproc
 1432              		@ args = 0, pretend = 0, frame = 0
 1433              		@ frame_needed = 0, uses_anonymous_args = 0
 1434              		@ link register save eliminated.
 1435              	.LVL145:
 935:Generated_Source\PSoC6\pdl\drivers\peripheral\prot/cy_prot.c ****     cy_en_prot_status_t status = CY_PROT_SUCCESS;
ARM GAS  C:\Users\kiwamu\AppData\Local\Temp\ccj1MWYe.s 			page 43


 936:Generated_Source\PSoC6\pdl\drivers\peripheral\prot/cy_prot.c ****     
 937:Generated_Source\PSoC6\pdl\drivers\peripheral\prot/cy_prot.c ****     base->ATT1 |= _VAL2FLD(PERI_PPU_GR_ATT1_ENABLED, CY_PROT_STRUCT_ENABLE);
 1436              		.loc 1 937 0
 1437 0000 436A     		ldr	r3, [r0, #36]
 1438 0002 8022     		movs	r2, #128
 1439 0004 1206     		lsls	r2, r2, #24
 1440 0006 1343     		orrs	r3, r2
 1441 0008 4362     		str	r3, [r0, #36]
 938:Generated_Source\PSoC6\pdl\drivers\peripheral\prot/cy_prot.c ****     status = (_FLD2VAL(PERI_PPU_GR_ATT1_ENABLED, base->ATT1) != CY_PROT_STRUCT_ENABLE) ?
 1442              		.loc 1 938 0
 1443 000a 436A     		ldr	r3, [r0, #36]
 1444 000c 002B     		cmp	r3, #0
 1445 000e 01DB     		blt	.L116
 1446 0010 0148     		ldr	r0, .L117
 1447              	.LVL146:
 1448 0012 00E0     		b	.L115
 1449              	.LVL147:
 1450              	.L116:
 1451 0014 0020     		movs	r0, #0
 1452              	.LVL148:
 1453              	.L115:
 939:Generated_Source\PSoC6\pdl\drivers\peripheral\prot/cy_prot.c ****                 CY_PROT_FAILURE : CY_PROT_SUCCESS;
 940:Generated_Source\PSoC6\pdl\drivers\peripheral\prot/cy_prot.c ****     
 941:Generated_Source\PSoC6\pdl\drivers\peripheral\prot/cy_prot.c ****     return status;
 942:Generated_Source\PSoC6\pdl\drivers\peripheral\prot/cy_prot.c **** }
 1454              		.loc 1 942 0 discriminator 4
 1455              		@ sp needed
 1456 0016 7047     		bx	lr
 1457              	.L118:
 1458              		.align	2
 1459              	.L117:
 1460 0018 0300C200 		.word	12713987
 1461              		.cfi_endproc
 1462              	.LFE54:
 1463              		.size	Cy_Prot_EnablePpuFixedGrMasterStruct, .-Cy_Prot_EnablePpuFixedGrMasterStruct
 1464              		.section	.text.Cy_Prot_DisablePpuFixedGrMasterStruct,"ax",%progbits
 1465              		.align	2
 1466              		.global	Cy_Prot_DisablePpuFixedGrMasterStruct
 1467              		.code	16
 1468              		.thumb_func
 1469              		.type	Cy_Prot_DisablePpuFixedGrMasterStruct, %function
 1470              	Cy_Prot_DisablePpuFixedGrMasterStruct:
 1471              	.LFB55:
 943:Generated_Source\PSoC6\pdl\drivers\peripheral\prot/cy_prot.c **** 
 944:Generated_Source\PSoC6\pdl\drivers\peripheral\prot/cy_prot.c **** 
 945:Generated_Source\PSoC6\pdl\drivers\peripheral\prot/cy_prot.c **** /*******************************************************************************
 946:Generated_Source\PSoC6\pdl\drivers\peripheral\prot/cy_prot.c **** * Function Name: Cy_Prot_DisablePpuFixedGrMasterStruct
 947:Generated_Source\PSoC6\pdl\drivers\peripheral\prot/cy_prot.c **** ****************************************************************************//**
 948:Generated_Source\PSoC6\pdl\drivers\peripheral\prot/cy_prot.c **** *
 949:Generated_Source\PSoC6\pdl\drivers\peripheral\prot/cy_prot.c **** * \brief Disables the Master PPU GR structure.
 950:Generated_Source\PSoC6\pdl\drivers\peripheral\prot/cy_prot.c **** *
 951:Generated_Source\PSoC6\pdl\drivers\peripheral\prot/cy_prot.c **** * This is a PPU GR master struct disable function. The PPU GR protection 
 952:Generated_Source\PSoC6\pdl\drivers\peripheral\prot/cy_prot.c **** * settings will seize to take effect after successful completion of this 
 953:Generated_Source\PSoC6\pdl\drivers\peripheral\prot/cy_prot.c **** * function call.
 954:Generated_Source\PSoC6\pdl\drivers\peripheral\prot/cy_prot.c **** *
 955:Generated_Source\PSoC6\pdl\drivers\peripheral\prot/cy_prot.c **** * \param base
 956:Generated_Source\PSoC6\pdl\drivers\peripheral\prot/cy_prot.c **** * The base address for the protection unit structure being configured. 
ARM GAS  C:\Users\kiwamu\AppData\Local\Temp\ccj1MWYe.s 			page 44


 957:Generated_Source\PSoC6\pdl\drivers\peripheral\prot/cy_prot.c **** *
 958:Generated_Source\PSoC6\pdl\drivers\peripheral\prot/cy_prot.c **** * \return
 959:Generated_Source\PSoC6\pdl\drivers\peripheral\prot/cy_prot.c **** * Status of the function call.
 960:Generated_Source\PSoC6\pdl\drivers\peripheral\prot/cy_prot.c **** *
 961:Generated_Source\PSoC6\pdl\drivers\peripheral\prot/cy_prot.c **** *   Status               | Description
 962:Generated_Source\PSoC6\pdl\drivers\peripheral\prot/cy_prot.c **** *   ------------         | -----------
 963:Generated_Source\PSoC6\pdl\drivers\peripheral\prot/cy_prot.c **** *   CY_PROT_SUCCESS      | The Master PU struct was disabled
 964:Generated_Source\PSoC6\pdl\drivers\peripheral\prot/cy_prot.c **** *   CY_PROT_FAILURE      | The Master PU struct is enabled and possibly locked
 965:Generated_Source\PSoC6\pdl\drivers\peripheral\prot/cy_prot.c **** *  
 966:Generated_Source\PSoC6\pdl\drivers\peripheral\prot/cy_prot.c **** *******************************************************************************/
 967:Generated_Source\PSoC6\pdl\drivers\peripheral\prot/cy_prot.c **** cy_en_prot_status_t Cy_Prot_DisablePpuFixedGrMasterStruct(PERI_PPU_GR_Type* base)
 968:Generated_Source\PSoC6\pdl\drivers\peripheral\prot/cy_prot.c **** {
 1472              		.loc 1 968 0
 1473              		.cfi_startproc
 1474              		@ args = 0, pretend = 0, frame = 0
 1475              		@ frame_needed = 0, uses_anonymous_args = 0
 1476              		@ link register save eliminated.
 1477              	.LVL149:
 969:Generated_Source\PSoC6\pdl\drivers\peripheral\prot/cy_prot.c ****     cy_en_prot_status_t status = CY_PROT_SUCCESS;
 970:Generated_Source\PSoC6\pdl\drivers\peripheral\prot/cy_prot.c ****     
 971:Generated_Source\PSoC6\pdl\drivers\peripheral\prot/cy_prot.c ****     base->ATT1 &= ~_VAL2FLD(PERI_PPU_GR_ATT1_ENABLED, CY_PROT_STRUCT_ENABLE);
 1478              		.loc 1 971 0
 1479 0000 436A     		ldr	r3, [r0, #36]
 1480 0002 5B00     		lsls	r3, r3, #1
 1481 0004 5B08     		lsrs	r3, r3, #1
 1482 0006 4362     		str	r3, [r0, #36]
 972:Generated_Source\PSoC6\pdl\drivers\peripheral\prot/cy_prot.c ****     status = (_FLD2VAL(PERI_PPU_GR_ATT1_ENABLED, base->ATT1) == CY_PROT_STRUCT_ENABLE) ?
 1483              		.loc 1 972 0
 1484 0008 436A     		ldr	r3, [r0, #36]
 1485 000a 002B     		cmp	r3, #0
 1486 000c 01DA     		bge	.L121
 1487 000e 0248     		ldr	r0, .L122
 1488              	.LVL150:
 1489 0010 00E0     		b	.L120
 1490              	.LVL151:
 1491              	.L121:
 1492 0012 0020     		movs	r0, #0
 1493              	.LVL152:
 1494              	.L120:
 973:Generated_Source\PSoC6\pdl\drivers\peripheral\prot/cy_prot.c ****                 CY_PROT_FAILURE : CY_PROT_SUCCESS;
 974:Generated_Source\PSoC6\pdl\drivers\peripheral\prot/cy_prot.c ****     
 975:Generated_Source\PSoC6\pdl\drivers\peripheral\prot/cy_prot.c ****     return status;
 976:Generated_Source\PSoC6\pdl\drivers\peripheral\prot/cy_prot.c **** }
 1495              		.loc 1 976 0 discriminator 4
 1496              		@ sp needed
 1497 0014 7047     		bx	lr
 1498              	.L123:
 1499 0016 C046     		.align	2
 1500              	.L122:
 1501 0018 0300C200 		.word	12713987
 1502              		.cfi_endproc
 1503              	.LFE55:
 1504              		.size	Cy_Prot_DisablePpuFixedGrMasterStruct, .-Cy_Prot_DisablePpuFixedGrMasterStruct
 1505              		.section	.text.Cy_Prot_EnablePpuFixedGrSlaveStruct,"ax",%progbits
 1506              		.align	2
 1507              		.global	Cy_Prot_EnablePpuFixedGrSlaveStruct
 1508              		.code	16
ARM GAS  C:\Users\kiwamu\AppData\Local\Temp\ccj1MWYe.s 			page 45


 1509              		.thumb_func
 1510              		.type	Cy_Prot_EnablePpuFixedGrSlaveStruct, %function
 1511              	Cy_Prot_EnablePpuFixedGrSlaveStruct:
 1512              	.LFB56:
 977:Generated_Source\PSoC6\pdl\drivers\peripheral\prot/cy_prot.c **** 
 978:Generated_Source\PSoC6\pdl\drivers\peripheral\prot/cy_prot.c **** 
 979:Generated_Source\PSoC6\pdl\drivers\peripheral\prot/cy_prot.c **** /*******************************************************************************
 980:Generated_Source\PSoC6\pdl\drivers\peripheral\prot/cy_prot.c **** * Function Name: Cy_Prot_EnablePpuFixedGrSlaveStruct
 981:Generated_Source\PSoC6\pdl\drivers\peripheral\prot/cy_prot.c **** ****************************************************************************//**
 982:Generated_Source\PSoC6\pdl\drivers\peripheral\prot/cy_prot.c **** *
 983:Generated_Source\PSoC6\pdl\drivers\peripheral\prot/cy_prot.c **** * \brief Enables the Slave PPU GR structure.
 984:Generated_Source\PSoC6\pdl\drivers\peripheral\prot/cy_prot.c **** *
 985:Generated_Source\PSoC6\pdl\drivers\peripheral\prot/cy_prot.c **** * This is a PPU GR slave struct enable function. The PPU GR protection 
 986:Generated_Source\PSoC6\pdl\drivers\peripheral\prot/cy_prot.c **** * settings will take effect after successful completion of this function call.
 987:Generated_Source\PSoC6\pdl\drivers\peripheral\prot/cy_prot.c **** *
 988:Generated_Source\PSoC6\pdl\drivers\peripheral\prot/cy_prot.c **** * \param base
 989:Generated_Source\PSoC6\pdl\drivers\peripheral\prot/cy_prot.c **** * The base address for the protection unit structure being configured. 
 990:Generated_Source\PSoC6\pdl\drivers\peripheral\prot/cy_prot.c **** *
 991:Generated_Source\PSoC6\pdl\drivers\peripheral\prot/cy_prot.c **** * \return
 992:Generated_Source\PSoC6\pdl\drivers\peripheral\prot/cy_prot.c **** * Status of the function call.
 993:Generated_Source\PSoC6\pdl\drivers\peripheral\prot/cy_prot.c **** *
 994:Generated_Source\PSoC6\pdl\drivers\peripheral\prot/cy_prot.c **** *   Status               | Description
 995:Generated_Source\PSoC6\pdl\drivers\peripheral\prot/cy_prot.c **** *   ------------         | -----------
 996:Generated_Source\PSoC6\pdl\drivers\peripheral\prot/cy_prot.c **** *   CY_PROT_SUCCESS      | The Slave PU struct was enabled
 997:Generated_Source\PSoC6\pdl\drivers\peripheral\prot/cy_prot.c **** *   CY_PROT_FAILURE      | The Slave PU struct is disabled and possibly locked
 998:Generated_Source\PSoC6\pdl\drivers\peripheral\prot/cy_prot.c **** *  
 999:Generated_Source\PSoC6\pdl\drivers\peripheral\prot/cy_prot.c **** *******************************************************************************/
1000:Generated_Source\PSoC6\pdl\drivers\peripheral\prot/cy_prot.c **** cy_en_prot_status_t Cy_Prot_EnablePpuFixedGrSlaveStruct(PERI_PPU_GR_Type* base)
1001:Generated_Source\PSoC6\pdl\drivers\peripheral\prot/cy_prot.c **** {   
 1513              		.loc 1 1001 0
 1514              		.cfi_startproc
 1515              		@ args = 0, pretend = 0, frame = 0
 1516              		@ frame_needed = 0, uses_anonymous_args = 0
 1517              		@ link register save eliminated.
 1518              	.LVL153:
1002:Generated_Source\PSoC6\pdl\drivers\peripheral\prot/cy_prot.c ****     cy_en_prot_status_t status = CY_PROT_SUCCESS;
1003:Generated_Source\PSoC6\pdl\drivers\peripheral\prot/cy_prot.c ****     
1004:Generated_Source\PSoC6\pdl\drivers\peripheral\prot/cy_prot.c ****     base->ATT0 |= _VAL2FLD(PERI_PPU_GR_ATT0_ENABLED, CY_PROT_STRUCT_ENABLE);
 1519              		.loc 1 1004 0
 1520 0000 4368     		ldr	r3, [r0, #4]
 1521 0002 8022     		movs	r2, #128
 1522 0004 1206     		lsls	r2, r2, #24
 1523 0006 1343     		orrs	r3, r2
 1524 0008 4360     		str	r3, [r0, #4]
1005:Generated_Source\PSoC6\pdl\drivers\peripheral\prot/cy_prot.c ****     status = (_FLD2VAL(PERI_PPU_GR_ATT0_ENABLED, base->ATT0) != CY_PROT_STRUCT_ENABLE) ?
 1525              		.loc 1 1005 0
 1526 000a 4368     		ldr	r3, [r0, #4]
 1527 000c 002B     		cmp	r3, #0
 1528 000e 01DB     		blt	.L126
 1529 0010 0148     		ldr	r0, .L127
 1530              	.LVL154:
 1531 0012 00E0     		b	.L125
 1532              	.LVL155:
 1533              	.L126:
 1534 0014 0020     		movs	r0, #0
 1535              	.LVL156:
 1536              	.L125:
ARM GAS  C:\Users\kiwamu\AppData\Local\Temp\ccj1MWYe.s 			page 46


1006:Generated_Source\PSoC6\pdl\drivers\peripheral\prot/cy_prot.c ****                 CY_PROT_FAILURE : CY_PROT_SUCCESS;
1007:Generated_Source\PSoC6\pdl\drivers\peripheral\prot/cy_prot.c ****     
1008:Generated_Source\PSoC6\pdl\drivers\peripheral\prot/cy_prot.c ****     return status;
1009:Generated_Source\PSoC6\pdl\drivers\peripheral\prot/cy_prot.c **** }
 1537              		.loc 1 1009 0 discriminator 4
 1538              		@ sp needed
 1539 0016 7047     		bx	lr
 1540              	.L128:
 1541              		.align	2
 1542              	.L127:
 1543 0018 0300C200 		.word	12713987
 1544              		.cfi_endproc
 1545              	.LFE56:
 1546              		.size	Cy_Prot_EnablePpuFixedGrSlaveStruct, .-Cy_Prot_EnablePpuFixedGrSlaveStruct
 1547              		.section	.text.Cy_Prot_DisablePpuFixedGrSlaveStruct,"ax",%progbits
 1548              		.align	2
 1549              		.global	Cy_Prot_DisablePpuFixedGrSlaveStruct
 1550              		.code	16
 1551              		.thumb_func
 1552              		.type	Cy_Prot_DisablePpuFixedGrSlaveStruct, %function
 1553              	Cy_Prot_DisablePpuFixedGrSlaveStruct:
 1554              	.LFB57:
1010:Generated_Source\PSoC6\pdl\drivers\peripheral\prot/cy_prot.c **** 
1011:Generated_Source\PSoC6\pdl\drivers\peripheral\prot/cy_prot.c **** 
1012:Generated_Source\PSoC6\pdl\drivers\peripheral\prot/cy_prot.c **** /*******************************************************************************
1013:Generated_Source\PSoC6\pdl\drivers\peripheral\prot/cy_prot.c **** * Function Name: Cy_Prot_DisablePpuFixedGrSlaveStruct
1014:Generated_Source\PSoC6\pdl\drivers\peripheral\prot/cy_prot.c **** ****************************************************************************//**
1015:Generated_Source\PSoC6\pdl\drivers\peripheral\prot/cy_prot.c **** *
1016:Generated_Source\PSoC6\pdl\drivers\peripheral\prot/cy_prot.c **** * \brief Disables the Slave PPU GR structure.
1017:Generated_Source\PSoC6\pdl\drivers\peripheral\prot/cy_prot.c **** *
1018:Generated_Source\PSoC6\pdl\drivers\peripheral\prot/cy_prot.c **** * This is a PPU GR slave struct disable function. The PPU GR protection 
1019:Generated_Source\PSoC6\pdl\drivers\peripheral\prot/cy_prot.c **** * settings will seize to take effect after successful completion of this 
1020:Generated_Source\PSoC6\pdl\drivers\peripheral\prot/cy_prot.c **** * function call.
1021:Generated_Source\PSoC6\pdl\drivers\peripheral\prot/cy_prot.c **** *
1022:Generated_Source\PSoC6\pdl\drivers\peripheral\prot/cy_prot.c **** * \param base
1023:Generated_Source\PSoC6\pdl\drivers\peripheral\prot/cy_prot.c **** * The base address for the protection unit structure being configured. 
1024:Generated_Source\PSoC6\pdl\drivers\peripheral\prot/cy_prot.c **** *
1025:Generated_Source\PSoC6\pdl\drivers\peripheral\prot/cy_prot.c **** * \return
1026:Generated_Source\PSoC6\pdl\drivers\peripheral\prot/cy_prot.c **** * Status of the function call.
1027:Generated_Source\PSoC6\pdl\drivers\peripheral\prot/cy_prot.c **** *
1028:Generated_Source\PSoC6\pdl\drivers\peripheral\prot/cy_prot.c **** *   Status               | Description
1029:Generated_Source\PSoC6\pdl\drivers\peripheral\prot/cy_prot.c **** *   ------------         | -----------
1030:Generated_Source\PSoC6\pdl\drivers\peripheral\prot/cy_prot.c **** *   CY_PROT_SUCCESS      | The Slave PU struct was disabled
1031:Generated_Source\PSoC6\pdl\drivers\peripheral\prot/cy_prot.c **** *   CY_PROT_FAILURE      | The Slave PU struct is enabled and possibly locked
1032:Generated_Source\PSoC6\pdl\drivers\peripheral\prot/cy_prot.c **** *  
1033:Generated_Source\PSoC6\pdl\drivers\peripheral\prot/cy_prot.c **** *******************************************************************************/
1034:Generated_Source\PSoC6\pdl\drivers\peripheral\prot/cy_prot.c **** cy_en_prot_status_t Cy_Prot_DisablePpuFixedGrSlaveStruct(PERI_PPU_GR_Type* base)
1035:Generated_Source\PSoC6\pdl\drivers\peripheral\prot/cy_prot.c **** {
 1555              		.loc 1 1035 0
 1556              		.cfi_startproc
 1557              		@ args = 0, pretend = 0, frame = 0
 1558              		@ frame_needed = 0, uses_anonymous_args = 0
 1559              		@ link register save eliminated.
 1560              	.LVL157:
1036:Generated_Source\PSoC6\pdl\drivers\peripheral\prot/cy_prot.c ****     cy_en_prot_status_t status = CY_PROT_SUCCESS;
1037:Generated_Source\PSoC6\pdl\drivers\peripheral\prot/cy_prot.c ****     
1038:Generated_Source\PSoC6\pdl\drivers\peripheral\prot/cy_prot.c ****     base->ATT0 &= ~_VAL2FLD(PERI_PPU_GR_ATT0_ENABLED, CY_PROT_STRUCT_ENABLE);
ARM GAS  C:\Users\kiwamu\AppData\Local\Temp\ccj1MWYe.s 			page 47


 1561              		.loc 1 1038 0
 1562 0000 4368     		ldr	r3, [r0, #4]
 1563 0002 5B00     		lsls	r3, r3, #1
 1564 0004 5B08     		lsrs	r3, r3, #1
 1565 0006 4360     		str	r3, [r0, #4]
1039:Generated_Source\PSoC6\pdl\drivers\peripheral\prot/cy_prot.c ****     status = (_FLD2VAL(PERI_PPU_GR_ATT0_ENABLED, base->ATT0) == CY_PROT_STRUCT_ENABLE) ?
 1566              		.loc 1 1039 0
 1567 0008 4368     		ldr	r3, [r0, #4]
 1568 000a 002B     		cmp	r3, #0
 1569 000c 01DA     		bge	.L131
 1570 000e 0248     		ldr	r0, .L132
 1571              	.LVL158:
 1572 0010 00E0     		b	.L130
 1573              	.LVL159:
 1574              	.L131:
 1575 0012 0020     		movs	r0, #0
 1576              	.LVL160:
 1577              	.L130:
1040:Generated_Source\PSoC6\pdl\drivers\peripheral\prot/cy_prot.c ****                 CY_PROT_FAILURE : CY_PROT_SUCCESS;
1041:Generated_Source\PSoC6\pdl\drivers\peripheral\prot/cy_prot.c ****     
1042:Generated_Source\PSoC6\pdl\drivers\peripheral\prot/cy_prot.c ****     return status;
1043:Generated_Source\PSoC6\pdl\drivers\peripheral\prot/cy_prot.c **** }
 1578              		.loc 1 1043 0 discriminator 4
 1579              		@ sp needed
 1580 0014 7047     		bx	lr
 1581              	.L133:
 1582 0016 C046     		.align	2
 1583              	.L132:
 1584 0018 0300C200 		.word	12713987
 1585              		.cfi_endproc
 1586              	.LFE57:
 1587              		.size	Cy_Prot_DisablePpuFixedGrSlaveStruct, .-Cy_Prot_DisablePpuFixedGrSlaveStruct
 1588              		.section	.text.Cy_Prot_ConfigPpuFixedSlMasterStruct,"ax",%progbits
 1589              		.align	2
 1590              		.global	Cy_Prot_ConfigPpuFixedSlMasterStruct
 1591              		.code	16
 1592              		.thumb_func
 1593              		.type	Cy_Prot_ConfigPpuFixedSlMasterStruct, %function
 1594              	Cy_Prot_ConfigPpuFixedSlMasterStruct:
 1595              	.LFB58:
1044:Generated_Source\PSoC6\pdl\drivers\peripheral\prot/cy_prot.c **** 
1045:Generated_Source\PSoC6\pdl\drivers\peripheral\prot/cy_prot.c **** 
1046:Generated_Source\PSoC6\pdl\drivers\peripheral\prot/cy_prot.c **** /*******************************************************************************
1047:Generated_Source\PSoC6\pdl\drivers\peripheral\prot/cy_prot.c **** * Function Name: Cy_Prot_ConfigPpuFixedSlMasterStruct
1048:Generated_Source\PSoC6\pdl\drivers\peripheral\prot/cy_prot.c **** ****************************************************************************//**
1049:Generated_Source\PSoC6\pdl\drivers\peripheral\prot/cy_prot.c **** *
1050:Generated_Source\PSoC6\pdl\drivers\peripheral\prot/cy_prot.c **** * \brief Configures a Fixed Peripheral Slave Protection Unit (PPU SL) master 
1051:Generated_Source\PSoC6\pdl\drivers\peripheral\prot/cy_prot.c **** * protection struct with its protection attributes. 
1052:Generated_Source\PSoC6\pdl\drivers\peripheral\prot/cy_prot.c **** *
1053:Generated_Source\PSoC6\pdl\drivers\peripheral\prot/cy_prot.c **** * This function configures the master struct governing the corresponding slave
1054:Generated_Source\PSoC6\pdl\drivers\peripheral\prot/cy_prot.c **** * struct pair. It is a mechanism to protect the slave PPU SL struct. Since
1055:Generated_Source\PSoC6\pdl\drivers\peripheral\prot/cy_prot.c **** * the memory location of the slave struct is known, the address, regionSize and
1056:Generated_Source\PSoC6\pdl\drivers\peripheral\prot/cy_prot.c **** * subregions of the configuration struct are not applicable.
1057:Generated_Source\PSoC6\pdl\drivers\peripheral\prot/cy_prot.c **** *
1058:Generated_Source\PSoC6\pdl\drivers\peripheral\prot/cy_prot.c **** * Note that only the user/privileged write permissions are configurable. The 
1059:Generated_Source\PSoC6\pdl\drivers\peripheral\prot/cy_prot.c **** * read and execute permissions are read-only and cannot be configured.
1060:Generated_Source\PSoC6\pdl\drivers\peripheral\prot/cy_prot.c **** *
ARM GAS  C:\Users\kiwamu\AppData\Local\Temp\ccj1MWYe.s 			page 48


1061:Generated_Source\PSoC6\pdl\drivers\peripheral\prot/cy_prot.c **** * \param base
1062:Generated_Source\PSoC6\pdl\drivers\peripheral\prot/cy_prot.c **** * The register base address of the protection struct being configured.
1063:Generated_Source\PSoC6\pdl\drivers\peripheral\prot/cy_prot.c **** * 
1064:Generated_Source\PSoC6\pdl\drivers\peripheral\prot/cy_prot.c **** * \param config
1065:Generated_Source\PSoC6\pdl\drivers\peripheral\prot/cy_prot.c **** * Initialization structure with all the protection attributes.
1066:Generated_Source\PSoC6\pdl\drivers\peripheral\prot/cy_prot.c **** * 
1067:Generated_Source\PSoC6\pdl\drivers\peripheral\prot/cy_prot.c **** * \return
1068:Generated_Source\PSoC6\pdl\drivers\peripheral\prot/cy_prot.c **** * Status of the function call.
1069:Generated_Source\PSoC6\pdl\drivers\peripheral\prot/cy_prot.c **** *
1070:Generated_Source\PSoC6\pdl\drivers\peripheral\prot/cy_prot.c **** *   Status               | Description
1071:Generated_Source\PSoC6\pdl\drivers\peripheral\prot/cy_prot.c **** *   ------------         | -----------
1072:Generated_Source\PSoC6\pdl\drivers\peripheral\prot/cy_prot.c **** *   CY_PROT_SUCCESS      | PPU SL master struct was successfully configured
1073:Generated_Source\PSoC6\pdl\drivers\peripheral\prot/cy_prot.c **** *   CY_PROT_FAILURE      | The resource is locked
1074:Generated_Source\PSoC6\pdl\drivers\peripheral\prot/cy_prot.c **** *   CY_PROT_BAD_PARAM    | An incorrect/invalid parameter was passed
1075:Generated_Source\PSoC6\pdl\drivers\peripheral\prot/cy_prot.c **** *  
1076:Generated_Source\PSoC6\pdl\drivers\peripheral\prot/cy_prot.c **** *******************************************************************************/
1077:Generated_Source\PSoC6\pdl\drivers\peripheral\prot/cy_prot.c **** cy_en_prot_status_t Cy_Prot_ConfigPpuFixedSlMasterStruct(PERI_GR_PPU_SL_Type* base, const cy_stc_pp
1078:Generated_Source\PSoC6\pdl\drivers\peripheral\prot/cy_prot.c **** {
 1596              		.loc 1 1078 0
 1597              		.cfi_startproc
 1598              		@ args = 0, pretend = 0, frame = 0
 1599              		@ frame_needed = 0, uses_anonymous_args = 0
 1600              	.LVL161:
 1601 0000 70B5     		push	{r4, r5, r6, lr}
 1602              		.cfi_def_cfa_offset 16
 1603              		.cfi_offset 4, -16
 1604              		.cfi_offset 5, -12
 1605              		.cfi_offset 6, -8
 1606              		.cfi_offset 14, -4
 1607              	.LVL162:
1079:Generated_Source\PSoC6\pdl\drivers\peripheral\prot/cy_prot.c ****     cy_en_prot_status_t status = CY_PROT_SUCCESS;
1080:Generated_Source\PSoC6\pdl\drivers\peripheral\prot/cy_prot.c ****     uint32_t attReg;
1081:Generated_Source\PSoC6\pdl\drivers\peripheral\prot/cy_prot.c ****     
1082:Generated_Source\PSoC6\pdl\drivers\peripheral\prot/cy_prot.c ****     if(((uint32_t)config->pcMask & CY_PROT_PPU_FIXED_PC_LIMIT_MASK) != 0UL) 
 1608              		.loc 1 1082 0
 1609 0002 8C88     		ldrh	r4, [r1, #4]
 1610 0004 7F23     		movs	r3, #127
 1611 0006 2200     		movs	r2, r4
 1612 0008 9A43     		bics	r2, r3
 1613 000a 28D1     		bne	.L136
1083:Generated_Source\PSoC6\pdl\drivers\peripheral\prot/cy_prot.c ****     {
1084:Generated_Source\PSoC6\pdl\drivers\peripheral\prot/cy_prot.c ****         /* PC mask out of range - not supported in device */
1085:Generated_Source\PSoC6\pdl\drivers\peripheral\prot/cy_prot.c ****         status = CY_PROT_BAD_PARAM;
1086:Generated_Source\PSoC6\pdl\drivers\peripheral\prot/cy_prot.c ****     }
1087:Generated_Source\PSoC6\pdl\drivers\peripheral\prot/cy_prot.c ****     else
1088:Generated_Source\PSoC6\pdl\drivers\peripheral\prot/cy_prot.c ****     {
1089:Generated_Source\PSoC6\pdl\drivers\peripheral\prot/cy_prot.c ****         /* ADDR1 is read only. Only configure ATT1 */
1090:Generated_Source\PSoC6\pdl\drivers\peripheral\prot/cy_prot.c ****         attReg = ((uint32_t)config->userPermission & CY_PROT_ATT_PERMISSION_MASK)
 1614              		.loc 1 1090 0
 1615 000c 0B78     		ldrb	r3, [r1]
 1616 000e 0725     		movs	r5, #7
 1617 0010 1D40     		ands	r5, r3
1091:Generated_Source\PSoC6\pdl\drivers\peripheral\prot/cy_prot.c ****                     | (uint32_t)(((uint32_t)config->privPermission & CY_PROT_ATT_PERMISSION_MASK) <
 1618              		.loc 1 1091 0
 1619 0012 4A78     		ldrb	r2, [r1, #1]
 1620 0014 D200     		lsls	r2, r2, #3
 1621 0016 3823     		movs	r3, #56
ARM GAS  C:\Users\kiwamu\AppData\Local\Temp\ccj1MWYe.s 			page 49


 1622 0018 1340     		ands	r3, r2
 1623 001a 1D43     		orrs	r5, r3
1092:Generated_Source\PSoC6\pdl\drivers\peripheral\prot/cy_prot.c ****                     | _VAL2FLD(PERI_GR_PPU_SL_ATT1_NS, !(config->secure))
 1624              		.loc 1 1092 0
 1625 001c 8B78     		ldrb	r3, [r1, #2]
 1626 001e 0122     		movs	r2, #1
 1627 0020 5A40     		eors	r2, r3
 1628 0022 D2B2     		uxtb	r2, r2
 1629 0024 9201     		lsls	r2, r2, #6
 1630 0026 4023     		movs	r3, #64
 1631 0028 1A40     		ands	r2, r3
 1632 002a 2B00     		movs	r3, r5
 1633 002c 1343     		orrs	r3, r2
1093:Generated_Source\PSoC6\pdl\drivers\peripheral\prot/cy_prot.c ****                     | _VAL2FLD(PERI_GR_PPU_SL_ATT1_PC_MASK_15_TO_1, config->pcMask)
 1634              		.loc 1 1093 0
 1635 002e 6402     		lsls	r4, r4, #9
 1636 0030 0E4A     		ldr	r2, .L139
 1637 0032 1440     		ands	r4, r2
 1638 0034 1C43     		orrs	r4, r3
1094:Generated_Source\PSoC6\pdl\drivers\peripheral\prot/cy_prot.c ****                     /* No region size - read only for master structs */
1095:Generated_Source\PSoC6\pdl\drivers\peripheral\prot/cy_prot.c ****                     | _VAL2FLD(PERI_GR_PPU_SL_ATT1_PC_MATCH, config->pcMatch);
 1639              		.loc 1 1095 0
 1640 0036 CB78     		ldrb	r3, [r1, #3]
 1641 0038 9B07     		lsls	r3, r3, #30
 1642 003a 8021     		movs	r1, #128
 1643              	.LVL163:
 1644 003c C905     		lsls	r1, r1, #23
 1645 003e 0B40     		ands	r3, r1
 1646 0040 1A00     		movs	r2, r3
1090:Generated_Source\PSoC6\pdl\drivers\peripheral\prot/cy_prot.c ****                     | (uint32_t)(((uint32_t)config->privPermission & CY_PROT_ATT_PERMISSION_MASK) <
 1647              		.loc 1 1090 0
 1648 0042 2300     		movs	r3, r4
 1649 0044 1343     		orrs	r3, r2
 1650              	.LVL164:
1096:Generated_Source\PSoC6\pdl\drivers\peripheral\prot/cy_prot.c ****         if ((attReg & CY_PROT_PPU_SL_ATT1_MASK) != attReg)
 1651              		.loc 1 1096 0
 1652 0046 0A4A     		ldr	r2, .L139+4
 1653 0048 1A40     		ands	r2, r3
 1654 004a 9342     		cmp	r3, r2
 1655 004c 09D1     		bne	.L137
1097:Generated_Source\PSoC6\pdl\drivers\peripheral\prot/cy_prot.c ****         {
1098:Generated_Source\PSoC6\pdl\drivers\peripheral\prot/cy_prot.c ****             /* Invalid parameter was passed */
1099:Generated_Source\PSoC6\pdl\drivers\peripheral\prot/cy_prot.c ****             status = CY_PROT_BAD_PARAM;
1100:Generated_Source\PSoC6\pdl\drivers\peripheral\prot/cy_prot.c ****         }
1101:Generated_Source\PSoC6\pdl\drivers\peripheral\prot/cy_prot.c ****         else
1102:Generated_Source\PSoC6\pdl\drivers\peripheral\prot/cy_prot.c ****         {
1103:Generated_Source\PSoC6\pdl\drivers\peripheral\prot/cy_prot.c ****             base->ATT1 = attReg;
 1656              		.loc 1 1103 0
 1657 004e 4362     		str	r3, [r0, #36]
1104:Generated_Source\PSoC6\pdl\drivers\peripheral\prot/cy_prot.c ****             status = ((base->ATT1 & CY_PROT_PPU_SL_ATT1_MASK) != attReg) ? CY_PROT_FAILURE : CY_PRO
 1658              		.loc 1 1104 0
 1659 0050 416A     		ldr	r1, [r0, #36]
 1660 0052 074A     		ldr	r2, .L139+4
 1661 0054 0A40     		ands	r2, r1
 1662 0056 9342     		cmp	r3, r2
 1663 0058 05D0     		beq	.L138
 1664 005a 0648     		ldr	r0, .L139+8
ARM GAS  C:\Users\kiwamu\AppData\Local\Temp\ccj1MWYe.s 			page 50


 1665              	.LVL165:
 1666 005c 04E0     		b	.L135
 1667              	.LVL166:
 1668              	.L136:
1085:Generated_Source\PSoC6\pdl\drivers\peripheral\prot/cy_prot.c ****     }
 1669              		.loc 1 1085 0
 1670 005e 0648     		ldr	r0, .L139+12
 1671              	.LVL167:
 1672 0060 02E0     		b	.L135
 1673              	.LVL168:
 1674              	.L137:
1099:Generated_Source\PSoC6\pdl\drivers\peripheral\prot/cy_prot.c ****         }
 1675              		.loc 1 1099 0
 1676 0062 0548     		ldr	r0, .L139+12
 1677              	.LVL169:
 1678 0064 00E0     		b	.L135
 1679              	.LVL170:
 1680              	.L138:
 1681              		.loc 1 1104 0
 1682 0066 0020     		movs	r0, #0
 1683              	.LVL171:
 1684              	.L135:
1105:Generated_Source\PSoC6\pdl\drivers\peripheral\prot/cy_prot.c ****         }
1106:Generated_Source\PSoC6\pdl\drivers\peripheral\prot/cy_prot.c ****     }
1107:Generated_Source\PSoC6\pdl\drivers\peripheral\prot/cy_prot.c ****     
1108:Generated_Source\PSoC6\pdl\drivers\peripheral\prot/cy_prot.c ****     return status;
1109:Generated_Source\PSoC6\pdl\drivers\peripheral\prot/cy_prot.c **** }
 1685              		.loc 1 1109 0
 1686              		@ sp needed
 1687 0068 70BD     		pop	{r4, r5, r6, pc}
 1688              	.L140:
 1689 006a C046     		.align	2
 1690              	.L139:
 1691 006c 00FEFF00 		.word	16776704
 1692 0070 D2FEFFE0 		.word	-520093998
 1693 0074 0300C200 		.word	12713987
 1694 0078 0100C200 		.word	12713985
 1695              		.cfi_endproc
 1696              	.LFE58:
 1697              		.size	Cy_Prot_ConfigPpuFixedSlMasterStruct, .-Cy_Prot_ConfigPpuFixedSlMasterStruct
 1698              		.section	.text.Cy_Prot_ConfigPpuFixedSlSlaveStruct,"ax",%progbits
 1699              		.align	2
 1700              		.global	Cy_Prot_ConfigPpuFixedSlSlaveStruct
 1701              		.code	16
 1702              		.thumb_func
 1703              		.type	Cy_Prot_ConfigPpuFixedSlSlaveStruct, %function
 1704              	Cy_Prot_ConfigPpuFixedSlSlaveStruct:
 1705              	.LFB59:
1110:Generated_Source\PSoC6\pdl\drivers\peripheral\prot/cy_prot.c **** 
1111:Generated_Source\PSoC6\pdl\drivers\peripheral\prot/cy_prot.c **** 
1112:Generated_Source\PSoC6\pdl\drivers\peripheral\prot/cy_prot.c **** /*******************************************************************************
1113:Generated_Source\PSoC6\pdl\drivers\peripheral\prot/cy_prot.c **** * Function Name: Cy_Prot_ConfigPpuFixedSlSlaveStruct
1114:Generated_Source\PSoC6\pdl\drivers\peripheral\prot/cy_prot.c **** ****************************************************************************//**
1115:Generated_Source\PSoC6\pdl\drivers\peripheral\prot/cy_prot.c **** *
1116:Generated_Source\PSoC6\pdl\drivers\peripheral\prot/cy_prot.c **** * \brief Configures a Fixed Peripheral Slave Protection Unit (PPU SL) slave
1117:Generated_Source\PSoC6\pdl\drivers\peripheral\prot/cy_prot.c **** * protection struct with its protection attributes. 
1118:Generated_Source\PSoC6\pdl\drivers\peripheral\prot/cy_prot.c **** * 
ARM GAS  C:\Users\kiwamu\AppData\Local\Temp\ccj1MWYe.s 			page 51


1119:Generated_Source\PSoC6\pdl\drivers\peripheral\prot/cy_prot.c **** * This function configures the slave struct of a PPU SL pair, which can 
1120:Generated_Source\PSoC6\pdl\drivers\peripheral\prot/cy_prot.c **** * protect an entire peripheral slave instance from invalid bus master accesses.
1121:Generated_Source\PSoC6\pdl\drivers\peripheral\prot/cy_prot.c **** * For example, TCPWM0, TCPWM1, SCB0 and SCB1 etc.
1122:Generated_Source\PSoC6\pdl\drivers\peripheral\prot/cy_prot.c **** *
1123:Generated_Source\PSoC6\pdl\drivers\peripheral\prot/cy_prot.c **** * Each fixed PPU SL is devoted to a defined peripheral slave. Hence the address, 
1124:Generated_Source\PSoC6\pdl\drivers\peripheral\prot/cy_prot.c **** * regionSize and subregions of the configuration struct are not applicable.
1125:Generated_Source\PSoC6\pdl\drivers\peripheral\prot/cy_prot.c **** *
1126:Generated_Source\PSoC6\pdl\drivers\peripheral\prot/cy_prot.c **** * Note that the user/privileged execute accesses are read-only and are always 
1127:Generated_Source\PSoC6\pdl\drivers\peripheral\prot/cy_prot.c **** * enabled. 
1128:Generated_Source\PSoC6\pdl\drivers\peripheral\prot/cy_prot.c **** *
1129:Generated_Source\PSoC6\pdl\drivers\peripheral\prot/cy_prot.c **** * \param base
1130:Generated_Source\PSoC6\pdl\drivers\peripheral\prot/cy_prot.c **** * The register base address of the protection structure being configured.
1131:Generated_Source\PSoC6\pdl\drivers\peripheral\prot/cy_prot.c **** * 
1132:Generated_Source\PSoC6\pdl\drivers\peripheral\prot/cy_prot.c **** * \param config
1133:Generated_Source\PSoC6\pdl\drivers\peripheral\prot/cy_prot.c **** * Initialization structure with all the protection attributes.
1134:Generated_Source\PSoC6\pdl\drivers\peripheral\prot/cy_prot.c **** * 
1135:Generated_Source\PSoC6\pdl\drivers\peripheral\prot/cy_prot.c **** * \return
1136:Generated_Source\PSoC6\pdl\drivers\peripheral\prot/cy_prot.c **** * Status of the function call.
1137:Generated_Source\PSoC6\pdl\drivers\peripheral\prot/cy_prot.c **** *
1138:Generated_Source\PSoC6\pdl\drivers\peripheral\prot/cy_prot.c **** *   Status               | Description
1139:Generated_Source\PSoC6\pdl\drivers\peripheral\prot/cy_prot.c **** *   ------------         | -----------
1140:Generated_Source\PSoC6\pdl\drivers\peripheral\prot/cy_prot.c **** *   CY_PROT_SUCCESS      | PPU SL slave struct was successfully configured
1141:Generated_Source\PSoC6\pdl\drivers\peripheral\prot/cy_prot.c **** *   CY_PROT_FAILURE      | The resource is locked
1142:Generated_Source\PSoC6\pdl\drivers\peripheral\prot/cy_prot.c **** *   CY_PROT_BAD_PARAM    | An incorrect/invalid parameter was passed
1143:Generated_Source\PSoC6\pdl\drivers\peripheral\prot/cy_prot.c **** *  
1144:Generated_Source\PSoC6\pdl\drivers\peripheral\prot/cy_prot.c **** *******************************************************************************/
1145:Generated_Source\PSoC6\pdl\drivers\peripheral\prot/cy_prot.c **** cy_en_prot_status_t Cy_Prot_ConfigPpuFixedSlSlaveStruct(PERI_GR_PPU_SL_Type* base, const cy_stc_ppu
1146:Generated_Source\PSoC6\pdl\drivers\peripheral\prot/cy_prot.c **** {
 1706              		.loc 1 1146 0
 1707              		.cfi_startproc
 1708              		@ args = 0, pretend = 0, frame = 0
 1709              		@ frame_needed = 0, uses_anonymous_args = 0
 1710              	.LVL172:
 1711 0000 70B5     		push	{r4, r5, r6, lr}
 1712              		.cfi_def_cfa_offset 16
 1713              		.cfi_offset 4, -16
 1714              		.cfi_offset 5, -12
 1715              		.cfi_offset 6, -8
 1716              		.cfi_offset 14, -4
 1717              	.LVL173:
1147:Generated_Source\PSoC6\pdl\drivers\peripheral\prot/cy_prot.c ****     cy_en_prot_status_t status = CY_PROT_SUCCESS;
1148:Generated_Source\PSoC6\pdl\drivers\peripheral\prot/cy_prot.c ****     uint32_t attReg;
1149:Generated_Source\PSoC6\pdl\drivers\peripheral\prot/cy_prot.c ****     
1150:Generated_Source\PSoC6\pdl\drivers\peripheral\prot/cy_prot.c ****     if(((uint32_t)config->pcMask & CY_PROT_PPU_FIXED_PC_LIMIT_MASK) != 0UL) 
 1718              		.loc 1 1150 0
 1719 0002 8C88     		ldrh	r4, [r1, #4]
 1720 0004 7F23     		movs	r3, #127
 1721 0006 2200     		movs	r2, r4
 1722 0008 9A43     		bics	r2, r3
 1723 000a 28D1     		bne	.L143
1151:Generated_Source\PSoC6\pdl\drivers\peripheral\prot/cy_prot.c ****     {
1152:Generated_Source\PSoC6\pdl\drivers\peripheral\prot/cy_prot.c ****         /* PC mask out of range - not supported in device */
1153:Generated_Source\PSoC6\pdl\drivers\peripheral\prot/cy_prot.c ****         status = CY_PROT_BAD_PARAM;
1154:Generated_Source\PSoC6\pdl\drivers\peripheral\prot/cy_prot.c ****     }
1155:Generated_Source\PSoC6\pdl\drivers\peripheral\prot/cy_prot.c ****     else
1156:Generated_Source\PSoC6\pdl\drivers\peripheral\prot/cy_prot.c ****     {
1157:Generated_Source\PSoC6\pdl\drivers\peripheral\prot/cy_prot.c ****         /* ADDR0 is read only. Only configure ATT0 */
ARM GAS  C:\Users\kiwamu\AppData\Local\Temp\ccj1MWYe.s 			page 52


1158:Generated_Source\PSoC6\pdl\drivers\peripheral\prot/cy_prot.c ****         attReg = ((uint32_t)config->userPermission & CY_PROT_ATT_PERMISSION_MASK)
 1724              		.loc 1 1158 0
 1725 000c 0B78     		ldrb	r3, [r1]
 1726 000e 0725     		movs	r5, #7
 1727 0010 1D40     		ands	r5, r3
1159:Generated_Source\PSoC6\pdl\drivers\peripheral\prot/cy_prot.c ****                     | (uint32_t)(((uint32_t)config->privPermission & CY_PROT_ATT_PERMISSION_MASK) <
 1728              		.loc 1 1159 0
 1729 0012 4A78     		ldrb	r2, [r1, #1]
 1730 0014 D200     		lsls	r2, r2, #3
 1731 0016 3823     		movs	r3, #56
 1732 0018 1340     		ands	r3, r2
 1733 001a 1D43     		orrs	r5, r3
1160:Generated_Source\PSoC6\pdl\drivers\peripheral\prot/cy_prot.c ****                     | _VAL2FLD(PERI_GR_PPU_SL_ATT0_NS, !(config->secure))
 1734              		.loc 1 1160 0
 1735 001c 8B78     		ldrb	r3, [r1, #2]
 1736 001e 0122     		movs	r2, #1
 1737 0020 5A40     		eors	r2, r3
 1738 0022 D2B2     		uxtb	r2, r2
 1739 0024 9201     		lsls	r2, r2, #6
 1740 0026 4023     		movs	r3, #64
 1741 0028 1A40     		ands	r2, r3
 1742 002a 2B00     		movs	r3, r5
 1743 002c 1343     		orrs	r3, r2
1161:Generated_Source\PSoC6\pdl\drivers\peripheral\prot/cy_prot.c ****                     | _VAL2FLD(PERI_GR_PPU_SL_ATT0_PC_MASK_15_TO_1, config->pcMask)
 1744              		.loc 1 1161 0
 1745 002e 6402     		lsls	r4, r4, #9
 1746 0030 0E4A     		ldr	r2, .L146
 1747 0032 1440     		ands	r4, r2
 1748 0034 1C43     		orrs	r4, r3
1162:Generated_Source\PSoC6\pdl\drivers\peripheral\prot/cy_prot.c ****                     /* No region size - read only */
1163:Generated_Source\PSoC6\pdl\drivers\peripheral\prot/cy_prot.c ****                     | _VAL2FLD(PERI_GR_PPU_SL_ATT0_PC_MATCH, config->pcMatch);
 1749              		.loc 1 1163 0
 1750 0036 CB78     		ldrb	r3, [r1, #3]
 1751 0038 9B07     		lsls	r3, r3, #30
 1752 003a 8021     		movs	r1, #128
 1753              	.LVL174:
 1754 003c C905     		lsls	r1, r1, #23
 1755 003e 0B40     		ands	r3, r1
 1756 0040 1A00     		movs	r2, r3
1158:Generated_Source\PSoC6\pdl\drivers\peripheral\prot/cy_prot.c ****                     | (uint32_t)(((uint32_t)config->privPermission & CY_PROT_ATT_PERMISSION_MASK) <
 1757              		.loc 1 1158 0
 1758 0042 2300     		movs	r3, r4
 1759 0044 1343     		orrs	r3, r2
 1760              	.LVL175:
1164:Generated_Source\PSoC6\pdl\drivers\peripheral\prot/cy_prot.c ****         if ((attReg & CY_PROT_PPU_SL_ATT0_MASK) != attReg)
 1761              		.loc 1 1164 0
 1762 0046 0A4A     		ldr	r2, .L146+4
 1763 0048 1A40     		ands	r2, r3
 1764 004a 9342     		cmp	r3, r2
 1765 004c 09D1     		bne	.L144
1165:Generated_Source\PSoC6\pdl\drivers\peripheral\prot/cy_prot.c ****         {
1166:Generated_Source\PSoC6\pdl\drivers\peripheral\prot/cy_prot.c ****             /* Invalid parameter was passed */
1167:Generated_Source\PSoC6\pdl\drivers\peripheral\prot/cy_prot.c ****             status = CY_PROT_BAD_PARAM;
1168:Generated_Source\PSoC6\pdl\drivers\peripheral\prot/cy_prot.c ****         }
1169:Generated_Source\PSoC6\pdl\drivers\peripheral\prot/cy_prot.c ****         else
1170:Generated_Source\PSoC6\pdl\drivers\peripheral\prot/cy_prot.c ****         {
1171:Generated_Source\PSoC6\pdl\drivers\peripheral\prot/cy_prot.c ****             base->ATT0 = attReg;
ARM GAS  C:\Users\kiwamu\AppData\Local\Temp\ccj1MWYe.s 			page 53


 1766              		.loc 1 1171 0
 1767 004e 4360     		str	r3, [r0, #4]
1172:Generated_Source\PSoC6\pdl\drivers\peripheral\prot/cy_prot.c ****             status = ((base->ATT0 & CY_PROT_PPU_SL_ATT0_MASK) != attReg) ? CY_PROT_FAILURE : CY_PRO
 1768              		.loc 1 1172 0
 1769 0050 4168     		ldr	r1, [r0, #4]
 1770 0052 074A     		ldr	r2, .L146+4
 1771 0054 0A40     		ands	r2, r1
 1772 0056 9342     		cmp	r3, r2
 1773 0058 05D0     		beq	.L145
 1774 005a 0648     		ldr	r0, .L146+8
 1775              	.LVL176:
 1776 005c 04E0     		b	.L142
 1777              	.LVL177:
 1778              	.L143:
1153:Generated_Source\PSoC6\pdl\drivers\peripheral\prot/cy_prot.c ****     }
 1779              		.loc 1 1153 0
 1780 005e 0648     		ldr	r0, .L146+12
 1781              	.LVL178:
 1782 0060 02E0     		b	.L142
 1783              	.LVL179:
 1784              	.L144:
1167:Generated_Source\PSoC6\pdl\drivers\peripheral\prot/cy_prot.c ****         }
 1785              		.loc 1 1167 0
 1786 0062 0548     		ldr	r0, .L146+12
 1787              	.LVL180:
 1788 0064 00E0     		b	.L142
 1789              	.LVL181:
 1790              	.L145:
 1791              		.loc 1 1172 0
 1792 0066 0020     		movs	r0, #0
 1793              	.LVL182:
 1794              	.L142:
1173:Generated_Source\PSoC6\pdl\drivers\peripheral\prot/cy_prot.c ****         }
1174:Generated_Source\PSoC6\pdl\drivers\peripheral\prot/cy_prot.c ****     }
1175:Generated_Source\PSoC6\pdl\drivers\peripheral\prot/cy_prot.c ****     
1176:Generated_Source\PSoC6\pdl\drivers\peripheral\prot/cy_prot.c ****     return status;
1177:Generated_Source\PSoC6\pdl\drivers\peripheral\prot/cy_prot.c **** }
 1795              		.loc 1 1177 0
 1796              		@ sp needed
 1797 0068 70BD     		pop	{r4, r5, r6, pc}
 1798              	.L147:
 1799 006a C046     		.align	2
 1800              	.L146:
 1801 006c 00FEFF00 		.word	16776704
 1802 0070 DBFEFFE0 		.word	-520093989
 1803 0074 0300C200 		.word	12713987
 1804 0078 0100C200 		.word	12713985
 1805              		.cfi_endproc
 1806              	.LFE59:
 1807              		.size	Cy_Prot_ConfigPpuFixedSlSlaveStruct, .-Cy_Prot_ConfigPpuFixedSlSlaveStruct
 1808              		.section	.text.Cy_Prot_EnablePpuFixedSlMasterStruct,"ax",%progbits
 1809              		.align	2
 1810              		.global	Cy_Prot_EnablePpuFixedSlMasterStruct
 1811              		.code	16
 1812              		.thumb_func
 1813              		.type	Cy_Prot_EnablePpuFixedSlMasterStruct, %function
 1814              	Cy_Prot_EnablePpuFixedSlMasterStruct:
ARM GAS  C:\Users\kiwamu\AppData\Local\Temp\ccj1MWYe.s 			page 54


 1815              	.LFB60:
1178:Generated_Source\PSoC6\pdl\drivers\peripheral\prot/cy_prot.c **** 
1179:Generated_Source\PSoC6\pdl\drivers\peripheral\prot/cy_prot.c **** 
1180:Generated_Source\PSoC6\pdl\drivers\peripheral\prot/cy_prot.c **** /*******************************************************************************
1181:Generated_Source\PSoC6\pdl\drivers\peripheral\prot/cy_prot.c **** * Function Name: Cy_Prot_EnablePpuFixedSlMasterStruct
1182:Generated_Source\PSoC6\pdl\drivers\peripheral\prot/cy_prot.c **** ****************************************************************************//**
1183:Generated_Source\PSoC6\pdl\drivers\peripheral\prot/cy_prot.c **** *
1184:Generated_Source\PSoC6\pdl\drivers\peripheral\prot/cy_prot.c **** * \brief Enables the Master PPU SL structure.
1185:Generated_Source\PSoC6\pdl\drivers\peripheral\prot/cy_prot.c **** *
1186:Generated_Source\PSoC6\pdl\drivers\peripheral\prot/cy_prot.c **** * This is a PPU SL master struct enable function. The PPU SL protection 
1187:Generated_Source\PSoC6\pdl\drivers\peripheral\prot/cy_prot.c **** * settings will take effect after successful completion of this function call.
1188:Generated_Source\PSoC6\pdl\drivers\peripheral\prot/cy_prot.c **** *
1189:Generated_Source\PSoC6\pdl\drivers\peripheral\prot/cy_prot.c **** * \param base
1190:Generated_Source\PSoC6\pdl\drivers\peripheral\prot/cy_prot.c **** * The base address for the protection unit structure being configured. 
1191:Generated_Source\PSoC6\pdl\drivers\peripheral\prot/cy_prot.c **** *
1192:Generated_Source\PSoC6\pdl\drivers\peripheral\prot/cy_prot.c **** * \return
1193:Generated_Source\PSoC6\pdl\drivers\peripheral\prot/cy_prot.c **** * Status of the function call.
1194:Generated_Source\PSoC6\pdl\drivers\peripheral\prot/cy_prot.c **** *
1195:Generated_Source\PSoC6\pdl\drivers\peripheral\prot/cy_prot.c **** *   Status               | Description
1196:Generated_Source\PSoC6\pdl\drivers\peripheral\prot/cy_prot.c **** *   ------------         | -----------
1197:Generated_Source\PSoC6\pdl\drivers\peripheral\prot/cy_prot.c **** *   CY_PROT_SUCCESS      | The Master PU struct was enabled
1198:Generated_Source\PSoC6\pdl\drivers\peripheral\prot/cy_prot.c **** *   CY_PROT_FAILURE      | The Master PU struct is disabled and possibly locked
1199:Generated_Source\PSoC6\pdl\drivers\peripheral\prot/cy_prot.c **** *  
1200:Generated_Source\PSoC6\pdl\drivers\peripheral\prot/cy_prot.c **** *******************************************************************************/
1201:Generated_Source\PSoC6\pdl\drivers\peripheral\prot/cy_prot.c **** cy_en_prot_status_t Cy_Prot_EnablePpuFixedSlMasterStruct(PERI_GR_PPU_SL_Type* base)
1202:Generated_Source\PSoC6\pdl\drivers\peripheral\prot/cy_prot.c **** {
 1816              		.loc 1 1202 0
 1817              		.cfi_startproc
 1818              		@ args = 0, pretend = 0, frame = 0
 1819              		@ frame_needed = 0, uses_anonymous_args = 0
 1820              		@ link register save eliminated.
 1821              	.LVL183:
1203:Generated_Source\PSoC6\pdl\drivers\peripheral\prot/cy_prot.c ****     cy_en_prot_status_t status = CY_PROT_SUCCESS;
1204:Generated_Source\PSoC6\pdl\drivers\peripheral\prot/cy_prot.c ****     
1205:Generated_Source\PSoC6\pdl\drivers\peripheral\prot/cy_prot.c ****     base->ATT1 |= _VAL2FLD(PERI_GR_PPU_SL_ATT1_ENABLED, CY_PROT_STRUCT_ENABLE);
 1822              		.loc 1 1205 0
 1823 0000 436A     		ldr	r3, [r0, #36]
 1824 0002 8022     		movs	r2, #128
 1825 0004 1206     		lsls	r2, r2, #24
 1826 0006 1343     		orrs	r3, r2
 1827 0008 4362     		str	r3, [r0, #36]
1206:Generated_Source\PSoC6\pdl\drivers\peripheral\prot/cy_prot.c ****     status = (_FLD2VAL(PERI_GR_PPU_SL_ATT1_ENABLED, base->ATT1) != CY_PROT_STRUCT_ENABLE) ?
 1828              		.loc 1 1206 0
 1829 000a 436A     		ldr	r3, [r0, #36]
 1830 000c 002B     		cmp	r3, #0
 1831 000e 01DB     		blt	.L150
 1832 0010 0148     		ldr	r0, .L151
 1833              	.LVL184:
 1834 0012 00E0     		b	.L149
 1835              	.LVL185:
 1836              	.L150:
 1837 0014 0020     		movs	r0, #0
 1838              	.LVL186:
 1839              	.L149:
1207:Generated_Source\PSoC6\pdl\drivers\peripheral\prot/cy_prot.c ****                 CY_PROT_FAILURE : CY_PROT_SUCCESS;
1208:Generated_Source\PSoC6\pdl\drivers\peripheral\prot/cy_prot.c ****     
1209:Generated_Source\PSoC6\pdl\drivers\peripheral\prot/cy_prot.c ****     return status;
ARM GAS  C:\Users\kiwamu\AppData\Local\Temp\ccj1MWYe.s 			page 55


1210:Generated_Source\PSoC6\pdl\drivers\peripheral\prot/cy_prot.c **** }
 1840              		.loc 1 1210 0 discriminator 4
 1841              		@ sp needed
 1842 0016 7047     		bx	lr
 1843              	.L152:
 1844              		.align	2
 1845              	.L151:
 1846 0018 0300C200 		.word	12713987
 1847              		.cfi_endproc
 1848              	.LFE60:
 1849              		.size	Cy_Prot_EnablePpuFixedSlMasterStruct, .-Cy_Prot_EnablePpuFixedSlMasterStruct
 1850              		.section	.text.Cy_Prot_DisablePpuFixedSlMasterStruct,"ax",%progbits
 1851              		.align	2
 1852              		.global	Cy_Prot_DisablePpuFixedSlMasterStruct
 1853              		.code	16
 1854              		.thumb_func
 1855              		.type	Cy_Prot_DisablePpuFixedSlMasterStruct, %function
 1856              	Cy_Prot_DisablePpuFixedSlMasterStruct:
 1857              	.LFB61:
1211:Generated_Source\PSoC6\pdl\drivers\peripheral\prot/cy_prot.c **** 
1212:Generated_Source\PSoC6\pdl\drivers\peripheral\prot/cy_prot.c **** 
1213:Generated_Source\PSoC6\pdl\drivers\peripheral\prot/cy_prot.c **** /*******************************************************************************
1214:Generated_Source\PSoC6\pdl\drivers\peripheral\prot/cy_prot.c **** * Function Name: Cy_Prot_DisablePpuFixedSlMasterStruct
1215:Generated_Source\PSoC6\pdl\drivers\peripheral\prot/cy_prot.c **** ****************************************************************************//**
1216:Generated_Source\PSoC6\pdl\drivers\peripheral\prot/cy_prot.c **** *
1217:Generated_Source\PSoC6\pdl\drivers\peripheral\prot/cy_prot.c **** * \brief Disables the Master PPU SL structure.
1218:Generated_Source\PSoC6\pdl\drivers\peripheral\prot/cy_prot.c **** *
1219:Generated_Source\PSoC6\pdl\drivers\peripheral\prot/cy_prot.c **** * This is a PPU SL master struct disable function. The PPU SL protection 
1220:Generated_Source\PSoC6\pdl\drivers\peripheral\prot/cy_prot.c **** * settings will seize to take effect after successful completion of this 
1221:Generated_Source\PSoC6\pdl\drivers\peripheral\prot/cy_prot.c **** * function call.
1222:Generated_Source\PSoC6\pdl\drivers\peripheral\prot/cy_prot.c **** *
1223:Generated_Source\PSoC6\pdl\drivers\peripheral\prot/cy_prot.c **** * \param base
1224:Generated_Source\PSoC6\pdl\drivers\peripheral\prot/cy_prot.c **** * The base address for the protection unit structure being configured. 
1225:Generated_Source\PSoC6\pdl\drivers\peripheral\prot/cy_prot.c **** *
1226:Generated_Source\PSoC6\pdl\drivers\peripheral\prot/cy_prot.c **** * \return
1227:Generated_Source\PSoC6\pdl\drivers\peripheral\prot/cy_prot.c **** * Status of the function call.
1228:Generated_Source\PSoC6\pdl\drivers\peripheral\prot/cy_prot.c **** *
1229:Generated_Source\PSoC6\pdl\drivers\peripheral\prot/cy_prot.c **** *   Status               | Description
1230:Generated_Source\PSoC6\pdl\drivers\peripheral\prot/cy_prot.c **** *   ------------         | -----------
1231:Generated_Source\PSoC6\pdl\drivers\peripheral\prot/cy_prot.c **** *   CY_PROT_SUCCESS      | The Master PU struct was disabled
1232:Generated_Source\PSoC6\pdl\drivers\peripheral\prot/cy_prot.c **** *   CY_PROT_FAILURE      | The Master PU struct is enabled and possibly locked
1233:Generated_Source\PSoC6\pdl\drivers\peripheral\prot/cy_prot.c **** *  
1234:Generated_Source\PSoC6\pdl\drivers\peripheral\prot/cy_prot.c **** *******************************************************************************/
1235:Generated_Source\PSoC6\pdl\drivers\peripheral\prot/cy_prot.c **** cy_en_prot_status_t Cy_Prot_DisablePpuFixedSlMasterStruct(PERI_GR_PPU_SL_Type* base)
1236:Generated_Source\PSoC6\pdl\drivers\peripheral\prot/cy_prot.c **** {
 1858              		.loc 1 1236 0
 1859              		.cfi_startproc
 1860              		@ args = 0, pretend = 0, frame = 0
 1861              		@ frame_needed = 0, uses_anonymous_args = 0
 1862              		@ link register save eliminated.
 1863              	.LVL187:
1237:Generated_Source\PSoC6\pdl\drivers\peripheral\prot/cy_prot.c ****     cy_en_prot_status_t status = CY_PROT_SUCCESS;
1238:Generated_Source\PSoC6\pdl\drivers\peripheral\prot/cy_prot.c ****     
1239:Generated_Source\PSoC6\pdl\drivers\peripheral\prot/cy_prot.c ****     base->ATT1 &= ~_VAL2FLD(PERI_GR_PPU_SL_ATT1_ENABLED, CY_PROT_STRUCT_ENABLE);
 1864              		.loc 1 1239 0
 1865 0000 436A     		ldr	r3, [r0, #36]
 1866 0002 5B00     		lsls	r3, r3, #1
ARM GAS  C:\Users\kiwamu\AppData\Local\Temp\ccj1MWYe.s 			page 56


 1867 0004 5B08     		lsrs	r3, r3, #1
 1868 0006 4362     		str	r3, [r0, #36]
1240:Generated_Source\PSoC6\pdl\drivers\peripheral\prot/cy_prot.c ****     status = (_FLD2VAL(PERI_GR_PPU_SL_ATT1_ENABLED, base->ATT1) == CY_PROT_STRUCT_ENABLE) ?
 1869              		.loc 1 1240 0
 1870 0008 436A     		ldr	r3, [r0, #36]
 1871 000a 002B     		cmp	r3, #0
 1872 000c 01DA     		bge	.L155
 1873 000e 0248     		ldr	r0, .L156
 1874              	.LVL188:
 1875 0010 00E0     		b	.L154
 1876              	.LVL189:
 1877              	.L155:
 1878 0012 0020     		movs	r0, #0
 1879              	.LVL190:
 1880              	.L154:
1241:Generated_Source\PSoC6\pdl\drivers\peripheral\prot/cy_prot.c ****                 CY_PROT_FAILURE : CY_PROT_SUCCESS;
1242:Generated_Source\PSoC6\pdl\drivers\peripheral\prot/cy_prot.c ****     
1243:Generated_Source\PSoC6\pdl\drivers\peripheral\prot/cy_prot.c ****     return status;
1244:Generated_Source\PSoC6\pdl\drivers\peripheral\prot/cy_prot.c **** }
 1881              		.loc 1 1244 0 discriminator 4
 1882              		@ sp needed
 1883 0014 7047     		bx	lr
 1884              	.L157:
 1885 0016 C046     		.align	2
 1886              	.L156:
 1887 0018 0300C200 		.word	12713987
 1888              		.cfi_endproc
 1889              	.LFE61:
 1890              		.size	Cy_Prot_DisablePpuFixedSlMasterStruct, .-Cy_Prot_DisablePpuFixedSlMasterStruct
 1891              		.section	.text.Cy_Prot_EnablePpuFixedSlSlaveStruct,"ax",%progbits
 1892              		.align	2
 1893              		.global	Cy_Prot_EnablePpuFixedSlSlaveStruct
 1894              		.code	16
 1895              		.thumb_func
 1896              		.type	Cy_Prot_EnablePpuFixedSlSlaveStruct, %function
 1897              	Cy_Prot_EnablePpuFixedSlSlaveStruct:
 1898              	.LFB62:
1245:Generated_Source\PSoC6\pdl\drivers\peripheral\prot/cy_prot.c **** 
1246:Generated_Source\PSoC6\pdl\drivers\peripheral\prot/cy_prot.c **** 
1247:Generated_Source\PSoC6\pdl\drivers\peripheral\prot/cy_prot.c **** /*******************************************************************************
1248:Generated_Source\PSoC6\pdl\drivers\peripheral\prot/cy_prot.c **** * Function Name: Cy_Prot_EnablePpuFixedSlSlaveStruct
1249:Generated_Source\PSoC6\pdl\drivers\peripheral\prot/cy_prot.c **** ****************************************************************************//**
1250:Generated_Source\PSoC6\pdl\drivers\peripheral\prot/cy_prot.c **** *
1251:Generated_Source\PSoC6\pdl\drivers\peripheral\prot/cy_prot.c **** * \brief Enables the Slave PPU SL structure.
1252:Generated_Source\PSoC6\pdl\drivers\peripheral\prot/cy_prot.c **** *
1253:Generated_Source\PSoC6\pdl\drivers\peripheral\prot/cy_prot.c **** * This is a PPU SL slave struct enable function. The PPU SL protection 
1254:Generated_Source\PSoC6\pdl\drivers\peripheral\prot/cy_prot.c **** * settings will take effect after successful completion of this function call.
1255:Generated_Source\PSoC6\pdl\drivers\peripheral\prot/cy_prot.c **** *
1256:Generated_Source\PSoC6\pdl\drivers\peripheral\prot/cy_prot.c **** * \param base
1257:Generated_Source\PSoC6\pdl\drivers\peripheral\prot/cy_prot.c **** * The base address for the protection unit structure being configured. 
1258:Generated_Source\PSoC6\pdl\drivers\peripheral\prot/cy_prot.c **** *
1259:Generated_Source\PSoC6\pdl\drivers\peripheral\prot/cy_prot.c **** * \return
1260:Generated_Source\PSoC6\pdl\drivers\peripheral\prot/cy_prot.c **** * Status of the function call.
1261:Generated_Source\PSoC6\pdl\drivers\peripheral\prot/cy_prot.c **** *
1262:Generated_Source\PSoC6\pdl\drivers\peripheral\prot/cy_prot.c **** *   Status               | Description
1263:Generated_Source\PSoC6\pdl\drivers\peripheral\prot/cy_prot.c **** *   ------------         | -----------
1264:Generated_Source\PSoC6\pdl\drivers\peripheral\prot/cy_prot.c **** *   CY_PROT_SUCCESS      | The Slave PU struct was enabled
ARM GAS  C:\Users\kiwamu\AppData\Local\Temp\ccj1MWYe.s 			page 57


1265:Generated_Source\PSoC6\pdl\drivers\peripheral\prot/cy_prot.c **** *   CY_PROT_FAILURE      | The Slave PU struct is disabled and possibly locked
1266:Generated_Source\PSoC6\pdl\drivers\peripheral\prot/cy_prot.c **** *  
1267:Generated_Source\PSoC6\pdl\drivers\peripheral\prot/cy_prot.c **** *******************************************************************************/
1268:Generated_Source\PSoC6\pdl\drivers\peripheral\prot/cy_prot.c **** cy_en_prot_status_t Cy_Prot_EnablePpuFixedSlSlaveStruct(PERI_GR_PPU_SL_Type* base)
1269:Generated_Source\PSoC6\pdl\drivers\peripheral\prot/cy_prot.c **** {   
 1899              		.loc 1 1269 0
 1900              		.cfi_startproc
 1901              		@ args = 0, pretend = 0, frame = 0
 1902              		@ frame_needed = 0, uses_anonymous_args = 0
 1903              		@ link register save eliminated.
 1904              	.LVL191:
1270:Generated_Source\PSoC6\pdl\drivers\peripheral\prot/cy_prot.c ****     cy_en_prot_status_t status = CY_PROT_SUCCESS;
1271:Generated_Source\PSoC6\pdl\drivers\peripheral\prot/cy_prot.c ****     
1272:Generated_Source\PSoC6\pdl\drivers\peripheral\prot/cy_prot.c ****     base->ATT0 |= _VAL2FLD(PERI_GR_PPU_SL_ATT0_ENABLED, CY_PROT_STRUCT_ENABLE);
 1905              		.loc 1 1272 0
 1906 0000 4368     		ldr	r3, [r0, #4]
 1907 0002 8022     		movs	r2, #128
 1908 0004 1206     		lsls	r2, r2, #24
 1909 0006 1343     		orrs	r3, r2
 1910 0008 4360     		str	r3, [r0, #4]
1273:Generated_Source\PSoC6\pdl\drivers\peripheral\prot/cy_prot.c ****     status = (_FLD2VAL(PERI_GR_PPU_SL_ATT0_ENABLED, base->ATT0) != CY_PROT_STRUCT_ENABLE) ?
 1911              		.loc 1 1273 0
 1912 000a 4368     		ldr	r3, [r0, #4]
 1913 000c 002B     		cmp	r3, #0
 1914 000e 01DB     		blt	.L160
 1915 0010 0148     		ldr	r0, .L161
 1916              	.LVL192:
 1917 0012 00E0     		b	.L159
 1918              	.LVL193:
 1919              	.L160:
 1920 0014 0020     		movs	r0, #0
 1921              	.LVL194:
 1922              	.L159:
1274:Generated_Source\PSoC6\pdl\drivers\peripheral\prot/cy_prot.c ****                 CY_PROT_FAILURE : CY_PROT_SUCCESS;
1275:Generated_Source\PSoC6\pdl\drivers\peripheral\prot/cy_prot.c ****     
1276:Generated_Source\PSoC6\pdl\drivers\peripheral\prot/cy_prot.c ****     return status;
1277:Generated_Source\PSoC6\pdl\drivers\peripheral\prot/cy_prot.c **** }
 1923              		.loc 1 1277 0 discriminator 4
 1924              		@ sp needed
 1925 0016 7047     		bx	lr
 1926              	.L162:
 1927              		.align	2
 1928              	.L161:
 1929 0018 0300C200 		.word	12713987
 1930              		.cfi_endproc
 1931              	.LFE62:
 1932              		.size	Cy_Prot_EnablePpuFixedSlSlaveStruct, .-Cy_Prot_EnablePpuFixedSlSlaveStruct
 1933              		.section	.text.Cy_Prot_DisablePpuFixedSlSlaveStruct,"ax",%progbits
 1934              		.align	2
 1935              		.global	Cy_Prot_DisablePpuFixedSlSlaveStruct
 1936              		.code	16
 1937              		.thumb_func
 1938              		.type	Cy_Prot_DisablePpuFixedSlSlaveStruct, %function
 1939              	Cy_Prot_DisablePpuFixedSlSlaveStruct:
 1940              	.LFB63:
1278:Generated_Source\PSoC6\pdl\drivers\peripheral\prot/cy_prot.c **** 
1279:Generated_Source\PSoC6\pdl\drivers\peripheral\prot/cy_prot.c **** 
ARM GAS  C:\Users\kiwamu\AppData\Local\Temp\ccj1MWYe.s 			page 58


1280:Generated_Source\PSoC6\pdl\drivers\peripheral\prot/cy_prot.c **** /*******************************************************************************
1281:Generated_Source\PSoC6\pdl\drivers\peripheral\prot/cy_prot.c **** * Function Name: Cy_Prot_DisablePpuFixedSlSlaveStruct
1282:Generated_Source\PSoC6\pdl\drivers\peripheral\prot/cy_prot.c **** ****************************************************************************//**
1283:Generated_Source\PSoC6\pdl\drivers\peripheral\prot/cy_prot.c **** *
1284:Generated_Source\PSoC6\pdl\drivers\peripheral\prot/cy_prot.c **** * \brief Disables the Slave PPU SL structure.
1285:Generated_Source\PSoC6\pdl\drivers\peripheral\prot/cy_prot.c **** *
1286:Generated_Source\PSoC6\pdl\drivers\peripheral\prot/cy_prot.c **** * This is a PPU SL slave struct disable function. The PPU SL protection 
1287:Generated_Source\PSoC6\pdl\drivers\peripheral\prot/cy_prot.c **** * settings will seize to take effect after successful completion of this 
1288:Generated_Source\PSoC6\pdl\drivers\peripheral\prot/cy_prot.c **** * function call.
1289:Generated_Source\PSoC6\pdl\drivers\peripheral\prot/cy_prot.c **** *
1290:Generated_Source\PSoC6\pdl\drivers\peripheral\prot/cy_prot.c **** * \param base
1291:Generated_Source\PSoC6\pdl\drivers\peripheral\prot/cy_prot.c **** * The base address for the protection unit structure being configured. 
1292:Generated_Source\PSoC6\pdl\drivers\peripheral\prot/cy_prot.c **** *
1293:Generated_Source\PSoC6\pdl\drivers\peripheral\prot/cy_prot.c **** * \return
1294:Generated_Source\PSoC6\pdl\drivers\peripheral\prot/cy_prot.c **** * Status of the function call.
1295:Generated_Source\PSoC6\pdl\drivers\peripheral\prot/cy_prot.c **** *
1296:Generated_Source\PSoC6\pdl\drivers\peripheral\prot/cy_prot.c **** *   Status               | Description
1297:Generated_Source\PSoC6\pdl\drivers\peripheral\prot/cy_prot.c **** *   ------------         | -----------
1298:Generated_Source\PSoC6\pdl\drivers\peripheral\prot/cy_prot.c **** *   CY_PROT_SUCCESS      | The Slave PU struct was disabled
1299:Generated_Source\PSoC6\pdl\drivers\peripheral\prot/cy_prot.c **** *   CY_PROT_FAILURE      | The Slave PU struct is enabled and possibly locked
1300:Generated_Source\PSoC6\pdl\drivers\peripheral\prot/cy_prot.c **** *  
1301:Generated_Source\PSoC6\pdl\drivers\peripheral\prot/cy_prot.c **** *******************************************************************************/
1302:Generated_Source\PSoC6\pdl\drivers\peripheral\prot/cy_prot.c **** cy_en_prot_status_t Cy_Prot_DisablePpuFixedSlSlaveStruct(PERI_GR_PPU_SL_Type* base)
1303:Generated_Source\PSoC6\pdl\drivers\peripheral\prot/cy_prot.c **** {
 1941              		.loc 1 1303 0
 1942              		.cfi_startproc
 1943              		@ args = 0, pretend = 0, frame = 0
 1944              		@ frame_needed = 0, uses_anonymous_args = 0
 1945              		@ link register save eliminated.
 1946              	.LVL195:
1304:Generated_Source\PSoC6\pdl\drivers\peripheral\prot/cy_prot.c ****     cy_en_prot_status_t status = CY_PROT_SUCCESS;
1305:Generated_Source\PSoC6\pdl\drivers\peripheral\prot/cy_prot.c ****     
1306:Generated_Source\PSoC6\pdl\drivers\peripheral\prot/cy_prot.c ****     base->ATT0 &= ~_VAL2FLD(PERI_GR_PPU_SL_ATT0_ENABLED, CY_PROT_STRUCT_ENABLE);
 1947              		.loc 1 1306 0
 1948 0000 4368     		ldr	r3, [r0, #4]
 1949 0002 5B00     		lsls	r3, r3, #1
 1950 0004 5B08     		lsrs	r3, r3, #1
 1951 0006 4360     		str	r3, [r0, #4]
1307:Generated_Source\PSoC6\pdl\drivers\peripheral\prot/cy_prot.c ****     status = (_FLD2VAL(PERI_GR_PPU_SL_ATT0_ENABLED, base->ATT0) == CY_PROT_STRUCT_ENABLE) ?
 1952              		.loc 1 1307 0
 1953 0008 4368     		ldr	r3, [r0, #4]
 1954 000a 002B     		cmp	r3, #0
 1955 000c 01DA     		bge	.L165
 1956 000e 0248     		ldr	r0, .L166
 1957              	.LVL196:
 1958 0010 00E0     		b	.L164
 1959              	.LVL197:
 1960              	.L165:
 1961 0012 0020     		movs	r0, #0
 1962              	.LVL198:
 1963              	.L164:
1308:Generated_Source\PSoC6\pdl\drivers\peripheral\prot/cy_prot.c ****                 CY_PROT_FAILURE : CY_PROT_SUCCESS;
1309:Generated_Source\PSoC6\pdl\drivers\peripheral\prot/cy_prot.c ****     
1310:Generated_Source\PSoC6\pdl\drivers\peripheral\prot/cy_prot.c ****     return status;
1311:Generated_Source\PSoC6\pdl\drivers\peripheral\prot/cy_prot.c **** }
 1964              		.loc 1 1311 0 discriminator 4
 1965              		@ sp needed
ARM GAS  C:\Users\kiwamu\AppData\Local\Temp\ccj1MWYe.s 			page 59


 1966 0014 7047     		bx	lr
 1967              	.L167:
 1968 0016 C046     		.align	2
 1969              	.L166:
 1970 0018 0300C200 		.word	12713987
 1971              		.cfi_endproc
 1972              	.LFE63:
 1973              		.size	Cy_Prot_DisablePpuFixedSlSlaveStruct, .-Cy_Prot_DisablePpuFixedSlSlaveStruct
 1974              		.section	.text.Cy_Prot_ConfigPpuFixedRgMasterStruct,"ax",%progbits
 1975              		.align	2
 1976              		.global	Cy_Prot_ConfigPpuFixedRgMasterStruct
 1977              		.code	16
 1978              		.thumb_func
 1979              		.type	Cy_Prot_ConfigPpuFixedRgMasterStruct, %function
 1980              	Cy_Prot_ConfigPpuFixedRgMasterStruct:
 1981              	.LFB64:
1312:Generated_Source\PSoC6\pdl\drivers\peripheral\prot/cy_prot.c **** 
1313:Generated_Source\PSoC6\pdl\drivers\peripheral\prot/cy_prot.c **** 
1314:Generated_Source\PSoC6\pdl\drivers\peripheral\prot/cy_prot.c **** /*******************************************************************************
1315:Generated_Source\PSoC6\pdl\drivers\peripheral\prot/cy_prot.c **** * Function Name: Cy_Prot_ConfigPpuFixedRgMasterStruct
1316:Generated_Source\PSoC6\pdl\drivers\peripheral\prot/cy_prot.c **** ****************************************************************************//**
1317:Generated_Source\PSoC6\pdl\drivers\peripheral\prot/cy_prot.c **** *
1318:Generated_Source\PSoC6\pdl\drivers\peripheral\prot/cy_prot.c **** * \brief Configures a Fixed Peripheral Region Protection Unit (PPU RG) master 
1319:Generated_Source\PSoC6\pdl\drivers\peripheral\prot/cy_prot.c **** * protection struct with its protection attributes. 
1320:Generated_Source\PSoC6\pdl\drivers\peripheral\prot/cy_prot.c **** *
1321:Generated_Source\PSoC6\pdl\drivers\peripheral\prot/cy_prot.c **** * This function configures the master struct governing the corresponding slave
1322:Generated_Source\PSoC6\pdl\drivers\peripheral\prot/cy_prot.c **** * struct pair. It is a mechanism to protect the slave PPU RG struct. Since
1323:Generated_Source\PSoC6\pdl\drivers\peripheral\prot/cy_prot.c **** * the memory location of the slave struct is known, the address, regionSize and
1324:Generated_Source\PSoC6\pdl\drivers\peripheral\prot/cy_prot.c **** * subregions of the configuration struct are not applicable.
1325:Generated_Source\PSoC6\pdl\drivers\peripheral\prot/cy_prot.c **** *
1326:Generated_Source\PSoC6\pdl\drivers\peripheral\prot/cy_prot.c **** * Note that only the user/privileged write permissions are configurable. The 
1327:Generated_Source\PSoC6\pdl\drivers\peripheral\prot/cy_prot.c **** * read and execute permissions are read-only and cannot be configured.
1328:Generated_Source\PSoC6\pdl\drivers\peripheral\prot/cy_prot.c **** *
1329:Generated_Source\PSoC6\pdl\drivers\peripheral\prot/cy_prot.c **** * \param base
1330:Generated_Source\PSoC6\pdl\drivers\peripheral\prot/cy_prot.c **** * The register base address of the protection struct being configured.
1331:Generated_Source\PSoC6\pdl\drivers\peripheral\prot/cy_prot.c **** * 
1332:Generated_Source\PSoC6\pdl\drivers\peripheral\prot/cy_prot.c **** * \param config
1333:Generated_Source\PSoC6\pdl\drivers\peripheral\prot/cy_prot.c **** * Initialization structure with all the protection attributes.
1334:Generated_Source\PSoC6\pdl\drivers\peripheral\prot/cy_prot.c **** * 
1335:Generated_Source\PSoC6\pdl\drivers\peripheral\prot/cy_prot.c **** * \return
1336:Generated_Source\PSoC6\pdl\drivers\peripheral\prot/cy_prot.c **** * Status of the function call.
1337:Generated_Source\PSoC6\pdl\drivers\peripheral\prot/cy_prot.c **** *
1338:Generated_Source\PSoC6\pdl\drivers\peripheral\prot/cy_prot.c **** *   Status               | Description
1339:Generated_Source\PSoC6\pdl\drivers\peripheral\prot/cy_prot.c **** *   ------------         | -----------
1340:Generated_Source\PSoC6\pdl\drivers\peripheral\prot/cy_prot.c **** *   CY_PROT_SUCCESS      | PPU RG master struct was successfully configured
1341:Generated_Source\PSoC6\pdl\drivers\peripheral\prot/cy_prot.c **** *   CY_PROT_FAILURE      | The resource is locked
1342:Generated_Source\PSoC6\pdl\drivers\peripheral\prot/cy_prot.c **** *   CY_PROT_BAD_PARAM    | An incorrect/invalid parameter was passed
1343:Generated_Source\PSoC6\pdl\drivers\peripheral\prot/cy_prot.c **** *  
1344:Generated_Source\PSoC6\pdl\drivers\peripheral\prot/cy_prot.c **** *******************************************************************************/
1345:Generated_Source\PSoC6\pdl\drivers\peripheral\prot/cy_prot.c **** cy_en_prot_status_t Cy_Prot_ConfigPpuFixedRgMasterStruct(PERI_GR_PPU_RG_Type* base, const cy_stc_pp
1346:Generated_Source\PSoC6\pdl\drivers\peripheral\prot/cy_prot.c **** {
 1982              		.loc 1 1346 0
 1983              		.cfi_startproc
 1984              		@ args = 0, pretend = 0, frame = 0
 1985              		@ frame_needed = 0, uses_anonymous_args = 0
 1986              	.LVL199:
 1987 0000 70B5     		push	{r4, r5, r6, lr}
ARM GAS  C:\Users\kiwamu\AppData\Local\Temp\ccj1MWYe.s 			page 60


 1988              		.cfi_def_cfa_offset 16
 1989              		.cfi_offset 4, -16
 1990              		.cfi_offset 5, -12
 1991              		.cfi_offset 6, -8
 1992              		.cfi_offset 14, -4
 1993              	.LVL200:
1347:Generated_Source\PSoC6\pdl\drivers\peripheral\prot/cy_prot.c ****     cy_en_prot_status_t status = CY_PROT_SUCCESS;
1348:Generated_Source\PSoC6\pdl\drivers\peripheral\prot/cy_prot.c ****     uint32_t attReg;
1349:Generated_Source\PSoC6\pdl\drivers\peripheral\prot/cy_prot.c ****     
1350:Generated_Source\PSoC6\pdl\drivers\peripheral\prot/cy_prot.c ****     if(((uint32_t)config->pcMask & CY_PROT_PPU_FIXED_PC_LIMIT_MASK) != 0UL) 
 1994              		.loc 1 1350 0
 1995 0002 8C88     		ldrh	r4, [r1, #4]
 1996 0004 7F23     		movs	r3, #127
 1997 0006 2200     		movs	r2, r4
 1998 0008 9A43     		bics	r2, r3
 1999 000a 28D1     		bne	.L170
1351:Generated_Source\PSoC6\pdl\drivers\peripheral\prot/cy_prot.c ****     {
1352:Generated_Source\PSoC6\pdl\drivers\peripheral\prot/cy_prot.c ****         /* PC mask out of range - not supported in device */
1353:Generated_Source\PSoC6\pdl\drivers\peripheral\prot/cy_prot.c ****         status = CY_PROT_BAD_PARAM;
1354:Generated_Source\PSoC6\pdl\drivers\peripheral\prot/cy_prot.c ****     }
1355:Generated_Source\PSoC6\pdl\drivers\peripheral\prot/cy_prot.c ****     else
1356:Generated_Source\PSoC6\pdl\drivers\peripheral\prot/cy_prot.c ****     {
1357:Generated_Source\PSoC6\pdl\drivers\peripheral\prot/cy_prot.c ****         /* ADDR1 is read only. Only configure ATT1 */
1358:Generated_Source\PSoC6\pdl\drivers\peripheral\prot/cy_prot.c ****         attReg = ((uint32_t)config->userPermission & CY_PROT_ATT_PERMISSION_MASK)
 2000              		.loc 1 1358 0
 2001 000c 0B78     		ldrb	r3, [r1]
 2002 000e 0725     		movs	r5, #7
 2003 0010 1D40     		ands	r5, r3
1359:Generated_Source\PSoC6\pdl\drivers\peripheral\prot/cy_prot.c ****                     | (uint32_t)(((uint32_t)config->privPermission & CY_PROT_ATT_PERMISSION_MASK) <
 2004              		.loc 1 1359 0
 2005 0012 4A78     		ldrb	r2, [r1, #1]
 2006 0014 D200     		lsls	r2, r2, #3
 2007 0016 3823     		movs	r3, #56
 2008 0018 1340     		ands	r3, r2
 2009 001a 1D43     		orrs	r5, r3
1360:Generated_Source\PSoC6\pdl\drivers\peripheral\prot/cy_prot.c ****                     | _VAL2FLD(PERI_GR_PPU_RG_ATT1_NS, !(config->secure))
 2010              		.loc 1 1360 0
 2011 001c 8B78     		ldrb	r3, [r1, #2]
 2012 001e 0122     		movs	r2, #1
 2013 0020 5A40     		eors	r2, r3
 2014 0022 D2B2     		uxtb	r2, r2
 2015 0024 9201     		lsls	r2, r2, #6
 2016 0026 4023     		movs	r3, #64
 2017 0028 1A40     		ands	r2, r3
 2018 002a 2B00     		movs	r3, r5
 2019 002c 1343     		orrs	r3, r2
1361:Generated_Source\PSoC6\pdl\drivers\peripheral\prot/cy_prot.c ****                     | _VAL2FLD(PERI_GR_PPU_RG_ATT1_PC_MASK_15_TO_1, config->pcMask)
 2020              		.loc 1 1361 0
 2021 002e 6402     		lsls	r4, r4, #9
 2022 0030 0E4A     		ldr	r2, .L173
 2023 0032 1440     		ands	r4, r2
 2024 0034 1C43     		orrs	r4, r3
1362:Generated_Source\PSoC6\pdl\drivers\peripheral\prot/cy_prot.c ****                     /* No region size - read only for master structs */
1363:Generated_Source\PSoC6\pdl\drivers\peripheral\prot/cy_prot.c ****                     | _VAL2FLD(PERI_GR_PPU_RG_ATT1_PC_MATCH, config->pcMatch);
 2025              		.loc 1 1363 0
 2026 0036 CB78     		ldrb	r3, [r1, #3]
 2027 0038 9B07     		lsls	r3, r3, #30
ARM GAS  C:\Users\kiwamu\AppData\Local\Temp\ccj1MWYe.s 			page 61


 2028 003a 8021     		movs	r1, #128
 2029              	.LVL201:
 2030 003c C905     		lsls	r1, r1, #23
 2031 003e 0B40     		ands	r3, r1
 2032 0040 1A00     		movs	r2, r3
1358:Generated_Source\PSoC6\pdl\drivers\peripheral\prot/cy_prot.c ****                     | (uint32_t)(((uint32_t)config->privPermission & CY_PROT_ATT_PERMISSION_MASK) <
 2033              		.loc 1 1358 0
 2034 0042 2300     		movs	r3, r4
 2035 0044 1343     		orrs	r3, r2
 2036              	.LVL202:
1364:Generated_Source\PSoC6\pdl\drivers\peripheral\prot/cy_prot.c ****         if ((attReg & CY_PROT_PPU_RG_ATT1_MASK) != attReg)
 2037              		.loc 1 1364 0
 2038 0046 0A4A     		ldr	r2, .L173+4
 2039 0048 1A40     		ands	r2, r3
 2040 004a 9342     		cmp	r3, r2
 2041 004c 09D1     		bne	.L171
1365:Generated_Source\PSoC6\pdl\drivers\peripheral\prot/cy_prot.c ****         {
1366:Generated_Source\PSoC6\pdl\drivers\peripheral\prot/cy_prot.c ****             /* Invalid parameter was passed */
1367:Generated_Source\PSoC6\pdl\drivers\peripheral\prot/cy_prot.c ****             status = CY_PROT_BAD_PARAM;
1368:Generated_Source\PSoC6\pdl\drivers\peripheral\prot/cy_prot.c ****         }
1369:Generated_Source\PSoC6\pdl\drivers\peripheral\prot/cy_prot.c ****         else
1370:Generated_Source\PSoC6\pdl\drivers\peripheral\prot/cy_prot.c ****         {
1371:Generated_Source\PSoC6\pdl\drivers\peripheral\prot/cy_prot.c ****             base->ATT1 = attReg;
 2042              		.loc 1 1371 0
 2043 004e 4362     		str	r3, [r0, #36]
1372:Generated_Source\PSoC6\pdl\drivers\peripheral\prot/cy_prot.c ****             status = ((base->ATT1 & CY_PROT_PPU_RG_ATT1_MASK) != attReg) ? CY_PROT_FAILURE : CY_PRO
 2044              		.loc 1 1372 0
 2045 0050 416A     		ldr	r1, [r0, #36]
 2046 0052 074A     		ldr	r2, .L173+4
 2047 0054 0A40     		ands	r2, r1
 2048 0056 9342     		cmp	r3, r2
 2049 0058 05D0     		beq	.L172
 2050 005a 0648     		ldr	r0, .L173+8
 2051              	.LVL203:
 2052 005c 04E0     		b	.L169
 2053              	.LVL204:
 2054              	.L170:
1353:Generated_Source\PSoC6\pdl\drivers\peripheral\prot/cy_prot.c ****     }
 2055              		.loc 1 1353 0
 2056 005e 0648     		ldr	r0, .L173+12
 2057              	.LVL205:
 2058 0060 02E0     		b	.L169
 2059              	.LVL206:
 2060              	.L171:
1367:Generated_Source\PSoC6\pdl\drivers\peripheral\prot/cy_prot.c ****         }
 2061              		.loc 1 1367 0
 2062 0062 0548     		ldr	r0, .L173+12
 2063              	.LVL207:
 2064 0064 00E0     		b	.L169
 2065              	.LVL208:
 2066              	.L172:
 2067              		.loc 1 1372 0
 2068 0066 0020     		movs	r0, #0
 2069              	.LVL209:
 2070              	.L169:
1373:Generated_Source\PSoC6\pdl\drivers\peripheral\prot/cy_prot.c ****         }
1374:Generated_Source\PSoC6\pdl\drivers\peripheral\prot/cy_prot.c ****     }
ARM GAS  C:\Users\kiwamu\AppData\Local\Temp\ccj1MWYe.s 			page 62


1375:Generated_Source\PSoC6\pdl\drivers\peripheral\prot/cy_prot.c ****     
1376:Generated_Source\PSoC6\pdl\drivers\peripheral\prot/cy_prot.c ****     return status;
1377:Generated_Source\PSoC6\pdl\drivers\peripheral\prot/cy_prot.c **** }
 2071              		.loc 1 1377 0
 2072              		@ sp needed
 2073 0068 70BD     		pop	{r4, r5, r6, pc}
 2074              	.L174:
 2075 006a C046     		.align	2
 2076              	.L173:
 2077 006c 00FEFF00 		.word	16776704
 2078 0070 D2FEFFE0 		.word	-520093998
 2079 0074 0300C200 		.word	12713987
 2080 0078 0100C200 		.word	12713985
 2081              		.cfi_endproc
 2082              	.LFE64:
 2083              		.size	Cy_Prot_ConfigPpuFixedRgMasterStruct, .-Cy_Prot_ConfigPpuFixedRgMasterStruct
 2084              		.section	.text.Cy_Prot_ConfigPpuFixedRgSlaveStruct,"ax",%progbits
 2085              		.align	2
 2086              		.global	Cy_Prot_ConfigPpuFixedRgSlaveStruct
 2087              		.code	16
 2088              		.thumb_func
 2089              		.type	Cy_Prot_ConfigPpuFixedRgSlaveStruct, %function
 2090              	Cy_Prot_ConfigPpuFixedRgSlaveStruct:
 2091              	.LFB65:
1378:Generated_Source\PSoC6\pdl\drivers\peripheral\prot/cy_prot.c **** 
1379:Generated_Source\PSoC6\pdl\drivers\peripheral\prot/cy_prot.c **** 
1380:Generated_Source\PSoC6\pdl\drivers\peripheral\prot/cy_prot.c **** /*******************************************************************************
1381:Generated_Source\PSoC6\pdl\drivers\peripheral\prot/cy_prot.c **** * Function Name: Cy_Prot_ConfigPpuFixedRgSlaveStruct
1382:Generated_Source\PSoC6\pdl\drivers\peripheral\prot/cy_prot.c **** ****************************************************************************//**
1383:Generated_Source\PSoC6\pdl\drivers\peripheral\prot/cy_prot.c **** *
1384:Generated_Source\PSoC6\pdl\drivers\peripheral\prot/cy_prot.c **** * \brief Configures a Fixed Peripheral Region Protection Unit (PPU RG) slave
1385:Generated_Source\PSoC6\pdl\drivers\peripheral\prot/cy_prot.c **** * protection struct with its protection attributes. 
1386:Generated_Source\PSoC6\pdl\drivers\peripheral\prot/cy_prot.c **** * 
1387:Generated_Source\PSoC6\pdl\drivers\peripheral\prot/cy_prot.c **** * This function configures the slave struct of a PPU RG pair, which can 
1388:Generated_Source\PSoC6\pdl\drivers\peripheral\prot/cy_prot.c **** * protect specified regions of peripheral instances. For example, individual
1389:Generated_Source\PSoC6\pdl\drivers\peripheral\prot/cy_prot.c **** * DW channel structs, SMPU structs, and IPC structs etc.
1390:Generated_Source\PSoC6\pdl\drivers\peripheral\prot/cy_prot.c **** *
1391:Generated_Source\PSoC6\pdl\drivers\peripheral\prot/cy_prot.c **** * Each fixed PPU RG is devoted to a defined peripheral region. Hence the address, 
1392:Generated_Source\PSoC6\pdl\drivers\peripheral\prot/cy_prot.c **** * regionSize and subregions of the configuration struct are not applicable.
1393:Generated_Source\PSoC6\pdl\drivers\peripheral\prot/cy_prot.c **** *
1394:Generated_Source\PSoC6\pdl\drivers\peripheral\prot/cy_prot.c **** * Note that the user/privileged execute accesses are read-only and are always 
1395:Generated_Source\PSoC6\pdl\drivers\peripheral\prot/cy_prot.c **** * enabled. 
1396:Generated_Source\PSoC6\pdl\drivers\peripheral\prot/cy_prot.c **** *
1397:Generated_Source\PSoC6\pdl\drivers\peripheral\prot/cy_prot.c **** * \param base
1398:Generated_Source\PSoC6\pdl\drivers\peripheral\prot/cy_prot.c **** * The register base address of the protection structure being configured.
1399:Generated_Source\PSoC6\pdl\drivers\peripheral\prot/cy_prot.c **** * 
1400:Generated_Source\PSoC6\pdl\drivers\peripheral\prot/cy_prot.c **** * \param config
1401:Generated_Source\PSoC6\pdl\drivers\peripheral\prot/cy_prot.c **** * Initialization structure with all the protection attributes.
1402:Generated_Source\PSoC6\pdl\drivers\peripheral\prot/cy_prot.c **** * 
1403:Generated_Source\PSoC6\pdl\drivers\peripheral\prot/cy_prot.c **** * \return
1404:Generated_Source\PSoC6\pdl\drivers\peripheral\prot/cy_prot.c **** * Status of the function call.
1405:Generated_Source\PSoC6\pdl\drivers\peripheral\prot/cy_prot.c **** *
1406:Generated_Source\PSoC6\pdl\drivers\peripheral\prot/cy_prot.c **** *   Status               | Description
1407:Generated_Source\PSoC6\pdl\drivers\peripheral\prot/cy_prot.c **** *   ------------         | -----------
1408:Generated_Source\PSoC6\pdl\drivers\peripheral\prot/cy_prot.c **** *   CY_PROT_SUCCESS      | PPU RG slave struct was successfully configured
1409:Generated_Source\PSoC6\pdl\drivers\peripheral\prot/cy_prot.c **** *   CY_PROT_FAILURE      | The resource is locked
1410:Generated_Source\PSoC6\pdl\drivers\peripheral\prot/cy_prot.c **** *   CY_PROT_BAD_PARAM    | An incorrect/invalid parameter was passed
ARM GAS  C:\Users\kiwamu\AppData\Local\Temp\ccj1MWYe.s 			page 63


1411:Generated_Source\PSoC6\pdl\drivers\peripheral\prot/cy_prot.c **** *  
1412:Generated_Source\PSoC6\pdl\drivers\peripheral\prot/cy_prot.c **** *******************************************************************************/
1413:Generated_Source\PSoC6\pdl\drivers\peripheral\prot/cy_prot.c **** cy_en_prot_status_t Cy_Prot_ConfigPpuFixedRgSlaveStruct(PERI_GR_PPU_RG_Type* base, const cy_stc_ppu
1414:Generated_Source\PSoC6\pdl\drivers\peripheral\prot/cy_prot.c **** {
 2092              		.loc 1 1414 0
 2093              		.cfi_startproc
 2094              		@ args = 0, pretend = 0, frame = 0
 2095              		@ frame_needed = 0, uses_anonymous_args = 0
 2096              	.LVL210:
 2097 0000 70B5     		push	{r4, r5, r6, lr}
 2098              		.cfi_def_cfa_offset 16
 2099              		.cfi_offset 4, -16
 2100              		.cfi_offset 5, -12
 2101              		.cfi_offset 6, -8
 2102              		.cfi_offset 14, -4
 2103              	.LVL211:
1415:Generated_Source\PSoC6\pdl\drivers\peripheral\prot/cy_prot.c ****     cy_en_prot_status_t status = CY_PROT_SUCCESS;
1416:Generated_Source\PSoC6\pdl\drivers\peripheral\prot/cy_prot.c ****     uint32_t attReg;
1417:Generated_Source\PSoC6\pdl\drivers\peripheral\prot/cy_prot.c ****     
1418:Generated_Source\PSoC6\pdl\drivers\peripheral\prot/cy_prot.c ****     if(((uint32_t)config->pcMask & CY_PROT_PPU_FIXED_PC_LIMIT_MASK) != 0UL) 
 2104              		.loc 1 1418 0
 2105 0002 8C88     		ldrh	r4, [r1, #4]
 2106 0004 7F23     		movs	r3, #127
 2107 0006 2200     		movs	r2, r4
 2108 0008 9A43     		bics	r2, r3
 2109 000a 28D1     		bne	.L177
1419:Generated_Source\PSoC6\pdl\drivers\peripheral\prot/cy_prot.c ****     {
1420:Generated_Source\PSoC6\pdl\drivers\peripheral\prot/cy_prot.c ****         /* PC mask out of range - not supported in device */
1421:Generated_Source\PSoC6\pdl\drivers\peripheral\prot/cy_prot.c ****         status = CY_PROT_BAD_PARAM;
1422:Generated_Source\PSoC6\pdl\drivers\peripheral\prot/cy_prot.c ****     }
1423:Generated_Source\PSoC6\pdl\drivers\peripheral\prot/cy_prot.c ****     else
1424:Generated_Source\PSoC6\pdl\drivers\peripheral\prot/cy_prot.c ****     {
1425:Generated_Source\PSoC6\pdl\drivers\peripheral\prot/cy_prot.c ****         /* ADDR0 is read only. Only configure ATT0 */
1426:Generated_Source\PSoC6\pdl\drivers\peripheral\prot/cy_prot.c ****         attReg = ((uint32_t)config->userPermission & CY_PROT_ATT_PERMISSION_MASK)
 2110              		.loc 1 1426 0
 2111 000c 0B78     		ldrb	r3, [r1]
 2112 000e 0725     		movs	r5, #7
 2113 0010 1D40     		ands	r5, r3
1427:Generated_Source\PSoC6\pdl\drivers\peripheral\prot/cy_prot.c ****                     | (uint32_t)(((uint32_t)config->privPermission & CY_PROT_ATT_PERMISSION_MASK) <
 2114              		.loc 1 1427 0
 2115 0012 4A78     		ldrb	r2, [r1, #1]
 2116 0014 D200     		lsls	r2, r2, #3
 2117 0016 3823     		movs	r3, #56
 2118 0018 1340     		ands	r3, r2
 2119 001a 1D43     		orrs	r5, r3
1428:Generated_Source\PSoC6\pdl\drivers\peripheral\prot/cy_prot.c ****                     | _VAL2FLD(PERI_GR_PPU_RG_ATT0_NS, !(config->secure))
 2120              		.loc 1 1428 0
 2121 001c 8B78     		ldrb	r3, [r1, #2]
 2122 001e 0122     		movs	r2, #1
 2123 0020 5A40     		eors	r2, r3
 2124 0022 D2B2     		uxtb	r2, r2
 2125 0024 9201     		lsls	r2, r2, #6
 2126 0026 4023     		movs	r3, #64
 2127 0028 1A40     		ands	r2, r3
 2128 002a 2B00     		movs	r3, r5
 2129 002c 1343     		orrs	r3, r2
1429:Generated_Source\PSoC6\pdl\drivers\peripheral\prot/cy_prot.c ****                     | _VAL2FLD(PERI_GR_PPU_RG_ATT0_PC_MASK_15_TO_1, config->pcMask)
ARM GAS  C:\Users\kiwamu\AppData\Local\Temp\ccj1MWYe.s 			page 64


 2130              		.loc 1 1429 0
 2131 002e 6402     		lsls	r4, r4, #9
 2132 0030 0E4A     		ldr	r2, .L180
 2133 0032 1440     		ands	r4, r2
 2134 0034 1C43     		orrs	r4, r3
1430:Generated_Source\PSoC6\pdl\drivers\peripheral\prot/cy_prot.c ****                     /* No region size - read only */
1431:Generated_Source\PSoC6\pdl\drivers\peripheral\prot/cy_prot.c ****                     | _VAL2FLD(PERI_GR_PPU_RG_ATT0_PC_MATCH, config->pcMatch);
 2135              		.loc 1 1431 0
 2136 0036 CB78     		ldrb	r3, [r1, #3]
 2137 0038 9B07     		lsls	r3, r3, #30
 2138 003a 8021     		movs	r1, #128
 2139              	.LVL212:
 2140 003c C905     		lsls	r1, r1, #23
 2141 003e 0B40     		ands	r3, r1
 2142 0040 1A00     		movs	r2, r3
1426:Generated_Source\PSoC6\pdl\drivers\peripheral\prot/cy_prot.c ****                     | (uint32_t)(((uint32_t)config->privPermission & CY_PROT_ATT_PERMISSION_MASK) <
 2143              		.loc 1 1426 0
 2144 0042 2300     		movs	r3, r4
 2145 0044 1343     		orrs	r3, r2
 2146              	.LVL213:
1432:Generated_Source\PSoC6\pdl\drivers\peripheral\prot/cy_prot.c ****         if ((attReg & CY_PROT_PPU_RG_ATT0_MASK) != attReg)
 2147              		.loc 1 1432 0
 2148 0046 0A4A     		ldr	r2, .L180+4
 2149 0048 1A40     		ands	r2, r3
 2150 004a 9342     		cmp	r3, r2
 2151 004c 09D1     		bne	.L178
1433:Generated_Source\PSoC6\pdl\drivers\peripheral\prot/cy_prot.c ****         {
1434:Generated_Source\PSoC6\pdl\drivers\peripheral\prot/cy_prot.c ****             /* Invalid parameter was passed */
1435:Generated_Source\PSoC6\pdl\drivers\peripheral\prot/cy_prot.c ****             status = CY_PROT_BAD_PARAM;
1436:Generated_Source\PSoC6\pdl\drivers\peripheral\prot/cy_prot.c ****         }
1437:Generated_Source\PSoC6\pdl\drivers\peripheral\prot/cy_prot.c ****         else
1438:Generated_Source\PSoC6\pdl\drivers\peripheral\prot/cy_prot.c ****         {
1439:Generated_Source\PSoC6\pdl\drivers\peripheral\prot/cy_prot.c ****             base->ATT0 = attReg;
 2152              		.loc 1 1439 0
 2153 004e 4360     		str	r3, [r0, #4]
1440:Generated_Source\PSoC6\pdl\drivers\peripheral\prot/cy_prot.c ****             status = ((base->ATT0 & CY_PROT_PPU_RG_ATT0_MASK) != attReg) ? CY_PROT_FAILURE : CY_PRO
 2154              		.loc 1 1440 0
 2155 0050 4168     		ldr	r1, [r0, #4]
 2156 0052 074A     		ldr	r2, .L180+4
 2157 0054 0A40     		ands	r2, r1
 2158 0056 9342     		cmp	r3, r2
 2159 0058 05D0     		beq	.L179
 2160 005a 0648     		ldr	r0, .L180+8
 2161              	.LVL214:
 2162 005c 04E0     		b	.L176
 2163              	.LVL215:
 2164              	.L177:
1421:Generated_Source\PSoC6\pdl\drivers\peripheral\prot/cy_prot.c ****     }
 2165              		.loc 1 1421 0
 2166 005e 0648     		ldr	r0, .L180+12
 2167              	.LVL216:
 2168 0060 02E0     		b	.L176
 2169              	.LVL217:
 2170              	.L178:
1435:Generated_Source\PSoC6\pdl\drivers\peripheral\prot/cy_prot.c ****         }
 2171              		.loc 1 1435 0
 2172 0062 0548     		ldr	r0, .L180+12
ARM GAS  C:\Users\kiwamu\AppData\Local\Temp\ccj1MWYe.s 			page 65


 2173              	.LVL218:
 2174 0064 00E0     		b	.L176
 2175              	.LVL219:
 2176              	.L179:
 2177              		.loc 1 1440 0
 2178 0066 0020     		movs	r0, #0
 2179              	.LVL220:
 2180              	.L176:
1441:Generated_Source\PSoC6\pdl\drivers\peripheral\prot/cy_prot.c ****         }
1442:Generated_Source\PSoC6\pdl\drivers\peripheral\prot/cy_prot.c ****     }
1443:Generated_Source\PSoC6\pdl\drivers\peripheral\prot/cy_prot.c ****     
1444:Generated_Source\PSoC6\pdl\drivers\peripheral\prot/cy_prot.c ****     return status;
1445:Generated_Source\PSoC6\pdl\drivers\peripheral\prot/cy_prot.c **** }
 2181              		.loc 1 1445 0
 2182              		@ sp needed
 2183 0068 70BD     		pop	{r4, r5, r6, pc}
 2184              	.L181:
 2185 006a C046     		.align	2
 2186              	.L180:
 2187 006c 00FEFF00 		.word	16776704
 2188 0070 DBFEFFE0 		.word	-520093989
 2189 0074 0300C200 		.word	12713987
 2190 0078 0100C200 		.word	12713985
 2191              		.cfi_endproc
 2192              	.LFE65:
 2193              		.size	Cy_Prot_ConfigPpuFixedRgSlaveStruct, .-Cy_Prot_ConfigPpuFixedRgSlaveStruct
 2194              		.section	.text.Cy_Prot_EnablePpuFixedRgMasterStruct,"ax",%progbits
 2195              		.align	2
 2196              		.global	Cy_Prot_EnablePpuFixedRgMasterStruct
 2197              		.code	16
 2198              		.thumb_func
 2199              		.type	Cy_Prot_EnablePpuFixedRgMasterStruct, %function
 2200              	Cy_Prot_EnablePpuFixedRgMasterStruct:
 2201              	.LFB66:
1446:Generated_Source\PSoC6\pdl\drivers\peripheral\prot/cy_prot.c **** 
1447:Generated_Source\PSoC6\pdl\drivers\peripheral\prot/cy_prot.c **** 
1448:Generated_Source\PSoC6\pdl\drivers\peripheral\prot/cy_prot.c **** /*******************************************************************************
1449:Generated_Source\PSoC6\pdl\drivers\peripheral\prot/cy_prot.c **** * Function Name: Cy_Prot_EnablePpuFixedRgMasterStruct
1450:Generated_Source\PSoC6\pdl\drivers\peripheral\prot/cy_prot.c **** ****************************************************************************//**
1451:Generated_Source\PSoC6\pdl\drivers\peripheral\prot/cy_prot.c **** *
1452:Generated_Source\PSoC6\pdl\drivers\peripheral\prot/cy_prot.c **** * \brief Enables the Master PPU RG structure.
1453:Generated_Source\PSoC6\pdl\drivers\peripheral\prot/cy_prot.c **** *
1454:Generated_Source\PSoC6\pdl\drivers\peripheral\prot/cy_prot.c **** * This is a PPU RG master struct enable function. The PPU RG protection 
1455:Generated_Source\PSoC6\pdl\drivers\peripheral\prot/cy_prot.c **** * settings will take effect after successful completion of this function call.
1456:Generated_Source\PSoC6\pdl\drivers\peripheral\prot/cy_prot.c **** *
1457:Generated_Source\PSoC6\pdl\drivers\peripheral\prot/cy_prot.c **** * \param base
1458:Generated_Source\PSoC6\pdl\drivers\peripheral\prot/cy_prot.c **** * The base address for the protection unit structure being configured. 
1459:Generated_Source\PSoC6\pdl\drivers\peripheral\prot/cy_prot.c **** *
1460:Generated_Source\PSoC6\pdl\drivers\peripheral\prot/cy_prot.c **** * \return
1461:Generated_Source\PSoC6\pdl\drivers\peripheral\prot/cy_prot.c **** * Status of the function call.
1462:Generated_Source\PSoC6\pdl\drivers\peripheral\prot/cy_prot.c **** *
1463:Generated_Source\PSoC6\pdl\drivers\peripheral\prot/cy_prot.c **** *   Status               | Description
1464:Generated_Source\PSoC6\pdl\drivers\peripheral\prot/cy_prot.c **** *   ------------         | -----------
1465:Generated_Source\PSoC6\pdl\drivers\peripheral\prot/cy_prot.c **** *   CY_PROT_SUCCESS      | The Master PU struct was enabled
1466:Generated_Source\PSoC6\pdl\drivers\peripheral\prot/cy_prot.c **** *   CY_PROT_FAILURE      | The Master PU struct is disabled and possibly locked
1467:Generated_Source\PSoC6\pdl\drivers\peripheral\prot/cy_prot.c **** *  
1468:Generated_Source\PSoC6\pdl\drivers\peripheral\prot/cy_prot.c **** *******************************************************************************/
ARM GAS  C:\Users\kiwamu\AppData\Local\Temp\ccj1MWYe.s 			page 66


1469:Generated_Source\PSoC6\pdl\drivers\peripheral\prot/cy_prot.c **** cy_en_prot_status_t Cy_Prot_EnablePpuFixedRgMasterStruct(PERI_GR_PPU_RG_Type* base)
1470:Generated_Source\PSoC6\pdl\drivers\peripheral\prot/cy_prot.c **** {
 2202              		.loc 1 1470 0
 2203              		.cfi_startproc
 2204              		@ args = 0, pretend = 0, frame = 0
 2205              		@ frame_needed = 0, uses_anonymous_args = 0
 2206              		@ link register save eliminated.
 2207              	.LVL221:
1471:Generated_Source\PSoC6\pdl\drivers\peripheral\prot/cy_prot.c ****     cy_en_prot_status_t status = CY_PROT_SUCCESS;
1472:Generated_Source\PSoC6\pdl\drivers\peripheral\prot/cy_prot.c ****     
1473:Generated_Source\PSoC6\pdl\drivers\peripheral\prot/cy_prot.c ****     base->ATT1 |= _VAL2FLD(PERI_GR_PPU_RG_ATT1_ENABLED, CY_PROT_STRUCT_ENABLE);
 2208              		.loc 1 1473 0
 2209 0000 436A     		ldr	r3, [r0, #36]
 2210 0002 8022     		movs	r2, #128
 2211 0004 1206     		lsls	r2, r2, #24
 2212 0006 1343     		orrs	r3, r2
 2213 0008 4362     		str	r3, [r0, #36]
1474:Generated_Source\PSoC6\pdl\drivers\peripheral\prot/cy_prot.c ****     status = (_FLD2VAL(PERI_GR_PPU_RG_ATT1_ENABLED, base->ATT1) != CY_PROT_STRUCT_ENABLE) ?
 2214              		.loc 1 1474 0
 2215 000a 436A     		ldr	r3, [r0, #36]
 2216 000c 002B     		cmp	r3, #0
 2217 000e 01DB     		blt	.L184
 2218 0010 0148     		ldr	r0, .L185
 2219              	.LVL222:
 2220 0012 00E0     		b	.L183
 2221              	.LVL223:
 2222              	.L184:
 2223 0014 0020     		movs	r0, #0
 2224              	.LVL224:
 2225              	.L183:
1475:Generated_Source\PSoC6\pdl\drivers\peripheral\prot/cy_prot.c ****                 CY_PROT_FAILURE : CY_PROT_SUCCESS;
1476:Generated_Source\PSoC6\pdl\drivers\peripheral\prot/cy_prot.c ****     
1477:Generated_Source\PSoC6\pdl\drivers\peripheral\prot/cy_prot.c ****     return status;
1478:Generated_Source\PSoC6\pdl\drivers\peripheral\prot/cy_prot.c **** }
 2226              		.loc 1 1478 0 discriminator 4
 2227              		@ sp needed
 2228 0016 7047     		bx	lr
 2229              	.L186:
 2230              		.align	2
 2231              	.L185:
 2232 0018 0300C200 		.word	12713987
 2233              		.cfi_endproc
 2234              	.LFE66:
 2235              		.size	Cy_Prot_EnablePpuFixedRgMasterStruct, .-Cy_Prot_EnablePpuFixedRgMasterStruct
 2236              		.section	.text.Cy_Prot_DisablePpuFixedRgMasterStruct,"ax",%progbits
 2237              		.align	2
 2238              		.global	Cy_Prot_DisablePpuFixedRgMasterStruct
 2239              		.code	16
 2240              		.thumb_func
 2241              		.type	Cy_Prot_DisablePpuFixedRgMasterStruct, %function
 2242              	Cy_Prot_DisablePpuFixedRgMasterStruct:
 2243              	.LFB67:
1479:Generated_Source\PSoC6\pdl\drivers\peripheral\prot/cy_prot.c **** 
1480:Generated_Source\PSoC6\pdl\drivers\peripheral\prot/cy_prot.c **** 
1481:Generated_Source\PSoC6\pdl\drivers\peripheral\prot/cy_prot.c **** /*******************************************************************************
1482:Generated_Source\PSoC6\pdl\drivers\peripheral\prot/cy_prot.c **** * Function Name: Cy_Prot_DisablePpuFixedRgMasterStruct
1483:Generated_Source\PSoC6\pdl\drivers\peripheral\prot/cy_prot.c **** ****************************************************************************//**
ARM GAS  C:\Users\kiwamu\AppData\Local\Temp\ccj1MWYe.s 			page 67


1484:Generated_Source\PSoC6\pdl\drivers\peripheral\prot/cy_prot.c **** *
1485:Generated_Source\PSoC6\pdl\drivers\peripheral\prot/cy_prot.c **** * \brief Disables the Master PPU RG structure.
1486:Generated_Source\PSoC6\pdl\drivers\peripheral\prot/cy_prot.c **** *
1487:Generated_Source\PSoC6\pdl\drivers\peripheral\prot/cy_prot.c **** * This is a PPU RG master struct disable function. The PPU RG protection 
1488:Generated_Source\PSoC6\pdl\drivers\peripheral\prot/cy_prot.c **** * settings will seize to take effect after successful completion of this 
1489:Generated_Source\PSoC6\pdl\drivers\peripheral\prot/cy_prot.c **** * function call.
1490:Generated_Source\PSoC6\pdl\drivers\peripheral\prot/cy_prot.c **** *
1491:Generated_Source\PSoC6\pdl\drivers\peripheral\prot/cy_prot.c **** * \param base
1492:Generated_Source\PSoC6\pdl\drivers\peripheral\prot/cy_prot.c **** * The base address for the protection unit structure being configured. 
1493:Generated_Source\PSoC6\pdl\drivers\peripheral\prot/cy_prot.c **** *
1494:Generated_Source\PSoC6\pdl\drivers\peripheral\prot/cy_prot.c **** * \return
1495:Generated_Source\PSoC6\pdl\drivers\peripheral\prot/cy_prot.c **** * Status of the function call.
1496:Generated_Source\PSoC6\pdl\drivers\peripheral\prot/cy_prot.c **** *
1497:Generated_Source\PSoC6\pdl\drivers\peripheral\prot/cy_prot.c **** *   Status               | Description
1498:Generated_Source\PSoC6\pdl\drivers\peripheral\prot/cy_prot.c **** *   ------------         | -----------
1499:Generated_Source\PSoC6\pdl\drivers\peripheral\prot/cy_prot.c **** *   CY_PROT_SUCCESS      | The Master PU struct was disabled
1500:Generated_Source\PSoC6\pdl\drivers\peripheral\prot/cy_prot.c **** *   CY_PROT_FAILURE      | The Master PU struct is enabled and possibly locked
1501:Generated_Source\PSoC6\pdl\drivers\peripheral\prot/cy_prot.c **** *  
1502:Generated_Source\PSoC6\pdl\drivers\peripheral\prot/cy_prot.c **** *******************************************************************************/
1503:Generated_Source\PSoC6\pdl\drivers\peripheral\prot/cy_prot.c **** cy_en_prot_status_t Cy_Prot_DisablePpuFixedRgMasterStruct(PERI_GR_PPU_RG_Type* base)
1504:Generated_Source\PSoC6\pdl\drivers\peripheral\prot/cy_prot.c **** {
 2244              		.loc 1 1504 0
 2245              		.cfi_startproc
 2246              		@ args = 0, pretend = 0, frame = 0
 2247              		@ frame_needed = 0, uses_anonymous_args = 0
 2248              		@ link register save eliminated.
 2249              	.LVL225:
1505:Generated_Source\PSoC6\pdl\drivers\peripheral\prot/cy_prot.c ****     cy_en_prot_status_t status = CY_PROT_SUCCESS;
1506:Generated_Source\PSoC6\pdl\drivers\peripheral\prot/cy_prot.c ****     
1507:Generated_Source\PSoC6\pdl\drivers\peripheral\prot/cy_prot.c ****     base->ATT1 &= ~_VAL2FLD(PERI_GR_PPU_RG_ATT1_ENABLED, CY_PROT_STRUCT_ENABLE);
 2250              		.loc 1 1507 0
 2251 0000 436A     		ldr	r3, [r0, #36]
 2252 0002 5B00     		lsls	r3, r3, #1
 2253 0004 5B08     		lsrs	r3, r3, #1
 2254 0006 4362     		str	r3, [r0, #36]
1508:Generated_Source\PSoC6\pdl\drivers\peripheral\prot/cy_prot.c ****     status = (_FLD2VAL(PERI_GR_PPU_RG_ATT1_ENABLED, base->ATT1) == CY_PROT_STRUCT_ENABLE) ?
 2255              		.loc 1 1508 0
 2256 0008 436A     		ldr	r3, [r0, #36]
 2257 000a 002B     		cmp	r3, #0
 2258 000c 01DA     		bge	.L189
 2259 000e 0248     		ldr	r0, .L190
 2260              	.LVL226:
 2261 0010 00E0     		b	.L188
 2262              	.LVL227:
 2263              	.L189:
 2264 0012 0020     		movs	r0, #0
 2265              	.LVL228:
 2266              	.L188:
1509:Generated_Source\PSoC6\pdl\drivers\peripheral\prot/cy_prot.c ****                 CY_PROT_FAILURE : CY_PROT_SUCCESS;
1510:Generated_Source\PSoC6\pdl\drivers\peripheral\prot/cy_prot.c ****     
1511:Generated_Source\PSoC6\pdl\drivers\peripheral\prot/cy_prot.c ****     return status;
1512:Generated_Source\PSoC6\pdl\drivers\peripheral\prot/cy_prot.c **** }
 2267              		.loc 1 1512 0 discriminator 4
 2268              		@ sp needed
 2269 0014 7047     		bx	lr
 2270              	.L191:
 2271 0016 C046     		.align	2
ARM GAS  C:\Users\kiwamu\AppData\Local\Temp\ccj1MWYe.s 			page 68


 2272              	.L190:
 2273 0018 0300C200 		.word	12713987
 2274              		.cfi_endproc
 2275              	.LFE67:
 2276              		.size	Cy_Prot_DisablePpuFixedRgMasterStruct, .-Cy_Prot_DisablePpuFixedRgMasterStruct
 2277              		.section	.text.Cy_Prot_EnablePpuFixedRgSlaveStruct,"ax",%progbits
 2278              		.align	2
 2279              		.global	Cy_Prot_EnablePpuFixedRgSlaveStruct
 2280              		.code	16
 2281              		.thumb_func
 2282              		.type	Cy_Prot_EnablePpuFixedRgSlaveStruct, %function
 2283              	Cy_Prot_EnablePpuFixedRgSlaveStruct:
 2284              	.LFB68:
1513:Generated_Source\PSoC6\pdl\drivers\peripheral\prot/cy_prot.c **** 
1514:Generated_Source\PSoC6\pdl\drivers\peripheral\prot/cy_prot.c **** 
1515:Generated_Source\PSoC6\pdl\drivers\peripheral\prot/cy_prot.c **** /*******************************************************************************
1516:Generated_Source\PSoC6\pdl\drivers\peripheral\prot/cy_prot.c **** * Function Name: Cy_Prot_EnablePpuFixedRgSlaveStruct
1517:Generated_Source\PSoC6\pdl\drivers\peripheral\prot/cy_prot.c **** ****************************************************************************//**
1518:Generated_Source\PSoC6\pdl\drivers\peripheral\prot/cy_prot.c **** *
1519:Generated_Source\PSoC6\pdl\drivers\peripheral\prot/cy_prot.c **** * \brief Enables the Slave PPU RG structure.
1520:Generated_Source\PSoC6\pdl\drivers\peripheral\prot/cy_prot.c **** *
1521:Generated_Source\PSoC6\pdl\drivers\peripheral\prot/cy_prot.c **** * This is a PPU RG slave struct enable function. The PPU RG protection 
1522:Generated_Source\PSoC6\pdl\drivers\peripheral\prot/cy_prot.c **** * settings will take effect after successful completion of this function call.
1523:Generated_Source\PSoC6\pdl\drivers\peripheral\prot/cy_prot.c **** *
1524:Generated_Source\PSoC6\pdl\drivers\peripheral\prot/cy_prot.c **** * \param base
1525:Generated_Source\PSoC6\pdl\drivers\peripheral\prot/cy_prot.c **** * The base address for the protection unit structure being configured. 
1526:Generated_Source\PSoC6\pdl\drivers\peripheral\prot/cy_prot.c **** *
1527:Generated_Source\PSoC6\pdl\drivers\peripheral\prot/cy_prot.c **** * \return
1528:Generated_Source\PSoC6\pdl\drivers\peripheral\prot/cy_prot.c **** * Status of the function call.
1529:Generated_Source\PSoC6\pdl\drivers\peripheral\prot/cy_prot.c **** *
1530:Generated_Source\PSoC6\pdl\drivers\peripheral\prot/cy_prot.c **** *   Status               | Description
1531:Generated_Source\PSoC6\pdl\drivers\peripheral\prot/cy_prot.c **** *   ------------         | -----------
1532:Generated_Source\PSoC6\pdl\drivers\peripheral\prot/cy_prot.c **** *   CY_PROT_SUCCESS      | The Slave PU struct was enabled
1533:Generated_Source\PSoC6\pdl\drivers\peripheral\prot/cy_prot.c **** *   CY_PROT_FAILURE      | The Slave PU struct is disabled and possibly locked
1534:Generated_Source\PSoC6\pdl\drivers\peripheral\prot/cy_prot.c **** *  
1535:Generated_Source\PSoC6\pdl\drivers\peripheral\prot/cy_prot.c **** *******************************************************************************/
1536:Generated_Source\PSoC6\pdl\drivers\peripheral\prot/cy_prot.c **** cy_en_prot_status_t Cy_Prot_EnablePpuFixedRgSlaveStruct(PERI_GR_PPU_RG_Type* base)
1537:Generated_Source\PSoC6\pdl\drivers\peripheral\prot/cy_prot.c **** {   
 2285              		.loc 1 1537 0
 2286              		.cfi_startproc
 2287              		@ args = 0, pretend = 0, frame = 0
 2288              		@ frame_needed = 0, uses_anonymous_args = 0
 2289              		@ link register save eliminated.
 2290              	.LVL229:
1538:Generated_Source\PSoC6\pdl\drivers\peripheral\prot/cy_prot.c ****     cy_en_prot_status_t status = CY_PROT_SUCCESS;
1539:Generated_Source\PSoC6\pdl\drivers\peripheral\prot/cy_prot.c ****     
1540:Generated_Source\PSoC6\pdl\drivers\peripheral\prot/cy_prot.c ****     base->ATT0 |= _VAL2FLD(PERI_GR_PPU_RG_ATT0_ENABLED, CY_PROT_STRUCT_ENABLE);
 2291              		.loc 1 1540 0
 2292 0000 4368     		ldr	r3, [r0, #4]
 2293 0002 8022     		movs	r2, #128
 2294 0004 1206     		lsls	r2, r2, #24
 2295 0006 1343     		orrs	r3, r2
 2296 0008 4360     		str	r3, [r0, #4]
1541:Generated_Source\PSoC6\pdl\drivers\peripheral\prot/cy_prot.c ****     status = (_FLD2VAL(PERI_GR_PPU_RG_ATT0_ENABLED, base->ATT0) != CY_PROT_STRUCT_ENABLE) ?
 2297              		.loc 1 1541 0
 2298 000a 4368     		ldr	r3, [r0, #4]
 2299 000c 002B     		cmp	r3, #0
ARM GAS  C:\Users\kiwamu\AppData\Local\Temp\ccj1MWYe.s 			page 69


 2300 000e 01DB     		blt	.L194
 2301 0010 0148     		ldr	r0, .L195
 2302              	.LVL230:
 2303 0012 00E0     		b	.L193
 2304              	.LVL231:
 2305              	.L194:
 2306 0014 0020     		movs	r0, #0
 2307              	.LVL232:
 2308              	.L193:
1542:Generated_Source\PSoC6\pdl\drivers\peripheral\prot/cy_prot.c ****                 CY_PROT_FAILURE : CY_PROT_SUCCESS;
1543:Generated_Source\PSoC6\pdl\drivers\peripheral\prot/cy_prot.c ****     
1544:Generated_Source\PSoC6\pdl\drivers\peripheral\prot/cy_prot.c ****     return status;
1545:Generated_Source\PSoC6\pdl\drivers\peripheral\prot/cy_prot.c **** }
 2309              		.loc 1 1545 0 discriminator 4
 2310              		@ sp needed
 2311 0016 7047     		bx	lr
 2312              	.L196:
 2313              		.align	2
 2314              	.L195:
 2315 0018 0300C200 		.word	12713987
 2316              		.cfi_endproc
 2317              	.LFE68:
 2318              		.size	Cy_Prot_EnablePpuFixedRgSlaveStruct, .-Cy_Prot_EnablePpuFixedRgSlaveStruct
 2319              		.section	.text.Cy_Prot_DisablePpuFixedRgSlaveStruct,"ax",%progbits
 2320              		.align	2
 2321              		.global	Cy_Prot_DisablePpuFixedRgSlaveStruct
 2322              		.code	16
 2323              		.thumb_func
 2324              		.type	Cy_Prot_DisablePpuFixedRgSlaveStruct, %function
 2325              	Cy_Prot_DisablePpuFixedRgSlaveStruct:
 2326              	.LFB69:
1546:Generated_Source\PSoC6\pdl\drivers\peripheral\prot/cy_prot.c **** 
1547:Generated_Source\PSoC6\pdl\drivers\peripheral\prot/cy_prot.c **** 
1548:Generated_Source\PSoC6\pdl\drivers\peripheral\prot/cy_prot.c **** /*******************************************************************************
1549:Generated_Source\PSoC6\pdl\drivers\peripheral\prot/cy_prot.c **** * Function Name: Cy_Prot_DisablePpuFixedRgSlaveStruct
1550:Generated_Source\PSoC6\pdl\drivers\peripheral\prot/cy_prot.c **** ****************************************************************************//**
1551:Generated_Source\PSoC6\pdl\drivers\peripheral\prot/cy_prot.c **** *
1552:Generated_Source\PSoC6\pdl\drivers\peripheral\prot/cy_prot.c **** * \brief Disables the Slave PPU RG structure.
1553:Generated_Source\PSoC6\pdl\drivers\peripheral\prot/cy_prot.c **** *
1554:Generated_Source\PSoC6\pdl\drivers\peripheral\prot/cy_prot.c **** * This is a PPU RG slave struct disable function. The PPU RG protection 
1555:Generated_Source\PSoC6\pdl\drivers\peripheral\prot/cy_prot.c **** * settings will seize to take effect after successful completion of this 
1556:Generated_Source\PSoC6\pdl\drivers\peripheral\prot/cy_prot.c **** * function call.
1557:Generated_Source\PSoC6\pdl\drivers\peripheral\prot/cy_prot.c **** *
1558:Generated_Source\PSoC6\pdl\drivers\peripheral\prot/cy_prot.c **** * \param base
1559:Generated_Source\PSoC6\pdl\drivers\peripheral\prot/cy_prot.c **** * The base address for the protection unit structure being configured. 
1560:Generated_Source\PSoC6\pdl\drivers\peripheral\prot/cy_prot.c **** *
1561:Generated_Source\PSoC6\pdl\drivers\peripheral\prot/cy_prot.c **** * \return
1562:Generated_Source\PSoC6\pdl\drivers\peripheral\prot/cy_prot.c **** * Status of the function call.
1563:Generated_Source\PSoC6\pdl\drivers\peripheral\prot/cy_prot.c **** *
1564:Generated_Source\PSoC6\pdl\drivers\peripheral\prot/cy_prot.c **** *   Status               | Description
1565:Generated_Source\PSoC6\pdl\drivers\peripheral\prot/cy_prot.c **** *   ------------         | -----------
1566:Generated_Source\PSoC6\pdl\drivers\peripheral\prot/cy_prot.c **** *   CY_PROT_SUCCESS      | The Slave PU struct was disabled
1567:Generated_Source\PSoC6\pdl\drivers\peripheral\prot/cy_prot.c **** *   CY_PROT_FAILURE      | The Slave PU struct is enabled and possibly locked
1568:Generated_Source\PSoC6\pdl\drivers\peripheral\prot/cy_prot.c **** *  
1569:Generated_Source\PSoC6\pdl\drivers\peripheral\prot/cy_prot.c **** *******************************************************************************/
1570:Generated_Source\PSoC6\pdl\drivers\peripheral\prot/cy_prot.c **** cy_en_prot_status_t Cy_Prot_DisablePpuFixedRgSlaveStruct(PERI_GR_PPU_RG_Type* base)
1571:Generated_Source\PSoC6\pdl\drivers\peripheral\prot/cy_prot.c **** {
ARM GAS  C:\Users\kiwamu\AppData\Local\Temp\ccj1MWYe.s 			page 70


 2327              		.loc 1 1571 0
 2328              		.cfi_startproc
 2329              		@ args = 0, pretend = 0, frame = 0
 2330              		@ frame_needed = 0, uses_anonymous_args = 0
 2331              		@ link register save eliminated.
 2332              	.LVL233:
1572:Generated_Source\PSoC6\pdl\drivers\peripheral\prot/cy_prot.c ****     cy_en_prot_status_t status = CY_PROT_SUCCESS;
1573:Generated_Source\PSoC6\pdl\drivers\peripheral\prot/cy_prot.c ****     
1574:Generated_Source\PSoC6\pdl\drivers\peripheral\prot/cy_prot.c ****     base->ATT0 &= ~_VAL2FLD(PERI_GR_PPU_RG_ATT0_ENABLED, CY_PROT_STRUCT_ENABLE);
 2333              		.loc 1 1574 0
 2334 0000 4368     		ldr	r3, [r0, #4]
 2335 0002 5B00     		lsls	r3, r3, #1
 2336 0004 5B08     		lsrs	r3, r3, #1
 2337 0006 4360     		str	r3, [r0, #4]
1575:Generated_Source\PSoC6\pdl\drivers\peripheral\prot/cy_prot.c ****     status = (_FLD2VAL(PERI_GR_PPU_RG_ATT0_ENABLED, base->ATT0) == CY_PROT_STRUCT_ENABLE) ?
 2338              		.loc 1 1575 0
 2339 0008 4368     		ldr	r3, [r0, #4]
 2340 000a 002B     		cmp	r3, #0
 2341 000c 01DA     		bge	.L199
 2342 000e 0248     		ldr	r0, .L200
 2343              	.LVL234:
 2344 0010 00E0     		b	.L198
 2345              	.LVL235:
 2346              	.L199:
 2347 0012 0020     		movs	r0, #0
 2348              	.LVL236:
 2349              	.L198:
1576:Generated_Source\PSoC6\pdl\drivers\peripheral\prot/cy_prot.c ****                 CY_PROT_FAILURE : CY_PROT_SUCCESS;
1577:Generated_Source\PSoC6\pdl\drivers\peripheral\prot/cy_prot.c ****     
1578:Generated_Source\PSoC6\pdl\drivers\peripheral\prot/cy_prot.c ****     return status;
1579:Generated_Source\PSoC6\pdl\drivers\peripheral\prot/cy_prot.c **** }
 2350              		.loc 1 1579 0 discriminator 4
 2351              		@ sp needed
 2352 0014 7047     		bx	lr
 2353              	.L201:
 2354 0016 C046     		.align	2
 2355              	.L200:
 2356 0018 0300C200 		.word	12713987
 2357              		.cfi_endproc
 2358              	.LFE69:
 2359              		.size	Cy_Prot_DisablePpuFixedRgSlaveStruct, .-Cy_Prot_DisablePpuFixedRgSlaveStruct
 2360              		.text
 2361              	.Letext0:
 2362              		.file 2 "c:\\program files (x86)\\cypress\\psoc creator\\4.2\\psoc creator\\import\\gnu\\arm\\5.4.
 2363              		.file 3 "c:\\program files (x86)\\cypress\\psoc creator\\4.2\\psoc creator\\import\\gnu\\arm\\5.4.
 2364              		.file 4 "Generated_Source\\PSoC6\\pdl\\devices/psoc6/psoc63/include/psoc63_config.h"
 2365              		.file 5 "Generated_Source\\PSoC6\\pdl\\devices/psoc6/ip/cyip_peri.h"
 2366              		.file 6 "Generated_Source\\PSoC6\\pdl\\devices/psoc6/ip/cyip_prot.h"
 2367              		.file 7 "Generated_Source\\PSoC6\\pdl\\drivers\\peripheral\\prot\\cy_prot.h"
 2368              		.section	.debug_info,"",%progbits
 2369              	.Ldebug_info0:
 2370 0000 9E130000 		.4byte	0x139e
 2371 0004 0400     		.2byte	0x4
 2372 0006 00000000 		.4byte	.Ldebug_abbrev0
 2373 000a 04       		.byte	0x4
 2374 000b 01       		.uleb128 0x1
 2375 000c 29090000 		.4byte	.LASF162
ARM GAS  C:\Users\kiwamu\AppData\Local\Temp\ccj1MWYe.s 			page 71


 2376 0010 0C       		.byte	0xc
 2377 0011 6D040000 		.4byte	.LASF163
 2378 0015 AD050000 		.4byte	.LASF164
 2379 0019 00000000 		.4byte	.Ldebug_ranges0+0
 2380 001d 00000000 		.4byte	0
 2381 0021 00000000 		.4byte	.Ldebug_line0
 2382 0025 02       		.uleb128 0x2
 2383 0026 01       		.byte	0x1
 2384 0027 06       		.byte	0x6
 2385 0028 7C010000 		.4byte	.LASF0
 2386 002c 03       		.uleb128 0x3
 2387 002d 9B000000 		.4byte	.LASF3
 2388 0031 02       		.byte	0x2
 2389 0032 1D       		.byte	0x1d
 2390 0033 37000000 		.4byte	0x37
 2391 0037 02       		.uleb128 0x2
 2392 0038 01       		.byte	0x1
 2393 0039 08       		.byte	0x8
 2394 003a E8070000 		.4byte	.LASF1
 2395 003e 02       		.uleb128 0x2
 2396 003f 02       		.byte	0x2
 2397 0040 05       		.byte	0x5
 2398 0041 17080000 		.4byte	.LASF2
 2399 0045 03       		.uleb128 0x3
 2400 0046 DB090000 		.4byte	.LASF4
 2401 004a 02       		.byte	0x2
 2402 004b 2B       		.byte	0x2b
 2403 004c 50000000 		.4byte	0x50
 2404 0050 02       		.uleb128 0x2
 2405 0051 02       		.byte	0x2
 2406 0052 07       		.byte	0x7
 2407 0053 4E040000 		.4byte	.LASF5
 2408 0057 02       		.uleb128 0x2
 2409 0058 04       		.byte	0x4
 2410 0059 05       		.byte	0x5
 2411 005a 51020000 		.4byte	.LASF6
 2412 005e 03       		.uleb128 0x3
 2413 005f E6020000 		.4byte	.LASF7
 2414 0063 02       		.byte	0x2
 2415 0064 41       		.byte	0x41
 2416 0065 69000000 		.4byte	0x69
 2417 0069 02       		.uleb128 0x2
 2418 006a 04       		.byte	0x4
 2419 006b 07       		.byte	0x7
 2420 006c E5030000 		.4byte	.LASF8
 2421 0070 02       		.uleb128 0x2
 2422 0071 08       		.byte	0x8
 2423 0072 05       		.byte	0x5
 2424 0073 6E010000 		.4byte	.LASF9
 2425 0077 02       		.uleb128 0x2
 2426 0078 08       		.byte	0x8
 2427 0079 07       		.byte	0x7
 2428 007a 11010000 		.4byte	.LASF10
 2429 007e 04       		.uleb128 0x4
 2430 007f 04       		.byte	0x4
 2431 0080 05       		.byte	0x5
 2432 0081 696E7400 		.ascii	"int\000"
ARM GAS  C:\Users\kiwamu\AppData\Local\Temp\ccj1MWYe.s 			page 72


 2433 0085 02       		.uleb128 0x2
 2434 0086 04       		.byte	0x4
 2435 0087 07       		.byte	0x7
 2436 0088 98030000 		.4byte	.LASF11
 2437 008c 03       		.uleb128 0x3
 2438 008d FB0A0000 		.4byte	.LASF12
 2439 0091 03       		.byte	0x3
 2440 0092 18       		.byte	0x18
 2441 0093 2C000000 		.4byte	0x2c
 2442 0097 03       		.uleb128 0x3
 2443 0098 72020000 		.4byte	.LASF13
 2444 009c 03       		.byte	0x3
 2445 009d 24       		.byte	0x24
 2446 009e 45000000 		.4byte	0x45
 2447 00a2 03       		.uleb128 0x3
 2448 00a3 EA080000 		.4byte	.LASF14
 2449 00a7 03       		.byte	0x3
 2450 00a8 30       		.byte	0x30
 2451 00a9 5E000000 		.4byte	0x5e
 2452 00ad 02       		.uleb128 0x2
 2453 00ae 04       		.byte	0x4
 2454 00af 07       		.byte	0x7
 2455 00b0 2D0B0000 		.4byte	.LASF15
 2456 00b4 05       		.uleb128 0x5
 2457 00b5 A2000000 		.4byte	0xa2
 2458 00b9 06       		.uleb128 0x6
 2459 00ba B4000000 		.4byte	0xb4
 2460 00be 07       		.uleb128 0x7
 2461 00bf 01       		.byte	0x1
 2462 00c0 37000000 		.4byte	0x37
 2463 00c4 04       		.byte	0x4
 2464 00c5 1406     		.2byte	0x614
 2465 00c7 F0000000 		.4byte	0xf0
 2466 00cb 08       		.uleb128 0x8
 2467 00cc E6090000 		.4byte	.LASF16
 2468 00d0 00       		.byte	0
 2469 00d1 08       		.uleb128 0x8
 2470 00d2 C6010000 		.4byte	.LASF17
 2471 00d6 01       		.byte	0x1
 2472 00d7 08       		.uleb128 0x8
 2473 00d8 360B0000 		.4byte	.LASF18
 2474 00dc 02       		.byte	0x2
 2475 00dd 08       		.uleb128 0x8
 2476 00de 710A0000 		.4byte	.LASF19
 2477 00e2 03       		.byte	0x3
 2478 00e3 08       		.uleb128 0x8
 2479 00e4 BF060000 		.4byte	.LASF20
 2480 00e8 0E       		.byte	0xe
 2481 00e9 08       		.uleb128 0x8
 2482 00ea 020C0000 		.4byte	.LASF21
 2483 00ee 0F       		.byte	0xf
 2484 00ef 00       		.byte	0
 2485 00f0 09       		.uleb128 0x9
 2486 00f1 61020000 		.4byte	.LASF22
 2487 00f5 04       		.byte	0x4
 2488 00f6 1B06     		.2byte	0x61b
 2489 00f8 BE000000 		.4byte	0xbe
ARM GAS  C:\Users\kiwamu\AppData\Local\Temp\ccj1MWYe.s 			page 73


 2490 00fc 0A       		.uleb128 0xa
 2491 00fd B9000000 		.4byte	0xb9
 2492 0101 0C010000 		.4byte	0x10c
 2493 0105 0B       		.uleb128 0xb
 2494 0106 AD000000 		.4byte	0xad
 2495 010a 05       		.byte	0x5
 2496 010b 00       		.byte	0
 2497 010c 0C       		.uleb128 0xc
 2498 010d 40       		.byte	0x40
 2499 010e 05       		.byte	0x5
 2500 010f 39       		.byte	0x39
 2501 0110 5D010000 		.4byte	0x15d
 2502 0114 0D       		.uleb128 0xd
 2503 0115 61040000 		.4byte	.LASF23
 2504 0119 05       		.byte	0x5
 2505 011a 3A       		.byte	0x3a
 2506 011b B4000000 		.4byte	0xb4
 2507 011f 00       		.byte	0
 2508 0120 0D       		.uleb128 0xd
 2509 0121 D9020000 		.4byte	.LASF24
 2510 0125 05       		.byte	0x5
 2511 0126 3B       		.byte	0x3b
 2512 0127 B4000000 		.4byte	0xb4
 2513 012b 04       		.byte	0x4
 2514 012c 0D       		.uleb128 0xd
 2515 012d F6090000 		.4byte	.LASF25
 2516 0131 05       		.byte	0x5
 2517 0132 3C       		.byte	0x3c
 2518 0133 62010000 		.4byte	0x162
 2519 0137 08       		.byte	0x8
 2520 0138 0D       		.uleb128 0xd
 2521 0139 67040000 		.4byte	.LASF26
 2522 013d 05       		.byte	0x5
 2523 013e 3D       		.byte	0x3d
 2524 013f B9000000 		.4byte	0xb9
 2525 0143 20       		.byte	0x20
 2526 0144 0D       		.uleb128 0xd
 2527 0145 810A0000 		.4byte	.LASF27
 2528 0149 05       		.byte	0x5
 2529 014a 3E       		.byte	0x3e
 2530 014b B4000000 		.4byte	0xb4
 2531 014f 24       		.byte	0x24
 2532 0150 0D       		.uleb128 0xd
 2533 0151 6D070000 		.4byte	.LASF28
 2534 0155 05       		.byte	0x5
 2535 0156 3F       		.byte	0x3f
 2536 0157 6C010000 		.4byte	0x16c
 2537 015b 28       		.byte	0x28
 2538 015c 00       		.byte	0
 2539 015d 05       		.uleb128 0x5
 2540 015e FC000000 		.4byte	0xfc
 2541 0162 06       		.uleb128 0x6
 2542 0163 5D010000 		.4byte	0x15d
 2543 0167 05       		.uleb128 0x5
 2544 0168 FC000000 		.4byte	0xfc
 2545 016c 06       		.uleb128 0x6
 2546 016d 67010000 		.4byte	0x167
ARM GAS  C:\Users\kiwamu\AppData\Local\Temp\ccj1MWYe.s 			page 74


 2547 0171 03       		.uleb128 0x3
 2548 0172 A60A0000 		.4byte	.LASF29
 2549 0176 05       		.byte	0x5
 2550 0177 40       		.byte	0x40
 2551 0178 0C010000 		.4byte	0x10c
 2552 017c 0C       		.uleb128 0xc
 2553 017d 40       		.byte	0x40
 2554 017e 05       		.byte	0x5
 2555 017f 45       		.byte	0x45
 2556 0180 CD010000 		.4byte	0x1cd
 2557 0184 0D       		.uleb128 0xd
 2558 0185 61040000 		.4byte	.LASF23
 2559 0189 05       		.byte	0x5
 2560 018a 46       		.byte	0x46
 2561 018b B9000000 		.4byte	0xb9
 2562 018f 00       		.byte	0
 2563 0190 0D       		.uleb128 0xd
 2564 0191 D9020000 		.4byte	.LASF24
 2565 0195 05       		.byte	0x5
 2566 0196 47       		.byte	0x47
 2567 0197 B4000000 		.4byte	0xb4
 2568 019b 04       		.byte	0x4
 2569 019c 0D       		.uleb128 0xd
 2570 019d F6090000 		.4byte	.LASF25
 2571 01a1 05       		.byte	0x5
 2572 01a2 48       		.byte	0x48
 2573 01a3 D2010000 		.4byte	0x1d2
 2574 01a7 08       		.byte	0x8
 2575 01a8 0D       		.uleb128 0xd
 2576 01a9 67040000 		.4byte	.LASF26
 2577 01ad 05       		.byte	0x5
 2578 01ae 49       		.byte	0x49
 2579 01af B9000000 		.4byte	0xb9
 2580 01b3 20       		.byte	0x20
 2581 01b4 0D       		.uleb128 0xd
 2582 01b5 810A0000 		.4byte	.LASF27
 2583 01b9 05       		.byte	0x5
 2584 01ba 4A       		.byte	0x4a
 2585 01bb B4000000 		.4byte	0xb4
 2586 01bf 24       		.byte	0x24
 2587 01c0 0D       		.uleb128 0xd
 2588 01c1 6D070000 		.4byte	.LASF28
 2589 01c5 05       		.byte	0x5
 2590 01c6 4B       		.byte	0x4b
 2591 01c7 DC010000 		.4byte	0x1dc
 2592 01cb 28       		.byte	0x28
 2593 01cc 00       		.byte	0
 2594 01cd 05       		.uleb128 0x5
 2595 01ce FC000000 		.4byte	0xfc
 2596 01d2 06       		.uleb128 0x6
 2597 01d3 CD010000 		.4byte	0x1cd
 2598 01d7 05       		.uleb128 0x5
 2599 01d8 FC000000 		.4byte	0xfc
 2600 01dc 06       		.uleb128 0x6
 2601 01dd D7010000 		.4byte	0x1d7
 2602 01e1 03       		.uleb128 0x3
 2603 01e2 F8000000 		.4byte	.LASF30
ARM GAS  C:\Users\kiwamu\AppData\Local\Temp\ccj1MWYe.s 			page 75


 2604 01e6 05       		.byte	0x5
 2605 01e7 4C       		.byte	0x4c
 2606 01e8 7C010000 		.4byte	0x17c
 2607 01ec 0C       		.uleb128 0xc
 2608 01ed 40       		.byte	0x40
 2609 01ee 05       		.byte	0x5
 2610 01ef 51       		.byte	0x51
 2611 01f0 3D020000 		.4byte	0x23d
 2612 01f4 0D       		.uleb128 0xd
 2613 01f5 61040000 		.4byte	.LASF23
 2614 01f9 05       		.byte	0x5
 2615 01fa 52       		.byte	0x52
 2616 01fb B9000000 		.4byte	0xb9
 2617 01ff 00       		.byte	0
 2618 0200 0D       		.uleb128 0xd
 2619 0201 D9020000 		.4byte	.LASF24
 2620 0205 05       		.byte	0x5
 2621 0206 53       		.byte	0x53
 2622 0207 B4000000 		.4byte	0xb4
 2623 020b 04       		.byte	0x4
 2624 020c 0D       		.uleb128 0xd
 2625 020d F6090000 		.4byte	.LASF25
 2626 0211 05       		.byte	0x5
 2627 0212 54       		.byte	0x54
 2628 0213 42020000 		.4byte	0x242
 2629 0217 08       		.byte	0x8
 2630 0218 0D       		.uleb128 0xd
 2631 0219 67040000 		.4byte	.LASF26
 2632 021d 05       		.byte	0x5
 2633 021e 55       		.byte	0x55
 2634 021f B9000000 		.4byte	0xb9
 2635 0223 20       		.byte	0x20
 2636 0224 0D       		.uleb128 0xd
 2637 0225 810A0000 		.4byte	.LASF27
 2638 0229 05       		.byte	0x5
 2639 022a 56       		.byte	0x56
 2640 022b B4000000 		.4byte	0xb4
 2641 022f 24       		.byte	0x24
 2642 0230 0D       		.uleb128 0xd
 2643 0231 6D070000 		.4byte	.LASF28
 2644 0235 05       		.byte	0x5
 2645 0236 57       		.byte	0x57
 2646 0237 4C020000 		.4byte	0x24c
 2647 023b 28       		.byte	0x28
 2648 023c 00       		.byte	0
 2649 023d 05       		.uleb128 0x5
 2650 023e FC000000 		.4byte	0xfc
 2651 0242 06       		.uleb128 0x6
 2652 0243 3D020000 		.4byte	0x23d
 2653 0247 05       		.uleb128 0x5
 2654 0248 FC000000 		.4byte	0xfc
 2655 024c 06       		.uleb128 0x6
 2656 024d 47020000 		.4byte	0x247
 2657 0251 03       		.uleb128 0x3
 2658 0252 E2040000 		.4byte	.LASF31
 2659 0256 05       		.byte	0x5
 2660 0257 58       		.byte	0x58
ARM GAS  C:\Users\kiwamu\AppData\Local\Temp\ccj1MWYe.s 			page 76


 2661 0258 EC010000 		.4byte	0x1ec
 2662 025c 0C       		.uleb128 0xc
 2663 025d 40       		.byte	0x40
 2664 025e 05       		.byte	0x5
 2665 025f 5D       		.byte	0x5d
 2666 0260 AD020000 		.4byte	0x2ad
 2667 0264 0D       		.uleb128 0xd
 2668 0265 61040000 		.4byte	.LASF23
 2669 0269 05       		.byte	0x5
 2670 026a 5E       		.byte	0x5e
 2671 026b B9000000 		.4byte	0xb9
 2672 026f 00       		.byte	0
 2673 0270 0D       		.uleb128 0xd
 2674 0271 D9020000 		.4byte	.LASF24
 2675 0275 05       		.byte	0x5
 2676 0276 5F       		.byte	0x5f
 2677 0277 B4000000 		.4byte	0xb4
 2678 027b 04       		.byte	0x4
 2679 027c 0D       		.uleb128 0xd
 2680 027d F6090000 		.4byte	.LASF25
 2681 0281 05       		.byte	0x5
 2682 0282 60       		.byte	0x60
 2683 0283 B2020000 		.4byte	0x2b2
 2684 0287 08       		.byte	0x8
 2685 0288 0D       		.uleb128 0xd
 2686 0289 67040000 		.4byte	.LASF26
 2687 028d 05       		.byte	0x5
 2688 028e 61       		.byte	0x61
 2689 028f B9000000 		.4byte	0xb9
 2690 0293 20       		.byte	0x20
 2691 0294 0D       		.uleb128 0xd
 2692 0295 810A0000 		.4byte	.LASF27
 2693 0299 05       		.byte	0x5
 2694 029a 62       		.byte	0x62
 2695 029b B4000000 		.4byte	0xb4
 2696 029f 24       		.byte	0x24
 2697 02a0 0D       		.uleb128 0xd
 2698 02a1 6D070000 		.4byte	.LASF28
 2699 02a5 05       		.byte	0x5
 2700 02a6 63       		.byte	0x63
 2701 02a7 BC020000 		.4byte	0x2bc
 2702 02ab 28       		.byte	0x28
 2703 02ac 00       		.byte	0
 2704 02ad 05       		.uleb128 0x5
 2705 02ae FC000000 		.4byte	0xfc
 2706 02b2 06       		.uleb128 0x6
 2707 02b3 AD020000 		.4byte	0x2ad
 2708 02b7 05       		.uleb128 0x5
 2709 02b8 FC000000 		.4byte	0xfc
 2710 02bc 06       		.uleb128 0x6
 2711 02bd B7020000 		.4byte	0x2b7
 2712 02c1 03       		.uleb128 0x3
 2713 02c2 510C0000 		.4byte	.LASF32
 2714 02c6 05       		.byte	0x5
 2715 02c7 64       		.byte	0x64
 2716 02c8 5C020000 		.4byte	0x25c
 2717 02cc 0C       		.uleb128 0xc
ARM GAS  C:\Users\kiwamu\AppData\Local\Temp\ccj1MWYe.s 			page 77


 2718 02cd 40       		.byte	0x40
 2719 02ce 06       		.byte	0x6
 2720 02cf 25       		.byte	0x25
 2721 02d0 1D030000 		.4byte	0x31d
 2722 02d4 0D       		.uleb128 0xd
 2723 02d5 61040000 		.4byte	.LASF23
 2724 02d9 06       		.byte	0x6
 2725 02da 26       		.byte	0x26
 2726 02db B4000000 		.4byte	0xb4
 2727 02df 00       		.byte	0
 2728 02e0 0D       		.uleb128 0xd
 2729 02e1 D9020000 		.4byte	.LASF24
 2730 02e5 06       		.byte	0x6
 2731 02e6 27       		.byte	0x27
 2732 02e7 B4000000 		.4byte	0xb4
 2733 02eb 04       		.byte	0x4
 2734 02ec 0D       		.uleb128 0xd
 2735 02ed F6090000 		.4byte	.LASF25
 2736 02f1 06       		.byte	0x6
 2737 02f2 28       		.byte	0x28
 2738 02f3 22030000 		.4byte	0x322
 2739 02f7 08       		.byte	0x8
 2740 02f8 0D       		.uleb128 0xd
 2741 02f9 67040000 		.4byte	.LASF26
 2742 02fd 06       		.byte	0x6
 2743 02fe 29       		.byte	0x29
 2744 02ff B9000000 		.4byte	0xb9
 2745 0303 20       		.byte	0x20
 2746 0304 0D       		.uleb128 0xd
 2747 0305 810A0000 		.4byte	.LASF27
 2748 0309 06       		.byte	0x6
 2749 030a 2A       		.byte	0x2a
 2750 030b B4000000 		.4byte	0xb4
 2751 030f 24       		.byte	0x24
 2752 0310 0D       		.uleb128 0xd
 2753 0311 6D070000 		.4byte	.LASF28
 2754 0315 06       		.byte	0x6
 2755 0316 2B       		.byte	0x2b
 2756 0317 2C030000 		.4byte	0x32c
 2757 031b 28       		.byte	0x28
 2758 031c 00       		.byte	0
 2759 031d 05       		.uleb128 0x5
 2760 031e FC000000 		.4byte	0xfc
 2761 0322 06       		.uleb128 0x6
 2762 0323 1D030000 		.4byte	0x31d
 2763 0327 05       		.uleb128 0x5
 2764 0328 FC000000 		.4byte	0xfc
 2765 032c 06       		.uleb128 0x6
 2766 032d 27030000 		.4byte	0x327
 2767 0331 03       		.uleb128 0x3
 2768 0332 92070000 		.4byte	.LASF33
 2769 0336 06       		.byte	0x6
 2770 0337 2C       		.byte	0x2c
 2771 0338 CC020000 		.4byte	0x2cc
 2772 033c 0E       		.uleb128 0xe
 2773 033d 0040     		.2byte	0x4000
 2774 033f 06       		.byte	0x6
ARM GAS  C:\Users\kiwamu\AppData\Local\Temp\ccj1MWYe.s 			page 78


 2775 0340 31       		.byte	0x31
 2776 0341 2C040000 		.4byte	0x42c
 2777 0345 0D       		.uleb128 0xd
 2778 0346 E2080000 		.4byte	.LASF34
 2779 034a 06       		.byte	0x6
 2780 034b 32       		.byte	0x32
 2781 034c B4000000 		.4byte	0xb4
 2782 0350 00       		.byte	0
 2783 0351 0D       		.uleb128 0xd
 2784 0352 F7030000 		.4byte	.LASF35
 2785 0356 06       		.byte	0x6
 2786 0357 33       		.byte	0x33
 2787 0358 B4000000 		.4byte	0xb4
 2788 035c 04       		.byte	0x4
 2789 035d 0D       		.uleb128 0xd
 2790 035e 110C0000 		.4byte	.LASF36
 2791 0362 06       		.byte	0x6
 2792 0363 34       		.byte	0x34
 2793 0364 B4000000 		.4byte	0xb4
 2794 0368 08       		.byte	0x8
 2795 0369 0D       		.uleb128 0xd
 2796 036a 73080000 		.4byte	.LASF37
 2797 036e 06       		.byte	0x6
 2798 036f 35       		.byte	0x35
 2799 0370 B4000000 		.4byte	0xb4
 2800 0374 0C       		.byte	0xc
 2801 0375 0D       		.uleb128 0xd
 2802 0376 82020000 		.4byte	.LASF38
 2803 037a 06       		.byte	0x6
 2804 037b 36       		.byte	0x36
 2805 037c B4000000 		.4byte	0xb4
 2806 0380 10       		.byte	0x10
 2807 0381 0D       		.uleb128 0xd
 2808 0382 DA0A0000 		.4byte	.LASF39
 2809 0386 06       		.byte	0x6
 2810 0387 37       		.byte	0x37
 2811 0388 B4000000 		.4byte	0xb4
 2812 038c 14       		.byte	0x14
 2813 038d 0D       		.uleb128 0xd
 2814 038e 95050000 		.4byte	.LASF40
 2815 0392 06       		.byte	0x6
 2816 0393 38       		.byte	0x38
 2817 0394 B4000000 		.4byte	0xb4
 2818 0398 18       		.byte	0x18
 2819 0399 0D       		.uleb128 0xd
 2820 039a 4D010000 		.4byte	.LASF41
 2821 039e 06       		.byte	0x6
 2822 039f 39       		.byte	0x39
 2823 03a0 B4000000 		.4byte	0xb4
 2824 03a4 1C       		.byte	0x1c
 2825 03a5 0D       		.uleb128 0xd
 2826 03a6 5A0A0000 		.4byte	.LASF42
 2827 03aa 06       		.byte	0x6
 2828 03ab 3A       		.byte	0x3a
 2829 03ac B4000000 		.4byte	0xb4
 2830 03b0 20       		.byte	0x20
 2831 03b1 0D       		.uleb128 0xd
ARM GAS  C:\Users\kiwamu\AppData\Local\Temp\ccj1MWYe.s 			page 79


 2832 03b2 35040000 		.4byte	.LASF43
 2833 03b6 06       		.byte	0x6
 2834 03b7 3B       		.byte	0x3b
 2835 03b8 B4000000 		.4byte	0xb4
 2836 03bc 24       		.byte	0x24
 2837 03bd 0D       		.uleb128 0xd
 2838 03be 12000000 		.4byte	.LASF44
 2839 03c2 06       		.byte	0x6
 2840 03c3 3C       		.byte	0x3c
 2841 03c4 B4000000 		.4byte	0xb4
 2842 03c8 28       		.byte	0x28
 2843 03c9 0D       		.uleb128 0xd
 2844 03ca 0E080000 		.4byte	.LASF45
 2845 03ce 06       		.byte	0x6
 2846 03cf 3D       		.byte	0x3d
 2847 03d0 B4000000 		.4byte	0xb4
 2848 03d4 2C       		.byte	0x2c
 2849 03d5 0D       		.uleb128 0xd
 2850 03d6 6A080000 		.4byte	.LASF46
 2851 03da 06       		.byte	0x6
 2852 03db 3E       		.byte	0x3e
 2853 03dc B4000000 		.4byte	0xb4
 2854 03e0 30       		.byte	0x30
 2855 03e1 0D       		.uleb128 0xd
 2856 03e2 140B0000 		.4byte	.LASF47
 2857 03e6 06       		.byte	0x6
 2858 03e7 3F       		.byte	0x3f
 2859 03e8 B4000000 		.4byte	0xb4
 2860 03ec 34       		.byte	0x34
 2861 03ed 0D       		.uleb128 0xd
 2862 03ee 5E060000 		.4byte	.LASF48
 2863 03f2 06       		.byte	0x6
 2864 03f3 40       		.byte	0x40
 2865 03f4 B4000000 		.4byte	0xb4
 2866 03f8 38       		.byte	0x38
 2867 03f9 0D       		.uleb128 0xd
 2868 03fa BD010000 		.4byte	.LASF49
 2869 03fe 06       		.byte	0x6
 2870 03ff 41       		.byte	0x41
 2871 0400 B4000000 		.4byte	0xb4
 2872 0404 3C       		.byte	0x3c
 2873 0405 0D       		.uleb128 0xd
 2874 0406 F6090000 		.4byte	.LASF25
 2875 040a 06       		.byte	0x6
 2876 040b 42       		.byte	0x42
 2877 040c 42040000 		.4byte	0x442
 2878 0410 40       		.byte	0x40
 2879 0411 0F       		.uleb128 0xf
 2880 0412 180A0000 		.4byte	.LASF50
 2881 0416 06       		.byte	0x6
 2882 0417 43       		.byte	0x43
 2883 0418 47040000 		.4byte	0x447
 2884 041c 0020     		.2byte	0x2000
 2885 041e 0F       		.uleb128 0xf
 2886 041f 6D070000 		.4byte	.LASF28
 2887 0423 06       		.byte	0x6
 2888 0424 44       		.byte	0x44
ARM GAS  C:\Users\kiwamu\AppData\Local\Temp\ccj1MWYe.s 			page 80


 2889 0425 6D040000 		.4byte	0x46d
 2890 0429 0028     		.2byte	0x2800
 2891 042b 00       		.byte	0
 2892 042c 0A       		.uleb128 0xa
 2893 042d B9000000 		.4byte	0xb9
 2894 0431 3D040000 		.4byte	0x43d
 2895 0435 10       		.uleb128 0x10
 2896 0436 AD000000 		.4byte	0xad
 2897 043a EF07     		.2byte	0x7ef
 2898 043c 00       		.byte	0
 2899 043d 05       		.uleb128 0x5
 2900 043e 2C040000 		.4byte	0x42c
 2901 0442 06       		.uleb128 0x6
 2902 0443 3D040000 		.4byte	0x43d
 2903 0447 0A       		.uleb128 0xa
 2904 0448 31030000 		.4byte	0x331
 2905 044c 57040000 		.4byte	0x457
 2906 0450 0B       		.uleb128 0xb
 2907 0451 AD000000 		.4byte	0xad
 2908 0455 1F       		.byte	0x1f
 2909 0456 00       		.byte	0
 2910 0457 0A       		.uleb128 0xa
 2911 0458 B9000000 		.4byte	0xb9
 2912 045c 68040000 		.4byte	0x468
 2913 0460 10       		.uleb128 0x10
 2914 0461 AD000000 		.4byte	0xad
 2915 0465 FF05     		.2byte	0x5ff
 2916 0467 00       		.byte	0
 2917 0468 05       		.uleb128 0x5
 2918 0469 57040000 		.4byte	0x457
 2919 046d 06       		.uleb128 0x6
 2920 046e 68040000 		.4byte	0x468
 2921 0472 03       		.uleb128 0x3
 2922 0473 620A0000 		.4byte	.LASF51
 2923 0477 06       		.byte	0x6
 2924 0478 45       		.byte	0x45
 2925 0479 3C030000 		.4byte	0x33c
 2926 047d 0C       		.uleb128 0xc
 2927 047e 20       		.byte	0x20
 2928 047f 06       		.byte	0x6
 2929 0480 4A       		.byte	0x4a
 2930 0481 AA040000 		.4byte	0x4aa
 2931 0485 0D       		.uleb128 0xd
 2932 0486 55010000 		.4byte	.LASF52
 2933 048a 06       		.byte	0x6
 2934 048b 4B       		.byte	0x4b
 2935 048c B4000000 		.4byte	0xb4
 2936 0490 00       		.byte	0
 2937 0491 11       		.uleb128 0x11
 2938 0492 41545400 		.ascii	"ATT\000"
 2939 0496 06       		.byte	0x6
 2940 0497 4C       		.byte	0x4c
 2941 0498 B4000000 		.4byte	0xb4
 2942 049c 04       		.byte	0x4
 2943 049d 0D       		.uleb128 0xd
 2944 049e F6090000 		.4byte	.LASF25
 2945 04a2 06       		.byte	0x6
ARM GAS  C:\Users\kiwamu\AppData\Local\Temp\ccj1MWYe.s 			page 81


 2946 04a3 4D       		.byte	0x4d
 2947 04a4 AF040000 		.4byte	0x4af
 2948 04a8 08       		.byte	0x8
 2949 04a9 00       		.byte	0
 2950 04aa 05       		.uleb128 0x5
 2951 04ab FC000000 		.4byte	0xfc
 2952 04af 06       		.uleb128 0x6
 2953 04b0 AA040000 		.4byte	0x4aa
 2954 04b4 03       		.uleb128 0x3
 2955 04b5 8A020000 		.4byte	.LASF53
 2956 04b9 06       		.byte	0x6
 2957 04ba 4E       		.byte	0x4e
 2958 04bb 7D040000 		.4byte	0x47d
 2959 04bf 0E       		.uleb128 0xe
 2960 04c0 0004     		.2byte	0x400
 2961 04c2 06       		.byte	0x6
 2962 04c3 53       		.byte	0x53
 2963 04c4 EE040000 		.4byte	0x4ee
 2964 04c8 0D       		.uleb128 0xd
 2965 04c9 26060000 		.4byte	.LASF54
 2966 04cd 06       		.byte	0x6
 2967 04ce 54       		.byte	0x54
 2968 04cf B4000000 		.4byte	0xb4
 2969 04d3 00       		.byte	0
 2970 04d4 0D       		.uleb128 0xd
 2971 04d5 F6090000 		.4byte	.LASF25
 2972 04d9 06       		.byte	0x6
 2973 04da 55       		.byte	0x55
 2974 04db 03050000 		.4byte	0x503
 2975 04df 04       		.byte	0x4
 2976 04e0 0F       		.uleb128 0xf
 2977 04e1 F1020000 		.4byte	.LASF55
 2978 04e5 06       		.byte	0x6
 2979 04e6 56       		.byte	0x56
 2980 04e7 08050000 		.4byte	0x508
 2981 04eb 0002     		.2byte	0x200
 2982 04ed 00       		.byte	0
 2983 04ee 0A       		.uleb128 0xa
 2984 04ef B9000000 		.4byte	0xb9
 2985 04f3 FE040000 		.4byte	0x4fe
 2986 04f7 0B       		.uleb128 0xb
 2987 04f8 AD000000 		.4byte	0xad
 2988 04fc 7E       		.byte	0x7e
 2989 04fd 00       		.byte	0
 2990 04fe 05       		.uleb128 0x5
 2991 04ff EE040000 		.4byte	0x4ee
 2992 0503 06       		.uleb128 0x6
 2993 0504 FE040000 		.4byte	0x4fe
 2994 0508 0A       		.uleb128 0xa
 2995 0509 B4040000 		.4byte	0x4b4
 2996 050d 18050000 		.4byte	0x518
 2997 0511 0B       		.uleb128 0xb
 2998 0512 AD000000 		.4byte	0xad
 2999 0516 0F       		.byte	0xf
 3000 0517 00       		.byte	0
 3001 0518 03       		.uleb128 0x3
 3002 0519 56050000 		.4byte	.LASF56
ARM GAS  C:\Users\kiwamu\AppData\Local\Temp\ccj1MWYe.s 			page 82


 3003 051d 06       		.byte	0x6
 3004 051e 57       		.byte	0x57
 3005 051f BF040000 		.4byte	0x4bf
 3006 0523 0E       		.uleb128 0xe
 3007 0524 0080     		.2byte	0x8000
 3008 0526 06       		.byte	0x6
 3009 0527 5C       		.byte	0x5c
 3010 0528 46050000 		.4byte	0x546
 3011 052c 0D       		.uleb128 0xd
 3012 052d 39010000 		.4byte	.LASF57
 3013 0531 06       		.byte	0x6
 3014 0532 5D       		.byte	0x5d
 3015 0533 72040000 		.4byte	0x472
 3016 0537 00       		.byte	0
 3017 0538 0F       		.uleb128 0xf
 3018 0539 20060000 		.4byte	.LASF58
 3019 053d 06       		.byte	0x6
 3020 053e 5E       		.byte	0x5e
 3021 053f 46050000 		.4byte	0x546
 3022 0543 0040     		.2byte	0x4000
 3023 0545 00       		.byte	0
 3024 0546 0A       		.uleb128 0xa
 3025 0547 18050000 		.4byte	0x518
 3026 054b 56050000 		.4byte	0x556
 3027 054f 0B       		.uleb128 0xb
 3028 0550 AD000000 		.4byte	0xad
 3029 0554 0F       		.byte	0xf
 3030 0555 00       		.byte	0
 3031 0556 03       		.uleb128 0x3
 3032 0557 9A010000 		.4byte	.LASF59
 3033 055b 06       		.byte	0x6
 3034 055c 5F       		.byte	0x5f
 3035 055d 23050000 		.4byte	0x523
 3036 0561 02       		.uleb128 0x2
 3037 0562 01       		.byte	0x1
 3038 0563 08       		.byte	0x8
 3039 0564 CF090000 		.4byte	.LASF60
 3040 0568 02       		.uleb128 0x2
 3041 0569 04       		.byte	0x4
 3042 056a 04       		.byte	0x4
 3043 056b 270B0000 		.4byte	.LASF61
 3044 056f 02       		.uleb128 0x2
 3045 0570 08       		.byte	0x8
 3046 0571 04       		.byte	0x4
 3047 0572 7B020000 		.4byte	.LASF62
 3048 0576 12       		.uleb128 0x12
 3049 0577 04       		.byte	0x4
 3050 0578 85000000 		.4byte	0x85
 3051 057c 07       		.byte	0x7
 3052 057d AE       		.byte	0xae
 3053 057e 9B050000 		.4byte	0x59b
 3054 0582 08       		.uleb128 0x8
 3055 0583 C3030000 		.4byte	.LASF63
 3056 0587 00       		.byte	0
 3057 0588 13       		.uleb128 0x13
 3058 0589 2F000000 		.4byte	.LASF64
 3059 058d 0100C200 		.4byte	0xc20001
ARM GAS  C:\Users\kiwamu\AppData\Local\Temp\ccj1MWYe.s 			page 83


 3060 0591 13       		.uleb128 0x13
 3061 0592 4A0A0000 		.4byte	.LASF65
 3062 0596 0300C200 		.4byte	0xc20003
 3063 059a 00       		.byte	0
 3064 059b 03       		.uleb128 0x3
 3065 059c BB090000 		.4byte	.LASF66
 3066 05a0 07       		.byte	0x7
 3067 05a1 B2       		.byte	0xb2
 3068 05a2 76050000 		.4byte	0x576
 3069 05a6 12       		.uleb128 0x12
 3070 05a7 01       		.byte	0x1
 3071 05a8 37000000 		.4byte	0x37
 3072 05ac 07       		.byte	0x7
 3073 05ad B8       		.byte	0xb8
 3074 05ae E3050000 		.4byte	0x5e3
 3075 05b2 08       		.uleb128 0x8
 3076 05b3 47030000 		.4byte	.LASF67
 3077 05b7 00       		.byte	0
 3078 05b8 08       		.uleb128 0x8
 3079 05b9 3E010000 		.4byte	.LASF68
 3080 05bd 01       		.byte	0x1
 3081 05be 08       		.uleb128 0x8
 3082 05bf C3000000 		.4byte	.LASF69
 3083 05c3 02       		.byte	0x2
 3084 05c4 08       		.uleb128 0x8
 3085 05c5 860A0000 		.4byte	.LASF70
 3086 05c9 03       		.byte	0x3
 3087 05ca 08       		.uleb128 0x8
 3088 05cb 15070000 		.4byte	.LASF71
 3089 05cf 04       		.byte	0x4
 3090 05d0 08       		.uleb128 0x8
 3091 05d1 960A0000 		.4byte	.LASF72
 3092 05d5 05       		.byte	0x5
 3093 05d6 08       		.uleb128 0x8
 3094 05d7 9D050000 		.4byte	.LASF73
 3095 05db 06       		.byte	0x6
 3096 05dc 08       		.uleb128 0x8
 3097 05dd 28010000 		.4byte	.LASF74
 3098 05e1 07       		.byte	0x7
 3099 05e2 00       		.byte	0
 3100 05e3 03       		.uleb128 0x3
 3101 05e4 7D0B0000 		.4byte	.LASF75
 3102 05e8 07       		.byte	0x7
 3103 05e9 C1       		.byte	0xc1
 3104 05ea A6050000 		.4byte	0x5a6
 3105 05ee 12       		.uleb128 0x12
 3106 05ef 01       		.byte	0x1
 3107 05f0 37000000 		.4byte	0x37
 3108 05f4 07       		.byte	0x7
 3109 05f5 C7       		.byte	0xc7
 3110 05f6 91060000 		.4byte	0x691
 3111 05fa 08       		.uleb128 0x8
 3112 05fb 88010000 		.4byte	.LASF76
 3113 05ff 07       		.byte	0x7
 3114 0600 08       		.uleb128 0x8
 3115 0601 00000000 		.4byte	.LASF77
 3116 0605 08       		.byte	0x8
ARM GAS  C:\Users\kiwamu\AppData\Local\Temp\ccj1MWYe.s 			page 84


 3117 0606 08       		.uleb128 0x8
 3118 0607 33050000 		.4byte	.LASF78
 3119 060b 09       		.byte	0x9
 3120 060c 08       		.uleb128 0x8
 3121 060d A3020000 		.4byte	.LASF79
 3122 0611 0A       		.byte	0xa
 3123 0612 08       		.uleb128 0x8
 3124 0613 030B0000 		.4byte	.LASF80
 3125 0617 0B       		.byte	0xb
 3126 0618 08       		.uleb128 0x8
 3127 0619 FD010000 		.4byte	.LASF81
 3128 061d 0C       		.byte	0xc
 3129 061e 08       		.uleb128 0x8
 3130 061f 44050000 		.4byte	.LASF82
 3131 0623 0D       		.byte	0xd
 3132 0624 08       		.uleb128 0x8
 3133 0625 D3030000 		.4byte	.LASF83
 3134 0629 0E       		.byte	0xe
 3135 062a 08       		.uleb128 0x8
 3136 062b FF030000 		.4byte	.LASF84
 3137 062f 0F       		.byte	0xf
 3138 0630 08       		.uleb128 0x8
 3139 0631 21080000 		.4byte	.LASF85
 3140 0635 10       		.byte	0x10
 3141 0636 08       		.uleb128 0x8
 3142 0637 A5030000 		.4byte	.LASF86
 3143 063b 11       		.byte	0x11
 3144 063c 08       		.uleb128 0x8
 3145 063d 22040000 		.4byte	.LASF87
 3146 0641 12       		.byte	0x12
 3147 0642 08       		.uleb128 0x8
 3148 0643 B2080000 		.4byte	.LASF88
 3149 0647 13       		.byte	0x13
 3150 0648 08       		.uleb128 0x8
 3151 0649 2D060000 		.4byte	.LASF89
 3152 064d 14       		.byte	0x14
 3153 064e 08       		.uleb128 0x8
 3154 064f AD070000 		.4byte	.LASF90
 3155 0653 15       		.byte	0x15
 3156 0654 08       		.uleb128 0x8
 3157 0655 22050000 		.4byte	.LASF91
 3158 0659 16       		.byte	0x16
 3159 065a 08       		.uleb128 0x8
 3160 065b 34080000 		.4byte	.LASF92
 3161 065f 17       		.byte	0x17
 3162 0660 08       		.uleb128 0x8
 3163 0661 5B070000 		.4byte	.LASF93
 3164 0665 18       		.byte	0x18
 3165 0666 08       		.uleb128 0x8
 3166 0667 E90A0000 		.4byte	.LASF94
 3167 066b 19       		.byte	0x19
 3168 066c 08       		.uleb128 0x8
 3169 066d 6A0B0000 		.4byte	.LASF95
 3170 0671 1A       		.byte	0x1a
 3171 0672 08       		.uleb128 0x8
 3172 0673 02070000 		.4byte	.LASF96
 3173 0677 1B       		.byte	0x1b
ARM GAS  C:\Users\kiwamu\AppData\Local\Temp\ccj1MWYe.s 			page 85


 3174 0678 08       		.uleb128 0x8
 3175 0679 570B0000 		.4byte	.LASF97
 3176 067d 1C       		.byte	0x1c
 3177 067e 08       		.uleb128 0x8
 3178 067f 460B0000 		.4byte	.LASF98
 3179 0683 1D       		.byte	0x1d
 3180 0684 08       		.uleb128 0x8
 3181 0685 18090000 		.4byte	.LASF99
 3182 0689 1E       		.byte	0x1e
 3183 068a 08       		.uleb128 0x8
 3184 068b 11040000 		.4byte	.LASF100
 3185 068f 1F       		.byte	0x1f
 3186 0690 00       		.byte	0
 3187 0691 03       		.uleb128 0x3
 3188 0692 7B080000 		.4byte	.LASF101
 3189 0696 07       		.byte	0x7
 3190 0697 E1       		.byte	0xe1
 3191 0698 EE050000 		.4byte	0x5ee
 3192 069c 14       		.uleb128 0x14
 3193 069d 0C       		.byte	0xc
 3194 069e 07       		.byte	0x7
 3195 069f 9201     		.2byte	0x192
 3196 06a1 F4060000 		.4byte	0x6f4
 3197 06a5 15       		.uleb128 0x15
 3198 06a6 18060000 		.4byte	.LASF102
 3199 06aa 07       		.byte	0x7
 3200 06ab 9401     		.2byte	0x194
 3201 06ad F4060000 		.4byte	0x6f4
 3202 06b1 00       		.byte	0
 3203 06b2 15       		.uleb128 0x15
 3204 06b3 3E0C0000 		.4byte	.LASF103
 3205 06b7 07       		.byte	0x7
 3206 06b8 9501     		.2byte	0x195
 3207 06ba 91060000 		.4byte	0x691
 3208 06be 04       		.byte	0x4
 3209 06bf 15       		.uleb128 0x15
 3210 06c0 8F0B0000 		.4byte	.LASF104
 3211 06c4 07       		.byte	0x7
 3212 06c5 9601     		.2byte	0x196
 3213 06c7 8C000000 		.4byte	0x8c
 3214 06cb 05       		.byte	0x5
 3215 06cc 15       		.uleb128 0x15
 3216 06cd 09060000 		.4byte	.LASF105
 3217 06d1 07       		.byte	0x7
 3218 06d2 9701     		.2byte	0x197
 3219 06d4 E3050000 		.4byte	0x5e3
 3220 06d8 06       		.byte	0x6
 3221 06d9 15       		.uleb128 0x15
 3222 06da CF060000 		.4byte	.LASF106
 3223 06de 07       		.byte	0x7
 3224 06df 9801     		.2byte	0x198
 3225 06e1 E3050000 		.4byte	0x5e3
 3226 06e5 07       		.byte	0x7
 3227 06e6 15       		.uleb128 0x15
 3228 06e7 8B070000 		.4byte	.LASF107
 3229 06eb 07       		.byte	0x7
 3230 06ec 9901     		.2byte	0x199
ARM GAS  C:\Users\kiwamu\AppData\Local\Temp\ccj1MWYe.s 			page 86


 3231 06ee FA060000 		.4byte	0x6fa
 3232 06f2 08       		.byte	0x8
 3233 06f3 00       		.byte	0
 3234 06f4 16       		.uleb128 0x16
 3235 06f5 04       		.byte	0x4
 3236 06f6 A2000000 		.4byte	0xa2
 3237 06fa 02       		.uleb128 0x2
 3238 06fb 01       		.byte	0x1
 3239 06fc 02       		.byte	0x2
 3240 06fd E2070000 		.4byte	.LASF108
 3241 0701 09       		.uleb128 0x9
 3242 0702 3D040000 		.4byte	.LASF109
 3243 0706 07       		.byte	0x7
 3244 0707 9A01     		.2byte	0x19a
 3245 0709 9C060000 		.4byte	0x69c
 3246 070d 14       		.uleb128 0x14
 3247 070e 0C       		.byte	0xc
 3248 070f 07       		.byte	0x7
 3249 0710 9D01     		.2byte	0x19d
 3250 0712 7F070000 		.4byte	0x77f
 3251 0716 15       		.uleb128 0x15
 3252 0717 18060000 		.4byte	.LASF102
 3253 071b 07       		.byte	0x7
 3254 071c 9F01     		.2byte	0x19f
 3255 071e F4060000 		.4byte	0x6f4
 3256 0722 00       		.byte	0
 3257 0723 15       		.uleb128 0x15
 3258 0724 3E0C0000 		.4byte	.LASF103
 3259 0728 07       		.byte	0x7
 3260 0729 A001     		.2byte	0x1a0
 3261 072b 91060000 		.4byte	0x691
 3262 072f 04       		.byte	0x4
 3263 0730 15       		.uleb128 0x15
 3264 0731 8F0B0000 		.4byte	.LASF104
 3265 0735 07       		.byte	0x7
 3266 0736 A101     		.2byte	0x1a1
 3267 0738 8C000000 		.4byte	0x8c
 3268 073c 05       		.byte	0x5
 3269 073d 15       		.uleb128 0x15
 3270 073e 09060000 		.4byte	.LASF105
 3271 0742 07       		.byte	0x7
 3272 0743 A201     		.2byte	0x1a2
 3273 0745 E3050000 		.4byte	0x5e3
 3274 0749 06       		.byte	0x6
 3275 074a 15       		.uleb128 0x15
 3276 074b CF060000 		.4byte	.LASF106
 3277 074f 07       		.byte	0x7
 3278 0750 A301     		.2byte	0x1a3
 3279 0752 E3050000 		.4byte	0x5e3
 3280 0756 07       		.byte	0x7
 3281 0757 15       		.uleb128 0x15
 3282 0758 8B070000 		.4byte	.LASF107
 3283 075c 07       		.byte	0x7
 3284 075d A401     		.2byte	0x1a4
 3285 075f FA060000 		.4byte	0x6fa
 3286 0763 08       		.byte	0x8
 3287 0764 15       		.uleb128 0x15
ARM GAS  C:\Users\kiwamu\AppData\Local\Temp\ccj1MWYe.s 			page 87


 3288 0765 490C0000 		.4byte	.LASF110
 3289 0769 07       		.byte	0x7
 3290 076a A501     		.2byte	0x1a5
 3291 076c FA060000 		.4byte	0x6fa
 3292 0770 09       		.byte	0x9
 3293 0771 15       		.uleb128 0x15
 3294 0772 5A020000 		.4byte	.LASF111
 3295 0776 07       		.byte	0x7
 3296 0777 A601     		.2byte	0x1a6
 3297 0779 97000000 		.4byte	0x97
 3298 077d 0A       		.byte	0xa
 3299 077e 00       		.byte	0
 3300 077f 09       		.uleb128 0x9
 3301 0780 060A0000 		.4byte	.LASF112
 3302 0784 07       		.byte	0x7
 3303 0785 A701     		.2byte	0x1a7
 3304 0787 0D070000 		.4byte	0x70d
 3305 078b 14       		.uleb128 0x14
 3306 078c 0C       		.byte	0xc
 3307 078d 07       		.byte	0x7
 3308 078e AA01     		.2byte	0x1aa
 3309 0790 FD070000 		.4byte	0x7fd
 3310 0794 15       		.uleb128 0x15
 3311 0795 18060000 		.4byte	.LASF102
 3312 0799 07       		.byte	0x7
 3313 079a AC01     		.2byte	0x1ac
 3314 079c F4060000 		.4byte	0x6f4
 3315 07a0 00       		.byte	0
 3316 07a1 15       		.uleb128 0x15
 3317 07a2 3E0C0000 		.4byte	.LASF103
 3318 07a6 07       		.byte	0x7
 3319 07a7 AD01     		.2byte	0x1ad
 3320 07a9 91060000 		.4byte	0x691
 3321 07ad 04       		.byte	0x4
 3322 07ae 15       		.uleb128 0x15
 3323 07af 8F0B0000 		.4byte	.LASF104
 3324 07b3 07       		.byte	0x7
 3325 07b4 AE01     		.2byte	0x1ae
 3326 07b6 8C000000 		.4byte	0x8c
 3327 07ba 05       		.byte	0x5
 3328 07bb 15       		.uleb128 0x15
 3329 07bc 09060000 		.4byte	.LASF105
 3330 07c0 07       		.byte	0x7
 3331 07c1 AF01     		.2byte	0x1af
 3332 07c3 E3050000 		.4byte	0x5e3
 3333 07c7 06       		.byte	0x6
 3334 07c8 15       		.uleb128 0x15
 3335 07c9 CF060000 		.4byte	.LASF106
 3336 07cd 07       		.byte	0x7
 3337 07ce B001     		.2byte	0x1b0
 3338 07d0 E3050000 		.4byte	0x5e3
 3339 07d4 07       		.byte	0x7
 3340 07d5 15       		.uleb128 0x15
 3341 07d6 8B070000 		.4byte	.LASF107
 3342 07da 07       		.byte	0x7
 3343 07db B101     		.2byte	0x1b1
 3344 07dd FA060000 		.4byte	0x6fa
ARM GAS  C:\Users\kiwamu\AppData\Local\Temp\ccj1MWYe.s 			page 88


 3345 07e1 08       		.byte	0x8
 3346 07e2 15       		.uleb128 0x15
 3347 07e3 490C0000 		.4byte	.LASF110
 3348 07e7 07       		.byte	0x7
 3349 07e8 B201     		.2byte	0x1b2
 3350 07ea FA060000 		.4byte	0x6fa
 3351 07ee 09       		.byte	0x9
 3352 07ef 15       		.uleb128 0x15
 3353 07f0 5A020000 		.4byte	.LASF111
 3354 07f4 07       		.byte	0x7
 3355 07f5 B301     		.2byte	0x1b3
 3356 07f7 97000000 		.4byte	0x97
 3357 07fb 0A       		.byte	0xa
 3358 07fc 00       		.byte	0
 3359 07fd 09       		.uleb128 0x9
 3360 07fe 82030000 		.4byte	.LASF113
 3361 0802 07       		.byte	0x7
 3362 0803 B401     		.2byte	0x1b4
 3363 0805 8B070000 		.4byte	0x78b
 3364 0809 14       		.uleb128 0x14
 3365 080a 06       		.byte	0x6
 3366 080b 07       		.byte	0x7
 3367 080c B701     		.2byte	0x1b7
 3368 080e 54080000 		.4byte	0x854
 3369 0812 15       		.uleb128 0x15
 3370 0813 09060000 		.4byte	.LASF105
 3371 0817 07       		.byte	0x7
 3372 0818 B901     		.2byte	0x1b9
 3373 081a E3050000 		.4byte	0x5e3
 3374 081e 00       		.byte	0
 3375 081f 15       		.uleb128 0x15
 3376 0820 CF060000 		.4byte	.LASF106
 3377 0824 07       		.byte	0x7
 3378 0825 BA01     		.2byte	0x1ba
 3379 0827 E3050000 		.4byte	0x5e3
 3380 082b 01       		.byte	0x1
 3381 082c 15       		.uleb128 0x15
 3382 082d 8B070000 		.4byte	.LASF107
 3383 0831 07       		.byte	0x7
 3384 0832 BB01     		.2byte	0x1bb
 3385 0834 FA060000 		.4byte	0x6fa
 3386 0838 02       		.byte	0x2
 3387 0839 15       		.uleb128 0x15
 3388 083a 490C0000 		.4byte	.LASF110
 3389 083e 07       		.byte	0x7
 3390 083f BC01     		.2byte	0x1bc
 3391 0841 FA060000 		.4byte	0x6fa
 3392 0845 03       		.byte	0x3
 3393 0846 15       		.uleb128 0x15
 3394 0847 5A020000 		.4byte	.LASF111
 3395 084b 07       		.byte	0x7
 3396 084c BD01     		.2byte	0x1bd
 3397 084e 97000000 		.4byte	0x97
 3398 0852 04       		.byte	0x4
 3399 0853 00       		.byte	0
 3400 0854 09       		.uleb128 0x9
 3401 0855 1B000000 		.4byte	.LASF114
ARM GAS  C:\Users\kiwamu\AppData\Local\Temp\ccj1MWYe.s 			page 89


 3402 0859 07       		.byte	0x7
 3403 085a BE01     		.2byte	0x1be
 3404 085c 09080000 		.4byte	0x809
 3405 0860 14       		.uleb128 0x14
 3406 0861 06       		.byte	0x6
 3407 0862 07       		.byte	0x7
 3408 0863 C101     		.2byte	0x1c1
 3409 0865 AB080000 		.4byte	0x8ab
 3410 0869 15       		.uleb128 0x15
 3411 086a 09060000 		.4byte	.LASF105
 3412 086e 07       		.byte	0x7
 3413 086f C301     		.2byte	0x1c3
 3414 0871 E3050000 		.4byte	0x5e3
 3415 0875 00       		.byte	0
 3416 0876 15       		.uleb128 0x15
 3417 0877 CF060000 		.4byte	.LASF106
 3418 087b 07       		.byte	0x7
 3419 087c C401     		.2byte	0x1c4
 3420 087e E3050000 		.4byte	0x5e3
 3421 0882 01       		.byte	0x1
 3422 0883 15       		.uleb128 0x15
 3423 0884 8B070000 		.4byte	.LASF107
 3424 0888 07       		.byte	0x7
 3425 0889 C501     		.2byte	0x1c5
 3426 088b FA060000 		.4byte	0x6fa
 3427 088f 02       		.byte	0x2
 3428 0890 15       		.uleb128 0x15
 3429 0891 490C0000 		.4byte	.LASF110
 3430 0895 07       		.byte	0x7
 3431 0896 C601     		.2byte	0x1c6
 3432 0898 FA060000 		.4byte	0x6fa
 3433 089c 03       		.byte	0x3
 3434 089d 15       		.uleb128 0x15
 3435 089e 5A020000 		.4byte	.LASF111
 3436 08a2 07       		.byte	0x7
 3437 08a3 C701     		.2byte	0x1c7
 3438 08a5 97000000 		.4byte	0x97
 3439 08a9 04       		.byte	0x4
 3440 08aa 00       		.byte	0
 3441 08ab 09       		.uleb128 0x9
 3442 08ac 77070000 		.4byte	.LASF115
 3443 08b0 07       		.byte	0x7
 3444 08b1 C801     		.2byte	0x1c8
 3445 08b3 60080000 		.4byte	0x860
 3446 08b7 14       		.uleb128 0x14
 3447 08b8 06       		.byte	0x6
 3448 08b9 07       		.byte	0x7
 3449 08ba CB01     		.2byte	0x1cb
 3450 08bc 02090000 		.4byte	0x902
 3451 08c0 15       		.uleb128 0x15
 3452 08c1 09060000 		.4byte	.LASF105
 3453 08c5 07       		.byte	0x7
 3454 08c6 CD01     		.2byte	0x1cd
 3455 08c8 E3050000 		.4byte	0x5e3
 3456 08cc 00       		.byte	0
 3457 08cd 15       		.uleb128 0x15
 3458 08ce CF060000 		.4byte	.LASF106
ARM GAS  C:\Users\kiwamu\AppData\Local\Temp\ccj1MWYe.s 			page 90


 3459 08d2 07       		.byte	0x7
 3460 08d3 CE01     		.2byte	0x1ce
 3461 08d5 E3050000 		.4byte	0x5e3
 3462 08d9 01       		.byte	0x1
 3463 08da 15       		.uleb128 0x15
 3464 08db 8B070000 		.4byte	.LASF107
 3465 08df 07       		.byte	0x7
 3466 08e0 CF01     		.2byte	0x1cf
 3467 08e2 FA060000 		.4byte	0x6fa
 3468 08e6 02       		.byte	0x2
 3469 08e7 15       		.uleb128 0x15
 3470 08e8 490C0000 		.4byte	.LASF110
 3471 08ec 07       		.byte	0x7
 3472 08ed D001     		.2byte	0x1d0
 3473 08ef FA060000 		.4byte	0x6fa
 3474 08f3 03       		.byte	0x3
 3475 08f4 15       		.uleb128 0x15
 3476 08f5 5A020000 		.4byte	.LASF111
 3477 08f9 07       		.byte	0x7
 3478 08fa D101     		.2byte	0x1d1
 3479 08fc 97000000 		.4byte	0x97
 3480 0900 04       		.byte	0x4
 3481 0901 00       		.byte	0
 3482 0902 09       		.uleb128 0x9
 3483 0903 41000000 		.4byte	.LASF116
 3484 0907 07       		.byte	0x7
 3485 0908 D201     		.2byte	0x1d2
 3486 090a B7080000 		.4byte	0x8b7
 3487 090e 17       		.uleb128 0x17
 3488 090f A7060000 		.4byte	.LASF122
 3489 0913 01       		.byte	0x1
 3490 0914 39       		.byte	0x39
 3491 0915 9B050000 		.4byte	0x59b
 3492 0919 00000000 		.4byte	.LFB34
 3493 091d 38000000 		.4byte	.LFE34-.LFB34
 3494 0921 01       		.uleb128 0x1
 3495 0922 9C       		.byte	0x9c
 3496 0923 91090000 		.4byte	0x991
 3497 0927 18       		.uleb128 0x18
 3498 0928 64050000 		.4byte	.LASF117
 3499 092c 01       		.byte	0x1
 3500 092d 39       		.byte	0x39
 3501 092e F0000000 		.4byte	0xf0
 3502 0932 00000000 		.4byte	.LLST0
 3503 0936 18       		.uleb128 0x18
 3504 0937 B8030000 		.4byte	.LASF118
 3505 093b 01       		.byte	0x1
 3506 093c 39       		.byte	0x39
 3507 093d FA060000 		.4byte	0x6fa
 3508 0941 21000000 		.4byte	.LLST1
 3509 0945 18       		.uleb128 0x18
 3510 0946 8B070000 		.4byte	.LASF107
 3511 094a 01       		.byte	0x1
 3512 094b 39       		.byte	0x39
 3513 094c FA060000 		.4byte	0x6fa
 3514 0950 5B000000 		.4byte	.LLST2
 3515 0954 18       		.uleb128 0x18
ARM GAS  C:\Users\kiwamu\AppData\Local\Temp\ccj1MWYe.s 			page 91


 3516 0955 5A020000 		.4byte	.LASF111
 3517 0959 01       		.byte	0x1
 3518 095a 39       		.byte	0x39
 3519 095b A2000000 		.4byte	0xa2
 3520 095f 95000000 		.4byte	.LLST3
 3521 0963 19       		.uleb128 0x19
 3522 0964 E20A0000 		.4byte	.LASF119
 3523 0968 01       		.byte	0x1
 3524 0969 3B       		.byte	0x3b
 3525 096a 9B050000 		.4byte	0x59b
 3526 096e CF000000 		.4byte	.LLST4
 3527 0972 19       		.uleb128 0x19
 3528 0973 1B050000 		.4byte	.LASF120
 3529 0977 01       		.byte	0x1
 3530 0978 3C       		.byte	0x3c
 3531 0979 A2000000 		.4byte	0xa2
 3532 097d EE000000 		.4byte	.LLST5
 3533 0981 19       		.uleb128 0x19
 3534 0982 1D0B0000 		.4byte	.LASF121
 3535 0986 01       		.byte	0x1
 3536 0987 3D       		.byte	0x3d
 3537 0988 F4060000 		.4byte	0x6f4
 3538 098c 01010000 		.4byte	.LLST6
 3539 0990 00       		.byte	0
 3540 0991 17       		.uleb128 0x17
 3541 0992 CE040000 		.4byte	.LASF123
 3542 0996 01       		.byte	0x1
 3543 0997 6B       		.byte	0x6b
 3544 0998 9B050000 		.4byte	0x59b
 3545 099c 00000000 		.4byte	.LFB35
 3546 09a0 40000000 		.4byte	.LFE35-.LFB35
 3547 09a4 01       		.uleb128 0x1
 3548 09a5 9C       		.byte	0x9c
 3549 09a6 E4090000 		.4byte	0x9e4
 3550 09aa 18       		.uleb128 0x18
 3551 09ab 64050000 		.4byte	.LASF117
 3552 09af 01       		.byte	0x1
 3553 09b0 6B       		.byte	0x6b
 3554 09b1 F0000000 		.4byte	0xf0
 3555 09b5 1F010000 		.4byte	.LLST7
 3556 09b9 1A       		.uleb128 0x1a
 3557 09ba 706300   		.ascii	"pc\000"
 3558 09bd 01       		.byte	0x1
 3559 09be 6B       		.byte	0x6b
 3560 09bf A2000000 		.4byte	0xa2
 3561 09c3 01       		.uleb128 0x1
 3562 09c4 51       		.byte	0x51
 3563 09c5 19       		.uleb128 0x19
 3564 09c6 E20A0000 		.4byte	.LASF119
 3565 09ca 01       		.byte	0x1
 3566 09cb 6D       		.byte	0x6d
 3567 09cc 9B050000 		.4byte	0x59b
 3568 09d0 40010000 		.4byte	.LLST8
 3569 09d4 19       		.uleb128 0x19
 3570 09d5 DE020000 		.4byte	.LASF124
 3571 09d9 01       		.byte	0x1
 3572 09da 6E       		.byte	0x6e
ARM GAS  C:\Users\kiwamu\AppData\Local\Temp\ccj1MWYe.s 			page 92


 3573 09db E4090000 		.4byte	0x9e4
 3574 09df 5F010000 		.4byte	.LLST9
 3575 09e3 00       		.byte	0
 3576 09e4 16       		.uleb128 0x16
 3577 09e5 04       		.byte	0x4
 3578 09e6 18050000 		.4byte	0x518
 3579 09ea 17       		.uleb128 0x17
 3580 09eb 5A010000 		.4byte	.LASF125
 3581 09ef 01       		.byte	0x1
 3582 09f0 8D       		.byte	0x8d
 3583 09f1 A2000000 		.4byte	0xa2
 3584 09f5 00000000 		.4byte	.LFB36
 3585 09f9 14000000 		.4byte	.LFE36-.LFB36
 3586 09fd 01       		.uleb128 0x1
 3587 09fe 9C       		.byte	0x9c
 3588 09ff 220A0000 		.4byte	0xa22
 3589 0a03 18       		.uleb128 0x18
 3590 0a04 64050000 		.4byte	.LASF117
 3591 0a08 01       		.byte	0x1
 3592 0a09 8D       		.byte	0x8d
 3593 0a0a F0000000 		.4byte	0xf0
 3594 0a0e 88010000 		.4byte	.LLST10
 3595 0a12 19       		.uleb128 0x19
 3596 0a13 DE020000 		.4byte	.LASF124
 3597 0a17 01       		.byte	0x1
 3598 0a18 8F       		.byte	0x8f
 3599 0a19 E4090000 		.4byte	0x9e4
 3600 0a1d A9010000 		.4byte	.LLST11
 3601 0a21 00       		.byte	0
 3602 0a22 17       		.uleb128 0x17
 3603 0a23 F6070000 		.4byte	.LASF126
 3604 0a27 01       		.byte	0x1
 3605 0a28 AE       		.byte	0xae
 3606 0a29 9B050000 		.4byte	0x59b
 3607 0a2d 00000000 		.4byte	.LFB37
 3608 0a31 5C000000 		.4byte	.LFE37-.LFB37
 3609 0a35 01       		.uleb128 0x1
 3610 0a36 9C       		.byte	0x9c
 3611 0a37 850A0000 		.4byte	0xa85
 3612 0a3b 18       		.uleb128 0x18
 3613 0a3c 6E050000 		.4byte	.LASF127
 3614 0a40 01       		.byte	0x1
 3615 0a41 AE       		.byte	0xae
 3616 0a42 850A0000 		.4byte	0xa85
 3617 0a46 BC010000 		.4byte	.LLST12
 3618 0a4a 18       		.uleb128 0x18
 3619 0a4b D4090000 		.4byte	.LASF128
 3620 0a4f 01       		.byte	0x1
 3621 0a50 AE       		.byte	0xae
 3622 0a51 8B0A0000 		.4byte	0xa8b
 3623 0a55 0F020000 		.4byte	.LLST13
 3624 0a59 19       		.uleb128 0x19
 3625 0a5a E20A0000 		.4byte	.LASF119
 3626 0a5e 01       		.byte	0x1
 3627 0a5f B0       		.byte	0xb0
 3628 0a60 9B050000 		.4byte	0x59b
 3629 0a64 30020000 		.4byte	.LLST14
ARM GAS  C:\Users\kiwamu\AppData\Local\Temp\ccj1MWYe.s 			page 93


 3630 0a68 19       		.uleb128 0x19
 3631 0a69 09010000 		.4byte	.LASF129
 3632 0a6d 01       		.byte	0x1
 3633 0a6e B1       		.byte	0xb1
 3634 0a6f A2000000 		.4byte	0xa2
 3635 0a73 4F020000 		.4byte	.LLST15
 3636 0a77 1B       		.uleb128 0x1b
 3637 0a78 FF090000 		.4byte	.LASF130
 3638 0a7c 01       		.byte	0x1
 3639 0a7d B2       		.byte	0xb2
 3640 0a7e A2000000 		.4byte	0xa2
 3641 0a82 01       		.uleb128 0x1
 3642 0a83 53       		.byte	0x53
 3643 0a84 00       		.byte	0
 3644 0a85 16       		.uleb128 0x16
 3645 0a86 04       		.byte	0x4
 3646 0a87 B4040000 		.4byte	0x4b4
 3647 0a8b 16       		.uleb128 0x16
 3648 0a8c 04       		.byte	0x4
 3649 0a8d 910A0000 		.4byte	0xa91
 3650 0a91 06       		.uleb128 0x6
 3651 0a92 01070000 		.4byte	0x701
 3652 0a96 17       		.uleb128 0x17
 3653 0a97 24070000 		.4byte	.LASF131
 3654 0a9b 01       		.byte	0x1
 3655 0a9c D5       		.byte	0xd5
 3656 0a9d 9B050000 		.4byte	0x59b
 3657 0aa1 00000000 		.4byte	.LFB38
 3658 0aa5 1C000000 		.4byte	.LFE38-.LFB38
 3659 0aa9 01       		.uleb128 0x1
 3660 0aaa 9C       		.byte	0x9c
 3661 0aab CE0A0000 		.4byte	0xace
 3662 0aaf 18       		.uleb128 0x18
 3663 0ab0 6E050000 		.4byte	.LASF127
 3664 0ab4 01       		.byte	0x1
 3665 0ab5 D5       		.byte	0xd5
 3666 0ab6 850A0000 		.4byte	0xa85
 3667 0aba 6F020000 		.4byte	.LLST16
 3668 0abe 19       		.uleb128 0x19
 3669 0abf E20A0000 		.4byte	.LASF119
 3670 0ac3 01       		.byte	0x1
 3671 0ac4 D7       		.byte	0xd7
 3672 0ac5 9B050000 		.4byte	0x59b
 3673 0ac9 A9020000 		.4byte	.LLST17
 3674 0acd 00       		.byte	0
 3675 0ace 17       		.uleb128 0x17
 3676 0acf A4010000 		.4byte	.LASF132
 3677 0ad3 01       		.byte	0x1
 3678 0ad4 F4       		.byte	0xf4
 3679 0ad5 9B050000 		.4byte	0x59b
 3680 0ad9 00000000 		.4byte	.LFB39
 3681 0add 1C000000 		.4byte	.LFE39-.LFB39
 3682 0ae1 01       		.uleb128 0x1
 3683 0ae2 9C       		.byte	0x9c
 3684 0ae3 060B0000 		.4byte	0xb06
 3685 0ae7 18       		.uleb128 0x18
 3686 0ae8 6E050000 		.4byte	.LASF127
ARM GAS  C:\Users\kiwamu\AppData\Local\Temp\ccj1MWYe.s 			page 94


 3687 0aec 01       		.byte	0x1
 3688 0aed F4       		.byte	0xf4
 3689 0aee 850A0000 		.4byte	0xa85
 3690 0af2 C8020000 		.4byte	.LLST18
 3691 0af6 19       		.uleb128 0x19
 3692 0af7 E20A0000 		.4byte	.LASF119
 3693 0afb 01       		.byte	0x1
 3694 0afc F6       		.byte	0xf6
 3695 0afd 9B050000 		.4byte	0x59b
 3696 0b01 02030000 		.4byte	.LLST19
 3697 0b05 00       		.byte	0
 3698 0b06 1C       		.uleb128 0x1c
 3699 0b07 32020000 		.4byte	.LASF133
 3700 0b0b 01       		.byte	0x1
 3701 0b0c 1F01     		.2byte	0x11f
 3702 0b0e 9B050000 		.4byte	0x59b
 3703 0b12 00000000 		.4byte	.LFB40
 3704 0b16 7C000000 		.4byte	.LFE40-.LFB40
 3705 0b1a 01       		.uleb128 0x1
 3706 0b1b 9C       		.byte	0x9c
 3707 0b1c 610B0000 		.4byte	0xb61
 3708 0b20 1D       		.uleb128 0x1d
 3709 0b21 6E050000 		.4byte	.LASF127
 3710 0b25 01       		.byte	0x1
 3711 0b26 1F01     		.2byte	0x11f
 3712 0b28 610B0000 		.4byte	0xb61
 3713 0b2c 21030000 		.4byte	.LLST20
 3714 0b30 1D       		.uleb128 0x1d
 3715 0b31 D4090000 		.4byte	.LASF128
 3716 0b35 01       		.byte	0x1
 3717 0b36 1F01     		.2byte	0x11f
 3718 0b38 670B0000 		.4byte	0xb67
 3719 0b3c 8D030000 		.4byte	.LLST21
 3720 0b40 1E       		.uleb128 0x1e
 3721 0b41 E20A0000 		.4byte	.LASF119
 3722 0b45 01       		.byte	0x1
 3723 0b46 2101     		.2byte	0x121
 3724 0b48 9B050000 		.4byte	0x59b
 3725 0b4c C7030000 		.4byte	.LLST22
 3726 0b50 1E       		.uleb128 0x1e
 3727 0b51 FF090000 		.4byte	.LASF130
 3728 0b55 01       		.byte	0x1
 3729 0b56 2201     		.2byte	0x122
 3730 0b58 A2000000 		.4byte	0xa2
 3731 0b5c E6030000 		.4byte	.LLST23
 3732 0b60 00       		.byte	0
 3733 0b61 16       		.uleb128 0x16
 3734 0b62 04       		.byte	0x4
 3735 0b63 31030000 		.4byte	0x331
 3736 0b67 16       		.uleb128 0x16
 3737 0b68 04       		.byte	0x4
 3738 0b69 6D0B0000 		.4byte	0xb6d
 3739 0b6d 06       		.uleb128 0x6
 3740 0b6e 7F070000 		.4byte	0x77f
 3741 0b72 1C       		.uleb128 0x1c
 3742 0b73 A5000000 		.4byte	.LASF134
 3743 0b77 01       		.byte	0x1
ARM GAS  C:\Users\kiwamu\AppData\Local\Temp\ccj1MWYe.s 			page 95


 3744 0b78 5B01     		.2byte	0x15b
 3745 0b7a 9B050000 		.4byte	0x59b
 3746 0b7e 00000000 		.4byte	.LFB41
 3747 0b82 98000000 		.4byte	.LFE41-.LFB41
 3748 0b86 01       		.uleb128 0x1
 3749 0b87 9C       		.byte	0x9c
 3750 0b88 DD0B0000 		.4byte	0xbdd
 3751 0b8c 1D       		.uleb128 0x1d
 3752 0b8d 6E050000 		.4byte	.LASF127
 3753 0b91 01       		.byte	0x1
 3754 0b92 5B01     		.2byte	0x15b
 3755 0b94 610B0000 		.4byte	0xb61
 3756 0b98 04040000 		.4byte	.LLST24
 3757 0b9c 1D       		.uleb128 0x1d
 3758 0b9d D4090000 		.4byte	.LASF128
 3759 0ba1 01       		.byte	0x1
 3760 0ba2 5B01     		.2byte	0x15b
 3761 0ba4 670B0000 		.4byte	0xb67
 3762 0ba8 70040000 		.4byte	.LLST25
 3763 0bac 1E       		.uleb128 0x1e
 3764 0bad E20A0000 		.4byte	.LASF119
 3765 0bb1 01       		.byte	0x1
 3766 0bb2 5D01     		.2byte	0x15d
 3767 0bb4 9B050000 		.4byte	0x59b
 3768 0bb8 AA040000 		.4byte	.LLST26
 3769 0bbc 1E       		.uleb128 0x1e
 3770 0bbd 09010000 		.4byte	.LASF129
 3771 0bc1 01       		.byte	0x1
 3772 0bc2 5E01     		.2byte	0x15e
 3773 0bc4 A2000000 		.4byte	0xa2
 3774 0bc8 C9040000 		.4byte	.LLST27
 3775 0bcc 1E       		.uleb128 0x1e
 3776 0bcd FF090000 		.4byte	.LASF130
 3777 0bd1 01       		.byte	0x1
 3778 0bd2 5F01     		.2byte	0x15f
 3779 0bd4 A2000000 		.4byte	0xa2
 3780 0bd8 E7040000 		.4byte	.LLST28
 3781 0bdc 00       		.byte	0
 3782 0bdd 1C       		.uleb128 0x1c
 3783 0bde 3C070000 		.4byte	.LASF135
 3784 0be2 01       		.byte	0x1
 3785 0be3 8F01     		.2byte	0x18f
 3786 0be5 9B050000 		.4byte	0x59b
 3787 0be9 00000000 		.4byte	.LFB42
 3788 0bed 1C000000 		.4byte	.LFE42-.LFB42
 3789 0bf1 01       		.uleb128 0x1
 3790 0bf2 9C       		.byte	0x9c
 3791 0bf3 180C0000 		.4byte	0xc18
 3792 0bf7 1D       		.uleb128 0x1d
 3793 0bf8 6E050000 		.4byte	.LASF127
 3794 0bfc 01       		.byte	0x1
 3795 0bfd 8F01     		.2byte	0x18f
 3796 0bff 610B0000 		.4byte	0xb61
 3797 0c03 05050000 		.4byte	.LLST29
 3798 0c07 1E       		.uleb128 0x1e
 3799 0c08 E20A0000 		.4byte	.LASF119
 3800 0c0c 01       		.byte	0x1
ARM GAS  C:\Users\kiwamu\AppData\Local\Temp\ccj1MWYe.s 			page 96


 3801 0c0d 9101     		.2byte	0x191
 3802 0c0f 9B050000 		.4byte	0x59b
 3803 0c13 3F050000 		.4byte	.LLST30
 3804 0c17 00       		.byte	0
 3805 0c18 1C       		.uleb128 0x1c
 3806 0c19 3E060000 		.4byte	.LASF136
 3807 0c1d 01       		.byte	0x1
 3808 0c1e B001     		.2byte	0x1b0
 3809 0c20 9B050000 		.4byte	0x59b
 3810 0c24 00000000 		.4byte	.LFB43
 3811 0c28 1C000000 		.4byte	.LFE43-.LFB43
 3812 0c2c 01       		.uleb128 0x1
 3813 0c2d 9C       		.byte	0x9c
 3814 0c2e 530C0000 		.4byte	0xc53
 3815 0c32 1D       		.uleb128 0x1d
 3816 0c33 6E050000 		.4byte	.LASF127
 3817 0c37 01       		.byte	0x1
 3818 0c38 B001     		.2byte	0x1b0
 3819 0c3a 610B0000 		.4byte	0xb61
 3820 0c3e 5E050000 		.4byte	.LLST31
 3821 0c42 1E       		.uleb128 0x1e
 3822 0c43 E20A0000 		.4byte	.LASF119
 3823 0c47 01       		.byte	0x1
 3824 0c48 B201     		.2byte	0x1b2
 3825 0c4a 9B050000 		.4byte	0x59b
 3826 0c4e 98050000 		.4byte	.LLST32
 3827 0c52 00       		.byte	0
 3828 0c53 1C       		.uleb128 0x1c
 3829 0c54 67060000 		.4byte	.LASF137
 3830 0c58 01       		.byte	0x1
 3831 0c59 D101     		.2byte	0x1d1
 3832 0c5b 9B050000 		.4byte	0x59b
 3833 0c5f 00000000 		.4byte	.LFB44
 3834 0c63 1C000000 		.4byte	.LFE44-.LFB44
 3835 0c67 01       		.uleb128 0x1
 3836 0c68 9C       		.byte	0x9c
 3837 0c69 8E0C0000 		.4byte	0xc8e
 3838 0c6d 1D       		.uleb128 0x1d
 3839 0c6e 6E050000 		.4byte	.LASF127
 3840 0c72 01       		.byte	0x1
 3841 0c73 D101     		.2byte	0x1d1
 3842 0c75 610B0000 		.4byte	0xb61
 3843 0c79 B7050000 		.4byte	.LLST33
 3844 0c7d 1E       		.uleb128 0x1e
 3845 0c7e E20A0000 		.4byte	.LASF119
 3846 0c82 01       		.byte	0x1
 3847 0c83 D301     		.2byte	0x1d3
 3848 0c85 9B050000 		.4byte	0x59b
 3849 0c89 F1050000 		.4byte	.LLST34
 3850 0c8d 00       		.byte	0
 3851 0c8e 1C       		.uleb128 0x1c
 3852 0c8f C3080000 		.4byte	.LASF138
 3853 0c93 01       		.byte	0x1
 3854 0c94 F201     		.2byte	0x1f2
 3855 0c96 9B050000 		.4byte	0x59b
 3856 0c9a 00000000 		.4byte	.LFB45
 3857 0c9e 1C000000 		.4byte	.LFE45-.LFB45
ARM GAS  C:\Users\kiwamu\AppData\Local\Temp\ccj1MWYe.s 			page 97


 3858 0ca2 01       		.uleb128 0x1
 3859 0ca3 9C       		.byte	0x9c
 3860 0ca4 C90C0000 		.4byte	0xcc9
 3861 0ca8 1D       		.uleb128 0x1d
 3862 0ca9 6E050000 		.4byte	.LASF127
 3863 0cad 01       		.byte	0x1
 3864 0cae F201     		.2byte	0x1f2
 3865 0cb0 610B0000 		.4byte	0xb61
 3866 0cb4 10060000 		.4byte	.LLST35
 3867 0cb8 1E       		.uleb128 0x1e
 3868 0cb9 E20A0000 		.4byte	.LASF119
 3869 0cbd 01       		.byte	0x1
 3870 0cbe F401     		.2byte	0x1f4
 3871 0cc0 9B050000 		.4byte	0x59b
 3872 0cc4 4A060000 		.4byte	.LLST36
 3873 0cc8 00       		.byte	0
 3874 0cc9 1C       		.uleb128 0x1c
 3875 0cca 73050000 		.4byte	.LASF139
 3876 0cce 01       		.byte	0x1
 3877 0ccf 1D02     		.2byte	0x21d
 3878 0cd1 9B050000 		.4byte	0x59b
 3879 0cd5 00000000 		.4byte	.LFB46
 3880 0cd9 7C000000 		.4byte	.LFE46-.LFB46
 3881 0cdd 01       		.uleb128 0x1
 3882 0cde 9C       		.byte	0x9c
 3883 0cdf 240D0000 		.4byte	0xd24
 3884 0ce3 1D       		.uleb128 0x1d
 3885 0ce4 6E050000 		.4byte	.LASF127
 3886 0ce8 01       		.byte	0x1
 3887 0ce9 1D02     		.2byte	0x21d
 3888 0ceb 240D0000 		.4byte	0xd24
 3889 0cef 69060000 		.4byte	.LLST37
 3890 0cf3 1D       		.uleb128 0x1d
 3891 0cf4 D4090000 		.4byte	.LASF128
 3892 0cf8 01       		.byte	0x1
 3893 0cf9 1D02     		.2byte	0x21d
 3894 0cfb 2A0D0000 		.4byte	0xd2a
 3895 0cff D5060000 		.4byte	.LLST38
 3896 0d03 1E       		.uleb128 0x1e
 3897 0d04 E20A0000 		.4byte	.LASF119
 3898 0d08 01       		.byte	0x1
 3899 0d09 1F02     		.2byte	0x21f
 3900 0d0b 9B050000 		.4byte	0x59b
 3901 0d0f 0F070000 		.4byte	.LLST39
 3902 0d13 1E       		.uleb128 0x1e
 3903 0d14 FF090000 		.4byte	.LASF130
 3904 0d18 01       		.byte	0x1
 3905 0d19 2002     		.2byte	0x220
 3906 0d1b A2000000 		.4byte	0xa2
 3907 0d1f 2E070000 		.4byte	.LLST40
 3908 0d23 00       		.byte	0
 3909 0d24 16       		.uleb128 0x16
 3910 0d25 04       		.byte	0x4
 3911 0d26 71010000 		.4byte	0x171
 3912 0d2a 16       		.uleb128 0x16
 3913 0d2b 04       		.byte	0x4
 3914 0d2c 300D0000 		.4byte	0xd30
ARM GAS  C:\Users\kiwamu\AppData\Local\Temp\ccj1MWYe.s 			page 98


 3915 0d30 06       		.uleb128 0x6
 3916 0d31 FD070000 		.4byte	0x7fd
 3917 0d35 1C       		.uleb128 0x1c
 3918 0d36 55000000 		.4byte	.LASF140
 3919 0d3a 01       		.byte	0x1
 3920 0d3b 5D02     		.2byte	0x25d
 3921 0d3d 9B050000 		.4byte	0x59b
 3922 0d41 00000000 		.4byte	.LFB47
 3923 0d45 A4000000 		.4byte	.LFE47-.LFB47
 3924 0d49 01       		.uleb128 0x1
 3925 0d4a 9C       		.byte	0x9c
 3926 0d4b A00D0000 		.4byte	0xda0
 3927 0d4f 1D       		.uleb128 0x1d
 3928 0d50 6E050000 		.4byte	.LASF127
 3929 0d54 01       		.byte	0x1
 3930 0d55 5D02     		.2byte	0x25d
 3931 0d57 240D0000 		.4byte	0xd24
 3932 0d5b 4C070000 		.4byte	.LLST41
 3933 0d5f 1D       		.uleb128 0x1d
 3934 0d60 D4090000 		.4byte	.LASF128
 3935 0d64 01       		.byte	0x1
 3936 0d65 5D02     		.2byte	0x25d
 3937 0d67 2A0D0000 		.4byte	0xd2a
 3938 0d6b D1070000 		.4byte	.LLST42
 3939 0d6f 1E       		.uleb128 0x1e
 3940 0d70 E20A0000 		.4byte	.LASF119
 3941 0d74 01       		.byte	0x1
 3942 0d75 5F02     		.2byte	0x25f
 3943 0d77 9B050000 		.4byte	0x59b
 3944 0d7b 0B080000 		.4byte	.LLST43
 3945 0d7f 1E       		.uleb128 0x1e
 3946 0d80 09010000 		.4byte	.LASF129
 3947 0d84 01       		.byte	0x1
 3948 0d85 6002     		.2byte	0x260
 3949 0d87 A2000000 		.4byte	0xa2
 3950 0d8b 2A080000 		.4byte	.LLST44
 3951 0d8f 1E       		.uleb128 0x1e
 3952 0d90 FF090000 		.4byte	.LASF130
 3953 0d94 01       		.byte	0x1
 3954 0d95 6102     		.2byte	0x261
 3955 0d97 A2000000 		.4byte	0xa2
 3956 0d9b 48080000 		.4byte	.LLST45
 3957 0d9f 00       		.byte	0
 3958 0da0 1C       		.uleb128 0x1c
 3959 0da1 85060000 		.4byte	.LASF141
 3960 0da5 01       		.byte	0x1
 3961 0da6 9902     		.2byte	0x299
 3962 0da8 9B050000 		.4byte	0x59b
 3963 0dac 00000000 		.4byte	.LFB48
 3964 0db0 1C000000 		.4byte	.LFE48-.LFB48
 3965 0db4 01       		.uleb128 0x1
 3966 0db5 9C       		.byte	0x9c
 3967 0db6 DB0D0000 		.4byte	0xddb
 3968 0dba 1D       		.uleb128 0x1d
 3969 0dbb 6E050000 		.4byte	.LASF127
 3970 0dbf 01       		.byte	0x1
 3971 0dc0 9902     		.2byte	0x299
ARM GAS  C:\Users\kiwamu\AppData\Local\Temp\ccj1MWYe.s 			page 99


 3972 0dc2 240D0000 		.4byte	0xd24
 3973 0dc6 66080000 		.4byte	.LLST46
 3974 0dca 1E       		.uleb128 0x1e
 3975 0dcb E20A0000 		.4byte	.LASF119
 3976 0dcf 01       		.byte	0x1
 3977 0dd0 9B02     		.2byte	0x29b
 3978 0dd2 9B050000 		.4byte	0x59b
 3979 0dd6 A0080000 		.4byte	.LLST47
 3980 0dda 00       		.byte	0
 3981 0ddb 1C       		.uleb128 0x1c
 3982 0ddc B70A0000 		.4byte	.LASF142
 3983 0de0 01       		.byte	0x1
 3984 0de1 BB02     		.2byte	0x2bb
 3985 0de3 9B050000 		.4byte	0x59b
 3986 0de7 00000000 		.4byte	.LFB49
 3987 0deb 1C000000 		.4byte	.LFE49-.LFB49
 3988 0def 01       		.uleb128 0x1
 3989 0df0 9C       		.byte	0x9c
 3990 0df1 160E0000 		.4byte	0xe16
 3991 0df5 1D       		.uleb128 0x1d
 3992 0df6 6E050000 		.4byte	.LASF127
 3993 0dfa 01       		.byte	0x1
 3994 0dfb BB02     		.2byte	0x2bb
 3995 0dfd 240D0000 		.4byte	0xd24
 3996 0e01 BF080000 		.4byte	.LLST48
 3997 0e05 1E       		.uleb128 0x1e
 3998 0e06 E20A0000 		.4byte	.LASF119
 3999 0e0a 01       		.byte	0x1
 4000 0e0b BD02     		.2byte	0x2bd
 4001 0e0d 9B050000 		.4byte	0x59b
 4002 0e11 F9080000 		.4byte	.LLST49
 4003 0e15 00       		.byte	0
 4004 0e16 1C       		.uleb128 0x1c
 4005 0e17 9A0B0000 		.4byte	.LASF143
 4006 0e1b 01       		.byte	0x1
 4007 0e1c DC02     		.2byte	0x2dc
 4008 0e1e 9B050000 		.4byte	0x59b
 4009 0e22 00000000 		.4byte	.LFB50
 4010 0e26 1C000000 		.4byte	.LFE50-.LFB50
 4011 0e2a 01       		.uleb128 0x1
 4012 0e2b 9C       		.byte	0x9c
 4013 0e2c 510E0000 		.4byte	0xe51
 4014 0e30 1D       		.uleb128 0x1d
 4015 0e31 6E050000 		.4byte	.LASF127
 4016 0e35 01       		.byte	0x1
 4017 0e36 DC02     		.2byte	0x2dc
 4018 0e38 240D0000 		.4byte	0xd24
 4019 0e3c 18090000 		.4byte	.LLST50
 4020 0e40 1E       		.uleb128 0x1e
 4021 0e41 E20A0000 		.4byte	.LASF119
 4022 0e45 01       		.byte	0x1
 4023 0e46 DE02     		.2byte	0x2de
 4024 0e48 9B050000 		.4byte	0x59b
 4025 0e4c 52090000 		.4byte	.LLST51
 4026 0e50 00       		.byte	0
 4027 0e51 1C       		.uleb128 0x1c
 4028 0e52 E00B0000 		.4byte	.LASF144
ARM GAS  C:\Users\kiwamu\AppData\Local\Temp\ccj1MWYe.s 			page 100


 4029 0e56 01       		.byte	0x1
 4030 0e57 FE02     		.2byte	0x2fe
 4031 0e59 9B050000 		.4byte	0x59b
 4032 0e5d 00000000 		.4byte	.LFB51
 4033 0e61 1C000000 		.4byte	.LFE51-.LFB51
 4034 0e65 01       		.uleb128 0x1
 4035 0e66 9C       		.byte	0x9c
 4036 0e67 8C0E0000 		.4byte	0xe8c
 4037 0e6b 1D       		.uleb128 0x1d
 4038 0e6c 6E050000 		.4byte	.LASF127
 4039 0e70 01       		.byte	0x1
 4040 0e71 FE02     		.2byte	0x2fe
 4041 0e73 240D0000 		.4byte	0xd24
 4042 0e77 71090000 		.4byte	.LLST52
 4043 0e7b 1E       		.uleb128 0x1e
 4044 0e7c E20A0000 		.4byte	.LASF119
 4045 0e80 01       		.byte	0x1
 4046 0e81 0003     		.2byte	0x300
 4047 0e83 9B050000 		.4byte	0x59b
 4048 0e87 AB090000 		.4byte	.LLST53
 4049 0e8b 00       		.byte	0
 4050 0e8c 1C       		.uleb128 0x1c
 4051 0e8d BB0B0000 		.4byte	.LASF145
 4052 0e91 01       		.byte	0x1
 4053 0e92 2903     		.2byte	0x329
 4054 0e94 9B050000 		.4byte	0x59b
 4055 0e98 00000000 		.4byte	.LFB52
 4056 0e9c 7C000000 		.4byte	.LFE52-.LFB52
 4057 0ea0 01       		.uleb128 0x1
 4058 0ea1 9C       		.byte	0x9c
 4059 0ea2 E70E0000 		.4byte	0xee7
 4060 0ea6 1D       		.uleb128 0x1d
 4061 0ea7 6E050000 		.4byte	.LASF127
 4062 0eab 01       		.byte	0x1
 4063 0eac 2903     		.2byte	0x329
 4064 0eae E70E0000 		.4byte	0xee7
 4065 0eb2 CA090000 		.4byte	.LLST54
 4066 0eb6 1D       		.uleb128 0x1d
 4067 0eb7 D4090000 		.4byte	.LASF128
 4068 0ebb 01       		.byte	0x1
 4069 0ebc 2903     		.2byte	0x329
 4070 0ebe ED0E0000 		.4byte	0xeed
 4071 0ec2 360A0000 		.4byte	.LLST55
 4072 0ec6 1E       		.uleb128 0x1e
 4073 0ec7 E20A0000 		.4byte	.LASF119
 4074 0ecb 01       		.byte	0x1
 4075 0ecc 2B03     		.2byte	0x32b
 4076 0ece 9B050000 		.4byte	0x59b
 4077 0ed2 700A0000 		.4byte	.LLST56
 4078 0ed6 1E       		.uleb128 0x1e
 4079 0ed7 FF090000 		.4byte	.LASF130
 4080 0edb 01       		.byte	0x1
 4081 0edc 2C03     		.2byte	0x32c
 4082 0ede A2000000 		.4byte	0xa2
 4083 0ee2 8F0A0000 		.4byte	.LLST57
 4084 0ee6 00       		.byte	0
 4085 0ee7 16       		.uleb128 0x16
ARM GAS  C:\Users\kiwamu\AppData\Local\Temp\ccj1MWYe.s 			page 101


 4086 0ee8 04       		.byte	0x4
 4087 0ee9 E1010000 		.4byte	0x1e1
 4088 0eed 16       		.uleb128 0x16
 4089 0eee 04       		.byte	0x4
 4090 0eef F30E0000 		.4byte	0xef3
 4091 0ef3 06       		.uleb128 0x6
 4092 0ef4 54080000 		.4byte	0x854
 4093 0ef8 1C       		.uleb128 0x1c
 4094 0ef9 D9010000 		.4byte	.LASF146
 4095 0efd 01       		.byte	0x1
 4096 0efe 6E03     		.2byte	0x36e
 4097 0f00 9B050000 		.4byte	0x59b
 4098 0f04 00000000 		.4byte	.LFB53
 4099 0f08 7C000000 		.4byte	.LFE53-.LFB53
 4100 0f0c 01       		.uleb128 0x1
 4101 0f0d 9C       		.byte	0x9c
 4102 0f0e 530F0000 		.4byte	0xf53
 4103 0f12 1D       		.uleb128 0x1d
 4104 0f13 6E050000 		.4byte	.LASF127
 4105 0f17 01       		.byte	0x1
 4106 0f18 6E03     		.2byte	0x36e
 4107 0f1a E70E0000 		.4byte	0xee7
 4108 0f1e AD0A0000 		.4byte	.LLST58
 4109 0f22 1D       		.uleb128 0x1d
 4110 0f23 D4090000 		.4byte	.LASF128
 4111 0f27 01       		.byte	0x1
 4112 0f28 6E03     		.2byte	0x36e
 4113 0f2a ED0E0000 		.4byte	0xeed
 4114 0f2e 190B0000 		.4byte	.LLST59
 4115 0f32 1E       		.uleb128 0x1e
 4116 0f33 E20A0000 		.4byte	.LASF119
 4117 0f37 01       		.byte	0x1
 4118 0f38 7003     		.2byte	0x370
 4119 0f3a 9B050000 		.4byte	0x59b
 4120 0f3e 530B0000 		.4byte	.LLST60
 4121 0f42 1E       		.uleb128 0x1e
 4122 0f43 FF090000 		.4byte	.LASF130
 4123 0f47 01       		.byte	0x1
 4124 0f48 7103     		.2byte	0x371
 4125 0f4a A2000000 		.4byte	0xa2
 4126 0f4e 720B0000 		.4byte	.LLST61
 4127 0f52 00       		.byte	0
 4128 0f53 1C       		.uleb128 0x1c
 4129 0f54 B4020000 		.4byte	.LASF147
 4130 0f58 01       		.byte	0x1
 4131 0f59 A503     		.2byte	0x3a5
 4132 0f5b 9B050000 		.4byte	0x59b
 4133 0f5f 00000000 		.4byte	.LFB54
 4134 0f63 1C000000 		.4byte	.LFE54-.LFB54
 4135 0f67 01       		.uleb128 0x1
 4136 0f68 9C       		.byte	0x9c
 4137 0f69 8E0F0000 		.4byte	0xf8e
 4138 0f6d 1D       		.uleb128 0x1d
 4139 0f6e 6E050000 		.4byte	.LASF127
 4140 0f72 01       		.byte	0x1
 4141 0f73 A503     		.2byte	0x3a5
 4142 0f75 E70E0000 		.4byte	0xee7
ARM GAS  C:\Users\kiwamu\AppData\Local\Temp\ccj1MWYe.s 			page 102


 4143 0f79 900B0000 		.4byte	.LLST62
 4144 0f7d 1E       		.uleb128 0x1e
 4145 0f7e E20A0000 		.4byte	.LASF119
 4146 0f82 01       		.byte	0x1
 4147 0f83 A703     		.2byte	0x3a7
 4148 0f85 9B050000 		.4byte	0x59b
 4149 0f89 CA0B0000 		.4byte	.LLST63
 4150 0f8d 00       		.byte	0
 4151 0f8e 1C       		.uleb128 0x1c
 4152 0f8f 240A0000 		.4byte	.LASF148
 4153 0f93 01       		.byte	0x1
 4154 0f94 C703     		.2byte	0x3c7
 4155 0f96 9B050000 		.4byte	0x59b
 4156 0f9a 00000000 		.4byte	.LFB55
 4157 0f9e 1C000000 		.4byte	.LFE55-.LFB55
 4158 0fa2 01       		.uleb128 0x1
 4159 0fa3 9C       		.byte	0x9c
 4160 0fa4 C90F0000 		.4byte	0xfc9
 4161 0fa8 1D       		.uleb128 0x1d
 4162 0fa9 6E050000 		.4byte	.LASF127
 4163 0fad 01       		.byte	0x1
 4164 0fae C703     		.2byte	0x3c7
 4165 0fb0 E70E0000 		.4byte	0xee7
 4166 0fb4 E90B0000 		.4byte	.LLST64
 4167 0fb8 1E       		.uleb128 0x1e
 4168 0fb9 E20A0000 		.4byte	.LASF119
 4169 0fbd 01       		.byte	0x1
 4170 0fbe C903     		.2byte	0x3c9
 4171 0fc0 9B050000 		.4byte	0x59b
 4172 0fc4 230C0000 		.4byte	.LLST65
 4173 0fc8 00       		.byte	0
 4174 0fc9 1C       		.uleb128 0x1c
 4175 0fca DE060000 		.4byte	.LASF149
 4176 0fce 01       		.byte	0x1
 4177 0fcf E803     		.2byte	0x3e8
 4178 0fd1 9B050000 		.4byte	0x59b
 4179 0fd5 00000000 		.4byte	.LFB56
 4180 0fd9 1C000000 		.4byte	.LFE56-.LFB56
 4181 0fdd 01       		.uleb128 0x1
 4182 0fde 9C       		.byte	0x9c
 4183 0fdf 04100000 		.4byte	0x1004
 4184 0fe3 1D       		.uleb128 0x1d
 4185 0fe4 6E050000 		.4byte	.LASF127
 4186 0fe8 01       		.byte	0x1
 4187 0fe9 E803     		.2byte	0x3e8
 4188 0feb E70E0000 		.4byte	0xee7
 4189 0fef 420C0000 		.4byte	.LLST66
 4190 0ff3 1E       		.uleb128 0x1e
 4191 0ff4 E20A0000 		.4byte	.LASF119
 4192 0ff8 01       		.byte	0x1
 4193 0ff9 EA03     		.2byte	0x3ea
 4194 0ffb 9B050000 		.4byte	0x59b
 4195 0fff 7C0C0000 		.4byte	.LLST67
 4196 1003 00       		.byte	0
 4197 1004 1C       		.uleb128 0x1c
 4198 1005 8D080000 		.4byte	.LASF150
 4199 1009 01       		.byte	0x1
ARM GAS  C:\Users\kiwamu\AppData\Local\Temp\ccj1MWYe.s 			page 103


 4200 100a 0A04     		.2byte	0x40a
 4201 100c 9B050000 		.4byte	0x59b
 4202 1010 00000000 		.4byte	.LFB57
 4203 1014 1C000000 		.4byte	.LFE57-.LFB57
 4204 1018 01       		.uleb128 0x1
 4205 1019 9C       		.byte	0x9c
 4206 101a 3F100000 		.4byte	0x103f
 4207 101e 1D       		.uleb128 0x1d
 4208 101f 6E050000 		.4byte	.LASF127
 4209 1023 01       		.byte	0x1
 4210 1024 0A04     		.2byte	0x40a
 4211 1026 E70E0000 		.4byte	0xee7
 4212 102a 9B0C0000 		.4byte	.LLST68
 4213 102e 1E       		.uleb128 0x1e
 4214 102f E20A0000 		.4byte	.LASF119
 4215 1033 01       		.byte	0x1
 4216 1034 0C04     		.2byte	0x40c
 4217 1036 9B050000 		.4byte	0x59b
 4218 103a D50C0000 		.4byte	.LLST69
 4219 103e 00       		.byte	0
 4220 103f 1C       		.uleb128 0x1c
 4221 1040 190C0000 		.4byte	.LASF151
 4222 1044 01       		.byte	0x1
 4223 1045 3504     		.2byte	0x435
 4224 1047 9B050000 		.4byte	0x59b
 4225 104b 00000000 		.4byte	.LFB58
 4226 104f 7C000000 		.4byte	.LFE58-.LFB58
 4227 1053 01       		.uleb128 0x1
 4228 1054 9C       		.byte	0x9c
 4229 1055 9A100000 		.4byte	0x109a
 4230 1059 1D       		.uleb128 0x1d
 4231 105a 6E050000 		.4byte	.LASF127
 4232 105e 01       		.byte	0x1
 4233 105f 3504     		.2byte	0x435
 4234 1061 9A100000 		.4byte	0x109a
 4235 1065 F40C0000 		.4byte	.LLST70
 4236 1069 1D       		.uleb128 0x1d
 4237 106a D4090000 		.4byte	.LASF128
 4238 106e 01       		.byte	0x1
 4239 106f 3504     		.2byte	0x435
 4240 1071 A0100000 		.4byte	0x10a0
 4241 1075 600D0000 		.4byte	.LLST71
 4242 1079 1E       		.uleb128 0x1e
 4243 107a E20A0000 		.4byte	.LASF119
 4244 107e 01       		.byte	0x1
 4245 107f 3704     		.2byte	0x437
 4246 1081 9B050000 		.4byte	0x59b
 4247 1085 9A0D0000 		.4byte	.LLST72
 4248 1089 1E       		.uleb128 0x1e
 4249 108a FF090000 		.4byte	.LASF130
 4250 108e 01       		.byte	0x1
 4251 108f 3804     		.2byte	0x438
 4252 1091 A2000000 		.4byte	0xa2
 4253 1095 B90D0000 		.4byte	.LLST73
 4254 1099 00       		.byte	0
 4255 109a 16       		.uleb128 0x16
 4256 109b 04       		.byte	0x4
ARM GAS  C:\Users\kiwamu\AppData\Local\Temp\ccj1MWYe.s 			page 104


 4257 109c 51020000 		.4byte	0x251
 4258 10a0 16       		.uleb128 0x16
 4259 10a1 04       		.byte	0x4
 4260 10a2 A6100000 		.4byte	0x10a6
 4261 10a6 06       		.uleb128 0x6
 4262 10a7 AB080000 		.4byte	0x8ab
 4263 10ab 1C       		.uleb128 0x1c
 4264 10ac 46080000 		.4byte	.LASF152
 4265 10b0 01       		.byte	0x1
 4266 10b1 7904     		.2byte	0x479
 4267 10b3 9B050000 		.4byte	0x59b
 4268 10b7 00000000 		.4byte	.LFB59
 4269 10bb 7C000000 		.4byte	.LFE59-.LFB59
 4270 10bf 01       		.uleb128 0x1
 4271 10c0 9C       		.byte	0x9c
 4272 10c1 06110000 		.4byte	0x1106
 4273 10c5 1D       		.uleb128 0x1d
 4274 10c6 6E050000 		.4byte	.LASF127
 4275 10ca 01       		.byte	0x1
 4276 10cb 7904     		.2byte	0x479
 4277 10cd 9A100000 		.4byte	0x109a
 4278 10d1 D70D0000 		.4byte	.LLST74
 4279 10d5 1D       		.uleb128 0x1d
 4280 10d6 D4090000 		.4byte	.LASF128
 4281 10da 01       		.byte	0x1
 4282 10db 7904     		.2byte	0x479
 4283 10dd A0100000 		.4byte	0x10a0
 4284 10e1 430E0000 		.4byte	.LLST75
 4285 10e5 1E       		.uleb128 0x1e
 4286 10e6 E20A0000 		.4byte	.LASF119
 4287 10ea 01       		.byte	0x1
 4288 10eb 7B04     		.2byte	0x47b
 4289 10ed 9B050000 		.4byte	0x59b
 4290 10f1 7D0E0000 		.4byte	.LLST76
 4291 10f5 1E       		.uleb128 0x1e
 4292 10f6 FF090000 		.4byte	.LASF130
 4293 10fa 01       		.byte	0x1
 4294 10fb 7C04     		.2byte	0x47c
 4295 10fd A2000000 		.4byte	0xa2
 4296 1101 9C0E0000 		.4byte	.LLST77
 4297 1105 00       		.byte	0
 4298 1106 1C       		.uleb128 0x1c
 4299 1107 F6040000 		.4byte	.LASF153
 4300 110b 01       		.byte	0x1
 4301 110c B104     		.2byte	0x4b1
 4302 110e 9B050000 		.4byte	0x59b
 4303 1112 00000000 		.4byte	.LFB60
 4304 1116 1C000000 		.4byte	.LFE60-.LFB60
 4305 111a 01       		.uleb128 0x1
 4306 111b 9C       		.byte	0x9c
 4307 111c 41110000 		.4byte	0x1141
 4308 1120 1D       		.uleb128 0x1d
 4309 1121 6E050000 		.4byte	.LASF127
 4310 1125 01       		.byte	0x1
 4311 1126 B104     		.2byte	0x4b1
 4312 1128 9A100000 		.4byte	0x109a
 4313 112c BA0E0000 		.4byte	.LLST78
ARM GAS  C:\Users\kiwamu\AppData\Local\Temp\ccj1MWYe.s 			page 105


 4314 1130 1E       		.uleb128 0x1e
 4315 1131 E20A0000 		.4byte	.LASF119
 4316 1135 01       		.byte	0x1
 4317 1136 B304     		.2byte	0x4b3
 4318 1138 9B050000 		.4byte	0x59b
 4319 113c F40E0000 		.4byte	.LLST79
 4320 1140 00       		.byte	0
 4321 1141 1C       		.uleb128 0x1c
 4322 1142 FC020000 		.4byte	.LASF154
 4323 1146 01       		.byte	0x1
 4324 1147 D304     		.2byte	0x4d3
 4325 1149 9B050000 		.4byte	0x59b
 4326 114d 00000000 		.4byte	.LFB61
 4327 1151 1C000000 		.4byte	.LFE61-.LFB61
 4328 1155 01       		.uleb128 0x1
 4329 1156 9C       		.byte	0x9c
 4330 1157 7C110000 		.4byte	0x117c
 4331 115b 1D       		.uleb128 0x1d
 4332 115c 6E050000 		.4byte	.LASF127
 4333 1160 01       		.byte	0x1
 4334 1161 D304     		.2byte	0x4d3
 4335 1163 9A100000 		.4byte	0x109a
 4336 1167 130F0000 		.4byte	.LLST80
 4337 116b 1E       		.uleb128 0x1e
 4338 116c E20A0000 		.4byte	.LASF119
 4339 1170 01       		.byte	0x1
 4340 1171 D504     		.2byte	0x4d5
 4341 1173 9B050000 		.4byte	0x59b
 4342 1177 4D0F0000 		.4byte	.LLST81
 4343 117b 00       		.byte	0
 4344 117c 1C       		.uleb128 0x1c
 4345 117d 0E020000 		.4byte	.LASF155
 4346 1181 01       		.byte	0x1
 4347 1182 F404     		.2byte	0x4f4
 4348 1184 9B050000 		.4byte	0x59b
 4349 1188 00000000 		.4byte	.LFB62
 4350 118c 1C000000 		.4byte	.LFE62-.LFB62
 4351 1190 01       		.uleb128 0x1
 4352 1191 9C       		.byte	0x9c
 4353 1192 B7110000 		.4byte	0x11b7
 4354 1196 1D       		.uleb128 0x1d
 4355 1197 6E050000 		.4byte	.LASF127
 4356 119b 01       		.byte	0x1
 4357 119c F404     		.2byte	0x4f4
 4358 119e 9A100000 		.4byte	0x109a
 4359 11a2 6C0F0000 		.4byte	.LLST82
 4360 11a6 1E       		.uleb128 0x1e
 4361 11a7 E20A0000 		.4byte	.LASF119
 4362 11ab 01       		.byte	0x1
 4363 11ac F604     		.2byte	0x4f6
 4364 11ae 9B050000 		.4byte	0x59b
 4365 11b2 A60F0000 		.4byte	.LLST83
 4366 11b6 00       		.byte	0
 4367 11b7 1C       		.uleb128 0x1c
 4368 11b8 22030000 		.4byte	.LASF156
 4369 11bc 01       		.byte	0x1
 4370 11bd 1605     		.2byte	0x516
ARM GAS  C:\Users\kiwamu\AppData\Local\Temp\ccj1MWYe.s 			page 106


 4371 11bf 9B050000 		.4byte	0x59b
 4372 11c3 00000000 		.4byte	.LFB63
 4373 11c7 1C000000 		.4byte	.LFE63-.LFB63
 4374 11cb 01       		.uleb128 0x1
 4375 11cc 9C       		.byte	0x9c
 4376 11cd F2110000 		.4byte	0x11f2
 4377 11d1 1D       		.uleb128 0x1d
 4378 11d2 6E050000 		.4byte	.LASF127
 4379 11d6 01       		.byte	0x1
 4380 11d7 1605     		.2byte	0x516
 4381 11d9 9A100000 		.4byte	0x109a
 4382 11dd C50F0000 		.4byte	.LLST84
 4383 11e1 1E       		.uleb128 0x1e
 4384 11e2 E20A0000 		.4byte	.LASF119
 4385 11e6 01       		.byte	0x1
 4386 11e7 1805     		.2byte	0x518
 4387 11e9 9B050000 		.4byte	0x59b
 4388 11ed FF0F0000 		.4byte	.LLST85
 4389 11f1 00       		.byte	0
 4390 11f2 1C       		.uleb128 0x1c
 4391 11f3 F3080000 		.4byte	.LASF157
 4392 11f7 01       		.byte	0x1
 4393 11f8 4105     		.2byte	0x541
 4394 11fa 9B050000 		.4byte	0x59b
 4395 11fe 00000000 		.4byte	.LFB64
 4396 1202 7C000000 		.4byte	.LFE64-.LFB64
 4397 1206 01       		.uleb128 0x1
 4398 1207 9C       		.byte	0x9c
 4399 1208 4D120000 		.4byte	0x124d
 4400 120c 1D       		.uleb128 0x1d
 4401 120d 6E050000 		.4byte	.LASF127
 4402 1211 01       		.byte	0x1
 4403 1212 4105     		.2byte	0x541
 4404 1214 4D120000 		.4byte	0x124d
 4405 1218 1E100000 		.4byte	.LLST86
 4406 121c 1D       		.uleb128 0x1d
 4407 121d D4090000 		.4byte	.LASF128
 4408 1221 01       		.byte	0x1
 4409 1222 4105     		.2byte	0x541
 4410 1224 53120000 		.4byte	0x1253
 4411 1228 8A100000 		.4byte	.LLST87
 4412 122c 1E       		.uleb128 0x1e
 4413 122d E20A0000 		.4byte	.LASF119
 4414 1231 01       		.byte	0x1
 4415 1232 4305     		.2byte	0x543
 4416 1234 9B050000 		.4byte	0x59b
 4417 1238 C4100000 		.4byte	.LLST88
 4418 123c 1E       		.uleb128 0x1e
 4419 123d FF090000 		.4byte	.LASF130
 4420 1241 01       		.byte	0x1
 4421 1242 4405     		.2byte	0x544
 4422 1244 A2000000 		.4byte	0xa2
 4423 1248 E3100000 		.4byte	.LLST89
 4424 124c 00       		.byte	0
 4425 124d 16       		.uleb128 0x16
 4426 124e 04       		.byte	0x4
 4427 124f C1020000 		.4byte	0x2c1
ARM GAS  C:\Users\kiwamu\AppData\Local\Temp\ccj1MWYe.s 			page 107


 4428 1253 16       		.uleb128 0x16
 4429 1254 04       		.byte	0x4
 4430 1255 59120000 		.4byte	0x1259
 4431 1259 06       		.uleb128 0x6
 4432 125a 02090000 		.4byte	0x902
 4433 125e 1C       		.uleb128 0x1c
 4434 125f BE070000 		.4byte	.LASF158
 4435 1263 01       		.byte	0x1
 4436 1264 8505     		.2byte	0x585
 4437 1266 9B050000 		.4byte	0x59b
 4438 126a 00000000 		.4byte	.LFB65
 4439 126e 7C000000 		.4byte	.LFE65-.LFB65
 4440 1272 01       		.uleb128 0x1
 4441 1273 9C       		.byte	0x9c
 4442 1274 B9120000 		.4byte	0x12b9
 4443 1278 1D       		.uleb128 0x1d
 4444 1279 6E050000 		.4byte	.LASF127
 4445 127d 01       		.byte	0x1
 4446 127e 8505     		.2byte	0x585
 4447 1280 4D120000 		.4byte	0x124d
 4448 1284 01110000 		.4byte	.LLST90
 4449 1288 1D       		.uleb128 0x1d
 4450 1289 D4090000 		.4byte	.LASF128
 4451 128d 01       		.byte	0x1
 4452 128e 8505     		.2byte	0x585
 4453 1290 53120000 		.4byte	0x1253
 4454 1294 6D110000 		.4byte	.LLST91
 4455 1298 1E       		.uleb128 0x1e
 4456 1299 E20A0000 		.4byte	.LASF119
 4457 129d 01       		.byte	0x1
 4458 129e 8705     		.2byte	0x587
 4459 12a0 9B050000 		.4byte	0x59b
 4460 12a4 A7110000 		.4byte	.LLST92
 4461 12a8 1E       		.uleb128 0x1e
 4462 12a9 FF090000 		.4byte	.LASF130
 4463 12ad 01       		.byte	0x1
 4464 12ae 8805     		.2byte	0x588
 4465 12b0 A2000000 		.4byte	0xa2
 4466 12b4 C6110000 		.4byte	.LLST93
 4467 12b8 00       		.byte	0
 4468 12b9 1C       		.uleb128 0x1c
 4469 12ba 76000000 		.4byte	.LASF159
 4470 12be 01       		.byte	0x1
 4471 12bf BD05     		.2byte	0x5bd
 4472 12c1 9B050000 		.4byte	0x59b
 4473 12c5 00000000 		.4byte	.LFB66
 4474 12c9 1C000000 		.4byte	.LFE66-.LFB66
 4475 12cd 01       		.uleb128 0x1
 4476 12ce 9C       		.byte	0x9c
 4477 12cf F4120000 		.4byte	0x12f4
 4478 12d3 1D       		.uleb128 0x1d
 4479 12d4 6E050000 		.4byte	.LASF127
 4480 12d8 01       		.byte	0x1
 4481 12d9 BD05     		.2byte	0x5bd
 4482 12db 4D120000 		.4byte	0x124d
 4483 12df E4110000 		.4byte	.LLST94
 4484 12e3 1E       		.uleb128 0x1e
ARM GAS  C:\Users\kiwamu\AppData\Local\Temp\ccj1MWYe.s 			page 108


 4485 12e4 E20A0000 		.4byte	.LASF119
 4486 12e8 01       		.byte	0x1
 4487 12e9 BF05     		.2byte	0x5bf
 4488 12eb 9B050000 		.4byte	0x59b
 4489 12ef 1E120000 		.4byte	.LLST95
 4490 12f3 00       		.byte	0
 4491 12f4 1C       		.uleb128 0x1c
 4492 12f5 D2000000 		.4byte	.LASF160
 4493 12f9 01       		.byte	0x1
 4494 12fa DF05     		.2byte	0x5df
 4495 12fc 9B050000 		.4byte	0x59b
 4496 1300 00000000 		.4byte	.LFB67
 4497 1304 1C000000 		.4byte	.LFE67-.LFB67
 4498 1308 01       		.uleb128 0x1
 4499 1309 9C       		.byte	0x9c
 4500 130a 2F130000 		.4byte	0x132f
 4501 130e 1D       		.uleb128 0x1d
 4502 130f 6E050000 		.4byte	.LASF127
 4503 1313 01       		.byte	0x1
 4504 1314 DF05     		.2byte	0x5df
 4505 1316 4D120000 		.4byte	0x124d
 4506 131a 3D120000 		.4byte	.LLST96
 4507 131e 1E       		.uleb128 0x1e
 4508 131f E20A0000 		.4byte	.LASF119
 4509 1323 01       		.byte	0x1
 4510 1324 E105     		.2byte	0x5e1
 4511 1326 9B050000 		.4byte	0x59b
 4512 132a 77120000 		.4byte	.LLST97
 4513 132e 00       		.byte	0
 4514 132f 1C       		.uleb128 0x1c
 4515 1330 AA040000 		.4byte	.LASF161
 4516 1334 01       		.byte	0x1
 4517 1335 0006     		.2byte	0x600
 4518 1337 9B050000 		.4byte	0x59b
 4519 133b 00000000 		.4byte	.LFB68
 4520 133f 1C000000 		.4byte	.LFE68-.LFB68
 4521 1343 01       		.uleb128 0x1
 4522 1344 9C       		.byte	0x9c
 4523 1345 6A130000 		.4byte	0x136a
 4524 1349 1D       		.uleb128 0x1d
 4525 134a 6E050000 		.4byte	.LASF127
 4526 134e 01       		.byte	0x1
 4527 134f 0006     		.2byte	0x600
 4528 1351 4D120000 		.4byte	0x124d
 4529 1355 96120000 		.4byte	.LLST98
 4530 1359 1E       		.uleb128 0x1e
 4531 135a E20A0000 		.4byte	.LASF119
 4532 135e 01       		.byte	0x1
 4533 135f 0206     		.2byte	0x602
 4534 1361 9B050000 		.4byte	0x59b
 4535 1365 D0120000 		.4byte	.LLST99
 4536 1369 00       		.byte	0
 4537 136a 1F       		.uleb128 0x1f
 4538 136b 5D030000 		.4byte	.LASF165
 4539 136f 01       		.byte	0x1
 4540 1370 2206     		.2byte	0x622
 4541 1372 9B050000 		.4byte	0x59b
ARM GAS  C:\Users\kiwamu\AppData\Local\Temp\ccj1MWYe.s 			page 109


 4542 1376 00000000 		.4byte	.LFB69
 4543 137a 1C000000 		.4byte	.LFE69-.LFB69
 4544 137e 01       		.uleb128 0x1
 4545 137f 9C       		.byte	0x9c
 4546 1380 1D       		.uleb128 0x1d
 4547 1381 6E050000 		.4byte	.LASF127
 4548 1385 01       		.byte	0x1
 4549 1386 2206     		.2byte	0x622
 4550 1388 4D120000 		.4byte	0x124d
 4551 138c EF120000 		.4byte	.LLST100
 4552 1390 1E       		.uleb128 0x1e
 4553 1391 E20A0000 		.4byte	.LASF119
 4554 1395 01       		.byte	0x1
 4555 1396 2406     		.2byte	0x624
 4556 1398 9B050000 		.4byte	0x59b
 4557 139c 29130000 		.4byte	.LLST101
 4558 13a0 00       		.byte	0
 4559 13a1 00       		.byte	0
 4560              		.section	.debug_abbrev,"",%progbits
 4561              	.Ldebug_abbrev0:
 4562 0000 01       		.uleb128 0x1
 4563 0001 11       		.uleb128 0x11
 4564 0002 01       		.byte	0x1
 4565 0003 25       		.uleb128 0x25
 4566 0004 0E       		.uleb128 0xe
 4567 0005 13       		.uleb128 0x13
 4568 0006 0B       		.uleb128 0xb
 4569 0007 03       		.uleb128 0x3
 4570 0008 0E       		.uleb128 0xe
 4571 0009 1B       		.uleb128 0x1b
 4572 000a 0E       		.uleb128 0xe
 4573 000b 55       		.uleb128 0x55
 4574 000c 17       		.uleb128 0x17
 4575 000d 11       		.uleb128 0x11
 4576 000e 01       		.uleb128 0x1
 4577 000f 10       		.uleb128 0x10
 4578 0010 17       		.uleb128 0x17
 4579 0011 00       		.byte	0
 4580 0012 00       		.byte	0
 4581 0013 02       		.uleb128 0x2
 4582 0014 24       		.uleb128 0x24
 4583 0015 00       		.byte	0
 4584 0016 0B       		.uleb128 0xb
 4585 0017 0B       		.uleb128 0xb
 4586 0018 3E       		.uleb128 0x3e
 4587 0019 0B       		.uleb128 0xb
 4588 001a 03       		.uleb128 0x3
 4589 001b 0E       		.uleb128 0xe
 4590 001c 00       		.byte	0
 4591 001d 00       		.byte	0
 4592 001e 03       		.uleb128 0x3
 4593 001f 16       		.uleb128 0x16
 4594 0020 00       		.byte	0
 4595 0021 03       		.uleb128 0x3
 4596 0022 0E       		.uleb128 0xe
 4597 0023 3A       		.uleb128 0x3a
 4598 0024 0B       		.uleb128 0xb
ARM GAS  C:\Users\kiwamu\AppData\Local\Temp\ccj1MWYe.s 			page 110


 4599 0025 3B       		.uleb128 0x3b
 4600 0026 0B       		.uleb128 0xb
 4601 0027 49       		.uleb128 0x49
 4602 0028 13       		.uleb128 0x13
 4603 0029 00       		.byte	0
 4604 002a 00       		.byte	0
 4605 002b 04       		.uleb128 0x4
 4606 002c 24       		.uleb128 0x24
 4607 002d 00       		.byte	0
 4608 002e 0B       		.uleb128 0xb
 4609 002f 0B       		.uleb128 0xb
 4610 0030 3E       		.uleb128 0x3e
 4611 0031 0B       		.uleb128 0xb
 4612 0032 03       		.uleb128 0x3
 4613 0033 08       		.uleb128 0x8
 4614 0034 00       		.byte	0
 4615 0035 00       		.byte	0
 4616 0036 05       		.uleb128 0x5
 4617 0037 35       		.uleb128 0x35
 4618 0038 00       		.byte	0
 4619 0039 49       		.uleb128 0x49
 4620 003a 13       		.uleb128 0x13
 4621 003b 00       		.byte	0
 4622 003c 00       		.byte	0
 4623 003d 06       		.uleb128 0x6
 4624 003e 26       		.uleb128 0x26
 4625 003f 00       		.byte	0
 4626 0040 49       		.uleb128 0x49
 4627 0041 13       		.uleb128 0x13
 4628 0042 00       		.byte	0
 4629 0043 00       		.byte	0
 4630 0044 07       		.uleb128 0x7
 4631 0045 04       		.uleb128 0x4
 4632 0046 01       		.byte	0x1
 4633 0047 0B       		.uleb128 0xb
 4634 0048 0B       		.uleb128 0xb
 4635 0049 49       		.uleb128 0x49
 4636 004a 13       		.uleb128 0x13
 4637 004b 3A       		.uleb128 0x3a
 4638 004c 0B       		.uleb128 0xb
 4639 004d 3B       		.uleb128 0x3b
 4640 004e 05       		.uleb128 0x5
 4641 004f 01       		.uleb128 0x1
 4642 0050 13       		.uleb128 0x13
 4643 0051 00       		.byte	0
 4644 0052 00       		.byte	0
 4645 0053 08       		.uleb128 0x8
 4646 0054 28       		.uleb128 0x28
 4647 0055 00       		.byte	0
 4648 0056 03       		.uleb128 0x3
 4649 0057 0E       		.uleb128 0xe
 4650 0058 1C       		.uleb128 0x1c
 4651 0059 0B       		.uleb128 0xb
 4652 005a 00       		.byte	0
 4653 005b 00       		.byte	0
 4654 005c 09       		.uleb128 0x9
 4655 005d 16       		.uleb128 0x16
ARM GAS  C:\Users\kiwamu\AppData\Local\Temp\ccj1MWYe.s 			page 111


 4656 005e 00       		.byte	0
 4657 005f 03       		.uleb128 0x3
 4658 0060 0E       		.uleb128 0xe
 4659 0061 3A       		.uleb128 0x3a
 4660 0062 0B       		.uleb128 0xb
 4661 0063 3B       		.uleb128 0x3b
 4662 0064 05       		.uleb128 0x5
 4663 0065 49       		.uleb128 0x49
 4664 0066 13       		.uleb128 0x13
 4665 0067 00       		.byte	0
 4666 0068 00       		.byte	0
 4667 0069 0A       		.uleb128 0xa
 4668 006a 01       		.uleb128 0x1
 4669 006b 01       		.byte	0x1
 4670 006c 49       		.uleb128 0x49
 4671 006d 13       		.uleb128 0x13
 4672 006e 01       		.uleb128 0x1
 4673 006f 13       		.uleb128 0x13
 4674 0070 00       		.byte	0
 4675 0071 00       		.byte	0
 4676 0072 0B       		.uleb128 0xb
 4677 0073 21       		.uleb128 0x21
 4678 0074 00       		.byte	0
 4679 0075 49       		.uleb128 0x49
 4680 0076 13       		.uleb128 0x13
 4681 0077 2F       		.uleb128 0x2f
 4682 0078 0B       		.uleb128 0xb
 4683 0079 00       		.byte	0
 4684 007a 00       		.byte	0
 4685 007b 0C       		.uleb128 0xc
 4686 007c 13       		.uleb128 0x13
 4687 007d 01       		.byte	0x1
 4688 007e 0B       		.uleb128 0xb
 4689 007f 0B       		.uleb128 0xb
 4690 0080 3A       		.uleb128 0x3a
 4691 0081 0B       		.uleb128 0xb
 4692 0082 3B       		.uleb128 0x3b
 4693 0083 0B       		.uleb128 0xb
 4694 0084 01       		.uleb128 0x1
 4695 0085 13       		.uleb128 0x13
 4696 0086 00       		.byte	0
 4697 0087 00       		.byte	0
 4698 0088 0D       		.uleb128 0xd
 4699 0089 0D       		.uleb128 0xd
 4700 008a 00       		.byte	0
 4701 008b 03       		.uleb128 0x3
 4702 008c 0E       		.uleb128 0xe
 4703 008d 3A       		.uleb128 0x3a
 4704 008e 0B       		.uleb128 0xb
 4705 008f 3B       		.uleb128 0x3b
 4706 0090 0B       		.uleb128 0xb
 4707 0091 49       		.uleb128 0x49
 4708 0092 13       		.uleb128 0x13
 4709 0093 38       		.uleb128 0x38
 4710 0094 0B       		.uleb128 0xb
 4711 0095 00       		.byte	0
 4712 0096 00       		.byte	0
ARM GAS  C:\Users\kiwamu\AppData\Local\Temp\ccj1MWYe.s 			page 112


 4713 0097 0E       		.uleb128 0xe
 4714 0098 13       		.uleb128 0x13
 4715 0099 01       		.byte	0x1
 4716 009a 0B       		.uleb128 0xb
 4717 009b 05       		.uleb128 0x5
 4718 009c 3A       		.uleb128 0x3a
 4719 009d 0B       		.uleb128 0xb
 4720 009e 3B       		.uleb128 0x3b
 4721 009f 0B       		.uleb128 0xb
 4722 00a0 01       		.uleb128 0x1
 4723 00a1 13       		.uleb128 0x13
 4724 00a2 00       		.byte	0
 4725 00a3 00       		.byte	0
 4726 00a4 0F       		.uleb128 0xf
 4727 00a5 0D       		.uleb128 0xd
 4728 00a6 00       		.byte	0
 4729 00a7 03       		.uleb128 0x3
 4730 00a8 0E       		.uleb128 0xe
 4731 00a9 3A       		.uleb128 0x3a
 4732 00aa 0B       		.uleb128 0xb
 4733 00ab 3B       		.uleb128 0x3b
 4734 00ac 0B       		.uleb128 0xb
 4735 00ad 49       		.uleb128 0x49
 4736 00ae 13       		.uleb128 0x13
 4737 00af 38       		.uleb128 0x38
 4738 00b0 05       		.uleb128 0x5
 4739 00b1 00       		.byte	0
 4740 00b2 00       		.byte	0
 4741 00b3 10       		.uleb128 0x10
 4742 00b4 21       		.uleb128 0x21
 4743 00b5 00       		.byte	0
 4744 00b6 49       		.uleb128 0x49
 4745 00b7 13       		.uleb128 0x13
 4746 00b8 2F       		.uleb128 0x2f
 4747 00b9 05       		.uleb128 0x5
 4748 00ba 00       		.byte	0
 4749 00bb 00       		.byte	0
 4750 00bc 11       		.uleb128 0x11
 4751 00bd 0D       		.uleb128 0xd
 4752 00be 00       		.byte	0
 4753 00bf 03       		.uleb128 0x3
 4754 00c0 08       		.uleb128 0x8
 4755 00c1 3A       		.uleb128 0x3a
 4756 00c2 0B       		.uleb128 0xb
 4757 00c3 3B       		.uleb128 0x3b
 4758 00c4 0B       		.uleb128 0xb
 4759 00c5 49       		.uleb128 0x49
 4760 00c6 13       		.uleb128 0x13
 4761 00c7 38       		.uleb128 0x38
 4762 00c8 0B       		.uleb128 0xb
 4763 00c9 00       		.byte	0
 4764 00ca 00       		.byte	0
 4765 00cb 12       		.uleb128 0x12
 4766 00cc 04       		.uleb128 0x4
 4767 00cd 01       		.byte	0x1
 4768 00ce 0B       		.uleb128 0xb
 4769 00cf 0B       		.uleb128 0xb
ARM GAS  C:\Users\kiwamu\AppData\Local\Temp\ccj1MWYe.s 			page 113


 4770 00d0 49       		.uleb128 0x49
 4771 00d1 13       		.uleb128 0x13
 4772 00d2 3A       		.uleb128 0x3a
 4773 00d3 0B       		.uleb128 0xb
 4774 00d4 3B       		.uleb128 0x3b
 4775 00d5 0B       		.uleb128 0xb
 4776 00d6 01       		.uleb128 0x1
 4777 00d7 13       		.uleb128 0x13
 4778 00d8 00       		.byte	0
 4779 00d9 00       		.byte	0
 4780 00da 13       		.uleb128 0x13
 4781 00db 28       		.uleb128 0x28
 4782 00dc 00       		.byte	0
 4783 00dd 03       		.uleb128 0x3
 4784 00de 0E       		.uleb128 0xe
 4785 00df 1C       		.uleb128 0x1c
 4786 00e0 06       		.uleb128 0x6
 4787 00e1 00       		.byte	0
 4788 00e2 00       		.byte	0
 4789 00e3 14       		.uleb128 0x14
 4790 00e4 13       		.uleb128 0x13
 4791 00e5 01       		.byte	0x1
 4792 00e6 0B       		.uleb128 0xb
 4793 00e7 0B       		.uleb128 0xb
 4794 00e8 3A       		.uleb128 0x3a
 4795 00e9 0B       		.uleb128 0xb
 4796 00ea 3B       		.uleb128 0x3b
 4797 00eb 05       		.uleb128 0x5
 4798 00ec 01       		.uleb128 0x1
 4799 00ed 13       		.uleb128 0x13
 4800 00ee 00       		.byte	0
 4801 00ef 00       		.byte	0
 4802 00f0 15       		.uleb128 0x15
 4803 00f1 0D       		.uleb128 0xd
 4804 00f2 00       		.byte	0
 4805 00f3 03       		.uleb128 0x3
 4806 00f4 0E       		.uleb128 0xe
 4807 00f5 3A       		.uleb128 0x3a
 4808 00f6 0B       		.uleb128 0xb
 4809 00f7 3B       		.uleb128 0x3b
 4810 00f8 05       		.uleb128 0x5
 4811 00f9 49       		.uleb128 0x49
 4812 00fa 13       		.uleb128 0x13
 4813 00fb 38       		.uleb128 0x38
 4814 00fc 0B       		.uleb128 0xb
 4815 00fd 00       		.byte	0
 4816 00fe 00       		.byte	0
 4817 00ff 16       		.uleb128 0x16
 4818 0100 0F       		.uleb128 0xf
 4819 0101 00       		.byte	0
 4820 0102 0B       		.uleb128 0xb
 4821 0103 0B       		.uleb128 0xb
 4822 0104 49       		.uleb128 0x49
 4823 0105 13       		.uleb128 0x13
 4824 0106 00       		.byte	0
 4825 0107 00       		.byte	0
 4826 0108 17       		.uleb128 0x17
ARM GAS  C:\Users\kiwamu\AppData\Local\Temp\ccj1MWYe.s 			page 114


 4827 0109 2E       		.uleb128 0x2e
 4828 010a 01       		.byte	0x1
 4829 010b 3F       		.uleb128 0x3f
 4830 010c 19       		.uleb128 0x19
 4831 010d 03       		.uleb128 0x3
 4832 010e 0E       		.uleb128 0xe
 4833 010f 3A       		.uleb128 0x3a
 4834 0110 0B       		.uleb128 0xb
 4835 0111 3B       		.uleb128 0x3b
 4836 0112 0B       		.uleb128 0xb
 4837 0113 27       		.uleb128 0x27
 4838 0114 19       		.uleb128 0x19
 4839 0115 49       		.uleb128 0x49
 4840 0116 13       		.uleb128 0x13
 4841 0117 11       		.uleb128 0x11
 4842 0118 01       		.uleb128 0x1
 4843 0119 12       		.uleb128 0x12
 4844 011a 06       		.uleb128 0x6
 4845 011b 40       		.uleb128 0x40
 4846 011c 18       		.uleb128 0x18
 4847 011d 9742     		.uleb128 0x2117
 4848 011f 19       		.uleb128 0x19
 4849 0120 01       		.uleb128 0x1
 4850 0121 13       		.uleb128 0x13
 4851 0122 00       		.byte	0
 4852 0123 00       		.byte	0
 4853 0124 18       		.uleb128 0x18
 4854 0125 05       		.uleb128 0x5
 4855 0126 00       		.byte	0
 4856 0127 03       		.uleb128 0x3
 4857 0128 0E       		.uleb128 0xe
 4858 0129 3A       		.uleb128 0x3a
 4859 012a 0B       		.uleb128 0xb
 4860 012b 3B       		.uleb128 0x3b
 4861 012c 0B       		.uleb128 0xb
 4862 012d 49       		.uleb128 0x49
 4863 012e 13       		.uleb128 0x13
 4864 012f 02       		.uleb128 0x2
 4865 0130 17       		.uleb128 0x17
 4866 0131 00       		.byte	0
 4867 0132 00       		.byte	0
 4868 0133 19       		.uleb128 0x19
 4869 0134 34       		.uleb128 0x34
 4870 0135 00       		.byte	0
 4871 0136 03       		.uleb128 0x3
 4872 0137 0E       		.uleb128 0xe
 4873 0138 3A       		.uleb128 0x3a
 4874 0139 0B       		.uleb128 0xb
 4875 013a 3B       		.uleb128 0x3b
 4876 013b 0B       		.uleb128 0xb
 4877 013c 49       		.uleb128 0x49
 4878 013d 13       		.uleb128 0x13
 4879 013e 02       		.uleb128 0x2
 4880 013f 17       		.uleb128 0x17
 4881 0140 00       		.byte	0
 4882 0141 00       		.byte	0
 4883 0142 1A       		.uleb128 0x1a
ARM GAS  C:\Users\kiwamu\AppData\Local\Temp\ccj1MWYe.s 			page 115


 4884 0143 05       		.uleb128 0x5
 4885 0144 00       		.byte	0
 4886 0145 03       		.uleb128 0x3
 4887 0146 08       		.uleb128 0x8
 4888 0147 3A       		.uleb128 0x3a
 4889 0148 0B       		.uleb128 0xb
 4890 0149 3B       		.uleb128 0x3b
 4891 014a 0B       		.uleb128 0xb
 4892 014b 49       		.uleb128 0x49
 4893 014c 13       		.uleb128 0x13
 4894 014d 02       		.uleb128 0x2
 4895 014e 18       		.uleb128 0x18
 4896 014f 00       		.byte	0
 4897 0150 00       		.byte	0
 4898 0151 1B       		.uleb128 0x1b
 4899 0152 34       		.uleb128 0x34
 4900 0153 00       		.byte	0
 4901 0154 03       		.uleb128 0x3
 4902 0155 0E       		.uleb128 0xe
 4903 0156 3A       		.uleb128 0x3a
 4904 0157 0B       		.uleb128 0xb
 4905 0158 3B       		.uleb128 0x3b
 4906 0159 0B       		.uleb128 0xb
 4907 015a 49       		.uleb128 0x49
 4908 015b 13       		.uleb128 0x13
 4909 015c 02       		.uleb128 0x2
 4910 015d 18       		.uleb128 0x18
 4911 015e 00       		.byte	0
 4912 015f 00       		.byte	0
 4913 0160 1C       		.uleb128 0x1c
 4914 0161 2E       		.uleb128 0x2e
 4915 0162 01       		.byte	0x1
 4916 0163 3F       		.uleb128 0x3f
 4917 0164 19       		.uleb128 0x19
 4918 0165 03       		.uleb128 0x3
 4919 0166 0E       		.uleb128 0xe
 4920 0167 3A       		.uleb128 0x3a
 4921 0168 0B       		.uleb128 0xb
 4922 0169 3B       		.uleb128 0x3b
 4923 016a 05       		.uleb128 0x5
 4924 016b 27       		.uleb128 0x27
 4925 016c 19       		.uleb128 0x19
 4926 016d 49       		.uleb128 0x49
 4927 016e 13       		.uleb128 0x13
 4928 016f 11       		.uleb128 0x11
 4929 0170 01       		.uleb128 0x1
 4930 0171 12       		.uleb128 0x12
 4931 0172 06       		.uleb128 0x6
 4932 0173 40       		.uleb128 0x40
 4933 0174 18       		.uleb128 0x18
 4934 0175 9742     		.uleb128 0x2117
 4935 0177 19       		.uleb128 0x19
 4936 0178 01       		.uleb128 0x1
 4937 0179 13       		.uleb128 0x13
 4938 017a 00       		.byte	0
 4939 017b 00       		.byte	0
 4940 017c 1D       		.uleb128 0x1d
ARM GAS  C:\Users\kiwamu\AppData\Local\Temp\ccj1MWYe.s 			page 116


 4941 017d 05       		.uleb128 0x5
 4942 017e 00       		.byte	0
 4943 017f 03       		.uleb128 0x3
 4944 0180 0E       		.uleb128 0xe
 4945 0181 3A       		.uleb128 0x3a
 4946 0182 0B       		.uleb128 0xb
 4947 0183 3B       		.uleb128 0x3b
 4948 0184 05       		.uleb128 0x5
 4949 0185 49       		.uleb128 0x49
 4950 0186 13       		.uleb128 0x13
 4951 0187 02       		.uleb128 0x2
 4952 0188 17       		.uleb128 0x17
 4953 0189 00       		.byte	0
 4954 018a 00       		.byte	0
 4955 018b 1E       		.uleb128 0x1e
 4956 018c 34       		.uleb128 0x34
 4957 018d 00       		.byte	0
 4958 018e 03       		.uleb128 0x3
 4959 018f 0E       		.uleb128 0xe
 4960 0190 3A       		.uleb128 0x3a
 4961 0191 0B       		.uleb128 0xb
 4962 0192 3B       		.uleb128 0x3b
 4963 0193 05       		.uleb128 0x5
 4964 0194 49       		.uleb128 0x49
 4965 0195 13       		.uleb128 0x13
 4966 0196 02       		.uleb128 0x2
 4967 0197 17       		.uleb128 0x17
 4968 0198 00       		.byte	0
 4969 0199 00       		.byte	0
 4970 019a 1F       		.uleb128 0x1f
 4971 019b 2E       		.uleb128 0x2e
 4972 019c 01       		.byte	0x1
 4973 019d 3F       		.uleb128 0x3f
 4974 019e 19       		.uleb128 0x19
 4975 019f 03       		.uleb128 0x3
 4976 01a0 0E       		.uleb128 0xe
 4977 01a1 3A       		.uleb128 0x3a
 4978 01a2 0B       		.uleb128 0xb
 4979 01a3 3B       		.uleb128 0x3b
 4980 01a4 05       		.uleb128 0x5
 4981 01a5 27       		.uleb128 0x27
 4982 01a6 19       		.uleb128 0x19
 4983 01a7 49       		.uleb128 0x49
 4984 01a8 13       		.uleb128 0x13
 4985 01a9 11       		.uleb128 0x11
 4986 01aa 01       		.uleb128 0x1
 4987 01ab 12       		.uleb128 0x12
 4988 01ac 06       		.uleb128 0x6
 4989 01ad 40       		.uleb128 0x40
 4990 01ae 18       		.uleb128 0x18
 4991 01af 9742     		.uleb128 0x2117
 4992 01b1 19       		.uleb128 0x19
 4993 01b2 00       		.byte	0
 4994 01b3 00       		.byte	0
 4995 01b4 00       		.byte	0
 4996              		.section	.debug_loc,"",%progbits
 4997              	.Ldebug_loc0:
ARM GAS  C:\Users\kiwamu\AppData\Local\Temp\ccj1MWYe.s 			page 117


 4998              	.LLST0:
 4999 0000 00000000 		.4byte	.LVL0
 5000 0004 04000000 		.4byte	.LVL2
 5001 0008 0100     		.2byte	0x1
 5002 000a 50       		.byte	0x50
 5003 000b 04000000 		.4byte	.LVL2
 5004 000f 38000000 		.4byte	.LFE34
 5005 0013 0400     		.2byte	0x4
 5006 0015 F3       		.byte	0xf3
 5007 0016 01       		.uleb128 0x1
 5008 0017 50       		.byte	0x50
 5009 0018 9F       		.byte	0x9f
 5010 0019 00000000 		.4byte	0
 5011 001d 00000000 		.4byte	0
 5012              	.LLST1:
 5013 0021 00000000 		.4byte	.LVL0
 5014 0025 20000000 		.4byte	.LVL5
 5015 0029 0100     		.2byte	0x1
 5016 002b 51       		.byte	0x51
 5017 002c 20000000 		.4byte	.LVL5
 5018 0030 2A000000 		.4byte	.LVL9
 5019 0034 0400     		.2byte	0x4
 5020 0036 F3       		.byte	0xf3
 5021 0037 01       		.uleb128 0x1
 5022 0038 51       		.byte	0x51
 5023 0039 9F       		.byte	0x9f
 5024 003a 2A000000 		.4byte	.LVL9
 5025 003e 2C000000 		.4byte	.LVL10
 5026 0042 0100     		.2byte	0x1
 5027 0044 51       		.byte	0x51
 5028 0045 2C000000 		.4byte	.LVL10
 5029 0049 38000000 		.4byte	.LFE34
 5030 004d 0400     		.2byte	0x4
 5031 004f F3       		.byte	0xf3
 5032 0050 01       		.uleb128 0x1
 5033 0051 51       		.byte	0x51
 5034 0052 9F       		.byte	0x9f
 5035 0053 00000000 		.4byte	0
 5036 0057 00000000 		.4byte	0
 5037              	.LLST2:
 5038 005b 00000000 		.4byte	.LVL0
 5039 005f 16000000 		.4byte	.LVL4
 5040 0063 0100     		.2byte	0x1
 5041 0065 52       		.byte	0x52
 5042 0066 16000000 		.4byte	.LVL4
 5043 006a 2A000000 		.4byte	.LVL9
 5044 006e 0400     		.2byte	0x4
 5045 0070 F3       		.byte	0xf3
 5046 0071 01       		.uleb128 0x1
 5047 0072 52       		.byte	0x52
 5048 0073 9F       		.byte	0x9f
 5049 0074 2A000000 		.4byte	.LVL9
 5050 0078 2C000000 		.4byte	.LVL10
 5051 007c 0100     		.2byte	0x1
 5052 007e 52       		.byte	0x52
 5053 007f 2C000000 		.4byte	.LVL10
 5054 0083 38000000 		.4byte	.LFE34
ARM GAS  C:\Users\kiwamu\AppData\Local\Temp\ccj1MWYe.s 			page 118


 5055 0087 0400     		.2byte	0x4
 5056 0089 F3       		.byte	0xf3
 5057 008a 01       		.uleb128 0x1
 5058 008b 52       		.byte	0x52
 5059 008c 9F       		.byte	0x9f
 5060 008d 00000000 		.4byte	0
 5061 0091 00000000 		.4byte	0
 5062              	.LLST3:
 5063 0095 00000000 		.4byte	.LVL0
 5064 0099 22000000 		.4byte	.LVL6
 5065 009d 0100     		.2byte	0x1
 5066 009f 53       		.byte	0x53
 5067 00a0 22000000 		.4byte	.LVL6
 5068 00a4 2A000000 		.4byte	.LVL9
 5069 00a8 0400     		.2byte	0x4
 5070 00aa F3       		.byte	0xf3
 5071 00ab 01       		.uleb128 0x1
 5072 00ac 53       		.byte	0x53
 5073 00ad 9F       		.byte	0x9f
 5074 00ae 2A000000 		.4byte	.LVL9
 5075 00b2 2C000000 		.4byte	.LVL10
 5076 00b6 0100     		.2byte	0x1
 5077 00b8 53       		.byte	0x53
 5078 00b9 2C000000 		.4byte	.LVL10
 5079 00bd 38000000 		.4byte	.LFE34
 5080 00c1 0400     		.2byte	0x4
 5081 00c3 F3       		.byte	0xf3
 5082 00c4 01       		.uleb128 0x1
 5083 00c5 53       		.byte	0x53
 5084 00c6 9F       		.byte	0x9f
 5085 00c7 00000000 		.4byte	0
 5086 00cb 00000000 		.4byte	0
 5087              	.LLST4:
 5088 00cf 02000000 		.4byte	.LVL1
 5089 00d3 2C000000 		.4byte	.LVL10
 5090 00d7 0200     		.2byte	0x2
 5091 00d9 30       		.byte	0x30
 5092 00da 9F       		.byte	0x9f
 5093 00db 2C000000 		.4byte	.LVL10
 5094 00df 38000000 		.4byte	.LFE34
 5095 00e3 0100     		.2byte	0x1
 5096 00e5 50       		.byte	0x50
 5097 00e6 00000000 		.4byte	0
 5098 00ea 00000000 		.4byte	0
 5099              	.LLST5:
 5100 00ee 24000000 		.4byte	.LVL7
 5101 00f2 2A000000 		.4byte	.LVL9
 5102 00f6 0100     		.2byte	0x1
 5103 00f8 53       		.byte	0x53
 5104 00f9 00000000 		.4byte	0
 5105 00fd 00000000 		.4byte	0
 5106              	.LLST6:
 5107 0101 0A000000 		.4byte	.LVL3
 5108 0105 28000000 		.4byte	.LVL8
 5109 0109 0100     		.2byte	0x1
 5110 010b 50       		.byte	0x50
 5111 010c 2A000000 		.4byte	.LVL9
ARM GAS  C:\Users\kiwamu\AppData\Local\Temp\ccj1MWYe.s 			page 119


 5112 0110 2C000000 		.4byte	.LVL10
 5113 0114 0100     		.2byte	0x1
 5114 0116 50       		.byte	0x50
 5115 0117 00000000 		.4byte	0
 5116 011b 00000000 		.4byte	0
 5117              	.LLST7:
 5118 011f 00000000 		.4byte	.LVL11
 5119 0123 04000000 		.4byte	.LVL13
 5120 0127 0100     		.2byte	0x1
 5121 0129 50       		.byte	0x50
 5122 012a 04000000 		.4byte	.LVL13
 5123 012e 40000000 		.4byte	.LFE35
 5124 0132 0400     		.2byte	0x4
 5125 0134 F3       		.byte	0xf3
 5126 0135 01       		.uleb128 0x1
 5127 0136 50       		.byte	0x50
 5128 0137 9F       		.byte	0x9f
 5129 0138 00000000 		.4byte	0
 5130 013c 00000000 		.4byte	0
 5131              	.LLST8:
 5132 0140 02000000 		.4byte	.LVL12
 5133 0144 32000000 		.4byte	.LVL19
 5134 0148 0200     		.2byte	0x2
 5135 014a 30       		.byte	0x30
 5136 014b 9F       		.byte	0x9f
 5137 014c 32000000 		.4byte	.LVL19
 5138 0150 40000000 		.4byte	.LFE35
 5139 0154 0100     		.2byte	0x1
 5140 0156 50       		.byte	0x50
 5141 0157 00000000 		.4byte	0
 5142 015b 00000000 		.4byte	0
 5143              	.LLST9:
 5144 015f 0A000000 		.4byte	.LVL14
 5145 0163 2A000000 		.4byte	.LVL15
 5146 0167 0100     		.2byte	0x1
 5147 0169 50       		.byte	0x50
 5148 016a 2C000000 		.4byte	.LVL16
 5149 016e 2E000000 		.4byte	.LVL17
 5150 0172 0100     		.2byte	0x1
 5151 0174 50       		.byte	0x50
 5152 0175 30000000 		.4byte	.LVL18
 5153 0179 32000000 		.4byte	.LVL19
 5154 017d 0100     		.2byte	0x1
 5155 017f 50       		.byte	0x50
 5156 0180 00000000 		.4byte	0
 5157 0184 00000000 		.4byte	0
 5158              	.LLST10:
 5159 0188 00000000 		.4byte	.LVL20
 5160 018c 02000000 		.4byte	.LVL21
 5161 0190 0100     		.2byte	0x1
 5162 0192 50       		.byte	0x50
 5163 0193 02000000 		.4byte	.LVL21
 5164 0197 14000000 		.4byte	.LFE36
 5165 019b 0400     		.2byte	0x4
 5166 019d F3       		.byte	0xf3
 5167 019e 01       		.uleb128 0x1
 5168 019f 50       		.byte	0x50
ARM GAS  C:\Users\kiwamu\AppData\Local\Temp\ccj1MWYe.s 			page 120


 5169 01a0 9F       		.byte	0x9f
 5170 01a1 00000000 		.4byte	0
 5171 01a5 00000000 		.4byte	0
 5172              	.LLST11:
 5173 01a9 08000000 		.4byte	.LVL22
 5174 01ad 0C000000 		.4byte	.LVL23
 5175 01b1 0100     		.2byte	0x1
 5176 01b3 50       		.byte	0x50
 5177 01b4 00000000 		.4byte	0
 5178 01b8 00000000 		.4byte	0
 5179              	.LLST12:
 5180 01bc 00000000 		.4byte	.LVL24
 5181 01c0 4C000000 		.4byte	.LVL29
 5182 01c4 0100     		.2byte	0x1
 5183 01c6 50       		.byte	0x50
 5184 01c7 4C000000 		.4byte	.LVL29
 5185 01cb 4E000000 		.4byte	.LVL30
 5186 01cf 0400     		.2byte	0x4
 5187 01d1 F3       		.byte	0xf3
 5188 01d2 01       		.uleb128 0x1
 5189 01d3 50       		.byte	0x50
 5190 01d4 9F       		.byte	0x9f
 5191 01d5 4E000000 		.4byte	.LVL30
 5192 01d9 50000000 		.4byte	.LVL31
 5193 01dd 0100     		.2byte	0x1
 5194 01df 50       		.byte	0x50
 5195 01e0 50000000 		.4byte	.LVL31
 5196 01e4 52000000 		.4byte	.LVL32
 5197 01e8 0400     		.2byte	0x4
 5198 01ea F3       		.byte	0xf3
 5199 01eb 01       		.uleb128 0x1
 5200 01ec 50       		.byte	0x50
 5201 01ed 9F       		.byte	0x9f
 5202 01ee 52000000 		.4byte	.LVL32
 5203 01f2 54000000 		.4byte	.LVL33
 5204 01f6 0100     		.2byte	0x1
 5205 01f8 50       		.byte	0x50
 5206 01f9 54000000 		.4byte	.LVL33
 5207 01fd 5C000000 		.4byte	.LFE37
 5208 0201 0400     		.2byte	0x4
 5209 0203 F3       		.byte	0xf3
 5210 0204 01       		.uleb128 0x1
 5211 0205 50       		.byte	0x50
 5212 0206 9F       		.byte	0x9f
 5213 0207 00000000 		.4byte	0
 5214 020b 00000000 		.4byte	0
 5215              	.LLST13:
 5216 020f 00000000 		.4byte	.LVL24
 5217 0213 34000000 		.4byte	.LVL27
 5218 0217 0100     		.2byte	0x1
 5219 0219 51       		.byte	0x51
 5220 021a 34000000 		.4byte	.LVL27
 5221 021e 5C000000 		.4byte	.LFE37
 5222 0222 0400     		.2byte	0x4
 5223 0224 F3       		.byte	0xf3
 5224 0225 01       		.uleb128 0x1
 5225 0226 51       		.byte	0x51
ARM GAS  C:\Users\kiwamu\AppData\Local\Temp\ccj1MWYe.s 			page 121


 5226 0227 9F       		.byte	0x9f
 5227 0228 00000000 		.4byte	0
 5228 022c 00000000 		.4byte	0
 5229              	.LLST14:
 5230 0230 02000000 		.4byte	.LVL25
 5231 0234 54000000 		.4byte	.LVL33
 5232 0238 0200     		.2byte	0x2
 5233 023a 30       		.byte	0x30
 5234 023b 9F       		.byte	0x9f
 5235 023c 54000000 		.4byte	.LVL33
 5236 0240 5C000000 		.4byte	.LFE37
 5237 0244 0100     		.2byte	0x1
 5238 0246 50       		.byte	0x50
 5239 0247 00000000 		.4byte	0
 5240 024b 00000000 		.4byte	0
 5241              	.LLST15:
 5242 024f 0C000000 		.4byte	.LVL26
 5243 0253 54000000 		.4byte	.LVL34
 5244 0257 0100     		.2byte	0x1
 5245 0259 55       		.byte	0x55
 5246 025a 54000000 		.4byte	.LVL34
 5247 025e 5C000000 		.4byte	.LFE37
 5248 0262 0300     		.2byte	0x3
 5249 0264 F3       		.byte	0xf3
 5250 0265 01       		.uleb128 0x1
 5251 0266 50       		.byte	0x50
 5252 0267 00000000 		.4byte	0
 5253 026b 00000000 		.4byte	0
 5254              	.LLST16:
 5255 026f 00000000 		.4byte	.LVL35
 5256 0273 12000000 		.4byte	.LVL36
 5257 0277 0100     		.2byte	0x1
 5258 0279 50       		.byte	0x50
 5259 027a 12000000 		.4byte	.LVL36
 5260 027e 14000000 		.4byte	.LVL37
 5261 0282 0400     		.2byte	0x4
 5262 0284 F3       		.byte	0xf3
 5263 0285 01       		.uleb128 0x1
 5264 0286 50       		.byte	0x50
 5265 0287 9F       		.byte	0x9f
 5266 0288 14000000 		.4byte	.LVL37
 5267 028c 16000000 		.4byte	.LVL38
 5268 0290 0100     		.2byte	0x1
 5269 0292 50       		.byte	0x50
 5270 0293 16000000 		.4byte	.LVL38
 5271 0297 1C000000 		.4byte	.LFE38
 5272 029b 0400     		.2byte	0x4
 5273 029d F3       		.byte	0xf3
 5274 029e 01       		.uleb128 0x1
 5275 029f 50       		.byte	0x50
 5276 02a0 9F       		.byte	0x9f
 5277 02a1 00000000 		.4byte	0
 5278 02a5 00000000 		.4byte	0
 5279              	.LLST17:
 5280 02a9 00000000 		.4byte	.LVL35
 5281 02ad 16000000 		.4byte	.LVL38
 5282 02b1 0200     		.2byte	0x2
ARM GAS  C:\Users\kiwamu\AppData\Local\Temp\ccj1MWYe.s 			page 122


 5283 02b3 30       		.byte	0x30
 5284 02b4 9F       		.byte	0x9f
 5285 02b5 16000000 		.4byte	.LVL38
 5286 02b9 1C000000 		.4byte	.LFE38
 5287 02bd 0100     		.2byte	0x1
 5288 02bf 50       		.byte	0x50
 5289 02c0 00000000 		.4byte	0
 5290 02c4 00000000 		.4byte	0
 5291              	.LLST18:
 5292 02c8 00000000 		.4byte	.LVL39
 5293 02cc 10000000 		.4byte	.LVL40
 5294 02d0 0100     		.2byte	0x1
 5295 02d2 50       		.byte	0x50
 5296 02d3 10000000 		.4byte	.LVL40
 5297 02d7 12000000 		.4byte	.LVL41
 5298 02db 0400     		.2byte	0x4
 5299 02dd F3       		.byte	0xf3
 5300 02de 01       		.uleb128 0x1
 5301 02df 50       		.byte	0x50
 5302 02e0 9F       		.byte	0x9f
 5303 02e1 12000000 		.4byte	.LVL41
 5304 02e5 14000000 		.4byte	.LVL42
 5305 02e9 0100     		.2byte	0x1
 5306 02eb 50       		.byte	0x50
 5307 02ec 14000000 		.4byte	.LVL42
 5308 02f0 1C000000 		.4byte	.LFE39
 5309 02f4 0400     		.2byte	0x4
 5310 02f6 F3       		.byte	0xf3
 5311 02f7 01       		.uleb128 0x1
 5312 02f8 50       		.byte	0x50
 5313 02f9 9F       		.byte	0x9f
 5314 02fa 00000000 		.4byte	0
 5315 02fe 00000000 		.4byte	0
 5316              	.LLST19:
 5317 0302 00000000 		.4byte	.LVL39
 5318 0306 14000000 		.4byte	.LVL42
 5319 030a 0200     		.2byte	0x2
 5320 030c 30       		.byte	0x30
 5321 030d 9F       		.byte	0x9f
 5322 030e 14000000 		.4byte	.LVL42
 5323 0312 1C000000 		.4byte	.LFE39
 5324 0316 0100     		.2byte	0x1
 5325 0318 50       		.byte	0x50
 5326 0319 00000000 		.4byte	0
 5327 031d 00000000 		.4byte	0
 5328              	.LLST20:
 5329 0321 00000000 		.4byte	.LVL43
 5330 0325 5C000000 		.4byte	.LVL47
 5331 0329 0100     		.2byte	0x1
 5332 032b 50       		.byte	0x50
 5333 032c 5C000000 		.4byte	.LVL47
 5334 0330 5E000000 		.4byte	.LVL48
 5335 0334 0400     		.2byte	0x4
 5336 0336 F3       		.byte	0xf3
 5337 0337 01       		.uleb128 0x1
 5338 0338 50       		.byte	0x50
 5339 0339 9F       		.byte	0x9f
ARM GAS  C:\Users\kiwamu\AppData\Local\Temp\ccj1MWYe.s 			page 123


 5340 033a 5E000000 		.4byte	.LVL48
 5341 033e 60000000 		.4byte	.LVL49
 5342 0342 0100     		.2byte	0x1
 5343 0344 50       		.byte	0x50
 5344 0345 60000000 		.4byte	.LVL49
 5345 0349 62000000 		.4byte	.LVL50
 5346 034d 0400     		.2byte	0x4
 5347 034f F3       		.byte	0xf3
 5348 0350 01       		.uleb128 0x1
 5349 0351 50       		.byte	0x50
 5350 0352 9F       		.byte	0x9f
 5351 0353 62000000 		.4byte	.LVL50
 5352 0357 64000000 		.4byte	.LVL51
 5353 035b 0100     		.2byte	0x1
 5354 035d 50       		.byte	0x50
 5355 035e 64000000 		.4byte	.LVL51
 5356 0362 66000000 		.4byte	.LVL52
 5357 0366 0400     		.2byte	0x4
 5358 0368 F3       		.byte	0xf3
 5359 0369 01       		.uleb128 0x1
 5360 036a 50       		.byte	0x50
 5361 036b 9F       		.byte	0x9f
 5362 036c 66000000 		.4byte	.LVL52
 5363 0370 68000000 		.4byte	.LVL53
 5364 0374 0100     		.2byte	0x1
 5365 0376 50       		.byte	0x50
 5366 0377 68000000 		.4byte	.LVL53
 5367 037b 7C000000 		.4byte	.LFE40
 5368 037f 0400     		.2byte	0x4
 5369 0381 F3       		.byte	0xf3
 5370 0382 01       		.uleb128 0x1
 5371 0383 50       		.byte	0x50
 5372 0384 9F       		.byte	0x9f
 5373 0385 00000000 		.4byte	0
 5374 0389 00000000 		.4byte	0
 5375              	.LLST21:
 5376 038d 00000000 		.4byte	.LVL43
 5377 0391 3C000000 		.4byte	.LVL45
 5378 0395 0100     		.2byte	0x1
 5379 0397 51       		.byte	0x51
 5380 0398 3C000000 		.4byte	.LVL45
 5381 039c 5E000000 		.4byte	.LVL48
 5382 03a0 0400     		.2byte	0x4
 5383 03a2 F3       		.byte	0xf3
 5384 03a3 01       		.uleb128 0x1
 5385 03a4 51       		.byte	0x51
 5386 03a5 9F       		.byte	0x9f
 5387 03a6 5E000000 		.4byte	.LVL48
 5388 03aa 62000000 		.4byte	.LVL50
 5389 03ae 0100     		.2byte	0x1
 5390 03b0 51       		.byte	0x51
 5391 03b1 62000000 		.4byte	.LVL50
 5392 03b5 7C000000 		.4byte	.LFE40
 5393 03b9 0400     		.2byte	0x4
 5394 03bb F3       		.byte	0xf3
 5395 03bc 01       		.uleb128 0x1
 5396 03bd 51       		.byte	0x51
ARM GAS  C:\Users\kiwamu\AppData\Local\Temp\ccj1MWYe.s 			page 124


 5397 03be 9F       		.byte	0x9f
 5398 03bf 00000000 		.4byte	0
 5399 03c3 00000000 		.4byte	0
 5400              	.LLST22:
 5401 03c7 02000000 		.4byte	.LVL44
 5402 03cb 68000000 		.4byte	.LVL53
 5403 03cf 0200     		.2byte	0x2
 5404 03d1 30       		.byte	0x30
 5405 03d2 9F       		.byte	0x9f
 5406 03d3 68000000 		.4byte	.LVL53
 5407 03d7 7C000000 		.4byte	.LFE40
 5408 03db 0100     		.2byte	0x1
 5409 03dd 50       		.byte	0x50
 5410 03de 00000000 		.4byte	0
 5411 03e2 00000000 		.4byte	0
 5412              	.LLST23:
 5413 03e6 46000000 		.4byte	.LVL46
 5414 03ea 5E000000 		.4byte	.LVL48
 5415 03ee 0100     		.2byte	0x1
 5416 03f0 53       		.byte	0x53
 5417 03f1 62000000 		.4byte	.LVL50
 5418 03f5 68000000 		.4byte	.LVL53
 5419 03f9 0100     		.2byte	0x1
 5420 03fb 53       		.byte	0x53
 5421 03fc 00000000 		.4byte	0
 5422 0400 00000000 		.4byte	0
 5423              	.LLST24:
 5424 0404 00000000 		.4byte	.LVL54
 5425 0408 78000000 		.4byte	.LVL59
 5426 040c 0100     		.2byte	0x1
 5427 040e 50       		.byte	0x50
 5428 040f 78000000 		.4byte	.LVL59
 5429 0413 7A000000 		.4byte	.LVL60
 5430 0417 0400     		.2byte	0x4
 5431 0419 F3       		.byte	0xf3
 5432 041a 01       		.uleb128 0x1
 5433 041b 50       		.byte	0x50
 5434 041c 9F       		.byte	0x9f
 5435 041d 7A000000 		.4byte	.LVL60
 5436 0421 7C000000 		.4byte	.LVL61
 5437 0425 0100     		.2byte	0x1
 5438 0427 50       		.byte	0x50
 5439 0428 7C000000 		.4byte	.LVL61
 5440 042c 7E000000 		.4byte	.LVL62
 5441 0430 0400     		.2byte	0x4
 5442 0432 F3       		.byte	0xf3
 5443 0433 01       		.uleb128 0x1
 5444 0434 50       		.byte	0x50
 5445 0435 9F       		.byte	0x9f
 5446 0436 7E000000 		.4byte	.LVL62
 5447 043a 80000000 		.4byte	.LVL63
 5448 043e 0100     		.2byte	0x1
 5449 0440 50       		.byte	0x50
 5450 0441 80000000 		.4byte	.LVL63
 5451 0445 82000000 		.4byte	.LVL64
 5452 0449 0400     		.2byte	0x4
 5453 044b F3       		.byte	0xf3
ARM GAS  C:\Users\kiwamu\AppData\Local\Temp\ccj1MWYe.s 			page 125


 5454 044c 01       		.uleb128 0x1
 5455 044d 50       		.byte	0x50
 5456 044e 9F       		.byte	0x9f
 5457 044f 82000000 		.4byte	.LVL64
 5458 0453 84000000 		.4byte	.LVL65
 5459 0457 0100     		.2byte	0x1
 5460 0459 50       		.byte	0x50
 5461 045a 84000000 		.4byte	.LVL65
 5462 045e 98000000 		.4byte	.LFE41
 5463 0462 0400     		.2byte	0x4
 5464 0464 F3       		.byte	0xf3
 5465 0465 01       		.uleb128 0x1
 5466 0466 50       		.byte	0x50
 5467 0467 9F       		.byte	0x9f
 5468 0468 00000000 		.4byte	0
 5469 046c 00000000 		.4byte	0
 5470              	.LLST25:
 5471 0470 00000000 		.4byte	.LVL54
 5472 0474 58000000 		.4byte	.LVL57
 5473 0478 0100     		.2byte	0x1
 5474 047a 51       		.byte	0x51
 5475 047b 58000000 		.4byte	.LVL57
 5476 047f 7A000000 		.4byte	.LVL60
 5477 0483 0400     		.2byte	0x4
 5478 0485 F3       		.byte	0xf3
 5479 0486 01       		.uleb128 0x1
 5480 0487 51       		.byte	0x51
 5481 0488 9F       		.byte	0x9f
 5482 0489 7A000000 		.4byte	.LVL60
 5483 048d 7E000000 		.4byte	.LVL62
 5484 0491 0100     		.2byte	0x1
 5485 0493 51       		.byte	0x51
 5486 0494 7E000000 		.4byte	.LVL62
 5487 0498 98000000 		.4byte	.LFE41
 5488 049c 0400     		.2byte	0x4
 5489 049e F3       		.byte	0xf3
 5490 049f 01       		.uleb128 0x1
 5491 04a0 51       		.byte	0x51
 5492 04a1 9F       		.byte	0x9f
 5493 04a2 00000000 		.4byte	0
 5494 04a6 00000000 		.4byte	0
 5495              	.LLST26:
 5496 04aa 02000000 		.4byte	.LVL55
 5497 04ae 84000000 		.4byte	.LVL65
 5498 04b2 0200     		.2byte	0x2
 5499 04b4 30       		.byte	0x30
 5500 04b5 9F       		.byte	0x9f
 5501 04b6 84000000 		.4byte	.LVL65
 5502 04ba 98000000 		.4byte	.LFE41
 5503 04be 0100     		.2byte	0x1
 5504 04c0 50       		.byte	0x50
 5505 04c1 00000000 		.4byte	0
 5506 04c5 00000000 		.4byte	0
 5507              	.LLST27:
 5508 04c9 18000000 		.4byte	.LVL56
 5509 04cd 7A000000 		.4byte	.LVL60
 5510 04d1 0100     		.2byte	0x1
ARM GAS  C:\Users\kiwamu\AppData\Local\Temp\ccj1MWYe.s 			page 126


 5511 04d3 56       		.byte	0x56
 5512 04d4 7E000000 		.4byte	.LVL62
 5513 04d8 84000000 		.4byte	.LVL65
 5514 04dc 0100     		.2byte	0x1
 5515 04de 56       		.byte	0x56
 5516 04df 00000000 		.4byte	0
 5517 04e3 00000000 		.4byte	0
 5518              	.LLST28:
 5519 04e7 62000000 		.4byte	.LVL58
 5520 04eb 7A000000 		.4byte	.LVL60
 5521 04ef 0100     		.2byte	0x1
 5522 04f1 53       		.byte	0x53
 5523 04f2 7E000000 		.4byte	.LVL62
 5524 04f6 84000000 		.4byte	.LVL65
 5525 04fa 0100     		.2byte	0x1
 5526 04fc 53       		.byte	0x53
 5527 04fd 00000000 		.4byte	0
 5528 0501 00000000 		.4byte	0
 5529              	.LLST29:
 5530 0505 00000000 		.4byte	.LVL66
 5531 0509 12000000 		.4byte	.LVL67
 5532 050d 0100     		.2byte	0x1
 5533 050f 50       		.byte	0x50
 5534 0510 12000000 		.4byte	.LVL67
 5535 0514 14000000 		.4byte	.LVL68
 5536 0518 0400     		.2byte	0x4
 5537 051a F3       		.byte	0xf3
 5538 051b 01       		.uleb128 0x1
 5539 051c 50       		.byte	0x50
 5540 051d 9F       		.byte	0x9f
 5541 051e 14000000 		.4byte	.LVL68
 5542 0522 16000000 		.4byte	.LVL69
 5543 0526 0100     		.2byte	0x1
 5544 0528 50       		.byte	0x50
 5545 0529 16000000 		.4byte	.LVL69
 5546 052d 1C000000 		.4byte	.LFE42
 5547 0531 0400     		.2byte	0x4
 5548 0533 F3       		.byte	0xf3
 5549 0534 01       		.uleb128 0x1
 5550 0535 50       		.byte	0x50
 5551 0536 9F       		.byte	0x9f
 5552 0537 00000000 		.4byte	0
 5553 053b 00000000 		.4byte	0
 5554              	.LLST30:
 5555 053f 00000000 		.4byte	.LVL66
 5556 0543 16000000 		.4byte	.LVL69
 5557 0547 0200     		.2byte	0x2
 5558 0549 30       		.byte	0x30
 5559 054a 9F       		.byte	0x9f
 5560 054b 16000000 		.4byte	.LVL69
 5561 054f 1C000000 		.4byte	.LFE42
 5562 0553 0100     		.2byte	0x1
 5563 0555 50       		.byte	0x50
 5564 0556 00000000 		.4byte	0
 5565 055a 00000000 		.4byte	0
 5566              	.LLST31:
 5567 055e 00000000 		.4byte	.LVL70
ARM GAS  C:\Users\kiwamu\AppData\Local\Temp\ccj1MWYe.s 			page 127


 5568 0562 10000000 		.4byte	.LVL71
 5569 0566 0100     		.2byte	0x1
 5570 0568 50       		.byte	0x50
 5571 0569 10000000 		.4byte	.LVL71
 5572 056d 12000000 		.4byte	.LVL72
 5573 0571 0400     		.2byte	0x4
 5574 0573 F3       		.byte	0xf3
 5575 0574 01       		.uleb128 0x1
 5576 0575 50       		.byte	0x50
 5577 0576 9F       		.byte	0x9f
 5578 0577 12000000 		.4byte	.LVL72
 5579 057b 14000000 		.4byte	.LVL73
 5580 057f 0100     		.2byte	0x1
 5581 0581 50       		.byte	0x50
 5582 0582 14000000 		.4byte	.LVL73
 5583 0586 1C000000 		.4byte	.LFE43
 5584 058a 0400     		.2byte	0x4
 5585 058c F3       		.byte	0xf3
 5586 058d 01       		.uleb128 0x1
 5587 058e 50       		.byte	0x50
 5588 058f 9F       		.byte	0x9f
 5589 0590 00000000 		.4byte	0
 5590 0594 00000000 		.4byte	0
 5591              	.LLST32:
 5592 0598 00000000 		.4byte	.LVL70
 5593 059c 14000000 		.4byte	.LVL73
 5594 05a0 0200     		.2byte	0x2
 5595 05a2 30       		.byte	0x30
 5596 05a3 9F       		.byte	0x9f
 5597 05a4 14000000 		.4byte	.LVL73
 5598 05a8 1C000000 		.4byte	.LFE43
 5599 05ac 0100     		.2byte	0x1
 5600 05ae 50       		.byte	0x50
 5601 05af 00000000 		.4byte	0
 5602 05b3 00000000 		.4byte	0
 5603              	.LLST33:
 5604 05b7 00000000 		.4byte	.LVL74
 5605 05bb 12000000 		.4byte	.LVL75
 5606 05bf 0100     		.2byte	0x1
 5607 05c1 50       		.byte	0x50
 5608 05c2 12000000 		.4byte	.LVL75
 5609 05c6 14000000 		.4byte	.LVL76
 5610 05ca 0400     		.2byte	0x4
 5611 05cc F3       		.byte	0xf3
 5612 05cd 01       		.uleb128 0x1
 5613 05ce 50       		.byte	0x50
 5614 05cf 9F       		.byte	0x9f
 5615 05d0 14000000 		.4byte	.LVL76
 5616 05d4 16000000 		.4byte	.LVL77
 5617 05d8 0100     		.2byte	0x1
 5618 05da 50       		.byte	0x50
 5619 05db 16000000 		.4byte	.LVL77
 5620 05df 1C000000 		.4byte	.LFE44
 5621 05e3 0400     		.2byte	0x4
 5622 05e5 F3       		.byte	0xf3
 5623 05e6 01       		.uleb128 0x1
 5624 05e7 50       		.byte	0x50
ARM GAS  C:\Users\kiwamu\AppData\Local\Temp\ccj1MWYe.s 			page 128


 5625 05e8 9F       		.byte	0x9f
 5626 05e9 00000000 		.4byte	0
 5627 05ed 00000000 		.4byte	0
 5628              	.LLST34:
 5629 05f1 00000000 		.4byte	.LVL74
 5630 05f5 16000000 		.4byte	.LVL77
 5631 05f9 0200     		.2byte	0x2
 5632 05fb 30       		.byte	0x30
 5633 05fc 9F       		.byte	0x9f
 5634 05fd 16000000 		.4byte	.LVL77
 5635 0601 1C000000 		.4byte	.LFE44
 5636 0605 0100     		.2byte	0x1
 5637 0607 50       		.byte	0x50
 5638 0608 00000000 		.4byte	0
 5639 060c 00000000 		.4byte	0
 5640              	.LLST35:
 5641 0610 00000000 		.4byte	.LVL78
 5642 0614 10000000 		.4byte	.LVL79
 5643 0618 0100     		.2byte	0x1
 5644 061a 50       		.byte	0x50
 5645 061b 10000000 		.4byte	.LVL79
 5646 061f 12000000 		.4byte	.LVL80
 5647 0623 0400     		.2byte	0x4
 5648 0625 F3       		.byte	0xf3
 5649 0626 01       		.uleb128 0x1
 5650 0627 50       		.byte	0x50
 5651 0628 9F       		.byte	0x9f
 5652 0629 12000000 		.4byte	.LVL80
 5653 062d 14000000 		.4byte	.LVL81
 5654 0631 0100     		.2byte	0x1
 5655 0633 50       		.byte	0x50
 5656 0634 14000000 		.4byte	.LVL81
 5657 0638 1C000000 		.4byte	.LFE45
 5658 063c 0400     		.2byte	0x4
 5659 063e F3       		.byte	0xf3
 5660 063f 01       		.uleb128 0x1
 5661 0640 50       		.byte	0x50
 5662 0641 9F       		.byte	0x9f
 5663 0642 00000000 		.4byte	0
 5664 0646 00000000 		.4byte	0
 5665              	.LLST36:
 5666 064a 00000000 		.4byte	.LVL78
 5667 064e 14000000 		.4byte	.LVL81
 5668 0652 0200     		.2byte	0x2
 5669 0654 30       		.byte	0x30
 5670 0655 9F       		.byte	0x9f
 5671 0656 14000000 		.4byte	.LVL81
 5672 065a 1C000000 		.4byte	.LFE45
 5673 065e 0100     		.2byte	0x1
 5674 0660 50       		.byte	0x50
 5675 0661 00000000 		.4byte	0
 5676 0665 00000000 		.4byte	0
 5677              	.LLST37:
 5678 0669 00000000 		.4byte	.LVL82
 5679 066d 5C000000 		.4byte	.LVL86
 5680 0671 0100     		.2byte	0x1
 5681 0673 50       		.byte	0x50
ARM GAS  C:\Users\kiwamu\AppData\Local\Temp\ccj1MWYe.s 			page 129


 5682 0674 5C000000 		.4byte	.LVL86
 5683 0678 5E000000 		.4byte	.LVL87
 5684 067c 0400     		.2byte	0x4
 5685 067e F3       		.byte	0xf3
 5686 067f 01       		.uleb128 0x1
 5687 0680 50       		.byte	0x50
 5688 0681 9F       		.byte	0x9f
 5689 0682 5E000000 		.4byte	.LVL87
 5690 0686 60000000 		.4byte	.LVL88
 5691 068a 0100     		.2byte	0x1
 5692 068c 50       		.byte	0x50
 5693 068d 60000000 		.4byte	.LVL88
 5694 0691 62000000 		.4byte	.LVL89
 5695 0695 0400     		.2byte	0x4
 5696 0697 F3       		.byte	0xf3
 5697 0698 01       		.uleb128 0x1
 5698 0699 50       		.byte	0x50
 5699 069a 9F       		.byte	0x9f
 5700 069b 62000000 		.4byte	.LVL89
 5701 069f 64000000 		.4byte	.LVL90
 5702 06a3 0100     		.2byte	0x1
 5703 06a5 50       		.byte	0x50
 5704 06a6 64000000 		.4byte	.LVL90
 5705 06aa 66000000 		.4byte	.LVL91
 5706 06ae 0400     		.2byte	0x4
 5707 06b0 F3       		.byte	0xf3
 5708 06b1 01       		.uleb128 0x1
 5709 06b2 50       		.byte	0x50
 5710 06b3 9F       		.byte	0x9f
 5711 06b4 66000000 		.4byte	.LVL91
 5712 06b8 68000000 		.4byte	.LVL92
 5713 06bc 0100     		.2byte	0x1
 5714 06be 50       		.byte	0x50
 5715 06bf 68000000 		.4byte	.LVL92
 5716 06c3 7C000000 		.4byte	.LFE46
 5717 06c7 0400     		.2byte	0x4
 5718 06c9 F3       		.byte	0xf3
 5719 06ca 01       		.uleb128 0x1
 5720 06cb 50       		.byte	0x50
 5721 06cc 9F       		.byte	0x9f
 5722 06cd 00000000 		.4byte	0
 5723 06d1 00000000 		.4byte	0
 5724              	.LLST38:
 5725 06d5 00000000 		.4byte	.LVL82
 5726 06d9 3C000000 		.4byte	.LVL84
 5727 06dd 0100     		.2byte	0x1
 5728 06df 51       		.byte	0x51
 5729 06e0 3C000000 		.4byte	.LVL84
 5730 06e4 5E000000 		.4byte	.LVL87
 5731 06e8 0400     		.2byte	0x4
 5732 06ea F3       		.byte	0xf3
 5733 06eb 01       		.uleb128 0x1
 5734 06ec 51       		.byte	0x51
 5735 06ed 9F       		.byte	0x9f
 5736 06ee 5E000000 		.4byte	.LVL87
 5737 06f2 62000000 		.4byte	.LVL89
 5738 06f6 0100     		.2byte	0x1
ARM GAS  C:\Users\kiwamu\AppData\Local\Temp\ccj1MWYe.s 			page 130


 5739 06f8 51       		.byte	0x51
 5740 06f9 62000000 		.4byte	.LVL89
 5741 06fd 7C000000 		.4byte	.LFE46
 5742 0701 0400     		.2byte	0x4
 5743 0703 F3       		.byte	0xf3
 5744 0704 01       		.uleb128 0x1
 5745 0705 51       		.byte	0x51
 5746 0706 9F       		.byte	0x9f
 5747 0707 00000000 		.4byte	0
 5748 070b 00000000 		.4byte	0
 5749              	.LLST39:
 5750 070f 02000000 		.4byte	.LVL83
 5751 0713 68000000 		.4byte	.LVL92
 5752 0717 0200     		.2byte	0x2
 5753 0719 30       		.byte	0x30
 5754 071a 9F       		.byte	0x9f
 5755 071b 68000000 		.4byte	.LVL92
 5756 071f 7C000000 		.4byte	.LFE46
 5757 0723 0100     		.2byte	0x1
 5758 0725 50       		.byte	0x50
 5759 0726 00000000 		.4byte	0
 5760 072a 00000000 		.4byte	0
 5761              	.LLST40:
 5762 072e 46000000 		.4byte	.LVL85
 5763 0732 5E000000 		.4byte	.LVL87
 5764 0736 0100     		.2byte	0x1
 5765 0738 53       		.byte	0x53
 5766 0739 62000000 		.4byte	.LVL89
 5767 073d 68000000 		.4byte	.LVL92
 5768 0741 0100     		.2byte	0x1
 5769 0743 53       		.byte	0x53
 5770 0744 00000000 		.4byte	0
 5771 0748 00000000 		.4byte	0
 5772              	.LLST41:
 5773 074c 00000000 		.4byte	.LVL93
 5774 0750 80000000 		.4byte	.LVL98
 5775 0754 0100     		.2byte	0x1
 5776 0756 50       		.byte	0x50
 5777 0757 80000000 		.4byte	.LVL98
 5778 075b 82000000 		.4byte	.LVL99
 5779 075f 0400     		.2byte	0x4
 5780 0761 F3       		.byte	0xf3
 5781 0762 01       		.uleb128 0x1
 5782 0763 50       		.byte	0x50
 5783 0764 9F       		.byte	0x9f
 5784 0765 82000000 		.4byte	.LVL99
 5785 0769 84000000 		.4byte	.LVL100
 5786 076d 0100     		.2byte	0x1
 5787 076f 50       		.byte	0x50
 5788 0770 84000000 		.4byte	.LVL100
 5789 0774 86000000 		.4byte	.LVL101
 5790 0778 0400     		.2byte	0x4
 5791 077a F3       		.byte	0xf3
 5792 077b 01       		.uleb128 0x1
 5793 077c 50       		.byte	0x50
 5794 077d 9F       		.byte	0x9f
 5795 077e 86000000 		.4byte	.LVL101
ARM GAS  C:\Users\kiwamu\AppData\Local\Temp\ccj1MWYe.s 			page 131


 5796 0782 88000000 		.4byte	.LVL102
 5797 0786 0100     		.2byte	0x1
 5798 0788 50       		.byte	0x50
 5799 0789 88000000 		.4byte	.LVL102
 5800 078d 8A000000 		.4byte	.LVL103
 5801 0791 0400     		.2byte	0x4
 5802 0793 F3       		.byte	0xf3
 5803 0794 01       		.uleb128 0x1
 5804 0795 50       		.byte	0x50
 5805 0796 9F       		.byte	0x9f
 5806 0797 8A000000 		.4byte	.LVL103
 5807 079b 8C000000 		.4byte	.LVL104
 5808 079f 0100     		.2byte	0x1
 5809 07a1 50       		.byte	0x50
 5810 07a2 8C000000 		.4byte	.LVL104
 5811 07a6 8E000000 		.4byte	.LVL105
 5812 07aa 0400     		.2byte	0x4
 5813 07ac F3       		.byte	0xf3
 5814 07ad 01       		.uleb128 0x1
 5815 07ae 50       		.byte	0x50
 5816 07af 9F       		.byte	0x9f
 5817 07b0 8E000000 		.4byte	.LVL105
 5818 07b4 90000000 		.4byte	.LVL106
 5819 07b8 0100     		.2byte	0x1
 5820 07ba 50       		.byte	0x50
 5821 07bb 90000000 		.4byte	.LVL106
 5822 07bf A4000000 		.4byte	.LFE47
 5823 07c3 0400     		.2byte	0x4
 5824 07c5 F3       		.byte	0xf3
 5825 07c6 01       		.uleb128 0x1
 5826 07c7 50       		.byte	0x50
 5827 07c8 9F       		.byte	0x9f
 5828 07c9 00000000 		.4byte	0
 5829 07cd 00000000 		.4byte	0
 5830              	.LLST42:
 5831 07d1 00000000 		.4byte	.LVL93
 5832 07d5 58000000 		.4byte	.LVL96
 5833 07d9 0100     		.2byte	0x1
 5834 07db 51       		.byte	0x51
 5835 07dc 58000000 		.4byte	.LVL96
 5836 07e0 82000000 		.4byte	.LVL99
 5837 07e4 0400     		.2byte	0x4
 5838 07e6 F3       		.byte	0xf3
 5839 07e7 01       		.uleb128 0x1
 5840 07e8 51       		.byte	0x51
 5841 07e9 9F       		.byte	0x9f
 5842 07ea 82000000 		.4byte	.LVL99
 5843 07ee 86000000 		.4byte	.LVL101
 5844 07f2 0100     		.2byte	0x1
 5845 07f4 51       		.byte	0x51
 5846 07f5 86000000 		.4byte	.LVL101
 5847 07f9 A4000000 		.4byte	.LFE47
 5848 07fd 0400     		.2byte	0x4
 5849 07ff F3       		.byte	0xf3
 5850 0800 01       		.uleb128 0x1
 5851 0801 51       		.byte	0x51
 5852 0802 9F       		.byte	0x9f
ARM GAS  C:\Users\kiwamu\AppData\Local\Temp\ccj1MWYe.s 			page 132


 5853 0803 00000000 		.4byte	0
 5854 0807 00000000 		.4byte	0
 5855              	.LLST43:
 5856 080b 02000000 		.4byte	.LVL94
 5857 080f 90000000 		.4byte	.LVL106
 5858 0813 0200     		.2byte	0x2
 5859 0815 30       		.byte	0x30
 5860 0816 9F       		.byte	0x9f
 5861 0817 90000000 		.4byte	.LVL106
 5862 081b A4000000 		.4byte	.LFE47
 5863 081f 0100     		.2byte	0x1
 5864 0821 50       		.byte	0x50
 5865 0822 00000000 		.4byte	0
 5866 0826 00000000 		.4byte	0
 5867              	.LLST44:
 5868 082a 18000000 		.4byte	.LVL95
 5869 082e 82000000 		.4byte	.LVL99
 5870 0832 0100     		.2byte	0x1
 5871 0834 56       		.byte	0x56
 5872 0835 86000000 		.4byte	.LVL101
 5873 0839 90000000 		.4byte	.LVL106
 5874 083d 0100     		.2byte	0x1
 5875 083f 56       		.byte	0x56
 5876 0840 00000000 		.4byte	0
 5877 0844 00000000 		.4byte	0
 5878              	.LLST45:
 5879 0848 62000000 		.4byte	.LVL97
 5880 084c 82000000 		.4byte	.LVL99
 5881 0850 0100     		.2byte	0x1
 5882 0852 53       		.byte	0x53
 5883 0853 86000000 		.4byte	.LVL101
 5884 0857 90000000 		.4byte	.LVL106
 5885 085b 0100     		.2byte	0x1
 5886 085d 53       		.byte	0x53
 5887 085e 00000000 		.4byte	0
 5888 0862 00000000 		.4byte	0
 5889              	.LLST46:
 5890 0866 00000000 		.4byte	.LVL107
 5891 086a 12000000 		.4byte	.LVL108
 5892 086e 0100     		.2byte	0x1
 5893 0870 50       		.byte	0x50
 5894 0871 12000000 		.4byte	.LVL108
 5895 0875 14000000 		.4byte	.LVL109
 5896 0879 0400     		.2byte	0x4
 5897 087b F3       		.byte	0xf3
 5898 087c 01       		.uleb128 0x1
 5899 087d 50       		.byte	0x50
 5900 087e 9F       		.byte	0x9f
 5901 087f 14000000 		.4byte	.LVL109
 5902 0883 16000000 		.4byte	.LVL110
 5903 0887 0100     		.2byte	0x1
 5904 0889 50       		.byte	0x50
 5905 088a 16000000 		.4byte	.LVL110
 5906 088e 1C000000 		.4byte	.LFE48
 5907 0892 0400     		.2byte	0x4
 5908 0894 F3       		.byte	0xf3
 5909 0895 01       		.uleb128 0x1
ARM GAS  C:\Users\kiwamu\AppData\Local\Temp\ccj1MWYe.s 			page 133


 5910 0896 50       		.byte	0x50
 5911 0897 9F       		.byte	0x9f
 5912 0898 00000000 		.4byte	0
 5913 089c 00000000 		.4byte	0
 5914              	.LLST47:
 5915 08a0 00000000 		.4byte	.LVL107
 5916 08a4 16000000 		.4byte	.LVL110
 5917 08a8 0200     		.2byte	0x2
 5918 08aa 30       		.byte	0x30
 5919 08ab 9F       		.byte	0x9f
 5920 08ac 16000000 		.4byte	.LVL110
 5921 08b0 1C000000 		.4byte	.LFE48
 5922 08b4 0100     		.2byte	0x1
 5923 08b6 50       		.byte	0x50
 5924 08b7 00000000 		.4byte	0
 5925 08bb 00000000 		.4byte	0
 5926              	.LLST48:
 5927 08bf 00000000 		.4byte	.LVL111
 5928 08c3 10000000 		.4byte	.LVL112
 5929 08c7 0100     		.2byte	0x1
 5930 08c9 50       		.byte	0x50
 5931 08ca 10000000 		.4byte	.LVL112
 5932 08ce 12000000 		.4byte	.LVL113
 5933 08d2 0400     		.2byte	0x4
 5934 08d4 F3       		.byte	0xf3
 5935 08d5 01       		.uleb128 0x1
 5936 08d6 50       		.byte	0x50
 5937 08d7 9F       		.byte	0x9f
 5938 08d8 12000000 		.4byte	.LVL113
 5939 08dc 14000000 		.4byte	.LVL114
 5940 08e0 0100     		.2byte	0x1
 5941 08e2 50       		.byte	0x50
 5942 08e3 14000000 		.4byte	.LVL114
 5943 08e7 1C000000 		.4byte	.LFE49
 5944 08eb 0400     		.2byte	0x4
 5945 08ed F3       		.byte	0xf3
 5946 08ee 01       		.uleb128 0x1
 5947 08ef 50       		.byte	0x50
 5948 08f0 9F       		.byte	0x9f
 5949 08f1 00000000 		.4byte	0
 5950 08f5 00000000 		.4byte	0
 5951              	.LLST49:
 5952 08f9 00000000 		.4byte	.LVL111
 5953 08fd 14000000 		.4byte	.LVL114
 5954 0901 0200     		.2byte	0x2
 5955 0903 30       		.byte	0x30
 5956 0904 9F       		.byte	0x9f
 5957 0905 14000000 		.4byte	.LVL114
 5958 0909 1C000000 		.4byte	.LFE49
 5959 090d 0100     		.2byte	0x1
 5960 090f 50       		.byte	0x50
 5961 0910 00000000 		.4byte	0
 5962 0914 00000000 		.4byte	0
 5963              	.LLST50:
 5964 0918 00000000 		.4byte	.LVL115
 5965 091c 12000000 		.4byte	.LVL116
 5966 0920 0100     		.2byte	0x1
ARM GAS  C:\Users\kiwamu\AppData\Local\Temp\ccj1MWYe.s 			page 134


 5967 0922 50       		.byte	0x50
 5968 0923 12000000 		.4byte	.LVL116
 5969 0927 14000000 		.4byte	.LVL117
 5970 092b 0400     		.2byte	0x4
 5971 092d F3       		.byte	0xf3
 5972 092e 01       		.uleb128 0x1
 5973 092f 50       		.byte	0x50
 5974 0930 9F       		.byte	0x9f
 5975 0931 14000000 		.4byte	.LVL117
 5976 0935 16000000 		.4byte	.LVL118
 5977 0939 0100     		.2byte	0x1
 5978 093b 50       		.byte	0x50
 5979 093c 16000000 		.4byte	.LVL118
 5980 0940 1C000000 		.4byte	.LFE50
 5981 0944 0400     		.2byte	0x4
 5982 0946 F3       		.byte	0xf3
 5983 0947 01       		.uleb128 0x1
 5984 0948 50       		.byte	0x50
 5985 0949 9F       		.byte	0x9f
 5986 094a 00000000 		.4byte	0
 5987 094e 00000000 		.4byte	0
 5988              	.LLST51:
 5989 0952 00000000 		.4byte	.LVL115
 5990 0956 16000000 		.4byte	.LVL118
 5991 095a 0200     		.2byte	0x2
 5992 095c 30       		.byte	0x30
 5993 095d 9F       		.byte	0x9f
 5994 095e 16000000 		.4byte	.LVL118
 5995 0962 1C000000 		.4byte	.LFE50
 5996 0966 0100     		.2byte	0x1
 5997 0968 50       		.byte	0x50
 5998 0969 00000000 		.4byte	0
 5999 096d 00000000 		.4byte	0
 6000              	.LLST52:
 6001 0971 00000000 		.4byte	.LVL119
 6002 0975 10000000 		.4byte	.LVL120
 6003 0979 0100     		.2byte	0x1
 6004 097b 50       		.byte	0x50
 6005 097c 10000000 		.4byte	.LVL120
 6006 0980 12000000 		.4byte	.LVL121
 6007 0984 0400     		.2byte	0x4
 6008 0986 F3       		.byte	0xf3
 6009 0987 01       		.uleb128 0x1
 6010 0988 50       		.byte	0x50
 6011 0989 9F       		.byte	0x9f
 6012 098a 12000000 		.4byte	.LVL121
 6013 098e 14000000 		.4byte	.LVL122
 6014 0992 0100     		.2byte	0x1
 6015 0994 50       		.byte	0x50
 6016 0995 14000000 		.4byte	.LVL122
 6017 0999 1C000000 		.4byte	.LFE51
 6018 099d 0400     		.2byte	0x4
 6019 099f F3       		.byte	0xf3
 6020 09a0 01       		.uleb128 0x1
 6021 09a1 50       		.byte	0x50
 6022 09a2 9F       		.byte	0x9f
 6023 09a3 00000000 		.4byte	0
ARM GAS  C:\Users\kiwamu\AppData\Local\Temp\ccj1MWYe.s 			page 135


 6024 09a7 00000000 		.4byte	0
 6025              	.LLST53:
 6026 09ab 00000000 		.4byte	.LVL119
 6027 09af 14000000 		.4byte	.LVL122
 6028 09b3 0200     		.2byte	0x2
 6029 09b5 30       		.byte	0x30
 6030 09b6 9F       		.byte	0x9f
 6031 09b7 14000000 		.4byte	.LVL122
 6032 09bb 1C000000 		.4byte	.LFE51
 6033 09bf 0100     		.2byte	0x1
 6034 09c1 50       		.byte	0x50
 6035 09c2 00000000 		.4byte	0
 6036 09c6 00000000 		.4byte	0
 6037              	.LLST54:
 6038 09ca 00000000 		.4byte	.LVL123
 6039 09ce 5C000000 		.4byte	.LVL127
 6040 09d2 0100     		.2byte	0x1
 6041 09d4 50       		.byte	0x50
 6042 09d5 5C000000 		.4byte	.LVL127
 6043 09d9 5E000000 		.4byte	.LVL128
 6044 09dd 0400     		.2byte	0x4
 6045 09df F3       		.byte	0xf3
 6046 09e0 01       		.uleb128 0x1
 6047 09e1 50       		.byte	0x50
 6048 09e2 9F       		.byte	0x9f
 6049 09e3 5E000000 		.4byte	.LVL128
 6050 09e7 60000000 		.4byte	.LVL129
 6051 09eb 0100     		.2byte	0x1
 6052 09ed 50       		.byte	0x50
 6053 09ee 60000000 		.4byte	.LVL129
 6054 09f2 62000000 		.4byte	.LVL130
 6055 09f6 0400     		.2byte	0x4
 6056 09f8 F3       		.byte	0xf3
 6057 09f9 01       		.uleb128 0x1
 6058 09fa 50       		.byte	0x50
 6059 09fb 9F       		.byte	0x9f
 6060 09fc 62000000 		.4byte	.LVL130
 6061 0a00 64000000 		.4byte	.LVL131
 6062 0a04 0100     		.2byte	0x1
 6063 0a06 50       		.byte	0x50
 6064 0a07 64000000 		.4byte	.LVL131
 6065 0a0b 66000000 		.4byte	.LVL132
 6066 0a0f 0400     		.2byte	0x4
 6067 0a11 F3       		.byte	0xf3
 6068 0a12 01       		.uleb128 0x1
 6069 0a13 50       		.byte	0x50
 6070 0a14 9F       		.byte	0x9f
 6071 0a15 66000000 		.4byte	.LVL132
 6072 0a19 68000000 		.4byte	.LVL133
 6073 0a1d 0100     		.2byte	0x1
 6074 0a1f 50       		.byte	0x50
 6075 0a20 68000000 		.4byte	.LVL133
 6076 0a24 7C000000 		.4byte	.LFE52
 6077 0a28 0400     		.2byte	0x4
 6078 0a2a F3       		.byte	0xf3
 6079 0a2b 01       		.uleb128 0x1
 6080 0a2c 50       		.byte	0x50
ARM GAS  C:\Users\kiwamu\AppData\Local\Temp\ccj1MWYe.s 			page 136


 6081 0a2d 9F       		.byte	0x9f
 6082 0a2e 00000000 		.4byte	0
 6083 0a32 00000000 		.4byte	0
 6084              	.LLST55:
 6085 0a36 00000000 		.4byte	.LVL123
 6086 0a3a 3C000000 		.4byte	.LVL125
 6087 0a3e 0100     		.2byte	0x1
 6088 0a40 51       		.byte	0x51
 6089 0a41 3C000000 		.4byte	.LVL125
 6090 0a45 5E000000 		.4byte	.LVL128
 6091 0a49 0400     		.2byte	0x4
 6092 0a4b F3       		.byte	0xf3
 6093 0a4c 01       		.uleb128 0x1
 6094 0a4d 51       		.byte	0x51
 6095 0a4e 9F       		.byte	0x9f
 6096 0a4f 5E000000 		.4byte	.LVL128
 6097 0a53 62000000 		.4byte	.LVL130
 6098 0a57 0100     		.2byte	0x1
 6099 0a59 51       		.byte	0x51
 6100 0a5a 62000000 		.4byte	.LVL130
 6101 0a5e 7C000000 		.4byte	.LFE52
 6102 0a62 0400     		.2byte	0x4
 6103 0a64 F3       		.byte	0xf3
 6104 0a65 01       		.uleb128 0x1
 6105 0a66 51       		.byte	0x51
 6106 0a67 9F       		.byte	0x9f
 6107 0a68 00000000 		.4byte	0
 6108 0a6c 00000000 		.4byte	0
 6109              	.LLST56:
 6110 0a70 02000000 		.4byte	.LVL124
 6111 0a74 68000000 		.4byte	.LVL133
 6112 0a78 0200     		.2byte	0x2
 6113 0a7a 30       		.byte	0x30
 6114 0a7b 9F       		.byte	0x9f
 6115 0a7c 68000000 		.4byte	.LVL133
 6116 0a80 7C000000 		.4byte	.LFE52
 6117 0a84 0100     		.2byte	0x1
 6118 0a86 50       		.byte	0x50
 6119 0a87 00000000 		.4byte	0
 6120 0a8b 00000000 		.4byte	0
 6121              	.LLST57:
 6122 0a8f 46000000 		.4byte	.LVL126
 6123 0a93 5E000000 		.4byte	.LVL128
 6124 0a97 0100     		.2byte	0x1
 6125 0a99 53       		.byte	0x53
 6126 0a9a 62000000 		.4byte	.LVL130
 6127 0a9e 68000000 		.4byte	.LVL133
 6128 0aa2 0100     		.2byte	0x1
 6129 0aa4 53       		.byte	0x53
 6130 0aa5 00000000 		.4byte	0
 6131 0aa9 00000000 		.4byte	0
 6132              	.LLST58:
 6133 0aad 00000000 		.4byte	.LVL134
 6134 0ab1 5C000000 		.4byte	.LVL138
 6135 0ab5 0100     		.2byte	0x1
 6136 0ab7 50       		.byte	0x50
 6137 0ab8 5C000000 		.4byte	.LVL138
ARM GAS  C:\Users\kiwamu\AppData\Local\Temp\ccj1MWYe.s 			page 137


 6138 0abc 5E000000 		.4byte	.LVL139
 6139 0ac0 0400     		.2byte	0x4
 6140 0ac2 F3       		.byte	0xf3
 6141 0ac3 01       		.uleb128 0x1
 6142 0ac4 50       		.byte	0x50
 6143 0ac5 9F       		.byte	0x9f
 6144 0ac6 5E000000 		.4byte	.LVL139
 6145 0aca 60000000 		.4byte	.LVL140
 6146 0ace 0100     		.2byte	0x1
 6147 0ad0 50       		.byte	0x50
 6148 0ad1 60000000 		.4byte	.LVL140
 6149 0ad5 62000000 		.4byte	.LVL141
 6150 0ad9 0400     		.2byte	0x4
 6151 0adb F3       		.byte	0xf3
 6152 0adc 01       		.uleb128 0x1
 6153 0add 50       		.byte	0x50
 6154 0ade 9F       		.byte	0x9f
 6155 0adf 62000000 		.4byte	.LVL141
 6156 0ae3 64000000 		.4byte	.LVL142
 6157 0ae7 0100     		.2byte	0x1
 6158 0ae9 50       		.byte	0x50
 6159 0aea 64000000 		.4byte	.LVL142
 6160 0aee 66000000 		.4byte	.LVL143
 6161 0af2 0400     		.2byte	0x4
 6162 0af4 F3       		.byte	0xf3
 6163 0af5 01       		.uleb128 0x1
 6164 0af6 50       		.byte	0x50
 6165 0af7 9F       		.byte	0x9f
 6166 0af8 66000000 		.4byte	.LVL143
 6167 0afc 68000000 		.4byte	.LVL144
 6168 0b00 0100     		.2byte	0x1
 6169 0b02 50       		.byte	0x50
 6170 0b03 68000000 		.4byte	.LVL144
 6171 0b07 7C000000 		.4byte	.LFE53
 6172 0b0b 0400     		.2byte	0x4
 6173 0b0d F3       		.byte	0xf3
 6174 0b0e 01       		.uleb128 0x1
 6175 0b0f 50       		.byte	0x50
 6176 0b10 9F       		.byte	0x9f
 6177 0b11 00000000 		.4byte	0
 6178 0b15 00000000 		.4byte	0
 6179              	.LLST59:
 6180 0b19 00000000 		.4byte	.LVL134
 6181 0b1d 3C000000 		.4byte	.LVL136
 6182 0b21 0100     		.2byte	0x1
 6183 0b23 51       		.byte	0x51
 6184 0b24 3C000000 		.4byte	.LVL136
 6185 0b28 5E000000 		.4byte	.LVL139
 6186 0b2c 0400     		.2byte	0x4
 6187 0b2e F3       		.byte	0xf3
 6188 0b2f 01       		.uleb128 0x1
 6189 0b30 51       		.byte	0x51
 6190 0b31 9F       		.byte	0x9f
 6191 0b32 5E000000 		.4byte	.LVL139
 6192 0b36 62000000 		.4byte	.LVL141
 6193 0b3a 0100     		.2byte	0x1
 6194 0b3c 51       		.byte	0x51
ARM GAS  C:\Users\kiwamu\AppData\Local\Temp\ccj1MWYe.s 			page 138


 6195 0b3d 62000000 		.4byte	.LVL141
 6196 0b41 7C000000 		.4byte	.LFE53
 6197 0b45 0400     		.2byte	0x4
 6198 0b47 F3       		.byte	0xf3
 6199 0b48 01       		.uleb128 0x1
 6200 0b49 51       		.byte	0x51
 6201 0b4a 9F       		.byte	0x9f
 6202 0b4b 00000000 		.4byte	0
 6203 0b4f 00000000 		.4byte	0
 6204              	.LLST60:
 6205 0b53 02000000 		.4byte	.LVL135
 6206 0b57 68000000 		.4byte	.LVL144
 6207 0b5b 0200     		.2byte	0x2
 6208 0b5d 30       		.byte	0x30
 6209 0b5e 9F       		.byte	0x9f
 6210 0b5f 68000000 		.4byte	.LVL144
 6211 0b63 7C000000 		.4byte	.LFE53
 6212 0b67 0100     		.2byte	0x1
 6213 0b69 50       		.byte	0x50
 6214 0b6a 00000000 		.4byte	0
 6215 0b6e 00000000 		.4byte	0
 6216              	.LLST61:
 6217 0b72 46000000 		.4byte	.LVL137
 6218 0b76 5E000000 		.4byte	.LVL139
 6219 0b7a 0100     		.2byte	0x1
 6220 0b7c 53       		.byte	0x53
 6221 0b7d 62000000 		.4byte	.LVL141
 6222 0b81 68000000 		.4byte	.LVL144
 6223 0b85 0100     		.2byte	0x1
 6224 0b87 53       		.byte	0x53
 6225 0b88 00000000 		.4byte	0
 6226 0b8c 00000000 		.4byte	0
 6227              	.LLST62:
 6228 0b90 00000000 		.4byte	.LVL145
 6229 0b94 12000000 		.4byte	.LVL146
 6230 0b98 0100     		.2byte	0x1
 6231 0b9a 50       		.byte	0x50
 6232 0b9b 12000000 		.4byte	.LVL146
 6233 0b9f 14000000 		.4byte	.LVL147
 6234 0ba3 0400     		.2byte	0x4
 6235 0ba5 F3       		.byte	0xf3
 6236 0ba6 01       		.uleb128 0x1
 6237 0ba7 50       		.byte	0x50
 6238 0ba8 9F       		.byte	0x9f
 6239 0ba9 14000000 		.4byte	.LVL147
 6240 0bad 16000000 		.4byte	.LVL148
 6241 0bb1 0100     		.2byte	0x1
 6242 0bb3 50       		.byte	0x50
 6243 0bb4 16000000 		.4byte	.LVL148
 6244 0bb8 1C000000 		.4byte	.LFE54
 6245 0bbc 0400     		.2byte	0x4
 6246 0bbe F3       		.byte	0xf3
 6247 0bbf 01       		.uleb128 0x1
 6248 0bc0 50       		.byte	0x50
 6249 0bc1 9F       		.byte	0x9f
 6250 0bc2 00000000 		.4byte	0
 6251 0bc6 00000000 		.4byte	0
ARM GAS  C:\Users\kiwamu\AppData\Local\Temp\ccj1MWYe.s 			page 139


 6252              	.LLST63:
 6253 0bca 00000000 		.4byte	.LVL145
 6254 0bce 16000000 		.4byte	.LVL148
 6255 0bd2 0200     		.2byte	0x2
 6256 0bd4 30       		.byte	0x30
 6257 0bd5 9F       		.byte	0x9f
 6258 0bd6 16000000 		.4byte	.LVL148
 6259 0bda 1C000000 		.4byte	.LFE54
 6260 0bde 0100     		.2byte	0x1
 6261 0be0 50       		.byte	0x50
 6262 0be1 00000000 		.4byte	0
 6263 0be5 00000000 		.4byte	0
 6264              	.LLST64:
 6265 0be9 00000000 		.4byte	.LVL149
 6266 0bed 10000000 		.4byte	.LVL150
 6267 0bf1 0100     		.2byte	0x1
 6268 0bf3 50       		.byte	0x50
 6269 0bf4 10000000 		.4byte	.LVL150
 6270 0bf8 12000000 		.4byte	.LVL151
 6271 0bfc 0400     		.2byte	0x4
 6272 0bfe F3       		.byte	0xf3
 6273 0bff 01       		.uleb128 0x1
 6274 0c00 50       		.byte	0x50
 6275 0c01 9F       		.byte	0x9f
 6276 0c02 12000000 		.4byte	.LVL151
 6277 0c06 14000000 		.4byte	.LVL152
 6278 0c0a 0100     		.2byte	0x1
 6279 0c0c 50       		.byte	0x50
 6280 0c0d 14000000 		.4byte	.LVL152
 6281 0c11 1C000000 		.4byte	.LFE55
 6282 0c15 0400     		.2byte	0x4
 6283 0c17 F3       		.byte	0xf3
 6284 0c18 01       		.uleb128 0x1
 6285 0c19 50       		.byte	0x50
 6286 0c1a 9F       		.byte	0x9f
 6287 0c1b 00000000 		.4byte	0
 6288 0c1f 00000000 		.4byte	0
 6289              	.LLST65:
 6290 0c23 00000000 		.4byte	.LVL149
 6291 0c27 14000000 		.4byte	.LVL152
 6292 0c2b 0200     		.2byte	0x2
 6293 0c2d 30       		.byte	0x30
 6294 0c2e 9F       		.byte	0x9f
 6295 0c2f 14000000 		.4byte	.LVL152
 6296 0c33 1C000000 		.4byte	.LFE55
 6297 0c37 0100     		.2byte	0x1
 6298 0c39 50       		.byte	0x50
 6299 0c3a 00000000 		.4byte	0
 6300 0c3e 00000000 		.4byte	0
 6301              	.LLST66:
 6302 0c42 00000000 		.4byte	.LVL153
 6303 0c46 12000000 		.4byte	.LVL154
 6304 0c4a 0100     		.2byte	0x1
 6305 0c4c 50       		.byte	0x50
 6306 0c4d 12000000 		.4byte	.LVL154
 6307 0c51 14000000 		.4byte	.LVL155
 6308 0c55 0400     		.2byte	0x4
ARM GAS  C:\Users\kiwamu\AppData\Local\Temp\ccj1MWYe.s 			page 140


 6309 0c57 F3       		.byte	0xf3
 6310 0c58 01       		.uleb128 0x1
 6311 0c59 50       		.byte	0x50
 6312 0c5a 9F       		.byte	0x9f
 6313 0c5b 14000000 		.4byte	.LVL155
 6314 0c5f 16000000 		.4byte	.LVL156
 6315 0c63 0100     		.2byte	0x1
 6316 0c65 50       		.byte	0x50
 6317 0c66 16000000 		.4byte	.LVL156
 6318 0c6a 1C000000 		.4byte	.LFE56
 6319 0c6e 0400     		.2byte	0x4
 6320 0c70 F3       		.byte	0xf3
 6321 0c71 01       		.uleb128 0x1
 6322 0c72 50       		.byte	0x50
 6323 0c73 9F       		.byte	0x9f
 6324 0c74 00000000 		.4byte	0
 6325 0c78 00000000 		.4byte	0
 6326              	.LLST67:
 6327 0c7c 00000000 		.4byte	.LVL153
 6328 0c80 16000000 		.4byte	.LVL156
 6329 0c84 0200     		.2byte	0x2
 6330 0c86 30       		.byte	0x30
 6331 0c87 9F       		.byte	0x9f
 6332 0c88 16000000 		.4byte	.LVL156
 6333 0c8c 1C000000 		.4byte	.LFE56
 6334 0c90 0100     		.2byte	0x1
 6335 0c92 50       		.byte	0x50
 6336 0c93 00000000 		.4byte	0
 6337 0c97 00000000 		.4byte	0
 6338              	.LLST68:
 6339 0c9b 00000000 		.4byte	.LVL157
 6340 0c9f 10000000 		.4byte	.LVL158
 6341 0ca3 0100     		.2byte	0x1
 6342 0ca5 50       		.byte	0x50
 6343 0ca6 10000000 		.4byte	.LVL158
 6344 0caa 12000000 		.4byte	.LVL159
 6345 0cae 0400     		.2byte	0x4
 6346 0cb0 F3       		.byte	0xf3
 6347 0cb1 01       		.uleb128 0x1
 6348 0cb2 50       		.byte	0x50
 6349 0cb3 9F       		.byte	0x9f
 6350 0cb4 12000000 		.4byte	.LVL159
 6351 0cb8 14000000 		.4byte	.LVL160
 6352 0cbc 0100     		.2byte	0x1
 6353 0cbe 50       		.byte	0x50
 6354 0cbf 14000000 		.4byte	.LVL160
 6355 0cc3 1C000000 		.4byte	.LFE57
 6356 0cc7 0400     		.2byte	0x4
 6357 0cc9 F3       		.byte	0xf3
 6358 0cca 01       		.uleb128 0x1
 6359 0ccb 50       		.byte	0x50
 6360 0ccc 9F       		.byte	0x9f
 6361 0ccd 00000000 		.4byte	0
 6362 0cd1 00000000 		.4byte	0
 6363              	.LLST69:
 6364 0cd5 00000000 		.4byte	.LVL157
 6365 0cd9 14000000 		.4byte	.LVL160
ARM GAS  C:\Users\kiwamu\AppData\Local\Temp\ccj1MWYe.s 			page 141


 6366 0cdd 0200     		.2byte	0x2
 6367 0cdf 30       		.byte	0x30
 6368 0ce0 9F       		.byte	0x9f
 6369 0ce1 14000000 		.4byte	.LVL160
 6370 0ce5 1C000000 		.4byte	.LFE57
 6371 0ce9 0100     		.2byte	0x1
 6372 0ceb 50       		.byte	0x50
 6373 0cec 00000000 		.4byte	0
 6374 0cf0 00000000 		.4byte	0
 6375              	.LLST70:
 6376 0cf4 00000000 		.4byte	.LVL161
 6377 0cf8 5C000000 		.4byte	.LVL165
 6378 0cfc 0100     		.2byte	0x1
 6379 0cfe 50       		.byte	0x50
 6380 0cff 5C000000 		.4byte	.LVL165
 6381 0d03 5E000000 		.4byte	.LVL166
 6382 0d07 0400     		.2byte	0x4
 6383 0d09 F3       		.byte	0xf3
 6384 0d0a 01       		.uleb128 0x1
 6385 0d0b 50       		.byte	0x50
 6386 0d0c 9F       		.byte	0x9f
 6387 0d0d 5E000000 		.4byte	.LVL166
 6388 0d11 60000000 		.4byte	.LVL167
 6389 0d15 0100     		.2byte	0x1
 6390 0d17 50       		.byte	0x50
 6391 0d18 60000000 		.4byte	.LVL167
 6392 0d1c 62000000 		.4byte	.LVL168
 6393 0d20 0400     		.2byte	0x4
 6394 0d22 F3       		.byte	0xf3
 6395 0d23 01       		.uleb128 0x1
 6396 0d24 50       		.byte	0x50
 6397 0d25 9F       		.byte	0x9f
 6398 0d26 62000000 		.4byte	.LVL168
 6399 0d2a 64000000 		.4byte	.LVL169
 6400 0d2e 0100     		.2byte	0x1
 6401 0d30 50       		.byte	0x50
 6402 0d31 64000000 		.4byte	.LVL169
 6403 0d35 66000000 		.4byte	.LVL170
 6404 0d39 0400     		.2byte	0x4
 6405 0d3b F3       		.byte	0xf3
 6406 0d3c 01       		.uleb128 0x1
 6407 0d3d 50       		.byte	0x50
 6408 0d3e 9F       		.byte	0x9f
 6409 0d3f 66000000 		.4byte	.LVL170
 6410 0d43 68000000 		.4byte	.LVL171
 6411 0d47 0100     		.2byte	0x1
 6412 0d49 50       		.byte	0x50
 6413 0d4a 68000000 		.4byte	.LVL171
 6414 0d4e 7C000000 		.4byte	.LFE58
 6415 0d52 0400     		.2byte	0x4
 6416 0d54 F3       		.byte	0xf3
 6417 0d55 01       		.uleb128 0x1
 6418 0d56 50       		.byte	0x50
 6419 0d57 9F       		.byte	0x9f
 6420 0d58 00000000 		.4byte	0
 6421 0d5c 00000000 		.4byte	0
 6422              	.LLST71:
ARM GAS  C:\Users\kiwamu\AppData\Local\Temp\ccj1MWYe.s 			page 142


 6423 0d60 00000000 		.4byte	.LVL161
 6424 0d64 3C000000 		.4byte	.LVL163
 6425 0d68 0100     		.2byte	0x1
 6426 0d6a 51       		.byte	0x51
 6427 0d6b 3C000000 		.4byte	.LVL163
 6428 0d6f 5E000000 		.4byte	.LVL166
 6429 0d73 0400     		.2byte	0x4
 6430 0d75 F3       		.byte	0xf3
 6431 0d76 01       		.uleb128 0x1
 6432 0d77 51       		.byte	0x51
 6433 0d78 9F       		.byte	0x9f
 6434 0d79 5E000000 		.4byte	.LVL166
 6435 0d7d 62000000 		.4byte	.LVL168
 6436 0d81 0100     		.2byte	0x1
 6437 0d83 51       		.byte	0x51
 6438 0d84 62000000 		.4byte	.LVL168
 6439 0d88 7C000000 		.4byte	.LFE58
 6440 0d8c 0400     		.2byte	0x4
 6441 0d8e F3       		.byte	0xf3
 6442 0d8f 01       		.uleb128 0x1
 6443 0d90 51       		.byte	0x51
 6444 0d91 9F       		.byte	0x9f
 6445 0d92 00000000 		.4byte	0
 6446 0d96 00000000 		.4byte	0
 6447              	.LLST72:
 6448 0d9a 02000000 		.4byte	.LVL162
 6449 0d9e 68000000 		.4byte	.LVL171
 6450 0da2 0200     		.2byte	0x2
 6451 0da4 30       		.byte	0x30
 6452 0da5 9F       		.byte	0x9f
 6453 0da6 68000000 		.4byte	.LVL171
 6454 0daa 7C000000 		.4byte	.LFE58
 6455 0dae 0100     		.2byte	0x1
 6456 0db0 50       		.byte	0x50
 6457 0db1 00000000 		.4byte	0
 6458 0db5 00000000 		.4byte	0
 6459              	.LLST73:
 6460 0db9 46000000 		.4byte	.LVL164
 6461 0dbd 5E000000 		.4byte	.LVL166
 6462 0dc1 0100     		.2byte	0x1
 6463 0dc3 53       		.byte	0x53
 6464 0dc4 62000000 		.4byte	.LVL168
 6465 0dc8 68000000 		.4byte	.LVL171
 6466 0dcc 0100     		.2byte	0x1
 6467 0dce 53       		.byte	0x53
 6468 0dcf 00000000 		.4byte	0
 6469 0dd3 00000000 		.4byte	0
 6470              	.LLST74:
 6471 0dd7 00000000 		.4byte	.LVL172
 6472 0ddb 5C000000 		.4byte	.LVL176
 6473 0ddf 0100     		.2byte	0x1
 6474 0de1 50       		.byte	0x50
 6475 0de2 5C000000 		.4byte	.LVL176
 6476 0de6 5E000000 		.4byte	.LVL177
 6477 0dea 0400     		.2byte	0x4
 6478 0dec F3       		.byte	0xf3
 6479 0ded 01       		.uleb128 0x1
ARM GAS  C:\Users\kiwamu\AppData\Local\Temp\ccj1MWYe.s 			page 143


 6480 0dee 50       		.byte	0x50
 6481 0def 9F       		.byte	0x9f
 6482 0df0 5E000000 		.4byte	.LVL177
 6483 0df4 60000000 		.4byte	.LVL178
 6484 0df8 0100     		.2byte	0x1
 6485 0dfa 50       		.byte	0x50
 6486 0dfb 60000000 		.4byte	.LVL178
 6487 0dff 62000000 		.4byte	.LVL179
 6488 0e03 0400     		.2byte	0x4
 6489 0e05 F3       		.byte	0xf3
 6490 0e06 01       		.uleb128 0x1
 6491 0e07 50       		.byte	0x50
 6492 0e08 9F       		.byte	0x9f
 6493 0e09 62000000 		.4byte	.LVL179
 6494 0e0d 64000000 		.4byte	.LVL180
 6495 0e11 0100     		.2byte	0x1
 6496 0e13 50       		.byte	0x50
 6497 0e14 64000000 		.4byte	.LVL180
 6498 0e18 66000000 		.4byte	.LVL181
 6499 0e1c 0400     		.2byte	0x4
 6500 0e1e F3       		.byte	0xf3
 6501 0e1f 01       		.uleb128 0x1
 6502 0e20 50       		.byte	0x50
 6503 0e21 9F       		.byte	0x9f
 6504 0e22 66000000 		.4byte	.LVL181
 6505 0e26 68000000 		.4byte	.LVL182
 6506 0e2a 0100     		.2byte	0x1
 6507 0e2c 50       		.byte	0x50
 6508 0e2d 68000000 		.4byte	.LVL182
 6509 0e31 7C000000 		.4byte	.LFE59
 6510 0e35 0400     		.2byte	0x4
 6511 0e37 F3       		.byte	0xf3
 6512 0e38 01       		.uleb128 0x1
 6513 0e39 50       		.byte	0x50
 6514 0e3a 9F       		.byte	0x9f
 6515 0e3b 00000000 		.4byte	0
 6516 0e3f 00000000 		.4byte	0
 6517              	.LLST75:
 6518 0e43 00000000 		.4byte	.LVL172
 6519 0e47 3C000000 		.4byte	.LVL174
 6520 0e4b 0100     		.2byte	0x1
 6521 0e4d 51       		.byte	0x51
 6522 0e4e 3C000000 		.4byte	.LVL174
 6523 0e52 5E000000 		.4byte	.LVL177
 6524 0e56 0400     		.2byte	0x4
 6525 0e58 F3       		.byte	0xf3
 6526 0e59 01       		.uleb128 0x1
 6527 0e5a 51       		.byte	0x51
 6528 0e5b 9F       		.byte	0x9f
 6529 0e5c 5E000000 		.4byte	.LVL177
 6530 0e60 62000000 		.4byte	.LVL179
 6531 0e64 0100     		.2byte	0x1
 6532 0e66 51       		.byte	0x51
 6533 0e67 62000000 		.4byte	.LVL179
 6534 0e6b 7C000000 		.4byte	.LFE59
 6535 0e6f 0400     		.2byte	0x4
 6536 0e71 F3       		.byte	0xf3
ARM GAS  C:\Users\kiwamu\AppData\Local\Temp\ccj1MWYe.s 			page 144


 6537 0e72 01       		.uleb128 0x1
 6538 0e73 51       		.byte	0x51
 6539 0e74 9F       		.byte	0x9f
 6540 0e75 00000000 		.4byte	0
 6541 0e79 00000000 		.4byte	0
 6542              	.LLST76:
 6543 0e7d 02000000 		.4byte	.LVL173
 6544 0e81 68000000 		.4byte	.LVL182
 6545 0e85 0200     		.2byte	0x2
 6546 0e87 30       		.byte	0x30
 6547 0e88 9F       		.byte	0x9f
 6548 0e89 68000000 		.4byte	.LVL182
 6549 0e8d 7C000000 		.4byte	.LFE59
 6550 0e91 0100     		.2byte	0x1
 6551 0e93 50       		.byte	0x50
 6552 0e94 00000000 		.4byte	0
 6553 0e98 00000000 		.4byte	0
 6554              	.LLST77:
 6555 0e9c 46000000 		.4byte	.LVL175
 6556 0ea0 5E000000 		.4byte	.LVL177
 6557 0ea4 0100     		.2byte	0x1
 6558 0ea6 53       		.byte	0x53
 6559 0ea7 62000000 		.4byte	.LVL179
 6560 0eab 68000000 		.4byte	.LVL182
 6561 0eaf 0100     		.2byte	0x1
 6562 0eb1 53       		.byte	0x53
 6563 0eb2 00000000 		.4byte	0
 6564 0eb6 00000000 		.4byte	0
 6565              	.LLST78:
 6566 0eba 00000000 		.4byte	.LVL183
 6567 0ebe 12000000 		.4byte	.LVL184
 6568 0ec2 0100     		.2byte	0x1
 6569 0ec4 50       		.byte	0x50
 6570 0ec5 12000000 		.4byte	.LVL184
 6571 0ec9 14000000 		.4byte	.LVL185
 6572 0ecd 0400     		.2byte	0x4
 6573 0ecf F3       		.byte	0xf3
 6574 0ed0 01       		.uleb128 0x1
 6575 0ed1 50       		.byte	0x50
 6576 0ed2 9F       		.byte	0x9f
 6577 0ed3 14000000 		.4byte	.LVL185
 6578 0ed7 16000000 		.4byte	.LVL186
 6579 0edb 0100     		.2byte	0x1
 6580 0edd 50       		.byte	0x50
 6581 0ede 16000000 		.4byte	.LVL186
 6582 0ee2 1C000000 		.4byte	.LFE60
 6583 0ee6 0400     		.2byte	0x4
 6584 0ee8 F3       		.byte	0xf3
 6585 0ee9 01       		.uleb128 0x1
 6586 0eea 50       		.byte	0x50
 6587 0eeb 9F       		.byte	0x9f
 6588 0eec 00000000 		.4byte	0
 6589 0ef0 00000000 		.4byte	0
 6590              	.LLST79:
 6591 0ef4 00000000 		.4byte	.LVL183
 6592 0ef8 16000000 		.4byte	.LVL186
 6593 0efc 0200     		.2byte	0x2
ARM GAS  C:\Users\kiwamu\AppData\Local\Temp\ccj1MWYe.s 			page 145


 6594 0efe 30       		.byte	0x30
 6595 0eff 9F       		.byte	0x9f
 6596 0f00 16000000 		.4byte	.LVL186
 6597 0f04 1C000000 		.4byte	.LFE60
 6598 0f08 0100     		.2byte	0x1
 6599 0f0a 50       		.byte	0x50
 6600 0f0b 00000000 		.4byte	0
 6601 0f0f 00000000 		.4byte	0
 6602              	.LLST80:
 6603 0f13 00000000 		.4byte	.LVL187
 6604 0f17 10000000 		.4byte	.LVL188
 6605 0f1b 0100     		.2byte	0x1
 6606 0f1d 50       		.byte	0x50
 6607 0f1e 10000000 		.4byte	.LVL188
 6608 0f22 12000000 		.4byte	.LVL189
 6609 0f26 0400     		.2byte	0x4
 6610 0f28 F3       		.byte	0xf3
 6611 0f29 01       		.uleb128 0x1
 6612 0f2a 50       		.byte	0x50
 6613 0f2b 9F       		.byte	0x9f
 6614 0f2c 12000000 		.4byte	.LVL189
 6615 0f30 14000000 		.4byte	.LVL190
 6616 0f34 0100     		.2byte	0x1
 6617 0f36 50       		.byte	0x50
 6618 0f37 14000000 		.4byte	.LVL190
 6619 0f3b 1C000000 		.4byte	.LFE61
 6620 0f3f 0400     		.2byte	0x4
 6621 0f41 F3       		.byte	0xf3
 6622 0f42 01       		.uleb128 0x1
 6623 0f43 50       		.byte	0x50
 6624 0f44 9F       		.byte	0x9f
 6625 0f45 00000000 		.4byte	0
 6626 0f49 00000000 		.4byte	0
 6627              	.LLST81:
 6628 0f4d 00000000 		.4byte	.LVL187
 6629 0f51 14000000 		.4byte	.LVL190
 6630 0f55 0200     		.2byte	0x2
 6631 0f57 30       		.byte	0x30
 6632 0f58 9F       		.byte	0x9f
 6633 0f59 14000000 		.4byte	.LVL190
 6634 0f5d 1C000000 		.4byte	.LFE61
 6635 0f61 0100     		.2byte	0x1
 6636 0f63 50       		.byte	0x50
 6637 0f64 00000000 		.4byte	0
 6638 0f68 00000000 		.4byte	0
 6639              	.LLST82:
 6640 0f6c 00000000 		.4byte	.LVL191
 6641 0f70 12000000 		.4byte	.LVL192
 6642 0f74 0100     		.2byte	0x1
 6643 0f76 50       		.byte	0x50
 6644 0f77 12000000 		.4byte	.LVL192
 6645 0f7b 14000000 		.4byte	.LVL193
 6646 0f7f 0400     		.2byte	0x4
 6647 0f81 F3       		.byte	0xf3
 6648 0f82 01       		.uleb128 0x1
 6649 0f83 50       		.byte	0x50
 6650 0f84 9F       		.byte	0x9f
ARM GAS  C:\Users\kiwamu\AppData\Local\Temp\ccj1MWYe.s 			page 146


 6651 0f85 14000000 		.4byte	.LVL193
 6652 0f89 16000000 		.4byte	.LVL194
 6653 0f8d 0100     		.2byte	0x1
 6654 0f8f 50       		.byte	0x50
 6655 0f90 16000000 		.4byte	.LVL194
 6656 0f94 1C000000 		.4byte	.LFE62
 6657 0f98 0400     		.2byte	0x4
 6658 0f9a F3       		.byte	0xf3
 6659 0f9b 01       		.uleb128 0x1
 6660 0f9c 50       		.byte	0x50
 6661 0f9d 9F       		.byte	0x9f
 6662 0f9e 00000000 		.4byte	0
 6663 0fa2 00000000 		.4byte	0
 6664              	.LLST83:
 6665 0fa6 00000000 		.4byte	.LVL191
 6666 0faa 16000000 		.4byte	.LVL194
 6667 0fae 0200     		.2byte	0x2
 6668 0fb0 30       		.byte	0x30
 6669 0fb1 9F       		.byte	0x9f
 6670 0fb2 16000000 		.4byte	.LVL194
 6671 0fb6 1C000000 		.4byte	.LFE62
 6672 0fba 0100     		.2byte	0x1
 6673 0fbc 50       		.byte	0x50
 6674 0fbd 00000000 		.4byte	0
 6675 0fc1 00000000 		.4byte	0
 6676              	.LLST84:
 6677 0fc5 00000000 		.4byte	.LVL195
 6678 0fc9 10000000 		.4byte	.LVL196
 6679 0fcd 0100     		.2byte	0x1
 6680 0fcf 50       		.byte	0x50
 6681 0fd0 10000000 		.4byte	.LVL196
 6682 0fd4 12000000 		.4byte	.LVL197
 6683 0fd8 0400     		.2byte	0x4
 6684 0fda F3       		.byte	0xf3
 6685 0fdb 01       		.uleb128 0x1
 6686 0fdc 50       		.byte	0x50
 6687 0fdd 9F       		.byte	0x9f
 6688 0fde 12000000 		.4byte	.LVL197
 6689 0fe2 14000000 		.4byte	.LVL198
 6690 0fe6 0100     		.2byte	0x1
 6691 0fe8 50       		.byte	0x50
 6692 0fe9 14000000 		.4byte	.LVL198
 6693 0fed 1C000000 		.4byte	.LFE63
 6694 0ff1 0400     		.2byte	0x4
 6695 0ff3 F3       		.byte	0xf3
 6696 0ff4 01       		.uleb128 0x1
 6697 0ff5 50       		.byte	0x50
 6698 0ff6 9F       		.byte	0x9f
 6699 0ff7 00000000 		.4byte	0
 6700 0ffb 00000000 		.4byte	0
 6701              	.LLST85:
 6702 0fff 00000000 		.4byte	.LVL195
 6703 1003 14000000 		.4byte	.LVL198
 6704 1007 0200     		.2byte	0x2
 6705 1009 30       		.byte	0x30
 6706 100a 9F       		.byte	0x9f
 6707 100b 14000000 		.4byte	.LVL198
ARM GAS  C:\Users\kiwamu\AppData\Local\Temp\ccj1MWYe.s 			page 147


 6708 100f 1C000000 		.4byte	.LFE63
 6709 1013 0100     		.2byte	0x1
 6710 1015 50       		.byte	0x50
 6711 1016 00000000 		.4byte	0
 6712 101a 00000000 		.4byte	0
 6713              	.LLST86:
 6714 101e 00000000 		.4byte	.LVL199
 6715 1022 5C000000 		.4byte	.LVL203
 6716 1026 0100     		.2byte	0x1
 6717 1028 50       		.byte	0x50
 6718 1029 5C000000 		.4byte	.LVL203
 6719 102d 5E000000 		.4byte	.LVL204
 6720 1031 0400     		.2byte	0x4
 6721 1033 F3       		.byte	0xf3
 6722 1034 01       		.uleb128 0x1
 6723 1035 50       		.byte	0x50
 6724 1036 9F       		.byte	0x9f
 6725 1037 5E000000 		.4byte	.LVL204
 6726 103b 60000000 		.4byte	.LVL205
 6727 103f 0100     		.2byte	0x1
 6728 1041 50       		.byte	0x50
 6729 1042 60000000 		.4byte	.LVL205
 6730 1046 62000000 		.4byte	.LVL206
 6731 104a 0400     		.2byte	0x4
 6732 104c F3       		.byte	0xf3
 6733 104d 01       		.uleb128 0x1
 6734 104e 50       		.byte	0x50
 6735 104f 9F       		.byte	0x9f
 6736 1050 62000000 		.4byte	.LVL206
 6737 1054 64000000 		.4byte	.LVL207
 6738 1058 0100     		.2byte	0x1
 6739 105a 50       		.byte	0x50
 6740 105b 64000000 		.4byte	.LVL207
 6741 105f 66000000 		.4byte	.LVL208
 6742 1063 0400     		.2byte	0x4
 6743 1065 F3       		.byte	0xf3
 6744 1066 01       		.uleb128 0x1
 6745 1067 50       		.byte	0x50
 6746 1068 9F       		.byte	0x9f
 6747 1069 66000000 		.4byte	.LVL208
 6748 106d 68000000 		.4byte	.LVL209
 6749 1071 0100     		.2byte	0x1
 6750 1073 50       		.byte	0x50
 6751 1074 68000000 		.4byte	.LVL209
 6752 1078 7C000000 		.4byte	.LFE64
 6753 107c 0400     		.2byte	0x4
 6754 107e F3       		.byte	0xf3
 6755 107f 01       		.uleb128 0x1
 6756 1080 50       		.byte	0x50
 6757 1081 9F       		.byte	0x9f
 6758 1082 00000000 		.4byte	0
 6759 1086 00000000 		.4byte	0
 6760              	.LLST87:
 6761 108a 00000000 		.4byte	.LVL199
 6762 108e 3C000000 		.4byte	.LVL201
 6763 1092 0100     		.2byte	0x1
 6764 1094 51       		.byte	0x51
ARM GAS  C:\Users\kiwamu\AppData\Local\Temp\ccj1MWYe.s 			page 148


 6765 1095 3C000000 		.4byte	.LVL201
 6766 1099 5E000000 		.4byte	.LVL204
 6767 109d 0400     		.2byte	0x4
 6768 109f F3       		.byte	0xf3
 6769 10a0 01       		.uleb128 0x1
 6770 10a1 51       		.byte	0x51
 6771 10a2 9F       		.byte	0x9f
 6772 10a3 5E000000 		.4byte	.LVL204
 6773 10a7 62000000 		.4byte	.LVL206
 6774 10ab 0100     		.2byte	0x1
 6775 10ad 51       		.byte	0x51
 6776 10ae 62000000 		.4byte	.LVL206
 6777 10b2 7C000000 		.4byte	.LFE64
 6778 10b6 0400     		.2byte	0x4
 6779 10b8 F3       		.byte	0xf3
 6780 10b9 01       		.uleb128 0x1
 6781 10ba 51       		.byte	0x51
 6782 10bb 9F       		.byte	0x9f
 6783 10bc 00000000 		.4byte	0
 6784 10c0 00000000 		.4byte	0
 6785              	.LLST88:
 6786 10c4 02000000 		.4byte	.LVL200
 6787 10c8 68000000 		.4byte	.LVL209
 6788 10cc 0200     		.2byte	0x2
 6789 10ce 30       		.byte	0x30
 6790 10cf 9F       		.byte	0x9f
 6791 10d0 68000000 		.4byte	.LVL209
 6792 10d4 7C000000 		.4byte	.LFE64
 6793 10d8 0100     		.2byte	0x1
 6794 10da 50       		.byte	0x50
 6795 10db 00000000 		.4byte	0
 6796 10df 00000000 		.4byte	0
 6797              	.LLST89:
 6798 10e3 46000000 		.4byte	.LVL202
 6799 10e7 5E000000 		.4byte	.LVL204
 6800 10eb 0100     		.2byte	0x1
 6801 10ed 53       		.byte	0x53
 6802 10ee 62000000 		.4byte	.LVL206
 6803 10f2 68000000 		.4byte	.LVL209
 6804 10f6 0100     		.2byte	0x1
 6805 10f8 53       		.byte	0x53
 6806 10f9 00000000 		.4byte	0
 6807 10fd 00000000 		.4byte	0
 6808              	.LLST90:
 6809 1101 00000000 		.4byte	.LVL210
 6810 1105 5C000000 		.4byte	.LVL214
 6811 1109 0100     		.2byte	0x1
 6812 110b 50       		.byte	0x50
 6813 110c 5C000000 		.4byte	.LVL214
 6814 1110 5E000000 		.4byte	.LVL215
 6815 1114 0400     		.2byte	0x4
 6816 1116 F3       		.byte	0xf3
 6817 1117 01       		.uleb128 0x1
 6818 1118 50       		.byte	0x50
 6819 1119 9F       		.byte	0x9f
 6820 111a 5E000000 		.4byte	.LVL215
 6821 111e 60000000 		.4byte	.LVL216
ARM GAS  C:\Users\kiwamu\AppData\Local\Temp\ccj1MWYe.s 			page 149


 6822 1122 0100     		.2byte	0x1
 6823 1124 50       		.byte	0x50
 6824 1125 60000000 		.4byte	.LVL216
 6825 1129 62000000 		.4byte	.LVL217
 6826 112d 0400     		.2byte	0x4
 6827 112f F3       		.byte	0xf3
 6828 1130 01       		.uleb128 0x1
 6829 1131 50       		.byte	0x50
 6830 1132 9F       		.byte	0x9f
 6831 1133 62000000 		.4byte	.LVL217
 6832 1137 64000000 		.4byte	.LVL218
 6833 113b 0100     		.2byte	0x1
 6834 113d 50       		.byte	0x50
 6835 113e 64000000 		.4byte	.LVL218
 6836 1142 66000000 		.4byte	.LVL219
 6837 1146 0400     		.2byte	0x4
 6838 1148 F3       		.byte	0xf3
 6839 1149 01       		.uleb128 0x1
 6840 114a 50       		.byte	0x50
 6841 114b 9F       		.byte	0x9f
 6842 114c 66000000 		.4byte	.LVL219
 6843 1150 68000000 		.4byte	.LVL220
 6844 1154 0100     		.2byte	0x1
 6845 1156 50       		.byte	0x50
 6846 1157 68000000 		.4byte	.LVL220
 6847 115b 7C000000 		.4byte	.LFE65
 6848 115f 0400     		.2byte	0x4
 6849 1161 F3       		.byte	0xf3
 6850 1162 01       		.uleb128 0x1
 6851 1163 50       		.byte	0x50
 6852 1164 9F       		.byte	0x9f
 6853 1165 00000000 		.4byte	0
 6854 1169 00000000 		.4byte	0
 6855              	.LLST91:
 6856 116d 00000000 		.4byte	.LVL210
 6857 1171 3C000000 		.4byte	.LVL212
 6858 1175 0100     		.2byte	0x1
 6859 1177 51       		.byte	0x51
 6860 1178 3C000000 		.4byte	.LVL212
 6861 117c 5E000000 		.4byte	.LVL215
 6862 1180 0400     		.2byte	0x4
 6863 1182 F3       		.byte	0xf3
 6864 1183 01       		.uleb128 0x1
 6865 1184 51       		.byte	0x51
 6866 1185 9F       		.byte	0x9f
 6867 1186 5E000000 		.4byte	.LVL215
 6868 118a 62000000 		.4byte	.LVL217
 6869 118e 0100     		.2byte	0x1
 6870 1190 51       		.byte	0x51
 6871 1191 62000000 		.4byte	.LVL217
 6872 1195 7C000000 		.4byte	.LFE65
 6873 1199 0400     		.2byte	0x4
 6874 119b F3       		.byte	0xf3
 6875 119c 01       		.uleb128 0x1
 6876 119d 51       		.byte	0x51
 6877 119e 9F       		.byte	0x9f
 6878 119f 00000000 		.4byte	0
ARM GAS  C:\Users\kiwamu\AppData\Local\Temp\ccj1MWYe.s 			page 150


 6879 11a3 00000000 		.4byte	0
 6880              	.LLST92:
 6881 11a7 02000000 		.4byte	.LVL211
 6882 11ab 68000000 		.4byte	.LVL220
 6883 11af 0200     		.2byte	0x2
 6884 11b1 30       		.byte	0x30
 6885 11b2 9F       		.byte	0x9f
 6886 11b3 68000000 		.4byte	.LVL220
 6887 11b7 7C000000 		.4byte	.LFE65
 6888 11bb 0100     		.2byte	0x1
 6889 11bd 50       		.byte	0x50
 6890 11be 00000000 		.4byte	0
 6891 11c2 00000000 		.4byte	0
 6892              	.LLST93:
 6893 11c6 46000000 		.4byte	.LVL213
 6894 11ca 5E000000 		.4byte	.LVL215
 6895 11ce 0100     		.2byte	0x1
 6896 11d0 53       		.byte	0x53
 6897 11d1 62000000 		.4byte	.LVL217
 6898 11d5 68000000 		.4byte	.LVL220
 6899 11d9 0100     		.2byte	0x1
 6900 11db 53       		.byte	0x53
 6901 11dc 00000000 		.4byte	0
 6902 11e0 00000000 		.4byte	0
 6903              	.LLST94:
 6904 11e4 00000000 		.4byte	.LVL221
 6905 11e8 12000000 		.4byte	.LVL222
 6906 11ec 0100     		.2byte	0x1
 6907 11ee 50       		.byte	0x50
 6908 11ef 12000000 		.4byte	.LVL222
 6909 11f3 14000000 		.4byte	.LVL223
 6910 11f7 0400     		.2byte	0x4
 6911 11f9 F3       		.byte	0xf3
 6912 11fa 01       		.uleb128 0x1
 6913 11fb 50       		.byte	0x50
 6914 11fc 9F       		.byte	0x9f
 6915 11fd 14000000 		.4byte	.LVL223
 6916 1201 16000000 		.4byte	.LVL224
 6917 1205 0100     		.2byte	0x1
 6918 1207 50       		.byte	0x50
 6919 1208 16000000 		.4byte	.LVL224
 6920 120c 1C000000 		.4byte	.LFE66
 6921 1210 0400     		.2byte	0x4
 6922 1212 F3       		.byte	0xf3
 6923 1213 01       		.uleb128 0x1
 6924 1214 50       		.byte	0x50
 6925 1215 9F       		.byte	0x9f
 6926 1216 00000000 		.4byte	0
 6927 121a 00000000 		.4byte	0
 6928              	.LLST95:
 6929 121e 00000000 		.4byte	.LVL221
 6930 1222 16000000 		.4byte	.LVL224
 6931 1226 0200     		.2byte	0x2
 6932 1228 30       		.byte	0x30
 6933 1229 9F       		.byte	0x9f
 6934 122a 16000000 		.4byte	.LVL224
 6935 122e 1C000000 		.4byte	.LFE66
ARM GAS  C:\Users\kiwamu\AppData\Local\Temp\ccj1MWYe.s 			page 151


 6936 1232 0100     		.2byte	0x1
 6937 1234 50       		.byte	0x50
 6938 1235 00000000 		.4byte	0
 6939 1239 00000000 		.4byte	0
 6940              	.LLST96:
 6941 123d 00000000 		.4byte	.LVL225
 6942 1241 10000000 		.4byte	.LVL226
 6943 1245 0100     		.2byte	0x1
 6944 1247 50       		.byte	0x50
 6945 1248 10000000 		.4byte	.LVL226
 6946 124c 12000000 		.4byte	.LVL227
 6947 1250 0400     		.2byte	0x4
 6948 1252 F3       		.byte	0xf3
 6949 1253 01       		.uleb128 0x1
 6950 1254 50       		.byte	0x50
 6951 1255 9F       		.byte	0x9f
 6952 1256 12000000 		.4byte	.LVL227
 6953 125a 14000000 		.4byte	.LVL228
 6954 125e 0100     		.2byte	0x1
 6955 1260 50       		.byte	0x50
 6956 1261 14000000 		.4byte	.LVL228
 6957 1265 1C000000 		.4byte	.LFE67
 6958 1269 0400     		.2byte	0x4
 6959 126b F3       		.byte	0xf3
 6960 126c 01       		.uleb128 0x1
 6961 126d 50       		.byte	0x50
 6962 126e 9F       		.byte	0x9f
 6963 126f 00000000 		.4byte	0
 6964 1273 00000000 		.4byte	0
 6965              	.LLST97:
 6966 1277 00000000 		.4byte	.LVL225
 6967 127b 14000000 		.4byte	.LVL228
 6968 127f 0200     		.2byte	0x2
 6969 1281 30       		.byte	0x30
 6970 1282 9F       		.byte	0x9f
 6971 1283 14000000 		.4byte	.LVL228
 6972 1287 1C000000 		.4byte	.LFE67
 6973 128b 0100     		.2byte	0x1
 6974 128d 50       		.byte	0x50
 6975 128e 00000000 		.4byte	0
 6976 1292 00000000 		.4byte	0
 6977              	.LLST98:
 6978 1296 00000000 		.4byte	.LVL229
 6979 129a 12000000 		.4byte	.LVL230
 6980 129e 0100     		.2byte	0x1
 6981 12a0 50       		.byte	0x50
 6982 12a1 12000000 		.4byte	.LVL230
 6983 12a5 14000000 		.4byte	.LVL231
 6984 12a9 0400     		.2byte	0x4
 6985 12ab F3       		.byte	0xf3
 6986 12ac 01       		.uleb128 0x1
 6987 12ad 50       		.byte	0x50
 6988 12ae 9F       		.byte	0x9f
 6989 12af 14000000 		.4byte	.LVL231
 6990 12b3 16000000 		.4byte	.LVL232
 6991 12b7 0100     		.2byte	0x1
 6992 12b9 50       		.byte	0x50
ARM GAS  C:\Users\kiwamu\AppData\Local\Temp\ccj1MWYe.s 			page 152


 6993 12ba 16000000 		.4byte	.LVL232
 6994 12be 1C000000 		.4byte	.LFE68
 6995 12c2 0400     		.2byte	0x4
 6996 12c4 F3       		.byte	0xf3
 6997 12c5 01       		.uleb128 0x1
 6998 12c6 50       		.byte	0x50
 6999 12c7 9F       		.byte	0x9f
 7000 12c8 00000000 		.4byte	0
 7001 12cc 00000000 		.4byte	0
 7002              	.LLST99:
 7003 12d0 00000000 		.4byte	.LVL229
 7004 12d4 16000000 		.4byte	.LVL232
 7005 12d8 0200     		.2byte	0x2
 7006 12da 30       		.byte	0x30
 7007 12db 9F       		.byte	0x9f
 7008 12dc 16000000 		.4byte	.LVL232
 7009 12e0 1C000000 		.4byte	.LFE68
 7010 12e4 0100     		.2byte	0x1
 7011 12e6 50       		.byte	0x50
 7012 12e7 00000000 		.4byte	0
 7013 12eb 00000000 		.4byte	0
 7014              	.LLST100:
 7015 12ef 00000000 		.4byte	.LVL233
 7016 12f3 10000000 		.4byte	.LVL234
 7017 12f7 0100     		.2byte	0x1
 7018 12f9 50       		.byte	0x50
 7019 12fa 10000000 		.4byte	.LVL234
 7020 12fe 12000000 		.4byte	.LVL235
 7021 1302 0400     		.2byte	0x4
 7022 1304 F3       		.byte	0xf3
 7023 1305 01       		.uleb128 0x1
 7024 1306 50       		.byte	0x50
 7025 1307 9F       		.byte	0x9f
 7026 1308 12000000 		.4byte	.LVL235
 7027 130c 14000000 		.4byte	.LVL236
 7028 1310 0100     		.2byte	0x1
 7029 1312 50       		.byte	0x50
 7030 1313 14000000 		.4byte	.LVL236
 7031 1317 1C000000 		.4byte	.LFE69
 7032 131b 0400     		.2byte	0x4
 7033 131d F3       		.byte	0xf3
 7034 131e 01       		.uleb128 0x1
 7035 131f 50       		.byte	0x50
 7036 1320 9F       		.byte	0x9f
 7037 1321 00000000 		.4byte	0
 7038 1325 00000000 		.4byte	0
 7039              	.LLST101:
 7040 1329 00000000 		.4byte	.LVL233
 7041 132d 14000000 		.4byte	.LVL236
 7042 1331 0200     		.2byte	0x2
 7043 1333 30       		.byte	0x30
 7044 1334 9F       		.byte	0x9f
 7045 1335 14000000 		.4byte	.LVL236
 7046 1339 1C000000 		.4byte	.LFE69
 7047 133d 0100     		.2byte	0x1
 7048 133f 50       		.byte	0x50
 7049 1340 00000000 		.4byte	0
ARM GAS  C:\Users\kiwamu\AppData\Local\Temp\ccj1MWYe.s 			page 153


 7050 1344 00000000 		.4byte	0
 7051              		.section	.debug_aranges,"",%progbits
 7052 0000 34010000 		.4byte	0x134
 7053 0004 0200     		.2byte	0x2
 7054 0006 00000000 		.4byte	.Ldebug_info0
 7055 000a 04       		.byte	0x4
 7056 000b 00       		.byte	0
 7057 000c 0000     		.2byte	0
 7058 000e 0000     		.2byte	0
 7059 0010 00000000 		.4byte	.LFB34
 7060 0014 38000000 		.4byte	.LFE34-.LFB34
 7061 0018 00000000 		.4byte	.LFB35
 7062 001c 40000000 		.4byte	.LFE35-.LFB35
 7063 0020 00000000 		.4byte	.LFB36
 7064 0024 14000000 		.4byte	.LFE36-.LFB36
 7065 0028 00000000 		.4byte	.LFB37
 7066 002c 5C000000 		.4byte	.LFE37-.LFB37
 7067 0030 00000000 		.4byte	.LFB38
 7068 0034 1C000000 		.4byte	.LFE38-.LFB38
 7069 0038 00000000 		.4byte	.LFB39
 7070 003c 1C000000 		.4byte	.LFE39-.LFB39
 7071 0040 00000000 		.4byte	.LFB40
 7072 0044 7C000000 		.4byte	.LFE40-.LFB40
 7073 0048 00000000 		.4byte	.LFB41
 7074 004c 98000000 		.4byte	.LFE41-.LFB41
 7075 0050 00000000 		.4byte	.LFB42
 7076 0054 1C000000 		.4byte	.LFE42-.LFB42
 7077 0058 00000000 		.4byte	.LFB43
 7078 005c 1C000000 		.4byte	.LFE43-.LFB43
 7079 0060 00000000 		.4byte	.LFB44
 7080 0064 1C000000 		.4byte	.LFE44-.LFB44
 7081 0068 00000000 		.4byte	.LFB45
 7082 006c 1C000000 		.4byte	.LFE45-.LFB45
 7083 0070 00000000 		.4byte	.LFB46
 7084 0074 7C000000 		.4byte	.LFE46-.LFB46
 7085 0078 00000000 		.4byte	.LFB47
 7086 007c A4000000 		.4byte	.LFE47-.LFB47
 7087 0080 00000000 		.4byte	.LFB48
 7088 0084 1C000000 		.4byte	.LFE48-.LFB48
 7089 0088 00000000 		.4byte	.LFB49
 7090 008c 1C000000 		.4byte	.LFE49-.LFB49
 7091 0090 00000000 		.4byte	.LFB50
 7092 0094 1C000000 		.4byte	.LFE50-.LFB50
 7093 0098 00000000 		.4byte	.LFB51
 7094 009c 1C000000 		.4byte	.LFE51-.LFB51
 7095 00a0 00000000 		.4byte	.LFB52
 7096 00a4 7C000000 		.4byte	.LFE52-.LFB52
 7097 00a8 00000000 		.4byte	.LFB53
 7098 00ac 7C000000 		.4byte	.LFE53-.LFB53
 7099 00b0 00000000 		.4byte	.LFB54
 7100 00b4 1C000000 		.4byte	.LFE54-.LFB54
 7101 00b8 00000000 		.4byte	.LFB55
 7102 00bc 1C000000 		.4byte	.LFE55-.LFB55
 7103 00c0 00000000 		.4byte	.LFB56
 7104 00c4 1C000000 		.4byte	.LFE56-.LFB56
 7105 00c8 00000000 		.4byte	.LFB57
 7106 00cc 1C000000 		.4byte	.LFE57-.LFB57
ARM GAS  C:\Users\kiwamu\AppData\Local\Temp\ccj1MWYe.s 			page 154


 7107 00d0 00000000 		.4byte	.LFB58
 7108 00d4 7C000000 		.4byte	.LFE58-.LFB58
 7109 00d8 00000000 		.4byte	.LFB59
 7110 00dc 7C000000 		.4byte	.LFE59-.LFB59
 7111 00e0 00000000 		.4byte	.LFB60
 7112 00e4 1C000000 		.4byte	.LFE60-.LFB60
 7113 00e8 00000000 		.4byte	.LFB61
 7114 00ec 1C000000 		.4byte	.LFE61-.LFB61
 7115 00f0 00000000 		.4byte	.LFB62
 7116 00f4 1C000000 		.4byte	.LFE62-.LFB62
 7117 00f8 00000000 		.4byte	.LFB63
 7118 00fc 1C000000 		.4byte	.LFE63-.LFB63
 7119 0100 00000000 		.4byte	.LFB64
 7120 0104 7C000000 		.4byte	.LFE64-.LFB64
 7121 0108 00000000 		.4byte	.LFB65
 7122 010c 7C000000 		.4byte	.LFE65-.LFB65
 7123 0110 00000000 		.4byte	.LFB66
 7124 0114 1C000000 		.4byte	.LFE66-.LFB66
 7125 0118 00000000 		.4byte	.LFB67
 7126 011c 1C000000 		.4byte	.LFE67-.LFB67
 7127 0120 00000000 		.4byte	.LFB68
 7128 0124 1C000000 		.4byte	.LFE68-.LFB68
 7129 0128 00000000 		.4byte	.LFB69
 7130 012c 1C000000 		.4byte	.LFE69-.LFB69
 7131 0130 00000000 		.4byte	0
 7132 0134 00000000 		.4byte	0
 7133              		.section	.debug_ranges,"",%progbits
 7134              	.Ldebug_ranges0:
 7135 0000 00000000 		.4byte	.LFB34
 7136 0004 38000000 		.4byte	.LFE34
 7137 0008 00000000 		.4byte	.LFB35
 7138 000c 40000000 		.4byte	.LFE35
 7139 0010 00000000 		.4byte	.LFB36
 7140 0014 14000000 		.4byte	.LFE36
 7141 0018 00000000 		.4byte	.LFB37
 7142 001c 5C000000 		.4byte	.LFE37
 7143 0020 00000000 		.4byte	.LFB38
 7144 0024 1C000000 		.4byte	.LFE38
 7145 0028 00000000 		.4byte	.LFB39
 7146 002c 1C000000 		.4byte	.LFE39
 7147 0030 00000000 		.4byte	.LFB40
 7148 0034 7C000000 		.4byte	.LFE40
 7149 0038 00000000 		.4byte	.LFB41
 7150 003c 98000000 		.4byte	.LFE41
 7151 0040 00000000 		.4byte	.LFB42
 7152 0044 1C000000 		.4byte	.LFE42
 7153 0048 00000000 		.4byte	.LFB43
 7154 004c 1C000000 		.4byte	.LFE43
 7155 0050 00000000 		.4byte	.LFB44
 7156 0054 1C000000 		.4byte	.LFE44
 7157 0058 00000000 		.4byte	.LFB45
 7158 005c 1C000000 		.4byte	.LFE45
 7159 0060 00000000 		.4byte	.LFB46
 7160 0064 7C000000 		.4byte	.LFE46
 7161 0068 00000000 		.4byte	.LFB47
 7162 006c A4000000 		.4byte	.LFE47
 7163 0070 00000000 		.4byte	.LFB48
ARM GAS  C:\Users\kiwamu\AppData\Local\Temp\ccj1MWYe.s 			page 155


 7164 0074 1C000000 		.4byte	.LFE48
 7165 0078 00000000 		.4byte	.LFB49
 7166 007c 1C000000 		.4byte	.LFE49
 7167 0080 00000000 		.4byte	.LFB50
 7168 0084 1C000000 		.4byte	.LFE50
 7169 0088 00000000 		.4byte	.LFB51
 7170 008c 1C000000 		.4byte	.LFE51
 7171 0090 00000000 		.4byte	.LFB52
 7172 0094 7C000000 		.4byte	.LFE52
 7173 0098 00000000 		.4byte	.LFB53
 7174 009c 7C000000 		.4byte	.LFE53
 7175 00a0 00000000 		.4byte	.LFB54
 7176 00a4 1C000000 		.4byte	.LFE54
 7177 00a8 00000000 		.4byte	.LFB55
 7178 00ac 1C000000 		.4byte	.LFE55
 7179 00b0 00000000 		.4byte	.LFB56
 7180 00b4 1C000000 		.4byte	.LFE56
 7181 00b8 00000000 		.4byte	.LFB57
 7182 00bc 1C000000 		.4byte	.LFE57
 7183 00c0 00000000 		.4byte	.LFB58
 7184 00c4 7C000000 		.4byte	.LFE58
 7185 00c8 00000000 		.4byte	.LFB59
 7186 00cc 7C000000 		.4byte	.LFE59
 7187 00d0 00000000 		.4byte	.LFB60
 7188 00d4 1C000000 		.4byte	.LFE60
 7189 00d8 00000000 		.4byte	.LFB61
 7190 00dc 1C000000 		.4byte	.LFE61
 7191 00e0 00000000 		.4byte	.LFB62
 7192 00e4 1C000000 		.4byte	.LFE62
 7193 00e8 00000000 		.4byte	.LFB63
 7194 00ec 1C000000 		.4byte	.LFE63
 7195 00f0 00000000 		.4byte	.LFB64
 7196 00f4 7C000000 		.4byte	.LFE64
 7197 00f8 00000000 		.4byte	.LFB65
 7198 00fc 7C000000 		.4byte	.LFE65
 7199 0100 00000000 		.4byte	.LFB66
 7200 0104 1C000000 		.4byte	.LFE66
 7201 0108 00000000 		.4byte	.LFB67
 7202 010c 1C000000 		.4byte	.LFE67
 7203 0110 00000000 		.4byte	.LFB68
 7204 0114 1C000000 		.4byte	.LFE68
 7205 0118 00000000 		.4byte	.LFB69
 7206 011c 1C000000 		.4byte	.LFE69
 7207 0120 00000000 		.4byte	0
 7208 0124 00000000 		.4byte	0
 7209              		.section	.debug_line,"",%progbits
 7210              	.Ldebug_line0:
 7211 0000 CD050000 		.section	.debug_str,"MS",%progbits,1
 7211      0200F201 
 7211      00000201 
 7211      FB0E0D00 
 7211      01010101 
 7212              	.LASF77:
 7213 0000 43595F50 		.ascii	"CY_PROT_SIZE_512B\000"
 7213      524F545F 
 7213      53495A45 
 7213      5F353132 
ARM GAS  C:\Users\kiwamu\AppData\Local\Temp\ccj1MWYe.s 			page 156


 7213      4200
 7214              	.LASF44:
 7215 0012 4D533130 		.ascii	"MS10_CTL\000"
 7215      5F43544C 
 7215      00
 7216              	.LASF114:
 7217 001b 63795F73 		.ascii	"cy_stc_ppu_gr_cfg_t\000"
 7217      74635F70 
 7217      70755F67 
 7217      725F6366 
 7217      675F7400 
 7218              	.LASF64:
 7219 002f 43595F50 		.ascii	"CY_PROT_BAD_PARAM\000"
 7219      524F545F 
 7219      4241445F 
 7219      50415241 
 7219      4D00
 7220              	.LASF116:
 7221 0041 63795F73 		.ascii	"cy_stc_ppu_rg_cfg_t\000"
 7221      74635F70 
 7221      70755F72 
 7221      675F6366 
 7221      675F7400 
 7222              	.LASF140:
 7223 0055 43795F50 		.ascii	"Cy_Prot_ConfigPpuProgSlaveStruct\000"
 7223      726F745F 
 7223      436F6E66 
 7223      69675070 
 7223      7550726F 
 7224              	.LASF159:
 7225 0076 43795F50 		.ascii	"Cy_Prot_EnablePpuFixedRgMasterStruct\000"
 7225      726F745F 
 7225      456E6162 
 7225      6C655070 
 7225      75466978 
 7226              	.LASF3:
 7227 009b 5F5F7569 		.ascii	"__uint8_t\000"
 7227      6E74385F 
 7227      7400
 7228              	.LASF134:
 7229 00a5 43795F50 		.ascii	"Cy_Prot_ConfigSmpuSlaveStruct\000"
 7229      726F745F 
 7229      436F6E66 
 7229      6967536D 
 7229      7075536C 
 7230              	.LASF69:
 7231 00c3 43595F50 		.ascii	"CY_PROT_PERM_W\000"
 7231      524F545F 
 7231      5045524D 
 7231      5F5700
 7232              	.LASF160:
 7233 00d2 43795F50 		.ascii	"Cy_Prot_DisablePpuFixedRgMasterStruct\000"
 7233      726F745F 
 7233      44697361 
 7233      626C6550 
 7233      70754669 
 7234              	.LASF30:
ARM GAS  C:\Users\kiwamu\AppData\Local\Temp\ccj1MWYe.s 			page 157


 7235 00f8 50455249 		.ascii	"PERI_PPU_GR_Type\000"
 7235      5F505055 
 7235      5F47525F 
 7235      54797065 
 7235      00
 7236              	.LASF129:
 7237 0109 61646472 		.ascii	"addrReg\000"
 7237      52656700 
 7238              	.LASF10:
 7239 0111 6C6F6E67 		.ascii	"long long unsigned int\000"
 7239      206C6F6E 
 7239      6720756E 
 7239      7369676E 
 7239      65642069 
 7240              	.LASF74:
 7241 0128 43595F50 		.ascii	"CY_PROT_PERM_RWX\000"
 7241      524F545F 
 7241      5045524D 
 7241      5F525758 
 7241      00
 7242              	.LASF57:
 7243 0139 534D5055 		.ascii	"SMPU\000"
 7243      00
 7244              	.LASF68:
 7245 013e 43595F50 		.ascii	"CY_PROT_PERM_R\000"
 7245      524F545F 
 7245      5045524D 
 7245      5F5200
 7246              	.LASF41:
 7247 014d 4D53375F 		.ascii	"MS7_CTL\000"
 7247      43544C00 
 7248              	.LASF52:
 7249 0155 41444452 		.ascii	"ADDR\000"
 7249      00
 7250              	.LASF125:
 7251 015a 43795F50 		.ascii	"Cy_Prot_GetActivePC\000"
 7251      726F745F 
 7251      47657441 
 7251      63746976 
 7251      65504300 
 7252              	.LASF9:
 7253 016e 6C6F6E67 		.ascii	"long long int\000"
 7253      206C6F6E 
 7253      6720696E 
 7253      7400
 7254              	.LASF0:
 7255 017c 7369676E 		.ascii	"signed char\000"
 7255      65642063 
 7255      68617200 
 7256              	.LASF76:
 7257 0188 43595F50 		.ascii	"CY_PROT_SIZE_256B\000"
 7257      524F545F 
 7257      53495A45 
 7257      5F323536 
 7257      4200
 7258              	.LASF59:
 7259 019a 50524F54 		.ascii	"PROT_Type\000"
ARM GAS  C:\Users\kiwamu\AppData\Local\Temp\ccj1MWYe.s 			page 158


 7259      5F547970 
 7259      6500
 7260              	.LASF132:
 7261 01a4 43795F50 		.ascii	"Cy_Prot_DisableMpuStruct\000"
 7261      726F745F 
 7261      44697361 
 7261      626C654D 
 7261      70755374 
 7262              	.LASF49:
 7263 01bd 4D533135 		.ascii	"MS15_CTL\000"
 7263      5F43544C 
 7263      00
 7264              	.LASF17:
 7265 01c6 43505553 		.ascii	"CPUSS_MS_ID_CRYPTO\000"
 7265      535F4D53 
 7265      5F49445F 
 7265      43525950 
 7265      544F00
 7266              	.LASF146:
 7267 01d9 43795F50 		.ascii	"Cy_Prot_ConfigPpuFixedGrSlaveStruct\000"
 7267      726F745F 
 7267      436F6E66 
 7267      69675070 
 7267      75466978 
 7268              	.LASF81:
 7269 01fd 43595F50 		.ascii	"CY_PROT_SIZE_8KB\000"
 7269      524F545F 
 7269      53495A45 
 7269      5F384B42 
 7269      00
 7270              	.LASF155:
 7271 020e 43795F50 		.ascii	"Cy_Prot_EnablePpuFixedSlSlaveStruct\000"
 7271      726F745F 
 7271      456E6162 
 7271      6C655070 
 7271      75466978 
 7272              	.LASF133:
 7273 0232 43795F50 		.ascii	"Cy_Prot_ConfigSmpuMasterStruct\000"
 7273      726F745F 
 7273      436F6E66 
 7273      6967536D 
 7273      70754D61 
 7274              	.LASF6:
 7275 0251 6C6F6E67 		.ascii	"long int\000"
 7275      20696E74 
 7275      00
 7276              	.LASF111:
 7277 025a 70634D61 		.ascii	"pcMask\000"
 7277      736B00
 7278              	.LASF22:
 7279 0261 656E5F70 		.ascii	"en_prot_master_t\000"
 7279      726F745F 
 7279      6D617374 
 7279      65725F74 
 7279      00
 7280              	.LASF13:
 7281 0272 75696E74 		.ascii	"uint16_t\000"
ARM GAS  C:\Users\kiwamu\AppData\Local\Temp\ccj1MWYe.s 			page 159


 7281      31365F74 
 7281      00
 7282              	.LASF62:
 7283 027b 646F7562 		.ascii	"double\000"
 7283      6C6500
 7284              	.LASF38:
 7285 0282 4D53345F 		.ascii	"MS4_CTL\000"
 7285      43544C00 
 7286              	.LASF53:
 7287 028a 50524F54 		.ascii	"PROT_MPU_MPU_STRUCT_Type\000"
 7287      5F4D5055 
 7287      5F4D5055 
 7287      5F535452 
 7287      5543545F 
 7288              	.LASF79:
 7289 02a3 43595F50 		.ascii	"CY_PROT_SIZE_2KB\000"
 7289      524F545F 
 7289      53495A45 
 7289      5F324B42 
 7289      00
 7290              	.LASF147:
 7291 02b4 43795F50 		.ascii	"Cy_Prot_EnablePpuFixedGrMasterStruct\000"
 7291      726F745F 
 7291      456E6162 
 7291      6C655070 
 7291      75466978 
 7292              	.LASF24:
 7293 02d9 41545430 		.ascii	"ATT0\000"
 7293      00
 7294              	.LASF124:
 7295 02de 61646472 		.ascii	"addrMpu\000"
 7295      4D707500 
 7296              	.LASF7:
 7297 02e6 5F5F7569 		.ascii	"__uint32_t\000"
 7297      6E743332 
 7297      5F7400
 7298              	.LASF55:
 7299 02f1 4D50555F 		.ascii	"MPU_STRUCT\000"
 7299      53545255 
 7299      435400
 7300              	.LASF154:
 7301 02fc 43795F50 		.ascii	"Cy_Prot_DisablePpuFixedSlMasterStruct\000"
 7301      726F745F 
 7301      44697361 
 7301      626C6550 
 7301      70754669 
 7302              	.LASF156:
 7303 0322 43795F50 		.ascii	"Cy_Prot_DisablePpuFixedSlSlaveStruct\000"
 7303      726F745F 
 7303      44697361 
 7303      626C6550 
 7303      70754669 
 7304              	.LASF67:
 7305 0347 43595F50 		.ascii	"CY_PROT_PERM_DISABLED\000"
 7305      524F545F 
 7305      5045524D 
 7305      5F444953 
ARM GAS  C:\Users\kiwamu\AppData\Local\Temp\ccj1MWYe.s 			page 160


 7305      41424C45 
 7306              	.LASF165:
 7307 035d 43795F50 		.ascii	"Cy_Prot_DisablePpuFixedRgSlaveStruct\000"
 7307      726F745F 
 7307      44697361 
 7307      626C6550 
 7307      70754669 
 7308              	.LASF113:
 7309 0382 63795F73 		.ascii	"cy_stc_ppu_prog_cfg_t\000"
 7309      74635F70 
 7309      70755F70 
 7309      726F675F 
 7309      6366675F 
 7310              	.LASF11:
 7311 0398 756E7369 		.ascii	"unsigned int\000"
 7311      676E6564 
 7311      20696E74 
 7311      00
 7312              	.LASF86:
 7313 03a5 43595F50 		.ascii	"CY_PROT_SIZE_256KB\000"
 7313      524F545F 
 7313      53495A45 
 7313      5F323536 
 7313      4B4200
 7314              	.LASF118:
 7315 03b8 70726976 		.ascii	"privileged\000"
 7315      696C6567 
 7315      656400
 7316              	.LASF63:
 7317 03c3 43595F50 		.ascii	"CY_PROT_SUCCESS\000"
 7317      524F545F 
 7317      53554343 
 7317      45535300 
 7318              	.LASF83:
 7319 03d3 43595F50 		.ascii	"CY_PROT_SIZE_32KB\000"
 7319      524F545F 
 7319      53495A45 
 7319      5F33324B 
 7319      4200
 7320              	.LASF8:
 7321 03e5 6C6F6E67 		.ascii	"long unsigned int\000"
 7321      20756E73 
 7321      69676E65 
 7321      6420696E 
 7321      7400
 7322              	.LASF35:
 7323 03f7 4D53315F 		.ascii	"MS1_CTL\000"
 7323      43544C00 
 7324              	.LASF84:
 7325 03ff 43595F50 		.ascii	"CY_PROT_SIZE_64KB\000"
 7325      524F545F 
 7325      53495A45 
 7325      5F36344B 
 7325      4200
 7326              	.LASF100:
 7327 0411 43595F50 		.ascii	"CY_PROT_SIZE_4GB\000"
 7327      524F545F 
ARM GAS  C:\Users\kiwamu\AppData\Local\Temp\ccj1MWYe.s 			page 161


 7327      53495A45 
 7327      5F344742 
 7327      00
 7328              	.LASF87:
 7329 0422 43595F50 		.ascii	"CY_PROT_SIZE_512KB\000"
 7329      524F545F 
 7329      53495A45 
 7329      5F353132 
 7329      4B4200
 7330              	.LASF43:
 7331 0435 4D53395F 		.ascii	"MS9_CTL\000"
 7331      43544C00 
 7332              	.LASF109:
 7333 043d 63795F73 		.ascii	"cy_stc_mpu_cfg_t\000"
 7333      74635F6D 
 7333      70755F63 
 7333      66675F74 
 7333      00
 7334              	.LASF5:
 7335 044e 73686F72 		.ascii	"short unsigned int\000"
 7335      7420756E 
 7335      7369676E 
 7335      65642069 
 7335      6E7400
 7336              	.LASF23:
 7337 0461 41444452 		.ascii	"ADDR0\000"
 7337      3000
 7338              	.LASF26:
 7339 0467 41444452 		.ascii	"ADDR1\000"
 7339      3100
 7340              	.LASF163:
 7341 046d 47656E65 		.ascii	"Generated_Source\\PSoC6\\pdl\\drivers\\peripheral\\"
 7341      72617465 
 7341      645F536F 
 7341      75726365 
 7341      5C50536F 
 7342 049b 70726F74 		.ascii	"prot\\cy_prot.c\000"
 7342      5C63795F 
 7342      70726F74 
 7342      2E6300
 7343              	.LASF161:
 7344 04aa 43795F50 		.ascii	"Cy_Prot_EnablePpuFixedRgSlaveStruct\000"
 7344      726F745F 
 7344      456E6162 
 7344      6C655070 
 7344      75466978 
 7345              	.LASF123:
 7346 04ce 43795F50 		.ascii	"Cy_Prot_SetActivePC\000"
 7346      726F745F 
 7346      53657441 
 7346      63746976 
 7346      65504300 
 7347              	.LASF31:
 7348 04e2 50455249 		.ascii	"PERI_GR_PPU_SL_Type\000"
 7348      5F47525F 
 7348      5050555F 
 7348      534C5F54 
ARM GAS  C:\Users\kiwamu\AppData\Local\Temp\ccj1MWYe.s 			page 162


 7348      79706500 
 7349              	.LASF153:
 7350 04f6 43795F50 		.ascii	"Cy_Prot_EnablePpuFixedSlMasterStruct\000"
 7350      726F745F 
 7350      456E6162 
 7350      6C655070 
 7350      75466978 
 7351              	.LASF120:
 7352 051b 72656756 		.ascii	"regVal\000"
 7352      616C00
 7353              	.LASF91:
 7354 0522 43595F50 		.ascii	"CY_PROT_SIZE_8MB\000"
 7354      524F545F 
 7354      53495A45 
 7354      5F384D42 
 7354      00
 7355              	.LASF78:
 7356 0533 43595F50 		.ascii	"CY_PROT_SIZE_1KB\000"
 7356      524F545F 
 7356      53495A45 
 7356      5F314B42 
 7356      00
 7357              	.LASF82:
 7358 0544 43595F50 		.ascii	"CY_PROT_SIZE_16KB\000"
 7358      524F545F 
 7358      53495A45 
 7358      5F31364B 
 7358      4200
 7359              	.LASF56:
 7360 0556 50524F54 		.ascii	"PROT_MPU_Type\000"
 7360      5F4D5055 
 7360      5F547970 
 7360      6500
 7361              	.LASF117:
 7362 0564 6275734D 		.ascii	"busMaster\000"
 7362      61737465 
 7362      7200
 7363              	.LASF127:
 7364 056e 62617365 		.ascii	"base\000"
 7364      00
 7365              	.LASF139:
 7366 0573 43795F50 		.ascii	"Cy_Prot_ConfigPpuProgMasterStruct\000"
 7366      726F745F 
 7366      436F6E66 
 7366      69675070 
 7366      7550726F 
 7367              	.LASF40:
 7368 0595 4D53365F 		.ascii	"MS6_CTL\000"
 7368      43544C00 
 7369              	.LASF73:
 7370 059d 43595F50 		.ascii	"CY_PROT_PERM_WX\000"
 7370      524F545F 
 7370      5045524D 
 7370      5F575800 
 7371              	.LASF164:
 7372 05ad 433A5C55 		.ascii	"C:\\Users\\kiwamu\\Downloads\\CE220465\\CE220465_PS"
 7372      73657273 
ARM GAS  C:\Users\kiwamu\AppData\Local\Temp\ccj1MWYe.s 			page 163


 7372      5C6B6977 
 7372      616D755C 
 7372      446F776E 
 7373 05db 6F435F36 		.ascii	"oC_6_MCU_Cryptography_AES_Demonstration.cydsn\000"
 7373      5F4D4355 
 7373      5F437279 
 7373      70746F67 
 7373      72617068 
 7374              	.LASF105:
 7375 0609 75736572 		.ascii	"userPermission\000"
 7375      5065726D 
 7375      69737369 
 7375      6F6E00
 7376              	.LASF102:
 7377 0618 61646472 		.ascii	"address\000"
 7377      65737300 
 7378              	.LASF58:
 7379 0620 43594D50 		.ascii	"CYMPU\000"
 7379      5500
 7380              	.LASF54:
 7381 0626 4D535F43 		.ascii	"MS_CTL\000"
 7381      544C00
 7382              	.LASF89:
 7383 062d 43595F50 		.ascii	"CY_PROT_SIZE_2MB\000"
 7383      524F545F 
 7383      53495A45 
 7383      5F324D42 
 7383      00
 7384              	.LASF136:
 7385 063e 43795F50 		.ascii	"Cy_Prot_DisableSmpuMasterStruct\000"
 7385      726F745F 
 7385      44697361 
 7385      626C6553 
 7385      6D70754D 
 7386              	.LASF48:
 7387 065e 4D533134 		.ascii	"MS14_CTL\000"
 7387      5F43544C 
 7387      00
 7388              	.LASF137:
 7389 0667 43795F50 		.ascii	"Cy_Prot_EnableSmpuSlaveStruct\000"
 7389      726F745F 
 7389      456E6162 
 7389      6C65536D 
 7389      7075536C 
 7390              	.LASF141:
 7391 0685 43795F50 		.ascii	"Cy_Prot_EnablePpuProgMasterStruct\000"
 7391      726F745F 
 7391      456E6162 
 7391      6C655070 
 7391      7550726F 
 7392              	.LASF122:
 7393 06a7 43795F50 		.ascii	"Cy_Prot_ConfigBusMaster\000"
 7393      726F745F 
 7393      436F6E66 
 7393      69674275 
 7393      734D6173 
 7394              	.LASF20:
ARM GAS  C:\Users\kiwamu\AppData\Local\Temp\ccj1MWYe.s 			page 164


 7395 06bf 43505553 		.ascii	"CPUSS_MS_ID_CM4\000"
 7395      535F4D53 
 7395      5F49445F 
 7395      434D3400 
 7396              	.LASF106:
 7397 06cf 70726976 		.ascii	"privPermission\000"
 7397      5065726D 
 7397      69737369 
 7397      6F6E00
 7398              	.LASF149:
 7399 06de 43795F50 		.ascii	"Cy_Prot_EnablePpuFixedGrSlaveStruct\000"
 7399      726F745F 
 7399      456E6162 
 7399      6C655070 
 7399      75466978 
 7400              	.LASF96:
 7401 0702 43595F50 		.ascii	"CY_PROT_SIZE_256MB\000"
 7401      524F545F 
 7401      53495A45 
 7401      5F323536 
 7401      4D4200
 7402              	.LASF71:
 7403 0715 43595F50 		.ascii	"CY_PROT_PERM_X\000"
 7403      524F545F 
 7403      5045524D 
 7403      5F5800
 7404              	.LASF131:
 7405 0724 43795F50 		.ascii	"Cy_Prot_EnableMpuStruct\000"
 7405      726F745F 
 7405      456E6162 
 7405      6C654D70 
 7405      75537472 
 7406              	.LASF135:
 7407 073c 43795F50 		.ascii	"Cy_Prot_EnableSmpuMasterStruct\000"
 7407      726F745F 
 7407      456E6162 
 7407      6C65536D 
 7407      70754D61 
 7408              	.LASF93:
 7409 075b 43595F50 		.ascii	"CY_PROT_SIZE_32MB\000"
 7409      524F545F 
 7409      53495A45 
 7409      5F33324D 
 7409      4200
 7410              	.LASF28:
 7411 076d 52455345 		.ascii	"RESERVED1\000"
 7411      52564544 
 7411      3100
 7412              	.LASF115:
 7413 0777 63795F73 		.ascii	"cy_stc_ppu_sl_cfg_t\000"
 7413      74635F70 
 7413      70755F73 
 7413      6C5F6366 
 7413      675F7400 
 7414              	.LASF107:
 7415 078b 73656375 		.ascii	"secure\000"
 7415      726500
ARM GAS  C:\Users\kiwamu\AppData\Local\Temp\ccj1MWYe.s 			page 165


 7416              	.LASF33:
 7417 0792 50524F54 		.ascii	"PROT_SMPU_SMPU_STRUCT_Type\000"
 7417      5F534D50 
 7417      555F534D 
 7417      50555F53 
 7417      54525543 
 7418              	.LASF90:
 7419 07ad 43595F50 		.ascii	"CY_PROT_SIZE_4MB\000"
 7419      524F545F 
 7419      53495A45 
 7419      5F344D42 
 7419      00
 7420              	.LASF158:
 7421 07be 43795F50 		.ascii	"Cy_Prot_ConfigPpuFixedRgSlaveStruct\000"
 7421      726F745F 
 7421      436F6E66 
 7421      69675070 
 7421      75466978 
 7422              	.LASF108:
 7423 07e2 5F426F6F 		.ascii	"_Bool\000"
 7423      6C00
 7424              	.LASF1:
 7425 07e8 756E7369 		.ascii	"unsigned char\000"
 7425      676E6564 
 7425      20636861 
 7425      7200
 7426              	.LASF126:
 7427 07f6 43795F50 		.ascii	"Cy_Prot_ConfigMpuStruct\000"
 7427      726F745F 
 7427      436F6E66 
 7427      69674D70 
 7427      75537472 
 7428              	.LASF45:
 7429 080e 4D533131 		.ascii	"MS11_CTL\000"
 7429      5F43544C 
 7429      00
 7430              	.LASF2:
 7431 0817 73686F72 		.ascii	"short int\000"
 7431      7420696E 
 7431      7400
 7432              	.LASF85:
 7433 0821 43595F50 		.ascii	"CY_PROT_SIZE_128KB\000"
 7433      524F545F 
 7433      53495A45 
 7433      5F313238 
 7433      4B4200
 7434              	.LASF92:
 7435 0834 43595F50 		.ascii	"CY_PROT_SIZE_16MB\000"
 7435      524F545F 
 7435      53495A45 
 7435      5F31364D 
 7435      4200
 7436              	.LASF152:
 7437 0846 43795F50 		.ascii	"Cy_Prot_ConfigPpuFixedSlSlaveStruct\000"
 7437      726F745F 
 7437      436F6E66 
 7437      69675070 
ARM GAS  C:\Users\kiwamu\AppData\Local\Temp\ccj1MWYe.s 			page 166


 7437      75466978 
 7438              	.LASF46:
 7439 086a 4D533132 		.ascii	"MS12_CTL\000"
 7439      5F43544C 
 7439      00
 7440              	.LASF37:
 7441 0873 4D53335F 		.ascii	"MS3_CTL\000"
 7441      43544C00 
 7442              	.LASF101:
 7443 087b 63795F65 		.ascii	"cy_en_prot_size_t\000"
 7443      6E5F7072 
 7443      6F745F73 
 7443      697A655F 
 7443      7400
 7444              	.LASF150:
 7445 088d 43795F50 		.ascii	"Cy_Prot_DisablePpuFixedGrSlaveStruct\000"
 7445      726F745F 
 7445      44697361 
 7445      626C6550 
 7445      70754669 
 7446              	.LASF88:
 7447 08b2 43595F50 		.ascii	"CY_PROT_SIZE_1MB\000"
 7447      524F545F 
 7447      53495A45 
 7447      5F314D42 
 7447      00
 7448              	.LASF138:
 7449 08c3 43795F50 		.ascii	"Cy_Prot_DisableSmpuSlaveStruct\000"
 7449      726F745F 
 7449      44697361 
 7449      626C6553 
 7449      6D707553 
 7450              	.LASF34:
 7451 08e2 4D53305F 		.ascii	"MS0_CTL\000"
 7451      43544C00 
 7452              	.LASF14:
 7453 08ea 75696E74 		.ascii	"uint32_t\000"
 7453      33325F74 
 7453      00
 7454              	.LASF157:
 7455 08f3 43795F50 		.ascii	"Cy_Prot_ConfigPpuFixedRgMasterStruct\000"
 7455      726F745F 
 7455      436F6E66 
 7455      69675070 
 7455      75466978 
 7456              	.LASF99:
 7457 0918 43595F50 		.ascii	"CY_PROT_SIZE_2GB\000"
 7457      524F545F 
 7457      53495A45 
 7457      5F324742 
 7457      00
 7458              	.LASF162:
 7459 0929 474E5520 		.ascii	"GNU C11 5.4.1 20160609 (release) [ARM/embedded-5-br"
 7459      43313120 
 7459      352E342E 
 7459      31203230 
 7459      31363036 
ARM GAS  C:\Users\kiwamu\AppData\Local\Temp\ccj1MWYe.s 			page 167


 7460 095c 616E6368 		.ascii	"anch revision 237715] -mcpu=cortex-m0plus -mthumb -"
 7460      20726576 
 7460      6973696F 
 7460      6E203233 
 7460      37373135 
 7461 098f 67202D4F 		.ascii	"g -Og -ffunction-sections -ffat-lto-objects\000"
 7461      67202D66 
 7461      66756E63 
 7461      74696F6E 
 7461      2D736563 
 7462              	.LASF66:
 7463 09bb 63795F65 		.ascii	"cy_en_prot_status_t\000"
 7463      6E5F7072 
 7463      6F745F73 
 7463      74617475 
 7463      735F7400 
 7464              	.LASF60:
 7465 09cf 63686172 		.ascii	"char\000"
 7465      00
 7466              	.LASF128:
 7467 09d4 636F6E66 		.ascii	"config\000"
 7467      696700
 7468              	.LASF4:
 7469 09db 5F5F7569 		.ascii	"__uint16_t\000"
 7469      6E743136 
 7469      5F7400
 7470              	.LASF16:
 7471 09e6 43505553 		.ascii	"CPUSS_MS_ID_CM0\000"
 7471      535F4D53 
 7471      5F49445F 
 7471      434D3000 
 7472              	.LASF25:
 7473 09f6 52455345 		.ascii	"RESERVED\000"
 7473      52564544 
 7473      00
 7474              	.LASF130:
 7475 09ff 61747452 		.ascii	"attReg\000"
 7475      656700
 7476              	.LASF112:
 7477 0a06 63795F73 		.ascii	"cy_stc_smpu_cfg_t\000"
 7477      74635F73 
 7477      6D70755F 
 7477      6366675F 
 7477      7400
 7478              	.LASF50:
 7479 0a18 534D5055 		.ascii	"SMPU_STRUCT\000"
 7479      5F535452 
 7479      55435400 
 7480              	.LASF148:
 7481 0a24 43795F50 		.ascii	"Cy_Prot_DisablePpuFixedGrMasterStruct\000"
 7481      726F745F 
 7481      44697361 
 7481      626C6550 
 7481      70754669 
 7482              	.LASF65:
 7483 0a4a 43595F50 		.ascii	"CY_PROT_FAILURE\000"
 7483      524F545F 
ARM GAS  C:\Users\kiwamu\AppData\Local\Temp\ccj1MWYe.s 			page 168


 7483      4641494C 
 7483      55524500 
 7484              	.LASF42:
 7485 0a5a 4D53385F 		.ascii	"MS8_CTL\000"
 7485      43544C00 
 7486              	.LASF51:
 7487 0a62 50524F54 		.ascii	"PROT_SMPU_Type\000"
 7487      5F534D50 
 7487      555F5479 
 7487      706500
 7488              	.LASF19:
 7489 0a71 43505553 		.ascii	"CPUSS_MS_ID_DW1\000"
 7489      535F4D53 
 7489      5F49445F 
 7489      44573100 
 7490              	.LASF27:
 7491 0a81 41545431 		.ascii	"ATT1\000"
 7491      00
 7492              	.LASF70:
 7493 0a86 43595F50 		.ascii	"CY_PROT_PERM_RW\000"
 7493      524F545F 
 7493      5045524D 
 7493      5F525700 
 7494              	.LASF72:
 7495 0a96 43595F50 		.ascii	"CY_PROT_PERM_RX\000"
 7495      524F545F 
 7495      5045524D 
 7495      5F525800 
 7496              	.LASF29:
 7497 0aa6 50455249 		.ascii	"PERI_PPU_PR_Type\000"
 7497      5F505055 
 7497      5F50525F 
 7497      54797065 
 7497      00
 7498              	.LASF142:
 7499 0ab7 43795F50 		.ascii	"Cy_Prot_DisablePpuProgMasterStruct\000"
 7499      726F745F 
 7499      44697361 
 7499      626C6550 
 7499      70755072 
 7500              	.LASF39:
 7501 0ada 4D53355F 		.ascii	"MS5_CTL\000"
 7501      43544C00 
 7502              	.LASF119:
 7503 0ae2 73746174 		.ascii	"status\000"
 7503      757300
 7504              	.LASF94:
 7505 0ae9 43595F50 		.ascii	"CY_PROT_SIZE_64MB\000"
 7505      524F545F 
 7505      53495A45 
 7505      5F36344D 
 7505      4200
 7506              	.LASF12:
 7507 0afb 75696E74 		.ascii	"uint8_t\000"
 7507      385F7400 
 7508              	.LASF80:
 7509 0b03 43595F50 		.ascii	"CY_PROT_SIZE_4KB\000"
ARM GAS  C:\Users\kiwamu\AppData\Local\Temp\ccj1MWYe.s 			page 169


 7509      524F545F 
 7509      53495A45 
 7509      5F344B42 
 7509      00
 7510              	.LASF47:
 7511 0b14 4D533133 		.ascii	"MS13_CTL\000"
 7511      5F43544C 
 7511      00
 7512              	.LASF121:
 7513 0b1d 61646472 		.ascii	"addrMsCtl\000"
 7513      4D734374 
 7513      6C00
 7514              	.LASF61:
 7515 0b27 666C6F61 		.ascii	"float\000"
 7515      7400
 7516              	.LASF15:
 7517 0b2d 73697A65 		.ascii	"sizetype\000"
 7517      74797065 
 7517      00
 7518              	.LASF18:
 7519 0b36 43505553 		.ascii	"CPUSS_MS_ID_DW0\000"
 7519      535F4D53 
 7519      5F49445F 
 7519      44573000 
 7520              	.LASF98:
 7521 0b46 43595F50 		.ascii	"CY_PROT_SIZE_1GB\000"
 7521      524F545F 
 7521      53495A45 
 7521      5F314742 
 7521      00
 7522              	.LASF97:
 7523 0b57 43595F50 		.ascii	"CY_PROT_SIZE_512MB\000"
 7523      524F545F 
 7523      53495A45 
 7523      5F353132 
 7523      4D4200
 7524              	.LASF95:
 7525 0b6a 43595F50 		.ascii	"CY_PROT_SIZE_128MB\000"
 7525      524F545F 
 7525      53495A45 
 7525      5F313238 
 7525      4D4200
 7526              	.LASF75:
 7527 0b7d 63795F65 		.ascii	"cy_en_prot_perm_t\000"
 7527      6E5F7072 
 7527      6F745F70 
 7527      65726D5F 
 7527      7400
 7528              	.LASF104:
 7529 0b8f 73756272 		.ascii	"subregions\000"
 7529      6567696F 
 7529      6E7300
 7530              	.LASF143:
 7531 0b9a 43795F50 		.ascii	"Cy_Prot_EnablePpuProgSlaveStruct\000"
 7531      726F745F 
 7531      456E6162 
 7531      6C655070 
ARM GAS  C:\Users\kiwamu\AppData\Local\Temp\ccj1MWYe.s 			page 170


 7531      7550726F 
 7532              	.LASF145:
 7533 0bbb 43795F50 		.ascii	"Cy_Prot_ConfigPpuFixedGrMasterStruct\000"
 7533      726F745F 
 7533      436F6E66 
 7533      69675070 
 7533      75466978 
 7534              	.LASF144:
 7535 0be0 43795F50 		.ascii	"Cy_Prot_DisablePpuProgSlaveStruct\000"
 7535      726F745F 
 7535      44697361 
 7535      626C6550 
 7535      70755072 
 7536              	.LASF21:
 7537 0c02 43505553 		.ascii	"CPUSS_MS_ID_TC\000"
 7537      535F4D53 
 7537      5F49445F 
 7537      544300
 7538              	.LASF36:
 7539 0c11 4D53325F 		.ascii	"MS2_CTL\000"
 7539      43544C00 
 7540              	.LASF151:
 7541 0c19 43795F50 		.ascii	"Cy_Prot_ConfigPpuFixedSlMasterStruct\000"
 7541      726F745F 
 7541      436F6E66 
 7541      69675070 
 7541      75466978 
 7542              	.LASF103:
 7543 0c3e 72656769 		.ascii	"regionSize\000"
 7543      6F6E5369 
 7543      7A6500
 7544              	.LASF110:
 7545 0c49 70634D61 		.ascii	"pcMatch\000"
 7545      74636800 
 7546              	.LASF32:
 7547 0c51 50455249 		.ascii	"PERI_GR_PPU_RG_Type\000"
 7547      5F47525F 
 7547      5050555F 
 7547      52475F54 
 7547      79706500 
 7548              		.ident	"GCC: (GNU Tools for ARM Embedded Processors) 5.4.1 20160609 (release) [ARM/embedded-5-bran
