ARM GAS  C:\Users\kiwamu\AppData\Local\Temp\ccj1MWYe.s 			page 1


   1              		.syntax unified
   2              		.cpu cortex-m0plus
   3              		.fpu softvfp
   4              		.eabi_attribute 20, 1
   5              		.eabi_attribute 21, 1
   6              		.eabi_attribute 23, 3
   7              		.eabi_attribute 24, 1
   8              		.eabi_attribute 25, 1
   9              		.eabi_attribute 26, 1
  10              		.eabi_attribute 30, 1
  11              		.eabi_attribute 34, 0
  12              		.eabi_attribute 18, 4
  13              		.thumb
  14              		.syntax unified
  15              		.file	"cy_prot.c"
  16              		.text
  17              	.Ltext0:
  18              		.cfi_sections	.debug_frame
  19              		.section	.text.Cy_Prot_ConfigBusMaster,"ax",%progbits
  20              		.align	2
  21              		.global	Cy_Prot_ConfigBusMaster
  22              		.code	16
  23              		.thumb_func
  24              		.type	Cy_Prot_ConfigBusMaster, %function
  25              	Cy_Prot_ConfigBusMaster:
  26              	.LFB34:
  27              		.file 1 "Generated_Source\\PSoC6\\pdl\\drivers\\peripheral\\prot\\cy_prot.c"
   1:Generated_Source\PSoC6\pdl\drivers\peripheral\prot/cy_prot.c **** /***************************************************************************//**
   2:Generated_Source\PSoC6\pdl\drivers\peripheral\prot/cy_prot.c **** * \file cy_prot.c
   3:Generated_Source\PSoC6\pdl\drivers\peripheral\prot/cy_prot.c **** * \version 1.0
   4:Generated_Source\PSoC6\pdl\drivers\peripheral\prot/cy_prot.c **** *
   5:Generated_Source\PSoC6\pdl\drivers\peripheral\prot/cy_prot.c **** * \brief
   6:Generated_Source\PSoC6\pdl\drivers\peripheral\prot/cy_prot.c **** * Provides an API implementation of the Protection Unit driver
   7:Generated_Source\PSoC6\pdl\drivers\peripheral\prot/cy_prot.c **** *
   8:Generated_Source\PSoC6\pdl\drivers\peripheral\prot/cy_prot.c **** ********************************************************************************
   9:Generated_Source\PSoC6\pdl\drivers\peripheral\prot/cy_prot.c **** * \copyright
  10:Generated_Source\PSoC6\pdl\drivers\peripheral\prot/cy_prot.c **** * Copyright 2016-2017, Cypress Semiconductor Corporation. All rights reserved.
  11:Generated_Source\PSoC6\pdl\drivers\peripheral\prot/cy_prot.c **** * You may use this file only in accordance with the license, terms, conditions,
  12:Generated_Source\PSoC6\pdl\drivers\peripheral\prot/cy_prot.c **** * disclaimers, and limitations in the end user license agreement accompanying
  13:Generated_Source\PSoC6\pdl\drivers\peripheral\prot/cy_prot.c **** * the software package with which this file was provided.
  14:Generated_Source\PSoC6\pdl\drivers\peripheral\prot/cy_prot.c **** *******************************************************************************/
  15:Generated_Source\PSoC6\pdl\drivers\peripheral\prot/cy_prot.c **** 
  16:Generated_Source\PSoC6\pdl\drivers\peripheral\prot/cy_prot.c **** #include "cy_prot.h"
  17:Generated_Source\PSoC6\pdl\drivers\peripheral\prot/cy_prot.c **** 
  18:Generated_Source\PSoC6\pdl\drivers\peripheral\prot/cy_prot.c **** #if defined(__cplusplus)
  19:Generated_Source\PSoC6\pdl\drivers\peripheral\prot/cy_prot.c **** extern "C" {
  20:Generated_Source\PSoC6\pdl\drivers\peripheral\prot/cy_prot.c **** #endif
  21:Generated_Source\PSoC6\pdl\drivers\peripheral\prot/cy_prot.c **** 
  22:Generated_Source\PSoC6\pdl\drivers\peripheral\prot/cy_prot.c **** 
  23:Generated_Source\PSoC6\pdl\drivers\peripheral\prot/cy_prot.c **** /*******************************************************************************
  24:Generated_Source\PSoC6\pdl\drivers\peripheral\prot/cy_prot.c **** * Function Name: Cy_Prot_ConfigBusMaster
  25:Generated_Source\PSoC6\pdl\drivers\peripheral\prot/cy_prot.c **** ****************************************************************************//**
  26:Generated_Source\PSoC6\pdl\drivers\peripheral\prot/cy_prot.c **** *
  27:Generated_Source\PSoC6\pdl\drivers\peripheral\prot/cy_prot.c **** * \brief Configures the allowed protection contexts, security (secure/non-secure)
  28:Generated_Source\PSoC6\pdl\drivers\peripheral\prot/cy_prot.c **** * and privilege level of the bus transaction created by the specified master. 
  29:Generated_Source\PSoC6\pdl\drivers\peripheral\prot/cy_prot.c **** *
  30:Generated_Source\PSoC6\pdl\drivers\peripheral\prot/cy_prot.c **** * \param busMaster
ARM GAS  C:\Users\kiwamu\AppData\Local\Temp\ccj1MWYe.s 			page 2


  31:Generated_Source\PSoC6\pdl\drivers\peripheral\prot/cy_prot.c **** * Indicates which master needs to be configured. Refer to the CY_PROT_MASTER_X
  32:Generated_Source\PSoC6\pdl\drivers\peripheral\prot/cy_prot.c **** * defines.
  33:Generated_Source\PSoC6\pdl\drivers\peripheral\prot/cy_prot.c **** * 
  34:Generated_Source\PSoC6\pdl\drivers\peripheral\prot/cy_prot.c **** * \param privileged
  35:Generated_Source\PSoC6\pdl\drivers\peripheral\prot/cy_prot.c **** * Boolean to define the privilege level of all subsequent bus transfers.
  36:Generated_Source\PSoC6\pdl\drivers\peripheral\prot/cy_prot.c **** * True - privileged, False - not privileged.
  37:Generated_Source\PSoC6\pdl\drivers\peripheral\prot/cy_prot.c **** * Note that this is an inherited value. If not inherited, then this bit will 
  38:Generated_Source\PSoC6\pdl\drivers\peripheral\prot/cy_prot.c **** * be used.
  39:Generated_Source\PSoC6\pdl\drivers\peripheral\prot/cy_prot.c **** *
  40:Generated_Source\PSoC6\pdl\drivers\peripheral\prot/cy_prot.c **** * \param secure
  41:Generated_Source\PSoC6\pdl\drivers\peripheral\prot/cy_prot.c **** * Security setting for the master. True - Secure, False - Not secure.
  42:Generated_Source\PSoC6\pdl\drivers\peripheral\prot/cy_prot.c **** * 
  43:Generated_Source\PSoC6\pdl\drivers\peripheral\prot/cy_prot.c **** * \param pcMask
  44:Generated_Source\PSoC6\pdl\drivers\peripheral\prot/cy_prot.c **** * This is a 16 bit value of the allowed contexts, it is an OR'ed (|) field of the
  45:Generated_Source\PSoC6\pdl\drivers\peripheral\prot/cy_prot.c **** * provided defines in cy_prot.h. For example: (PROT_PC1 | PROT_PC3 | PROT_PC4)
  46:Generated_Source\PSoC6\pdl\drivers\peripheral\prot/cy_prot.c **** * 
  47:Generated_Source\PSoC6\pdl\drivers\peripheral\prot/cy_prot.c **** * \return
  48:Generated_Source\PSoC6\pdl\drivers\peripheral\prot/cy_prot.c **** * Status of the function call.
  49:Generated_Source\PSoC6\pdl\drivers\peripheral\prot/cy_prot.c **** *
  50:Generated_Source\PSoC6\pdl\drivers\peripheral\prot/cy_prot.c **** *   Status               | Description
  51:Generated_Source\PSoC6\pdl\drivers\peripheral\prot/cy_prot.c **** *   ------------         | -----------
  52:Generated_Source\PSoC6\pdl\drivers\peripheral\prot/cy_prot.c **** *   CY_PROT_SUCCESS      | The function completed successfully
  53:Generated_Source\PSoC6\pdl\drivers\peripheral\prot/cy_prot.c **** *   CY_PROT_FAILURE      | The resource is locked
  54:Generated_Source\PSoC6\pdl\drivers\peripheral\prot/cy_prot.c **** *   CY_PROT_BAD_PARAM    | An incorrect/invalid parameter was passed
  55:Generated_Source\PSoC6\pdl\drivers\peripheral\prot/cy_prot.c **** *  
  56:Generated_Source\PSoC6\pdl\drivers\peripheral\prot/cy_prot.c **** *******************************************************************************/
  57:Generated_Source\PSoC6\pdl\drivers\peripheral\prot/cy_prot.c **** cy_en_prot_status_t Cy_Prot_ConfigBusMaster(en_prot_master_t busMaster, bool privileged, bool secur
  58:Generated_Source\PSoC6\pdl\drivers\peripheral\prot/cy_prot.c **** {
  28              		.loc 1 58 0
  29              		.cfi_startproc
  30              		@ args = 0, pretend = 0, frame = 0
  31              		@ frame_needed = 0, uses_anonymous_args = 0
  32              	.LVL0:
  33 0000 30B5     		push	{r4, r5, lr}
  34              		.cfi_def_cfa_offset 12
  35              		.cfi_offset 4, -12
  36              		.cfi_offset 5, -8
  37              		.cfi_offset 14, -4
  38              	.LVL1:
  59:Generated_Source\PSoC6\pdl\drivers\peripheral\prot/cy_prot.c ****     cy_en_prot_status_t status = CY_PROT_SUCCESS;
  60:Generated_Source\PSoC6\pdl\drivers\peripheral\prot/cy_prot.c ****     uint32_t regVal;
  61:Generated_Source\PSoC6\pdl\drivers\peripheral\prot/cy_prot.c ****     uint32_t * addrMsCtl = (uint32_t *)(PROT_BASE + (uint32_t)((uint32_t)busMaster << CY_PROT_MSX_C
  39              		.loc 1 61 0
  40 0002 8000     		lsls	r0, r0, #2
  41              	.LVL2:
  42 0004 0A4C     		ldr	r4, .L4
  43 0006 A446     		mov	ip, r4
  44 0008 6044     		add	r0, r0, ip
  45              	.LVL3:
  62:Generated_Source\PSoC6\pdl\drivers\peripheral\prot/cy_prot.c **** 
  63:Generated_Source\PSoC6\pdl\drivers\peripheral\prot/cy_prot.c ****     if((uint32_t)(pcMask & CY_PROT_MPU_PC_LIMIT_MASK) != 0UL) 
  46              		.loc 1 63 0
  47 000a 7F24     		movs	r4, #127
  48 000c 1D00     		movs	r5, r3
  49 000e A543     		bics	r5, r4
  50 0010 0BD1     		bne	.L3
  64:Generated_Source\PSoC6\pdl\drivers\peripheral\prot/cy_prot.c ****     {
ARM GAS  C:\Users\kiwamu\AppData\Local\Temp\ccj1MWYe.s 			page 3


  65:Generated_Source\PSoC6\pdl\drivers\peripheral\prot/cy_prot.c ****         /* PC mask out of range - not supported in device */
  66:Generated_Source\PSoC6\pdl\drivers\peripheral\prot/cy_prot.c ****         status = CY_PROT_BAD_PARAM;
  67:Generated_Source\PSoC6\pdl\drivers\peripheral\prot/cy_prot.c ****     }
  68:Generated_Source\PSoC6\pdl\drivers\peripheral\prot/cy_prot.c ****     else
  69:Generated_Source\PSoC6\pdl\drivers\peripheral\prot/cy_prot.c ****     {
  70:Generated_Source\PSoC6\pdl\drivers\peripheral\prot/cy_prot.c ****         regVal = _VAL2FLD(PROT_SMPU_MS0_CTL_NS, !secure)
  51              		.loc 1 70 0
  52 0012 0124     		movs	r4, #1
  53 0014 6240     		eors	r2, r4
  54              	.LVL4:
  55 0016 D2B2     		uxtb	r2, r2
  56 0018 5200     		lsls	r2, r2, #1
  57 001a 0224     		movs	r4, #2
  58 001c 2240     		ands	r2, r4
  71:Generated_Source\PSoC6\pdl\drivers\peripheral\prot/cy_prot.c ****                 | _VAL2FLD(PROT_SMPU_MS0_CTL_P, privileged)
  59              		.loc 1 71 0
  60 001e 1143     		orrs	r1, r2
  61              	.LVL5:
  72:Generated_Source\PSoC6\pdl\drivers\peripheral\prot/cy_prot.c ****                 | _VAL2FLD(PROT_SMPU_MS0_CTL_PC_MASK_15_TO_1, pcMask);
  62              		.loc 1 72 0
  63 0020 5B04     		lsls	r3, r3, #17
  64              	.LVL6:
  70:Generated_Source\PSoC6\pdl\drivers\peripheral\prot/cy_prot.c ****                 | _VAL2FLD(PROT_SMPU_MS0_CTL_P, privileged)
  65              		.loc 1 70 0
  66 0022 0B43     		orrs	r3, r1
  67              	.LVL7:
  73:Generated_Source\PSoC6\pdl\drivers\peripheral\prot/cy_prot.c ****         *addrMsCtl = regVal;
  68              		.loc 1 73 0
  69 0024 0360     		str	r3, [r0]
  74:Generated_Source\PSoC6\pdl\drivers\peripheral\prot/cy_prot.c ****         status = (*addrMsCtl != regVal) ? CY_PROT_FAILURE : CY_PROT_SUCCESS;
  70              		.loc 1 74 0
  71 0026 0020     		movs	r0, #0
  72              	.LVL8:
  73 0028 00E0     		b	.L2
  74              	.LVL9:
  75              	.L3:
  66:Generated_Source\PSoC6\pdl\drivers\peripheral\prot/cy_prot.c ****     }
  76              		.loc 1 66 0
  77 002a 0248     		ldr	r0, .L4+4
  78              	.LVL10:
  79              	.L2:
  75:Generated_Source\PSoC6\pdl\drivers\peripheral\prot/cy_prot.c ****     }
  76:Generated_Source\PSoC6\pdl\drivers\peripheral\prot/cy_prot.c ****     
  77:Generated_Source\PSoC6\pdl\drivers\peripheral\prot/cy_prot.c ****     return status;
  78:Generated_Source\PSoC6\pdl\drivers\peripheral\prot/cy_prot.c **** }
  80              		.loc 1 78 0
  81              		@ sp needed
  82 002c 30BD     		pop	{r4, r5, pc}
  83              	.L5:
  84 002e C046     		.align	2
  85              	.L4:
  86 0030 00002440 		.word	1076101120
  87 0034 0100C200 		.word	12713985
  88              		.cfi_endproc
  89              	.LFE34:
  90              		.size	Cy_Prot_ConfigBusMaster, .-Cy_Prot_ConfigBusMaster
  91              		.section	.text.Cy_Prot_SetActivePC,"ax",%progbits
ARM GAS  C:\Users\kiwamu\AppData\Local\Temp\ccj1MWYe.s 			page 4


  92              		.align	2
  93              		.global	Cy_Prot_SetActivePC
  94              		.code	16
  95              		.thumb_func
  96              		.type	Cy_Prot_SetActivePC, %function
  97              	Cy_Prot_SetActivePC:
  98              	.LFB35:
  79:Generated_Source\PSoC6\pdl\drivers\peripheral\prot/cy_prot.c **** 
  80:Generated_Source\PSoC6\pdl\drivers\peripheral\prot/cy_prot.c **** 
  81:Generated_Source\PSoC6\pdl\drivers\peripheral\prot/cy_prot.c **** /*******************************************************************************
  82:Generated_Source\PSoC6\pdl\drivers\peripheral\prot/cy_prot.c **** * Function Name: Cy_Prot_SetActivePC
  83:Generated_Source\PSoC6\pdl\drivers\peripheral\prot/cy_prot.c **** ****************************************************************************//**
  84:Generated_Source\PSoC6\pdl\drivers\peripheral\prot/cy_prot.c **** *
  85:Generated_Source\PSoC6\pdl\drivers\peripheral\prot/cy_prot.c **** * \brief Sets the current/active protection context of the specified bus master.
  86:Generated_Source\PSoC6\pdl\drivers\peripheral\prot/cy_prot.c **** * 
  87:Generated_Source\PSoC6\pdl\drivers\peripheral\prot/cy_prot.c **** * Allowed PC values are 1-15. If this value is not inherited from another bus 
  88:Generated_Source\PSoC6\pdl\drivers\peripheral\prot/cy_prot.c **** * master, the value set through this function is used.
  89:Generated_Source\PSoC6\pdl\drivers\peripheral\prot/cy_prot.c **** *
  90:Generated_Source\PSoC6\pdl\drivers\peripheral\prot/cy_prot.c **** * \param busMaster
  91:Generated_Source\PSoC6\pdl\drivers\peripheral\prot/cy_prot.c **** * The bus master to configure. Refer to the CY_PROT_MASTER_X defines.
  92:Generated_Source\PSoC6\pdl\drivers\peripheral\prot/cy_prot.c **** * 
  93:Generated_Source\PSoC6\pdl\drivers\peripheral\prot/cy_prot.c **** * \param pc
  94:Generated_Source\PSoC6\pdl\drivers\peripheral\prot/cy_prot.c **** * Active protection context of the specified master. Note that only those 
  95:Generated_Source\PSoC6\pdl\drivers\peripheral\prot/cy_prot.c **** * protection contexts allowed by the pcMask will take effect. 
  96:Generated_Source\PSoC6\pdl\drivers\peripheral\prot/cy_prot.c **** *
  97:Generated_Source\PSoC6\pdl\drivers\peripheral\prot/cy_prot.c **** * \return
  98:Generated_Source\PSoC6\pdl\drivers\peripheral\prot/cy_prot.c **** * Status of the function call.
  99:Generated_Source\PSoC6\pdl\drivers\peripheral\prot/cy_prot.c **** *
 100:Generated_Source\PSoC6\pdl\drivers\peripheral\prot/cy_prot.c **** *   Status               | Description
 101:Generated_Source\PSoC6\pdl\drivers\peripheral\prot/cy_prot.c **** *   ------------         | -----------
 102:Generated_Source\PSoC6\pdl\drivers\peripheral\prot/cy_prot.c **** *   CY_PROT_SUCCESS      | The function completed successfully
 103:Generated_Source\PSoC6\pdl\drivers\peripheral\prot/cy_prot.c **** *   CY_PROT_FAILURE      | The resource is locked
 104:Generated_Source\PSoC6\pdl\drivers\peripheral\prot/cy_prot.c **** *   CY_PROT_BAD_PARAM    | An incorrect/invalid parameter was passed
 105:Generated_Source\PSoC6\pdl\drivers\peripheral\prot/cy_prot.c **** *  
 106:Generated_Source\PSoC6\pdl\drivers\peripheral\prot/cy_prot.c **** *******************************************************************************/
 107:Generated_Source\PSoC6\pdl\drivers\peripheral\prot/cy_prot.c **** cy_en_prot_status_t Cy_Prot_SetActivePC(en_prot_master_t busMaster, uint32_t pc)
 108:Generated_Source\PSoC6\pdl\drivers\peripheral\prot/cy_prot.c **** {
  99              		.loc 1 108 0
 100              		.cfi_startproc
 101              		@ args = 0, pretend = 0, frame = 0
 102              		@ frame_needed = 0, uses_anonymous_args = 0
 103              	.LVL11:
 104 0000 30B5     		push	{r4, r5, lr}
 105              		.cfi_def_cfa_offset 12
 106              		.cfi_offset 4, -12
 107              		.cfi_offset 5, -8
 108              		.cfi_offset 14, -4
 109              	.LVL12:
 109:Generated_Source\PSoC6\pdl\drivers\peripheral\prot/cy_prot.c ****     cy_en_prot_status_t status = CY_PROT_SUCCESS;
 110:Generated_Source\PSoC6\pdl\drivers\peripheral\prot/cy_prot.c ****     PROT_MPU_Type* addrMpu = (PROT_MPU_Type*)(&PROT->CYMPU[busMaster]);
 110              		.loc 1 110 0
 111 0002 8002     		lsls	r0, r0, #10
 112              	.LVL13:
 113 0004 0B4B     		ldr	r3, .L10
 114 0006 9C46     		mov	ip, r3
 115 0008 6044     		add	r0, r0, ip
 116              	.LVL14:
ARM GAS  C:\Users\kiwamu\AppData\Local\Temp\ccj1MWYe.s 			page 5


 111:Generated_Source\PSoC6\pdl\drivers\peripheral\prot/cy_prot.c ****     
 112:Generated_Source\PSoC6\pdl\drivers\peripheral\prot/cy_prot.c ****     if(pc >= (uint32_t)CY_PROT_MS_PC_NR_MAX) 
 117              		.loc 1 112 0
 118 000a 0629     		cmp	r1, #6
 119 000c 0ED8     		bhi	.L8
 113:Generated_Source\PSoC6\pdl\drivers\peripheral\prot/cy_prot.c ****     {
 114:Generated_Source\PSoC6\pdl\drivers\peripheral\prot/cy_prot.c ****         /* Invalid PC value - not supported in device */
 115:Generated_Source\PSoC6\pdl\drivers\peripheral\prot/cy_prot.c ****         status = CY_PROT_BAD_PARAM;
 116:Generated_Source\PSoC6\pdl\drivers\peripheral\prot/cy_prot.c ****     }
 117:Generated_Source\PSoC6\pdl\drivers\peripheral\prot/cy_prot.c ****     else
 118:Generated_Source\PSoC6\pdl\drivers\peripheral\prot/cy_prot.c ****     {
 119:Generated_Source\PSoC6\pdl\drivers\peripheral\prot/cy_prot.c ****         addrMpu->MS_CTL = _VAL2FLD(PROT_MPU_MS_CTL_PC, pc) | _VAL2FLD(PROT_MPU_MS_CTL_PC_SAVED, pc)
 120              		.loc 1 119 0
 121 000e 0F24     		movs	r4, #15
 122 0010 2500     		movs	r5, r4
 123 0012 0D40     		ands	r5, r1
 124 0014 0B04     		lsls	r3, r1, #16
 125 0016 F022     		movs	r2, #240
 126 0018 1203     		lsls	r2, r2, #12
 127 001a 1340     		ands	r3, r2
 128 001c 2B43     		orrs	r3, r5
 129 001e 0360     		str	r3, [r0]
 120:Generated_Source\PSoC6\pdl\drivers\peripheral\prot/cy_prot.c ****         status = (_FLD2VAL(PROT_MPU_MS_CTL_PC, addrMpu->MS_CTL) != pc) ? CY_PROT_FAILURE : CY_PROT_
 130              		.loc 1 120 0
 131 0020 0368     		ldr	r3, [r0]
 132 0022 2340     		ands	r3, r4
 133 0024 9942     		cmp	r1, r3
 134 0026 03D0     		beq	.L9
 135 0028 0348     		ldr	r0, .L10+4
 136              	.LVL15:
 137 002a 02E0     		b	.L7
 138              	.LVL16:
 139              	.L8:
 115:Generated_Source\PSoC6\pdl\drivers\peripheral\prot/cy_prot.c ****     }
 140              		.loc 1 115 0
 141 002c 0348     		ldr	r0, .L10+8
 142              	.LVL17:
 143 002e 00E0     		b	.L7
 144              	.LVL18:
 145              	.L9:
 146              		.loc 1 120 0
 147 0030 0020     		movs	r0, #0
 148              	.LVL19:
 149              	.L7:
 121:Generated_Source\PSoC6\pdl\drivers\peripheral\prot/cy_prot.c ****     }
 122:Generated_Source\PSoC6\pdl\drivers\peripheral\prot/cy_prot.c ****     
 123:Generated_Source\PSoC6\pdl\drivers\peripheral\prot/cy_prot.c ****     return status;
 124:Generated_Source\PSoC6\pdl\drivers\peripheral\prot/cy_prot.c **** }
 150              		.loc 1 124 0
 151              		@ sp needed
 152 0032 30BD     		pop	{r4, r5, pc}
 153              	.L11:
 154              		.align	2
 155              	.L10:
 156 0034 00402440 		.word	1076117504
 157 0038 0300C200 		.word	12713987
 158 003c 0100C200 		.word	12713985
ARM GAS  C:\Users\kiwamu\AppData\Local\Temp\ccj1MWYe.s 			page 6


 159              		.cfi_endproc
 160              	.LFE35:
 161              		.size	Cy_Prot_SetActivePC, .-Cy_Prot_SetActivePC
 162              		.section	.text.Cy_Prot_GetActivePC,"ax",%progbits
 163              		.align	2
 164              		.global	Cy_Prot_GetActivePC
 165              		.code	16
 166              		.thumb_func
 167              		.type	Cy_Prot_GetActivePC, %function
 168              	Cy_Prot_GetActivePC:
 169              	.LFB36:
 125:Generated_Source\PSoC6\pdl\drivers\peripheral\prot/cy_prot.c **** 
 126:Generated_Source\PSoC6\pdl\drivers\peripheral\prot/cy_prot.c **** 
 127:Generated_Source\PSoC6\pdl\drivers\peripheral\prot/cy_prot.c **** /*******************************************************************************
 128:Generated_Source\PSoC6\pdl\drivers\peripheral\prot/cy_prot.c **** * Function Name: Cy_Prot_GetActivePC
 129:Generated_Source\PSoC6\pdl\drivers\peripheral\prot/cy_prot.c **** ****************************************************************************//**
 130:Generated_Source\PSoC6\pdl\drivers\peripheral\prot/cy_prot.c **** *
 131:Generated_Source\PSoC6\pdl\drivers\peripheral\prot/cy_prot.c **** * \brief Returns the active protection context of a master. 
 132:Generated_Source\PSoC6\pdl\drivers\peripheral\prot/cy_prot.c **** *
 133:Generated_Source\PSoC6\pdl\drivers\peripheral\prot/cy_prot.c **** * \param busMaster
 134:Generated_Source\PSoC6\pdl\drivers\peripheral\prot/cy_prot.c **** * The bus master, whose protection context is being read. Refer to the 
 135:Generated_Source\PSoC6\pdl\drivers\peripheral\prot/cy_prot.c **** * CY_PROT_MASTER_X defines.
 136:Generated_Source\PSoC6\pdl\drivers\peripheral\prot/cy_prot.c **** * 
 137:Generated_Source\PSoC6\pdl\drivers\peripheral\prot/cy_prot.c **** * \return
 138:Generated_Source\PSoC6\pdl\drivers\peripheral\prot/cy_prot.c **** * Active protection context of the master
 139:Generated_Source\PSoC6\pdl\drivers\peripheral\prot/cy_prot.c **** *  
 140:Generated_Source\PSoC6\pdl\drivers\peripheral\prot/cy_prot.c **** *******************************************************************************/
 141:Generated_Source\PSoC6\pdl\drivers\peripheral\prot/cy_prot.c **** uint32_t Cy_Prot_GetActivePC(en_prot_master_t busMaster)
 142:Generated_Source\PSoC6\pdl\drivers\peripheral\prot/cy_prot.c **** {
 170              		.loc 1 142 0
 171              		.cfi_startproc
 172              		@ args = 0, pretend = 0, frame = 0
 173              		@ frame_needed = 0, uses_anonymous_args = 0
 174              		@ link register save eliminated.
 175              	.LVL20:
 143:Generated_Source\PSoC6\pdl\drivers\peripheral\prot/cy_prot.c ****     PROT_MPU_Type* addrMpu = (PROT_MPU_Type*)(&PROT->CYMPU[busMaster]);
 176              		.loc 1 143 0
 177 0000 8002     		lsls	r0, r0, #10
 178              	.LVL21:
 179 0002 034B     		ldr	r3, .L13
 180 0004 9C46     		mov	ip, r3
 181 0006 6044     		add	r0, r0, ip
 182              	.LVL22:
 144:Generated_Source\PSoC6\pdl\drivers\peripheral\prot/cy_prot.c ****     
 145:Generated_Source\PSoC6\pdl\drivers\peripheral\prot/cy_prot.c ****     return ((uint32_t)_FLD2VAL(PROT_MPU_MS_CTL_PC, addrMpu->MS_CTL));
 183              		.loc 1 145 0
 184 0008 0368     		ldr	r3, [r0]
 185 000a 0F20     		movs	r0, #15
 186              	.LVL23:
 187 000c 1840     		ands	r0, r3
 146:Generated_Source\PSoC6\pdl\drivers\peripheral\prot/cy_prot.c **** }
 188              		.loc 1 146 0
 189              		@ sp needed
 190 000e 7047     		bx	lr
 191              	.L14:
 192              		.align	2
 193              	.L13:
ARM GAS  C:\Users\kiwamu\AppData\Local\Temp\ccj1MWYe.s 			page 7


 194 0010 00402440 		.word	1076117504
 195              		.cfi_endproc
 196              	.LFE36:
 197              		.size	Cy_Prot_GetActivePC, .-Cy_Prot_GetActivePC
 198              		.section	.text.Cy_Prot_ConfigMpuStruct,"ax",%progbits
 199              		.align	2
 200              		.global	Cy_Prot_ConfigMpuStruct
 201              		.code	16
 202              		.thumb_func
 203              		.type	Cy_Prot_ConfigMpuStruct, %function
 204              	Cy_Prot_ConfigMpuStruct:
 205              	.LFB37:
 147:Generated_Source\PSoC6\pdl\drivers\peripheral\prot/cy_prot.c **** 
 148:Generated_Source\PSoC6\pdl\drivers\peripheral\prot/cy_prot.c **** 
 149:Generated_Source\PSoC6\pdl\drivers\peripheral\prot/cy_prot.c **** /*******************************************************************************
 150:Generated_Source\PSoC6\pdl\drivers\peripheral\prot/cy_prot.c **** * Function Name: Cy_Prot_ConfigMpuStruct
 151:Generated_Source\PSoC6\pdl\drivers\peripheral\prot/cy_prot.c **** ****************************************************************************//**
 152:Generated_Source\PSoC6\pdl\drivers\peripheral\prot/cy_prot.c **** *
 153:Generated_Source\PSoC6\pdl\drivers\peripheral\prot/cy_prot.c **** * \brief This function configures a memory protection unit (MPU) struct with its 
 154:Generated_Source\PSoC6\pdl\drivers\peripheral\prot/cy_prot.c **** * protection attributes. 
 155:Generated_Source\PSoC6\pdl\drivers\peripheral\prot/cy_prot.c **** *
 156:Generated_Source\PSoC6\pdl\drivers\peripheral\prot/cy_prot.c **** * The protection structs act like the gatekeepers for a master's accesses to
 157:Generated_Source\PSoC6\pdl\drivers\peripheral\prot/cy_prot.c **** * memory, allowing only the permitted transactions to go through.
 158:Generated_Source\PSoC6\pdl\drivers\peripheral\prot/cy_prot.c **** *
 159:Generated_Source\PSoC6\pdl\drivers\peripheral\prot/cy_prot.c **** * \param base
 160:Generated_Source\PSoC6\pdl\drivers\peripheral\prot/cy_prot.c **** * The base address for the MPU struct being configured. 
 161:Generated_Source\PSoC6\pdl\drivers\peripheral\prot/cy_prot.c **** * 
 162:Generated_Source\PSoC6\pdl\drivers\peripheral\prot/cy_prot.c **** * \param config
 163:Generated_Source\PSoC6\pdl\drivers\peripheral\prot/cy_prot.c **** * Initialization structure containing all the protection attributes.
 164:Generated_Source\PSoC6\pdl\drivers\peripheral\prot/cy_prot.c **** * 
 165:Generated_Source\PSoC6\pdl\drivers\peripheral\prot/cy_prot.c **** * \return
 166:Generated_Source\PSoC6\pdl\drivers\peripheral\prot/cy_prot.c **** * Status of the function call.
 167:Generated_Source\PSoC6\pdl\drivers\peripheral\prot/cy_prot.c **** *
 168:Generated_Source\PSoC6\pdl\drivers\peripheral\prot/cy_prot.c **** *   Status               | Description
 169:Generated_Source\PSoC6\pdl\drivers\peripheral\prot/cy_prot.c **** *   ------------         | -----------
 170:Generated_Source\PSoC6\pdl\drivers\peripheral\prot/cy_prot.c **** *   CY_PROT_SUCCESS      | The MPU struct was configured
 171:Generated_Source\PSoC6\pdl\drivers\peripheral\prot/cy_prot.c **** *   CY_PROT_FAILURE      | Configuration failed due to a protection violation
 172:Generated_Source\PSoC6\pdl\drivers\peripheral\prot/cy_prot.c **** *  
 173:Generated_Source\PSoC6\pdl\drivers\peripheral\prot/cy_prot.c **** *******************************************************************************/
 174:Generated_Source\PSoC6\pdl\drivers\peripheral\prot/cy_prot.c **** cy_en_prot_status_t Cy_Prot_ConfigMpuStruct(PROT_MPU_MPU_STRUCT_Type* base, const cy_stc_mpu_cfg_t*
 175:Generated_Source\PSoC6\pdl\drivers\peripheral\prot/cy_prot.c **** {
 206              		.loc 1 175 0
 207              		.cfi_startproc
 208              		@ args = 0, pretend = 0, frame = 0
 209              		@ frame_needed = 0, uses_anonymous_args = 0
 210              	.LVL24:
 211 0000 70B5     		push	{r4, r5, r6, lr}
 212              		.cfi_def_cfa_offset 16
 213              		.cfi_offset 4, -16
 214              		.cfi_offset 5, -12
 215              		.cfi_offset 6, -8
 216              		.cfi_offset 14, -4
 217              	.LVL25:
 176:Generated_Source\PSoC6\pdl\drivers\peripheral\prot/cy_prot.c ****     cy_en_prot_status_t status = CY_PROT_SUCCESS;
 177:Generated_Source\PSoC6\pdl\drivers\peripheral\prot/cy_prot.c ****     uint32_t addrReg;
 178:Generated_Source\PSoC6\pdl\drivers\peripheral\prot/cy_prot.c ****     uint32_t attReg;
 179:Generated_Source\PSoC6\pdl\drivers\peripheral\prot/cy_prot.c ****     
ARM GAS  C:\Users\kiwamu\AppData\Local\Temp\ccj1MWYe.s 			page 8


 180:Generated_Source\PSoC6\pdl\drivers\peripheral\prot/cy_prot.c ****     addrReg = _VAL2FLD(PROT_MPU_MPU_STRUCT_ADDR_SUBREGION_DISABLE, config->subregions)
 218              		.loc 1 180 0
 219 0002 4D79     		ldrb	r5, [r1, #5]
 181:Generated_Source\PSoC6\pdl\drivers\peripheral\prot/cy_prot.c ****               | _VAL2FLD(PROT_MPU_MPU_STRUCT_ADDR_ADDR24, (uint32_t)((uint32_t)config->address >> C
 220              		.loc 1 181 0
 221 0004 FF23     		movs	r3, #255
 222 0006 0A68     		ldr	r2, [r1]
 223 0008 9A43     		bics	r2, r3
 180:Generated_Source\PSoC6\pdl\drivers\peripheral\prot/cy_prot.c ****               | _VAL2FLD(PROT_MPU_MPU_STRUCT_ADDR_ADDR24, (uint32_t)((uint32_t)config->address >> C
 224              		.loc 1 180 0
 225 000a 1543     		orrs	r5, r2
 226              	.LVL26:
 182:Generated_Source\PSoC6\pdl\drivers\peripheral\prot/cy_prot.c ****     attReg  = ((uint32_t)config->userPermission & CY_PROT_ATT_PERMISSION_MASK)
 227              		.loc 1 182 0
 228 000c 8B79     		ldrb	r3, [r1, #6]
 229 000e 0724     		movs	r4, #7
 230 0010 1C40     		ands	r4, r3
 183:Generated_Source\PSoC6\pdl\drivers\peripheral\prot/cy_prot.c ****               | (((uint32_t)config->privPermission & CY_PROT_ATT_PERMISSION_MASK) << CY_PROT_ATT_PR
 231              		.loc 1 183 0
 232 0012 CA79     		ldrb	r2, [r1, #7]
 233 0014 D200     		lsls	r2, r2, #3
 234 0016 3823     		movs	r3, #56
 235 0018 1340     		ands	r3, r2
 236 001a 1C43     		orrs	r4, r3
 184:Generated_Source\PSoC6\pdl\drivers\peripheral\prot/cy_prot.c ****               | _VAL2FLD(PROT_MPU_MPU_STRUCT_ATT_NS, !(config->secure))
 237              		.loc 1 184 0
 238 001c 0B7A     		ldrb	r3, [r1, #8]
 239 001e 0122     		movs	r2, #1
 240 0020 5A40     		eors	r2, r3
 241 0022 D2B2     		uxtb	r2, r2
 242 0024 9201     		lsls	r2, r2, #6
 243 0026 4023     		movs	r3, #64
 244 0028 1A40     		ands	r2, r3
 245 002a 2300     		movs	r3, r4
 246 002c 1343     		orrs	r3, r2
 185:Generated_Source\PSoC6\pdl\drivers\peripheral\prot/cy_prot.c ****               | _VAL2FLD(PROT_MPU_MPU_STRUCT_ATT_REGION_SIZE, config->regionSize);
 247              		.loc 1 185 0
 248 002e 0A79     		ldrb	r2, [r1, #4]
 249 0030 1206     		lsls	r2, r2, #24
 250 0032 F821     		movs	r1, #248
 251              	.LVL27:
 252 0034 4905     		lsls	r1, r1, #21
 253 0036 0A40     		ands	r2, r1
 182:Generated_Source\PSoC6\pdl\drivers\peripheral\prot/cy_prot.c ****               | (((uint32_t)config->privPermission & CY_PROT_ATT_PERMISSION_MASK) << CY_PROT_ATT_PR
 254              		.loc 1 182 0
 255 0038 1343     		orrs	r3, r2
 256              	.LVL28:
 186:Generated_Source\PSoC6\pdl\drivers\peripheral\prot/cy_prot.c ****     base->ATT = attReg;
 257              		.loc 1 186 0
 258 003a 4360     		str	r3, [r0, #4]
 187:Generated_Source\PSoC6\pdl\drivers\peripheral\prot/cy_prot.c ****     base->ADDR = addrReg;
 259              		.loc 1 187 0
 260 003c 0560     		str	r5, [r0]
 188:Generated_Source\PSoC6\pdl\drivers\peripheral\prot/cy_prot.c ****     status = ((base->ADDR != addrReg) || (base->ATT != attReg)) ? CY_PROT_FAILURE : CY_PROT_SUCCESS
 261              		.loc 1 188 0
 262 003e 0268     		ldr	r2, [r0]
 263 0040 9542     		cmp	r5, r2
ARM GAS  C:\Users\kiwamu\AppData\Local\Temp\ccj1MWYe.s 			page 9


 264 0042 04D1     		bne	.L17
 265              		.loc 1 188 0 is_stmt 0 discriminator 2
 266 0044 4268     		ldr	r2, [r0, #4]
 267 0046 9342     		cmp	r3, r2
 268 0048 03D0     		beq	.L18
 269              		.loc 1 188 0
 270 004a 0348     		ldr	r0, .L19
 271              	.LVL29:
 272 004c 02E0     		b	.L16
 273              	.LVL30:
 274              	.L17:
 275 004e 0248     		ldr	r0, .L19
 276              	.LVL31:
 277 0050 00E0     		b	.L16
 278              	.LVL32:
 279              	.L18:
 280 0052 0020     		movs	r0, #0
 281              	.LVL33:
 282              	.L16:
 189:Generated_Source\PSoC6\pdl\drivers\peripheral\prot/cy_prot.c ****     
 190:Generated_Source\PSoC6\pdl\drivers\peripheral\prot/cy_prot.c ****     return status;
 191:Generated_Source\PSoC6\pdl\drivers\peripheral\prot/cy_prot.c **** }
 283              		.loc 1 191 0 is_stmt 1 discriminator 6
 284              		@ sp needed
 285              	.LVL34:
 286 0054 70BD     		pop	{r4, r5, r6, pc}
 287              	.L20:
 288 0056 C046     		.align	2
 289              	.L19:
 290 0058 0300C200 		.word	12713987
 291              		.cfi_endproc
 292              	.LFE37:
 293              		.size	Cy_Prot_ConfigMpuStruct, .-Cy_Prot_ConfigMpuStruct
 294              		.section	.text.Cy_Prot_EnableMpuStruct,"ax",%progbits
 295              		.align	2
 296              		.global	Cy_Prot_EnableMpuStruct
 297              		.code	16
 298              		.thumb_func
 299              		.type	Cy_Prot_EnableMpuStruct, %function
 300              	Cy_Prot_EnableMpuStruct:
 301              	.LFB38:
 192:Generated_Source\PSoC6\pdl\drivers\peripheral\prot/cy_prot.c **** 
 193:Generated_Source\PSoC6\pdl\drivers\peripheral\prot/cy_prot.c **** 
 194:Generated_Source\PSoC6\pdl\drivers\peripheral\prot/cy_prot.c **** /*******************************************************************************
 195:Generated_Source\PSoC6\pdl\drivers\peripheral\prot/cy_prot.c **** * Function Name: Cy_Prot_EnableMpuStruct
 196:Generated_Source\PSoC6\pdl\drivers\peripheral\prot/cy_prot.c **** ****************************************************************************//**
 197:Generated_Source\PSoC6\pdl\drivers\peripheral\prot/cy_prot.c **** *
 198:Generated_Source\PSoC6\pdl\drivers\peripheral\prot/cy_prot.c **** * \brief Enables the MPU struct, which allows the MPU protection attributes to 
 199:Generated_Source\PSoC6\pdl\drivers\peripheral\prot/cy_prot.c **** * take effect. 
 200:Generated_Source\PSoC6\pdl\drivers\peripheral\prot/cy_prot.c **** *
 201:Generated_Source\PSoC6\pdl\drivers\peripheral\prot/cy_prot.c **** * \param base
 202:Generated_Source\PSoC6\pdl\drivers\peripheral\prot/cy_prot.c **** * The base address of the MPU struct being configured. 
 203:Generated_Source\PSoC6\pdl\drivers\peripheral\prot/cy_prot.c **** *
 204:Generated_Source\PSoC6\pdl\drivers\peripheral\prot/cy_prot.c **** * \return
 205:Generated_Source\PSoC6\pdl\drivers\peripheral\prot/cy_prot.c **** * Status of the function call.
 206:Generated_Source\PSoC6\pdl\drivers\peripheral\prot/cy_prot.c **** *
 207:Generated_Source\PSoC6\pdl\drivers\peripheral\prot/cy_prot.c **** *   Status               | Description
ARM GAS  C:\Users\kiwamu\AppData\Local\Temp\ccj1MWYe.s 			page 10


 208:Generated_Source\PSoC6\pdl\drivers\peripheral\prot/cy_prot.c **** *   ------------         | -----------
 209:Generated_Source\PSoC6\pdl\drivers\peripheral\prot/cy_prot.c **** *   CY_PROT_SUCCESS      | The MPU struct was enabled
 210:Generated_Source\PSoC6\pdl\drivers\peripheral\prot/cy_prot.c **** *   CY_PROT_FAILURE      | The MPU struct is disabled and possibly locked
 211:Generated_Source\PSoC6\pdl\drivers\peripheral\prot/cy_prot.c **** *  
 212:Generated_Source\PSoC6\pdl\drivers\peripheral\prot/cy_prot.c **** *******************************************************************************/
 213:Generated_Source\PSoC6\pdl\drivers\peripheral\prot/cy_prot.c **** cy_en_prot_status_t Cy_Prot_EnableMpuStruct(PROT_MPU_MPU_STRUCT_Type* base)
 214:Generated_Source\PSoC6\pdl\drivers\peripheral\prot/cy_prot.c **** {
 302              		.loc 1 214 0
 303              		.cfi_startproc
 304              		@ args = 0, pretend = 0, frame = 0
 305              		@ frame_needed = 0, uses_anonymous_args = 0
 306              		@ link register save eliminated.
 307              	.LVL35:
 215:Generated_Source\PSoC6\pdl\drivers\peripheral\prot/cy_prot.c ****     cy_en_prot_status_t status = CY_PROT_SUCCESS;
 216:Generated_Source\PSoC6\pdl\drivers\peripheral\prot/cy_prot.c ****     
 217:Generated_Source\PSoC6\pdl\drivers\peripheral\prot/cy_prot.c ****     base->ATT |= _VAL2FLD(PROT_MPU_MPU_STRUCT_ATT_ENABLED, CY_PROT_STRUCT_ENABLE);
 308              		.loc 1 217 0
 309 0000 4368     		ldr	r3, [r0, #4]
 310 0002 8022     		movs	r2, #128
 311 0004 1206     		lsls	r2, r2, #24
 312 0006 1343     		orrs	r3, r2
 313 0008 4360     		str	r3, [r0, #4]
 218:Generated_Source\PSoC6\pdl\drivers\peripheral\prot/cy_prot.c ****     status = (_FLD2VAL(PROT_MPU_MPU_STRUCT_ATT_ENABLED, base->ATT) != CY_PROT_STRUCT_ENABLE) ?
 314              		.loc 1 218 0
 315 000a 4368     		ldr	r3, [r0, #4]
 316 000c 002B     		cmp	r3, #0
 317 000e 01DB     		blt	.L23
 318 0010 0148     		ldr	r0, .L24
 319              	.LVL36:
 320 0012 00E0     		b	.L22
 321              	.LVL37:
 322              	.L23:
 323 0014 0020     		movs	r0, #0
 324              	.LVL38:
 325              	.L22:
 219:Generated_Source\PSoC6\pdl\drivers\peripheral\prot/cy_prot.c ****                 CY_PROT_FAILURE : CY_PROT_SUCCESS;
 220:Generated_Source\PSoC6\pdl\drivers\peripheral\prot/cy_prot.c ****     
 221:Generated_Source\PSoC6\pdl\drivers\peripheral\prot/cy_prot.c ****     return status;
 222:Generated_Source\PSoC6\pdl\drivers\peripheral\prot/cy_prot.c **** }
 326              		.loc 1 222 0 discriminator 4
 327              		@ sp needed
 328 0016 7047     		bx	lr
 329              	.L25:
 330              		.align	2
 331              	.L24:
 332 0018 0300C200 		.word	12713987
 333              		.cfi_endproc
 334              	.LFE38:
 335              		.size	Cy_Prot_EnableMpuStruct, .-Cy_Prot_EnableMpuStruct
 336              		.section	.text.Cy_Prot_DisableMpuStruct,"ax",%progbits
 337              		.align	2
 338              		.global	Cy_Prot_DisableMpuStruct
 339              		.code	16
 340              		.thumb_func
 341              		.type	Cy_Prot_DisableMpuStruct, %function
 342              	Cy_Prot_DisableMpuStruct:
 343              	.LFB39:
ARM GAS  C:\Users\kiwamu\AppData\Local\Temp\ccj1MWYe.s 			page 11


 223:Generated_Source\PSoC6\pdl\drivers\peripheral\prot/cy_prot.c **** 
 224:Generated_Source\PSoC6\pdl\drivers\peripheral\prot/cy_prot.c **** 
 225:Generated_Source\PSoC6\pdl\drivers\peripheral\prot/cy_prot.c **** /*******************************************************************************
 226:Generated_Source\PSoC6\pdl\drivers\peripheral\prot/cy_prot.c **** * Function Name: Cy_Prot_DisableMpuStruct
 227:Generated_Source\PSoC6\pdl\drivers\peripheral\prot/cy_prot.c **** ****************************************************************************//**
 228:Generated_Source\PSoC6\pdl\drivers\peripheral\prot/cy_prot.c **** *
 229:Generated_Source\PSoC6\pdl\drivers\peripheral\prot/cy_prot.c **** * \brief Disbles the MPU struct, which prevents the MPU protection attributes
 230:Generated_Source\PSoC6\pdl\drivers\peripheral\prot/cy_prot.c **** * from taking effect.
 231:Generated_Source\PSoC6\pdl\drivers\peripheral\prot/cy_prot.c **** *
 232:Generated_Source\PSoC6\pdl\drivers\peripheral\prot/cy_prot.c **** * \param base
 233:Generated_Source\PSoC6\pdl\drivers\peripheral\prot/cy_prot.c **** * The base address of the MPU struct being configured. 
 234:Generated_Source\PSoC6\pdl\drivers\peripheral\prot/cy_prot.c **** *
 235:Generated_Source\PSoC6\pdl\drivers\peripheral\prot/cy_prot.c **** * \return
 236:Generated_Source\PSoC6\pdl\drivers\peripheral\prot/cy_prot.c **** * Status of the function call.
 237:Generated_Source\PSoC6\pdl\drivers\peripheral\prot/cy_prot.c **** *
 238:Generated_Source\PSoC6\pdl\drivers\peripheral\prot/cy_prot.c **** *   Status               | Description
 239:Generated_Source\PSoC6\pdl\drivers\peripheral\prot/cy_prot.c **** *   ------------         | -----------
 240:Generated_Source\PSoC6\pdl\drivers\peripheral\prot/cy_prot.c **** *   CY_PROT_SUCCESS      | The MPU struct was disabled
 241:Generated_Source\PSoC6\pdl\drivers\peripheral\prot/cy_prot.c **** *   CY_PROT_FAILURE      | The MPU struct is enabled and possibly locked
 242:Generated_Source\PSoC6\pdl\drivers\peripheral\prot/cy_prot.c **** *  
 243:Generated_Source\PSoC6\pdl\drivers\peripheral\prot/cy_prot.c **** *******************************************************************************/
 244:Generated_Source\PSoC6\pdl\drivers\peripheral\prot/cy_prot.c **** cy_en_prot_status_t Cy_Prot_DisableMpuStruct(PROT_MPU_MPU_STRUCT_Type* base)
 245:Generated_Source\PSoC6\pdl\drivers\peripheral\prot/cy_prot.c **** {
 344              		.loc 1 245 0
 345              		.cfi_startproc
 346              		@ args = 0, pretend = 0, frame = 0
 347              		@ frame_needed = 0, uses_anonymous_args = 0
 348              		@ link register save eliminated.
 349              	.LVL39:
 246:Generated_Source\PSoC6\pdl\drivers\peripheral\prot/cy_prot.c ****     cy_en_prot_status_t status = CY_PROT_SUCCESS;
 247:Generated_Source\PSoC6\pdl\drivers\peripheral\prot/cy_prot.c ****     
 248:Generated_Source\PSoC6\pdl\drivers\peripheral\prot/cy_prot.c ****     base->ATT &= ~_VAL2FLD(PROT_MPU_MPU_STRUCT_ATT_ENABLED, CY_PROT_STRUCT_ENABLE);
 350              		.loc 1 248 0
 351 0000 4368     		ldr	r3, [r0, #4]
 352 0002 5B00     		lsls	r3, r3, #1
 353 0004 5B08     		lsrs	r3, r3, #1
 354 0006 4360     		str	r3, [r0, #4]
 249:Generated_Source\PSoC6\pdl\drivers\peripheral\prot/cy_prot.c ****     status = (_FLD2VAL(PROT_MPU_MPU_STRUCT_ATT_ENABLED, base->ATT) == CY_PROT_STRUCT_ENABLE) ?
 355              		.loc 1 249 0
 356 0008 4368     		ldr	r3, [r0, #4]
 357 000a 002B     		cmp	r3, #0
 358 000c 01DA     		bge	.L28
 359 000e 0248     		ldr	r0, .L29
 360              	.LVL40:
 361 0010 00E0     		b	.L27
 362              	.LVL41:
 363              	.L28:
 364 0012 0020     		movs	r0, #0
 365              	.LVL42:
 366              	.L27:
 250:Generated_Source\PSoC6\pdl\drivers\peripheral\prot/cy_prot.c ****             CY_PROT_FAILURE : CY_PROT_SUCCESS;
 251:Generated_Source\PSoC6\pdl\drivers\peripheral\prot/cy_prot.c ****     
 252:Generated_Source\PSoC6\pdl\drivers\peripheral\prot/cy_prot.c ****     return status;
 253:Generated_Source\PSoC6\pdl\drivers\peripheral\prot/cy_prot.c **** }
 367              		.loc 1 253 0 discriminator 4
 368              		@ sp needed
 369 0014 7047     		bx	lr
ARM GAS  C:\Users\kiwamu\AppData\Local\Temp\ccj1MWYe.s 			page 12


 370              	.L30:
 371 0016 C046     		.align	2
 372              	.L29:
 373 0018 0300C200 		.word	12713987
 374              		.cfi_endproc
 375              	.LFE39:
 376              		.size	Cy_Prot_DisableMpuStruct, .-Cy_Prot_DisableMpuStruct
 377              		.section	.text.Cy_Prot_ConfigSmpuMasterStruct,"ax",%progbits
 378              		.align	2
 379              		.global	Cy_Prot_ConfigSmpuMasterStruct
 380              		.code	16
 381              		.thumb_func
 382              		.type	Cy_Prot_ConfigSmpuMasterStruct, %function
 383              	Cy_Prot_ConfigSmpuMasterStruct:
 384              	.LFB40:
 254:Generated_Source\PSoC6\pdl\drivers\peripheral\prot/cy_prot.c **** 
 255:Generated_Source\PSoC6\pdl\drivers\peripheral\prot/cy_prot.c **** 
 256:Generated_Source\PSoC6\pdl\drivers\peripheral\prot/cy_prot.c **** /*******************************************************************************
 257:Generated_Source\PSoC6\pdl\drivers\peripheral\prot/cy_prot.c **** * Function Name: Cy_Prot_ConfigSmpuMasterStruct
 258:Generated_Source\PSoC6\pdl\drivers\peripheral\prot/cy_prot.c **** ****************************************************************************//**
 259:Generated_Source\PSoC6\pdl\drivers\peripheral\prot/cy_prot.c **** *
 260:Generated_Source\PSoC6\pdl\drivers\peripheral\prot/cy_prot.c **** * \brief Configures a Shared Memory Protection Unit (SMPU) master protection 
 261:Generated_Source\PSoC6\pdl\drivers\peripheral\prot/cy_prot.c **** * struct with its protection attributes. 
 262:Generated_Source\PSoC6\pdl\drivers\peripheral\prot/cy_prot.c **** *
 263:Generated_Source\PSoC6\pdl\drivers\peripheral\prot/cy_prot.c **** * This function configures the master struct governing the corresponding slave
 264:Generated_Source\PSoC6\pdl\drivers\peripheral\prot/cy_prot.c **** * struct pair. It is a mechanism to protect the slave SMPU struct. Since the
 265:Generated_Source\PSoC6\pdl\drivers\peripheral\prot/cy_prot.c **** * memory location of the slave struct is known, the address, regionSize and
 266:Generated_Source\PSoC6\pdl\drivers\peripheral\prot/cy_prot.c **** * subregions of the configuration struct are not applicable.
 267:Generated_Source\PSoC6\pdl\drivers\peripheral\prot/cy_prot.c **** *
 268:Generated_Source\PSoC6\pdl\drivers\peripheral\prot/cy_prot.c **** * Note that only the user/privileged write permissions are configurable. The 
 269:Generated_Source\PSoC6\pdl\drivers\peripheral\prot/cy_prot.c **** * read and execute permissions are read-only and cannot be configured.
 270:Generated_Source\PSoC6\pdl\drivers\peripheral\prot/cy_prot.c **** *
 271:Generated_Source\PSoC6\pdl\drivers\peripheral\prot/cy_prot.c **** * \param base
 272:Generated_Source\PSoC6\pdl\drivers\peripheral\prot/cy_prot.c **** * The register base address of the protection struct being configured.
 273:Generated_Source\PSoC6\pdl\drivers\peripheral\prot/cy_prot.c **** * 
 274:Generated_Source\PSoC6\pdl\drivers\peripheral\prot/cy_prot.c **** * \param config
 275:Generated_Source\PSoC6\pdl\drivers\peripheral\prot/cy_prot.c **** * Initialization structure with all the protection attributes.
 276:Generated_Source\PSoC6\pdl\drivers\peripheral\prot/cy_prot.c **** * 
 277:Generated_Source\PSoC6\pdl\drivers\peripheral\prot/cy_prot.c **** * \return
 278:Generated_Source\PSoC6\pdl\drivers\peripheral\prot/cy_prot.c **** * Status of the function call.
 279:Generated_Source\PSoC6\pdl\drivers\peripheral\prot/cy_prot.c **** *
 280:Generated_Source\PSoC6\pdl\drivers\peripheral\prot/cy_prot.c **** *   Status               | Description
 281:Generated_Source\PSoC6\pdl\drivers\peripheral\prot/cy_prot.c **** *   ------------         | -----------
 282:Generated_Source\PSoC6\pdl\drivers\peripheral\prot/cy_prot.c **** *   CY_PROT_SUCCESS      | SMPU master struct was successfully configured
 283:Generated_Source\PSoC6\pdl\drivers\peripheral\prot/cy_prot.c **** *   CY_PROT_FAILURE      | The resource is locked
 284:Generated_Source\PSoC6\pdl\drivers\peripheral\prot/cy_prot.c **** *   CY_PROT_BAD_PARAM    | An incorrect/invalid parameter was passed
 285:Generated_Source\PSoC6\pdl\drivers\peripheral\prot/cy_prot.c **** *  
 286:Generated_Source\PSoC6\pdl\drivers\peripheral\prot/cy_prot.c **** *******************************************************************************/
 287:Generated_Source\PSoC6\pdl\drivers\peripheral\prot/cy_prot.c **** cy_en_prot_status_t Cy_Prot_ConfigSmpuMasterStruct(PROT_SMPU_SMPU_STRUCT_Type* base, const cy_stc_s
 288:Generated_Source\PSoC6\pdl\drivers\peripheral\prot/cy_prot.c **** {
 385              		.loc 1 288 0
 386              		.cfi_startproc
 387              		@ args = 0, pretend = 0, frame = 0
 388              		@ frame_needed = 0, uses_anonymous_args = 0
 389              	.LVL43:
 390 0000 70B5     		push	{r4, r5, r6, lr}
 391              		.cfi_def_cfa_offset 16
ARM GAS  C:\Users\kiwamu\AppData\Local\Temp\ccj1MWYe.s 			page 13


 392              		.cfi_offset 4, -16
 393              		.cfi_offset 5, -12
 394              		.cfi_offset 6, -8
 395              		.cfi_offset 14, -4
 396              	.LVL44:
 289:Generated_Source\PSoC6\pdl\drivers\peripheral\prot/cy_prot.c ****     cy_en_prot_status_t status = CY_PROT_SUCCESS;
 290:Generated_Source\PSoC6\pdl\drivers\peripheral\prot/cy_prot.c ****     uint32_t attReg;
 291:Generated_Source\PSoC6\pdl\drivers\peripheral\prot/cy_prot.c ****     
 292:Generated_Source\PSoC6\pdl\drivers\peripheral\prot/cy_prot.c ****     if(((uint32_t)config->pcMask & CY_PROT_SMPU_PC_LIMIT_MASK) != 0UL) 
 397              		.loc 1 292 0
 398 0002 4C89     		ldrh	r4, [r1, #10]
 399 0004 7F23     		movs	r3, #127
 400 0006 2200     		movs	r2, r4
 401 0008 9A43     		bics	r2, r3
 402 000a 28D1     		bne	.L33
 293:Generated_Source\PSoC6\pdl\drivers\peripheral\prot/cy_prot.c ****     {
 294:Generated_Source\PSoC6\pdl\drivers\peripheral\prot/cy_prot.c ****         /* PC mask out of range - not supported in device */
 295:Generated_Source\PSoC6\pdl\drivers\peripheral\prot/cy_prot.c ****         status = CY_PROT_BAD_PARAM;
 296:Generated_Source\PSoC6\pdl\drivers\peripheral\prot/cy_prot.c ****     }
 297:Generated_Source\PSoC6\pdl\drivers\peripheral\prot/cy_prot.c ****     else
 298:Generated_Source\PSoC6\pdl\drivers\peripheral\prot/cy_prot.c ****     {
 299:Generated_Source\PSoC6\pdl\drivers\peripheral\prot/cy_prot.c ****         /* ADDR1 is read only. Only configure ATT1 */
 300:Generated_Source\PSoC6\pdl\drivers\peripheral\prot/cy_prot.c ****         attReg = ((uint32_t)config->userPermission & CY_PROT_ATT_PERMISSION_MASK)
 403              		.loc 1 300 0
 404 000c 8B79     		ldrb	r3, [r1, #6]
 405 000e 0725     		movs	r5, #7
 406 0010 1D40     		ands	r5, r3
 301:Generated_Source\PSoC6\pdl\drivers\peripheral\prot/cy_prot.c ****                     | (uint32_t)(((uint32_t)config->privPermission & CY_PROT_ATT_PERMISSION_MASK) <
 407              		.loc 1 301 0
 408 0012 CA79     		ldrb	r2, [r1, #7]
 409 0014 D200     		lsls	r2, r2, #3
 410 0016 3823     		movs	r3, #56
 411 0018 1340     		ands	r3, r2
 412 001a 1D43     		orrs	r5, r3
 302:Generated_Source\PSoC6\pdl\drivers\peripheral\prot/cy_prot.c ****                     | _VAL2FLD(PROT_SMPU_SMPU_STRUCT_ATT1_NS, !(config->secure))
 413              		.loc 1 302 0
 414 001c 0B7A     		ldrb	r3, [r1, #8]
 415 001e 0122     		movs	r2, #1
 416 0020 5A40     		eors	r2, r3
 417 0022 D2B2     		uxtb	r2, r2
 418 0024 9201     		lsls	r2, r2, #6
 419 0026 4023     		movs	r3, #64
 420 0028 1A40     		ands	r2, r3
 421 002a 2B00     		movs	r3, r5
 422 002c 1343     		orrs	r3, r2
 303:Generated_Source\PSoC6\pdl\drivers\peripheral\prot/cy_prot.c ****                     | _VAL2FLD(PROT_SMPU_SMPU_STRUCT_ATT1_PC_MASK_15_TO_1, config->pcMask)
 423              		.loc 1 303 0
 424 002e 6402     		lsls	r4, r4, #9
 425 0030 0E4A     		ldr	r2, .L36
 426 0032 1440     		ands	r4, r2
 427 0034 1C43     		orrs	r4, r3
 304:Generated_Source\PSoC6\pdl\drivers\peripheral\prot/cy_prot.c ****                     /* No region size - read only for master structs */
 305:Generated_Source\PSoC6\pdl\drivers\peripheral\prot/cy_prot.c ****                     | _VAL2FLD(PROT_SMPU_SMPU_STRUCT_ATT1_PC_MATCH, config->pcMatch);
 428              		.loc 1 305 0
 429 0036 4B7A     		ldrb	r3, [r1, #9]
 430 0038 9B07     		lsls	r3, r3, #30
 431 003a 8021     		movs	r1, #128
ARM GAS  C:\Users\kiwamu\AppData\Local\Temp\ccj1MWYe.s 			page 14


 432              	.LVL45:
 433 003c C905     		lsls	r1, r1, #23
 434 003e 0B40     		ands	r3, r1
 435 0040 1A00     		movs	r2, r3
 300:Generated_Source\PSoC6\pdl\drivers\peripheral\prot/cy_prot.c ****                     | (uint32_t)(((uint32_t)config->privPermission & CY_PROT_ATT_PERMISSION_MASK) <
 436              		.loc 1 300 0
 437 0042 2300     		movs	r3, r4
 438 0044 1343     		orrs	r3, r2
 439              	.LVL46:
 306:Generated_Source\PSoC6\pdl\drivers\peripheral\prot/cy_prot.c ****         if ((attReg & CY_PROT_SMPU_ATT1_MASK) != attReg)
 440              		.loc 1 306 0
 441 0046 0A4A     		ldr	r2, .L36+4
 442 0048 1A40     		ands	r2, r3
 443 004a 9342     		cmp	r3, r2
 444 004c 09D1     		bne	.L34
 307:Generated_Source\PSoC6\pdl\drivers\peripheral\prot/cy_prot.c ****         {
 308:Generated_Source\PSoC6\pdl\drivers\peripheral\prot/cy_prot.c ****             /* Invalid parameter was passed */
 309:Generated_Source\PSoC6\pdl\drivers\peripheral\prot/cy_prot.c ****             status = CY_PROT_BAD_PARAM;
 310:Generated_Source\PSoC6\pdl\drivers\peripheral\prot/cy_prot.c ****         }
 311:Generated_Source\PSoC6\pdl\drivers\peripheral\prot/cy_prot.c ****         else
 312:Generated_Source\PSoC6\pdl\drivers\peripheral\prot/cy_prot.c ****         {
 313:Generated_Source\PSoC6\pdl\drivers\peripheral\prot/cy_prot.c ****             base->ATT1 = attReg;
 445              		.loc 1 313 0
 446 004e 4362     		str	r3, [r0, #36]
 314:Generated_Source\PSoC6\pdl\drivers\peripheral\prot/cy_prot.c ****             status = ((base->ATT1 & CY_PROT_SMPU_ATT1_MASK) != attReg) ? CY_PROT_FAILURE : CY_PROT_
 447              		.loc 1 314 0
 448 0050 416A     		ldr	r1, [r0, #36]
 449 0052 074A     		ldr	r2, .L36+4
 450 0054 0A40     		ands	r2, r1
 451 0056 9342     		cmp	r3, r2
 452 0058 05D0     		beq	.L35
 453 005a 0648     		ldr	r0, .L36+8
 454              	.LVL47:
 455 005c 04E0     		b	.L32
 456              	.LVL48:
 457              	.L33:
 295:Generated_Source\PSoC6\pdl\drivers\peripheral\prot/cy_prot.c ****     }
 458              		.loc 1 295 0
 459 005e 0648     		ldr	r0, .L36+12
 460              	.LVL49:
 461 0060 02E0     		b	.L32
 462              	.LVL50:
 463              	.L34:
 309:Generated_Source\PSoC6\pdl\drivers\peripheral\prot/cy_prot.c ****         }
 464              		.loc 1 309 0
 465 0062 0548     		ldr	r0, .L36+12
 466              	.LVL51:
 467 0064 00E0     		b	.L32
 468              	.LVL52:
 469              	.L35:
 470              		.loc 1 314 0
 471 0066 0020     		movs	r0, #0
 472              	.LVL53:
 473              	.L32:
 315:Generated_Source\PSoC6\pdl\drivers\peripheral\prot/cy_prot.c ****         }
 316:Generated_Source\PSoC6\pdl\drivers\peripheral\prot/cy_prot.c ****     }
 317:Generated_Source\PSoC6\pdl\drivers\peripheral\prot/cy_prot.c ****     
ARM GAS  C:\Users\kiwamu\AppData\Local\Temp\ccj1MWYe.s 			page 15


 318:Generated_Source\PSoC6\pdl\drivers\peripheral\prot/cy_prot.c ****     return status;
 319:Generated_Source\PSoC6\pdl\drivers\peripheral\prot/cy_prot.c **** }
 474              		.loc 1 319 0
 475              		@ sp needed
 476 0068 70BD     		pop	{r4, r5, r6, pc}
 477              	.L37:
 478 006a C046     		.align	2
 479              	.L36:
 480 006c 00FEFF00 		.word	16776704
 481 0070 D2FEFFE0 		.word	-520093998
 482 0074 0300C200 		.word	12713987
 483 0078 0100C200 		.word	12713985
 484              		.cfi_endproc
 485              	.LFE40:
 486              		.size	Cy_Prot_ConfigSmpuMasterStruct, .-Cy_Prot_ConfigSmpuMasterStruct
 487              		.section	.text.Cy_Prot_ConfigSmpuSlaveStruct,"ax",%progbits
 488              		.align	2
 489              		.global	Cy_Prot_ConfigSmpuSlaveStruct
 490              		.code	16
 491              		.thumb_func
 492              		.type	Cy_Prot_ConfigSmpuSlaveStruct, %function
 493              	Cy_Prot_ConfigSmpuSlaveStruct:
 494              	.LFB41:
 320:Generated_Source\PSoC6\pdl\drivers\peripheral\prot/cy_prot.c **** 
 321:Generated_Source\PSoC6\pdl\drivers\peripheral\prot/cy_prot.c **** /*******************************************************************************
 322:Generated_Source\PSoC6\pdl\drivers\peripheral\prot/cy_prot.c **** * Function Name: Cy_Prot_ConfigSmpuSlaveStruct
 323:Generated_Source\PSoC6\pdl\drivers\peripheral\prot/cy_prot.c **** ****************************************************************************//**
 324:Generated_Source\PSoC6\pdl\drivers\peripheral\prot/cy_prot.c **** *
 325:Generated_Source\PSoC6\pdl\drivers\peripheral\prot/cy_prot.c **** * \brief Configures a Shared Memory Protection Unit (SMPU) slave protection 
 326:Generated_Source\PSoC6\pdl\drivers\peripheral\prot/cy_prot.c **** * struct with its protection attributes. 
 327:Generated_Source\PSoC6\pdl\drivers\peripheral\prot/cy_prot.c **** * 
 328:Generated_Source\PSoC6\pdl\drivers\peripheral\prot/cy_prot.c **** * This function configures the slave struct of an SMPU pair, which can protect
 329:Generated_Source\PSoC6\pdl\drivers\peripheral\prot/cy_prot.c **** * any memory region in a device from invalid bus master accesses.
 330:Generated_Source\PSoC6\pdl\drivers\peripheral\prot/cy_prot.c **** *
 331:Generated_Source\PSoC6\pdl\drivers\peripheral\prot/cy_prot.c **** * \param base
 332:Generated_Source\PSoC6\pdl\drivers\peripheral\prot/cy_prot.c **** * The register base address of the protection structure being configured.
 333:Generated_Source\PSoC6\pdl\drivers\peripheral\prot/cy_prot.c **** * 
 334:Generated_Source\PSoC6\pdl\drivers\peripheral\prot/cy_prot.c **** * \param config
 335:Generated_Source\PSoC6\pdl\drivers\peripheral\prot/cy_prot.c **** * Initialization structure with all the protection attributes.
 336:Generated_Source\PSoC6\pdl\drivers\peripheral\prot/cy_prot.c **** * 
 337:Generated_Source\PSoC6\pdl\drivers\peripheral\prot/cy_prot.c **** * \return
 338:Generated_Source\PSoC6\pdl\drivers\peripheral\prot/cy_prot.c **** * Status of the function call.
 339:Generated_Source\PSoC6\pdl\drivers\peripheral\prot/cy_prot.c **** *
 340:Generated_Source\PSoC6\pdl\drivers\peripheral\prot/cy_prot.c **** *   Status               | Description
 341:Generated_Source\PSoC6\pdl\drivers\peripheral\prot/cy_prot.c **** *   ------------         | -----------
 342:Generated_Source\PSoC6\pdl\drivers\peripheral\prot/cy_prot.c **** *   CY_PROT_SUCCESS      | SMPU slave struct was successfully configured
 343:Generated_Source\PSoC6\pdl\drivers\peripheral\prot/cy_prot.c **** *   CY_PROT_FAILURE      | The resource is locked
 344:Generated_Source\PSoC6\pdl\drivers\peripheral\prot/cy_prot.c **** *   CY_PROT_BAD_PARAM    | An incorrect/invalid parameter was passed
 345:Generated_Source\PSoC6\pdl\drivers\peripheral\prot/cy_prot.c **** *  
 346:Generated_Source\PSoC6\pdl\drivers\peripheral\prot/cy_prot.c **** *******************************************************************************/
 347:Generated_Source\PSoC6\pdl\drivers\peripheral\prot/cy_prot.c **** cy_en_prot_status_t Cy_Prot_ConfigSmpuSlaveStruct(PROT_SMPU_SMPU_STRUCT_Type* base, const cy_stc_sm
 348:Generated_Source\PSoC6\pdl\drivers\peripheral\prot/cy_prot.c **** {
 495              		.loc 1 348 0
 496              		.cfi_startproc
 497              		@ args = 0, pretend = 0, frame = 0
 498              		@ frame_needed = 0, uses_anonymous_args = 0
 499              	.LVL54:
ARM GAS  C:\Users\kiwamu\AppData\Local\Temp\ccj1MWYe.s 			page 16


 500 0000 F0B5     		push	{r4, r5, r6, r7, lr}
 501              		.cfi_def_cfa_offset 20
 502              		.cfi_offset 4, -20
 503              		.cfi_offset 5, -16
 504              		.cfi_offset 6, -12
 505              		.cfi_offset 7, -8
 506              		.cfi_offset 14, -4
 507              	.LVL55:
 349:Generated_Source\PSoC6\pdl\drivers\peripheral\prot/cy_prot.c ****     cy_en_prot_status_t status = CY_PROT_SUCCESS;
 350:Generated_Source\PSoC6\pdl\drivers\peripheral\prot/cy_prot.c ****     uint32_t addrReg;
 351:Generated_Source\PSoC6\pdl\drivers\peripheral\prot/cy_prot.c ****     uint32_t attReg;
 352:Generated_Source\PSoC6\pdl\drivers\peripheral\prot/cy_prot.c ****     
 353:Generated_Source\PSoC6\pdl\drivers\peripheral\prot/cy_prot.c ****     if(((uint32_t)config->pcMask & CY_PROT_SMPU_PC_LIMIT_MASK) != 0UL) 
 508              		.loc 1 353 0
 509 0002 4C89     		ldrh	r4, [r1, #10]
 510 0004 7F23     		movs	r3, #127
 511 0006 2200     		movs	r2, r4
 512 0008 9A43     		bics	r2, r3
 513 000a 131E     		subs	r3, r2, #0
 514 000c 35D1     		bne	.L40
 354:Generated_Source\PSoC6\pdl\drivers\peripheral\prot/cy_prot.c ****     {
 355:Generated_Source\PSoC6\pdl\drivers\peripheral\prot/cy_prot.c ****         /* PC mask out of range - not supported in device */
 356:Generated_Source\PSoC6\pdl\drivers\peripheral\prot/cy_prot.c ****         status = CY_PROT_BAD_PARAM;
 357:Generated_Source\PSoC6\pdl\drivers\peripheral\prot/cy_prot.c ****     }
 358:Generated_Source\PSoC6\pdl\drivers\peripheral\prot/cy_prot.c ****     else
 359:Generated_Source\PSoC6\pdl\drivers\peripheral\prot/cy_prot.c ****     {
 360:Generated_Source\PSoC6\pdl\drivers\peripheral\prot/cy_prot.c ****         addrReg= _VAL2FLD(PROT_SMPU_SMPU_STRUCT_ADDR0_SUBREGION_DISABLE, config->subregions)
 515              		.loc 1 360 0
 516 000e 4E79     		ldrb	r6, [r1, #5]
 361:Generated_Source\PSoC6\pdl\drivers\peripheral\prot/cy_prot.c ****                     | _VAL2FLD(PROT_SMPU_SMPU_STRUCT_ADDR0_ADDR24, (uint32_t)((uint32_t)config->add
 517              		.loc 1 361 0
 518 0010 FF33     		adds	r3, r3, #255
 519 0012 0A68     		ldr	r2, [r1]
 520 0014 9A43     		bics	r2, r3
 360:Generated_Source\PSoC6\pdl\drivers\peripheral\prot/cy_prot.c ****                     | _VAL2FLD(PROT_SMPU_SMPU_STRUCT_ADDR0_ADDR24, (uint32_t)((uint32_t)config->add
 521              		.loc 1 360 0
 522 0016 1643     		orrs	r6, r2
 523              	.LVL56:
 362:Generated_Source\PSoC6\pdl\drivers\peripheral\prot/cy_prot.c ****         attReg= ((uint32_t)config->userPermission & CY_PROT_ATT_PERMISSION_MASK)
 524              		.loc 1 362 0
 525 0018 8B79     		ldrb	r3, [r1, #6]
 526 001a 0725     		movs	r5, #7
 527 001c 1D40     		ands	r5, r3
 363:Generated_Source\PSoC6\pdl\drivers\peripheral\prot/cy_prot.c ****                     | (uint32_t)(((uint32_t)config->privPermission & CY_PROT_ATT_PERMISSION_MASK) <
 528              		.loc 1 363 0
 529 001e CA79     		ldrb	r2, [r1, #7]
 530 0020 D200     		lsls	r2, r2, #3
 531 0022 3823     		movs	r3, #56
 532 0024 1340     		ands	r3, r2
 533 0026 1D43     		orrs	r5, r3
 364:Generated_Source\PSoC6\pdl\drivers\peripheral\prot/cy_prot.c ****                     | _VAL2FLD(PROT_SMPU_SMPU_STRUCT_ATT0_NS, !(config->secure))
 534              		.loc 1 364 0
 535 0028 0B7A     		ldrb	r3, [r1, #8]
 536 002a 0122     		movs	r2, #1
 537 002c 5A40     		eors	r2, r3
 538 002e D2B2     		uxtb	r2, r2
 539 0030 9201     		lsls	r2, r2, #6
ARM GAS  C:\Users\kiwamu\AppData\Local\Temp\ccj1MWYe.s 			page 17


 540 0032 4023     		movs	r3, #64
 541 0034 1A40     		ands	r2, r3
 542 0036 2B00     		movs	r3, r5
 543 0038 1343     		orrs	r3, r2
 365:Generated_Source\PSoC6\pdl\drivers\peripheral\prot/cy_prot.c ****                     | _VAL2FLD(PROT_SMPU_SMPU_STRUCT_ATT0_PC_MASK_15_TO_1, config->pcMask)
 544              		.loc 1 365 0
 545 003a 6402     		lsls	r4, r4, #9
 546 003c 124A     		ldr	r2, .L43
 547 003e 1440     		ands	r4, r2
 548 0040 2343     		orrs	r3, r4
 366:Generated_Source\PSoC6\pdl\drivers\peripheral\prot/cy_prot.c ****                     | _VAL2FLD(PROT_SMPU_SMPU_STRUCT_ATT0_REGION_SIZE, config->regionSize)
 549              		.loc 1 366 0
 550 0042 0C79     		ldrb	r4, [r1, #4]
 551 0044 2406     		lsls	r4, r4, #24
 552 0046 F825     		movs	r5, #248
 553 0048 6D05     		lsls	r5, r5, #21
 554 004a 2200     		movs	r2, r4
 555 004c 2A40     		ands	r2, r5
 556 004e 1343     		orrs	r3, r2
 557 0050 1C00     		movs	r4, r3
 367:Generated_Source\PSoC6\pdl\drivers\peripheral\prot/cy_prot.c ****                     | _VAL2FLD(PROT_SMPU_SMPU_STRUCT_ATT0_PC_MATCH, config->pcMatch);
 558              		.loc 1 367 0
 559 0052 4B7A     		ldrb	r3, [r1, #9]
 560 0054 9B07     		lsls	r3, r3, #30
 561 0056 8021     		movs	r1, #128
 562              	.LVL57:
 563 0058 C905     		lsls	r1, r1, #23
 564 005a 0B40     		ands	r3, r1
 565 005c 1A00     		movs	r2, r3
 362:Generated_Source\PSoC6\pdl\drivers\peripheral\prot/cy_prot.c ****                     | (uint32_t)(((uint32_t)config->privPermission & CY_PROT_ATT_PERMISSION_MASK) <
 566              		.loc 1 362 0
 567 005e 2300     		movs	r3, r4
 568 0060 1343     		orrs	r3, r2
 569              	.LVL58:
 368:Generated_Source\PSoC6\pdl\drivers\peripheral\prot/cy_prot.c ****         base->ATT0 = attReg;
 570              		.loc 1 368 0
 571 0062 4360     		str	r3, [r0, #4]
 369:Generated_Source\PSoC6\pdl\drivers\peripheral\prot/cy_prot.c ****         base->ADDR0 = addrReg;
 572              		.loc 1 369 0
 573 0064 0660     		str	r6, [r0]
 370:Generated_Source\PSoC6\pdl\drivers\peripheral\prot/cy_prot.c ****         status = ((base->ADDR0 != addrReg) || ((base->ATT0 & CY_PROT_SMPU_ATT0_MASK) != attReg))
 574              		.loc 1 370 0
 575 0066 0268     		ldr	r2, [r0]
 576 0068 9642     		cmp	r6, r2
 577 006a 08D1     		bne	.L41
 578              		.loc 1 370 0 is_stmt 0 discriminator 2
 579 006c 4168     		ldr	r1, [r0, #4]
 580 006e 074A     		ldr	r2, .L43+4
 581 0070 0A40     		ands	r2, r1
 582 0072 9342     		cmp	r3, r2
 583 0074 05D0     		beq	.L42
 584              		.loc 1 370 0
 585 0076 0648     		ldr	r0, .L43+8
 586              	.LVL59:
 587 0078 04E0     		b	.L39
 588              	.LVL60:
 589              	.L40:
ARM GAS  C:\Users\kiwamu\AppData\Local\Temp\ccj1MWYe.s 			page 18


 356:Generated_Source\PSoC6\pdl\drivers\peripheral\prot/cy_prot.c ****     }
 590              		.loc 1 356 0 is_stmt 1
 591 007a 0648     		ldr	r0, .L43+12
 592              	.LVL61:
 593 007c 02E0     		b	.L39
 594              	.LVL62:
 595              	.L41:
 596              		.loc 1 370 0
 597 007e 0448     		ldr	r0, .L43+8
 598              	.LVL63:
 599 0080 00E0     		b	.L39
 600              	.LVL64:
 601              	.L42:
 602 0082 0020     		movs	r0, #0
 603              	.LVL65:
 604              	.L39:
 371:Generated_Source\PSoC6\pdl\drivers\peripheral\prot/cy_prot.c ****                     ? CY_PROT_FAILURE : CY_PROT_SUCCESS;
 372:Generated_Source\PSoC6\pdl\drivers\peripheral\prot/cy_prot.c ****     }
 373:Generated_Source\PSoC6\pdl\drivers\peripheral\prot/cy_prot.c ****     
 374:Generated_Source\PSoC6\pdl\drivers\peripheral\prot/cy_prot.c ****     return status;
 375:Generated_Source\PSoC6\pdl\drivers\peripheral\prot/cy_prot.c **** }
 605              		.loc 1 375 0
 606              		@ sp needed
 607 0084 F0BD     		pop	{r4, r5, r6, r7, pc}
 608              	.L44:
 609 0086 C046     		.align	2
 610              	.L43:
 611 0088 00FEFF00 		.word	16776704
 612 008c FFFEFFFF 		.word	-257
 613 0090 0300C200 		.word	12713987
 614 0094 0100C200 		.word	12713985
 615              		.cfi_endproc
 616              	.LFE41:
 617              		.size	Cy_Prot_ConfigSmpuSlaveStruct, .-Cy_Prot_ConfigSmpuSlaveStruct
 618              		.section	.text.Cy_Prot_EnableSmpuMasterStruct,"ax",%progbits
 619              		.align	2
 620              		.global	Cy_Prot_EnableSmpuMasterStruct
 621              		.code	16
 622              		.thumb_func
 623              		.type	Cy_Prot_EnableSmpuMasterStruct, %function
 624              	Cy_Prot_EnableSmpuMasterStruct:
 625              	.LFB42:
 376:Generated_Source\PSoC6\pdl\drivers\peripheral\prot/cy_prot.c **** 
 377:Generated_Source\PSoC6\pdl\drivers\peripheral\prot/cy_prot.c **** 
 378:Generated_Source\PSoC6\pdl\drivers\peripheral\prot/cy_prot.c **** /*******************************************************************************
 379:Generated_Source\PSoC6\pdl\drivers\peripheral\prot/cy_prot.c **** * Function Name: Cy_Prot_EnableSmpuMasterStruct
 380:Generated_Source\PSoC6\pdl\drivers\peripheral\prot/cy_prot.c **** ****************************************************************************//**
 381:Generated_Source\PSoC6\pdl\drivers\peripheral\prot/cy_prot.c **** *
 382:Generated_Source\PSoC6\pdl\drivers\peripheral\prot/cy_prot.c **** * \brief Enables the Master SMPU structure.
 383:Generated_Source\PSoC6\pdl\drivers\peripheral\prot/cy_prot.c **** *
 384:Generated_Source\PSoC6\pdl\drivers\peripheral\prot/cy_prot.c **** * This is an SMPU master struct enable function. The SMPU protection settings
 385:Generated_Source\PSoC6\pdl\drivers\peripheral\prot/cy_prot.c **** * will take effect after successful completion of this function call.
 386:Generated_Source\PSoC6\pdl\drivers\peripheral\prot/cy_prot.c **** *
 387:Generated_Source\PSoC6\pdl\drivers\peripheral\prot/cy_prot.c **** * \param base
 388:Generated_Source\PSoC6\pdl\drivers\peripheral\prot/cy_prot.c **** * The base address for the protection unit structure being configured. 
 389:Generated_Source\PSoC6\pdl\drivers\peripheral\prot/cy_prot.c **** *
 390:Generated_Source\PSoC6\pdl\drivers\peripheral\prot/cy_prot.c **** * \return
ARM GAS  C:\Users\kiwamu\AppData\Local\Temp\ccj1MWYe.s 			page 19


 391:Generated_Source\PSoC6\pdl\drivers\peripheral\prot/cy_prot.c **** * Status of the function call.
 392:Generated_Source\PSoC6\pdl\drivers\peripheral\prot/cy_prot.c **** *
 393:Generated_Source\PSoC6\pdl\drivers\peripheral\prot/cy_prot.c **** *   Status               | Description
 394:Generated_Source\PSoC6\pdl\drivers\peripheral\prot/cy_prot.c **** *   ------------         | -----------
 395:Generated_Source\PSoC6\pdl\drivers\peripheral\prot/cy_prot.c **** *   CY_PROT_SUCCESS      | The Master PU struct was enabled
 396:Generated_Source\PSoC6\pdl\drivers\peripheral\prot/cy_prot.c **** *   CY_PROT_FAILURE      | The Master PU struct is disabled and possibly locked
 397:Generated_Source\PSoC6\pdl\drivers\peripheral\prot/cy_prot.c **** *  
 398:Generated_Source\PSoC6\pdl\drivers\peripheral\prot/cy_prot.c **** *******************************************************************************/
 399:Generated_Source\PSoC6\pdl\drivers\peripheral\prot/cy_prot.c **** cy_en_prot_status_t Cy_Prot_EnableSmpuMasterStruct(PROT_SMPU_SMPU_STRUCT_Type* base)
 400:Generated_Source\PSoC6\pdl\drivers\peripheral\prot/cy_prot.c **** {
 626              		.loc 1 400 0
 627              		.cfi_startproc
 628              		@ args = 0, pretend = 0, frame = 0
 629              		@ frame_needed = 0, uses_anonymous_args = 0
 630              		@ link register save eliminated.
 631              	.LVL66:
 401:Generated_Source\PSoC6\pdl\drivers\peripheral\prot/cy_prot.c ****     cy_en_prot_status_t status = CY_PROT_SUCCESS;
 402:Generated_Source\PSoC6\pdl\drivers\peripheral\prot/cy_prot.c ****     
 403:Generated_Source\PSoC6\pdl\drivers\peripheral\prot/cy_prot.c ****     base->ATT1 |= _VAL2FLD(PROT_SMPU_SMPU_STRUCT_ATT1_ENABLED, CY_PROT_STRUCT_ENABLE);
 632              		.loc 1 403 0
 633 0000 436A     		ldr	r3, [r0, #36]
 634 0002 8022     		movs	r2, #128
 635 0004 1206     		lsls	r2, r2, #24
 636 0006 1343     		orrs	r3, r2
 637 0008 4362     		str	r3, [r0, #36]
 404:Generated_Source\PSoC6\pdl\drivers\peripheral\prot/cy_prot.c ****     status = (_FLD2VAL(PROT_SMPU_SMPU_STRUCT_ATT1_ENABLED, base->ATT1) != CY_PROT_STRUCT_ENABLE) ?
 638              		.loc 1 404 0
 639 000a 436A     		ldr	r3, [r0, #36]
 640 000c 002B     		cmp	r3, #0
 641 000e 01DB     		blt	.L47
 642 0010 0148     		ldr	r0, .L48
 643              	.LVL67:
 644 0012 00E0     		b	.L46
 645              	.LVL68:
 646              	.L47:
 647 0014 0020     		movs	r0, #0
 648              	.LVL69:
 649              	.L46:
 405:Generated_Source\PSoC6\pdl\drivers\peripheral\prot/cy_prot.c ****                 CY_PROT_FAILURE : CY_PROT_SUCCESS;
 406:Generated_Source\PSoC6\pdl\drivers\peripheral\prot/cy_prot.c ****     
 407:Generated_Source\PSoC6\pdl\drivers\peripheral\prot/cy_prot.c ****     return status;
 408:Generated_Source\PSoC6\pdl\drivers\peripheral\prot/cy_prot.c **** }
 650              		.loc 1 408 0 discriminator 4
 651              		@ sp needed
 652 0016 7047     		bx	lr
 653              	.L49:
 654              		.align	2
 655              	.L48:
 656 0018 0300C200 		.word	12713987
 657              		.cfi_endproc
 658              	.LFE42:
 659              		.size	Cy_Prot_EnableSmpuMasterStruct, .-Cy_Prot_EnableSmpuMasterStruct
 660              		.section	.text.Cy_Prot_DisableSmpuMasterStruct,"ax",%progbits
 661              		.align	2
 662              		.global	Cy_Prot_DisableSmpuMasterStruct
 663              		.code	16
 664              		.thumb_func
ARM GAS  C:\Users\kiwamu\AppData\Local\Temp\ccj1MWYe.s 			page 20


 665              		.type	Cy_Prot_DisableSmpuMasterStruct, %function
 666              	Cy_Prot_DisableSmpuMasterStruct:
 667              	.LFB43:
 409:Generated_Source\PSoC6\pdl\drivers\peripheral\prot/cy_prot.c **** 
 410:Generated_Source\PSoC6\pdl\drivers\peripheral\prot/cy_prot.c **** 
 411:Generated_Source\PSoC6\pdl\drivers\peripheral\prot/cy_prot.c **** /*******************************************************************************
 412:Generated_Source\PSoC6\pdl\drivers\peripheral\prot/cy_prot.c **** * Function Name: Cy_Prot_DisableSmpuMasterStruct
 413:Generated_Source\PSoC6\pdl\drivers\peripheral\prot/cy_prot.c **** ****************************************************************************//**
 414:Generated_Source\PSoC6\pdl\drivers\peripheral\prot/cy_prot.c **** *
 415:Generated_Source\PSoC6\pdl\drivers\peripheral\prot/cy_prot.c **** * \brief Disables the Master SMPU structure.
 416:Generated_Source\PSoC6\pdl\drivers\peripheral\prot/cy_prot.c **** *
 417:Generated_Source\PSoC6\pdl\drivers\peripheral\prot/cy_prot.c **** * This is an SMPU master struct disable function. The SMPU protection settings
 418:Generated_Source\PSoC6\pdl\drivers\peripheral\prot/cy_prot.c **** * will seize to take effect after successful completion of this function call.
 419:Generated_Source\PSoC6\pdl\drivers\peripheral\prot/cy_prot.c **** *
 420:Generated_Source\PSoC6\pdl\drivers\peripheral\prot/cy_prot.c **** * \param base
 421:Generated_Source\PSoC6\pdl\drivers\peripheral\prot/cy_prot.c **** * The base address for the protection unit structure being configured. 
 422:Generated_Source\PSoC6\pdl\drivers\peripheral\prot/cy_prot.c **** *
 423:Generated_Source\PSoC6\pdl\drivers\peripheral\prot/cy_prot.c **** * \return
 424:Generated_Source\PSoC6\pdl\drivers\peripheral\prot/cy_prot.c **** * Status of the function call.
 425:Generated_Source\PSoC6\pdl\drivers\peripheral\prot/cy_prot.c **** *
 426:Generated_Source\PSoC6\pdl\drivers\peripheral\prot/cy_prot.c **** *   Status               | Description
 427:Generated_Source\PSoC6\pdl\drivers\peripheral\prot/cy_prot.c **** *   ------------         | -----------
 428:Generated_Source\PSoC6\pdl\drivers\peripheral\prot/cy_prot.c **** *   CY_PROT_SUCCESS      | The Master PU struct was disabled
 429:Generated_Source\PSoC6\pdl\drivers\peripheral\prot/cy_prot.c **** *   CY_PROT_FAILURE      | The Master PU struct is enabled and possibly locked
 430:Generated_Source\PSoC6\pdl\drivers\peripheral\prot/cy_prot.c **** *  
 431:Generated_Source\PSoC6\pdl\drivers\peripheral\prot/cy_prot.c **** *******************************************************************************/
 432:Generated_Source\PSoC6\pdl\drivers\peripheral\prot/cy_prot.c **** cy_en_prot_status_t Cy_Prot_DisableSmpuMasterStruct(PROT_SMPU_SMPU_STRUCT_Type* base)
 433:Generated_Source\PSoC6\pdl\drivers\peripheral\prot/cy_prot.c **** {
 668              		.loc 1 433 0
 669              		.cfi_startproc
 670              		@ args = 0, pretend = 0, frame = 0
 671              		@ frame_needed = 0, uses_anonymous_args = 0
 672              		@ link register save eliminated.
 673              	.LVL70:
 434:Generated_Source\PSoC6\pdl\drivers\peripheral\prot/cy_prot.c ****     cy_en_prot_status_t status = CY_PROT_SUCCESS;
 435:Generated_Source\PSoC6\pdl\drivers\peripheral\prot/cy_prot.c ****     
 436:Generated_Source\PSoC6\pdl\drivers\peripheral\prot/cy_prot.c ****     base->ATT1 &= ~_VAL2FLD(PROT_SMPU_SMPU_STRUCT_ATT1_ENABLED, CY_PROT_STRUCT_ENABLE);
 674              		.loc 1 436 0
 675 0000 436A     		ldr	r3, [r0, #36]
 676 0002 5B00     		lsls	r3, r3, #1
 677 0004 5B08     		lsrs	r3, r3, #1
 678 0006 4362     		str	r3, [r0, #36]
 437:Generated_Source\PSoC6\pdl\drivers\peripheral\prot/cy_prot.c ****     status = (_FLD2VAL(PROT_SMPU_SMPU_STRUCT_ATT1_ENABLED, base->ATT1) == CY_PROT_STRUCT_ENABLE) ?
 679              		.loc 1 437 0
 680 0008 436A     		ldr	r3, [r0, #36]
 681 000a 002B     		cmp	r3, #0
 682 000c 01DA     		bge	.L52
 683 000e 0248     		ldr	r0, .L53
 684              	.LVL71:
 685 0010 00E0     		b	.L51
 686              	.LVL72:
 687              	.L52:
 688 0012 0020     		movs	r0, #0
 689              	.LVL73:
 690              	.L51:
 438:Generated_Source\PSoC6\pdl\drivers\peripheral\prot/cy_prot.c ****                 CY_PROT_FAILURE : CY_PROT_SUCCESS;
 439:Generated_Source\PSoC6\pdl\drivers\peripheral\prot/cy_prot.c ****     
ARM GAS  C:\Users\kiwamu\AppData\Local\Temp\ccj1MWYe.s 			page 21


 440:Generated_Source\PSoC6\pdl\drivers\peripheral\prot/cy_prot.c ****     return status;
 441:Generated_Source\PSoC6\pdl\drivers\peripheral\prot/cy_prot.c **** }
 691              		.loc 1 441 0 discriminator 4
 692              		@ sp needed
 693 0014 7047     		bx	lr
 694              	.L54:
 695 0016 C046     		.align	2
 696              	.L53:
 697 0018 0300C200 		.word	12713987
 698              		.cfi_endproc
 699              	.LFE43:
 700              		.size	Cy_Prot_DisableSmpuMasterStruct, .-Cy_Prot_DisableSmpuMasterStruct
 701              		.section	.text.Cy_Prot_EnableSmpuSlaveStruct,"ax",%progbits
 702              		.align	2
 703              		.global	Cy_Prot_EnableSmpuSlaveStruct
 704              		.code	16
 705              		.thumb_func
 706              		.type	Cy_Prot_EnableSmpuSlaveStruct, %function
 707              	Cy_Prot_EnableSmpuSlaveStruct:
 708              	.LFB44:
 442:Generated_Source\PSoC6\pdl\drivers\peripheral\prot/cy_prot.c **** 
 443:Generated_Source\PSoC6\pdl\drivers\peripheral\prot/cy_prot.c **** 
 444:Generated_Source\PSoC6\pdl\drivers\peripheral\prot/cy_prot.c **** /*******************************************************************************
 445:Generated_Source\PSoC6\pdl\drivers\peripheral\prot/cy_prot.c **** * Function Name: Cy_Prot_EnableSmpuSlaveStruct
 446:Generated_Source\PSoC6\pdl\drivers\peripheral\prot/cy_prot.c **** ****************************************************************************//**
 447:Generated_Source\PSoC6\pdl\drivers\peripheral\prot/cy_prot.c **** *
 448:Generated_Source\PSoC6\pdl\drivers\peripheral\prot/cy_prot.c **** * \brief Enables the Slave SMPU structure.
 449:Generated_Source\PSoC6\pdl\drivers\peripheral\prot/cy_prot.c **** *
 450:Generated_Source\PSoC6\pdl\drivers\peripheral\prot/cy_prot.c **** * This is an SMPU slave struct enable function. The SMPU protection settings
 451:Generated_Source\PSoC6\pdl\drivers\peripheral\prot/cy_prot.c **** * will take effect after successful completion of this function call.
 452:Generated_Source\PSoC6\pdl\drivers\peripheral\prot/cy_prot.c **** *
 453:Generated_Source\PSoC6\pdl\drivers\peripheral\prot/cy_prot.c **** * \param base
 454:Generated_Source\PSoC6\pdl\drivers\peripheral\prot/cy_prot.c **** * The base address for the protection unit structure being configured. 
 455:Generated_Source\PSoC6\pdl\drivers\peripheral\prot/cy_prot.c **** *
 456:Generated_Source\PSoC6\pdl\drivers\peripheral\prot/cy_prot.c **** * \return
 457:Generated_Source\PSoC6\pdl\drivers\peripheral\prot/cy_prot.c **** * Status of the function call.
 458:Generated_Source\PSoC6\pdl\drivers\peripheral\prot/cy_prot.c **** *
 459:Generated_Source\PSoC6\pdl\drivers\peripheral\prot/cy_prot.c **** *   Status               | Description
 460:Generated_Source\PSoC6\pdl\drivers\peripheral\prot/cy_prot.c **** *   ------------         | -----------
 461:Generated_Source\PSoC6\pdl\drivers\peripheral\prot/cy_prot.c **** *   CY_PROT_SUCCESS      | The Slave PU struct was enabled
 462:Generated_Source\PSoC6\pdl\drivers\peripheral\prot/cy_prot.c **** *   CY_PROT_FAILURE      | The Slave PU struct is disabled and possibly locked
 463:Generated_Source\PSoC6\pdl\drivers\peripheral\prot/cy_prot.c **** *  
 464:Generated_Source\PSoC6\pdl\drivers\peripheral\prot/cy_prot.c **** *******************************************************************************/
 465:Generated_Source\PSoC6\pdl\drivers\peripheral\prot/cy_prot.c **** cy_en_prot_status_t Cy_Prot_EnableSmpuSlaveStruct(PROT_SMPU_SMPU_STRUCT_Type* base)
 466:Generated_Source\PSoC6\pdl\drivers\peripheral\prot/cy_prot.c **** {   
 709              		.loc 1 466 0
 710              		.cfi_startproc
 711              		@ args = 0, pretend = 0, frame = 0
 712              		@ frame_needed = 0, uses_anonymous_args = 0
 713              		@ link register save eliminated.
 714              	.LVL74:
 467:Generated_Source\PSoC6\pdl\drivers\peripheral\prot/cy_prot.c ****     cy_en_prot_status_t status = CY_PROT_SUCCESS;
 468:Generated_Source\PSoC6\pdl\drivers\peripheral\prot/cy_prot.c ****     
 469:Generated_Source\PSoC6\pdl\drivers\peripheral\prot/cy_prot.c ****     base->ATT0 |= _VAL2FLD(PROT_SMPU_SMPU_STRUCT_ATT0_ENABLED, CY_PROT_STRUCT_ENABLE);
 715              		.loc 1 469 0
 716 0000 4368     		ldr	r3, [r0, #4]
 717 0002 8022     		movs	r2, #128
ARM GAS  C:\Users\kiwamu\AppData\Local\Temp\ccj1MWYe.s 			page 22


 718 0004 1206     		lsls	r2, r2, #24
 719 0006 1343     		orrs	r3, r2
 720 0008 4360     		str	r3, [r0, #4]
 470:Generated_Source\PSoC6\pdl\drivers\peripheral\prot/cy_prot.c ****     status = (_FLD2VAL(PROT_SMPU_SMPU_STRUCT_ATT0_ENABLED, base->ATT0) != CY_PROT_STRUCT_ENABLE) ?
 721              		.loc 1 470 0
 722 000a 4368     		ldr	r3, [r0, #4]
 723 000c 002B     		cmp	r3, #0
 724 000e 01DB     		blt	.L57
 725 0010 0148     		ldr	r0, .L58
 726              	.LVL75:
 727 0012 00E0     		b	.L56
 728              	.LVL76:
 729              	.L57:
 730 0014 0020     		movs	r0, #0
 731              	.LVL77:
 732              	.L56:
 471:Generated_Source\PSoC6\pdl\drivers\peripheral\prot/cy_prot.c ****                 CY_PROT_FAILURE : CY_PROT_SUCCESS;
 472:Generated_Source\PSoC6\pdl\drivers\peripheral\prot/cy_prot.c ****     
 473:Generated_Source\PSoC6\pdl\drivers\peripheral\prot/cy_prot.c ****     return status;
 474:Generated_Source\PSoC6\pdl\drivers\peripheral\prot/cy_prot.c **** }
 733              		.loc 1 474 0 discriminator 4
 734              		@ sp needed
 735 0016 7047     		bx	lr
 736              	.L59:
 737              		.align	2
 738              	.L58:
 739 0018 0300C200 		.word	12713987
 740              		.cfi_endproc
 741              	.LFE44:
 742              		.size	Cy_Prot_EnableSmpuSlaveStruct, .-Cy_Prot_EnableSmpuSlaveStruct
 743              		.section	.text.Cy_Prot_DisableSmpuSlaveStruct,"ax",%progbits
 744              		.align	2
 745              		.global	Cy_Prot_DisableSmpuSlaveStruct
 746              		.code	16
 747              		.thumb_func
 748              		.type	Cy_Prot_DisableSmpuSlaveStruct, %function
 749              	Cy_Prot_DisableSmpuSlaveStruct:
 750              	.LFB45:
 475:Generated_Source\PSoC6\pdl\drivers\peripheral\prot/cy_prot.c **** 
 476:Generated_Source\PSoC6\pdl\drivers\peripheral\prot/cy_prot.c **** 
 477:Generated_Source\PSoC6\pdl\drivers\peripheral\prot/cy_prot.c **** /*******************************************************************************
 478:Generated_Source\PSoC6\pdl\drivers\peripheral\prot/cy_prot.c **** * Function Name: Cy_Prot_DisableSmpuSlaveStruct
 479:Generated_Source\PSoC6\pdl\drivers\peripheral\prot/cy_prot.c **** ****************************************************************************//**
 480:Generated_Source\PSoC6\pdl\drivers\peripheral\prot/cy_prot.c **** *
 481:Generated_Source\PSoC6\pdl\drivers\peripheral\prot/cy_prot.c **** * \brief Disables the Slave SMPU structure.
 482:Generated_Source\PSoC6\pdl\drivers\peripheral\prot/cy_prot.c **** *
 483:Generated_Source\PSoC6\pdl\drivers\peripheral\prot/cy_prot.c **** * This is an SMPU slave struct disable function. The SMPU protection settings
 484:Generated_Source\PSoC6\pdl\drivers\peripheral\prot/cy_prot.c **** * will seize to take effect after successful completion of this function call.
 485:Generated_Source\PSoC6\pdl\drivers\peripheral\prot/cy_prot.c **** *
 486:Generated_Source\PSoC6\pdl\drivers\peripheral\prot/cy_prot.c **** * \param base
 487:Generated_Source\PSoC6\pdl\drivers\peripheral\prot/cy_prot.c **** * The base address for the protection unit structure being configured. 
 488:Generated_Source\PSoC6\pdl\drivers\peripheral\prot/cy_prot.c **** *
 489:Generated_Source\PSoC6\pdl\drivers\peripheral\prot/cy_prot.c **** * \return
 490:Generated_Source\PSoC6\pdl\drivers\peripheral\prot/cy_prot.c **** * Status of the function call.
 491:Generated_Source\PSoC6\pdl\drivers\peripheral\prot/cy_prot.c **** *
 492:Generated_Source\PSoC6\pdl\drivers\peripheral\prot/cy_prot.c **** *   Status               | Description
 493:Generated_Source\PSoC6\pdl\drivers\peripheral\prot/cy_prot.c **** *   ------------         | -----------
ARM GAS  C:\Users\kiwamu\AppData\Local\Temp\ccj1MWYe.s 			page 23


 494:Generated_Source\PSoC6\pdl\drivers\peripheral\prot/cy_prot.c **** *   CY_PROT_SUCCESS      | The Slave PU struct was disabled
 495:Generated_Source\PSoC6\pdl\drivers\peripheral\prot/cy_prot.c **** *   CY_PROT_FAILURE      | The Slave PU struct is enabled and possibly locked
 496:Generated_Source\PSoC6\pdl\drivers\peripheral\prot/cy_prot.c **** *  
 497:Generated_Source\PSoC6\pdl\drivers\peripheral\prot/cy_prot.c **** *******************************************************************************/
 498:Generated_Source\PSoC6\pdl\drivers\peripheral\prot/cy_prot.c **** cy_en_prot_status_t Cy_Prot_DisableSmpuSlaveStruct(PROT_SMPU_SMPU_STRUCT_Type* base)
 499:Generated_Source\PSoC6\pdl\drivers\peripheral\prot/cy_prot.c **** {
 751              		.loc 1 499 0
 752              		.cfi_startproc
 753              		@ args = 0, pretend = 0, frame = 0
 754              		@ frame_needed = 0, uses_anonymous_args = 0
 755              		@ link register save eliminated.
 756              	.LVL78:
 500:Generated_Source\PSoC6\pdl\drivers\peripheral\prot/cy_prot.c ****     cy_en_prot_status_t status = CY_PROT_SUCCESS;
 501:Generated_Source\PSoC6\pdl\drivers\peripheral\prot/cy_prot.c ****     
 502:Generated_Source\PSoC6\pdl\drivers\peripheral\prot/cy_prot.c ****     base->ATT0 &= ~_VAL2FLD(PROT_SMPU_SMPU_STRUCT_ATT0_ENABLED, CY_PROT_STRUCT_ENABLE);
 757              		.loc 1 502 0
 758 0000 4368     		ldr	r3, [r0, #4]
 759 0002 5B00     		lsls	r3, r3, #1
 760 0004 5B08     		lsrs	r3, r3, #1
 761 0006 4360     		str	r3, [r0, #4]
 503:Generated_Source\PSoC6\pdl\drivers\peripheral\prot/cy_prot.c ****     status = (_FLD2VAL(PROT_SMPU_SMPU_STRUCT_ATT0_ENABLED, base->ATT0) == CY_PROT_STRUCT_ENABLE) ?
 762              		.loc 1 503 0
 763 0008 4368     		ldr	r3, [r0, #4]
 764 000a 002B     		cmp	r3, #0
 765 000c 01DA     		bge	.L62
 766 000e 0248     		ldr	r0, .L63
 767              	.LVL79:
 768 0010 00E0     		b	.L61
 769              	.LVL80:
 770              	.L62:
 771 0012 0020     		movs	r0, #0
 772              	.LVL81:
 773              	.L61:
 504:Generated_Source\PSoC6\pdl\drivers\peripheral\prot/cy_prot.c ****                 CY_PROT_FAILURE : CY_PROT_SUCCESS;
 505:Generated_Source\PSoC6\pdl\drivers\peripheral\prot/cy_prot.c ****     
 506:Generated_Source\PSoC6\pdl\drivers\peripheral\prot/cy_prot.c ****     return status;
 507:Generated_Source\PSoC6\pdl\drivers\peripheral\prot/cy_prot.c **** }
 774              		.loc 1 507 0 discriminator 4
 775              		@ sp needed
 776 0014 7047     		bx	lr
 777              	.L64:
 778 0016 C046     		.align	2
 779              	.L63:
 780 0018 0300C200 		.word	12713987
 781              		.cfi_endproc
 782              	.LFE45:
 783              		.size	Cy_Prot_DisableSmpuSlaveStruct, .-Cy_Prot_DisableSmpuSlaveStruct
 784              		.section	.text.Cy_Prot_ConfigPpuProgMasterStruct,"ax",%progbits
 785              		.align	2
 786              		.global	Cy_Prot_ConfigPpuProgMasterStruct
 787              		.code	16
 788              		.thumb_func
 789              		.type	Cy_Prot_ConfigPpuProgMasterStruct, %function
 790              	Cy_Prot_ConfigPpuProgMasterStruct:
 791              	.LFB46:
 508:Generated_Source\PSoC6\pdl\drivers\peripheral\prot/cy_prot.c **** 
 509:Generated_Source\PSoC6\pdl\drivers\peripheral\prot/cy_prot.c **** 
ARM GAS  C:\Users\kiwamu\AppData\Local\Temp\ccj1MWYe.s 			page 24


 510:Generated_Source\PSoC6\pdl\drivers\peripheral\prot/cy_prot.c **** /*******************************************************************************
 511:Generated_Source\PSoC6\pdl\drivers\peripheral\prot/cy_prot.c **** * Function Name: Cy_Prot_ConfigPpuProgMasterStruct
 512:Generated_Source\PSoC6\pdl\drivers\peripheral\prot/cy_prot.c **** ****************************************************************************//**
 513:Generated_Source\PSoC6\pdl\drivers\peripheral\prot/cy_prot.c **** *
 514:Generated_Source\PSoC6\pdl\drivers\peripheral\prot/cy_prot.c **** * \brief Configures a Programmable Peripheral Protection Unit (PPU PROG) master 
 515:Generated_Source\PSoC6\pdl\drivers\peripheral\prot/cy_prot.c **** * protection struct with its protection attributes. 
 516:Generated_Source\PSoC6\pdl\drivers\peripheral\prot/cy_prot.c **** *
 517:Generated_Source\PSoC6\pdl\drivers\peripheral\prot/cy_prot.c **** * This function configures the master struct governing the corresponding slave
 518:Generated_Source\PSoC6\pdl\drivers\peripheral\prot/cy_prot.c **** * struct pair. It is a mechanism to protect the slave PPU PROG struct. Since
 519:Generated_Source\PSoC6\pdl\drivers\peripheral\prot/cy_prot.c **** * the memory location of the slave struct is known, the address, regionSize and
 520:Generated_Source\PSoC6\pdl\drivers\peripheral\prot/cy_prot.c **** * subregions of the configuration struct are not applicable.
 521:Generated_Source\PSoC6\pdl\drivers\peripheral\prot/cy_prot.c **** *
 522:Generated_Source\PSoC6\pdl\drivers\peripheral\prot/cy_prot.c **** * Note that only the user/privileged write permissions are configurable. The 
 523:Generated_Source\PSoC6\pdl\drivers\peripheral\prot/cy_prot.c **** * read and execute permissions are read-only and cannot be configured.
 524:Generated_Source\PSoC6\pdl\drivers\peripheral\prot/cy_prot.c **** *
 525:Generated_Source\PSoC6\pdl\drivers\peripheral\prot/cy_prot.c **** * \param base
 526:Generated_Source\PSoC6\pdl\drivers\peripheral\prot/cy_prot.c **** * The register base address of the protection struct being configured.
 527:Generated_Source\PSoC6\pdl\drivers\peripheral\prot/cy_prot.c **** * 
 528:Generated_Source\PSoC6\pdl\drivers\peripheral\prot/cy_prot.c **** * \param config
 529:Generated_Source\PSoC6\pdl\drivers\peripheral\prot/cy_prot.c **** * Initialization structure with all the protection attributes.
 530:Generated_Source\PSoC6\pdl\drivers\peripheral\prot/cy_prot.c **** * 
 531:Generated_Source\PSoC6\pdl\drivers\peripheral\prot/cy_prot.c **** * \return
 532:Generated_Source\PSoC6\pdl\drivers\peripheral\prot/cy_prot.c **** * Status of the function call.
 533:Generated_Source\PSoC6\pdl\drivers\peripheral\prot/cy_prot.c **** *
 534:Generated_Source\PSoC6\pdl\drivers\peripheral\prot/cy_prot.c **** *   Status               | Description
 535:Generated_Source\PSoC6\pdl\drivers\peripheral\prot/cy_prot.c **** *   ------------         | -----------
 536:Generated_Source\PSoC6\pdl\drivers\peripheral\prot/cy_prot.c **** *   CY_PROT_SUCCESS      | PPU PROG master struct was successfully configured
 537:Generated_Source\PSoC6\pdl\drivers\peripheral\prot/cy_prot.c **** *   CY_PROT_FAILURE      | The resource is locked
 538:Generated_Source\PSoC6\pdl\drivers\peripheral\prot/cy_prot.c **** *   CY_PROT_BAD_PARAM    | An incorrect/invalid parameter was passed
 539:Generated_Source\PSoC6\pdl\drivers\peripheral\prot/cy_prot.c **** *  
 540:Generated_Source\PSoC6\pdl\drivers\peripheral\prot/cy_prot.c **** *******************************************************************************/
 541:Generated_Source\PSoC6\pdl\drivers\peripheral\prot/cy_prot.c **** cy_en_prot_status_t Cy_Prot_ConfigPpuProgMasterStruct(PERI_PPU_PR_Type* base, const cy_stc_ppu_prog
 542:Generated_Source\PSoC6\pdl\drivers\peripheral\prot/cy_prot.c **** {
 792              		.loc 1 542 0
 793              		.cfi_startproc
 794              		@ args = 0, pretend = 0, frame = 0
 795              		@ frame_needed = 0, uses_anonymous_args = 0
 796              	.LVL82:
 797 0000 70B5     		push	{r4, r5, r6, lr}
 798              		.cfi_def_cfa_offset 16
 799              		.cfi_offset 4, -16
 800              		.cfi_offset 5, -12
 801              		.cfi_offset 6, -8
 802              		.cfi_offset 14, -4
 803              	.LVL83:
 543:Generated_Source\PSoC6\pdl\drivers\peripheral\prot/cy_prot.c ****     cy_en_prot_status_t status = CY_PROT_SUCCESS;
 544:Generated_Source\PSoC6\pdl\drivers\peripheral\prot/cy_prot.c ****     uint32_t attReg;
 545:Generated_Source\PSoC6\pdl\drivers\peripheral\prot/cy_prot.c ****     
 546:Generated_Source\PSoC6\pdl\drivers\peripheral\prot/cy_prot.c ****     if(((uint32_t)config->pcMask & CY_PROT_PPU_PROG_PC_LIMIT_MASK) != 0UL) 
 804              		.loc 1 546 0
 805 0002 4C89     		ldrh	r4, [r1, #10]
 806 0004 7F23     		movs	r3, #127
 807 0006 2200     		movs	r2, r4
 808 0008 9A43     		bics	r2, r3
 809 000a 28D1     		bne	.L67
 547:Generated_Source\PSoC6\pdl\drivers\peripheral\prot/cy_prot.c ****     {
 548:Generated_Source\PSoC6\pdl\drivers\peripheral\prot/cy_prot.c ****         /* PC mask out of range - not supported in device */
ARM GAS  C:\Users\kiwamu\AppData\Local\Temp\ccj1MWYe.s 			page 25


 549:Generated_Source\PSoC6\pdl\drivers\peripheral\prot/cy_prot.c ****         status = CY_PROT_BAD_PARAM;
 550:Generated_Source\PSoC6\pdl\drivers\peripheral\prot/cy_prot.c ****     }
 551:Generated_Source\PSoC6\pdl\drivers\peripheral\prot/cy_prot.c ****     else
 552:Generated_Source\PSoC6\pdl\drivers\peripheral\prot/cy_prot.c ****     {
 553:Generated_Source\PSoC6\pdl\drivers\peripheral\prot/cy_prot.c ****         /* ADDR1 is read only. Only configure ATT1 */
 554:Generated_Source\PSoC6\pdl\drivers\peripheral\prot/cy_prot.c ****         attReg = ((uint32_t)config->userPermission & CY_PROT_ATT_PERMISSION_MASK)
 810              		.loc 1 554 0
 811 000c 8B79     		ldrb	r3, [r1, #6]
 812 000e 0725     		movs	r5, #7
 813 0010 1D40     		ands	r5, r3
 555:Generated_Source\PSoC6\pdl\drivers\peripheral\prot/cy_prot.c ****                     | (uint32_t)(((uint32_t)config->privPermission & CY_PROT_ATT_PERMISSION_MASK) <
 814              		.loc 1 555 0
 815 0012 CA79     		ldrb	r2, [r1, #7]
 816 0014 D200     		lsls	r2, r2, #3
 817 0016 3823     		movs	r3, #56
 818 0018 1340     		ands	r3, r2
 819 001a 1D43     		orrs	r5, r3
 556:Generated_Source\PSoC6\pdl\drivers\peripheral\prot/cy_prot.c ****                     | _VAL2FLD(PERI_PPU_PR_ATT1_NS, !(config->secure))
 820              		.loc 1 556 0
 821 001c 0B7A     		ldrb	r3, [r1, #8]
 822 001e 0122     		movs	r2, #1
 823 0020 5A40     		eors	r2, r3
 824 0022 D2B2     		uxtb	r2, r2
 825 0024 9201     		lsls	r2, r2, #6
 826 0026 4023     		movs	r3, #64
 827 0028 1A40     		ands	r2, r3
 828 002a 2B00     		movs	r3, r5
 829 002c 1343     		orrs	r3, r2
 557:Generated_Source\PSoC6\pdl\drivers\peripheral\prot/cy_prot.c ****                     | _VAL2FLD(PERI_PPU_PR_ATT1_PC_MASK_15_TO_1, config->pcMask)
 830              		.loc 1 557 0
 831 002e 6402     		lsls	r4, r4, #9
 832 0030 0E4A     		ldr	r2, .L70
 833 0032 1440     		ands	r4, r2
 834 0034 1C43     		orrs	r4, r3
 558:Generated_Source\PSoC6\pdl\drivers\peripheral\prot/cy_prot.c ****                     /* No region size - read only for master structs */
 559:Generated_Source\PSoC6\pdl\drivers\peripheral\prot/cy_prot.c ****                     | _VAL2FLD(PERI_PPU_PR_ATT1_PC_MATCH, config->pcMatch);
 835              		.loc 1 559 0
 836 0036 4B7A     		ldrb	r3, [r1, #9]
 837 0038 9B07     		lsls	r3, r3, #30
 838 003a 8021     		movs	r1, #128
 839              	.LVL84:
 840 003c C905     		lsls	r1, r1, #23
 841 003e 0B40     		ands	r3, r1
 842 0040 1A00     		movs	r2, r3
 554:Generated_Source\PSoC6\pdl\drivers\peripheral\prot/cy_prot.c ****                     | (uint32_t)(((uint32_t)config->privPermission & CY_PROT_ATT_PERMISSION_MASK) <
 843              		.loc 1 554 0
 844 0042 2300     		movs	r3, r4
 845 0044 1343     		orrs	r3, r2
 846              	.LVL85:
 560:Generated_Source\PSoC6\pdl\drivers\peripheral\prot/cy_prot.c ****         if ((attReg & CY_PROT_PPU_PROG_ATT1_MASK) != attReg)
 847              		.loc 1 560 0
 848 0046 0A4A     		ldr	r2, .L70+4
 849 0048 1A40     		ands	r2, r3
 850 004a 9342     		cmp	r3, r2
 851 004c 09D1     		bne	.L68
 561:Generated_Source\PSoC6\pdl\drivers\peripheral\prot/cy_prot.c ****         {
 562:Generated_Source\PSoC6\pdl\drivers\peripheral\prot/cy_prot.c ****             /* Invalid parameter was passed */
ARM GAS  C:\Users\kiwamu\AppData\Local\Temp\ccj1MWYe.s 			page 26


 563:Generated_Source\PSoC6\pdl\drivers\peripheral\prot/cy_prot.c ****             status = CY_PROT_BAD_PARAM;
 564:Generated_Source\PSoC6\pdl\drivers\peripheral\prot/cy_prot.c ****         }
 565:Generated_Source\PSoC6\pdl\drivers\peripheral\prot/cy_prot.c ****         else
 566:Generated_Source\PSoC6\pdl\drivers\peripheral\prot/cy_prot.c ****         {
 567:Generated_Source\PSoC6\pdl\drivers\peripheral\prot/cy_prot.c ****             base->ATT1 = attReg;
 852              		.loc 1 567 0
 853 004e 4362     		str	r3, [r0, #36]
 568:Generated_Source\PSoC6\pdl\drivers\peripheral\prot/cy_prot.c ****             status = ((base->ATT1 & CY_PROT_PPU_PROG_ATT1_MASK) != attReg) ? CY_PROT_FAILURE : CY_P
 854              		.loc 1 568 0
 855 0050 416A     		ldr	r1, [r0, #36]
 856 0052 074A     		ldr	r2, .L70+4
 857 0054 0A40     		ands	r2, r1
 858 0056 9342     		cmp	r3, r2
 859 0058 05D0     		beq	.L69
 860 005a 0648     		ldr	r0, .L70+8
 861              	.LVL86:
 862 005c 04E0     		b	.L66
 863              	.LVL87:
 864              	.L67:
 549:Generated_Source\PSoC6\pdl\drivers\peripheral\prot/cy_prot.c ****     }
 865              		.loc 1 549 0
 866 005e 0648     		ldr	r0, .L70+12
 867              	.LVL88:
 868 0060 02E0     		b	.L66
 869              	.LVL89:
 870              	.L68:
 563:Generated_Source\PSoC6\pdl\drivers\peripheral\prot/cy_prot.c ****         }
 871              		.loc 1 563 0
 872 0062 0548     		ldr	r0, .L70+12
 873              	.LVL90:
 874 0064 00E0     		b	.L66
 875              	.LVL91:
 876              	.L69:
 877              		.loc 1 568 0
 878 0066 0020     		movs	r0, #0
 879              	.LVL92:
 880              	.L66:
 569:Generated_Source\PSoC6\pdl\drivers\peripheral\prot/cy_prot.c ****         }
 570:Generated_Source\PSoC6\pdl\drivers\peripheral\prot/cy_prot.c ****     }
 571:Generated_Source\PSoC6\pdl\drivers\peripheral\prot/cy_prot.c **** 
 572:Generated_Source\PSoC6\pdl\drivers\peripheral\prot/cy_prot.c ****     return status;
 573:Generated_Source\PSoC6\pdl\drivers\peripheral\prot/cy_prot.c **** }
 881              		.loc 1 573 0
 882              		@ sp needed
 883 0068 70BD     		pop	{r4, r5, r6, pc}
 884              	.L71:
 885 006a C046     		.align	2
 886              	.L70:
 887 006c 00FEFF00 		.word	16776704
 888 0070 D2FEFFE0 		.word	-520093998
 889 0074 0300C200 		.word	12713987
 890 0078 0100C200 		.word	12713985
 891              		.cfi_endproc
 892              	.LFE46:
 893              		.size	Cy_Prot_ConfigPpuProgMasterStruct, .-Cy_Prot_ConfigPpuProgMasterStruct
 894              		.section	.text.Cy_Prot_ConfigPpuProgSlaveStruct,"ax",%progbits
 895              		.align	2
ARM GAS  C:\Users\kiwamu\AppData\Local\Temp\ccj1MWYe.s 			page 27


 896              		.global	Cy_Prot_ConfigPpuProgSlaveStruct
 897              		.code	16
 898              		.thumb_func
 899              		.type	Cy_Prot_ConfigPpuProgSlaveStruct, %function
 900              	Cy_Prot_ConfigPpuProgSlaveStruct:
 901              	.LFB47:
 574:Generated_Source\PSoC6\pdl\drivers\peripheral\prot/cy_prot.c **** 
 575:Generated_Source\PSoC6\pdl\drivers\peripheral\prot/cy_prot.c **** /*******************************************************************************
 576:Generated_Source\PSoC6\pdl\drivers\peripheral\prot/cy_prot.c **** * Function Name: Cy_Prot_ConfigPpuProgSlaveStruct
 577:Generated_Source\PSoC6\pdl\drivers\peripheral\prot/cy_prot.c **** ****************************************************************************//**
 578:Generated_Source\PSoC6\pdl\drivers\peripheral\prot/cy_prot.c **** *
 579:Generated_Source\PSoC6\pdl\drivers\peripheral\prot/cy_prot.c **** * \brief Configures a Programmable Peripheral Protection Unit (PPU PROG) slave
 580:Generated_Source\PSoC6\pdl\drivers\peripheral\prot/cy_prot.c **** * protection struct with its protection attributes. 
 581:Generated_Source\PSoC6\pdl\drivers\peripheral\prot/cy_prot.c **** * 
 582:Generated_Source\PSoC6\pdl\drivers\peripheral\prot/cy_prot.c **** * This function configures the slave struct of a PPU PROG pair, which can 
 583:Generated_Source\PSoC6\pdl\drivers\peripheral\prot/cy_prot.c **** * protect any peripheral memory region in a device from invalid bus master 
 584:Generated_Source\PSoC6\pdl\drivers\peripheral\prot/cy_prot.c **** * accesses.
 585:Generated_Source\PSoC6\pdl\drivers\peripheral\prot/cy_prot.c **** *
 586:Generated_Source\PSoC6\pdl\drivers\peripheral\prot/cy_prot.c **** * Note that the user/privileged execute accesses are read-only and are always 
 587:Generated_Source\PSoC6\pdl\drivers\peripheral\prot/cy_prot.c **** * enabled. 
 588:Generated_Source\PSoC6\pdl\drivers\peripheral\prot/cy_prot.c **** *
 589:Generated_Source\PSoC6\pdl\drivers\peripheral\prot/cy_prot.c **** * \param base
 590:Generated_Source\PSoC6\pdl\drivers\peripheral\prot/cy_prot.c **** * The register base address of the protection structure being configured.
 591:Generated_Source\PSoC6\pdl\drivers\peripheral\prot/cy_prot.c **** * 
 592:Generated_Source\PSoC6\pdl\drivers\peripheral\prot/cy_prot.c **** * \param config
 593:Generated_Source\PSoC6\pdl\drivers\peripheral\prot/cy_prot.c **** * Initialization structure with all the protection attributes.
 594:Generated_Source\PSoC6\pdl\drivers\peripheral\prot/cy_prot.c **** * 
 595:Generated_Source\PSoC6\pdl\drivers\peripheral\prot/cy_prot.c **** * \return
 596:Generated_Source\PSoC6\pdl\drivers\peripheral\prot/cy_prot.c **** * Status of the function call.
 597:Generated_Source\PSoC6\pdl\drivers\peripheral\prot/cy_prot.c **** *
 598:Generated_Source\PSoC6\pdl\drivers\peripheral\prot/cy_prot.c **** *   Status               | Description
 599:Generated_Source\PSoC6\pdl\drivers\peripheral\prot/cy_prot.c **** *   ------------         | -----------
 600:Generated_Source\PSoC6\pdl\drivers\peripheral\prot/cy_prot.c **** *   CY_PROT_SUCCESS      | PPU PROG slave struct was successfully configured
 601:Generated_Source\PSoC6\pdl\drivers\peripheral\prot/cy_prot.c **** *   CY_PROT_FAILURE      | The resource is locked
 602:Generated_Source\PSoC6\pdl\drivers\peripheral\prot/cy_prot.c **** *   CY_PROT_BAD_PARAM    | An incorrect/invalid parameter was passed
 603:Generated_Source\PSoC6\pdl\drivers\peripheral\prot/cy_prot.c **** *  
 604:Generated_Source\PSoC6\pdl\drivers\peripheral\prot/cy_prot.c **** *******************************************************************************/
 605:Generated_Source\PSoC6\pdl\drivers\peripheral\prot/cy_prot.c **** cy_en_prot_status_t Cy_Prot_ConfigPpuProgSlaveStruct(PERI_PPU_PR_Type* base, const cy_stc_ppu_prog_
 606:Generated_Source\PSoC6\pdl\drivers\peripheral\prot/cy_prot.c **** {
 902              		.loc 1 606 0
 903              		.cfi_startproc
 904              		@ args = 0, pretend = 0, frame = 0
 905              		@ frame_needed = 0, uses_anonymous_args = 0
 906              	.LVL93:
 907 0000 F0B5     		push	{r4, r5, r6, r7, lr}
 908              		.cfi_def_cfa_offset 20
 909              		.cfi_offset 4, -20
 910              		.cfi_offset 5, -16
 911              		.cfi_offset 6, -12
 912              		.cfi_offset 7, -8
 913              		.cfi_offset 14, -4
 914              	.LVL94:
 607:Generated_Source\PSoC6\pdl\drivers\peripheral\prot/cy_prot.c ****     cy_en_prot_status_t status = CY_PROT_SUCCESS;
 608:Generated_Source\PSoC6\pdl\drivers\peripheral\prot/cy_prot.c ****     uint32_t addrReg;
 609:Generated_Source\PSoC6\pdl\drivers\peripheral\prot/cy_prot.c ****     uint32_t attReg;
 610:Generated_Source\PSoC6\pdl\drivers\peripheral\prot/cy_prot.c ****     
 611:Generated_Source\PSoC6\pdl\drivers\peripheral\prot/cy_prot.c ****     if(((uint32_t)config->pcMask & CY_PROT_PPU_PROG_PC_LIMIT_MASK) != 0UL) 
ARM GAS  C:\Users\kiwamu\AppData\Local\Temp\ccj1MWYe.s 			page 28


 915              		.loc 1 611 0
 916 0002 4C89     		ldrh	r4, [r1, #10]
 917 0004 7F23     		movs	r3, #127
 918 0006 2200     		movs	r2, r4
 919 0008 9A43     		bics	r2, r3
 920 000a 131E     		subs	r3, r2, #0
 921 000c 39D1     		bne	.L74
 612:Generated_Source\PSoC6\pdl\drivers\peripheral\prot/cy_prot.c ****     {
 613:Generated_Source\PSoC6\pdl\drivers\peripheral\prot/cy_prot.c ****         /* PC mask out of range - not supported in device */
 614:Generated_Source\PSoC6\pdl\drivers\peripheral\prot/cy_prot.c ****         status = CY_PROT_BAD_PARAM;
 615:Generated_Source\PSoC6\pdl\drivers\peripheral\prot/cy_prot.c ****     }
 616:Generated_Source\PSoC6\pdl\drivers\peripheral\prot/cy_prot.c ****     else
 617:Generated_Source\PSoC6\pdl\drivers\peripheral\prot/cy_prot.c ****     {
 618:Generated_Source\PSoC6\pdl\drivers\peripheral\prot/cy_prot.c ****         addrReg= _VAL2FLD(PERI_PPU_PR_ADDR0_SUBREGION_DISABLE, config->subregions)
 922              		.loc 1 618 0
 923 000e 4E79     		ldrb	r6, [r1, #5]
 619:Generated_Source\PSoC6\pdl\drivers\peripheral\prot/cy_prot.c ****                     | _VAL2FLD(PERI_PPU_PR_ADDR0_ADDR24, (uint32_t)((uint32_t)config->address >> CY
 924              		.loc 1 619 0
 925 0010 FF33     		adds	r3, r3, #255
 926 0012 0A68     		ldr	r2, [r1]
 927 0014 9A43     		bics	r2, r3
 618:Generated_Source\PSoC6\pdl\drivers\peripheral\prot/cy_prot.c ****                     | _VAL2FLD(PERI_PPU_PR_ADDR0_ADDR24, (uint32_t)((uint32_t)config->address >> CY
 928              		.loc 1 618 0
 929 0016 1643     		orrs	r6, r2
 930              	.LVL95:
 620:Generated_Source\PSoC6\pdl\drivers\peripheral\prot/cy_prot.c ****         attReg= ((uint32_t)config->userPermission & CY_PROT_ATT_PERMISSION_MASK)
 931              		.loc 1 620 0
 932 0018 8B79     		ldrb	r3, [r1, #6]
 933 001a 0725     		movs	r5, #7
 934 001c 1D40     		ands	r5, r3
 621:Generated_Source\PSoC6\pdl\drivers\peripheral\prot/cy_prot.c ****                     | (uint32_t)(((uint32_t)config->privPermission & CY_PROT_ATT_PERMISSION_MASK) <
 935              		.loc 1 621 0
 936 001e CA79     		ldrb	r2, [r1, #7]
 937 0020 D200     		lsls	r2, r2, #3
 938 0022 3823     		movs	r3, #56
 939 0024 1340     		ands	r3, r2
 940 0026 1D43     		orrs	r5, r3
 622:Generated_Source\PSoC6\pdl\drivers\peripheral\prot/cy_prot.c ****                     | _VAL2FLD(PERI_PPU_PR_ATT0_NS, !(config->secure))
 941              		.loc 1 622 0
 942 0028 0B7A     		ldrb	r3, [r1, #8]
 943 002a 0122     		movs	r2, #1
 944 002c 5A40     		eors	r2, r3
 945 002e D2B2     		uxtb	r2, r2
 946 0030 9201     		lsls	r2, r2, #6
 947 0032 4023     		movs	r3, #64
 948 0034 1A40     		ands	r2, r3
 949 0036 2B00     		movs	r3, r5
 950 0038 1343     		orrs	r3, r2
 623:Generated_Source\PSoC6\pdl\drivers\peripheral\prot/cy_prot.c ****                     | _VAL2FLD(PERI_PPU_PR_ATT0_PC_MASK_15_TO_1, config->pcMask)
 951              		.loc 1 623 0
 952 003a 6402     		lsls	r4, r4, #9
 953 003c 154A     		ldr	r2, .L78
 954 003e 1440     		ands	r4, r2
 955 0040 2343     		orrs	r3, r4
 624:Generated_Source\PSoC6\pdl\drivers\peripheral\prot/cy_prot.c ****                     | _VAL2FLD(PERI_PPU_PR_ATT0_REGION_SIZE, config->regionSize)
 956              		.loc 1 624 0
 957 0042 0C79     		ldrb	r4, [r1, #4]
ARM GAS  C:\Users\kiwamu\AppData\Local\Temp\ccj1MWYe.s 			page 29


 958 0044 2406     		lsls	r4, r4, #24
 959 0046 F825     		movs	r5, #248
 960 0048 6D05     		lsls	r5, r5, #21
 961 004a 2200     		movs	r2, r4
 962 004c 2A40     		ands	r2, r5
 963 004e 1343     		orrs	r3, r2
 964 0050 1C00     		movs	r4, r3
 625:Generated_Source\PSoC6\pdl\drivers\peripheral\prot/cy_prot.c ****                     | _VAL2FLD(PERI_PPU_PR_ATT0_PC_MATCH, config->pcMatch);
 965              		.loc 1 625 0
 966 0052 4B7A     		ldrb	r3, [r1, #9]
 967 0054 9B07     		lsls	r3, r3, #30
 968 0056 8021     		movs	r1, #128
 969              	.LVL96:
 970 0058 C905     		lsls	r1, r1, #23
 971 005a 0B40     		ands	r3, r1
 972 005c 1A00     		movs	r2, r3
 620:Generated_Source\PSoC6\pdl\drivers\peripheral\prot/cy_prot.c ****                     | (uint32_t)(((uint32_t)config->privPermission & CY_PROT_ATT_PERMISSION_MASK) <
 973              		.loc 1 620 0
 974 005e 2300     		movs	r3, r4
 975 0060 1343     		orrs	r3, r2
 976              	.LVL97:
 626:Generated_Source\PSoC6\pdl\drivers\peripheral\prot/cy_prot.c ****         if ((attReg & CY_PROT_PPU_PROG_ATT0_MASK) != attReg)
 977              		.loc 1 626 0
 978 0062 0D4A     		ldr	r2, .L78+4
 979 0064 1A40     		ands	r2, r3
 980 0066 9342     		cmp	r3, r2
 981 0068 0DD1     		bne	.L75
 627:Generated_Source\PSoC6\pdl\drivers\peripheral\prot/cy_prot.c ****         {
 628:Generated_Source\PSoC6\pdl\drivers\peripheral\prot/cy_prot.c ****             /* Invalid parameter was passed */
 629:Generated_Source\PSoC6\pdl\drivers\peripheral\prot/cy_prot.c ****             status = CY_PROT_BAD_PARAM;
 630:Generated_Source\PSoC6\pdl\drivers\peripheral\prot/cy_prot.c ****         }
 631:Generated_Source\PSoC6\pdl\drivers\peripheral\prot/cy_prot.c ****         else
 632:Generated_Source\PSoC6\pdl\drivers\peripheral\prot/cy_prot.c ****         {
 633:Generated_Source\PSoC6\pdl\drivers\peripheral\prot/cy_prot.c ****             base->ATT0 = attReg;
 982              		.loc 1 633 0
 983 006a 4360     		str	r3, [r0, #4]
 634:Generated_Source\PSoC6\pdl\drivers\peripheral\prot/cy_prot.c ****             base->ADDR0 = addrReg;
 984              		.loc 1 634 0
 985 006c 0660     		str	r6, [r0]
 635:Generated_Source\PSoC6\pdl\drivers\peripheral\prot/cy_prot.c ****             status = ((base->ADDR0 != addrReg) || ((base->ATT0 & CY_PROT_PPU_PROG_ATT0_MASK) != att
 986              		.loc 1 635 0
 987 006e 0268     		ldr	r2, [r0]
 988 0070 9642     		cmp	r6, r2
 989 0072 0AD1     		bne	.L76
 990              		.loc 1 635 0 is_stmt 0 discriminator 2
 991 0074 4168     		ldr	r1, [r0, #4]
 992 0076 084A     		ldr	r2, .L78+4
 993 0078 0A40     		ands	r2, r1
 994 007a 9342     		cmp	r3, r2
 995 007c 07D0     		beq	.L77
 996              		.loc 1 635 0
 997 007e 0748     		ldr	r0, .L78+8
 998              	.LVL98:
 999 0080 06E0     		b	.L73
 1000              	.LVL99:
 1001              	.L74:
 614:Generated_Source\PSoC6\pdl\drivers\peripheral\prot/cy_prot.c ****     }
ARM GAS  C:\Users\kiwamu\AppData\Local\Temp\ccj1MWYe.s 			page 30


 1002              		.loc 1 614 0 is_stmt 1
 1003 0082 0748     		ldr	r0, .L78+12
 1004              	.LVL100:
 1005 0084 04E0     		b	.L73
 1006              	.LVL101:
 1007              	.L75:
 629:Generated_Source\PSoC6\pdl\drivers\peripheral\prot/cy_prot.c ****         }
 1008              		.loc 1 629 0
 1009 0086 0648     		ldr	r0, .L78+12
 1010              	.LVL102:
 1011 0088 02E0     		b	.L73
 1012              	.LVL103:
 1013              	.L76:
 1014              		.loc 1 635 0
 1015 008a 0448     		ldr	r0, .L78+8
 1016              	.LVL104:
 1017 008c 00E0     		b	.L73
 1018              	.LVL105:
 1019              	.L77:
 1020 008e 0020     		movs	r0, #0
 1021              	.LVL106:
 1022              	.L73:
 636:Generated_Source\PSoC6\pdl\drivers\peripheral\prot/cy_prot.c ****                         ? CY_PROT_FAILURE : CY_PROT_SUCCESS;
 637:Generated_Source\PSoC6\pdl\drivers\peripheral\prot/cy_prot.c ****         }
 638:Generated_Source\PSoC6\pdl\drivers\peripheral\prot/cy_prot.c ****     }
 639:Generated_Source\PSoC6\pdl\drivers\peripheral\prot/cy_prot.c ****     
 640:Generated_Source\PSoC6\pdl\drivers\peripheral\prot/cy_prot.c ****     return status;
 641:Generated_Source\PSoC6\pdl\drivers\peripheral\prot/cy_prot.c **** }
 1023              		.loc 1 641 0
 1024              		@ sp needed
 1025 0090 F0BD     		pop	{r4, r5, r6, r7, pc}
 1026              	.L79:
 1027 0092 C046     		.align	2
 1028              	.L78:
 1029 0094 00FEFF00 		.word	16776704
 1030 0098 DBFEFFFF 		.word	-293
 1031 009c 0300C200 		.word	12713987
 1032 00a0 0100C200 		.word	12713985
 1033              		.cfi_endproc
 1034              	.LFE47:
 1035              		.size	Cy_Prot_ConfigPpuProgSlaveStruct, .-Cy_Prot_ConfigPpuProgSlaveStruct
 1036              		.section	.text.Cy_Prot_EnablePpuProgMasterStruct,"ax",%progbits
 1037              		.align	2
 1038              		.global	Cy_Prot_EnablePpuProgMasterStruct
 1039              		.code	16
 1040              		.thumb_func
 1041              		.type	Cy_Prot_EnablePpuProgMasterStruct, %function
 1042              	Cy_Prot_EnablePpuProgMasterStruct:
 1043              	.LFB48:
 642:Generated_Source\PSoC6\pdl\drivers\peripheral\prot/cy_prot.c **** 
 643:Generated_Source\PSoC6\pdl\drivers\peripheral\prot/cy_prot.c **** 
 644:Generated_Source\PSoC6\pdl\drivers\peripheral\prot/cy_prot.c **** /*******************************************************************************
 645:Generated_Source\PSoC6\pdl\drivers\peripheral\prot/cy_prot.c **** * Function Name: Cy_Prot_EnablePpuProgMasterStruct
 646:Generated_Source\PSoC6\pdl\drivers\peripheral\prot/cy_prot.c **** ****************************************************************************//**
 647:Generated_Source\PSoC6\pdl\drivers\peripheral\prot/cy_prot.c **** *
 648:Generated_Source\PSoC6\pdl\drivers\peripheral\prot/cy_prot.c **** * \brief Enables the Master PPU PROG structure.
 649:Generated_Source\PSoC6\pdl\drivers\peripheral\prot/cy_prot.c **** *
ARM GAS  C:\Users\kiwamu\AppData\Local\Temp\ccj1MWYe.s 			page 31


 650:Generated_Source\PSoC6\pdl\drivers\peripheral\prot/cy_prot.c **** * This is a PPU PROG master struct enable function. The PPU PROG protection 
 651:Generated_Source\PSoC6\pdl\drivers\peripheral\prot/cy_prot.c **** * settings will take effect after successful completion of this function call.
 652:Generated_Source\PSoC6\pdl\drivers\peripheral\prot/cy_prot.c **** *
 653:Generated_Source\PSoC6\pdl\drivers\peripheral\prot/cy_prot.c **** * \param base
 654:Generated_Source\PSoC6\pdl\drivers\peripheral\prot/cy_prot.c **** * The base address for the protection unit structure being configured. 
 655:Generated_Source\PSoC6\pdl\drivers\peripheral\prot/cy_prot.c **** *
 656:Generated_Source\PSoC6\pdl\drivers\peripheral\prot/cy_prot.c **** * \return
 657:Generated_Source\PSoC6\pdl\drivers\peripheral\prot/cy_prot.c **** * Status of the function call.
 658:Generated_Source\PSoC6\pdl\drivers\peripheral\prot/cy_prot.c **** *
 659:Generated_Source\PSoC6\pdl\drivers\peripheral\prot/cy_prot.c **** *   Status               | Description
 660:Generated_Source\PSoC6\pdl\drivers\peripheral\prot/cy_prot.c **** *   ------------         | -----------
 661:Generated_Source\PSoC6\pdl\drivers\peripheral\prot/cy_prot.c **** *   CY_PROT_SUCCESS      | The Master PU struct was enabled
 662:Generated_Source\PSoC6\pdl\drivers\peripheral\prot/cy_prot.c **** *   CY_PROT_FAILURE      | The Master PU struct is disabled and possibly locked
 663:Generated_Source\PSoC6\pdl\drivers\peripheral\prot/cy_prot.c **** *  
 664:Generated_Source\PSoC6\pdl\drivers\peripheral\prot/cy_prot.c **** *******************************************************************************/
 665:Generated_Source\PSoC6\pdl\drivers\peripheral\prot/cy_prot.c **** cy_en_prot_status_t Cy_Prot_EnablePpuProgMasterStruct(PERI_PPU_PR_Type* base)
 666:Generated_Source\PSoC6\pdl\drivers\peripheral\prot/cy_prot.c **** {
 1044              		.loc 1 666 0
 1045              		.cfi_startproc
 1046              		@ args = 0, pretend = 0, frame = 0
 1047              		@ frame_needed = 0, uses_anonymous_args = 0
 1048              		@ link register save eliminated.
 1049              	.LVL107:
 667:Generated_Source\PSoC6\pdl\drivers\peripheral\prot/cy_prot.c ****     cy_en_prot_status_t status = CY_PROT_SUCCESS;
 668:Generated_Source\PSoC6\pdl\drivers\peripheral\prot/cy_prot.c ****     
 669:Generated_Source\PSoC6\pdl\drivers\peripheral\prot/cy_prot.c ****     base->ATT1 |= _VAL2FLD(PERI_PPU_PR_ATT1_ENABLED, CY_PROT_STRUCT_ENABLE);
 1050              		.loc 1 669 0
 1051 0000 436A     		ldr	r3, [r0, #36]
 1052 0002 8022     		movs	r2, #128
 1053 0004 1206     		lsls	r2, r2, #24
 1054 0006 1343     		orrs	r3, r2
 1055 0008 4362     		str	r3, [r0, #36]
 670:Generated_Source\PSoC6\pdl\drivers\peripheral\prot/cy_prot.c ****     status = (_FLD2VAL(PERI_PPU_PR_ATT1_ENABLED, base->ATT1) != CY_PROT_STRUCT_ENABLE) ?
 1056              		.loc 1 670 0
 1057 000a 436A     		ldr	r3, [r0, #36]
 1058 000c 002B     		cmp	r3, #0
 1059 000e 01DB     		blt	.L82
 1060 0010 0148     		ldr	r0, .L83
 1061              	.LVL108:
 1062 0012 00E0     		b	.L81
 1063              	.LVL109:
 1064              	.L82:
 1065 0014 0020     		movs	r0, #0
 1066              	.LVL110:
 1067              	.L81:
 671:Generated_Source\PSoC6\pdl\drivers\peripheral\prot/cy_prot.c ****                 CY_PROT_FAILURE : CY_PROT_SUCCESS;
 672:Generated_Source\PSoC6\pdl\drivers\peripheral\prot/cy_prot.c ****     
 673:Generated_Source\PSoC6\pdl\drivers\peripheral\prot/cy_prot.c ****     return status;
 674:Generated_Source\PSoC6\pdl\drivers\peripheral\prot/cy_prot.c **** }
 1068              		.loc 1 674 0 discriminator 4
 1069              		@ sp needed
 1070 0016 7047     		bx	lr
 1071              	.L84:
 1072              		.align	2
 1073              	.L83:
 1074 0018 0300C200 		.word	12713987
 1075              		.cfi_endproc
ARM GAS  C:\Users\kiwamu\AppData\Local\Temp\ccj1MWYe.s 			page 32


 1076              	.LFE48:
 1077              		.size	Cy_Prot_EnablePpuProgMasterStruct, .-Cy_Prot_EnablePpuProgMasterStruct
 1078              		.section	.text.Cy_Prot_DisablePpuProgMasterStruct,"ax",%progbits
 1079              		.align	2
 1080              		.global	Cy_Prot_DisablePpuProgMasterStruct
 1081              		.code	16
 1082              		.thumb_func
 1083              		.type	Cy_Prot_DisablePpuProgMasterStruct, %function
 1084              	Cy_Prot_DisablePpuProgMasterStruct:
 1085              	.LFB49:
 675:Generated_Source\PSoC6\pdl\drivers\peripheral\prot/cy_prot.c **** 
 676:Generated_Source\PSoC6\pdl\drivers\peripheral\prot/cy_prot.c **** 
 677:Generated_Source\PSoC6\pdl\drivers\peripheral\prot/cy_prot.c **** /*******************************************************************************
 678:Generated_Source\PSoC6\pdl\drivers\peripheral\prot/cy_prot.c **** * Function Name: Cy_Prot_DisablePpuProgMasterStruct
 679:Generated_Source\PSoC6\pdl\drivers\peripheral\prot/cy_prot.c **** ****************************************************************************//**
 680:Generated_Source\PSoC6\pdl\drivers\peripheral\prot/cy_prot.c **** *
 681:Generated_Source\PSoC6\pdl\drivers\peripheral\prot/cy_prot.c **** * \brief Disables the Master PPU PROG structure.
 682:Generated_Source\PSoC6\pdl\drivers\peripheral\prot/cy_prot.c **** *
 683:Generated_Source\PSoC6\pdl\drivers\peripheral\prot/cy_prot.c **** * This is a PPU PROG master struct disable function. The PPU PROG protection 
 684:Generated_Source\PSoC6\pdl\drivers\peripheral\prot/cy_prot.c **** * settings will seize to take effect after successful completion of this 
 685:Generated_Source\PSoC6\pdl\drivers\peripheral\prot/cy_prot.c **** * function call.
 686:Generated_Source\PSoC6\pdl\drivers\peripheral\prot/cy_prot.c **** *
 687:Generated_Source\PSoC6\pdl\drivers\peripheral\prot/cy_prot.c **** * \param base
 688:Generated_Source\PSoC6\pdl\drivers\peripheral\prot/cy_prot.c **** * The base address for the protection unit structure being configured. 
 689:Generated_Source\PSoC6\pdl\drivers\peripheral\prot/cy_prot.c **** *
 690:Generated_Source\PSoC6\pdl\drivers\peripheral\prot/cy_prot.c **** * \return
 691:Generated_Source\PSoC6\pdl\drivers\peripheral\prot/cy_prot.c **** * Status of the function call.
 692:Generated_Source\PSoC6\pdl\drivers\peripheral\prot/cy_prot.c **** *
 693:Generated_Source\PSoC6\pdl\drivers\peripheral\prot/cy_prot.c **** *   Status               | Description
 694:Generated_Source\PSoC6\pdl\drivers\peripheral\prot/cy_prot.c **** *   ------------         | -----------
 695:Generated_Source\PSoC6\pdl\drivers\peripheral\prot/cy_prot.c **** *   CY_PROT_SUCCESS      | The Master PU struct was disabled
 696:Generated_Source\PSoC6\pdl\drivers\peripheral\prot/cy_prot.c **** *   CY_PROT_FAILURE      | The Master PU struct is enabled and possibly locked
 697:Generated_Source\PSoC6\pdl\drivers\peripheral\prot/cy_prot.c **** *  
 698:Generated_Source\PSoC6\pdl\drivers\peripheral\prot/cy_prot.c **** *******************************************************************************/
 699:Generated_Source\PSoC6\pdl\drivers\peripheral\prot/cy_prot.c **** cy_en_prot_status_t Cy_Prot_DisablePpuProgMasterStruct(PERI_PPU_PR_Type* base)
 700:Generated_Source\PSoC6\pdl\drivers\peripheral\prot/cy_prot.c **** {
 1086              		.loc 1 700 0
 1087              		.cfi_startproc
 1088              		@ args = 0, pretend = 0, frame = 0
 1089              		@ frame_needed = 0, uses_anonymous_args = 0
 1090              		@ link register save eliminated.
 1091              	.LVL111:
 701:Generated_Source\PSoC6\pdl\drivers\peripheral\prot/cy_prot.c ****     cy_en_prot_status_t status = CY_PROT_SUCCESS;
 702:Generated_Source\PSoC6\pdl\drivers\peripheral\prot/cy_prot.c ****     
 703:Generated_Source\PSoC6\pdl\drivers\peripheral\prot/cy_prot.c ****     base->ATT1 &= ~_VAL2FLD(PERI_PPU_PR_ATT1_ENABLED, CY_PROT_STRUCT_ENABLE);
 1092              		.loc 1 703 0
 1093 0000 436A     		ldr	r3, [r0, #36]
 1094 0002 5B00     		lsls	r3, r3, #1
 1095 0004 5B08     		lsrs	r3, r3, #1
 1096 0006 4362     		str	r3, [r0, #36]
 704:Generated_Source\PSoC6\pdl\drivers\peripheral\prot/cy_prot.c ****     status = (_FLD2VAL(PERI_PPU_PR_ATT1_ENABLED, base->ATT1) == CY_PROT_STRUCT_ENABLE) ?
 1097              		.loc 1 704 0
 1098 0008 436A     		ldr	r3, [r0, #36]
 1099 000a 002B     		cmp	r3, #0
 1100 000c 01DA     		bge	.L87
 1101 000e 0248     		ldr	r0, .L88
 1102              	.LVL112:
ARM GAS  C:\Users\kiwamu\AppData\Local\Temp\ccj1MWYe.s 			page 33


 1103 0010 00E0     		b	.L86
 1104              	.LVL113:
 1105              	.L87:
 1106 0012 0020     		movs	r0, #0
 1107              	.LVL114:
 1108              	.L86:
 705:Generated_Source\PSoC6\pdl\drivers\peripheral\prot/cy_prot.c ****                 CY_PROT_FAILURE : CY_PROT_SUCCESS;
 706:Generated_Source\PSoC6\pdl\drivers\peripheral\prot/cy_prot.c ****     
 707:Generated_Source\PSoC6\pdl\drivers\peripheral\prot/cy_prot.c ****     return status;
 708:Generated_Source\PSoC6\pdl\drivers\peripheral\prot/cy_prot.c **** }
 1109              		.loc 1 708 0 discriminator 4
 1110              		@ sp needed
 1111 0014 7047     		bx	lr
 1112              	.L89:
 1113 0016 C046     		.align	2
 1114              	.L88:
 1115 0018 0300C200 		.word	12713987
 1116              		.cfi_endproc
 1117              	.LFE49:
 1118              		.size	Cy_Prot_DisablePpuProgMasterStruct, .-Cy_Prot_DisablePpuProgMasterStruct
 1119              		.section	.text.Cy_Prot_EnablePpuProgSlaveStruct,"ax",%progbits
 1120              		.align	2
 1121              		.global	Cy_Prot_EnablePpuProgSlaveStruct
 1122              		.code	16
 1123              		.thumb_func
 1124              		.type	Cy_Prot_EnablePpuProgSlaveStruct, %function
 1125              	Cy_Prot_EnablePpuProgSlaveStruct:
 1126              	.LFB50:
 709:Generated_Source\PSoC6\pdl\drivers\peripheral\prot/cy_prot.c **** 
 710:Generated_Source\PSoC6\pdl\drivers\peripheral\prot/cy_prot.c **** 
 711:Generated_Source\PSoC6\pdl\drivers\peripheral\prot/cy_prot.c **** /*******************************************************************************
 712:Generated_Source\PSoC6\pdl\drivers\peripheral\prot/cy_prot.c **** * Function Name: Cy_Prot_EnablePpuProgSlaveStruct
 713:Generated_Source\PSoC6\pdl\drivers\peripheral\prot/cy_prot.c **** ****************************************************************************//**
 714:Generated_Source\PSoC6\pdl\drivers\peripheral\prot/cy_prot.c **** *
 715:Generated_Source\PSoC6\pdl\drivers\peripheral\prot/cy_prot.c **** * \brief Enables the Slave PPU PROG structure.
 716:Generated_Source\PSoC6\pdl\drivers\peripheral\prot/cy_prot.c **** *
 717:Generated_Source\PSoC6\pdl\drivers\peripheral\prot/cy_prot.c **** * This is a PPU PROG slave struct enable function. The PPU PROG protection 
 718:Generated_Source\PSoC6\pdl\drivers\peripheral\prot/cy_prot.c **** * settings will take effect after successful completion of this function call.
 719:Generated_Source\PSoC6\pdl\drivers\peripheral\prot/cy_prot.c **** *
 720:Generated_Source\PSoC6\pdl\drivers\peripheral\prot/cy_prot.c **** * \param base
 721:Generated_Source\PSoC6\pdl\drivers\peripheral\prot/cy_prot.c **** * The base address for the protection unit structure being configured. 
 722:Generated_Source\PSoC6\pdl\drivers\peripheral\prot/cy_prot.c **** *
 723:Generated_Source\PSoC6\pdl\drivers\peripheral\prot/cy_prot.c **** * \return
 724:Generated_Source\PSoC6\pdl\drivers\peripheral\prot/cy_prot.c **** * Status of the function call.
 725:Generated_Source\PSoC6\pdl\drivers\peripheral\prot/cy_prot.c **** *
 726:Generated_Source\PSoC6\pdl\drivers\peripheral\prot/cy_prot.c **** *   Status               | Description
 727:Generated_Source\PSoC6\pdl\drivers\peripheral\prot/cy_prot.c **** *   ------------         | -----------
 728:Generated_Source\PSoC6\pdl\drivers\peripheral\prot/cy_prot.c **** *   CY_PROT_SUCCESS      | The Slave PU struct was enabled
 729:Generated_Source\PSoC6\pdl\drivers\peripheral\prot/cy_prot.c **** *   CY_PROT_FAILURE      | The Slave PU struct is disabled and possibly locked
 730:Generated_Source\PSoC6\pdl\drivers\peripheral\prot/cy_prot.c **** *  
 731:Generated_Source\PSoC6\pdl\drivers\peripheral\prot/cy_prot.c **** *******************************************************************************/
 732:Generated_Source\PSoC6\pdl\drivers\peripheral\prot/cy_prot.c **** cy_en_prot_status_t Cy_Prot_EnablePpuProgSlaveStruct(PERI_PPU_PR_Type* base)
 733:Generated_Source\PSoC6\pdl\drivers\peripheral\prot/cy_prot.c **** {   
 1127              		.loc 1 733 0
 1128              		.cfi_startproc
 1129              		@ args = 0, pretend = 0, frame = 0
 1130              		@ frame_needed = 0, uses_anonymous_args = 0
ARM GAS  C:\Users\kiwamu\AppData\Local\Temp\ccj1MWYe.s 			page 34


 1131              		@ link register save eliminated.
 1132              	.LVL115:
 734:Generated_Source\PSoC6\pdl\drivers\peripheral\prot/cy_prot.c ****     cy_en_prot_status_t status = CY_PROT_SUCCESS;
 735:Generated_Source\PSoC6\pdl\drivers\peripheral\prot/cy_prot.c ****     
 736:Generated_Source\PSoC6\pdl\drivers\peripheral\prot/cy_prot.c ****     base->ATT0 |= _VAL2FLD(PERI_PPU_PR_ATT0_ENABLED, CY_PROT_STRUCT_ENABLE);
 1133              		.loc 1 736 0
 1134 0000 4368     		ldr	r3, [r0, #4]
 1135 0002 8022     		movs	r2, #128
 1136 0004 1206     		lsls	r2, r2, #24
 1137 0006 1343     		orrs	r3, r2
 1138 0008 4360     		str	r3, [r0, #4]
 737:Generated_Source\PSoC6\pdl\drivers\peripheral\prot/cy_prot.c ****     status = (_FLD2VAL(PERI_PPU_PR_ATT0_ENABLED, base->ATT0) != CY_PROT_STRUCT_ENABLE) ?
 1139              		.loc 1 737 0
 1140 000a 4368     		ldr	r3, [r0, #4]
 1141 000c 002B     		cmp	r3, #0
 1142 000e 01DB     		blt	.L92
 1143 0010 0148     		ldr	r0, .L93
 1144              	.LVL116:
 1145 0012 00E0     		b	.L91
 1146              	.LVL117:
 1147              	.L92:
 1148 0014 0020     		movs	r0, #0
 1149              	.LVL118:
 1150              	.L91:
 738:Generated_Source\PSoC6\pdl\drivers\peripheral\prot/cy_prot.c ****                 CY_PROT_FAILURE : CY_PROT_SUCCESS;
 739:Generated_Source\PSoC6\pdl\drivers\peripheral\prot/cy_prot.c ****     
 740:Generated_Source\PSoC6\pdl\drivers\peripheral\prot/cy_prot.c ****     return status;
 741:Generated_Source\PSoC6\pdl\drivers\peripheral\prot/cy_prot.c **** }
 1151              		.loc 1 741 0 discriminator 4
 1152              		@ sp needed
 1153 0016 7047     		bx	lr
 1154              	.L94:
 1155              		.align	2
 1156              	.L93:
 1157 0018 0300C200 		.word	12713987
 1158              		.cfi_endproc
 1159              	.LFE50:
 1160              		.size	Cy_Prot_EnablePpuProgSlaveStruct, .-Cy_Prot_EnablePpuProgSlaveStruct
 1161              		.section	.text.Cy_Prot_DisablePpuProgSlaveStruct,"ax",%progbits
 1162              		.align	2
 1163              		.global	Cy_Prot_DisablePpuProgSlaveStruct
 1164              		.code	16
 1165              		.thumb_func
 1166              		.type	Cy_Prot_DisablePpuProgSlaveStruct, %function
 1167              	Cy_Prot_DisablePpuProgSlaveStruct:
 1168              	.LFB51:
 742:Generated_Source\PSoC6\pdl\drivers\peripheral\prot/cy_prot.c **** 
 743:Generated_Source\PSoC6\pdl\drivers\peripheral\prot/cy_prot.c **** 
 744:Generated_Source\PSoC6\pdl\drivers\peripheral\prot/cy_prot.c **** /*******************************************************************************
 745:Generated_Source\PSoC6\pdl\drivers\peripheral\prot/cy_prot.c **** * Function Name: Cy_Prot_DisablePpuProgSlaveStruct
 746:Generated_Source\PSoC6\pdl\drivers\peripheral\prot/cy_prot.c **** ****************************************************************************//**
 747:Generated_Source\PSoC6\pdl\drivers\peripheral\prot/cy_prot.c **** *
 748:Generated_Source\PSoC6\pdl\drivers\peripheral\prot/cy_prot.c **** * \brief Disables the Slave PPU PROG structure.
 749:Generated_Source\PSoC6\pdl\drivers\peripheral\prot/cy_prot.c **** *
 750:Generated_Source\PSoC6\pdl\drivers\peripheral\prot/cy_prot.c **** * This is a PPU PROG slave struct disable function. The PPU PROG protection 
 751:Generated_Source\PSoC6\pdl\drivers\peripheral\prot/cy_prot.c **** * settings will seize to take effect after successful completion of this 
 752:Generated_Source\PSoC6\pdl\drivers\peripheral\prot/cy_prot.c **** * function call.
ARM GAS  C:\Users\kiwamu\AppData\Local\Temp\ccj1MWYe.s 			page 35


 753:Generated_Source\PSoC6\pdl\drivers\peripheral\prot/cy_prot.c **** *
 754:Generated_Source\PSoC6\pdl\drivers\peripheral\prot/cy_prot.c **** * \param base
 755:Generated_Source\PSoC6\pdl\drivers\peripheral\prot/cy_prot.c **** * The base address for the protection unit structure being configured. 
 756:Generated_Source\PSoC6\pdl\drivers\peripheral\prot/cy_prot.c **** *
 757:Generated_Source\PSoC6\pdl\drivers\peripheral\prot/cy_prot.c **** * \return
 758:Generated_Source\PSoC6\pdl\drivers\peripheral\prot/cy_prot.c **** * Status of the function call.
 759:Generated_Source\PSoC6\pdl\drivers\peripheral\prot/cy_prot.c **** *
 760:Generated_Source\PSoC6\pdl\drivers\peripheral\prot/cy_prot.c **** *   Status               | Description
 761:Generated_Source\PSoC6\pdl\drivers\peripheral\prot/cy_prot.c **** *   ------------         | -----------
 762:Generated_Source\PSoC6\pdl\drivers\peripheral\prot/cy_prot.c **** *   CY_PROT_SUCCESS      | The Slave PU struct was disabled
 763:Generated_Source\PSoC6\pdl\drivers\peripheral\prot/cy_prot.c **** *   CY_PROT_FAILURE      | The Slave PU struct is enabled and possibly locked
 764:Generated_Source\PSoC6\pdl\drivers\peripheral\prot/cy_prot.c **** *  
 765:Generated_Source\PSoC6\pdl\drivers\peripheral\prot/cy_prot.c **** *******************************************************************************/
 766:Generated_Source\PSoC6\pdl\drivers\peripheral\prot/cy_prot.c **** cy_en_prot_status_t Cy_Prot_DisablePpuProgSlaveStruct(PERI_PPU_PR_Type* base)
 767:Generated_Source\PSoC6\pdl\drivers\peripheral\prot/cy_prot.c **** {
 1169              		.loc 1 767 0
 1170              		.cfi_startproc
 1171              		@ args = 0, pretend = 0, frame = 0
 1172              		@ frame_needed = 0, uses_anonymous_args = 0
 1173              		@ link register save eliminated.
 1174              	.LVL119:
 768:Generated_Source\PSoC6\pdl\drivers\peripheral\prot/cy_prot.c ****     cy_en_prot_status_t status = CY_PROT_SUCCESS;
 769:Generated_Source\PSoC6\pdl\drivers\peripheral\prot/cy_prot.c ****     
 770:Generated_Source\PSoC6\pdl\drivers\peripheral\prot/cy_prot.c ****     base->ATT0 &= ~_VAL2FLD(PERI_PPU_PR_ATT0_ENABLED, CY_PROT_STRUCT_ENABLE);
 1175              		.loc 1 770 0
 1176 0000 4368     		ldr	r3, [r0, #4]
 1177 0002 5B00     		lsls	r3, r3, #1
 1178 0004 5B08     		lsrs	r3, r3, #1
 1179 0006 4360     		str	r3, [r0, #4]
 771:Generated_Source\PSoC6\pdl\drivers\peripheral\prot/cy_prot.c ****     status = (_FLD2VAL(PERI_PPU_PR_ATT0_ENABLED, base->ATT0) == CY_PROT_STRUCT_ENABLE) ?
 1180              		.loc 1 771 0
 1181 0008 4368     		ldr	r3, [r0, #4]
 1182 000a 002B     		cmp	r3, #0
 1183 000c 01DA     		bge	.L97
 1184 000e 0248     		ldr	r0, .L98
 1185              	.LVL120:
 1186 0010 00E0     		b	.L96
 1187              	.LVL121:
 1188              	.L97:
 1189 0012 0020     		movs	r0, #0
 1190              	.LVL122:
 1191              	.L96:
 772:Generated_Source\PSoC6\pdl\drivers\peripheral\prot/cy_prot.c ****                 CY_PROT_FAILURE : CY_PROT_SUCCESS;
 773:Generated_Source\PSoC6\pdl\drivers\peripheral\prot/cy_prot.c ****     
 774:Generated_Source\PSoC6\pdl\drivers\peripheral\prot/cy_prot.c ****     return status;
 775:Generated_Source\PSoC6\pdl\drivers\peripheral\prot/cy_prot.c **** }
 1192              		.loc 1 775 0 discriminator 4
 1193              		@ sp needed
 1194 0014 7047     		bx	lr
 1195              	.L99:
 1196 0016 C046     		.align	2
 1197              	.L98:
 1198 0018 0300C200 		.word	12713987
 1199              		.cfi_endproc
 1200              	.LFE51:
 1201              		.size	Cy_Prot_DisablePpuProgSlaveStruct, .-Cy_Prot_DisablePpuProgSlaveStruct
 1202              		.section	.text.Cy_Prot_ConfigPpuFixedGrMasterStruct,"ax",%progbits
ARM GAS  C:\Users\kiwamu\AppData\Local\Temp\ccj1MWYe.s 			page 36


 1203              		.align	2
 1204              		.global	Cy_Prot_ConfigPpuFixedGrMasterStruct
 1205              		.code	16
 1206              		.thumb_func
 1207              		.type	Cy_Prot_ConfigPpuFixedGrMasterStruct, %function
 1208              	Cy_Prot_ConfigPpuFixedGrMasterStruct:
 1209              	.LFB52:
 776:Generated_Source\PSoC6\pdl\drivers\peripheral\prot/cy_prot.c **** 
 777:Generated_Source\PSoC6\pdl\drivers\peripheral\prot/cy_prot.c **** 
 778:Generated_Source\PSoC6\pdl\drivers\peripheral\prot/cy_prot.c **** /*******************************************************************************
 779:Generated_Source\PSoC6\pdl\drivers\peripheral\prot/cy_prot.c **** * Function Name: Cy_Prot_ConfigPpuFixedGrMasterStruct
 780:Generated_Source\PSoC6\pdl\drivers\peripheral\prot/cy_prot.c **** ****************************************************************************//**
 781:Generated_Source\PSoC6\pdl\drivers\peripheral\prot/cy_prot.c **** *
 782:Generated_Source\PSoC6\pdl\drivers\peripheral\prot/cy_prot.c **** * \brief Configures a Fixed Peripheral Group Protection Unit (PPU GR) master 
 783:Generated_Source\PSoC6\pdl\drivers\peripheral\prot/cy_prot.c **** * protection struct with its protection attributes. 
 784:Generated_Source\PSoC6\pdl\drivers\peripheral\prot/cy_prot.c **** *
 785:Generated_Source\PSoC6\pdl\drivers\peripheral\prot/cy_prot.c **** * This function configures the master struct governing the corresponding slave
 786:Generated_Source\PSoC6\pdl\drivers\peripheral\prot/cy_prot.c **** * struct pair. It is a mechanism to protect the slave PPU GR struct. Since
 787:Generated_Source\PSoC6\pdl\drivers\peripheral\prot/cy_prot.c **** * the memory location of the slave struct is known, the address, regionSize and
 788:Generated_Source\PSoC6\pdl\drivers\peripheral\prot/cy_prot.c **** * subregions of the configuration struct are not applicable.
 789:Generated_Source\PSoC6\pdl\drivers\peripheral\prot/cy_prot.c **** *
 790:Generated_Source\PSoC6\pdl\drivers\peripheral\prot/cy_prot.c **** * Note that only the user/privileged write permissions are configurable. The 
 791:Generated_Source\PSoC6\pdl\drivers\peripheral\prot/cy_prot.c **** * read and execute permissions are read-only and cannot be configured.
 792:Generated_Source\PSoC6\pdl\drivers\peripheral\prot/cy_prot.c **** *
 793:Generated_Source\PSoC6\pdl\drivers\peripheral\prot/cy_prot.c **** * \param base
 794:Generated_Source\PSoC6\pdl\drivers\peripheral\prot/cy_prot.c **** * The register base address of the protection struct being configured.
 795:Generated_Source\PSoC6\pdl\drivers\peripheral\prot/cy_prot.c **** * 
 796:Generated_Source\PSoC6\pdl\drivers\peripheral\prot/cy_prot.c **** * \param config
 797:Generated_Source\PSoC6\pdl\drivers\peripheral\prot/cy_prot.c **** * Initialization structure with all the protection attributes.
 798:Generated_Source\PSoC6\pdl\drivers\peripheral\prot/cy_prot.c **** * 
 799:Generated_Source\PSoC6\pdl\drivers\peripheral\prot/cy_prot.c **** * \return
 800:Generated_Source\PSoC6\pdl\drivers\peripheral\prot/cy_prot.c **** * Status of the function call.
 801:Generated_Source\PSoC6\pdl\drivers\peripheral\prot/cy_prot.c **** *
 802:Generated_Source\PSoC6\pdl\drivers\peripheral\prot/cy_prot.c **** *   Status               | Description
 803:Generated_Source\PSoC6\pdl\drivers\peripheral\prot/cy_prot.c **** *   ------------         | -----------
 804:Generated_Source\PSoC6\pdl\drivers\peripheral\prot/cy_prot.c **** *   CY_PROT_SUCCESS      | PPU GR master struct was successfully configured
 805:Generated_Source\PSoC6\pdl\drivers\peripheral\prot/cy_prot.c **** *   CY_PROT_FAILURE      | The resource is locked
 806:Generated_Source\PSoC6\pdl\drivers\peripheral\prot/cy_prot.c **** *   CY_PROT_BAD_PARAM    | An incorrect/invalid parameter was passed
 807:Generated_Source\PSoC6\pdl\drivers\peripheral\prot/cy_prot.c **** *  
 808:Generated_Source\PSoC6\pdl\drivers\peripheral\prot/cy_prot.c **** *******************************************************************************/
 809:Generated_Source\PSoC6\pdl\drivers\peripheral\prot/cy_prot.c **** cy_en_prot_status_t Cy_Prot_ConfigPpuFixedGrMasterStruct(PERI_PPU_GR_Type* base, const cy_stc_ppu_g
 810:Generated_Source\PSoC6\pdl\drivers\peripheral\prot/cy_prot.c **** {
 1210              		.loc 1 810 0
 1211              		.cfi_startproc
 1212              		@ args = 0, pretend = 0, frame = 0
 1213              		@ frame_needed = 0, uses_anonymous_args = 0
 1214              	.LVL123:
 1215 0000 70B5     		push	{r4, r5, r6, lr}
 1216              		.cfi_def_cfa_offset 16
 1217              		.cfi_offset 4, -16
 1218              		.cfi_offset 5, -12
 1219              		.cfi_offset 6, -8
 1220              		.cfi_offset 14, -4
 1221              	.LVL124:
 811:Generated_Source\PSoC6\pdl\drivers\peripheral\prot/cy_prot.c ****     cy_en_prot_status_t status = CY_PROT_SUCCESS;
 812:Generated_Source\PSoC6\pdl\drivers\peripheral\prot/cy_prot.c ****     uint32_t attReg;
 813:Generated_Source\PSoC6\pdl\drivers\peripheral\prot/cy_prot.c ****     
ARM GAS  C:\Users\kiwamu\AppData\Local\Temp\ccj1MWYe.s 			page 37


 814:Generated_Source\PSoC6\pdl\drivers\peripheral\prot/cy_prot.c ****     if(((uint32_t)config->pcMask & CY_PROT_PPU_FIXED_PC_LIMIT_MASK) != 0UL) 
 1222              		.loc 1 814 0
 1223 0002 8C88     		ldrh	r4, [r1, #4]
 1224 0004 7F23     		movs	r3, #127
 1225 0006 2200     		movs	r2, r4
 1226 0008 9A43     		bics	r2, r3
 1227 000a 28D1     		bne	.L102
 815:Generated_Source\PSoC6\pdl\drivers\peripheral\prot/cy_prot.c ****     {
 816:Generated_Source\PSoC6\pdl\drivers\peripheral\prot/cy_prot.c ****         /* PC mask out of range - not supported in device */
 817:Generated_Source\PSoC6\pdl\drivers\peripheral\prot/cy_prot.c ****         status = CY_PROT_BAD_PARAM;
 818:Generated_Source\PSoC6\pdl\drivers\peripheral\prot/cy_prot.c ****     }
 819:Generated_Source\PSoC6\pdl\drivers\peripheral\prot/cy_prot.c ****     else
 820:Generated_Source\PSoC6\pdl\drivers\peripheral\prot/cy_prot.c ****     {
 821:Generated_Source\PSoC6\pdl\drivers\peripheral\prot/cy_prot.c ****         /* ADDR1 is read only. Only configure ATT1 */
 822:Generated_Source\PSoC6\pdl\drivers\peripheral\prot/cy_prot.c ****         attReg = (((uint32_t)config->userPermission & CY_PROT_ATT_PERMISSION_MASK))
 1228              		.loc 1 822 0
 1229 000c 0B78     		ldrb	r3, [r1]
 1230 000e 0725     		movs	r5, #7
 1231 0010 1D40     		ands	r5, r3
 823:Generated_Source\PSoC6\pdl\drivers\peripheral\prot/cy_prot.c ****                     | (uint32_t)(((uint32_t)config->privPermission & CY_PROT_ATT_PERMISSION_MASK) <
 1232              		.loc 1 823 0
 1233 0012 4A78     		ldrb	r2, [r1, #1]
 1234 0014 D200     		lsls	r2, r2, #3
 1235 0016 3823     		movs	r3, #56
 1236 0018 1340     		ands	r3, r2
 1237 001a 1D43     		orrs	r5, r3
 824:Generated_Source\PSoC6\pdl\drivers\peripheral\prot/cy_prot.c ****                     | _VAL2FLD(PERI_PPU_GR_ATT1_NS, !(config->secure))
 1238              		.loc 1 824 0
 1239 001c 8B78     		ldrb	r3, [r1, #2]
 1240 001e 0122     		movs	r2, #1
 1241 0020 5A40     		eors	r2, r3
 1242 0022 D2B2     		uxtb	r2, r2
 1243 0024 9201     		lsls	r2, r2, #6
 1244 0026 4023     		movs	r3, #64
 1245 0028 1A40     		ands	r2, r3
 1246 002a 2B00     		movs	r3, r5
 1247 002c 1343     		orrs	r3, r2
 825:Generated_Source\PSoC6\pdl\drivers\peripheral\prot/cy_prot.c ****                     | _VAL2FLD(PERI_PPU_GR_ATT1_PC_MASK_15_TO_1, config->pcMask)
 1248              		.loc 1 825 0
 1249 002e 6402     		lsls	r4, r4, #9
 1250 0030 0E4A     		ldr	r2, .L105
 1251 0032 1440     		ands	r4, r2
 1252 0034 1C43     		orrs	r4, r3
 826:Generated_Source\PSoC6\pdl\drivers\peripheral\prot/cy_prot.c ****                     /* No region size - read only for master structs */
 827:Generated_Source\PSoC6\pdl\drivers\peripheral\prot/cy_prot.c ****                     | _VAL2FLD(PERI_PPU_GR_ATT1_PC_MATCH, config->pcMatch);
 1253              		.loc 1 827 0
 1254 0036 CB78     		ldrb	r3, [r1, #3]
 1255 0038 9B07     		lsls	r3, r3, #30
 1256 003a 8021     		movs	r1, #128
 1257              	.LVL125:
 1258 003c C905     		lsls	r1, r1, #23
 1259 003e 0B40     		ands	r3, r1
 1260 0040 1A00     		movs	r2, r3
 822:Generated_Source\PSoC6\pdl\drivers\peripheral\prot/cy_prot.c ****                     | (uint32_t)(((uint32_t)config->privPermission & CY_PROT_ATT_PERMISSION_MASK) <
 1261              		.loc 1 822 0
 1262 0042 2300     		movs	r3, r4
 1263 0044 1343     		orrs	r3, r2
ARM GAS  C:\Users\kiwamu\AppData\Local\Temp\ccj1MWYe.s 			page 38


 1264              	.LVL126:
 828:Generated_Source\PSoC6\pdl\drivers\peripheral\prot/cy_prot.c ****         if ((attReg & CY_PROT_PPU_GR_ATT1_MASK) != attReg)
 1265              		.loc 1 828 0
 1266 0046 0A4A     		ldr	r2, .L105+4
 1267 0048 1A40     		ands	r2, r3
 1268 004a 9342     		cmp	r3, r2
 1269 004c 09D1     		bne	.L103
 829:Generated_Source\PSoC6\pdl\drivers\peripheral\prot/cy_prot.c ****         {
 830:Generated_Source\PSoC6\pdl\drivers\peripheral\prot/cy_prot.c ****             /* Invalid parameter was passed */
 831:Generated_Source\PSoC6\pdl\drivers\peripheral\prot/cy_prot.c ****             status = CY_PROT_BAD_PARAM;
 832:Generated_Source\PSoC6\pdl\drivers\peripheral\prot/cy_prot.c ****         }
 833:Generated_Source\PSoC6\pdl\drivers\peripheral\prot/cy_prot.c ****         else
 834:Generated_Source\PSoC6\pdl\drivers\peripheral\prot/cy_prot.c ****         {
 835:Generated_Source\PSoC6\pdl\drivers\peripheral\prot/cy_prot.c ****             base->ATT1 = attReg;
 1270              		.loc 1 835 0
 1271 004e 4362     		str	r3, [r0, #36]
 836:Generated_Source\PSoC6\pdl\drivers\peripheral\prot/cy_prot.c ****             status = ((base->ATT1 & CY_PROT_PPU_GR_ATT1_MASK) != attReg) ? CY_PROT_FAILURE : CY_PRO
 1272              		.loc 1 836 0
 1273 0050 416A     		ldr	r1, [r0, #36]
 1274 0052 074A     		ldr	r2, .L105+4
 1275 0054 0A40     		ands	r2, r1
 1276 0056 9342     		cmp	r3, r2
 1277 0058 05D0     		beq	.L104
 1278 005a 0648     		ldr	r0, .L105+8
 1279              	.LVL127:
 1280 005c 04E0     		b	.L101
 1281              	.LVL128:
 1282              	.L102:
 817:Generated_Source\PSoC6\pdl\drivers\peripheral\prot/cy_prot.c ****     }
 1283              		.loc 1 817 0
 1284 005e 0648     		ldr	r0, .L105+12
 1285              	.LVL129:
 1286 0060 02E0     		b	.L101
 1287              	.LVL130:
 1288              	.L103:
 831:Generated_Source\PSoC6\pdl\drivers\peripheral\prot/cy_prot.c ****         }
 1289              		.loc 1 831 0
 1290 0062 0548     		ldr	r0, .L105+12
 1291              	.LVL131:
 1292 0064 00E0     		b	.L101
 1293              	.LVL132:
 1294              	.L104:
 1295              		.loc 1 836 0
 1296 0066 0020     		movs	r0, #0
 1297              	.LVL133:
 1298              	.L101:
 837:Generated_Source\PSoC6\pdl\drivers\peripheral\prot/cy_prot.c ****         }
 838:Generated_Source\PSoC6\pdl\drivers\peripheral\prot/cy_prot.c ****     }
 839:Generated_Source\PSoC6\pdl\drivers\peripheral\prot/cy_prot.c ****     
 840:Generated_Source\PSoC6\pdl\drivers\peripheral\prot/cy_prot.c ****     return status;
 841:Generated_Source\PSoC6\pdl\drivers\peripheral\prot/cy_prot.c **** }
 1299              		.loc 1 841 0
 1300              		@ sp needed
 1301 0068 70BD     		pop	{r4, r5, r6, pc}
 1302              	.L106:
 1303 006a C046     		.align	2
 1304              	.L105:
ARM GAS  C:\Users\kiwamu\AppData\Local\Temp\ccj1MWYe.s 			page 39


 1305 006c 00FEFF00 		.word	16776704
 1306 0070 D2FEFFE0 		.word	-520093998
 1307 0074 0300C200 		.word	12713987
 1308 0078 0100C200 		.word	12713985
 1309              		.cfi_endproc
 1310              	.LFE52:
 1311              		.size	Cy_Prot_ConfigPpuFixedGrMasterStruct, .-Cy_Prot_ConfigPpuFixedGrMasterStruct
 1312              		.section	.text.Cy_Prot_ConfigPpuFixedGrSlaveStruct,"ax",%progbits
 1313              		.align	2
 1314              		.global	Cy_Prot_ConfigPpuFixedGrSlaveStruct
 1315              		.code	16
 1316              		.thumb_func
 1317              		.type	Cy_Prot_ConfigPpuFixedGrSlaveStruct, %function
 1318              	Cy_Prot_ConfigPpuFixedGrSlaveStruct:
 1319              	.LFB53:
 842:Generated_Source\PSoC6\pdl\drivers\peripheral\prot/cy_prot.c **** 
 843:Generated_Source\PSoC6\pdl\drivers\peripheral\prot/cy_prot.c **** 
 844:Generated_Source\PSoC6\pdl\drivers\peripheral\prot/cy_prot.c **** /*******************************************************************************
 845:Generated_Source\PSoC6\pdl\drivers\peripheral\prot/cy_prot.c **** * Function Name: Cy_Prot_ConfigPpuFixedGrSlaveStruct
 846:Generated_Source\PSoC6\pdl\drivers\peripheral\prot/cy_prot.c **** ****************************************************************************//**
 847:Generated_Source\PSoC6\pdl\drivers\peripheral\prot/cy_prot.c **** *
 848:Generated_Source\PSoC6\pdl\drivers\peripheral\prot/cy_prot.c **** * \brief Configures a Fixed Peripheral Group Protection Unit (PPU GR) slave
 849:Generated_Source\PSoC6\pdl\drivers\peripheral\prot/cy_prot.c **** * protection struct with its protection attributes. 
 850:Generated_Source\PSoC6\pdl\drivers\peripheral\prot/cy_prot.c **** * 
 851:Generated_Source\PSoC6\pdl\drivers\peripheral\prot/cy_prot.c **** * This function configures the slave struct of a PPU GR pair, which can 
 852:Generated_Source\PSoC6\pdl\drivers\peripheral\prot/cy_prot.c **** * protect an entire peripheral MMIO group from invalid bus master accesses.
 853:Generated_Source\PSoC6\pdl\drivers\peripheral\prot/cy_prot.c **** * Refer to the device Technical Reference manual for details on peripheral
 854:Generated_Source\PSoC6\pdl\drivers\peripheral\prot/cy_prot.c **** * MMIO grouping and which peripherals belong to which groups.
 855:Generated_Source\PSoC6\pdl\drivers\peripheral\prot/cy_prot.c **** *
 856:Generated_Source\PSoC6\pdl\drivers\peripheral\prot/cy_prot.c **** * Each fixed PPU GR is devoted to a defined MMIO group. Hence the address, 
 857:Generated_Source\PSoC6\pdl\drivers\peripheral\prot/cy_prot.c **** * regionSize and subregions of the configuration struct are not applicable.
 858:Generated_Source\PSoC6\pdl\drivers\peripheral\prot/cy_prot.c **** *
 859:Generated_Source\PSoC6\pdl\drivers\peripheral\prot/cy_prot.c **** * Note that the user/privileged execute accesses are read-only and are always 
 860:Generated_Source\PSoC6\pdl\drivers\peripheral\prot/cy_prot.c **** * enabled. 
 861:Generated_Source\PSoC6\pdl\drivers\peripheral\prot/cy_prot.c **** *
 862:Generated_Source\PSoC6\pdl\drivers\peripheral\prot/cy_prot.c **** * \param base
 863:Generated_Source\PSoC6\pdl\drivers\peripheral\prot/cy_prot.c **** * The register base address of the protection structure being configured.
 864:Generated_Source\PSoC6\pdl\drivers\peripheral\prot/cy_prot.c **** * 
 865:Generated_Source\PSoC6\pdl\drivers\peripheral\prot/cy_prot.c **** * \param config
 866:Generated_Source\PSoC6\pdl\drivers\peripheral\prot/cy_prot.c **** * Initialization structure with all the protection attributes.
 867:Generated_Source\PSoC6\pdl\drivers\peripheral\prot/cy_prot.c **** * 
 868:Generated_Source\PSoC6\pdl\drivers\peripheral\prot/cy_prot.c **** * \return
 869:Generated_Source\PSoC6\pdl\drivers\peripheral\prot/cy_prot.c **** * Status of the function call.
 870:Generated_Source\PSoC6\pdl\drivers\peripheral\prot/cy_prot.c **** *
 871:Generated_Source\PSoC6\pdl\drivers\peripheral\prot/cy_prot.c **** *   Status               | Description
 872:Generated_Source\PSoC6\pdl\drivers\peripheral\prot/cy_prot.c **** *   ------------         | -----------
 873:Generated_Source\PSoC6\pdl\drivers\peripheral\prot/cy_prot.c **** *   CY_PROT_SUCCESS      | PPU GR slave struct was successfully configured
 874:Generated_Source\PSoC6\pdl\drivers\peripheral\prot/cy_prot.c **** *   CY_PROT_FAILURE      | The resource is locked
 875:Generated_Source\PSoC6\pdl\drivers\peripheral\prot/cy_prot.c **** *   CY_PROT_BAD_PARAM    | An incorrect/invalid parameter was passed
 876:Generated_Source\PSoC6\pdl\drivers\peripheral\prot/cy_prot.c **** *  
 877:Generated_Source\PSoC6\pdl\drivers\peripheral\prot/cy_prot.c **** *******************************************************************************/
 878:Generated_Source\PSoC6\pdl\drivers\peripheral\prot/cy_prot.c **** cy_en_prot_status_t Cy_Prot_ConfigPpuFixedGrSlaveStruct(PERI_PPU_GR_Type* base, const cy_stc_ppu_gr
 879:Generated_Source\PSoC6\pdl\drivers\peripheral\prot/cy_prot.c **** {
 1320              		.loc 1 879 0
 1321              		.cfi_startproc
 1322              		@ args = 0, pretend = 0, frame = 0
 1323              		@ frame_needed = 0, uses_anonymous_args = 0
ARM GAS  C:\Users\kiwamu\AppData\Local\Temp\ccj1MWYe.s 			page 40


 1324              	.LVL134:
 1325 0000 70B5     		push	{r4, r5, r6, lr}
 1326              		.cfi_def_cfa_offset 16
 1327              		.cfi_offset 4, -16
 1328              		.cfi_offset 5, -12
 1329              		.cfi_offset 6, -8
 1330              		.cfi_offset 14, -4
 1331              	.LVL135:
 880:Generated_Source\PSoC6\pdl\drivers\peripheral\prot/cy_prot.c ****     cy_en_prot_status_t status = CY_PROT_SUCCESS;
 881:Generated_Source\PSoC6\pdl\drivers\peripheral\prot/cy_prot.c ****     uint32_t attReg;
 882:Generated_Source\PSoC6\pdl\drivers\peripheral\prot/cy_prot.c ****     
 883:Generated_Source\PSoC6\pdl\drivers\peripheral\prot/cy_prot.c ****     if(((uint32_t)config->pcMask & CY_PROT_PPU_FIXED_PC_LIMIT_MASK) != 0UL) 
 1332              		.loc 1 883 0
 1333 0002 8C88     		ldrh	r4, [r1, #4]
 1334 0004 7F23     		movs	r3, #127
 1335 0006 2200     		movs	r2, r4
 1336 0008 9A43     		bics	r2, r3
 1337 000a 28D1     		bne	.L109
 884:Generated_Source\PSoC6\pdl\drivers\peripheral\prot/cy_prot.c ****     {
 885:Generated_Source\PSoC6\pdl\drivers\peripheral\prot/cy_prot.c ****         /* PC mask out of range - not supported in device */
 886:Generated_Source\PSoC6\pdl\drivers\peripheral\prot/cy_prot.c ****         status = CY_PROT_BAD_PARAM;
 887:Generated_Source\PSoC6\pdl\drivers\peripheral\prot/cy_prot.c ****     }
 888:Generated_Source\PSoC6\pdl\drivers\peripheral\prot/cy_prot.c ****     else
 889:Generated_Source\PSoC6\pdl\drivers\peripheral\prot/cy_prot.c ****     {
 890:Generated_Source\PSoC6\pdl\drivers\peripheral\prot/cy_prot.c ****         /* ADDR0 is read only. Only configure ATT0 */
 891:Generated_Source\PSoC6\pdl\drivers\peripheral\prot/cy_prot.c ****         attReg = (uint32_t)(((uint32_t)config->userPermission & CY_PROT_ATT_PERMISSION_MASK))
 1338              		.loc 1 891 0
 1339 000c 0B78     		ldrb	r3, [r1]
 1340 000e 0725     		movs	r5, #7
 1341 0010 1D40     		ands	r5, r3
 892:Generated_Source\PSoC6\pdl\drivers\peripheral\prot/cy_prot.c ****                     | (uint32_t)(((uint32_t)config->privPermission & CY_PROT_ATT_PERMISSION_MASK) <
 1342              		.loc 1 892 0
 1343 0012 4A78     		ldrb	r2, [r1, #1]
 1344 0014 D200     		lsls	r2, r2, #3
 1345 0016 3823     		movs	r3, #56
 1346 0018 1340     		ands	r3, r2
 1347 001a 1D43     		orrs	r5, r3
 893:Generated_Source\PSoC6\pdl\drivers\peripheral\prot/cy_prot.c ****                     | _VAL2FLD(PERI_PPU_GR_ATT0_NS, !(config->secure))
 1348              		.loc 1 893 0
 1349 001c 8B78     		ldrb	r3, [r1, #2]
 1350 001e 0122     		movs	r2, #1
 1351 0020 5A40     		eors	r2, r3
 1352 0022 D2B2     		uxtb	r2, r2
 1353 0024 9201     		lsls	r2, r2, #6
 1354 0026 4023     		movs	r3, #64
 1355 0028 1A40     		ands	r2, r3
 1356 002a 2B00     		movs	r3, r5
 1357 002c 1343     		orrs	r3, r2
 894:Generated_Source\PSoC6\pdl\drivers\peripheral\prot/cy_prot.c ****                     | _VAL2FLD(PERI_PPU_GR_ATT0_PC_MASK_15_TO_1, config->pcMask)
 1358              		.loc 1 894 0
 1359 002e 6402     		lsls	r4, r4, #9
 1360 0030 0E4A     		ldr	r2, .L112
 1361 0032 1440     		ands	r4, r2
 1362 0034 1C43     		orrs	r4, r3
 895:Generated_Source\PSoC6\pdl\drivers\peripheral\prot/cy_prot.c ****                     /* No region size - read only */
 896:Generated_Source\PSoC6\pdl\drivers\peripheral\prot/cy_prot.c ****                     | _VAL2FLD(PERI_PPU_GR_ATT0_PC_MATCH, config->pcMatch);
 1363              		.loc 1 896 0
ARM GAS  C:\Users\kiwamu\AppData\Local\Temp\ccj1MWYe.s 			page 41


 1364 0036 CB78     		ldrb	r3, [r1, #3]
 1365 0038 9B07     		lsls	r3, r3, #30
 1366 003a 8021     		movs	r1, #128
 1367              	.LVL136:
 1368 003c C905     		lsls	r1, r1, #23
 1369 003e 0B40     		ands	r3, r1
 1370 0040 1A00     		movs	r2, r3
 891:Generated_Source\PSoC6\pdl\drivers\peripheral\prot/cy_prot.c ****                     | (uint32_t)(((uint32_t)config->privPermission & CY_PROT_ATT_PERMISSION_MASK) <
 1371              		.loc 1 891 0
 1372 0042 2300     		movs	r3, r4
 1373 0044 1343     		orrs	r3, r2
 1374              	.LVL137:
 897:Generated_Source\PSoC6\pdl\drivers\peripheral\prot/cy_prot.c ****         if ((attReg & CY_PROT_PPU_GR_ATT0_MASK) != attReg)
 1375              		.loc 1 897 0
 1376 0046 0A4A     		ldr	r2, .L112+4
 1377 0048 1A40     		ands	r2, r3
 1378 004a 9342     		cmp	r3, r2
 1379 004c 09D1     		bne	.L110
 898:Generated_Source\PSoC6\pdl\drivers\peripheral\prot/cy_prot.c ****         {
 899:Generated_Source\PSoC6\pdl\drivers\peripheral\prot/cy_prot.c ****             /* Invalid parameter was passed */
 900:Generated_Source\PSoC6\pdl\drivers\peripheral\prot/cy_prot.c ****             status = CY_PROT_BAD_PARAM;
 901:Generated_Source\PSoC6\pdl\drivers\peripheral\prot/cy_prot.c ****         }
 902:Generated_Source\PSoC6\pdl\drivers\peripheral\prot/cy_prot.c ****         else
 903:Generated_Source\PSoC6\pdl\drivers\peripheral\prot/cy_prot.c ****         {
 904:Generated_Source\PSoC6\pdl\drivers\peripheral\prot/cy_prot.c ****             base->ATT0 = attReg;
 1380              		.loc 1 904 0
 1381 004e 4360     		str	r3, [r0, #4]
 905:Generated_Source\PSoC6\pdl\drivers\peripheral\prot/cy_prot.c ****             status = ((base->ATT0 & CY_PROT_PPU_GR_ATT0_MASK) != attReg) ? CY_PROT_FAILURE : CY_PRO
 1382              		.loc 1 905 0
 1383 0050 4168     		ldr	r1, [r0, #4]
 1384 0052 074A     		ldr	r2, .L112+4
 1385 0054 0A40     		ands	r2, r1
 1386 0056 9342     		cmp	r3, r2
 1387 0058 05D0     		beq	.L111
 1388 005a 0648     		ldr	r0, .L112+8
 1389              	.LVL138:
 1390 005c 04E0     		b	.L108
 1391              	.LVL139:
 1392              	.L109:
 886:Generated_Source\PSoC6\pdl\drivers\peripheral\prot/cy_prot.c ****     }
 1393              		.loc 1 886 0
 1394 005e 0648     		ldr	r0, .L112+12
 1395              	.LVL140:
 1396 0060 02E0     		b	.L108
 1397              	.LVL141:
 1398              	.L110:
 900:Generated_Source\PSoC6\pdl\drivers\peripheral\prot/cy_prot.c ****         }
 1399              		.loc 1 900 0
 1400 0062 0548     		ldr	r0, .L112+12
 1401              	.LVL142:
 1402 0064 00E0     		b	.L108
 1403              	.LVL143:
 1404              	.L111:
 1405              		.loc 1 905 0
 1406 0066 0020     		movs	r0, #0
 1407              	.LVL144:
 1408              	.L108:
ARM GAS  C:\Users\kiwamu\AppData\Local\Temp\ccj1MWYe.s 			page 42


 906:Generated_Source\PSoC6\pdl\drivers\peripheral\prot/cy_prot.c ****         }
 907:Generated_Source\PSoC6\pdl\drivers\peripheral\prot/cy_prot.c ****     }    
 908:Generated_Source\PSoC6\pdl\drivers\peripheral\prot/cy_prot.c ****     return status;
 909:Generated_Source\PSoC6\pdl\drivers\peripheral\prot/cy_prot.c **** }
 1409              		.loc 1 909 0
 1410              		@ sp needed
 1411 0068 70BD     		pop	{r4, r5, r6, pc}
 1412              	.L113:
 1413 006a C046     		.align	2
 1414              	.L112:
 1415 006c 00FEFF00 		.word	16776704
 1416 0070 DBFEFFE0 		.word	-520093989
 1417 0074 0300C200 		.word	12713987
 1418 0078 0100C200 		.word	12713985
 1419              		.cfi_endproc
 1420              	.LFE53:
 1421              		.size	Cy_Prot_ConfigPpuFixedGrSlaveStruct, .-Cy_Prot_ConfigPpuFixedGrSlaveStruct
 1422              		.section	.text.Cy_Prot_EnablePpuFixedGrMasterStruct,"ax",%progbits
 1423              		.align	2
 1424              		.global	Cy_Prot_EnablePpuFixedGrMasterStruct
 1425              		.code	16
 1426              		.thumb_func
 1427              		.type	Cy_Prot_EnablePpuFixedGrMasterStruct, %function
 1428              	Cy_Prot_EnablePpuFixedGrMasterStruct:
 1429              	.LFB54:
 910:Generated_Source\PSoC6\pdl\drivers\peripheral\prot/cy_prot.c **** 
 911:Generated_Source\PSoC6\pdl\drivers\peripheral\prot/cy_prot.c **** 
 912:Generated_Source\PSoC6\pdl\drivers\peripheral\prot/cy_prot.c **** /*******************************************************************************
 913:Generated_Source\PSoC6\pdl\drivers\peripheral\prot/cy_prot.c **** * Function Name: Cy_Prot_EnablePpuFixedGrMasterStruct
 914:Generated_Source\PSoC6\pdl\drivers\peripheral\prot/cy_prot.c **** ****************************************************************************//**
 915:Generated_Source\PSoC6\pdl\drivers\peripheral\prot/cy_prot.c **** *
 916:Generated_Source\PSoC6\pdl\drivers\peripheral\prot/cy_prot.c **** * \brief Enables the Master PPU GR structure.
 917:Generated_Source\PSoC6\pdl\drivers\peripheral\prot/cy_prot.c **** *
 918:Generated_Source\PSoC6\pdl\drivers\peripheral\prot/cy_prot.c **** * This is a PPU GR master struct enable function. The PPU GR protection 
 919:Generated_Source\PSoC6\pdl\drivers\peripheral\prot/cy_prot.c **** * settings will take effect after successful completion of this function call.
 920:Generated_Source\PSoC6\pdl\drivers\peripheral\prot/cy_prot.c **** *
 921:Generated_Source\PSoC6\pdl\drivers\peripheral\prot/cy_prot.c **** * \param base
 922:Generated_Source\PSoC6\pdl\drivers\peripheral\prot/cy_prot.c **** * The base address for the protection unit structure being configured. 
 923:Generated_Source\PSoC6\pdl\drivers\peripheral\prot/cy_prot.c **** *
 924:Generated_Source\PSoC6\pdl\drivers\peripheral\prot/cy_prot.c **** * \return
 925:Generated_Source\PSoC6\pdl\drivers\peripheral\prot/cy_prot.c **** * Status of the function call.
 926:Generated_Source\PSoC6\pdl\drivers\peripheral\prot/cy_prot.c **** *
 927:Generated_Source\PSoC6\pdl\drivers\peripheral\prot/cy_prot.c **** *   Status               | Description
 928:Generated_Source\PSoC6\pdl\drivers\peripheral\prot/cy_prot.c **** *   ------------         | -----------
 929:Generated_Source\PSoC6\pdl\drivers\peripheral\prot/cy_prot.c **** *   CY_PROT_SUCCESS      | The Master PU struct was enabled
 930:Generated_Source\PSoC6\pdl\drivers\peripheral\prot/cy_prot.c **** *   CY_PROT_FAILURE      | The Master PU struct is disabled and possibly locked
 931:Generated_Source\PSoC6\pdl\drivers\peripheral\prot/cy_prot.c **** *  
 932:Generated_Source\PSoC6\pdl\drivers\peripheral\prot/cy_prot.c **** *******************************************************************************/
 933:Generated_Source\PSoC6\pdl\drivers\peripheral\prot/cy_prot.c **** cy_en_prot_status_t Cy_Prot_EnablePpuFixedGrMasterStruct(PERI_PPU_GR_Type* base)
 934:Generated_Source\PSoC6\pdl\drivers\peripheral\prot/cy_prot.c **** {
 1430              		.loc 1 934 0
 1431              		.cfi_startproc
 1432              		@ args = 0, pretend = 0, frame = 0
 1433              		@ frame_needed = 0, uses_anonymous_args = 0
 1434              		@ link register save eliminated.
 1435              	.LVL145:
 935:Generated_Source\PSoC6\pdl\drivers\peripheral\prot/cy_prot.c ****     cy_en_prot_status_t status = CY_PROT_SUCCESS;
ARM GAS  C:\Users\kiwamu\AppData\Local\Temp\ccj1MWYe.s 			page 43


 936:Generated_Source\PSoC6\pdl\drivers\peripheral\prot/cy_prot.c ****     
 937:Generated_Source\PSoC6\pdl\drivers\peripheral\prot/cy_prot.c ****     base->ATT1 |= _VAL2FLD(PERI_PPU_GR_ATT1_ENABLED, CY_PROT_STRUCT_ENABLE);
 1436              		.loc 1 937 0
 1437 0000 436A     		ldr	r3, [r0, #36]
 1438 0002 8022     		movs	r2, #128
 1439 0004 1206     		lsls	r2, r2, #24
 1440 0006 1343     		orrs	r3, r2
 1441 0008 4362     		str	r3, [r0, #36]
 938:Generated_Source\PSoC6\pdl\drivers\peripheral\prot/cy_prot.c ****     status = (_FLD2VAL(PERI_PPU_GR_ATT1_ENABLED, base->ATT1) != CY_PROT_STRUCT_ENABLE) ?
 1442              		.loc 1 938 0
 1443 000a 436A     		ldr	r3, [r0, #36]
 1444 000c 002B     		cmp	r3, #0
 1445 000e 01DB     		blt	.L116
 1446 0010 0148     		ldr	r0, .L117
 1447              	.LVL146:
 1448 0012 00E0     		b	.L115
 1449              	.LVL147:
 1450              	.L116:
 1451 0014 0020     		movs	r0, #0
 1452              	.LVL148:
 1453              	.L115:
 939:Generated_Source\PSoC6\pdl\drivers\peripheral\prot/cy_prot.c ****                 CY_PROT_FAILURE : CY_PROT_SUCCESS;
 940:Generated_Source\PSoC6\pdl\drivers\peripheral\prot/cy_prot.c ****     
 941:Generated_Source\PSoC6\pdl\drivers\peripheral\prot/cy_prot.c ****     return status;
 942:Generated_Source\PSoC6\pdl\drivers\peripheral\prot/cy_prot.c **** }
 1454              		.loc 1 942 0 discriminator 4
 1455              		@ sp needed
 1456 0016 7047     		bx	lr
 1457              	.L118:
 1458              		.align	2
 1459              	.L117:
 1460 0018 0300C200 		.word	12713987
 1461              		.cfi_endproc
 1462              	.LFE54:
 1463              		.size	Cy_Prot_EnablePpuFixedGrMasterStruct, .-Cy_Prot_EnablePpuFixedGrMasterStruct
 1464              		.section	.text.Cy_Prot_DisablePpuFixedGrMasterStruct,"ax",%progbits
 1465              		.align	2
 1466              		.global	Cy_Prot_DisablePpuFixedGrMasterStruct
 1467              		.code	16
 1468              		.thumb_func
 1469              		.type	Cy_Prot_DisablePpuFixedGrMasterStruct, %function
 1470              	Cy_Prot_DisablePpuFixedGrMasterStruct:
 1471              	.LFB55:
 943:Generated_Source\PSoC6\pdl\drivers\peripheral\prot/cy_prot.c **** 
 944:Generated_Source\PSoC6\pdl\drivers\peripheral\prot/cy_prot.c **** 
 945:Generated_Source\PSoC6\pdl\drivers\peripheral\prot/cy_prot.c **** /*******************************************************************************
 946:Generated_Source\PSoC6\pdl\drivers\peripheral\prot/cy_prot.c **** * Function Name: Cy_Prot_DisablePpuFixedGrMasterStruct
 947:Generated_Source\PSoC6\pdl\drivers\peripheral\prot/cy_prot.c **** ****************************************************************************//**
 948:Generated_Source\PSoC6\pdl\drivers\peripheral\prot/cy_prot.c **** *
 949:Generated_Source\PSoC6\pdl\drivers\peripheral\prot/cy_prot.c **** * \brief Disables the Master PPU GR structure.
 950:Generated_Source\PSoC6\pdl\drivers\peripheral\prot/cy_prot.c **** *
 951:Generated_Source\PSoC6\pdl\drivers\peripheral\prot/cy_prot.c **** * This is a PPU GR master struct disable function. The PPU GR protection 
 952:Generated_Source\PSoC6\pdl\drivers\peripheral\prot/cy_prot.c **** * settings will seize to take effect after successful completion of this 
 953:Generated_Source\PSoC6\pdl\drivers\peripheral\prot/cy_prot.c **** * function call.
 954:Generated_Source\PSoC6\pdl\drivers\peripheral\prot/cy_prot.c **** *
 955:Generated_Source\PSoC6\pdl\drivers\peripheral\prot/cy_prot.c **** * \param base
 956:Generated_Source\PSoC6\pdl\drivers\peripheral\prot/cy_prot.c **** * The base address for the protection unit structure being configured. 
ARM GAS  C:\Users\kiwamu\AppData\Local\Temp\ccj1MWYe.s 			page 44


 957:Generated_Source\PSoC6\pdl\drivers\peripheral\prot/cy_prot.c **** *
 958:Generated_Source\PSoC6\pdl\drivers\peripheral\prot/cy_prot.c **** * \return
 959:Generated_Source\PSoC6\pdl\drivers\peripheral\prot/cy_prot.c **** * Status of the function call.
 960:Generated_Source\PSoC6\pdl\drivers\peripheral\prot/cy_prot.c **** *
 961:Generated_Source\PSoC6\pdl\drivers\peripheral\prot/cy_prot.c **** *   Status               | Description
 962:Generated_Source\PSoC6\pdl\drivers\peripheral\prot/cy_prot.c **** *   ------------         | -----------
 963:Generated_Source\PSoC6\pdl\drivers\peripheral\prot/cy_prot.c **** *   CY_PROT_SUCCESS      | The Master PU struct was disabled
 964:Generated_Source\PSoC6\pdl\drivers\peripheral\prot/cy_prot.c **** *   CY_PROT_FAILURE      | The Master PU struct is enabled and possibly locked
 965:Generated_Source\PSoC6\pdl\drivers\peripheral\prot/cy_prot.c **** *  
 966:Generated_Source\PSoC6\pdl\drivers\peripheral\prot/cy_prot.c **** *******************************************************************************/
 967:Generated_Source\PSoC6\pdl\drivers\peripheral\prot/cy_prot.c **** cy_en_prot_status_t Cy_Prot_DisablePpuFixedGrMasterStruct(PERI_PPU_GR_Type* base)
 968:Generated_Source\PSoC6\pdl\drivers\peripheral\prot/cy_prot.c **** {
 1472              		.loc 1 968 0
 1473              		.cfi_startproc
 1474              		@ args = 0, pretend = 0, frame = 0
 1475              		@ frame_needed = 0, uses_anonymous_args = 0
 1476              		@ link register save eliminated.
 1477              	.LVL149:
 969:Generated_Source\PSoC6\pdl\drivers\peripheral\prot/cy_prot.c ****     cy_en_prot_status_t status = CY_PROT_SUCCESS;
 970:Generated_Source\PSoC6\pdl\drivers\peripheral\prot/cy_prot.c ****     
 971:Generated_Source\PSoC6\pdl\drivers\peripheral\prot/cy_prot.c ****     base->ATT1 &= ~_VAL2FLD(PERI_PPU_GR_ATT1_ENABLED, CY_PROT_STRUCT_ENABLE);
 1478              		.loc 1 971 0
 1479 0000 436A     		ldr	r3, [r0, #36]
 1480 0002 5B00     		lsls	r3, r3, #1
 1481 0004 5B08     		lsrs	r3, r3, #1
 1482 0006 4362     		str	r3, [r0, #36]
 972:Generated_Source\PSoC6\pdl\drivers\peripheral\prot/cy_prot.c ****     status = (_FLD2VAL(PERI_PPU_GR_ATT1_ENABLED, base->ATT1) == CY_PROT_STRUCT_ENABLE) ?
 1483              		.loc 1 972 0
 1484 0008 436A     		ldr	r3, [r0, #36]
 1485 000a 002B     		cmp	r3, #0
 1486 000c 01DA     		bge	.L121
 1487 000e 0248     		ldr	r0, .L122
 1488              	.LVL150:
 1489 0010 00E0     		b	.L120
 1490              	.LVL151:
 1491              	.L121:
 1492 0012 0020     		movs	r0, #0
 1493              	.LVL152:
 1494              	.L120:
 973:Generated_Source\PSoC6\pdl\drivers\peripheral\prot/cy_prot.c ****                 CY_PROT_FAILURE : CY_PROT_SUCCESS;
 974:Generated_Source\PSoC6\pdl\drivers\peripheral\prot/cy_prot.c ****     
 975:Generated_Source\PSoC6\pdl\drivers\peripheral\prot/cy_prot.c ****     return status;
 976:Generated_Source\PSoC6\pdl\drivers\peripheral\prot/cy_prot.c **** }
 1495              		.loc 1 976 0 discriminator 4
 1496              		@ sp needed
 1497 0014 7047     		bx	lr
 1498              	.L123:
 1499 0016 C046     		.align	2
 1500              	.L122:
 1501 0018 0300C200 		.word	12713987
 1502              		.cfi_endproc
 1503              	.LFE55:
 1504              		.size	Cy_Prot_DisablePpuFixedGrMasterStruct, .-Cy_Prot_DisablePpuFixedGrMasterStruct
 1505              		.section	.text.Cy_Prot_EnablePpuFixedGrSlaveStruct,"ax",%progbits
 1506              		.align	2
 1507              		.global	Cy_Prot_EnablePpuFixedGrSlaveStruct
 1508              		.code	16
ARM GAS  C:\Users\kiwamu\AppData\Local\Temp\ccj1MWYe.s 			page 45


 1509              		.thumb_func
 1510              		.type	Cy_Prot_EnablePpuFixedGrSlaveStruct, %function
 1511              	Cy_Prot_EnablePpuFixedGrSlaveStruct:
 1512              	.LFB56:
 977:Generated_Source\PSoC6\pdl\drivers\peripheral\prot/cy_prot.c **** 
 978:Generated_Source\PSoC6\pdl\drivers\peripheral\prot/cy_prot.c **** 
 979:Generated_Source\PSoC6\pdl\drivers\peripheral\prot/cy_prot.c **** /*******************************************************************************
 980:Generated_Source\PSoC6\pdl\drivers\peripheral\prot/cy_prot.c **** * Function Name: Cy_Prot_EnablePpuFixedGrSlaveStruct
 981:Generated_Source\PSoC6\pdl\drivers\peripheral\prot/cy_prot.c **** ****************************************************************************//**
 982:Generated_Source\PSoC6\pdl\drivers\peripheral\prot/cy_prot.c **** *
 983:Generated_Source\PSoC6\pdl\drivers\peripheral\prot/cy_prot.c **** * \brief Enables the Slave PPU GR structure.
 984:Generated_Source\PSoC6\pdl\drivers\peripheral\prot/cy_prot.c **** *
 985:Generated_Source\PSoC6\pdl\drivers\peripheral\prot/cy_prot.c **** * This is a PPU GR slave struct enable function. The PPU GR protection 
 986:Generated_Source\PSoC6\pdl\drivers\peripheral\prot/cy_prot.c **** * settings will take effect after successful completion of this function call.
 987:Generated_Source\PSoC6\pdl\drivers\peripheral\prot/cy_prot.c **** *
 988:Generated_Source\PSoC6\pdl\drivers\peripheral\prot/cy_prot.c **** * \param base
 989:Generated_Source\PSoC6\pdl\drivers\peripheral\prot/cy_prot.c **** * The base address for the protection unit structure being configured. 
 990:Generated_Source\PSoC6\pdl\drivers\peripheral\prot/cy_prot.c **** *
 991:Generated_Source\PSoC6\pdl\drivers\peripheral\prot/cy_prot.c **** * \return
 992:Generated_Source\PSoC6\pdl\drivers\peripheral\prot/cy_prot.c **** * Status of the function call.
 993:Generated_Source\PSoC6\pdl\drivers\peripheral\prot/cy_prot.c **** *
 994:Generated_Source\PSoC6\pdl\drivers\peripheral\prot/cy_prot.c **** *   Status               | Description
 995:Generated_Source\PSoC6\pdl\drivers\peripheral\prot/cy_prot.c **** *   ------------         | -----------
 996:Generated_Source\PSoC6\pdl\drivers\peripheral\prot/cy_prot.c **** *   CY_PROT_SUCCESS      | The Slave PU struct was enabled
 997:Generated_Source\PSoC6\pdl\drivers\peripheral\prot/cy_prot.c **** *   CY_PROT_FAILURE      | The Slave PU struct is disabled and possibly locked
 998:Generated_Source\PSoC6\pdl\drivers\peripheral\prot/cy_prot.c **** *  
 999:Generated_Source\PSoC6\pdl\drivers\peripheral\prot/cy_prot.c **** *******************************************************************************/
1000:Generated_Source\PSoC6\pdl\drivers\peripheral\prot/cy_prot.c **** cy_en_prot_status_t Cy_Prot_EnablePpuFixedGrSlaveStruct(PERI_PPU_GR_Type* base)
1001:Generated_Source\PSoC6\pdl\drivers\peripheral\prot/cy_prot.c **** {   
 1513              		.loc 1 1001 0
 1514              		.cfi_startproc
 1515              		@ args = 0, pretend = 0, frame = 0
 1516              		@ frame_needed = 0, uses_anonymous_args = 0
 1517              		@ link register save eliminated.
 1518              	.LVL153:
1002:Generated_Source\PSoC6\pdl\drivers\peripheral\prot/cy_prot.c ****     cy_en_prot_status_t status = CY_PROT_SUCCESS;
1003:Generated_Source\PSoC6\pdl\drivers\peripheral\prot/cy_prot.c ****     
1004:Generated_Source\PSoC6\pdl\drivers\peripheral\prot/cy_prot.c ****     base->ATT0 |= _VAL2FLD(PERI_PPU_GR_ATT0_ENABLED, CY_PROT_STRUCT_ENABLE);
 1519              		.loc 1 1004 0
 1520 0000 4368     		ldr	r3, [r0, #4]
 1521 0002 8022     		movs	r2, #128
 1522 0004 1206     		lsls	r2, r2, #24
 1523 0006 1343     		orrs	r3, r2
 1524 0008 4360     		str	r3, [r0, #4]
1005:Generated_Source\PSoC6\pdl\drivers\peripheral\prot/cy_prot.c ****     status = (_FLD2VAL(PERI_PPU_GR_ATT0_ENABLED, base->ATT0) != CY_PROT_STRUCT_ENABLE) ?
 1525              		.loc 1 1005 0
 1526 000a 4368     		ldr	r3, [r0, #4]
 1527 000c 002B     		cmp	r3, #0
 1528 000e 01DB     		blt	.L126
 1529 0010 0148     		ldr	r0, .L127
 1530              	.LVL154:
 1531 0012 00E0     		b	.L125
 1532              	.LVL155:
 1533              	.L126:
 1534 0014 0020     		movs	r0, #0
 1535              	.LVL156:
 1536              	.L125:
ARM GAS  C:\Users\kiwamu\AppData\Local\Temp\ccj1MWYe.s 			page 46


1006:Generated_Source\PSoC6\pdl\drivers\peripheral\prot/cy_prot.c ****                 CY_PROT_FAILURE : CY_PROT_SUCCESS;
1007:Generated_Source\PSoC6\pdl\drivers\peripheral\prot/cy_prot.c ****     
1008:Generated_Source\PSoC6\pdl\drivers\peripheral\prot/cy_prot.c ****     return status;
1009:Generated_Source\PSoC6\pdl\drivers\peripheral\prot/cy_prot.c **** }
 1537              		.loc 1 1009 0 discriminator 4
 1538              		@ sp needed
 1539 0016 7047     		bx	lr
 1540              	.L128:
 1541              		.align	2
 1542              	.L127:
 1543 0018 0300C200 		.word	12713987
 1544              		.cfi_endproc
 1545              	.LFE56:
 1546              		.size	Cy_Prot_EnablePpuFixedGrSlaveStruct, .-Cy_Prot_EnablePpuFixedGrSlaveStruct
 1547              		.section	.text.Cy_Prot_DisablePpuFixedGrSlaveStruct,"ax",%progbits
 1548              		.align	2
 1549              		.global	Cy_Prot_DisablePpuFixedGrSlaveStruct
 1550              		.code	16
 1551              		.thumb_func
 1552              		.type	Cy_Prot_DisablePpuFixedGrSlaveStruct, %function
 1553              	Cy_Prot_DisablePpuFixedGrSlaveStruct:
 1554              	.LFB57:
1010:Generated_Source\PSoC6\pdl\drivers\peripheral\prot/cy_prot.c **** 
1011:Generated_Source\PSoC6\pdl\drivers\peripheral\prot/cy_prot.c **** 
1012:Generated_Source\PSoC6\pdl\drivers\peripheral\prot/cy_prot.c **** /*******************************************************************************
1013:Generated_Source\PSoC6\pdl\drivers\peripheral\prot/cy_prot.c **** * Function Name: Cy_Prot_DisablePpuFixedGrSlaveStruct
1014:Generated_Source\PSoC6\pdl\drivers\peripheral\prot/cy_prot.c **** ****************************************************************************//**
1015:Generated_Source\PSoC6\pdl\drivers\peripheral\prot/cy_prot.c **** *
1016:Generated_Source\PSoC6\pdl\drivers\peripheral\prot/cy_prot.c **** * \brief Disables the Slave PPU GR structure.
1017:Generated_Source\PSoC6\pdl\drivers\peripheral\prot/cy_prot.c **** *
1018:Generated_Source\PSoC6\pdl\drivers\peripheral\prot/cy_prot.c **** * This is a PPU GR slave struct disable function. The PPU GR protection 
1019:Generated_Source\PSoC6\pdl\drivers\peripheral\prot/cy_prot.c **** * settings will seize to take effect after successful completion of this 
1020:Generated_Source\PSoC6\pdl\drivers\peripheral\prot/cy_prot.c **** * function call.
1021:Generated_Source\PSoC6\pdl\drivers\peripheral\prot/cy_prot.c **** *
1022:Generated_Source\PSoC6\pdl\drivers\peripheral\prot/cy_prot.c **** * \param base
1023:Generated_Source\PSoC6\pdl\drivers\peripheral\prot/cy_prot.c **** * The base address for the protection unit structure being configured. 
1024:Generated_Source\PSoC6\pdl\drivers\peripheral\prot/cy_prot.c **** *
1025:Generated_Source\PSoC6\pdl\drivers\peripheral\prot/cy_prot.c **** * \return
1026:Generated_Source\PSoC6\pdl\drivers\peripheral\prot/cy_prot.c **** * Status of the function call.
1027:Generated_Source\PSoC6\pdl\drivers\peripheral\prot/cy_prot.c **** *
1028:Generated_Source\PSoC6\pdl\drivers\peripheral\prot/cy_prot.c **** *   Status               | Description
1029:Generated_Source\PSoC6\pdl\drivers\peripheral\prot/cy_prot.c **** *   ------------         | -----------
1030:Generated_Source\PSoC6\pdl\drivers\peripheral\prot/cy_prot.c **** *   CY_PROT_SUCCESS      | The Slave PU struct was disabled
1031:Generated_Source\PSoC6\pdl\drivers\peripheral\prot/cy_prot.c **** *   CY_PROT_FAILURE      | The Slave PU struct is enabled and possibly locked
1032:Generated_Source\PSoC6\pdl\drivers\peripheral\prot/cy_prot.c **** *  
1033:Generated_Source\PSoC6\pdl\drivers\peripheral\prot/cy_prot.c **** *******************************************************************************/
1034:Generated_Source\PSoC6\pdl\drivers\peripheral\prot/cy_prot.c **** cy_en_prot_status_t Cy_Prot_DisablePpuFixedGrSlaveStruct(PERI_PPU_GR_Type* base)
1035:Generated_Source\PSoC6\pdl\drivers\peripheral\prot/cy_prot.c **** {
 1555              		.loc 1 1035 0
 1556              		.cfi_startproc
 1557              		@ args = 0, pretend = 0, frame = 0
 1558              		@ frame_needed = 0, uses_anonymous_args = 0
 1559              		@ link register save eliminated.
 1560              	.LVL157:
1036:Generated_Source\PSoC6\pdl\drivers\peripheral\prot/cy_prot.c ****     cy_en_prot_status_t status = CY_PROT_SUCCESS;
1037:Generated_Source\PSoC6\pdl\drivers\peripheral\prot/cy_prot.c ****     
1038:Generated_Source\PSoC6\pdl\drivers\peripheral\prot/cy_prot.c ****     base->ATT0 &= ~_VAL2FLD(PERI_PPU_GR_ATT0_ENABLED, CY_PROT_STRUCT_ENABLE);
ARM GAS  C:\Users\kiwamu\AppData\Local\Temp\ccj1MWYe.s 			page 47


 1561              		.loc 1 1038 0
 1562 0000 4368     		ldr	r3, [r0, #4]
 1563 0002 5B00     		lsls	r3, r3, #1
 1564 0004 5B08     		lsrs	r3, r3, #1
 1565 0006 4360     		str	r3, [r0, #4]
1039:Generated_Source\PSoC6\pdl\drivers\peripheral\prot/cy_prot.c ****     status = (_FLD2VAL(PERI_PPU_GR_ATT0_ENABLED, base->ATT0) == CY_PROT_STRUCT_ENABLE) ?
 1566              		.loc 1 1039 0
 1567 0008 4368     		ldr	r3, [r0, #4]
 1568 000a 002B     		cmp	r3, #0
 1569 000c 01DA     		bge	.L131
 1570 000e 0248     		ldr	r0, .L132
 1571              	.LVL158:
 1572 0010 00E0     		b	.L130
 1573              	.LVL159:
 1574              	.L131:
 1575 0012 0020     		movs	r0, #0
 1576              	.LVL160:
 1577              	.L130:
1040:Generated_Source\PSoC6\pdl\drivers\peripheral\prot/cy_prot.c ****                 CY_PROT_FAILURE : CY_PROT_SUCCESS;
1041:Generated_Source\PSoC6\pdl\drivers\peripheral\prot/cy_prot.c ****     
1042:Generated_Source\PSoC6\pdl\drivers\peripheral\prot/cy_prot.c ****     return status;
1043:Generated_Source\PSoC6\pdl\drivers\peripheral\prot/cy_prot.c **** }
 1578              		.loc 1 1043 0 discriminator 4
 1579              		@ sp needed
 1580 0014 7047     		bx	lr
 1581              	.L133:
 1582 0016 C046     		.align	2
 1583              	.L132:
 1584 0018 0300C200 		.word	12713987
 1585              		.cfi_endproc
 1586              	.LFE57:
 1587              		.size	Cy_Prot_DisablePpuFixedGrSlaveStruct, .-Cy_Prot_DisablePpuFixedGrSlaveStruct
 1588              		.section	.text.Cy_Prot_ConfigPpuFixedSlMasterStruct,"ax",%progbits
 1589              		.align	2
 1590              		.global	Cy_Prot_ConfigPpuFixedSlMasterStruct
 1591              		.code	16
 1592              		.thumb_func
 1593              		.type	Cy_Prot_ConfigPpuFixedSlMasterStruct, %function
 1594              	Cy_Prot_ConfigPpuFixedSlMasterStruct:
 1595              	.LFB58:
1044:Generated_Source\PSoC6\pdl\drivers\peripheral\prot/cy_prot.c **** 
1045:Generated_Source\PSoC6\pdl\drivers\peripheral\prot/cy_prot.c **** 
1046:Generated_Source\PSoC6\pdl\drivers\peripheral\prot/cy_prot.c **** /*******************************************************************************
1047:Generated_Source\PSoC6\pdl\drivers\peripheral\prot/cy_prot.c **** * Function Name: Cy_Prot_ConfigPpuFixedSlMasterStruct
1048:Generated_Source\PSoC6\pdl\drivers\peripheral\prot/cy_prot.c **** ****************************************************************************//**
1049:Generated_Source\PSoC6\pdl\drivers\peripheral\prot/cy_prot.c **** *
1050:Generated_Source\PSoC6\pdl\drivers\peripheral\prot/cy_prot.c **** * \brief Configures a Fixed Peripheral Slave Protection Unit (PPU SL) master 
1051:Generated_Source\PSoC6\pdl\drivers\peripheral\prot/cy_prot.c **** * protection struct with its protection attributes. 
1052:Generated_Source\PSoC6\pdl\drivers\peripheral\prot/cy_prot.c **** *
1053:Generated_Source\PSoC6\pdl\drivers\peripheral\prot/cy_prot.c **** * This function configures the master struct governing the corresponding slave
1054:Generated_Source\PSoC6\pdl\drivers\peripheral\prot/cy_prot.c **** * struct pair. It is a mechanism to protect the slave PPU SL struct. Since
1055:Generated_Source\PSoC6\pdl\drivers\peripheral\prot/cy_prot.c **** * the memory location of the slave struct is known, the address, regionSize and
1056:Generated_Source\PSoC6\pdl\drivers\peripheral\prot/cy_prot.c **** * subregions of the configuration struct are not applicable.
1057:Generated_Source\PSoC6\pdl\drivers\peripheral\prot/cy_prot.c **** *
1058:Generated_Source\PSoC6\pdl\drivers\peripheral\prot/cy_prot.c **** * Note that only the user/privileged write permissions are configurable. The 
1059:Generated_Source\PSoC6\pdl\drivers\peripheral\prot/cy_prot.c **** * read and execute permissions are read-only and cannot be configured.
1060:Generated_Source\PSoC6\pdl\drivers\peripheral\prot/cy_prot.c **** *
ARM GAS  C:\Users\kiwamu\AppData\Local\Temp\ccj1MWYe.s 			page 48


1061:Generated_Source\PSoC6\pdl\drivers\peripheral\prot/cy_prot.c **** * \param base
1062:Generated_Source\PSoC6\pdl\drivers\peripheral\prot/cy_prot.c **** * The register base address of the protection struct being configured.
1063:Generated_Source\PSoC6\pdl\drivers\peripheral\prot/cy_prot.c **** * 
1064:Generated_Source\PSoC6\pdl\drivers\peripheral\prot/cy_prot.c **** * \param config
1065:Generated_Source\PSoC6\pdl\drivers\peripheral\prot/cy_prot.c **** * Initialization structure with all the protection attributes.
1066:Generated_Source\PSoC6\pdl\drivers\peripheral\prot/cy_prot.c **** * 
1067:Generated_Source\PSoC6\pdl\drivers\peripheral\prot/cy_prot.c **** * \return
1068:Generated_Source\PSoC6\pdl\drivers\peripheral\prot/cy_prot.c **** * Status of the function call.
1069:Generated_Source\PSoC6\pdl\drivers\peripheral\prot/cy_prot.c **** *
1070:Generated_Source\PSoC6\pdl\drivers\peripheral\prot/cy_prot.c **** *   Status               | Description
1071:Generated_Source\PSoC6\pdl\drivers\peripheral\prot/cy_prot.c **** *   ------------         | -----------
1072:Generated_Source\PSoC6\pdl\drivers\peripheral\prot/cy_prot.c **** *   CY_PROT_SUCCESS      | PPU SL master struct was successfully configured
1073:Generated_Source\PSoC6\pdl\drivers\peripheral\prot/cy_prot.c **** *   CY_PROT_FAILURE      | The resource is locked
1074:Generated_Source\PSoC6\pdl\drivers\peripheral\prot/cy_prot.c **** *   CY_PROT_BAD_PARAM    | An incorrect/invalid parameter was passed
1075:Generated_Source\PSoC6\pdl\drivers\peripheral\prot/cy_prot.c **** *  
1076:Generated_Source\PSoC6\pdl\drivers\peripheral\prot/cy_prot.c **** *******************************************************************************/
1077:Generated_Source\PSoC6\pdl\drivers\peripheral\prot/cy_prot.c **** cy_en_prot_status_t Cy_Prot_ConfigPpuFixedSlMasterStruct(PERI_GR_PPU_SL_Type* base, const cy_stc_pp
1078:Generated_Source\PSoC6\pdl\drivers\peripheral\prot/cy_prot.c **** {
 1596              		.loc 1 1078 0
 1597              		.cfi_startproc
 1598              		@ args = 0, pretend = 0, frame = 0
 1599              		@ frame_needed = 0, uses_anonymous_args = 0
 1600              	.LVL161:
 1601 0000 70B5     		push	{r4, r5, r6, lr}
 1602              		.cfi_def_cfa_offset 16
 1603              		.cfi_offset 4, -16
 1604              		.cfi_offset 5, -12
 1605              		.cfi_offset 6, -8
 1606              		.cfi_offset 14, -4
 1607              	.LVL162:
1079:Generated_Source\PSoC6\pdl\drivers\peripheral\prot/cy_prot.c ****     cy_en_prot_status_t status = CY_PROT_SUCCESS;
1080:Generated_Source\PSoC6\pdl\drivers\peripheral\prot/cy_prot.c ****     uint32_t attReg;
1081:Generated_Source\PSoC6\pdl\drivers\peripheral\prot/cy_prot.c ****     
1082:Generated_Source\PSoC6\pdl\drivers\peripheral\prot/cy_prot.c ****     if(((uint32_t)config->pcMask & CY_PROT_PPU_FIXED_PC_LIMIT_MASK) != 0UL) 
 1608              		.loc 1 1082 0
 1609 0002 8C88     		ldrh	r4, [r1, #4]
 1610 0004 7F23     		movs	r3, #127
 1611 0006 2200     		movs	r2, r4
 1612 0008 9A43     		bics	r2, r3
 1613 000a 28D1     		bne	.L136
1083:Generated_Source\PSoC6\pdl\drivers\peripheral\prot/cy_prot.c ****     {
1084:Generated_Source\PSoC6\pdl\drivers\peripheral\prot/cy_prot.c ****         /* PC mask out of range - not supported in device */
1085:Generated_Source\PSoC6\pdl\drivers\peripheral\prot/cy_prot.c ****         status = CY_PROT_BAD_PARAM;
1086:Generated_Source\PSoC6\pdl\drivers\peripheral\prot/cy_prot.c ****     }
1087:Generated_Source\PSoC6\pdl\drivers\peripheral\prot/cy_prot.c ****     else
1088:Generated_Source\PSoC6\pdl\drivers\peripheral\prot/cy_prot.c ****     {
1089:Generated_Source\PSoC6\pdl\drivers\peripheral\prot/cy_prot.c ****         /* ADDR1 is read only. Only configure ATT1 */
1090:Generated_Source\PSoC6\pdl\drivers\peripheral\prot/cy_prot.c ****         attReg = ((uint32_t)config->userPermission & CY_PROT_ATT_PERMISSION_MASK)
 1614              		.loc 1 1090 0
 1615 000c 0B78     		ldrb	r3, [r1]
 1616 000e 0725     		movs	r5, #7
 1617 0010 1D40     		ands	r5, r3
1091:Generated_Source\PSoC6\pdl\drivers\peripheral\prot/cy_prot.c ****                     | (uint32_t)(((uint32_t)config->privPermission & CY_PROT_ATT_PERMISSION_MASK) <
 1618              		.loc 1 1091 0
 1619 0012 4A78     		ldrb	r2, [r1, #1]
 1620 0014 D200     		lsls	r2, r2, #3
 1621 0016 3823     		movs	r3, #56
ARM GAS  C:\Users\kiwamu\AppData\Local\Temp\ccj1MWYe.s 			page 49


 1622 0018 1340     		ands	r3, r2
 1623 001a 1D43     		orrs	r5, r3
1092:Generated_Source\PSoC6\pdl\drivers\peripheral\prot/cy_prot.c ****                     | _VAL2FLD(PERI_GR_PPU_SL_ATT1_NS, !(config->secure))
 1624              		.loc 1 1092 0
 1625 001c 8B78     		ldrb	r3, [r1, #2]
 1626 001e 0122     		movs	r2, #1
 1627 0020 5A40     		eors	r2, r3
 1628 0022 D2B2     		uxtb	r2, r2
 1629 0024 9201     		lsls	r2, r2, #6
 1630 0026 4023     		movs	r3, #64
 1631 0028 1A40     		ands	r2, r3
 1632 002a 2B00     		movs	r3, r5
 1633 002c 1343     		orrs	r3, r2
1093:Generated_Source\PSoC6\pdl\drivers\peripheral\prot/cy_prot.c ****                     | _VAL2FLD(PERI_GR_PPU_SL_ATT1_PC_MASK_15_TO_1, config->pcMask)
 1634              		.loc 1 1093 0
 1635 002e 6402     		lsls	r4, r4, #9
 1636 0030 0E4A     		ldr	r2, .L139
 1637 0032 1440     		ands	r4, r2
 1638 0034 1C43     		orrs	r4, r3
1094:Generated_Source\PSoC6\pdl\drivers\peripheral\prot/cy_prot.c ****                     /* No region size - read only for master structs */
1095:Generated_Source\PSoC6\pdl\drivers\peripheral\prot/cy_prot.c ****                     | _VAL2FLD(PERI_GR_PPU_SL_ATT1_PC_MATCH, config->pcMatch);
 1639              		.loc 1 1095 0
 1640 0036 CB78     		ldrb	r3, [r1, #3]
 1641 0038 9B07     		lsls	r3, r3, #30
 1642 003a 8021     		movs	r1, #128
 1643              	.LVL163:
 1644 003c C905     		lsls	r1, r1, #23
 1645 003e 0B40     		ands	r3, r1
 1646 0040 1A00     		movs	r2, r3
1090:Generated_Source\PSoC6\pdl\drivers\peripheral\prot/cy_prot.c ****                     | (uint32_t)(((uint32_t)config->privPermission & CY_PROT_ATT_PERMISSION_MASK) <
 1647              		.loc 1 1090 0
 1648 0042 2300     		movs	r3, r4
 1649 0044 1343     		orrs	r3, r2
 1650              	.LVL164:
1096:Generated_Source\PSoC6\pdl\drivers\peripheral\prot/cy_prot.c ****         if ((attReg & CY_PROT_PPU_SL_ATT1_MASK) != attReg)
 1651              		.loc 1 1096 0
 1652 0046 0A4A     		ldr	r2, .L139+4
 1653 0048 1A40     		ands	r2, r3
 1654 004a 9342     		cmp	r3, r2
 1655 004c 09D1     		bne	.L137
1097:Generated_Source\PSoC6\pdl\drivers\peripheral\prot/cy_prot.c ****         {
1098:Generated_Source\PSoC6\pdl\drivers\peripheral\prot/cy_prot.c ****             /* Invalid parameter was passed */
1099:Generated_Source\PSoC6\pdl\drivers\peripheral\prot/cy_prot.c ****             status = CY_PROT_BAD_PARAM;
1100:Generated_Source\PSoC6\pdl\drivers\peripheral\prot/cy_prot.c ****         }
1101:Generated_Source\PSoC6\pdl\drivers\peripheral\prot/cy_prot.c ****         else
1102:Generated_Source\PSoC6\pdl\drivers\peripheral\prot/cy_prot.c ****         {
1103:Generated_Source\PSoC6\pdl\drivers\peripheral\prot/cy_prot.c ****             base->ATT1 = attReg;
 1656              		.loc 1 1103 0
 1657 004e 4362     		str	r3, [r0, #36]
1104:Generated_Source\PSoC6\pdl\drivers\peripheral\prot/cy_prot.c ****             status = ((base->ATT1 & CY_PROT_PPU_SL_ATT1_MASK) != attReg) ? CY_PROT_FAILURE : CY_PRO
 1658              		.loc 1 1104 0
 1659 0050 416A     		ldr	r1, [r0, #36]
 1660 0052 074A     		ldr	r2, .L139+4
 1661 0054 0A40     		ands	r2, r1
 1662 0056 9342     		cmp	r3, r2
 1663 0058 05D0     		beq	.L138
 1664 005a 0648     		ldr	r0, .L139+8
ARM GAS  C:\Users\kiwamu\AppData\Local\Temp\ccj1MWYe.s 			page 50


 1665              	.LVL165:
 1666 005c 04E0     		b	.L135
 1667              	.LVL166:
 1668              	.L136:
1085:Generated_Source\PSoC6\pdl\drivers\peripheral\prot/cy_prot.c ****     }
 1669              		.loc 1 1085 0
 1670 005e 0648     		ldr	r0, .L139+12
 1671              	.LVL167:
 1672 0060 02E0     		b	.L135
 1673              	.LVL168:
 1674              	.L137:
1099:Generated_Source\PSoC6\pdl\drivers\peripheral\prot/cy_prot.c ****         }
 1675              		.loc 1 1099 0
 1676 0062 0548     		ldr	r0, .L139+12
 1677              	.LVL169:
 1678 0064 00E0     		b	.L135
 1679              	.LVL170:
 1680              	.L138:
 1681              		.loc 1 1104 0
 1682 0066 0020     		movs	r0, #0
 1683              	.LVL171:
 1684              	.L135:
1105:Generated_Source\PSoC6\pdl\drivers\peripheral\prot/cy_prot.c ****         }
1106:Generated_Source\PSoC6\pdl\drivers\peripheral\prot/cy_prot.c ****     }
1107:Generated_Source\PSoC6\pdl\drivers\peripheral\prot/cy_prot.c ****     
1108:Generated_Source\PSoC6\pdl\drivers\peripheral\prot/cy_prot.c ****     return status;
1109:Generated_Source\PSoC6\pdl\drivers\peripheral\prot/cy_prot.c **** }
 1685              		.loc 1 1109 0
 1686              		@ sp needed
 1687 0068 70BD     		pop	{r4, r5, r6, pc}
 1688              	.L140:
 1689 006a C046     		.align	2
 1690              	.L139:
 1691 006c 00FEFF00 		.word	16776704
 1692 0070 D2FEFFE0 		.word	-520093998
 1693 0074 0300C200 		.word	12713987
 1694 0078 0100C200 		.word	12713985
 1695              		.cfi_endproc
 1696              	.LFE58:
 1697              		.size	Cy_Prot_ConfigPpuFixedSlMasterStruct, .-Cy_Prot_ConfigPpuFixedSlMasterStruct
 1698              		.section	.text.Cy_Prot_ConfigPpuFixedSlSlaveStruct,"ax",%progbits
 1699              		.align	2
 1700              		.global	Cy_Prot_ConfigPpuFixedSlSlaveStruct
 1701              		.code	16
 1702              		.thumb_func
 1703              		.type	Cy_Prot_ConfigPpuFixedSlSlaveStruct, %function
 1704              	Cy_Prot_ConfigPpuFixedSlSlaveStruct:
 1705              	.LFB59:
1110:Generated_Source\PSoC6\pdl\drivers\peripheral\prot/cy_prot.c **** 
1111:Generated_Source\PSoC6\pdl\drivers\peripheral\prot/cy_prot.c **** 
1112:Generated_Source\PSoC6\pdl\drivers\peripheral\prot/cy_prot.c **** /*******************************************************************************
1113:Generated_Source\PSoC6\pdl\drivers\peripheral\prot/cy_prot.c **** * Function Name: Cy_Prot_ConfigPpuFixedSlSlaveStruct
1114:Generated_Source\PSoC6\pdl\drivers\peripheral\prot/cy_prot.c **** ****************************************************************************//**
1115:Generated_Source\PSoC6\pdl\drivers\peripheral\prot/cy_prot.c **** *
1116:Generated_Source\PSoC6\pdl\drivers\peripheral\prot/cy_prot.c **** * \brief Configures a Fixed Peripheral Slave Protection Unit (PPU SL) slave
1117:Generated_Source\PSoC6\pdl\drivers\peripheral\prot/cy_prot.c **** * protection struct with its protection attributes. 
1118:Generated_Source\PSoC6\pdl\drivers\peripheral\prot/cy_prot.c **** * 
ARM GAS  C:\Users\kiwamu\AppData\Local\Temp\ccj1MWYe.s 			page 51


1119:Generated_Source\PSoC6\pdl\drivers\peripheral\prot/cy_prot.c **** * This function configures the slave struct of a PPU SL pair, which can 
1120:Generated_Source\PSoC6\pdl\drivers\peripheral\prot/cy_prot.c **** * protect an entire peripheral slave instance from invalid bus master accesses.
1121:Generated_Source\PSoC6\pdl\drivers\peripheral\prot/cy_prot.c **** * For example, TCPWM0, TCPWM1, SCB0 and SCB1 etc.
1122:Generated_Source\PSoC6\pdl\drivers\peripheral\prot/cy_prot.c **** *
1123:Generated_Source\PSoC6\pdl\drivers\peripheral\prot/cy_prot.c **** * Each fixed PPU SL is devoted to a defined peripheral slave. Hence the address, 
1124:Generated_Source\PSoC6\pdl\drivers\peripheral\prot/cy_prot.c **** * regionSize and subregions of the configuration struct are not applicable.
1125:Generated_Source\PSoC6\pdl\drivers\peripheral\prot/cy_prot.c **** *
1126:Generated_Source\PSoC6\pdl\drivers\peripheral\prot/cy_prot.c **** * Note that the user/privileged execute accesses are read-only and are always 
1127:Generated_Source\PSoC6\pdl\drivers\peripheral\prot/cy_prot.c **** * enabled. 
1128:Generated_Source\PSoC6\pdl\drivers\peripheral\prot/cy_prot.c **** *
1129:Generated_Source\PSoC6\pdl\drivers\peripheral\prot/cy_prot.c **** * \param base
1130:Generated_Source\PSoC6\pdl\drivers\peripheral\prot/cy_prot.c **** * The register base address of the protection structure being configured.
1131:Generated_Source\PSoC6\pdl\drivers\peripheral\prot/cy_prot.c **** * 
1132:Generated_Source\PSoC6\pdl\drivers\peripheral\prot/cy_prot.c **** * \param config
1133:Generated_Source\PSoC6\pdl\drivers\peripheral\prot/cy_prot.c **** * Initialization structure with all the protection attributes.
1134:Generated_Source\PSoC6\pdl\drivers\peripheral\prot/cy_prot.c **** * 
1135:Generated_Source\PSoC6\pdl\drivers\peripheral\prot/cy_prot.c **** * \return
1136:Generated_Source\PSoC6\pdl\drivers\peripheral\prot/cy_prot.c **** * Status of the function call.
1137:Generated_Source\PSoC6\pdl\drivers\peripheral\prot/cy_prot.c **** *
1138:Generated_Source\PSoC6\pdl\drivers\peripheral\prot/cy_prot.c **** *   Status               | Description
1139:Generated_Source\PSoC6\pdl\drivers\peripheral\prot/cy_prot.c **** *   ------------         | -----------
1140:Generated_Source\PSoC6\pdl\drivers\peripheral\prot/cy_prot.c **** *   CY_PROT_SUCCESS      | PPU SL slave struct was successfully configured
1141:Generated_Source\PSoC6\pdl\drivers\peripheral\prot/cy_prot.c **** *   CY_PROT_FAILURE      | The resource is locked
1142:Generated_Source\PSoC6\pdl\drivers\peripheral\prot/cy_prot.c **** *   CY_PROT_BAD_PARAM    | An incorrect/invalid parameter was passed
1143:Generated_Source\PSoC6\pdl\drivers\peripheral\prot/cy_prot.c **** *  
1144:Generated_Source\PSoC6\pdl\drivers\peripheral\prot/cy_prot.c **** *******************************************************************************/
1145:Generated_Source\PSoC6\pdl\drivers\peripheral\prot/cy_prot.c **** cy_en_prot_status_t Cy_Prot_ConfigPpuFixedSlSlaveStruct(PERI_GR_PPU_SL_Type* base, const cy_stc_ppu
1146:Generated_Source\PSoC6\pdl\drivers\peripheral\prot/cy_prot.c **** {
 1706              		.loc 1 1146 0
 1707              		.cfi_startproc
 1708              		@ args = 0, pretend = 0, frame = 0
 1709              		@ frame_needed = 0, uses_anonymous_args = 0
 1710              	.LVL172:
 1711 0000 70B5     		push	{r4, r5, r6, lr}
 1712              		.cfi_def_cfa_offset 16
 1713              		.cfi_offset 4, -16
 1714              		.cfi_offset 5, -12
 1715              		.cfi_offset 6, -8
 1716              		.cfi_offset 14, -4
 1717              	.LVL173:
1147:Generated_Source\PSoC6\pdl\drivers\peripheral\prot/cy_prot.c ****     cy_en_prot_status_t status = CY_PROT_SUCCESS;
1148:Generated_Source\PSoC6\pdl\drivers\peripheral\prot/cy_prot.c ****     uint32_t attReg;
1149:Generated_Source\PSoC6\pdl\drivers\peripheral\prot/cy_prot.c ****     
1150:Generated_Source\PSoC6\pdl\drivers\peripheral\prot/cy_prot.c ****     if(((uint32_t)config->pcMask & CY_PROT_PPU_FIXED_PC_LIMIT_MASK) != 0UL) 
 1718              		.loc 1 1150 0
 1719 0002 8C88     		ldrh	r4, [r1, #4]
 1720 0004 7F23     		movs	r3, #127
 1721 0006 2200     		movs	r2, r4
 1722 0008 9A43     		bics	r2, r3
 1723 000a 28D1     		bne	.L143
1151:Generated_Source\PSoC6\pdl\drivers\peripheral\prot/cy_prot.c ****     {
1152:Generated_Source\PSoC6\pdl\drivers\peripheral\prot/cy_prot.c ****         /* PC mask out of range - not supported in device */
1153:Generated_Source\PSoC6\pdl\drivers\peripheral\prot/cy_prot.c ****         status = CY_PROT_BAD_PARAM;
1154:Generated_Source\PSoC6\pdl\drivers\peripheral\prot/cy_prot.c ****     }
1155:Generated_Source\PSoC6\pdl\drivers\peripheral\prot/cy_prot.c ****     else
1156:Generated_Source\PSoC6\pdl\drivers\peripheral\prot/cy_prot.c ****     {
1157:Generated_Source\PSoC6\pdl\drivers\peripheral\prot/cy_prot.c ****         /* ADDR0 is read only. Only configure ATT0 */
ARM GAS  C:\Users\kiwamu\AppData\Local\Temp\ccj1MWYe.s 			page 52


1158:Generated_Source\PSoC6\pdl\drivers\peripheral\prot/cy_prot.c ****         attReg = ((uint32_t)config->userPermission & CY_PROT_ATT_PERMISSION_MASK)
 1724              		.loc 1 1158 0
 1725 000c 0B78     		ldrb	r3, [r1]
 1726 000e 0725     		movs	r5, #7
 1727 0010 1D40     		ands	r5, r3
1159:Generated_Source\PSoC6\pdl\drivers\peripheral\prot/cy_prot.c ****                     | (uint32_t)(((uint32_t)config->privPermission & CY_PROT_ATT_PERMISSION_MASK) <
 1728              		.loc 1 1159 0
 1729 0012 4A78     		ldrb	r2, [r1, #1]
 1730 0014 D200     		lsls	r2, r2, #3
 1731 0016 3823     		movs	r3, #56
 1732 0018 1340     		ands	r3, r2
 1733 001a 1D43     		orrs	r5, r3
1160:Generated_Source\PSoC6\pdl\drivers\peripheral\prot/cy_prot.c ****                     | _VAL2FLD(PERI_GR_PPU_SL_ATT0_NS, !(config->secure))
 1734              		.loc 1 1160 0
 1735 001c 8B78     		ldrb	r3, [r1, #2]
 1736 001e 0122     		movs	r2, #1
 1737 0020 5A40     		eors	r2, r3
 1738 0022 D2B2     		uxtb	r2, r2
 1739 0024 9201     		lsls	r2, r2, #6
 1740 0026 4023     		movs	r3, #64
 1741 0028 1A40     		ands	r2, r3
 1742 002a 2B00     		movs	r3, r5
 1743 002c 1343     		orrs	r3, r2
1161:Generated_Source\PSoC6\pdl\drivers\peripheral\prot/cy_prot.c ****                     | _VAL2FLD(PERI_GR_PPU_SL_ATT0_PC_MASK_15_TO_1, config->pcMask)
 1744              		.loc 1 1161 0
 1745 002e 6402     		lsls	r4, r4, #9
 1746 0030 0E4A     		ldr	r2, .L146
 1747 0032 1440     		ands	r4, r2
 1748 0034 1C43     		orrs	r4, r3
1162:Generated_Source\PSoC6\pdl\drivers\peripheral\prot/cy_prot.c ****                     /* No region size - read only */
1163:Generated_Source\PSoC6\pdl\drivers\peripheral\prot/cy_prot.c ****                     | _VAL2FLD(PERI_GR_PPU_SL_ATT0_PC_MATCH, config->pcMatch);
 1749              		.loc 1 1163 0
 1750 0036 CB78     		ldrb	r3, [r1, #3]
 1751 0038 9B07     		lsls	r3, r3, #30
 1752 003a 8021     		movs	r1, #128
 1753              	.LVL174:
 1754 003c C905     		lsls	r1, r1, #23
 1755 003e 0B40     		ands	r3, r1
 1756 0040 1A00     		movs	r2, r3
1158:Generated_Source\PSoC6\pdl\drivers\peripheral\prot/cy_prot.c ****                     | (uint32_t)(((uint32_t)config->privPermission & CY_PROT_ATT_PERMISSION_MASK) <
 1757              		.loc 1 1158 0
 1758 0042 2300     		movs	r3, r4
 1759 0044 1343     		orrs	r3, r2
 1760              	.LVL175:
1164:Generated_Source\PSoC6\pdl\drivers\peripheral\prot/cy_prot.c ****         if ((attReg & CY_PROT_PPU_SL_ATT0_MASK) != attReg)
 1761              		.loc 1 1164 0
 1762 0046 0A4A     		ldr	r2, .L146+4
 1763 0048 1A40     		ands	r2, r3
 1764 004a 9342     		cmp	r3, r2
 1765 004c 09D1     		bne	.L144
1165:Generated_Source\PSoC6\pdl\drivers\peripheral\prot/cy_prot.c ****         {
1166:Generated_Source\PSoC6\pdl\drivers\peripheral\prot/cy_prot.c ****             /* Invalid parameter was passed */
1167:Generated_Source\PSoC6\pdl\drivers\peripheral\prot/cy_prot.c ****             status = CY_PROT_BAD_PARAM;
1168:Generated_Source\PSoC6\pdl\drivers\peripheral\prot/cy_prot.c ****         }
1169:Generated_Source\PSoC6\pdl\drivers\peripheral\prot/cy_prot.c ****         else
1170:Generated_Source\PSoC6\pdl\drivers\peripheral\prot/cy_prot.c ****         {
1171:Generated_Source\PSoC6\pdl\drivers\peripheral\prot/cy_prot.c ****             base->ATT0 = attReg;
ARM GAS  C:\Users\kiwamu\AppData\Local\Temp\ccj1MWYe.s 			page 53


 1766              		.loc 1 1171 0
 1767 004e 4360     		str	r3, [r0, #4]
1172:Generated_Source\PSoC6\pdl\drivers\peripheral\prot/cy_prot.c ****             status = ((base->ATT0 & CY_PROT_PPU_SL_ATT0_MASK) != attReg) ? CY_PROT_FAILURE : CY_PRO
 1768              		.loc 1 1172 0
 1769 0050 4168     		ldr	r1, [r0, #4]
 1770 0052 074A     		ldr	r2, .L146+4
 1771 0054 0A40     		ands	r2, r1
 1772 0056 9342     		cmp	r3, r2
 1773 0058 05D0     		beq	.L145
 1774 005a 0648     		ldr	r0, .L146+8
 1775              	.LVL176:
 1776 005c 04E0     		b	.L142
 1777              	.LVL177:
 1778              	.L143:
1153:Generated_Source\PSoC6\pdl\drivers\peripheral\prot/cy_prot.c ****     }
 1779              		.loc 1 1153 0
 1780 005e 0648     		ldr	r0, .L146+12
 1781              	.LVL178:
 1782 0060 02E0     		b	.L142
 1783              	.LVL179:
 1784              	.L144:
1167:Generated_Source\PSoC6\pdl\drivers\peripheral\prot/cy_prot.c ****         }
 1785              		.loc 1 1167 0
 1786 0062 0548     		ldr	r0, .L146+12
 1787              	.LVL180:
 1788 0064 00E0     		b	.L142
 1789              	.LVL181:
 1790              	.L145:
 1791              		.loc 1 1172 0
 1792 0066 0020     		movs	r0, #0
 1793              	.LVL182:
 1794              	.L142:
1173:Generated_Source\PSoC6\pdl\drivers\peripheral\prot/cy_prot.c ****         }
1174:Generated_Source\PSoC6\pdl\drivers\peripheral\prot/cy_prot.c ****     }
1175:Generated_Source\PSoC6\pdl\drivers\peripheral\prot/cy_prot.c ****     
1176:Generated_Source\PSoC6\pdl\drivers\peripheral\prot/cy_prot.c ****     return status;
1177:Generated_Source\PSoC6\pdl\drivers\peripheral\prot/cy_prot.c **** }
 1795              		.loc 1 1177 0
 1796              		@ sp needed
 1797 0068 70BD     		pop	{r4, r5, r6, pc}
 1798              	.L147:
 1799 006a C046     		.align	2
 1800              	.L146:
 1801 006c 00FEFF00 		.word	16776704
 1802 0070 DBFEFFE0 		.word	-520093989
 1803 0074 0300C200 		.word	12713987
 1804 0078 0100C200 		.word	12713985
 1805              		.cfi_endproc
 1806              	.LFE59:
 1807              		.size	Cy_Prot_ConfigPpuFixedSlSlaveStruct, .-Cy_Prot_ConfigPpuFixedSlSlaveStruct
 1808              		.section	.text.Cy_Prot_EnablePpuFixedSlMasterStruct,"ax",%progbits
 1809              		.align	2
 1810              		.global	Cy_Prot_EnablePpuFixedSlMasterStruct
 1811              		.code	16
 1812              		.thumb_func
 1813              		.type	Cy_Prot_EnablePpuFixedSlMasterStruct, %function
 1814              	Cy_Prot_EnablePpuFixedSlMasterStruct:
ARM GAS  C:\Users\kiwamu\AppData\Local\Temp\ccj1MWYe.s 			page 54


 1815              	.LFB60:
1178:Generated_Source\PSoC6\pdl\drivers\peripheral\prot/cy_prot.c **** 
1179:Generated_Source\PSoC6\pdl\drivers\peripheral\prot/cy_prot.c **** 
1180:Generated_Source\PSoC6\pdl\drivers\peripheral\prot/cy_prot.c **** /*******************************************************************************
1181:Generated_Source\PSoC6\pdl\drivers\peripheral\prot/cy_prot.c **** * Function Name: Cy_Prot_EnablePpuFixedSlMasterStruct
1182:Generated_Source\PSoC6\pdl\drivers\peripheral\prot/cy_prot.c **** ****************************************************************************//**
1183:Generated_Source\PSoC6\pdl\drivers\peripheral\prot/cy_prot.c **** *
1184:Generated_Source\PSoC6\pdl\drivers\peripheral\prot/cy_prot.c **** * \brief Enables the Master PPU SL structure.
1185:Generated_Source\PSoC6\pdl\drivers\peripheral\prot/cy_prot.c **** *
1186:Generated_Source\PSoC6\pdl\drivers\peripheral\prot/cy_prot.c **** * This is a PPU SL master struct enable function. The PPU SL protection 
1187:Generated_Source\PSoC6\pdl\drivers\peripheral\prot/cy_prot.c **** * settings will take effect after successful completion of this function call.
1188:Generated_Source\PSoC6\pdl\drivers\peripheral\prot/cy_prot.c **** *
1189:Generated_Source\PSoC6\pdl\drivers\peripheral\prot/cy_prot.c **** * \param base
1190:Generated_Source\PSoC6\pdl\drivers\peripheral\prot/cy_prot.c **** * The base address for the protection unit structure being configured. 
1191:Generated_Source\PSoC6\pdl\drivers\peripheral\prot/cy_prot.c **** *
1192:Generated_Source\PSoC6\pdl\drivers\peripheral\prot/cy_prot.c **** * \return
1193:Generated_Source\PSoC6\pdl\drivers\peripheral\prot/cy_prot.c **** * Status of the function call.
1194:Generated_Source\PSoC6\pdl\drivers\peripheral\prot/cy_prot.c **** *
1195:Generated_Source\PSoC6\pdl\drivers\peripheral\prot/cy_prot.c **** *   Status               | Description
1196:Generated_Source\PSoC6\pdl\drivers\peripheral\prot/cy_prot.c **** *   ------------         | -----------
1197:Generated_Source\PSoC6\pdl\drivers\peripheral\prot/cy_prot.c **** *   CY_PROT_SUCCESS      | The Master PU struct was enabled
1198:Generated_Source\PSoC6\pdl\drivers\peripheral\prot/cy_prot.c **** *   CY_PROT_FAILURE      | The Master PU struct is disabled and possibly locked
1199:Generated_Source\PSoC6\pdl\drivers\peripheral\prot/cy_prot.c **** *  
1200:Generated_Source\PSoC6\pdl\drivers\peripheral\prot/cy_prot.c **** *******************************************************************************/
1201:Generated_Source\PSoC6\pdl\drivers\peripheral\prot/cy_prot.c **** cy_en_prot_status_t Cy_Prot_EnablePpuFixedSlMasterStruct(PERI_GR_PPU_SL_Type* base)
1202:Generated_Source\PSoC6\pdl\drivers\peripheral\prot/cy_prot.c **** {
 1816              		.loc 1 1202 0
 1817              		.cfi_startproc
 1818              		@ args = 0, pretend = 0, frame = 0
 1819              		@ frame_needed = 0, uses_anonymous_args = 0
 1820              		@ link register save eliminated.
 1821              	.LVL183:
1203:Generated_Source\PSoC6\pdl\drivers\peripheral\prot/cy_prot.c ****     cy_en_prot_status_t status = CY_PROT_SUCCESS;
1204:Generated_Source\PSoC6\pdl\drivers\peripheral\prot/cy_prot.c ****     
1205:Generated_Source\PSoC6\pdl\drivers\peripheral\prot/cy_prot.c ****     base->ATT1 |= _VAL2FLD(PERI_GR_PPU_SL_ATT1_ENABLED, CY_PROT_STRUCT_ENABLE);
 1822              		.loc 1 1205 0
 1823 0000 436A     		ldr	r3, [r0, #36]
 1824 0002 8022     		movs	r2, #128
 1825 0004 1206     		lsls	r2, r2, #24
 1826 0006 1343     		orrs	r3, r2
 1827 0008 4362     		str	r3, [r0, #36]
1206:Generated_Source\PSoC6\pdl\drivers\peripheral\prot/cy_prot.c ****     status = (_FLD2VAL(PERI_GR_PPU_SL_ATT1_ENABLED, base->ATT1) != CY_PROT_STRUCT_ENABLE) ?
 1828              		.loc 1 1206 0
 1829 000a 436A     		ldr	r3, [r0, #36]
 1830 000c 002B     		cmp	r3, #0
 1831 000e 01DB     		blt	.L150
 1832 0010 0148     		ldr	r0, .L151
 1833              	.LVL184:
 1834 0012 00E0     		b	.L149
 1835              	.LVL185:
 1836              	.L150:
 1837 0014 0020     		movs	r0, #0
 1838              	.LVL186:
 1839              	.L149:
1207:Generated_Source\PSoC6\pdl\drivers\peripheral\prot/cy_prot.c ****                 CY_PROT_FAILURE : CY_PROT_SUCCESS;
1208:Generated_Source\PSoC6\pdl\drivers\peripheral\prot/cy_prot.c ****     
1209:Generated_Source\PSoC6\pdl\drivers\peripheral\prot/cy_prot.c ****     return status;
ARM GAS  C:\Users\kiwamu\AppData\Local\Temp\ccj1MWYe.s 			page 55


1210:Generated_Source\PSoC6\pdl\drivers\peripheral\prot/cy_prot.c **** }
 1840              		.loc 1 1210 0 discriminator 4
 1841              		@ sp needed
 1842 0016 7047     		bx	lr
 1843              	.L152:
 1844              		.align	2
 1845              	.L151:
 1846 0018 0300C200 		.word	12713987
 1847              		.cfi_endproc
 1848              	.LFE60:
 1849              		.size	Cy_Prot_EnablePpuFixedSlMasterStruct, .-Cy_Prot_EnablePpuFixedSlMasterStruct
 1850              		.section	.text.Cy_Prot_DisablePpuFixedSlMasterStruct,"ax",%progbits
 1851              		.align	2
 1852              		.global	Cy_Prot_DisablePpuFixedSlMasterStruct
 1853              		.code	16
 1854              		.thumb_func
 1855              		.type	Cy_Prot_DisablePpuFixedSlMasterStruct, %function
 1856              	Cy_Prot_DisablePpuFixedSlMasterStruct:
 1857              	.LFB61:
1211:Generated_Source\PSoC6\pdl\drivers\peripheral\prot/cy_prot.c **** 
1212:Generated_Source\PSoC6\pdl\drivers\peripheral\prot/cy_prot.c **** 
1213:Generated_Source\PSoC6\pdl\drivers\peripheral\prot/cy_prot.c **** /*******************************************************************************
1214:Generated_Source\PSoC6\pdl\drivers\peripheral\prot/cy_prot.c **** * Function Name: Cy_Prot_DisablePpuFixedSlMasterStruct
1215:Generated_Source\PSoC6\pdl\drivers\peripheral\prot/cy_prot.c **** ****************************************************************************//**
1216:Generated_Source\PSoC6\pdl\drivers\peripheral\prot/cy_prot.c **** *
1217:Generated_Source\PSoC6\pdl\drivers\peripheral\prot/cy_prot.c **** * \brief Disables the Master PPU SL structure.
1218:Generated_Source\PSoC6\pdl\drivers\peripheral\prot/cy_prot.c **** *
1219:Generated_Source\PSoC6\pdl\drivers\peripheral\prot/cy_prot.c **** * This is a PPU SL master struct disable function. The PPU SL protection 
1220:Generated_Source\PSoC6\pdl\drivers\peripheral\prot/cy_prot.c **** * settings will seize to take effect after successful completion of this 
1221:Generated_Source\PSoC6\pdl\drivers\peripheral\prot/cy_prot.c **** * function call.
1222:Generated_Source\PSoC6\pdl\drivers\peripheral\prot/cy_prot.c **** *
1223:Generated_Source\PSoC6\pdl\drivers\peripheral\prot/cy_prot.c **** * \param base
1224:Generated_Source\PSoC6\pdl\drivers\peripheral\prot/cy_prot.c **** * The base address for the protection unit structure being configured. 
1225:Generated_Source\PSoC6\pdl\drivers\peripheral\prot/cy_prot.c **** *
1226:Generated_Source\PSoC6\pdl\drivers\peripheral\prot/cy_prot.c **** * \return
1227:Generated_Source\PSoC6\pdl\drivers\peripheral\prot/cy_prot.c **** * Status of the function call.
1228:Generated_Source\PSoC6\pdl\drivers\peripheral\prot/cy_prot.c **** *
1229:Generated_Source\PSoC6\pdl\drivers\peripheral\prot/cy_prot.c **** *   Status               | Description
1230:Generated_Source\PSoC6\pdl\drivers\peripheral\prot/cy_prot.c **** *   ------------         | -----------
1231:Generated_Source\PSoC6\pdl\drivers\peripheral\prot/cy_prot.c **** *   CY_PROT_SUCCESS      | The Master PU struct was disabled
1232:Generated_Source\PSoC6\pdl\drivers\peripheral\prot/cy_prot.c **** *   CY_PROT_FAILURE      | The Master PU struct is enabled and possibly locked
1233:Generated_Source\PSoC6\pdl\drivers\peripheral\prot/cy_prot.c **** *  
1234:Generated_Source\PSoC6\pdl\drivers\peripheral\prot/cy_prot.c **** *******************************************************************************/
1235:Generated_Source\PSoC6\pdl\drivers\peripheral\prot/cy_prot.c **** cy_en_prot_status_t Cy_Prot_DisablePpuFixedSlMasterStruct(PERI_GR_PPU_SL_Type* base)
1236:Generated_Source\PSoC6\pdl\drivers\peripheral\prot/cy_prot.c **** {
 1858              		.loc 1 1236 0
 1859              		.cfi_startproc
 1860              		@ args = 0, pretend = 0, frame = 0
 1861              		@ frame_needed = 0, uses_anonymous_args = 0
 1862              		@ link register save eliminated.
 1863              	.LVL187:
1237:Generated_Source\PSoC6\pdl\drivers\peripheral\prot/cy_prot.c ****     cy_en_prot_status_t status = CY_PROT_SUCCESS;
1238:Generated_Source\PSoC6\pdl\drivers\peripheral\prot/cy_prot.c ****     
1239:Generated_Source\PSoC6\pdl\drivers\peripheral\prot/cy_prot.c ****     base->ATT1 &= ~_VAL2FLD(PERI_GR_PPU_SL_ATT1_ENABLED, CY_PROT_STRUCT_ENABLE);
 1864              		.loc 1 1239 0
 1865 0000 436A     		ldr	r3, [r0, #36]
 1866 0002 5B00     		lsls	r3, r3, #1
ARM GAS  C:\Users\kiwamu\AppData\Local\Temp\ccj1MWYe.s 			page 56


 1867 0004 5B08     		lsrs	r3, r3, #1
 1868 0006 4362     		str	r3, [r0, #36]
1240:Generated_Source\PSoC6\pdl\drivers\peripheral\prot/cy_prot.c ****     status = (_FLD2VAL(PERI_GR_PPU_SL_ATT1_ENABLED, base->ATT1) == CY_PROT_STRUCT_ENABLE) ?
 1869              		.loc 1 1240 0
 1870 0008 436A     		ldr	r3, [r0, #36]
 1871 000a 002B     		cmp	r3, #0
 1872 000c 01DA     		bge	.L155
 1873 000e 0248     		ldr	r0, .L156
 1874              	.LVL188:
 1875 0010 00E0     		b	.L154
 1876              	.LVL189:
 1877              	.L155:
 1878 0012 0020     		movs	r0, #0
 1879              	.LVL190:
 1880              	.L154:
1241:Generated_Source\PSoC6\pdl\drivers\peripheral\prot/cy_prot.c ****                 CY_PROT_FAILURE : CY_PROT_SUCCESS;
1242:Generated_Source\PSoC6\pdl\drivers\peripheral\prot/cy_prot.c ****     
1243:Generated_Source\PSoC6\pdl\drivers\peripheral\prot/cy_prot.c ****     return status;
1244:Generated_Source\PSoC6\pdl\drivers\peripheral\prot/cy_prot.c **** }
 1881              		.loc 1 1244 0 discriminator 4
 1882              		@ sp needed
 1883 0014 7047     		bx	lr
 1884              	.L157:
 1885 0016 C046     		.align	2
 1886              	.L156:
 1887 0018 0300C200 		.word	12713987
 1888              		.cfi_endproc
 1889              	.LFE61:
 1890              		.size	Cy_Prot_DisablePpuFixedSlMasterStruct, .-Cy_Prot_DisablePpuFixedSlMasterStruct
 1891              		.section	.text.Cy_Prot_EnablePpuFixedSlSlaveStruct,"ax",%progbits
 1892              		.align	2
 1893              		.global	Cy_Prot_EnablePpuFixedSlSlaveStruct
 1894              		.code	16
 1895              		.thumb_func
 1896              		.type	Cy_Prot_EnablePpuFixedSlSlaveStruct, %function
 1897              	Cy_Prot_EnablePpuFixedSlSlaveStruct:
 1898              	.LFB62:
1245:Generated_Source\PSoC6\pdl\drivers\peripheral\prot/cy_prot.c **** 
1246:Generated_Source\PSoC6\pdl\drivers\peripheral\prot/cy_prot.c **** 
1247:Generated_Source\PSoC6\pdl\drivers\peripheral\prot/cy_prot.c **** /*******************************************************************************
1248:Generated_Source\PSoC6\pdl\drivers\peripheral\prot/cy_prot.c **** * Function Name: Cy_Prot_EnablePpuFixedSlSlaveStruct
1249:Generated_Source\PSoC6\pdl\drivers\peripheral\prot/cy_prot.c **** ****************************************************************************//**
1250:Generated_Source\PSoC6\pdl\drivers\peripheral\prot/cy_prot.c **** *
1251:Generated_Source\PSoC6\pdl\drivers\peripheral\prot/cy_prot.c **** * \brief Enables the Slave PPU SL structure.
1252:Generated_Source\PSoC6\pdl\drivers\peripheral\prot/cy_prot.c **** *
1253:Generated_Source\PSoC6\pdl\drivers\peripheral\prot/cy_prot.c **** * This is a PPU SL slave struct enable function. The PPU SL protection 
1254:Generated_Source\PSoC6\pdl\drivers\peripheral\prot/cy_prot.c **** * settings will take effect after successful completion of this function call.
1255:Generated_Source\PSoC6\pdl\drivers\peripheral\prot/cy_prot.c **** *
1256:Generated_Source\PSoC6\pdl\drivers\peripheral\prot/cy_prot.c **** * \param base
1257:Generated_Source\PSoC6\pdl\drivers\peripheral\prot/cy_prot.c **** * The base address for the protection unit structure being configured. 
1258:Generated_Source\PSoC6\pdl\drivers\peripheral\prot/cy_prot.c **** *
1259:Generated_Source\PSoC6\pdl\drivers\peripheral\prot/cy_prot.c **** * \return
1260:Generated_Source\PSoC6\pdl\drivers\peripheral\prot/cy_prot.c **** * Status of the function call.
1261:Generated_Source\PSoC6\pdl\drivers\peripheral\prot/cy_prot.c **** *
1262:Generated_Source\PSoC6\pdl\drivers\peripheral\prot/cy_prot.c **** *   Status               | Description
1263:Generated_Source\PSoC6\pdl\drivers\peripheral\prot/cy_prot.c **** *   ------------         | -----------
1264:Generated_Source\PSoC6\pdl\drivers\peripheral\prot/cy_prot.c **** *   CY_PROT_SUCCESS      | The Slave PU struct was enabled
ARM GAS  C:\Users\kiwamu\AppData\Local\Temp\ccj1MWYe.s 			page 57


1265:Generated_Source\PSoC6\pdl\drivers\peripheral\prot/cy_prot.c **** *   CY_PROT_FAILURE      | The Slave PU struct is disabled and possibly locked
1266:Generated_Source\PSoC6\pdl\drivers\peripheral\prot/cy_prot.c **** *  
1267:Generated_Source\PSoC6\pdl\drivers\peripheral\prot/cy_prot.c **** *******************************************************************************/
1268:Generated_Source\PSoC6\pdl\drivers\peripheral\prot/cy_prot.c **** cy_en_prot_status_t Cy_Prot_EnablePpuFixedSlSlaveStruct(PERI_GR_PPU_SL_Type* base)
1269:Generated_Source\PSoC6\pdl\drivers\peripheral\prot/cy_prot.c **** {   
 1899              		.loc 1 1269 0
 1900              		.cfi_startproc
 1901              		@ args = 0, pretend = 0, frame = 0
 1902              		@ frame_needed = 0, uses_anonymous_args = 0
 1903              		@ link register save eliminated.
 1904              	.LVL191:
1270:Generated_Source\PSoC6\pdl\drivers\peripheral\prot/cy_prot.c ****     cy_en_prot_status_t status = CY_PROT_SUCCESS;
1271:Generated_Source\PSoC6\pdl\drivers\peripheral\prot/cy_prot.c ****     
1272:Generated_Source\PSoC6\pdl\drivers\peripheral\prot/cy_prot.c ****     base->ATT0 |= _VAL2FLD(PERI_GR_PPU_SL_ATT0_ENABLED, CY_PROT_STRUCT_ENABLE);
 1905              		.loc 1 1272 0
 1906 0000 4368     		ldr	r3, [r0, #4]
 1907 0002 8022     		movs	r2, #128
 1908 0004 1206     		lsls	r2, r2, #24
 1909 0006 1343     		orrs	r3, r2
 1910 0008 4360     		str	r3, [r0, #4]
1273:Generated_Source\PSoC6\pdl\drivers\peripheral\prot/cy_prot.c ****     status = (_FLD2VAL(PERI_GR_PPU_SL_ATT0_ENABLED, base->ATT0) != CY_PROT_STRUCT_ENABLE) ?
 1911              		.loc 1 1273 0
 1912 000a 4368     		ldr	r3, [r0, #4]
 1913 000c 002B     		cmp	r3, #0
 1914 000e 01DB     		blt	.L160
 1915 0010 0148     		ldr	r0, .L161
 1916              	.LVL192:
 1917 0012 00E0     		b	.L159
 1918              	.LVL193:
 1919              	.L160:
 1920 0014 0020     		movs	r0, #0
 1921              	.LVL194:
 1922              	.L159:
1274:Generated_Source\PSoC6\pdl\drivers\peripheral\prot/cy_prot.c ****                 CY_PROT_FAILURE : CY_PROT_SUCCESS;
1275:Generated_Source\PSoC6\pdl\drivers\peripheral\prot/cy_prot.c ****     
1276:Generated_Source\PSoC6\pdl\drivers\peripheral\prot/cy_prot.c ****     return status;
1277:Generated_Source\PSoC6\pdl\drivers\peripheral\prot/cy_prot.c **** }
 1923              		.loc 1 1277 0 discriminator 4
 1924              		@ sp needed
 1925 0016 7047     		bx	lr
 1926              	.L162:
 1927              		.align	2
 1928              	.L161:
 1929 0018 0300C200 		.word	12713987
 1930              		.cfi_endproc
 1931              	.LFE62:
 1932              		.size	Cy_Prot_EnablePpuFixedSlSlaveStruct, .-Cy_Prot_EnablePpuFixedSlSlaveStruct
 1933              		.section	.text.Cy_Prot_DisablePpuFixedSlSlaveStruct,"ax",%progbits
 1934              		.align	2
 1935              		.global	Cy_Prot_DisablePpuFixedSlSlaveStruct
 1936              		.code	16
 1937              		.thumb_func
 1938              		.type	Cy_Prot_DisablePpuFixedSlSlaveStruct, %function
 1939              	Cy_Prot_DisablePpuFixedSlSlaveStruct:
 1940              	.LFB63:
1278:Generated_Source\PSoC6\pdl\drivers\peripheral\prot/cy_prot.c **** 
1279:Generated_Source\PSoC6\pdl\drivers\peripheral\prot/cy_prot.c **** 
ARM GAS  C:\Users\kiwamu\AppData\Local\Temp\ccj1MWYe.s 			page 58


1280:Generated_Source\PSoC6\pdl\drivers\peripheral\prot/cy_prot.c **** /*******************************************************************************
1281:Generated_Source\PSoC6\pdl\drivers\peripheral\prot/cy_prot.c **** * Function Name: Cy_Prot_DisablePpuFixedSlSlaveStruct
1282:Generated_Source\PSoC6\pdl\drivers\peripheral\prot/cy_prot.c **** ****************************************************************************//**
1283:Generated_Source\PSoC6\pdl\drivers\peripheral\prot/cy_prot.c **** *
1284:Generated_Source\PSoC6\pdl\drivers\peripheral\prot/cy_prot.c **** * \brief Disables the Slave PPU SL structure.
1285:Generated_Source\PSoC6\pdl\drivers\peripheral\prot/cy_prot.c **** *
1286:Generated_Source\PSoC6\pdl\drivers\peripheral\prot/cy_prot.c **** * This is a PPU SL slave struct disable function. The PPU SL protection 
1287:Generated_Source\PSoC6\pdl\drivers\peripheral\prot/cy_prot.c **** * settings will seize to take effect after successful completion of this 
1288:Generated_Source\PSoC6\pdl\drivers\peripheral\prot/cy_prot.c **** * function call.
1289:Generated_Source\PSoC6\pdl\drivers\peripheral\prot/cy_prot.c **** *
1290:Generated_Source\PSoC6\pdl\drivers\peripheral\prot/cy_prot.c **** * \param base
1291:Generated_Source\PSoC6\pdl\drivers\peripheral\prot/cy_prot.c **** * The base address for the protection unit structure being configured. 
1292:Generated_Source\PSoC6\pdl\drivers\peripheral\prot/cy_prot.c **** *
1293:Generated_Source\PSoC6\pdl\drivers\peripheral\prot/cy_prot.c **** * \return
1294:Generated_Source\PSoC6\pdl\drivers\peripheral\prot/cy_prot.c **** * Status of the function call.
1295:Generated_Source\PSoC6\pdl\drivers\peripheral\prot/cy_prot.c **** *
1296:Generated_Source\PSoC6\pdl\drivers\peripheral\prot/cy_prot.c **** *   Status               | Description
1297:Generated_Source\PSoC6\pdl\drivers\peripheral\prot/cy_prot.c **** *   ------------         | -----------
1298:Generated_Source\PSoC6\pdl\drivers\peripheral\prot/cy_prot.c **** *   CY_PROT_SUCCESS      | The Slave PU struct was disabled
1299:Generated_Source\PSoC6\pdl\drivers\peripheral\prot/cy_prot.c **** *   CY_PROT_FAILURE      | The Slave PU struct is enabled and possibly locked
1300:Generated_Source\PSoC6\pdl\drivers\peripheral\prot/cy_prot.c **** *  
1301:Generated_Source\PSoC6\pdl\drivers\peripheral\prot/cy_prot.c **** *******************************************************************************/
1302:Generated_Source\PSoC6\pdl\drivers\peripheral\prot/cy_prot.c **** cy_en_prot_status_t Cy_Prot_DisablePpuFixedSlSlaveStruct(PERI_GR_PPU_SL_Type* base)
1303:Generated_Source\PSoC6\pdl\drivers\peripheral\prot/cy_prot.c **** {
 1941              		.loc 1 1303 0
 1942              		.cfi_startproc
 1943              		@ args = 0, pretend = 0, frame = 0
 1944              		@ frame_needed = 0, uses_anonymous_args = 0
 1945              		@ link register save eliminated.
 1946              	.LVL195:
1304:Generated_Source\PSoC6\pdl\drivers\peripheral\prot/cy_prot.c ****     cy_en_prot_status_t status = CY_PROT_SUCCESS;
1305:Generated_Source\PSoC6\pdl\drivers\peripheral\prot/cy_prot.c ****     
1306:Generated_Source\PSoC6\pdl\drivers\peripheral\prot/cy_prot.c ****     base->ATT0 &= ~_VAL2FLD(PERI_GR_PPU_SL_ATT0_ENABLED, CY_PROT_STRUCT_ENABLE);
 1947              		.loc 1 1306 0
 1948 0000 4368     		ldr	r3, [r0, #4]
 1949 0002 5B00     		lsls	r3, r3, #1
 1950 0004 5B08     		lsrs	r3, r3, #1
 1951 0006 4360     		str	r3, [r0, #4]
1307:Generated_Source\PSoC6\pdl\drivers\peripheral\prot/cy_prot.c ****     status = (_FLD2VAL(PERI_GR_PPU_SL_ATT0_ENABLED, base->ATT0) == CY_PROT_STRUCT_ENABLE) ?
 1952              		.loc 1 1307 0
 1953 0008 4368     		ldr	r3, [r0, #4]
 1954 000a 002B     		cmp	r3, #0
 1955 000c 01DA     		bge	.L165
 1956 000e 0248     		ldr	r0, .L166
 1957              	.LVL196:
 1958 0010 00E0     		b	.L164
 1959              	.LVL197:
 1960              	.L165:
 1961 0012 0020     		movs	r0, #0
 1962              	.LVL198:
 1963              	.L164:
1308:Generated_Source\PSoC6\pdl\drivers\peripheral\prot/cy_prot.c ****                 CY_PROT_FAILURE : CY_PROT_SUCCESS;
1309:Generated_Source\PSoC6\pdl\drivers\peripheral\prot/cy_prot.c ****     
1310:Generated_Source\PSoC6\pdl\drivers\peripheral\prot/cy_prot.c ****     return status;
1311:Generated_Source\PSoC6\pdl\drivers\peripheral\prot/cy_prot.c **** }
 1964              		.loc 1 1311 0 discriminator 4
 1965              		@ sp needed
ARM GAS  C:\Users\kiwamu\AppData\Local\Temp\ccj1MWYe.s 			page 59


 1966 0014 7047     		bx	lr
 1967              	.L167:
 1968 0016 C046     		.align	2
 1969              	.L166:
 1970 0018 0300C200 		.word	12713987
 1971              		.cfi_endproc
 1972              	.LFE63:
 1973              		.size	Cy_Prot_DisablePpuFixedSlSlaveStruct, .-Cy_Prot_DisablePpuFixedSlSlaveStruct
 1974              		.section	.text.Cy_Prot_ConfigPpuFixedRgMasterStruct,"ax",%progbits
 1975              		.align	2
 1976              		.global	Cy_Prot_ConfigPpuFixedRgMasterStruct
 1977              		.code	16
 1978              		.thumb_func
 1979              		.type	Cy_Prot_ConfigPpuFixedRgMasterStruct, %function
 1980              	Cy_Prot_ConfigPpuFixedRgMasterStruct:
 1981              	.LFB64:
1312:Generated_Source\PSoC6\pdl\drivers\peripheral\prot/cy_prot.c **** 
1313:Generated_Source\PSoC6\pdl\drivers\peripheral\prot/cy_prot.c **** 
1314:Generated_Source\PSoC6\pdl\drivers\peripheral\prot/cy_prot.c **** /*******************************************************************************
1315:Generated_Source\PSoC6\pdl\drivers\peripheral\prot/cy_prot.c **** * Function Name: Cy_Prot_ConfigPpuFixedRgMasterStruct
1316:Generated_Source\PSoC6\pdl\drivers\peripheral\prot/cy_prot.c **** ****************************************************************************//**
1317:Generated_Source\PSoC6\pdl\drivers\peripheral\prot/cy_prot.c **** *
1318:Generated_Source\PSoC6\pdl\drivers\peripheral\prot/cy_prot.c **** * \brief Configures a Fixed Peripheral Region Protection Unit (PPU RG) master 
1319:Generated_Source\PSoC6\pdl\drivers\peripheral\prot/cy_prot.c **** * protection struct with its protection attributes. 
1320:Generated_Source\PSoC6\pdl\drivers\peripheral\prot/cy_prot.c **** *
1321:Generated_Source\PSoC6\pdl\drivers\peripheral\prot/cy_prot.c **** * This function configures the master struct governing the corresponding slave
1322:Generated_Source\PSoC6\pdl\drivers\peripheral\prot/cy_prot.c **** * struct pair. It is a mechanism to protect the slave PPU RG struct. Since
1323:Generated_Source\PSoC6\pdl\drivers\peripheral\prot/cy_prot.c **** * the memory location of the slave struct is known, the address, regionSize and
1324:Generated_Source\PSoC6\pdl\drivers\peripheral\prot/cy_prot.c **** * subregions of the configuration struct are not applicable.
1325:Generated_Source\PSoC6\pdl\drivers\peripheral\prot/cy_prot.c **** *
1326:Generated_Source\PSoC6\pdl\drivers\peripheral\prot/cy_prot.c **** * Note that only the user/privileged write permissions are configurable. The 
1327:Generated_Source\PSoC6\pdl\drivers\peripheral\prot/cy_prot.c **** * read and execute permissions are read-only and cannot be configured.
1328:Generated_Source\PSoC6\pdl\drivers\peripheral\prot/cy_prot.c **** *
1329:Generated_Source\PSoC6\pdl\drivers\peripheral\prot/cy_prot.c **** * \param base
1330:Generated_Source\PSoC6\pdl\drivers\peripheral\prot/cy_prot.c **** * The register base address of the protection struct being configured.
1331:Generated_Source\PSoC6\pdl\drivers\peripheral\prot/cy_prot.c **** * 
1332:Generated_Source\PSoC6\pdl\drivers\peripheral\prot/cy_prot.c **** * \param config
1333:Generated_Source\PSoC6\pdl\drivers\peripheral\prot/cy_prot.c **** * Initialization structure with all the protection attributes.
1334:Generated_Source\PSoC6\pdl\drivers\peripheral\prot/cy_prot.c **** * 
1335:Generated_Source\PSoC6\pdl\drivers\peripheral\prot/cy_prot.c **** * \return
1336:Generated_Source\PSoC6\pdl\drivers\peripheral\prot/cy_prot.c **** * Status of the function call.
1337:Generated_Source\PSoC6\pdl\drivers\peripheral\prot/cy_prot.c **** *
1338:Generated_Source\PSoC6\pdl\drivers\peripheral\prot/cy_prot.c **** *   Status               | Description
1339:Generated_Source\PSoC6\pdl\drivers\peripheral\prot/cy_prot.c **** *   ------------         | -----------
1340:Generated_Source\PSoC6\pdl\drivers\peripheral\prot/cy_prot.c **** *   CY_PROT_SUCCESS      | PPU RG master struct was successfully configured
1341:Generated_Source\PSoC6\pdl\drivers\peripheral\prot/cy_prot.c **** *   CY_PROT_FAILURE      | The resource is locked
1342:Generated_Source\PSoC6\pdl\drivers\peripheral\prot/cy_prot.c **** *   CY_PROT_BAD_PARAM    | An incorrect/invalid parameter was passed
1343:Generated_Source\PSoC6\pdl\drivers\peripheral\prot/cy_prot.c **** *  
1344:Generated_Source\PSoC6\pdl\drivers\peripheral\prot/cy_prot.c **** *******************************************************************************/
1345:Generated_Source\PSoC6\pdl\drivers\peripheral\prot/cy_prot.c **** cy_en_prot_status_t Cy_Prot_ConfigPpuFixedRgMasterStruct(PERI_GR_PPU_RG_Type* base, const cy_stc_pp
1346:Generated_Source\PSoC6\pdl\drivers\peripheral\prot/cy_prot.c **** {
 1982              		.loc 1 1346 0
 1983              		.cfi_startproc
 1984              		@ args = 0, pretend = 0, frame = 0
 1985              		@ frame_needed = 0, uses_anonymous_args = 0
 1986              	.LVL199:
 1987 0000 70B5     		push	{r4, r5, r6, lr}
ARM GAS  C:\Users\kiwamu\AppData\Local\Temp\ccj1MWYe.s 			page 60


 1988              		.cfi_def_cfa_offset 16
 1989              		.cfi_offset 4, -16
 1990              		.cfi_offset 5, -12
 1991              		.cfi_offset 6, -8
 1992              		.cfi_offset 14, -4
 1993              	.LVL200:
1347:Generated_Source\PSoC6\pdl\drivers\peripheral\prot/cy_prot.c ****     cy_en_prot_status_t status = CY_PROT_SUCCESS;
1348:Generated_Source\PSoC6\pdl\drivers\peripheral\prot/cy_prot.c ****     uint32_t attReg;
1349:Generated_Source\PSoC6\pdl\drivers\peripheral\prot/cy_prot.c ****     
1350:Generated_Source\PSoC6\pdl\drivers\peripheral\prot/cy_prot.c ****     if(((uint32_t)config->pcMask & CY_PROT_PPU_FIXED_PC_LIMIT_MASK) != 0UL) 
 1994              		.loc 1 1350 0
 1995 0002 8C88     		ldrh	r4, [r1, #4]
 1996 0004 7F23     		movs	r3, #127
 1997 0006 2200     		movs	r2, r4
 1998 0008 9A43     		bics	r2, r3
 1999 000a 28D1     		bne	.L170
1351:Generated_Source\PSoC6\pdl\drivers\peripheral\prot/cy_prot.c ****     {
1352:Generated_Source\PSoC6\pdl\drivers\peripheral\prot/cy_prot.c ****         /* PC mask out of range - not supported in device */
1353:Generated_Source\PSoC6\pdl\drivers\peripheral\prot/cy_prot.c ****         status = CY_PROT_BAD_PARAM;
1354:Generated_Source\PSoC6\pdl\drivers\peripheral\prot/cy_prot.c ****     }
1355:Generated_Source\PSoC6\pdl\drivers\peripheral\prot/cy_prot.c ****     else
1356:Generated_Source\PSoC6\pdl\drivers\peripheral\prot/cy_prot.c ****     {
1357:Generated_Source\PSoC6\pdl\drivers\peripheral\prot/cy_prot.c ****         /* ADDR1 is read only. Only configure ATT1 */
1358:Generated_Source\PSoC6\pdl\drivers\peripheral\prot/cy_prot.c ****         attReg = ((uint32_t)config->userPermission & CY_PROT_ATT_PERMISSION_MASK)
 2000              		.loc 1 1358 0
 2001 000c 0B78     		ldrb	r3, [r1]
 2002 000e 0725     		movs	r5, #7
 2003 0010 1D40     		ands	r5, r3
1359:Generated_Source\PSoC6\pdl\drivers\peripheral\prot/cy_prot.c ****                     | (uint32_t)(((uint32_t)config->privPermission & CY_PROT_ATT_PERMISSION_MASK) <
 2004              		.loc 1 1359 0
 2005 0012 4A78     		ldrb	r2, [r1, #1]
 2006 0014 D200     		lsls	r2, r2, #3
 2007 0016 3823     		movs	r3, #56
 2008 0018 1340     		ands	r3, r2
 2009 001a 1D43     		orrs	r5, r3
1360:Generated_Source\PSoC6\pdl\drivers\peripheral\prot/cy_prot.c ****                     | _VAL2FLD(PERI_GR_PPU_RG_ATT1_NS, !(config->secure))
 2010              		.loc 1 1360 0
 2011 001c 8B78     		ldrb	r3, [r1, #2]
 2012 001e 0122     		movs	r2, #1
 2013 0020 5A40     		eors	r2, r3
 2014 0022 D2B2     		uxtb	r2, r2
 2015 0024 9201     		lsls	r2, r2, #6
 2016 0026 4023     		movs	r3, #64
 2017 0028 1A40     		ands	r2, r3
 2018 002a 2B00     		movs	r3, r5
 2019 002c 1343     		orrs	r3, r2
1361:Generated_Source\PSoC6\pdl\drivers\peripheral\prot/cy_prot.c ****                     | _VAL2FLD(PERI_GR_PPU_RG_ATT1_PC_MASK_15_TO_1, config->pcMask)
 2020              		.loc 1 1361 0
 2021 002e 6402     		lsls	r4, r4, #9
 2022 0030 0E4A     		ldr	r2, .L173
 2023 0032 1440     		ands	r4, r2
 2024 0034 1C43     		orrs	r4, r3
1362:Generated_Source\PSoC6\pdl\drivers\peripheral\prot/cy_prot.c ****                     /* No region size - read only for master structs */
1363:Generated_Source\PSoC6\pdl\drivers\peripheral\prot/cy_prot.c ****                     | _VAL2FLD(PERI_GR_PPU_RG_ATT1_PC_MATCH, config->pcMatch);
 2025              		.loc 1 1363 0
 2026 0036 CB78     		ldrb	r3, [r1, #3]
 2027 0038 9B07     		lsls	r3, r3, #30
ARM GAS  C:\Users\kiwamu\AppData\Local\Temp\ccj1MWYe.s 			page 61


 2028 003a 8021     		movs	r1, #128
 2029              	.LVL201:
 2030 003c C905     		lsls	r1, r1, #23
 2031 003e 0B40     		ands	r3, r1
 2032 0040 1A00     		movs	r2, r3
1358:Generated_Source\PSoC6\pdl\drivers\peripheral\prot/cy_prot.c ****                     | (uint32_t)(((uint32_t)config->privPermission & CY_PROT_ATT_PERMISSION_MASK) <
 2033              		.loc 1 1358 0
 2034 0042 2300     		movs	r3, r4
 2035 0044 1343     		orrs	r3, r2
 2036              	.LVL202:
1364:Generated_Source\PSoC6\pdl\drivers\peripheral\prot/cy_prot.c ****         if ((attReg & CY_PROT_PPU_RG_ATT1_MASK) != attReg)
 2037              		.loc 1 1364 0
 2038 0046 0A4A     		ldr	r2, .L173+4
 2039 0048 1A40     		ands	r2, r3
 2040 004a 9342     		cmp	r3, r2
 2041 004c 09D1     		bne	.L171
1365:Generated_Source\PSoC6\pdl\drivers\peripheral\prot/cy_prot.c ****         {
1366:Generated_Source\PSoC6\pdl\drivers\peripheral\prot/cy_prot.c ****             /* Invalid parameter was passed */
1367:Generated_Source\PSoC6\pdl\drivers\peripheral\prot/cy_prot.c ****             status = CY_PROT_BAD_PARAM;
1368:Generated_Source\PSoC6\pdl\drivers\peripheral\prot/cy_prot.c ****         }
1369:Generated_Source\PSoC6\pdl\drivers\peripheral\prot/cy_prot.c ****         else
1370:Generated_Source\PSoC6\pdl\drivers\peripheral\prot/cy_prot.c ****         {
1371:Generated_Source\PSoC6\pdl\drivers\peripheral\prot/cy_prot.c ****             base->ATT1 = attReg;
 2042              		.loc 1 1371 0
 2043 004e 4362     		str	r3, [r0, #36]
1372:Generated_Source\PSoC6\pdl\drivers\peripheral\prot/cy_prot.c ****             status = ((base->ATT1 & CY_PROT_PPU_RG_ATT1_MASK) != attReg) ? CY_PROT_FAILURE : CY_PRO
 2044              		.loc 1 1372 0
 2045 0050 416A     		ldr	r1, [r0, #36]
 2046 0052 074A     		ldr	r2, .L173+4
 2047 0054 0A40     		ands	r2, r1
 2048 0056 9342     		cmp	r3, r2
 2049 0058 05D0     		beq	.L172
 2050 005a 0648     		ldr	r0, .L173+8
 2051              	.LVL203:
 2052 005c 04E0     		b	.L169
 2053              	.LVL204:
 2054              	.L170:
1353:Generated_Source\PSoC6\pdl\drivers\peripheral\prot/cy_prot.c ****     }
 2055              		.loc 1 1353 0
 2056 005e 0648     		ldr	r0, .L173+12
 2057              	.LVL205:
 2058 0060 02E0     		b	.L169
 2059              	.LVL206:
 2060              	.L171:
1367:Generated_Source\PSoC6\pdl\drivers\peripheral\prot/cy_prot.c ****         }
 2061              		.loc 1 1367 0
 2062 0062 0548     		ldr	r0, .L173+12
 2063              	.LVL207:
 2064 0064 00E0     		b	.L169
 2065              	.LVL208:
 2066              	.L172:
 2067              		.loc 1 1372 0
 2068 0066 0020     		movs	r0, #0
 2069              	.LVL209:
 2070              	.L169:
1373:Generated_Source\PSoC6\pdl\drivers\peripheral\prot/cy_prot.c ****         }
1374:Generated_Source\PSoC6\pdl\drivers\peripheral\prot/cy_prot.c ****     }
ARM GAS  C:\Users\kiwamu\AppData\Local\Temp\ccj1MWYe.s 			page 62


1375:Generated_Source\PSoC6\pdl\drivers\peripheral\prot/cy_prot.c ****     
1376:Generated_Source\PSoC6\pdl\drivers\peripheral\prot/cy_prot.c ****     return status;
1377:Generated_Source\PSoC6\pdl\drivers\peripheral\prot/cy_prot.c **** }
 2071              		.loc 1 1377 0
 2072              		@ sp needed
 2073 0068 70BD     		pop	{r4, r5, r6, pc}
 2074              	.L174:
 2075 006a C046     		.align	2
 2076              	.L173:
 2077 006c 00FEFF00 		.word	16776704
 2078 0070 D2FEFFE0 		.word	-520093998
 2079 0074 0300C200 		.word	12713987
 2080 0078 0100C200 		.word	12713985
 2081              		.cfi_endproc
 2082              	.LFE64:
 2083              		.size	Cy_Prot_ConfigPpuFixedRgMasterStruct, .-Cy_Prot_ConfigPpuFixedRgMasterStruct
 2084              		.section	.text.Cy_Prot_ConfigPpuFixedRgSlaveStruct,"ax",%progbits
 2085              		.align	2
 2086              		.global	Cy_Prot_ConfigPpuFixedRgSlaveStruct
 2087              		.code	16
 2088              		.thumb_func
 2089              		.type	Cy_Prot_ConfigPpuFixedRgSlaveStruct, %function
 2090              	Cy_Prot_ConfigPpuFixedRgSlaveStruct:
 2091              	.LFB65:
1378:Generated_Source\PSoC6\pdl\drivers\peripheral\prot/cy_prot.c **** 
1379:Generated_Source\PSoC6\pdl\drivers\peripheral\prot/cy_prot.c **** 
1380:Generated_Source\PSoC6\pdl\drivers\peripheral\prot/cy_prot.c **** /*******************************************************************************
1381:Generated_Source\PSoC6\pdl\drivers\peripheral\prot/cy_prot.c **** * Function Name: Cy_Prot_ConfigPpuFixedRgSlaveStruct
1382:Generated_Source\PSoC6\pdl\drivers\peripheral\prot/cy_prot.c **** ****************************************************************************//**
1383:Generated_Source\PSoC6\pdl\drivers\peripheral\prot/cy_prot.c **** *
1384:Generated_Source\PSoC6\pdl\drivers\peripheral\prot/cy_prot.c **** * \brief Configures a Fixed Peripheral Region Protection Unit (PPU RG) slave
1385:Generated_Source\PSoC6\pdl\drivers\peripheral\prot/cy_prot.c **** * protection struct with its protection attributes. 
1386:Generated_Source\PSoC6\pdl\drivers\peripheral\prot/cy_prot.c **** * 
1387:Generated_Source\PSoC6\pdl\drivers\peripheral\prot/cy_prot.c **** * This function configures the slave struct of a PPU RG pair, which can 
1388:Generated_Source\PSoC6\pdl\drivers\peripheral\prot/cy_prot.c **** * protect specified regions of peripheral instances. For example, individual
1389:Generated_Source\PSoC6\pdl\drivers\peripheral\prot/cy_prot.c **** * DW channel structs, SMPU structs, and IPC structs etc.
1390:Generated_Source\PSoC6\pdl\drivers\peripheral\prot/cy_prot.c **** *
1391:Generated_Source\PSoC6\pdl\drivers\peripheral\prot/cy_prot.c **** * Each fixed PPU RG is devoted to a defined peripheral region. Hence the address, 
1392:Generated_Source\PSoC6\pdl\drivers\peripheral\prot/cy_prot.c **** * regionSize and subregions of the configuration struct are not applicable.
1393:Generated_Source\PSoC6\pdl\drivers\peripheral\prot/cy_prot.c **** *
1394:Generated_Source\PSoC6\pdl\drivers\peripheral\prot/cy_prot.c **** * Note that the user/privileged execute accesses are read-only and are always 
1395:Generated_Source\PSoC6\pdl\drivers\peripheral\prot/cy_prot.c **** * enabled. 
1396:Generated_Source\PSoC6\pdl\drivers\peripheral\prot/cy_prot.c **** *
1397:Generated_Source\PSoC6\pdl\drivers\peripheral\prot/cy_prot.c **** * \param base
1398:Generated_Source\PSoC6\pdl\drivers\peripheral\prot/cy_prot.c **** * The register base address of the protection structure being configured.
1399:Generated_Source\PSoC6\pdl\drivers\peripheral\prot/cy_prot.c **** * 
1400:Generated_Source\PSoC6\pdl\drivers\peripheral\prot/cy_prot.c **** * \param config
1401:Generated_Source\PSoC6\pdl\drivers\peripheral\prot/cy_prot.c **** * Initialization structure with all the protection attributes.
1402:Generated_Source\PSoC6\pdl\drivers\peripheral\prot/cy_prot.c **** * 
1403:Generated_Source\PSoC6\pdl\drivers\peripheral\prot/cy_prot.c **** * \return
1404:Generated_Source\PSoC6\pdl\drivers\peripheral\prot/cy_prot.c **** * Status of the function call.
1405:Generated_Source\PSoC6\pdl\drivers\peripheral\prot/cy_prot.c **** *
1406:Generated_Source\PSoC6\pdl\drivers\peripheral\prot/cy_prot.c **** *   Status               | Description
1407:Generated_Source\PSoC6\pdl\drivers\peripheral\prot/cy_prot.c **** *   ------------         | -----------
1408:Generated_Source\PSoC6\pdl\drivers\peripheral\prot/cy_prot.c **** *   CY_PROT_SUCCESS      | PPU RG slave struct was successfully configured
1409:Generated_Source\PSoC6\pdl\drivers\peripheral\prot/cy_prot.c **** *   CY_PROT_FAILURE      | The resource is locked
1410:Generated_Source\PSoC6\pdl\drivers\peripheral\prot/cy_prot.c **** *   CY_PROT_BAD_PARAM    | An incorrect/invalid parameter was passed
ARM GAS  C:\Users\kiwamu\AppData\Local\Temp\ccj1MWYe.s 			page 63


1411:Generated_Source\PSoC6\pdl\drivers\peripheral\prot/cy_prot.c **** *  
1412:Generated_Source\PSoC6\pdl\drivers\peripheral\prot/cy_prot.c **** *******************************************************************************/
1413:Generated_Source\PSoC6\pdl\drivers\peripheral\prot/cy_prot.c **** cy_en_prot_status_t Cy_Prot_ConfigPpuFixedRgSlaveStruct(PERI_GR_PPU_RG_Type* base, const cy_stc_ppu
1414:Generated_Source\PSoC6\pdl\drivers\peripheral\prot/cy_prot.c **** {
 2092              		.loc 1 1414 0
 2093              		.cfi_startproc
 2094              		@ args = 0, pretend = 0, frame = 0
 2095              		@ frame_needed = 0, uses_anonymous_args = 0
 2096              	.LVL210:
 2097 0000 70B5     		push	{r4, r5, r6, lr}
 2098              		.cfi_def_cfa_offset 16
 2099              		.cfi_offset 4, -16
 2100              		.cfi_offset 5, -12
 2101              		.cfi_offset 6, -8
 2102              		.cfi_offset 14, -4
 2103              	.LVL211:
1415:Generated_Source\PSoC6\pdl\drivers\peripheral\prot/cy_prot.c ****     cy_en_prot_status_t status = CY_PROT_SUCCESS;
1416:Generated_Source\PSoC6\pdl\drivers\peripheral\prot/cy_prot.c ****     uint32_t attReg;
1417:Generated_Source\PSoC6\pdl\drivers\peripheral\prot/cy_prot.c ****     
1418:Generated_Source\PSoC6\pdl\drivers\peripheral\prot/cy_prot.c ****     if(((uint32_t)config->pcMask & CY_PROT_PPU_FIXED_PC_LIMIT_MASK) != 0UL) 
 2104              		.loc 1 1418 0
 2105 0002 8C88     		ldrh	r4, [r1, #4]
 2106 0004 7F23     		movs	r3, #127
 2107 0006 2200     		movs	r2, r4
 2108 0008 9A43     		bics	r2, r3
 2109 000a 28D1     		bne	.L177
1419:Generated_Source\PSoC6\pdl\drivers\peripheral\prot/cy_prot.c ****     {
1420:Generated_Source\PSoC6\pdl\drivers\peripheral\prot/cy_prot.c ****         /* PC mask out of range - not supported in device */
1421:Generated_Source\PSoC6\pdl\drivers\peripheral\prot/cy_prot.c ****         status = CY_PROT_BAD_PARAM;
1422:Generated_Source\PSoC6\pdl\drivers\peripheral\prot/cy_prot.c ****     }
1423:Generated_Source\PSoC6\pdl\drivers\peripheral\prot/cy_prot.c ****     else
1424:Generated_Source\PSoC6\pdl\drivers\peripheral\prot/cy_prot.c ****     {
1425:Generated_Source\PSoC6\pdl\drivers\peripheral\prot/cy_prot.c ****         /* ADDR0 is read only. Only configure ATT0 */
1426:Generated_Source\PSoC6\pdl\drivers\peripheral\prot/cy_prot.c ****         attReg = ((uint32_t)config->userPermission & CY_PROT_ATT_PERMISSION_MASK)
 2110              		.loc 1 1426 0
 2111 000c 0B78     		ldrb	r3, [r1]
 2112 000e 0725     		movs	r5, #7
 2113 0010 1D40     		ands	r5, r3
1427:Generated_Source\PSoC6\pdl\drivers\peripheral\prot/cy_prot.c ****                     | (uint32_t)(((uint32_t)config->privPermission & CY_PROT_ATT_PERMISSION_MASK) <
 2114              		.loc 1 1427 0
 2115 0012 4A78     		ldrb	r2, [r1, #1]
 2116 0014 D200     		lsls	r2, r2, #3
 2117 0016 3823     		movs	r3, #56
 2118 0018 1340     		ands	r3, r2
 2119 001a 1D43     		orrs	r5, r3
1428:Generated_Source\PSoC6\pdl\drivers\peripheral\prot/cy_prot.c ****                     | _VAL2FLD(PERI_GR_PPU_RG_ATT0_NS, !(config->secure))
 2120              		.loc 1 1428 0
 2121 001c 8B78     		ldrb	r3, [r1, #2]
 2122 001e 0122     		movs	r2, #1
 2123 0020 5A40     		eors	r2, r3
 2124 0022 D2B2     		uxtb	r2, r2
 2125 0024 9201     		lsls	r2, r2, #6
 2126 0026 4023     		movs	r3, #64
 2127 0028 1A40     		ands	r2, r3
 2128 002a 2B00     		movs	r3, r5
 2129 002c 1343     		orrs	r3, r2
1429:Generated_Source\PSoC6\pdl\drivers\peripheral\prot/cy_prot.c ****                     | _VAL2FLD(PERI_GR_PPU_RG_ATT0_PC_MASK_15_TO_1, config->pcMask)
ARM GAS  C:\Users\kiwamu\AppData\Local\Temp\ccj1MWYe.s 			page 64


 2130              		.loc 1 1429 0
 2131 002e 6402     		lsls	r4, r4, #9
 2132 0030 0E4A     		ldr	r2, .L180
 2133 0032 1440     		ands	r4, r2
 2134 0034 1C43     		orrs	r4, r3
1430:Generated_Source\PSoC6\pdl\drivers\peripheral\prot/cy_prot.c ****                     /* No region size - read only */
1431:Generated_Source\PSoC6\pdl\drivers\peripheral\prot/cy_prot.c ****                     | _VAL2FLD(PERI_GR_PPU_RG_ATT0_PC_MATCH, config->pcMatch);
 2135              		.loc 1 1431 0
 2136 0036 CB78     		ldrb	r3, [r1, #3]
 2137 0038 9B07     		lsls	r3, r3, #30
 2138 003a 8021     		movs	r1, #128
 2139              	.LVL212:
 2140 003c C905     		lsls	r1, r1, #23
 2141 003e 0B40     		ands	r3, r1
 2142 0040 1A00     		movs	r2, r3
1426:Generated_Source\PSoC6\pdl\drivers\peripheral\prot/cy_prot.c ****                     | (uint32_t)(((uint32_t)config->privPermission & CY_PROT_ATT_PERMISSION_MASK) <
 2143              		.loc 1 1426 0
 2144 0042 2300     		movs	r3, r4
 2145 0044 1343     		orrs	r3, r2
 2146              	.LVL213:
1432:Generated_Source\PSoC6\pdl\drivers\peripheral\prot/cy_prot.c ****         if ((attReg & CY_PROT_PPU_RG_ATT0_MASK) != attReg)
 2147              		.loc 1 1432 0
 2148 0046 0A4A     		ldr	r2, .L180+4
 2149 0048 1A40     		ands	r2, r3
 2150 004a 9342     		cmp	r3, r2
 2151 004c 09D1     		bne	.L178
1433:Generated_Source\PSoC6\pdl\drivers\peripheral\prot/cy_prot.c ****         {
1434:Generated_Source\PSoC6\pdl\drivers\peripheral\prot/cy_prot.c ****             /* Invalid parameter was passed */
1435:Generated_Source\PSoC6\pdl\drivers\peripheral\prot/cy_prot.c ****             status = CY_PROT_BAD_PARAM;
1436:Generated_Source\PSoC6\pdl\drivers\peripheral\prot/cy_prot.c ****         }
1437:Generated_Source\PSoC6\pdl\drivers\peripheral\prot/cy_prot.c ****         else
1438:Generated_Source\PSoC6\pdl\drivers\peripheral\prot/cy_prot.c ****         {
1439:Generated_Source\PSoC6\pdl\drivers\peripheral\prot/cy_prot.c ****             base->ATT0 = attReg;
 2152              		.loc 1 1439 0
 2153 004e 4360     		str	r3, [r0, #4]
