ARM GAS  C:\Users\kiwamu\AppData\Local\Temp\ccIx7zyv.s 			page 1


   1              		.syntax unified
   2              		.cpu cortex-m0plus
   3              		.fpu softvfp
   4              		.eabi_attribute 20, 1
   5              		.eabi_attribute 21, 1
   6              		.eabi_attribute 23, 3
   7              		.eabi_attribute 24, 1
   8              		.eabi_attribute 25, 1
   9              		.eabi_attribute 26, 1
  10              		.eabi_attribute 30, 1
  11              		.eabi_attribute 34, 0
  12              		.eabi_attribute 18, 4
  13              		.thumb
  14              		.syntax unified
  15              		.file	"cy_sysclk.c"
  16              		.text
  17              	.Ltext0:
  18              		.cfi_sections	.debug_frame
  19              		.global	__aeabi_ui2f
  20              		.global	__aeabi_fdiv
  21              		.global	__aeabi_fadd
  22              		.global	__aeabi_f2d
  23              		.global	__aeabi_d2f
  24              		.global	__aeabi_fmul
  25              		.global	__aeabi_f2uiz
  26              		.global	__aeabi_fcmpge
  27              		.global	__aeabi_fcmplt
  28              		.global	__aeabi_fcmpgt
  29              		.section	.text.Cy_SysClk_EcoConfigure,"ax",%progbits
  30              		.align	2
  31              		.global	Cy_SysClk_EcoConfigure
  32              		.code	16
  33              		.thumb_func
  34              		.type	Cy_SysClk_EcoConfigure, %function
  35              	Cy_SysClk_EcoConfigure:
  36              	.LFB139:
  37              		.file 1 "Generated_Source\\PSoC6\\pdl\\drivers\\peripheral\\sysclk\\cy_sysclk.c"
   1:Generated_Source\PSoC6\pdl\drivers\peripheral\sysclk/cy_sysclk.c **** /***************************************************************************//**
   2:Generated_Source\PSoC6\pdl\drivers\peripheral\sysclk/cy_sysclk.c **** * \file cy_sysclk.c
   3:Generated_Source\PSoC6\pdl\drivers\peripheral\sysclk/cy_sysclk.c **** * \version 1.10
   4:Generated_Source\PSoC6\pdl\drivers\peripheral\sysclk/cy_sysclk.c **** *
   5:Generated_Source\PSoC6\pdl\drivers\peripheral\sysclk/cy_sysclk.c **** * Provides an API implementation of the sysclk driver.
   6:Generated_Source\PSoC6\pdl\drivers\peripheral\sysclk/cy_sysclk.c **** *
   7:Generated_Source\PSoC6\pdl\drivers\peripheral\sysclk/cy_sysclk.c **** ********************************************************************************
   8:Generated_Source\PSoC6\pdl\drivers\peripheral\sysclk/cy_sysclk.c **** * \copyright
   9:Generated_Source\PSoC6\pdl\drivers\peripheral\sysclk/cy_sysclk.c **** * Copyright 2016, Cypress Semiconductor Corporation. All rights reserved.
  10:Generated_Source\PSoC6\pdl\drivers\peripheral\sysclk/cy_sysclk.c **** * You may use this file only in accordance with the license, terms, conditions,
  11:Generated_Source\PSoC6\pdl\drivers\peripheral\sysclk/cy_sysclk.c **** * disclaimers, and limitations in the end user license agreement accompanying
  12:Generated_Source\PSoC6\pdl\drivers\peripheral\sysclk/cy_sysclk.c **** * the software package with which this file was provided.
  13:Generated_Source\PSoC6\pdl\drivers\peripheral\sysclk/cy_sysclk.c **** *******************************************************************************/
  14:Generated_Source\PSoC6\pdl\drivers\peripheral\sysclk/cy_sysclk.c **** 
  15:Generated_Source\PSoC6\pdl\drivers\peripheral\sysclk/cy_sysclk.c **** 
  16:Generated_Source\PSoC6\pdl\drivers\peripheral\sysclk/cy_sysclk.c **** #include "cy_sysclk.h"
  17:Generated_Source\PSoC6\pdl\drivers\peripheral\sysclk/cy_sysclk.c **** #include "syslib/cy_syslib.h"
  18:Generated_Source\PSoC6\pdl\drivers\peripheral\sysclk/cy_sysclk.c **** #include <math.h>
  19:Generated_Source\PSoC6\pdl\drivers\peripheral\sysclk/cy_sysclk.c **** #include <stdlib.h>
  20:Generated_Source\PSoC6\pdl\drivers\peripheral\sysclk/cy_sysclk.c **** 
ARM GAS  C:\Users\kiwamu\AppData\Local\Temp\ccIx7zyv.s 			page 2


  21:Generated_Source\PSoC6\pdl\drivers\peripheral\sysclk/cy_sysclk.c **** #if defined(__cplusplus)
  22:Generated_Source\PSoC6\pdl\drivers\peripheral\sysclk/cy_sysclk.c **** extern "C" {
  23:Generated_Source\PSoC6\pdl\drivers\peripheral\sysclk/cy_sysclk.c **** #endif /* __cplusplus */
  24:Generated_Source\PSoC6\pdl\drivers\peripheral\sysclk/cy_sysclk.c **** 
  25:Generated_Source\PSoC6\pdl\drivers\peripheral\sysclk/cy_sysclk.c **** /* # of elements in an array */
  26:Generated_Source\PSoC6\pdl\drivers\peripheral\sysclk/cy_sysclk.c **** #define  CY_SYSCLK_N_ELMTS(a)  (sizeof(a) / sizeof((a)[0]))
  27:Generated_Source\PSoC6\pdl\drivers\peripheral\sysclk/cy_sysclk.c **** 
  28:Generated_Source\PSoC6\pdl\drivers\peripheral\sysclk/cy_sysclk.c **** /* ========================================================================== */
  29:Generated_Source\PSoC6\pdl\drivers\peripheral\sysclk/cy_sysclk.c **** /* ===========================    ECO SECTION    ============================ */
  30:Generated_Source\PSoC6\pdl\drivers\peripheral\sysclk/cy_sysclk.c **** /* ========================================================================== */
  31:Generated_Source\PSoC6\pdl\drivers\peripheral\sysclk/cy_sysclk.c **** /**
  32:Generated_Source\PSoC6\pdl\drivers\peripheral\sysclk/cy_sysclk.c **** * \addtogroup group_sysclk_eco_funcs
  33:Generated_Source\PSoC6\pdl\drivers\peripheral\sysclk/cy_sysclk.c **** * \{
  34:Generated_Source\PSoC6\pdl\drivers\peripheral\sysclk/cy_sysclk.c **** */
  35:Generated_Source\PSoC6\pdl\drivers\peripheral\sysclk/cy_sysclk.c **** /*******************************************************************************
  36:Generated_Source\PSoC6\pdl\drivers\peripheral\sysclk/cy_sysclk.c **** * Function Name: Cy_SysClk_EcoConfigure
  37:Generated_Source\PSoC6\pdl\drivers\peripheral\sysclk/cy_sysclk.c **** ****************************************************************************//**
  38:Generated_Source\PSoC6\pdl\drivers\peripheral\sysclk/cy_sysclk.c **** *
  39:Generated_Source\PSoC6\pdl\drivers\peripheral\sysclk/cy_sysclk.c **** * This function configures the external crystal oscillator (ECO) trim bits based
  40:Generated_Source\PSoC6\pdl\drivers\peripheral\sysclk/cy_sysclk.c **** * on crystal characteristics. This function should be called only when the ECO is
  41:Generated_Source\PSoC6\pdl\drivers\peripheral\sysclk/cy_sysclk.c **** * disabled.
  42:Generated_Source\PSoC6\pdl\drivers\peripheral\sysclk/cy_sysclk.c **** *
  43:Generated_Source\PSoC6\pdl\drivers\peripheral\sysclk/cy_sysclk.c **** * \param freq Operating frequency of the crystal in Hz.
  44:Generated_Source\PSoC6\pdl\drivers\peripheral\sysclk/cy_sysclk.c **** *
  45:Generated_Source\PSoC6\pdl\drivers\peripheral\sysclk/cy_sysclk.c **** * \param cLoad Crystal load capacitance in pF.
  46:Generated_Source\PSoC6\pdl\drivers\peripheral\sysclk/cy_sysclk.c **** *
  47:Generated_Source\PSoC6\pdl\drivers\peripheral\sysclk/cy_sysclk.c **** * \param esr Effective series resistance of the crystal in ohms.
  48:Generated_Source\PSoC6\pdl\drivers\peripheral\sysclk/cy_sysclk.c **** *
  49:Generated_Source\PSoC6\pdl\drivers\peripheral\sysclk/cy_sysclk.c **** * \param driveLevel Crystal drive level in uW.
  50:Generated_Source\PSoC6\pdl\drivers\peripheral\sysclk/cy_sysclk.c **** *
  51:Generated_Source\PSoC6\pdl\drivers\peripheral\sysclk/cy_sysclk.c **** * \return Error / status code:<br>
  52:Generated_Source\PSoC6\pdl\drivers\peripheral\sysclk/cy_sysclk.c **** * CY_SYSCLK_SUCCESS - ECO configuration completed successfully<br>
  53:Generated_Source\PSoC6\pdl\drivers\peripheral\sysclk/cy_sysclk.c **** * CY_SYSCLK_BAD_PARAM - One or more invalid parameters<br>
  54:Generated_Source\PSoC6\pdl\drivers\peripheral\sysclk/cy_sysclk.c **** * CY_SYSCLK_INVALID_STATE - ECO already enabled
  55:Generated_Source\PSoC6\pdl\drivers\peripheral\sysclk/cy_sysclk.c **** *
  56:Generated_Source\PSoC6\pdl\drivers\peripheral\sysclk/cy_sysclk.c **** * \note
  57:Generated_Source\PSoC6\pdl\drivers\peripheral\sysclk/cy_sysclk.c **** * The following calculations are implemented, generally in floating point:<br>
  58:Generated_Source\PSoC6\pdl\drivers\peripheral\sysclk/cy_sysclk.c **** *   freqMHz = freq / 1,000,000<br>
  59:Generated_Source\PSoC6\pdl\drivers\peripheral\sysclk/cy_sysclk.c **** *   max amplitude Vpp = 1,000 * sqrt(drivelevel / 2 / esr) / 3.14 / freqMHz / cLoad<br>
  60:Generated_Source\PSoC6\pdl\drivers\peripheral\sysclk/cy_sysclk.c **** *   gm_min mA/V = 5 * 4 * 3.14 * 3.14 * freqMhz^2 * cLoad^2 * 4 * esr / 1,000,000,000<br>
  61:Generated_Source\PSoC6\pdl\drivers\peripheral\sysclk/cy_sysclk.c **** *   Number of amplifier sections = INT(gm_min / 4.5)<br>
  62:Generated_Source\PSoC6\pdl\drivers\peripheral\sysclk/cy_sysclk.c **** *   As a result of the above calculations, max amplitude must be >= 0.5, and the
  63:Generated_Source\PSoC6\pdl\drivers\peripheral\sysclk/cy_sysclk.c **** *   number of amplifier sections must be <= 3, otherwise this function returns with
  64:Generated_Source\PSoC6\pdl\drivers\peripheral\sysclk/cy_sysclk.c **** *   a parameter error.<br>
  65:Generated_Source\PSoC6\pdl\drivers\peripheral\sysclk/cy_sysclk.c **** *   atrim = if max amplitude < 0.5 then error<br>
  66:Generated_Source\PSoC6\pdl\drivers\peripheral\sysclk/cy_sysclk.c **** *           else 2 * the following:<br>
  67:Generated_Source\PSoC6\pdl\drivers\peripheral\sysclk/cy_sysclk.c **** *                    max amplitude < 0.6: 0<br>
  68:Generated_Source\PSoC6\pdl\drivers\peripheral\sysclk/cy_sysclk.c **** *                    max amplitude < 0.7: 1<br>
  69:Generated_Source\PSoC6\pdl\drivers\peripheral\sysclk/cy_sysclk.c **** *                    max amplitude < 0.8: 2<br>
  70:Generated_Source\PSoC6\pdl\drivers\peripheral\sysclk/cy_sysclk.c **** *                    max amplitude < 0.9: 3<br>
  71:Generated_Source\PSoC6\pdl\drivers\peripheral\sysclk/cy_sysclk.c **** *                    max amplitude < 1.15: 5<br>
  72:Generated_Source\PSoC6\pdl\drivers\peripheral\sysclk/cy_sysclk.c **** *                    max amplitude < 1.275: 6<br>
  73:Generated_Source\PSoC6\pdl\drivers\peripheral\sysclk/cy_sysclk.c **** *                    max amplitude >= 1.275: 7<br>
  74:Generated_Source\PSoC6\pdl\drivers\peripheral\sysclk/cy_sysclk.c **** *   wdtrim = if max amplitude < 0.5 then error<br>
  75:Generated_Source\PSoC6\pdl\drivers\peripheral\sysclk/cy_sysclk.c **** *            else 2 * the following:<br>
  76:Generated_Source\PSoC6\pdl\drivers\peripheral\sysclk/cy_sysclk.c **** *                     max amplitude < 1.2: INT(5 * max amplitude) - 2<br>
  77:Generated_Source\PSoC6\pdl\drivers\peripheral\sysclk/cy_sysclk.c **** *                     max amplitude >= 1.2: 3<br>
ARM GAS  C:\Users\kiwamu\AppData\Local\Temp\ccIx7zyv.s 			page 3


  78:Generated_Source\PSoC6\pdl\drivers\peripheral\sysclk/cy_sysclk.c **** *   gtrim = if number of amplifier sections > 3 then error<br>
  79:Generated_Source\PSoC6\pdl\drivers\peripheral\sysclk/cy_sysclk.c **** *           else the following:<br>
  80:Generated_Source\PSoC6\pdl\drivers\peripheral\sysclk/cy_sysclk.c **** *                number of amplifier sections > 1: number of amplifier sections<br>
  81:Generated_Source\PSoC6\pdl\drivers\peripheral\sysclk/cy_sysclk.c **** *                number of amplifier sections = 1: 0<br>
  82:Generated_Source\PSoC6\pdl\drivers\peripheral\sysclk/cy_sysclk.c **** *                number of amplifier sections < 1: 1<br>
  83:Generated_Source\PSoC6\pdl\drivers\peripheral\sysclk/cy_sysclk.c **** *   rtrim = if gtrim = error then error<br>
  84:Generated_Source\PSoC6\pdl\drivers\peripheral\sysclk/cy_sysclk.c **** *           else the following:<br>
  85:Generated_Source\PSoC6\pdl\drivers\peripheral\sysclk/cy_sysclk.c **** *                freqMHz > 26.8: 0<br>
  86:Generated_Source\PSoC6\pdl\drivers\peripheral\sysclk/cy_sysclk.c **** *                freqMHz > 23.33: 1<br>
  87:Generated_Source\PSoC6\pdl\drivers\peripheral\sysclk/cy_sysclk.c **** *                freqMHz > 16.5: 2<br>
  88:Generated_Source\PSoC6\pdl\drivers\peripheral\sysclk/cy_sysclk.c **** *                freqMHz <= 16.5: 3<br>
  89:Generated_Source\PSoC6\pdl\drivers\peripheral\sysclk/cy_sysclk.c **** *   ftrim = if atrim = error then error<br>
  90:Generated_Source\PSoC6\pdl\drivers\peripheral\sysclk/cy_sysclk.c **** *           else INT(atrim / 2)<br>
  91:Generated_Source\PSoC6\pdl\drivers\peripheral\sysclk/cy_sysclk.c **** *
  92:Generated_Source\PSoC6\pdl\drivers\peripheral\sysclk/cy_sysclk.c **** *******************************************************************************/
  93:Generated_Source\PSoC6\pdl\drivers\peripheral\sysclk/cy_sysclk.c **** cy_en_sysclk_status_t Cy_SysClk_EcoConfigure(uint32_t freq, uint32_t cLoad, uint32_t esr, uint32_t 
  94:Generated_Source\PSoC6\pdl\drivers\peripheral\sysclk/cy_sysclk.c **** {
  38              		.loc 1 94 0
  39              		.cfi_startproc
  40              		@ args = 0, pretend = 0, frame = 0
  41              		@ frame_needed = 0, uses_anonymous_args = 0
  42              	.LVL0:
  43 0000 F8B5     		push	{r3, r4, r5, r6, r7, lr}
  44              		.cfi_def_cfa_offset 24
  45              		.cfi_offset 3, -24
  46              		.cfi_offset 4, -20
  47              		.cfi_offset 5, -16
  48              		.cfi_offset 6, -12
  49              		.cfi_offset 7, -8
  50              		.cfi_offset 14, -4
  51 0002 0C00     		movs	r4, r1
  52 0004 1500     		movs	r5, r2
  53 0006 1E00     		movs	r6, r3
  54              	.LVL1:
  95:Generated_Source\PSoC6\pdl\drivers\peripheral\sysclk/cy_sysclk.c ****     /* error if ECO is not disabled - any of the 3 enable bits are set */
  96:Generated_Source\PSoC6\pdl\drivers\peripheral\sysclk/cy_sysclk.c ****     cy_en_sysclk_status_t rtnval = CY_SYSCLK_INVALID_STATE;
  97:Generated_Source\PSoC6\pdl\drivers\peripheral\sysclk/cy_sysclk.c ****     if ((SRSS->CLK_ECO_CONFIG & 0xE0000000ul) == 0ul)
  55              		.loc 1 97 0
  56 0008 6C4B     		ldr	r3, .L32
  57              	.LVL2:
  58 000a 6D4A     		ldr	r2, .L32+4
  59              	.LVL3:
  60 000c D358     		ldr	r3, [r2, r3]
  61 000e 5B0F     		lsrs	r3, r3, #29
  62 0010 00D0     		beq	.LCB28
  63 0012 CDE0     		b	.L11	@long jump
  64              	.LCB28:
  65              	.LBB29:
  98:Generated_Source\PSoC6\pdl\drivers\peripheral\sysclk/cy_sysclk.c ****     {
  99:Generated_Source\PSoC6\pdl\drivers\peripheral\sysclk/cy_sysclk.c ****         /* calculate intemediate values */
 100:Generated_Source\PSoC6\pdl\drivers\peripheral\sysclk/cy_sysclk.c ****         float32_t freqMHz = (float32_t)freq / 1000000.0f;
  66              		.loc 1 100 0
  67 0014 FFF7FEFF 		bl	__aeabi_ui2f
  68              	.LVL4:
  69 0018 6A49     		ldr	r1, .L32+8
  70 001a FFF7FEFF 		bl	__aeabi_fdiv
  71              	.LVL5:
ARM GAS  C:\Users\kiwamu\AppData\Local\Temp\ccIx7zyv.s 			page 4


  72 001e 071C     		adds	r7, r0, #0
  73              	.LVL6:
 101:Generated_Source\PSoC6\pdl\drivers\peripheral\sysclk/cy_sysclk.c ****         float32_t maxAmplitude =
 102:Generated_Source\PSoC6\pdl\drivers\peripheral\sysclk/cy_sysclk.c ****             (1000.0f * ((float32_t)sqrt((float64_t)((float32_t)driveLevel / (2.0f * (float32_t)esr)
  74              		.loc 1 102 0
  75 0020 3000     		movs	r0, r6
  76              	.LVL7:
  77 0022 FFF7FEFF 		bl	__aeabi_ui2f
  78              	.LVL8:
  79 0026 061C     		adds	r6, r0, #0
  80              	.LVL9:
  81 0028 2800     		movs	r0, r5
  82 002a FFF7FEFF 		bl	__aeabi_ui2f
  83              	.LVL10:
  84 002e 011C     		adds	r1, r0, #0
  85 0030 FFF7FEFF 		bl	__aeabi_fadd
  86              	.LVL11:
  87 0034 011C     		adds	r1, r0, #0
  88 0036 301C     		adds	r0, r6, #0
  89 0038 FFF7FEFF 		bl	__aeabi_fdiv
  90              	.LVL12:
  91 003c 051C     		adds	r5, r0, #0
  92              	.LVL13:
  93 003e 281C     		adds	r0, r5, #0
  94 0040 FFF7FEFF 		bl	__aeabi_f2d
  95              	.LVL14:
  96 0044 FFF7FEFF 		bl	sqrt
  97              	.LVL15:
  98 0048 FFF7FEFF 		bl	__aeabi_d2f
  99              	.LVL16:
 100 004c 5E49     		ldr	r1, .L32+12
 101 004e FFF7FEFF 		bl	__aeabi_fmul
 102              	.LVL17:
 103 0052 051C     		adds	r5, r0, #0
 103:Generated_Source\PSoC6\pdl\drivers\peripheral\sysclk/cy_sysclk.c ****             (3.14f * freqMHz * (float32_t)cLoad);
 104              		.loc 1 103 0
 105 0054 5D49     		ldr	r1, .L32+16
 106 0056 381C     		adds	r0, r7, #0
 107 0058 FFF7FEFF 		bl	__aeabi_fmul
 108              	.LVL18:
 109 005c 061C     		adds	r6, r0, #0
 110 005e 2000     		movs	r0, r4
 111 0060 FFF7FEFF 		bl	__aeabi_ui2f
 112              	.LVL19:
 113 0064 041C     		adds	r4, r0, #0
 114              	.LVL20:
 115 0066 011C     		adds	r1, r0, #0
 116 0068 301C     		adds	r0, r6, #0
 117 006a FFF7FEFF 		bl	__aeabi_fmul
 118              	.LVL21:
 119 006e 011C     		adds	r1, r0, #0
 101:Generated_Source\PSoC6\pdl\drivers\peripheral\sysclk/cy_sysclk.c ****         float32_t maxAmplitude =
 120              		.loc 1 101 0
 121 0070 281C     		adds	r0, r5, #0
 122 0072 FFF7FEFF 		bl	__aeabi_fdiv
 123              	.LVL22:
 124 0076 051C     		adds	r5, r0, #0
ARM GAS  C:\Users\kiwamu\AppData\Local\Temp\ccIx7zyv.s 			page 5


 125              	.LVL23:
 104:Generated_Source\PSoC6\pdl\drivers\peripheral\sysclk/cy_sysclk.c ****         float32_t gm_min =
 105:Generated_Source\PSoC6\pdl\drivers\peripheral\sysclk/cy_sysclk.c ****             (788.8f /*5 * 4 * 3.14 * 3.14 * 4*/ * freqMHz * freqMHz * (float32_t)cLoad * (float32_t
 126              		.loc 1 105 0
 127 0078 5549     		ldr	r1, .L32+20
 128 007a 381C     		adds	r0, r7, #0
 129              	.LVL24:
 130 007c FFF7FEFF 		bl	__aeabi_fmul
 131              	.LVL25:
 132 0080 011C     		adds	r1, r0, #0
 133 0082 381C     		adds	r0, r7, #0
 134 0084 FFF7FEFF 		bl	__aeabi_fmul
 135              	.LVL26:
 136 0088 011C     		adds	r1, r0, #0
 137 008a 201C     		adds	r0, r4, #0
 138 008c FFF7FEFF 		bl	__aeabi_fmul
 139              	.LVL27:
 140 0090 011C     		adds	r1, r0, #0
 141 0092 201C     		adds	r0, r4, #0
 142 0094 FFF7FEFF 		bl	__aeabi_fmul
 143              	.LVL28:
 104:Generated_Source\PSoC6\pdl\drivers\peripheral\sysclk/cy_sysclk.c ****         float32_t gm_min =
 144              		.loc 1 104 0
 145 0098 4E49     		ldr	r1, .L32+24
 146 009a FFF7FEFF 		bl	__aeabi_fdiv
 147              	.LVL29:
 106:Generated_Source\PSoC6\pdl\drivers\peripheral\sysclk/cy_sysclk.c ****             1000000000.0f;
 107:Generated_Source\PSoC6\pdl\drivers\peripheral\sysclk/cy_sysclk.c ****         uint32_t nAmpSections = (uint32_t)(gm_min / 4.5f);
 148              		.loc 1 107 0
 149 009e 4E49     		ldr	r1, .L32+28
 150 00a0 FFF7FEFF 		bl	__aeabi_fdiv
 151              	.LVL30:
 152 00a4 FFF7FEFF 		bl	__aeabi_f2uiz
 153              	.LVL31:
 154 00a8 0400     		movs	r4, r0
 155              	.LVL32:
 108:Generated_Source\PSoC6\pdl\drivers\peripheral\sysclk/cy_sysclk.c **** 
 109:Generated_Source\PSoC6\pdl\drivers\peripheral\sysclk/cy_sysclk.c ****         /* Error if input parameters cause erroneous intermediate values. */
 110:Generated_Source\PSoC6\pdl\drivers\peripheral\sysclk/cy_sysclk.c ****         rtnval = CY_SYSCLK_BAD_PARAM;
 111:Generated_Source\PSoC6\pdl\drivers\peripheral\sysclk/cy_sysclk.c ****         if ((maxAmplitude >= 0.5f) && (nAmpSections <= 3ul))
 156              		.loc 1 111 0
 157 00aa FC21     		movs	r1, #252
 158 00ac 8905     		lsls	r1, r1, #22
 159 00ae 281C     		adds	r0, r5, #0
 160              	.LVL33:
 161 00b0 FFF7FEFF 		bl	__aeabi_fcmpge
 162              	.LVL34:
 163 00b4 0028     		cmp	r0, #0
 164 00b6 7DD0     		beq	.L28
 165              		.loc 1 111 0 is_stmt 0 discriminator 1
 166 00b8 032C     		cmp	r4, #3
 167 00ba 7DD8     		bhi	.L13
 168              	.LBB30:
 112:Generated_Source\PSoC6\pdl\drivers\peripheral\sysclk/cy_sysclk.c ****         {
 113:Generated_Source\PSoC6\pdl\drivers\peripheral\sysclk/cy_sysclk.c ****             uint32_t atrim, wdtrim, gtrim, rtrim, ftrim, reg;
 114:Generated_Source\PSoC6\pdl\drivers\peripheral\sysclk/cy_sysclk.c **** 
 115:Generated_Source\PSoC6\pdl\drivers\peripheral\sysclk/cy_sysclk.c ****             atrim = 2ul * ((maxAmplitude < 0.6f) ? 0ul :
ARM GAS  C:\Users\kiwamu\AppData\Local\Temp\ccIx7zyv.s 			page 6


 169              		.loc 1 115 0 is_stmt 1
 170 00bc 4749     		ldr	r1, .L32+32
 171 00be 281C     		adds	r0, r5, #0
 172 00c0 FFF7FEFF 		bl	__aeabi_fcmplt
 173              	.LVL35:
 174 00c4 0028     		cmp	r0, #0
 175 00c6 1FD1     		bne	.L14
 176              		.loc 1 115 0 is_stmt 0 discriminator 2
 177 00c8 4549     		ldr	r1, .L32+36
 178 00ca 281C     		adds	r0, r5, #0
 179 00cc FFF7FEFF 		bl	__aeabi_fcmplt
 180              	.LVL36:
 181 00d0 0028     		cmp	r0, #0
 182 00d2 1BD1     		bne	.L15
 183              		.loc 1 115 0 discriminator 5
 184 00d4 4349     		ldr	r1, .L32+40
 185 00d6 281C     		adds	r0, r5, #0
 186 00d8 FFF7FEFF 		bl	__aeabi_fcmplt
 187              	.LVL37:
 188 00dc 0028     		cmp	r0, #0
 189 00de 17D1     		bne	.L16
 190              		.loc 1 115 0 discriminator 8
 191 00e0 4149     		ldr	r1, .L32+44
 192 00e2 281C     		adds	r0, r5, #0
 193 00e4 FFF7FEFF 		bl	__aeabi_fcmplt
 194              	.LVL38:
 195 00e8 0028     		cmp	r0, #0
 196 00ea 13D1     		bne	.L17
 197              		.loc 1 115 0 discriminator 11
 198 00ec 3F49     		ldr	r1, .L32+48
 199 00ee 281C     		adds	r0, r5, #0
 200 00f0 FFF7FEFF 		bl	__aeabi_fcmplt
 201              	.LVL39:
 202 00f4 0028     		cmp	r0, #0
 203 00f6 0FD1     		bne	.L18
 204              		.loc 1 115 0 discriminator 14
 205 00f8 3D49     		ldr	r1, .L32+52
 206 00fa 281C     		adds	r0, r5, #0
 207 00fc FFF7FEFF 		bl	__aeabi_fcmplt
 208              	.LVL40:
 209 0100 0028     		cmp	r0, #0
 210 0102 0BD0     		beq	.L29
 211              		.loc 1 115 0
 212 0104 0C26     		movs	r6, #12
 213 0106 0AE0     		b	.L4
 214              	.L14:
 215 0108 0026     		movs	r6, #0
 216 010a 08E0     		b	.L4
 217              	.L15:
 218 010c 0226     		movs	r6, #2
 219 010e 06E0     		b	.L4
 220              	.L16:
 221 0110 0426     		movs	r6, #4
 222 0112 04E0     		b	.L4
 223              	.L17:
 224 0114 0626     		movs	r6, #6
 225 0116 02E0     		b	.L4
ARM GAS  C:\Users\kiwamu\AppData\Local\Temp\ccIx7zyv.s 			page 7


 226              	.L18:
 227 0118 0A26     		movs	r6, #10
 228 011a 00E0     		b	.L4
 229              	.L29:
 230 011c 0E26     		movs	r6, #14
 231              	.L4:
 232              	.LVL41:
 116:Generated_Source\PSoC6\pdl\drivers\peripheral\sysclk/cy_sysclk.c ****                            ((maxAmplitude < 0.7f) ? 1ul :
 117:Generated_Source\PSoC6\pdl\drivers\peripheral\sysclk/cy_sysclk.c ****                             ((maxAmplitude < 0.8f) ? 2ul :
 118:Generated_Source\PSoC6\pdl\drivers\peripheral\sysclk/cy_sysclk.c ****                              ((maxAmplitude < 0.9f) ? 3ul :
 119:Generated_Source\PSoC6\pdl\drivers\peripheral\sysclk/cy_sysclk.c ****                               ((maxAmplitude < 1.15f) ? 5ul :
 120:Generated_Source\PSoC6\pdl\drivers\peripheral\sysclk/cy_sysclk.c ****                                ((maxAmplitude < 1.275f) ? 6ul : 7ul))))));
 121:Generated_Source\PSoC6\pdl\drivers\peripheral\sysclk/cy_sysclk.c **** 
 122:Generated_Source\PSoC6\pdl\drivers\peripheral\sysclk/cy_sysclk.c ****             wdtrim = 2ul * ((maxAmplitude < 1.2f) ? (uint32_t)(5.0f * maxAmplitude) - 2ul : 3ul);
 233              		.loc 1 122 0 is_stmt 1 discriminator 24
 234 011e 3549     		ldr	r1, .L32+56
 235 0120 281C     		adds	r0, r5, #0
 236 0122 FFF7FEFF 		bl	__aeabi_fcmplt
 237              	.LVL42:
 238 0126 0028     		cmp	r0, #0
 239 0128 09D0     		beq	.L30
 240              		.loc 1 122 0 is_stmt 0 discriminator 1
 241 012a 3349     		ldr	r1, .L32+60
 242 012c 281C     		adds	r0, r5, #0
 243 012e FFF7FEFF 		bl	__aeabi_fmul
 244              	.LVL43:
 245 0132 FFF7FEFF 		bl	__aeabi_f2uiz
 246              	.LVL44:
 247 0136 314B     		ldr	r3, .L32+64
 248 0138 C518     		adds	r5, r0, r3
 249              	.LVL45:
 250 013a 6D00     		lsls	r5, r5, #1
 251 013c 00E0     		b	.L6
 252              	.LVL46:
 253              	.L30:
 254              		.loc 1 122 0
 255 013e 0625     		movs	r5, #6
 256              	.LVL47:
 257              	.L6:
 123:Generated_Source\PSoC6\pdl\drivers\peripheral\sysclk/cy_sysclk.c **** 
 124:Generated_Source\PSoC6\pdl\drivers\peripheral\sysclk/cy_sysclk.c ****             gtrim = ((nAmpSections > 1ul) ? nAmpSections :
 258              		.loc 1 124 0 is_stmt 1 discriminator 4
 259 0140 012C     		cmp	r4, #1
 260 0142 03D8     		bhi	.L8
 125:Generated_Source\PSoC6\pdl\drivers\peripheral\sysclk/cy_sysclk.c ****                      ((nAmpSections == 1ul) ? 0ul : 1ul));
 261              		.loc 1 125 0 discriminator 1
 262 0144 013C     		subs	r4, r4, #1
 263              	.LVL48:
 264 0146 631E     		subs	r3, r4, #1
 265 0148 9C41     		sbcs	r4, r4, r3
 266              	.LVL49:
 267 014a E4B2     		uxtb	r4, r4
 268              	.L8:
 269              	.LVL50:
 126:Generated_Source\PSoC6\pdl\drivers\peripheral\sysclk/cy_sysclk.c **** 
 127:Generated_Source\PSoC6\pdl\drivers\peripheral\sysclk/cy_sysclk.c ****             rtrim = ((freqMHz > 26.8f) ? 0ul :
 270              		.loc 1 127 0 discriminator 4
ARM GAS  C:\Users\kiwamu\AppData\Local\Temp\ccIx7zyv.s 			page 8


 271 014c 2C49     		ldr	r1, .L32+68
 272 014e 381C     		adds	r0, r7, #0
 273 0150 FFF7FEFF 		bl	__aeabi_fcmpgt
 274              	.LVL51:
 275 0154 0028     		cmp	r0, #0
 276 0156 0DD1     		bne	.L21
 128:Generated_Source\PSoC6\pdl\drivers\peripheral\sysclk/cy_sysclk.c ****                      ((freqMHz > 23.33f) ? 1ul :
 277              		.loc 1 128 0
 278 0158 2A49     		ldr	r1, .L32+72
 279 015a 381C     		adds	r0, r7, #0
 280 015c FFF7FEFF 		bl	__aeabi_fcmpgt
 281              	.LVL52:
 282 0160 0028     		cmp	r0, #0
 283 0162 09D1     		bne	.L22
 129:Generated_Source\PSoC6\pdl\drivers\peripheral\sysclk/cy_sysclk.c ****                       ((freqMHz > 16.5f) ? 2ul : 3ul)));
 284              		.loc 1 129 0
 285 0164 2849     		ldr	r1, .L32+76
 286 0166 381C     		adds	r0, r7, #0
 287 0168 FFF7FEFF 		bl	__aeabi_fcmpgt
 288              	.LVL53:
 289 016c 0028     		cmp	r0, #0
 290 016e 05D0     		beq	.L31
 291 0170 0227     		movs	r7, #2
 292              	.LVL54:
 293 0172 04E0     		b	.L9
 294              	.LVL55:
 295              	.L21:
 127:Generated_Source\PSoC6\pdl\drivers\peripheral\sysclk/cy_sysclk.c ****                      ((freqMHz > 23.33f) ? 1ul :
 296              		.loc 1 127 0
 297 0174 0027     		movs	r7, #0
 298              	.LVL56:
 299 0176 02E0     		b	.L9
 300              	.LVL57:
 301              	.L22:
 128:Generated_Source\PSoC6\pdl\drivers\peripheral\sysclk/cy_sysclk.c ****                      ((freqMHz > 23.33f) ? 1ul :
 302              		.loc 1 128 0
 303 0178 0127     		movs	r7, #1
 304              	.LVL58:
 305 017a 00E0     		b	.L9
 306              	.LVL59:
 307              	.L31:
 308              		.loc 1 129 0
 309 017c 0327     		movs	r7, #3
 310              	.LVL60:
 311              	.L9:
 130:Generated_Source\PSoC6\pdl\drivers\peripheral\sysclk/cy_sysclk.c **** 
 131:Generated_Source\PSoC6\pdl\drivers\peripheral\sysclk/cy_sysclk.c ****             ftrim = atrim / 2ul;
 132:Generated_Source\PSoC6\pdl\drivers\peripheral\sysclk/cy_sysclk.c **** 
 133:Generated_Source\PSoC6\pdl\drivers\peripheral\sysclk/cy_sysclk.c ****             /* update all fields of trim control register with one write, without
 134:Generated_Source\PSoC6\pdl\drivers\peripheral\sysclk/cy_sysclk.c ****                changing the ITRIM field in bits [21:16]:
 135:Generated_Source\PSoC6\pdl\drivers\peripheral\sysclk/cy_sysclk.c ****                  gtrim:  bits [13:12]
 136:Generated_Source\PSoC6\pdl\drivers\peripheral\sysclk/cy_sysclk.c ****                  rtrim:  bits [11:10]
 137:Generated_Source\PSoC6\pdl\drivers\peripheral\sysclk/cy_sysclk.c ****                  ftrim:  bits  [9:8]
 138:Generated_Source\PSoC6\pdl\drivers\peripheral\sysclk/cy_sysclk.c ****                  atrim:  bits  [7:4]
 139:Generated_Source\PSoC6\pdl\drivers\peripheral\sysclk/cy_sysclk.c ****                  wdtrim: bits  [2:0]
 140:Generated_Source\PSoC6\pdl\drivers\peripheral\sysclk/cy_sysclk.c ****             */
 141:Generated_Source\PSoC6\pdl\drivers\peripheral\sysclk/cy_sysclk.c ****             reg = (SRSS->CLK_TRIM_ECO_CTL & ~0x3FFFul);
ARM GAS  C:\Users\kiwamu\AppData\Local\Temp\ccIx7zyv.s 			page 9


 312              		.loc 1 141 0 discriminator 2
 313 017e 1049     		ldr	r1, .L32+4
 314 0180 224A     		ldr	r2, .L32+80
 315 0182 8858     		ldr	r0, [r1, r2]
 316 0184 800B     		lsrs	r0, r0, #14
 317 0186 8003     		lsls	r0, r0, #14
 318              	.LVL61:
 142:Generated_Source\PSoC6\pdl\drivers\peripheral\sysclk/cy_sysclk.c ****             reg |= (gtrim  & 3ul)    << 12;
 319              		.loc 1 142 0 discriminator 2
 320 0188 2403     		lsls	r4, r4, #12
 321              	.LVL62:
 322 018a C023     		movs	r3, #192
 323 018c 9B01     		lsls	r3, r3, #6
 324 018e 1C40     		ands	r4, r3
 325 0190 0443     		orrs	r4, r0
 326              	.LVL63:
 143:Generated_Source\PSoC6\pdl\drivers\peripheral\sysclk/cy_sysclk.c ****             reg |= (rtrim  & 3ul)    << 10;
 327              		.loc 1 143 0 discriminator 2
 328 0192 BB02     		lsls	r3, r7, #10
 329 0194 1C43     		orrs	r4, r3
 330              	.LVL64:
 144:Generated_Source\PSoC6\pdl\drivers\peripheral\sysclk/cy_sysclk.c ****             reg |= (ftrim  & 3ul)    << 8;
 331              		.loc 1 144 0 discriminator 2
 332 0196 F001     		lsls	r0, r6, #7
 333 0198 C023     		movs	r3, #192
 334 019a 9B00     		lsls	r3, r3, #2
 335 019c 0340     		ands	r3, r0
 336 019e 1C43     		orrs	r4, r3
 337              	.LVL65:
 145:Generated_Source\PSoC6\pdl\drivers\peripheral\sysclk/cy_sysclk.c ****             reg |= (atrim  & 0x0Ful) << 4;
 338              		.loc 1 145 0 discriminator 2
 339 01a0 3601     		lsls	r6, r6, #4
 340              	.LVL66:
 341 01a2 2643     		orrs	r6, r4
 342              	.LVL67:
 146:Generated_Source\PSoC6\pdl\drivers\peripheral\sysclk/cy_sysclk.c ****             reg |= (wdtrim & 7ul);
 343              		.loc 1 146 0 discriminator 2
 344 01a4 0720     		movs	r0, #7
 345 01a6 0540     		ands	r5, r0
 346              	.LVL68:
 347 01a8 2E43     		orrs	r6, r5
 348              	.LVL69:
 147:Generated_Source\PSoC6\pdl\drivers\peripheral\sysclk/cy_sysclk.c ****             SRSS->CLK_TRIM_ECO_CTL = reg;
 349              		.loc 1 147 0 discriminator 2
 350 01aa 8E50     		str	r6, [r1, r2]
 351              	.LVL70:
 148:Generated_Source\PSoC6\pdl\drivers\peripheral\sysclk/cy_sysclk.c **** 
 149:Generated_Source\PSoC6\pdl\drivers\peripheral\sysclk/cy_sysclk.c ****             rtnval = CY_SYSCLK_SUCCESS;
 352              		.loc 1 149 0 discriminator 2
 353 01ac 0020     		movs	r0, #0
 354 01ae 04E0     		b	.L2
 355              	.LVL71:
 356              	.L11:
 357              	.LBE30:
 358              	.LBE29:
  96:Generated_Source\PSoC6\pdl\drivers\peripheral\sysclk/cy_sysclk.c ****     if ((SRSS->CLK_ECO_CONFIG & 0xE0000000ul) == 0ul)
 359              		.loc 1 96 0
ARM GAS  C:\Users\kiwamu\AppData\Local\Temp\ccIx7zyv.s 			page 10


 360 01b0 1748     		ldr	r0, .L32+84
 361              	.LVL72:
 362 01b2 02E0     		b	.L2
 363              	.LVL73:
 364              	.L28:
 365              	.LBB31:
 110:Generated_Source\PSoC6\pdl\drivers\peripheral\sysclk/cy_sysclk.c ****         if ((maxAmplitude >= 0.5f) && (nAmpSections <= 3ul))
 366              		.loc 1 110 0
 367 01b4 1748     		ldr	r0, .L32+88
 368 01b6 00E0     		b	.L2
 369              	.L13:
 370 01b8 1648     		ldr	r0, .L32+88
 371              	.LVL74:
 372              	.L2:
 373              	.LBE31:
 150:Generated_Source\PSoC6\pdl\drivers\peripheral\sysclk/cy_sysclk.c ****         } /* if valid parameters */
 151:Generated_Source\PSoC6\pdl\drivers\peripheral\sysclk/cy_sysclk.c ****     } /* if ECO not enabled */
 152:Generated_Source\PSoC6\pdl\drivers\peripheral\sysclk/cy_sysclk.c **** 
 153:Generated_Source\PSoC6\pdl\drivers\peripheral\sysclk/cy_sysclk.c ****     return (rtnval);
 154:Generated_Source\PSoC6\pdl\drivers\peripheral\sysclk/cy_sysclk.c **** }
 374              		.loc 1 154 0
 375              		@ sp needed
 376 01ba F8BD     		pop	{r3, r4, r5, r6, r7, pc}
 377              	.L33:
 378              		.align	2
 379              	.L32:
 380 01bc 2C050000 		.word	1324
 381 01c0 00002640 		.word	1076232192
 382 01c4 00247449 		.word	1232348160
 383 01c8 00007A44 		.word	1148846080
 384 01cc C3F54840 		.word	1078523331
 385 01d0 33334544 		.word	1145385779
 386 01d4 286B6E4E 		.word	1315859240
 387 01d8 00009040 		.word	1083179008
 388 01dc 9A99193F 		.word	1058642330
 389 01e0 3333333F 		.word	1060320051
 390 01e4 CDCC4C3F 		.word	1061997773
 391 01e8 6666663F 		.word	1063675494
 392 01ec 3333933F 		.word	1066611507
 393 01f0 3333A33F 		.word	1067660083
 394 01f4 9A99993F 		.word	1067030938
 395 01f8 0000A040 		.word	1084227584
 396 01fc FEFFFF7F 		.word	2147483646
 397 0200 6666D641 		.word	1104569958
 398 0204 D7A3BA41 		.word	1102750679
 399 0208 00008441 		.word	1099169792
 400 020c 20FF0000 		.word	65312
 401 0210 03004A00 		.word	4849667
 402 0214 01004A00 		.word	4849665
 403              		.cfi_endproc
 404              	.LFE139:
 405              		.size	Cy_SysClk_EcoConfigure, .-Cy_SysClk_EcoConfigure
 406              		.section	.text.Cy_SysClk_EcoEnable,"ax",%progbits
 407              		.align	2
 408              		.global	Cy_SysClk_EcoEnable
 409              		.code	16
 410              		.thumb_func
ARM GAS  C:\Users\kiwamu\AppData\Local\Temp\ccIx7zyv.s 			page 11


 411              		.type	Cy_SysClk_EcoEnable, %function
 412              	Cy_SysClk_EcoEnable:
 413              	.LFB140:
 155:Generated_Source\PSoC6\pdl\drivers\peripheral\sysclk/cy_sysclk.c **** 
 156:Generated_Source\PSoC6\pdl\drivers\peripheral\sysclk/cy_sysclk.c **** /*******************************************************************************
 157:Generated_Source\PSoC6\pdl\drivers\peripheral\sysclk/cy_sysclk.c **** * Function Name: Cy_SysClk_EcoEnable
 158:Generated_Source\PSoC6\pdl\drivers\peripheral\sysclk/cy_sysclk.c **** ****************************************************************************//**
 159:Generated_Source\PSoC6\pdl\drivers\peripheral\sysclk/cy_sysclk.c **** *
 160:Generated_Source\PSoC6\pdl\drivers\peripheral\sysclk/cy_sysclk.c **** * Enables the external crystal oscillator (ECO). This function should be called
 161:Generated_Source\PSoC6\pdl\drivers\peripheral\sysclk/cy_sysclk.c **** * after \ref Cy_SysClk_EcoConfigure.
 162:Generated_Source\PSoC6\pdl\drivers\peripheral\sysclk/cy_sysclk.c **** *
 163:Generated_Source\PSoC6\pdl\drivers\peripheral\sysclk/cy_sysclk.c **** * \param timeoutus Amount of time in microseconds to wait for the ECO to lock.
 164:Generated_Source\PSoC6\pdl\drivers\peripheral\sysclk/cy_sysclk.c **** * If a lock does not occur, the ECO is stopped. To avoid waiting for a lock, set
 165:Generated_Source\PSoC6\pdl\drivers\peripheral\sysclk/cy_sysclk.c **** * this parameter to 0.
 166:Generated_Source\PSoC6\pdl\drivers\peripheral\sysclk/cy_sysclk.c **** *
 167:Generated_Source\PSoC6\pdl\drivers\peripheral\sysclk/cy_sysclk.c **** * \return Error / status code:<br>
 168:Generated_Source\PSoC6\pdl\drivers\peripheral\sysclk/cy_sysclk.c **** * CY_SYSCLK_SUCCESS - ECO locked<br>
 169:Generated_Source\PSoC6\pdl\drivers\peripheral\sysclk/cy_sysclk.c **** * CY_SYSCLK_TIMEOUT - ECO timed out and did not lock
 170:Generated_Source\PSoC6\pdl\drivers\peripheral\sysclk/cy_sysclk.c **** * CY_SYSCLK_INVALID_STATE - ECO already enabled
 171:Generated_Source\PSoC6\pdl\drivers\peripheral\sysclk/cy_sysclk.c **** *
 172:Generated_Source\PSoC6\pdl\drivers\peripheral\sysclk/cy_sysclk.c **** *******************************************************************************/
 173:Generated_Source\PSoC6\pdl\drivers\peripheral\sysclk/cy_sysclk.c **** cy_en_sysclk_status_t Cy_SysClk_EcoEnable(uint32_t timeoutus)
 174:Generated_Source\PSoC6\pdl\drivers\peripheral\sysclk/cy_sysclk.c **** {
 414              		.loc 1 174 0
 415              		.cfi_startproc
 416              		@ args = 0, pretend = 0, frame = 0
 417              		@ frame_needed = 0, uses_anonymous_args = 0
 418              	.LVL75:
 419 0000 10B5     		push	{r4, lr}
 420              		.cfi_def_cfa_offset 8
 421              		.cfi_offset 4, -8
 422              		.cfi_offset 14, -4
 423 0002 0400     		movs	r4, r0
 424              	.LVL76:
 175:Generated_Source\PSoC6\pdl\drivers\peripheral\sysclk/cy_sysclk.c ****     cy_en_sysclk_status_t rtnval = CY_SYSCLK_INVALID_STATE;
 176:Generated_Source\PSoC6\pdl\drivers\peripheral\sysclk/cy_sysclk.c **** 
 177:Generated_Source\PSoC6\pdl\drivers\peripheral\sysclk/cy_sysclk.c ****     /* invalid state error if ECO is already enabled */
 178:Generated_Source\PSoC6\pdl\drivers\peripheral\sysclk/cy_sysclk.c ****     if (_FLD2VAL(SRSS_CLK_ECO_CONFIG_ECO_EN, SRSS->CLK_ECO_CONFIG) == 0ul) /* 1 = enabled */
 425              		.loc 1 178 0
 426 0004 104B     		ldr	r3, .L41
 427 0006 114A     		ldr	r2, .L41+4
 428 0008 D358     		ldr	r3, [r2, r3]
 429 000a 002B     		cmp	r3, #0
 430 000c 17DB     		blt	.L39
 179:Generated_Source\PSoC6\pdl\drivers\peripheral\sysclk/cy_sysclk.c ****     {
 180:Generated_Source\PSoC6\pdl\drivers\peripheral\sysclk/cy_sysclk.c ****         /* first set ECO enable */
 181:Generated_Source\PSoC6\pdl\drivers\peripheral\sysclk/cy_sysclk.c ****         SRSS->CLK_ECO_CONFIG |= _VAL2FLD(SRSS_CLK_ECO_CONFIG_ECO_EN, 1ul); /* 1 = enable */
 431              		.loc 1 181 0
 432 000e 1100     		movs	r1, r2
 433 0010 0D4A     		ldr	r2, .L41
 434 0012 8B58     		ldr	r3, [r1, r2]
 435 0014 8020     		movs	r0, #128
 436              	.LVL77:
 437 0016 0006     		lsls	r0, r0, #24
 438 0018 0343     		orrs	r3, r0
 439 001a 8B50     		str	r3, [r1, r2]
 182:Generated_Source\PSoC6\pdl\drivers\peripheral\sysclk/cy_sysclk.c **** 
ARM GAS  C:\Users\kiwamu\AppData\Local\Temp\ccIx7zyv.s 			page 12


 183:Generated_Source\PSoC6\pdl\drivers\peripheral\sysclk/cy_sysclk.c ****         /* now do the timeout wait for ECO_STATUS, bit ECO_OK */
 184:Generated_Source\PSoC6\pdl\drivers\peripheral\sysclk/cy_sysclk.c ****         for (;
 440              		.loc 1 184 0
 441 001c 03E0     		b	.L36
 442              	.L38:
 185:Generated_Source\PSoC6\pdl\drivers\peripheral\sysclk/cy_sysclk.c ****              ((_FLD2VAL(SRSS_CLK_ECO_STATUS_ECO_READY, SRSS->CLK_ECO_STATUS) == 0ul)) &&(timeoutus 
 186:Generated_Source\PSoC6\pdl\drivers\peripheral\sysclk/cy_sysclk.c ****              timeoutus--)
 187:Generated_Source\PSoC6\pdl\drivers\peripheral\sysclk/cy_sysclk.c ****         {
 188:Generated_Source\PSoC6\pdl\drivers\peripheral\sysclk/cy_sysclk.c ****             Cy_SysLib_DelayUs(1u);
 443              		.loc 1 188 0
 444 001e 0120     		movs	r0, #1
 445 0020 FFF7FEFF 		bl	Cy_SysLib_DelayUs
 446              	.LVL78:
 186:Generated_Source\PSoC6\pdl\drivers\peripheral\sysclk/cy_sysclk.c ****         {
 447              		.loc 1 186 0
 448 0024 013C     		subs	r4, r4, #1
 449              	.LVL79:
 450              	.L36:
 185:Generated_Source\PSoC6\pdl\drivers\peripheral\sysclk/cy_sysclk.c ****              ((_FLD2VAL(SRSS_CLK_ECO_STATUS_ECO_READY, SRSS->CLK_ECO_STATUS) == 0ul)) &&(timeoutus 
 451              		.loc 1 185 0
 452 0026 A623     		movs	r3, #166
 453 0028 DB00     		lsls	r3, r3, #3
 454 002a 084A     		ldr	r2, .L41+4
 455 002c D358     		ldr	r3, [r2, r3]
 184:Generated_Source\PSoC6\pdl\drivers\peripheral\sysclk/cy_sysclk.c ****              ((_FLD2VAL(SRSS_CLK_ECO_STATUS_ECO_READY, SRSS->CLK_ECO_STATUS) == 0ul)) &&(timeoutus 
 456              		.loc 1 184 0
 457 002e 9B07     		lsls	r3, r3, #30
 458 0030 01D4     		bmi	.L37
 185:Generated_Source\PSoC6\pdl\drivers\peripheral\sysclk/cy_sysclk.c ****              ((_FLD2VAL(SRSS_CLK_ECO_STATUS_ECO_READY, SRSS->CLK_ECO_STATUS) == 0ul)) &&(timeoutus 
 459              		.loc 1 185 0
 460 0032 002C     		cmp	r4, #0
 461 0034 F3D1     		bne	.L38
 462              	.L37:
 189:Generated_Source\PSoC6\pdl\drivers\peripheral\sysclk/cy_sysclk.c ****         }
 190:Generated_Source\PSoC6\pdl\drivers\peripheral\sysclk/cy_sysclk.c ****         rtnval = ((timeoutus == 0ul) ? CY_SYSCLK_TIMEOUT : CY_SYSCLK_SUCCESS);
 463              		.loc 1 190 0
 464 0036 002C     		cmp	r4, #0
 465 0038 03D1     		bne	.L40
 466 003a 0548     		ldr	r0, .L41+8
 467 003c 02E0     		b	.L35
 468              	.LVL80:
 469              	.L39:
 175:Generated_Source\PSoC6\pdl\drivers\peripheral\sysclk/cy_sysclk.c **** 
 470              		.loc 1 175 0
 471 003e 0548     		ldr	r0, .L41+12
 472              	.LVL81:
 473 0040 00E0     		b	.L35
 474              	.L40:
 475              		.loc 1 190 0
 476 0042 0020     		movs	r0, #0
 477              	.L35:
 478              	.LVL82:
 191:Generated_Source\PSoC6\pdl\drivers\peripheral\sysclk/cy_sysclk.c ****     }
 192:Generated_Source\PSoC6\pdl\drivers\peripheral\sysclk/cy_sysclk.c ****     return (rtnval);
 193:Generated_Source\PSoC6\pdl\drivers\peripheral\sysclk/cy_sysclk.c **** }
 479              		.loc 1 193 0
 480              		@ sp needed
ARM GAS  C:\Users\kiwamu\AppData\Local\Temp\ccIx7zyv.s 			page 13


 481              	.LVL83:
 482 0044 10BD     		pop	{r4, pc}
 483              	.L42:
 484 0046 C046     		.align	2
 485              	.L41:
 486 0048 2C050000 		.word	1324
 487 004c 00002640 		.word	1076232192
 488 0050 02004A00 		.word	4849666
 489 0054 03004A00 		.word	4849667
 490              		.cfi_endproc
 491              	.LFE140:
 492              		.size	Cy_SysClk_EcoEnable, .-Cy_SysClk_EcoEnable
 493              		.section	.text.Cy_SysClk_ClkPathSetSource,"ax",%progbits
 494              		.align	2
 495              		.global	Cy_SysClk_ClkPathSetSource
 496              		.code	16
 497              		.thumb_func
 498              		.type	Cy_SysClk_ClkPathSetSource, %function
 499              	Cy_SysClk_ClkPathSetSource:
 500              	.LFB141:
 194:Generated_Source\PSoC6\pdl\drivers\peripheral\sysclk/cy_sysclk.c **** /** \} group_sysclk_eco_funcs */
 195:Generated_Source\PSoC6\pdl\drivers\peripheral\sysclk/cy_sysclk.c **** 
 196:Generated_Source\PSoC6\pdl\drivers\peripheral\sysclk/cy_sysclk.c **** 
 197:Generated_Source\PSoC6\pdl\drivers\peripheral\sysclk/cy_sysclk.c **** /* ========================================================================== */
 198:Generated_Source\PSoC6\pdl\drivers\peripheral\sysclk/cy_sysclk.c **** /* ====================    INPUT MULTIPLEXER SECTION    ===================== */
 199:Generated_Source\PSoC6\pdl\drivers\peripheral\sysclk/cy_sysclk.c **** /* ========================================================================== */
 200:Generated_Source\PSoC6\pdl\drivers\peripheral\sysclk/cy_sysclk.c **** /**
 201:Generated_Source\PSoC6\pdl\drivers\peripheral\sysclk/cy_sysclk.c **** * \addtogroup group_sysclk_path_src_funcs
 202:Generated_Source\PSoC6\pdl\drivers\peripheral\sysclk/cy_sysclk.c **** * \{
 203:Generated_Source\PSoC6\pdl\drivers\peripheral\sysclk/cy_sysclk.c **** */
 204:Generated_Source\PSoC6\pdl\drivers\peripheral\sysclk/cy_sysclk.c **** /*******************************************************************************
 205:Generated_Source\PSoC6\pdl\drivers\peripheral\sysclk/cy_sysclk.c **** * Function Name: Cy_SysClk_ClkPathSetSource
 206:Generated_Source\PSoC6\pdl\drivers\peripheral\sysclk/cy_sysclk.c **** ****************************************************************************//**
 207:Generated_Source\PSoC6\pdl\drivers\peripheral\sysclk/cy_sysclk.c **** *
 208:Generated_Source\PSoC6\pdl\drivers\peripheral\sysclk/cy_sysclk.c **** * Configures the source for the specified clock path.
 209:Generated_Source\PSoC6\pdl\drivers\peripheral\sysclk/cy_sysclk.c **** *
 210:Generated_Source\PSoC6\pdl\drivers\peripheral\sysclk/cy_sysclk.c **** * \param clkPath Selects which clock path to configure; 0 is the first clock
 211:Generated_Source\PSoC6\pdl\drivers\peripheral\sysclk/cy_sysclk.c **** * path, which is the FLL.
 212:Generated_Source\PSoC6\pdl\drivers\peripheral\sysclk/cy_sysclk.c **** *
 213:Generated_Source\PSoC6\pdl\drivers\peripheral\sysclk/cy_sysclk.c **** * \param source \ref cy_en_clkpath_in_sources_t
 214:Generated_Source\PSoC6\pdl\drivers\peripheral\sysclk/cy_sysclk.c **** *
 215:Generated_Source\PSoC6\pdl\drivers\peripheral\sysclk/cy_sysclk.c **** * \return \ref cy_en_sysclk_status_t
 216:Generated_Source\PSoC6\pdl\drivers\peripheral\sysclk/cy_sysclk.c **** *
 217:Generated_Source\PSoC6\pdl\drivers\peripheral\sysclk/cy_sysclk.c **** * \note
 218:Generated_Source\PSoC6\pdl\drivers\peripheral\sysclk/cy_sysclk.c **** * If calling this function changes an FLL or PLL input frequency, disable the FLL
 219:Generated_Source\PSoC6\pdl\drivers\peripheral\sysclk/cy_sysclk.c **** * or PLL before calling this function. After calling this function, call the FLL
 220:Generated_Source\PSoC6\pdl\drivers\peripheral\sysclk/cy_sysclk.c **** * or PLL configure function, for example \ref Cy_SysClk_FllConfigure().
 221:Generated_Source\PSoC6\pdl\drivers\peripheral\sysclk/cy_sysclk.c **** *******************************************************************************/
 222:Generated_Source\PSoC6\pdl\drivers\peripheral\sysclk/cy_sysclk.c **** cy_en_sysclk_status_t Cy_SysClk_ClkPathSetSource(uint32_t clkPath, cy_en_clkpath_in_sources_t sourc
 223:Generated_Source\PSoC6\pdl\drivers\peripheral\sysclk/cy_sysclk.c **** {
 501              		.loc 1 223 0
 502              		.cfi_startproc
 503              		@ args = 0, pretend = 0, frame = 0
 504              		@ frame_needed = 0, uses_anonymous_args = 0
 505              		@ link register save eliminated.
 506              	.LVL84:
 224:Generated_Source\PSoC6\pdl\drivers\peripheral\sysclk/cy_sysclk.c ****     cy_en_sysclk_status_t retval = CY_SYSCLK_BAD_PARAM;
ARM GAS  C:\Users\kiwamu\AppData\Local\Temp\ccIx7zyv.s 			page 14


 225:Generated_Source\PSoC6\pdl\drivers\peripheral\sysclk/cy_sysclk.c ****     if ((clkPath < SRSS_NUM_CLKPATH) &&
 507              		.loc 1 225 0
 508 0000 0428     		cmp	r0, #4
 509 0002 1DD8     		bhi	.L47
 510              		.loc 1 225 0 is_stmt 0 discriminator 1
 511 0004 0429     		cmp	r1, #4
 512 0006 04D9     		bls	.L45
 226:Generated_Source\PSoC6\pdl\drivers\peripheral\sysclk/cy_sysclk.c ****         ((source <= CY_SYSCLK_CLKPATH_IN_DSIMUX) ||
 227:Generated_Source\PSoC6\pdl\drivers\peripheral\sysclk/cy_sysclk.c ****          ((CY_SYSCLK_CLKPATH_IN_DSI <= source) && (source <= CY_SYSCLK_CLKPATH_IN_PILO))))
 513              		.loc 1 227 0 is_stmt 1
 514 0008 4B1E     		subs	r3, r1, #1
 515 000a FF3B     		subs	r3, r3, #255
 516 000c 9BB2     		uxth	r3, r3
 226:Generated_Source\PSoC6\pdl\drivers\peripheral\sysclk/cy_sysclk.c ****         ((source <= CY_SYSCLK_CLKPATH_IN_DSIMUX) ||
 517              		.loc 1 226 0
 518 000e 132B     		cmp	r3, #19
 519 0010 18D8     		bhi	.L48
 520              	.L45:
 228:Generated_Source\PSoC6\pdl\drivers\peripheral\sysclk/cy_sysclk.c ****     {
 229:Generated_Source\PSoC6\pdl\drivers\peripheral\sysclk/cy_sysclk.c ****         if (source >= CY_SYSCLK_CLKPATH_IN_DSI)
 521              		.loc 1 229 0
 522 0012 FF29     		cmp	r1, #255
 523 0014 0CD9     		bls	.L46
 230:Generated_Source\PSoC6\pdl\drivers\peripheral\sysclk/cy_sysclk.c ****         {
 231:Generated_Source\PSoC6\pdl\drivers\peripheral\sysclk/cy_sysclk.c ****             SRSS->CLK_DSI_SELECT[clkPath] = _VAL2FLD(SRSS_CLK_DSI_SELECT_DSI_MUX, (uint32_t)source)
 524              		.loc 1 231 0
 525 0016 1F23     		movs	r3, #31
 526 0018 1940     		ands	r1, r3
 527              	.LVL85:
 528 001a 0B4A     		ldr	r2, .L49
 529 001c 0300     		movs	r3, r0
 530 001e C033     		adds	r3, r3, #192
 531 0020 9B00     		lsls	r3, r3, #2
 532 0022 9950     		str	r1, [r3, r2]
 232:Generated_Source\PSoC6\pdl\drivers\peripheral\sysclk/cy_sysclk.c ****             SRSS->CLK_PATH_SELECT[clkPath] = _VAL2FLD(SRSS_CLK_PATH_SELECT_PATH_MUX, (uint32_t)CY_S
 533              		.loc 1 232 0
 534 0024 D030     		adds	r0, r0, #208
 535              	.LVL86:
 536 0026 8000     		lsls	r0, r0, #2
 537              	.LVL87:
 538 0028 0423     		movs	r3, #4
 539 002a 8350     		str	r3, [r0, r2]
 233:Generated_Source\PSoC6\pdl\drivers\peripheral\sysclk/cy_sysclk.c ****         }
 234:Generated_Source\PSoC6\pdl\drivers\peripheral\sysclk/cy_sysclk.c ****         else
 235:Generated_Source\PSoC6\pdl\drivers\peripheral\sysclk/cy_sysclk.c ****         {
 236:Generated_Source\PSoC6\pdl\drivers\peripheral\sysclk/cy_sysclk.c ****             SRSS->CLK_PATH_SELECT[clkPath] = _VAL2FLD(SRSS_CLK_PATH_SELECT_PATH_MUX, (uint32_t)sour
 237:Generated_Source\PSoC6\pdl\drivers\peripheral\sysclk/cy_sysclk.c ****         }
 238:Generated_Source\PSoC6\pdl\drivers\peripheral\sysclk/cy_sysclk.c ****         retval = CY_SYSCLK_SUCCESS;
 540              		.loc 1 238 0
 541 002c 0020     		movs	r0, #0
 542 002e 0AE0     		b	.L44
 543              	.LVL88:
 544              	.L46:
 236:Generated_Source\PSoC6\pdl\drivers\peripheral\sysclk/cy_sysclk.c ****         }
 545              		.loc 1 236 0
 546 0030 0723     		movs	r3, #7
 547 0032 1940     		ands	r1, r3
ARM GAS  C:\Users\kiwamu\AppData\Local\Temp\ccIx7zyv.s 			page 15


 548              	.LVL89:
 549 0034 D030     		adds	r0, r0, #208
 550              	.LVL90:
 551 0036 8000     		lsls	r0, r0, #2
 552              	.LVL91:
 553 0038 034B     		ldr	r3, .L49
 554 003a C150     		str	r1, [r0, r3]
 555              		.loc 1 238 0
 556 003c 0020     		movs	r0, #0
 557 003e 02E0     		b	.L44
 558              	.LVL92:
 559              	.L47:
 224:Generated_Source\PSoC6\pdl\drivers\peripheral\sysclk/cy_sysclk.c ****     if ((clkPath < SRSS_NUM_CLKPATH) &&
 560              		.loc 1 224 0
 561 0040 0248     		ldr	r0, .L49+4
 562              	.LVL93:
 563 0042 00E0     		b	.L44
 564              	.LVL94:
 565              	.L48:
 566 0044 0148     		ldr	r0, .L49+4
 567              	.LVL95:
 568              	.L44:
 239:Generated_Source\PSoC6\pdl\drivers\peripheral\sysclk/cy_sysclk.c ****     }
 240:Generated_Source\PSoC6\pdl\drivers\peripheral\sysclk/cy_sysclk.c ****     return (retval);
 241:Generated_Source\PSoC6\pdl\drivers\peripheral\sysclk/cy_sysclk.c **** }
 569              		.loc 1 241 0
 570              		@ sp needed
 571 0046 7047     		bx	lr
 572              	.L50:
 573              		.align	2
 574              	.L49:
 575 0048 00002640 		.word	1076232192
 576 004c 01004A00 		.word	4849665
 577              		.cfi_endproc
 578              	.LFE141:
 579              		.size	Cy_SysClk_ClkPathSetSource, .-Cy_SysClk_ClkPathSetSource
 580              		.section	.text.Cy_SysClk_ClkPathGetSource,"ax",%progbits
 581              		.align	2
 582              		.global	Cy_SysClk_ClkPathGetSource
 583              		.code	16
 584              		.thumb_func
 585              		.type	Cy_SysClk_ClkPathGetSource, %function
 586              	Cy_SysClk_ClkPathGetSource:
 587              	.LFB142:
 242:Generated_Source\PSoC6\pdl\drivers\peripheral\sysclk/cy_sysclk.c **** 
 243:Generated_Source\PSoC6\pdl\drivers\peripheral\sysclk/cy_sysclk.c **** /*******************************************************************************
 244:Generated_Source\PSoC6\pdl\drivers\peripheral\sysclk/cy_sysclk.c **** * Function Name: Cy_SysClk_ClkPathGetSource
 245:Generated_Source\PSoC6\pdl\drivers\peripheral\sysclk/cy_sysclk.c **** ****************************************************************************//**
 246:Generated_Source\PSoC6\pdl\drivers\peripheral\sysclk/cy_sysclk.c **** *
 247:Generated_Source\PSoC6\pdl\drivers\peripheral\sysclk/cy_sysclk.c **** * Reports which source is selected for the path mux.
 248:Generated_Source\PSoC6\pdl\drivers\peripheral\sysclk/cy_sysclk.c **** *
 249:Generated_Source\PSoC6\pdl\drivers\peripheral\sysclk/cy_sysclk.c **** * \param clkPath Selects which clock path to report; 0 is the first clock path,
 250:Generated_Source\PSoC6\pdl\drivers\peripheral\sysclk/cy_sysclk.c **** * which is the FLL.
 251:Generated_Source\PSoC6\pdl\drivers\peripheral\sysclk/cy_sysclk.c **** *
 252:Generated_Source\PSoC6\pdl\drivers\peripheral\sysclk/cy_sysclk.c **** * \return \ref cy_en_clkpath_in_sources_t
 253:Generated_Source\PSoC6\pdl\drivers\peripheral\sysclk/cy_sysclk.c **** *
 254:Generated_Source\PSoC6\pdl\drivers\peripheral\sysclk/cy_sysclk.c **** *******************************************************************************/
ARM GAS  C:\Users\kiwamu\AppData\Local\Temp\ccIx7zyv.s 			page 16


 255:Generated_Source\PSoC6\pdl\drivers\peripheral\sysclk/cy_sysclk.c **** cy_en_clkpath_in_sources_t Cy_SysClk_ClkPathGetSource(uint32_t clkPath)
 256:Generated_Source\PSoC6\pdl\drivers\peripheral\sysclk/cy_sysclk.c **** {
 588              		.loc 1 256 0
 589              		.cfi_startproc
 590              		@ args = 0, pretend = 0, frame = 0
 591              		@ frame_needed = 0, uses_anonymous_args = 0
 592              	.LVL96:
 593 0000 10B5     		push	{r4, lr}
 594              		.cfi_def_cfa_offset 8
 595              		.cfi_offset 4, -8
 596              		.cfi_offset 14, -4
 597 0002 0400     		movs	r4, r0
 257:Generated_Source\PSoC6\pdl\drivers\peripheral\sysclk/cy_sysclk.c ****     CY_ASSERT_L1(clkPath < SRSS_NUM_CLKPATH);
 598              		.loc 1 257 0
 599 0004 0428     		cmp	r0, #4
 600 0006 04D9     		bls	.L52
 601              		.loc 1 257 0 is_stmt 0 discriminator 1
 602 0008 0221     		movs	r1, #2
 603 000a FF31     		adds	r1, r1, #255
 604 000c 0A48     		ldr	r0, .L54
 605              	.LVL97:
 606 000e FFF7FEFF 		bl	Cy_SysLib_AssertFailed
 607              	.LVL98:
 608              	.L52:
 258:Generated_Source\PSoC6\pdl\drivers\peripheral\sysclk/cy_sysclk.c ****     cy_en_clkpath_in_sources_t rtnval =
 259:Generated_Source\PSoC6\pdl\drivers\peripheral\sysclk/cy_sysclk.c ****         (cy_en_clkpath_in_sources_t )_FLD2VAL(SRSS_CLK_PATH_SELECT_PATH_MUX, SRSS->CLK_PATH_SELECT[
 609              		.loc 1 259 0 is_stmt 1
 610 0012 2300     		movs	r3, r4
 611 0014 D033     		adds	r3, r3, #208
 612 0016 9B00     		lsls	r3, r3, #2
 613 0018 084A     		ldr	r2, .L54+4
 614 001a 9858     		ldr	r0, [r3, r2]
 258:Generated_Source\PSoC6\pdl\drivers\peripheral\sysclk/cy_sysclk.c ****     cy_en_clkpath_in_sources_t rtnval =
 615              		.loc 1 258 0
 616 001c 0723     		movs	r3, #7
 617 001e 1840     		ands	r0, r3
 618              	.LVL99:
 260:Generated_Source\PSoC6\pdl\drivers\peripheral\sysclk/cy_sysclk.c ****     if (rtnval == CY_SYSCLK_CLKPATH_IN_DSIMUX)
 619              		.loc 1 260 0
 620 0020 0428     		cmp	r0, #4
 621 0022 07D1     		bne	.L53
 261:Generated_Source\PSoC6\pdl\drivers\peripheral\sysclk/cy_sysclk.c ****     {
 262:Generated_Source\PSoC6\pdl\drivers\peripheral\sysclk/cy_sysclk.c ****         rtnval = (cy_en_clkpath_in_sources_t)(CY_SYSCLK_CLKPATH_IN_DSI |
 263:Generated_Source\PSoC6\pdl\drivers\peripheral\sysclk/cy_sysclk.c ****                     (_FLD2VAL(SRSS_CLK_DSI_SELECT_DSI_MUX, SRSS->CLK_DSI_SELECT[clkPath])));
 622              		.loc 1 263 0
 623 0024 C034     		adds	r4, r4, #192
 624              	.LVL100:
 625 0026 A400     		lsls	r4, r4, #2
 626              	.LVL101:
 627 0028 A358     		ldr	r3, [r4, r2]
 262:Generated_Source\PSoC6\pdl\drivers\peripheral\sysclk/cy_sysclk.c ****                     (_FLD2VAL(SRSS_CLK_DSI_SELECT_DSI_MUX, SRSS->CLK_DSI_SELECT[clkPath])));
 628              		.loc 1 262 0
 629 002a 1B30     		adds	r0, r0, #27
 630              	.LVL102:
 631 002c 1840     		ands	r0, r3
 632              	.LVL103:
 633 002e 8023     		movs	r3, #128
ARM GAS  C:\Users\kiwamu\AppData\Local\Temp\ccIx7zyv.s 			page 17


 634 0030 5B00     		lsls	r3, r3, #1
 635 0032 1843     		orrs	r0, r3
 636              	.LVL104:
 637              	.L53:
 264:Generated_Source\PSoC6\pdl\drivers\peripheral\sysclk/cy_sysclk.c ****     }
 265:Generated_Source\PSoC6\pdl\drivers\peripheral\sysclk/cy_sysclk.c ****     return rtnval;
 266:Generated_Source\PSoC6\pdl\drivers\peripheral\sysclk/cy_sysclk.c **** }
 638              		.loc 1 266 0
 639              		@ sp needed
 640 0034 10BD     		pop	{r4, pc}
 641              	.L55:
 642 0036 C046     		.align	2
 643              	.L54:
 644 0038 00000000 		.word	.LC3
 645 003c 00002640 		.word	1076232192
 646              		.cfi_endproc
 647              	.LFE142:
 648              		.size	Cy_SysClk_ClkPathGetSource, .-Cy_SysClk_ClkPathGetSource
 649              		.section	.text.Cy_SysClk_FllManualConfigure,"ax",%progbits
 650              		.align	2
 651              		.global	Cy_SysClk_FllManualConfigure
 652              		.code	16
 653              		.thumb_func
 654              		.type	Cy_SysClk_FllManualConfigure, %function
 655              	Cy_SysClk_FllManualConfigure:
 656              	.LFB144:
 267:Generated_Source\PSoC6\pdl\drivers\peripheral\sysclk/cy_sysclk.c **** /** \} group_sysclk_path_src_funcs */
 268:Generated_Source\PSoC6\pdl\drivers\peripheral\sysclk/cy_sysclk.c **** 
 269:Generated_Source\PSoC6\pdl\drivers\peripheral\sysclk/cy_sysclk.c **** 
 270:Generated_Source\PSoC6\pdl\drivers\peripheral\sysclk/cy_sysclk.c **** /* ========================================================================== */
 271:Generated_Source\PSoC6\pdl\drivers\peripheral\sysclk/cy_sysclk.c **** /* ===========================    FLL SECTION    ============================ */
 272:Generated_Source\PSoC6\pdl\drivers\peripheral\sysclk/cy_sysclk.c **** /* ========================================================================== */
 273:Generated_Source\PSoC6\pdl\drivers\peripheral\sysclk/cy_sysclk.c **** /* min and max FLL output frequencies, in Hz */
 274:Generated_Source\PSoC6\pdl\drivers\peripheral\sysclk/cy_sysclk.c **** #define  CY_SYSCLK_MIN_FLL_CCO_OUTPUT_FREQ  48000000ul
 275:Generated_Source\PSoC6\pdl\drivers\peripheral\sysclk/cy_sysclk.c **** #define  CY_SYSCLK_MIN_FLL_OUTPUT_FREQ     (CY_SYSCLK_MIN_FLL_CCO_OUTPUT_FREQ / 2u)
 276:Generated_Source\PSoC6\pdl\drivers\peripheral\sysclk/cy_sysclk.c **** #define  CY_SYSCLK_MAX_FLL_OUTPUT_FREQ     100000000ul
 277:Generated_Source\PSoC6\pdl\drivers\peripheral\sysclk/cy_sysclk.c **** 
 278:Generated_Source\PSoC6\pdl\drivers\peripheral\sysclk/cy_sysclk.c **** /**
 279:Generated_Source\PSoC6\pdl\drivers\peripheral\sysclk/cy_sysclk.c **** * \addtogroup group_sysclk_fll_funcs
 280:Generated_Source\PSoC6\pdl\drivers\peripheral\sysclk/cy_sysclk.c **** * \{
 281:Generated_Source\PSoC6\pdl\drivers\peripheral\sysclk/cy_sysclk.c **** */
 282:Generated_Source\PSoC6\pdl\drivers\peripheral\sysclk/cy_sysclk.c **** /*******************************************************************************
 283:Generated_Source\PSoC6\pdl\drivers\peripheral\sysclk/cy_sysclk.c **** * Function Name: Cy_SysClk_FllConfigure
 284:Generated_Source\PSoC6\pdl\drivers\peripheral\sysclk/cy_sysclk.c **** ****************************************************************************//**
 285:Generated_Source\PSoC6\pdl\drivers\peripheral\sysclk/cy_sysclk.c **** *
 286:Generated_Source\PSoC6\pdl\drivers\peripheral\sysclk/cy_sysclk.c **** * Configures the FLL, for best accuracy optimization.
 287:Generated_Source\PSoC6\pdl\drivers\peripheral\sysclk/cy_sysclk.c **** *
 288:Generated_Source\PSoC6\pdl\drivers\peripheral\sysclk/cy_sysclk.c **** * \param inputFreq frequency of input source, in Hz
 289:Generated_Source\PSoC6\pdl\drivers\peripheral\sysclk/cy_sysclk.c **** *
 290:Generated_Source\PSoC6\pdl\drivers\peripheral\sysclk/cy_sysclk.c **** * \param outputFreq Desired FLL output frequency, in Hz. Allowable range is
 291:Generated_Source\PSoC6\pdl\drivers\peripheral\sysclk/cy_sysclk.c **** * 24 MHz to 100 MHz. In all cases, FLL_OUTPUT_DIV must be set; the output divide
 292:Generated_Source\PSoC6\pdl\drivers\peripheral\sysclk/cy_sysclk.c **** * by 2 option is required.
 293:Generated_Source\PSoC6\pdl\drivers\peripheral\sysclk/cy_sysclk.c **** *
 294:Generated_Source\PSoC6\pdl\drivers\peripheral\sysclk/cy_sysclk.c **** * \param outputMode \ref cy_en_fll_pll_output_mode_t
 295:Generated_Source\PSoC6\pdl\drivers\peripheral\sysclk/cy_sysclk.c **** * If output mode is bypass, then the output frequency equals the input source
 296:Generated_Source\PSoC6\pdl\drivers\peripheral\sysclk/cy_sysclk.c **** * frequency regardless of the frequency parameter values.
 297:Generated_Source\PSoC6\pdl\drivers\peripheral\sysclk/cy_sysclk.c **** *
ARM GAS  C:\Users\kiwamu\AppData\Local\Temp\ccIx7zyv.s 			page 18


 298:Generated_Source\PSoC6\pdl\drivers\peripheral\sysclk/cy_sysclk.c **** * \return  Error / status code:<br>
 299:Generated_Source\PSoC6\pdl\drivers\peripheral\sysclk/cy_sysclk.c **** * CY_SYSCLK_SUCCESS - FLL successfully configured<br>
 300:Generated_Source\PSoC6\pdl\drivers\peripheral\sysclk/cy_sysclk.c **** * CY_SYSCLK_INVALID_STATE - FLL not configured because it is enabled<br>
 301:Generated_Source\PSoC6\pdl\drivers\peripheral\sysclk/cy_sysclk.c **** * CY_SYSCLK_BAD_PARAM - desired output frequency is out of valid range
 302:Generated_Source\PSoC6\pdl\drivers\peripheral\sysclk/cy_sysclk.c **** *
 303:Generated_Source\PSoC6\pdl\drivers\peripheral\sysclk/cy_sysclk.c **** * \note
 304:Generated_Source\PSoC6\pdl\drivers\peripheral\sysclk/cy_sysclk.c **** * Call this function after changing the FLL input frequency, for example if
 305:Generated_Source\PSoC6\pdl\drivers\peripheral\sysclk/cy_sysclk.c **** * \ref Cy_SysClk_ClkPathSetSource() is called.
 306:Generated_Source\PSoC6\pdl\drivers\peripheral\sysclk/cy_sysclk.c **** * \note
 307:Generated_Source\PSoC6\pdl\drivers\peripheral\sysclk/cy_sysclk.c **** * Do not call this function when the FLL is enabled. If it is, then this function
 308:Generated_Source\PSoC6\pdl\drivers\peripheral\sysclk/cy_sysclk.c **** * returns immediately with an error return value and no register updates.
 309:Generated_Source\PSoC6\pdl\drivers\peripheral\sysclk/cy_sysclk.c **** *******************************************************************************/
 310:Generated_Source\PSoC6\pdl\drivers\peripheral\sysclk/cy_sysclk.c **** cy_en_sysclk_status_t Cy_SysClk_FllConfigure(uint32_t inputFreq, uint32_t outputFreq, cy_en_fll_pll
 311:Generated_Source\PSoC6\pdl\drivers\peripheral\sysclk/cy_sysclk.c **** {
 312:Generated_Source\PSoC6\pdl\drivers\peripheral\sysclk/cy_sysclk.c ****     cy_en_sysclk_status_t returnStatus = CY_SYSCLK_SUCCESS;
 313:Generated_Source\PSoC6\pdl\drivers\peripheral\sysclk/cy_sysclk.c **** 
 314:Generated_Source\PSoC6\pdl\drivers\peripheral\sysclk/cy_sysclk.c ****     /* check for errors */
 315:Generated_Source\PSoC6\pdl\drivers\peripheral\sysclk/cy_sysclk.c ****     if (_FLD2VAL(SRSS_CLK_FLL_CONFIG_FLL_ENABLE, SRSS->CLK_FLL_CONFIG) != 0u) /* 1 = enabled */
 316:Generated_Source\PSoC6\pdl\drivers\peripheral\sysclk/cy_sysclk.c ****     {
 317:Generated_Source\PSoC6\pdl\drivers\peripheral\sysclk/cy_sysclk.c ****         returnStatus = CY_SYSCLK_INVALID_STATE;
 318:Generated_Source\PSoC6\pdl\drivers\peripheral\sysclk/cy_sysclk.c ****     }
 319:Generated_Source\PSoC6\pdl\drivers\peripheral\sysclk/cy_sysclk.c ****     else if ((outputFreq < CY_SYSCLK_MIN_FLL_OUTPUT_FREQ) || (CY_SYSCLK_MAX_FLL_OUTPUT_FREQ < outpu
 320:Generated_Source\PSoC6\pdl\drivers\peripheral\sysclk/cy_sysclk.c ****     {
 321:Generated_Source\PSoC6\pdl\drivers\peripheral\sysclk/cy_sysclk.c ****         returnStatus = CY_SYSCLK_BAD_PARAM;
 322:Generated_Source\PSoC6\pdl\drivers\peripheral\sysclk/cy_sysclk.c ****     }
 323:Generated_Source\PSoC6\pdl\drivers\peripheral\sysclk/cy_sysclk.c ****     else if (((float32_t)outputFreq / (float32_t)inputFreq) < 2.2f) /* check output/input frequency
 324:Generated_Source\PSoC6\pdl\drivers\peripheral\sysclk/cy_sysclk.c ****     {
 325:Generated_Source\PSoC6\pdl\drivers\peripheral\sysclk/cy_sysclk.c ****         returnStatus = CY_SYSCLK_BAD_PARAM;
 326:Generated_Source\PSoC6\pdl\drivers\peripheral\sysclk/cy_sysclk.c ****     }
 327:Generated_Source\PSoC6\pdl\drivers\peripheral\sysclk/cy_sysclk.c ****     else
 328:Generated_Source\PSoC6\pdl\drivers\peripheral\sysclk/cy_sysclk.c ****     { /* return status is OK */
 329:Generated_Source\PSoC6\pdl\drivers\peripheral\sysclk/cy_sysclk.c ****     }
 330:Generated_Source\PSoC6\pdl\drivers\peripheral\sysclk/cy_sysclk.c **** 
 331:Generated_Source\PSoC6\pdl\drivers\peripheral\sysclk/cy_sysclk.c ****     /* no error */
 332:Generated_Source\PSoC6\pdl\drivers\peripheral\sysclk/cy_sysclk.c ****     if (returnStatus == CY_SYSCLK_SUCCESS) /* no errors */
 333:Generated_Source\PSoC6\pdl\drivers\peripheral\sysclk/cy_sysclk.c ****     {
 334:Generated_Source\PSoC6\pdl\drivers\peripheral\sysclk/cy_sysclk.c ****         /* If output mode is bypass (input routed directly to output), then done.
 335:Generated_Source\PSoC6\pdl\drivers\peripheral\sysclk/cy_sysclk.c ****            The output frequency equals the input frequency regardless of the
 336:Generated_Source\PSoC6\pdl\drivers\peripheral\sysclk/cy_sysclk.c ****            frequency parameters. */
 337:Generated_Source\PSoC6\pdl\drivers\peripheral\sysclk/cy_sysclk.c ****         if (outputMode != CY_SYSCLK_FLLPLL_OUTPUT_INPUT)
 338:Generated_Source\PSoC6\pdl\drivers\peripheral\sysclk/cy_sysclk.c ****         {
 339:Generated_Source\PSoC6\pdl\drivers\peripheral\sysclk/cy_sysclk.c ****             cy_stc_fll_manual_config_t config;
 340:Generated_Source\PSoC6\pdl\drivers\peripheral\sysclk/cy_sysclk.c ****             uint32_t ccoFreq;
 341:Generated_Source\PSoC6\pdl\drivers\peripheral\sysclk/cy_sysclk.c ****             bool wcoSource = ((Cy_SysClk_ClkPathGetSource(0ul/*FLL*/) == CY_SYSCLK_CLKPATH_IN_WCO) 
 342:Generated_Source\PSoC6\pdl\drivers\peripheral\sysclk/cy_sysclk.c **** 
 343:Generated_Source\PSoC6\pdl\drivers\peripheral\sysclk/cy_sysclk.c ****             config.outputMode = outputMode;
 344:Generated_Source\PSoC6\pdl\drivers\peripheral\sysclk/cy_sysclk.c ****             /* 1. Output division by 2 is always required. */
 345:Generated_Source\PSoC6\pdl\drivers\peripheral\sysclk/cy_sysclk.c ****             config.enableOutputDiv = (bool)(1ul);
 346:Generated_Source\PSoC6\pdl\drivers\peripheral\sysclk/cy_sysclk.c ****             /* 2. Compute the target CCO frequency from the target output frequency and output divi
 347:Generated_Source\PSoC6\pdl\drivers\peripheral\sysclk/cy_sysclk.c ****             ccoFreq = outputFreq * ((uint32_t)(config.enableOutputDiv) + 1ul);
 348:Generated_Source\PSoC6\pdl\drivers\peripheral\sysclk/cy_sysclk.c ****             /* 3. Compute the CCO range value from the CCO frequency */
 349:Generated_Source\PSoC6\pdl\drivers\peripheral\sysclk/cy_sysclk.c ****             config.ccoRange = ((ccoFreq >= 150339200ul) ? CY_SYSCLK_FLL_CCO_RANGE4 :
 350:Generated_Source\PSoC6\pdl\drivers\peripheral\sysclk/cy_sysclk.c ****                                ((ccoFreq >= 113009380ul) ? CY_SYSCLK_FLL_CCO_RANGE3 :
 351:Generated_Source\PSoC6\pdl\drivers\peripheral\sysclk/cy_sysclk.c ****                                 ((ccoFreq >=  84948700ul) ? CY_SYSCLK_FLL_CCO_RANGE2 :
 352:Generated_Source\PSoC6\pdl\drivers\peripheral\sysclk/cy_sysclk.c ****                                  ((ccoFreq >=  63855600ul) ? CY_SYSCLK_FLL_CCO_RANGE1 : CY_SYSCLK_F
 353:Generated_Source\PSoC6\pdl\drivers\peripheral\sysclk/cy_sysclk.c ****             {
 354:Generated_Source\PSoC6\pdl\drivers\peripheral\sysclk/cy_sysclk.c ****                 /* constants indexed by ccoRange */
ARM GAS  C:\Users\kiwamu\AppData\Local\Temp\ccIx7zyv.s 			page 19


 355:Generated_Source\PSoC6\pdl\drivers\peripheral\sysclk/cy_sysclk.c ****                 const float32_t trimSteps[] = {0.0011034f, 0.001102f, 0.0011f, 0.0011f, 0.00117062f
 356:Generated_Source\PSoC6\pdl\drivers\peripheral\sysclk/cy_sysclk.c ****                 const float32_t fMargin[] = {43600000.0f, 58100000.0f, 77200000.0f, 103000000.0f, 1
 357:Generated_Source\PSoC6\pdl\drivers\peripheral\sysclk/cy_sysclk.c **** 
 358:Generated_Source\PSoC6\pdl\drivers\peripheral\sysclk/cy_sysclk.c ****             /* 4. Compute the FLL reference divider value.
 359:Generated_Source\PSoC6\pdl\drivers\peripheral\sysclk/cy_sysclk.c ****                   refDiv is a constant if the WCO is the FLL source, otherwise the formula is
 360:Generated_Source\PSoC6\pdl\drivers\peripheral\sysclk/cy_sysclk.c ****                   refDiv = ROUNDUP((1 / (trimStep[ccoRange] / 2)) * (inputFreq / ccoFreq)) */
 361:Generated_Source\PSoC6\pdl\drivers\peripheral\sysclk/cy_sysclk.c ****                 config.refDiv = wcoSource ? 19u : ((uint16_t)ceilf((float32_t)inputFreq /
 362:Generated_Source\PSoC6\pdl\drivers\peripheral\sysclk/cy_sysclk.c ****                                                       ((trimSteps[config.ccoRange] / 2.0f) * (float
 363:Generated_Source\PSoC6\pdl\drivers\peripheral\sysclk/cy_sysclk.c ****             /* 5. Compute the FLL multiplier value.
 364:Generated_Source\PSoC6\pdl\drivers\peripheral\sysclk/cy_sysclk.c ****                   Formula is fllMult = ccoFreq / (inputFreq / refDiv) */
 365:Generated_Source\PSoC6\pdl\drivers\peripheral\sysclk/cy_sysclk.c ****                 config.fllMult = CY_SYSCLK_DIV_ROUNDUP(ccoFreq, CY_SYSCLK_DIV_ROUND(inputFreq, conf
 366:Generated_Source\PSoC6\pdl\drivers\peripheral\sysclk/cy_sysclk.c ****             /* 6. Compute the lock tolerance.
 367:Generated_Source\PSoC6\pdl\drivers\peripheral\sysclk/cy_sysclk.c ****                   Formula is lock tolerance = 1.5 * fllMult * (((1 + CCO accuracy) / (1 - source cl
 368:Generated_Source\PSoC6\pdl\drivers\peripheral\sysclk/cy_sysclk.c ****                   We assume CCO accuracy is 0.25%.
 369:Generated_Source\PSoC6\pdl\drivers\peripheral\sysclk/cy_sysclk.c ****                   We assume the source clock accuracy = 1%. This is the accuracy of the IMO.
 370:Generated_Source\PSoC6\pdl\drivers\peripheral\sysclk/cy_sysclk.c ****                   Therefore the formula is lock tolerance = 1.5 * fllMult * 0.012626 = 0.018939 * f
 371:Generated_Source\PSoC6\pdl\drivers\peripheral\sysclk/cy_sysclk.c ****                 config.lockTolerance = (uint16_t)ceilf((float32_t)(config.fllMult) * 0.018939f);
 372:Generated_Source\PSoC6\pdl\drivers\peripheral\sysclk/cy_sysclk.c ****             /* 7. Compute the CCO igain and pgain. */
 373:Generated_Source\PSoC6\pdl\drivers\peripheral\sysclk/cy_sysclk.c ****                 {
 374:Generated_Source\PSoC6\pdl\drivers\peripheral\sysclk/cy_sysclk.c ****                     /* intermediate parameters */
 375:Generated_Source\PSoC6\pdl\drivers\peripheral\sysclk/cy_sysclk.c ****                     float32_t kcco = (trimSteps[config.ccoRange] * fMargin[config.ccoRange]) / 1000
 376:Generated_Source\PSoC6\pdl\drivers\peripheral\sysclk/cy_sysclk.c ****                     float32_t ki_p = (0.85f / (kcco * ((float32_t)(config.refDiv) / (float32_t)inpu
 377:Generated_Source\PSoC6\pdl\drivers\peripheral\sysclk/cy_sysclk.c **** 
 378:Generated_Source\PSoC6\pdl\drivers\peripheral\sysclk/cy_sysclk.c ****                     /* igain and pgain bitfield values correspond to: 1/256, 1/128, ..., 4, 8 */
 379:Generated_Source\PSoC6\pdl\drivers\peripheral\sysclk/cy_sysclk.c ****                     const float32_t gains[] = {0.00390625f, 0.0078125f, 0.015625f, 0.03125f, 0.0625
 380:Generated_Source\PSoC6\pdl\drivers\peripheral\sysclk/cy_sysclk.c ****                                                0.5f, 1.0f, 2.0f, 4.0f, 8.0f};
 381:Generated_Source\PSoC6\pdl\drivers\peripheral\sysclk/cy_sysclk.c **** 
 382:Generated_Source\PSoC6\pdl\drivers\peripheral\sysclk/cy_sysclk.c ****                     /* find the largest IGAIN value that is less than or equal to ki_p */
 383:Generated_Source\PSoC6\pdl\drivers\peripheral\sysclk/cy_sysclk.c ****                     for(config.igain = CY_SYSCLK_N_ELMTS(gains) - 1ul;
 384:Generated_Source\PSoC6\pdl\drivers\peripheral\sysclk/cy_sysclk.c ****                         (gains[config.igain] > ki_p) && (config.igain != 0ul); config.igain--){}
 385:Generated_Source\PSoC6\pdl\drivers\peripheral\sysclk/cy_sysclk.c ****                     /* decrement igain if the WCO is the FLL source */
 386:Generated_Source\PSoC6\pdl\drivers\peripheral\sysclk/cy_sysclk.c ****                     if (wcoSource && (config.igain > 0u))
 387:Generated_Source\PSoC6\pdl\drivers\peripheral\sysclk/cy_sysclk.c ****                     {
 388:Generated_Source\PSoC6\pdl\drivers\peripheral\sysclk/cy_sysclk.c ****                         config.igain--;
 389:Generated_Source\PSoC6\pdl\drivers\peripheral\sysclk/cy_sysclk.c ****                     }
 390:Generated_Source\PSoC6\pdl\drivers\peripheral\sysclk/cy_sysclk.c ****                     /* then find the largest PGAIN value that is less than or equal to ki_p - gains
 391:Generated_Source\PSoC6\pdl\drivers\peripheral\sysclk/cy_sysclk.c ****                     for(config.pgain = CY_SYSCLK_N_ELMTS(gains) - 1ul;
 392:Generated_Source\PSoC6\pdl\drivers\peripheral\sysclk/cy_sysclk.c ****                         (gains[config.pgain] > (ki_p - gains[config.igain])) && (config.pgain != 0u
 393:Generated_Source\PSoC6\pdl\drivers\peripheral\sysclk/cy_sysclk.c ****                         config.pgain--){}
 394:Generated_Source\PSoC6\pdl\drivers\peripheral\sysclk/cy_sysclk.c ****                     /* decrement pgain if the WCO is the FLL source */
 395:Generated_Source\PSoC6\pdl\drivers\peripheral\sysclk/cy_sysclk.c ****                     if (wcoSource && (config.pgain > 0u))
 396:Generated_Source\PSoC6\pdl\drivers\peripheral\sysclk/cy_sysclk.c ****                     {
 397:Generated_Source\PSoC6\pdl\drivers\peripheral\sysclk/cy_sysclk.c ****                         config.pgain--;
 398:Generated_Source\PSoC6\pdl\drivers\peripheral\sysclk/cy_sysclk.c ****                     }
 399:Generated_Source\PSoC6\pdl\drivers\peripheral\sysclk/cy_sysclk.c ****                 }
 400:Generated_Source\PSoC6\pdl\drivers\peripheral\sysclk/cy_sysclk.c ****             /* 8. Compute the CCO_FREQ bits in CLK_FLL_CONFIG4 register. */
 401:Generated_Source\PSoC6\pdl\drivers\peripheral\sysclk/cy_sysclk.c ****                 config.cco_Freq = (uint16_t)
 402:Generated_Source\PSoC6\pdl\drivers\peripheral\sysclk/cy_sysclk.c ****                     (floor(log((float32_t)ccoFreq / fMargin[config.ccoRange]) /
 403:Generated_Source\PSoC6\pdl\drivers\peripheral\sysclk/cy_sysclk.c ****                            log(1.0f + trimSteps[config.ccoRange])));
 404:Generated_Source\PSoC6\pdl\drivers\peripheral\sysclk/cy_sysclk.c ****             }
 405:Generated_Source\PSoC6\pdl\drivers\peripheral\sysclk/cy_sysclk.c ****             /* 9. Compute the settling count, using a 1-usec settling time.
 406:Generated_Source\PSoC6\pdl\drivers\peripheral\sysclk/cy_sysclk.c ****                   Use a constant if the WCO is the FLL source. */
 407:Generated_Source\PSoC6\pdl\drivers\peripheral\sysclk/cy_sysclk.c ****             {
 408:Generated_Source\PSoC6\pdl\drivers\peripheral\sysclk/cy_sysclk.c ****                 float32_t ttref   = (float32_t)config.refDiv / ((float32_t)inputFreq / 1000.0f);
 409:Generated_Source\PSoC6\pdl\drivers\peripheral\sysclk/cy_sysclk.c ****                 float32_t testval = 6000.0f / (float32_t)outputFreq;
 410:Generated_Source\PSoC6\pdl\drivers\peripheral\sysclk/cy_sysclk.c ****                 float32_t divval  = ceil((float32_t)inputFreq * 0.000001f);
 411:Generated_Source\PSoC6\pdl\drivers\peripheral\sysclk/cy_sysclk.c ****                 float32_t altval  = ceil((divval / ttref) + 1.0f);
ARM GAS  C:\Users\kiwamu\AppData\Local\Temp\ccIx7zyv.s 			page 20


 412:Generated_Source\PSoC6\pdl\drivers\peripheral\sysclk/cy_sysclk.c ****                 config.settlingCount = (uint16)(wcoSource ? 200u : 
 413:Generated_Source\PSoC6\pdl\drivers\peripheral\sysclk/cy_sysclk.c ****                                                 ((ttref > testval) ? divval :
 414:Generated_Source\PSoC6\pdl\drivers\peripheral\sysclk/cy_sysclk.c ****                                                  ((divval > altval) ? divval : altval)));
 415:Generated_Source\PSoC6\pdl\drivers\peripheral\sysclk/cy_sysclk.c ****             }
 416:Generated_Source\PSoC6\pdl\drivers\peripheral\sysclk/cy_sysclk.c ****             /* configure FLL based on calculated values */
 417:Generated_Source\PSoC6\pdl\drivers\peripheral\sysclk/cy_sysclk.c ****             returnStatus = Cy_SysClk_FllManualConfigure(&config);
 418:Generated_Source\PSoC6\pdl\drivers\peripheral\sysclk/cy_sysclk.c ****         } /* if not bypass output mode */
 419:Generated_Source\PSoC6\pdl\drivers\peripheral\sysclk/cy_sysclk.c **** 
 420:Generated_Source\PSoC6\pdl\drivers\peripheral\sysclk/cy_sysclk.c ****         else
 421:Generated_Source\PSoC6\pdl\drivers\peripheral\sysclk/cy_sysclk.c ****         { /* bypass mode */
 422:Generated_Source\PSoC6\pdl\drivers\peripheral\sysclk/cy_sysclk.c ****             /* update CLK_FLL_CONFIG3 register with divide by 2 parameter */
 423:Generated_Source\PSoC6\pdl\drivers\peripheral\sysclk/cy_sysclk.c ****             CY_SYSCLK_CLR_SET(SRSS->CLK_FLL_CONFIG3, SRSS_CLK_FLL_CONFIG3_BYPASS_SEL, (uint32_t)out
 424:Generated_Source\PSoC6\pdl\drivers\peripheral\sysclk/cy_sysclk.c ****         }
 425:Generated_Source\PSoC6\pdl\drivers\peripheral\sysclk/cy_sysclk.c ****     } /* if no error */
 426:Generated_Source\PSoC6\pdl\drivers\peripheral\sysclk/cy_sysclk.c **** 
 427:Generated_Source\PSoC6\pdl\drivers\peripheral\sysclk/cy_sysclk.c ****     return (returnStatus);
 428:Generated_Source\PSoC6\pdl\drivers\peripheral\sysclk/cy_sysclk.c **** }
 429:Generated_Source\PSoC6\pdl\drivers\peripheral\sysclk/cy_sysclk.c **** 
 430:Generated_Source\PSoC6\pdl\drivers\peripheral\sysclk/cy_sysclk.c **** /*******************************************************************************
 431:Generated_Source\PSoC6\pdl\drivers\peripheral\sysclk/cy_sysclk.c **** * Function Name: Cy_SysClk_FllManualConfigure
 432:Generated_Source\PSoC6\pdl\drivers\peripheral\sysclk/cy_sysclk.c **** ****************************************************************************//**
 433:Generated_Source\PSoC6\pdl\drivers\peripheral\sysclk/cy_sysclk.c **** *
 434:Generated_Source\PSoC6\pdl\drivers\peripheral\sysclk/cy_sysclk.c **** * Manually configures the FLL based on user inputs.
 435:Generated_Source\PSoC6\pdl\drivers\peripheral\sysclk/cy_sysclk.c **** *
 436:Generated_Source\PSoC6\pdl\drivers\peripheral\sysclk/cy_sysclk.c **** * \param config \ref cy_stc_fll_manual_config_t
 437:Generated_Source\PSoC6\pdl\drivers\peripheral\sysclk/cy_sysclk.c **** *
 438:Generated_Source\PSoC6\pdl\drivers\peripheral\sysclk/cy_sysclk.c **** * \return  Error / status code:<br>
 439:Generated_Source\PSoC6\pdl\drivers\peripheral\sysclk/cy_sysclk.c **** * CY_SYSCLK_SUCCESS - FLL successfully configured<br>
 440:Generated_Source\PSoC6\pdl\drivers\peripheral\sysclk/cy_sysclk.c **** * CY_SYSCLK_INVALID_STATE - FLL not configured because it is enabled
 441:Generated_Source\PSoC6\pdl\drivers\peripheral\sysclk/cy_sysclk.c **** *
 442:Generated_Source\PSoC6\pdl\drivers\peripheral\sysclk/cy_sysclk.c **** * \note
 443:Generated_Source\PSoC6\pdl\drivers\peripheral\sysclk/cy_sysclk.c **** * Call this function after changing the FLL input frequency, for example if
 444:Generated_Source\PSoC6\pdl\drivers\peripheral\sysclk/cy_sysclk.c **** * \ref Cy_SysClk_ClkPathSetSource() is called.
 445:Generated_Source\PSoC6\pdl\drivers\peripheral\sysclk/cy_sysclk.c **** * \note
 446:Generated_Source\PSoC6\pdl\drivers\peripheral\sysclk/cy_sysclk.c **** * Do not call this function when the FLL is enabled. If it is, then this function
 447:Generated_Source\PSoC6\pdl\drivers\peripheral\sysclk/cy_sysclk.c **** * returns immediately with an error return value and no register updates.
 448:Generated_Source\PSoC6\pdl\drivers\peripheral\sysclk/cy_sysclk.c **** *******************************************************************************/
 449:Generated_Source\PSoC6\pdl\drivers\peripheral\sysclk/cy_sysclk.c **** cy_en_sysclk_status_t Cy_SysClk_FllManualConfigure(const cy_stc_fll_manual_config_t *config)
 450:Generated_Source\PSoC6\pdl\drivers\peripheral\sysclk/cy_sysclk.c **** {
 657              		.loc 1 450 0
 658              		.cfi_startproc
 659              		@ args = 0, pretend = 0, frame = 0
 660              		@ frame_needed = 0, uses_anonymous_args = 0
 661              	.LVL105:
 662 0000 70B5     		push	{r4, r5, r6, lr}
 663              		.cfi_def_cfa_offset 16
 664              		.cfi_offset 4, -16
 665              		.cfi_offset 5, -12
 666              		.cfi_offset 6, -8
 667              		.cfi_offset 14, -4
 668 0002 041E     		subs	r4, r0, #0
 669              	.LVL106:
 451:Generated_Source\PSoC6\pdl\drivers\peripheral\sysclk/cy_sysclk.c ****     cy_en_sysclk_status_t returnStatus = CY_SYSCLK_SUCCESS;
 452:Generated_Source\PSoC6\pdl\drivers\peripheral\sysclk/cy_sysclk.c **** 
 453:Generated_Source\PSoC6\pdl\drivers\peripheral\sysclk/cy_sysclk.c ****     CY_ASSERT_L1(config != NULL);
 670              		.loc 1 453 0
 671 0004 04D1     		bne	.L57
ARM GAS  C:\Users\kiwamu\AppData\Local\Temp\ccIx7zyv.s 			page 21


 672              		.loc 1 453 0 is_stmt 0 discriminator 1
 673 0006 C621     		movs	r1, #198
 674 0008 FF31     		adds	r1, r1, #255
 675 000a 4D48     		ldr	r0, .L69
 676              	.LVL107:
 677 000c FFF7FEFF 		bl	Cy_SysLib_AssertFailed
 678              	.LVL108:
 679              	.L57:
 454:Generated_Source\PSoC6\pdl\drivers\peripheral\sysclk/cy_sysclk.c ****     /* check for errors */
 455:Generated_Source\PSoC6\pdl\drivers\peripheral\sysclk/cy_sysclk.c ****     if (_FLD2VAL(SRSS_CLK_FLL_CONFIG_FLL_ENABLE, SRSS->CLK_FLL_CONFIG) != 0u) /* 1 = enabled */
 680              		.loc 1 455 0 is_stmt 1
 681 0010 B023     		movs	r3, #176
 682 0012 DB00     		lsls	r3, r3, #3
 683 0014 4B4A     		ldr	r2, .L69+4
 684 0016 D358     		ldr	r3, [r2, r3]
 685 0018 002B     		cmp	r3, #0
 686 001a 01DB     		blt	.L68
 451:Generated_Source\PSoC6\pdl\drivers\peripheral\sysclk/cy_sysclk.c ****     cy_en_sysclk_status_t returnStatus = CY_SYSCLK_SUCCESS;
 687              		.loc 1 451 0
 688 001c 0025     		movs	r5, #0
 689 001e 00E0     		b	.L58
 690              	.L68:
 456:Generated_Source\PSoC6\pdl\drivers\peripheral\sysclk/cy_sysclk.c ****     {
 457:Generated_Source\PSoC6\pdl\drivers\peripheral\sysclk/cy_sysclk.c ****         returnStatus = CY_SYSCLK_INVALID_STATE;
 691              		.loc 1 457 0
 692 0020 494D     		ldr	r5, .L69+8
 693              	.L58:
 694              	.LVL109:
 458:Generated_Source\PSoC6\pdl\drivers\peripheral\sysclk/cy_sysclk.c ****     }
 459:Generated_Source\PSoC6\pdl\drivers\peripheral\sysclk/cy_sysclk.c ****     else
 460:Generated_Source\PSoC6\pdl\drivers\peripheral\sysclk/cy_sysclk.c ****     { /* return status is OK */
 461:Generated_Source\PSoC6\pdl\drivers\peripheral\sysclk/cy_sysclk.c ****     }
 462:Generated_Source\PSoC6\pdl\drivers\peripheral\sysclk/cy_sysclk.c **** 
 463:Generated_Source\PSoC6\pdl\drivers\peripheral\sysclk/cy_sysclk.c ****     /* no error */
 464:Generated_Source\PSoC6\pdl\drivers\peripheral\sysclk/cy_sysclk.c ****     if (returnStatus == CY_SYSCLK_SUCCESS) /* no errors */
 695              		.loc 1 464 0
 696 0022 002D     		cmp	r5, #0
 697 0024 00D0     		beq	.LCB695
 698 0026 88E0     		b	.L59	@long jump
 699              	.LCB695:
 700              	.LBB32:
 465:Generated_Source\PSoC6\pdl\drivers\peripheral\sysclk/cy_sysclk.c ****     {
 466:Generated_Source\PSoC6\pdl\drivers\peripheral\sysclk/cy_sysclk.c ****         /* update CLK_FLL_CONFIG register with 2 parameters; FLL_ENABLE is already 0 */
 467:Generated_Source\PSoC6\pdl\drivers\peripheral\sysclk/cy_sysclk.c ****         /* asserts just check for bitfield overflow */
 468:Generated_Source\PSoC6\pdl\drivers\peripheral\sysclk/cy_sysclk.c ****         CY_ASSERT_L1(config->fllMult <= (SRSS_CLK_FLL_CONFIG_FLL_MULT_Msk >> SRSS_CLK_FLL_CONFIG_FL
 701              		.loc 1 468 0
 702 0028 484B     		ldr	r3, .L69+12
 703 002a 2268     		ldr	r2, [r4]
 704 002c 9A42     		cmp	r2, r3
 705 002e 04D9     		bls	.L60
 706              		.loc 1 468 0 is_stmt 0 discriminator 1
 707 0030 EA21     		movs	r1, #234
 708 0032 4900     		lsls	r1, r1, #1
 709 0034 4248     		ldr	r0, .L69
 710 0036 FFF7FEFF 		bl	Cy_SysLib_AssertFailed
 711              	.LVL110:
 712              	.L60:
ARM GAS  C:\Users\kiwamu\AppData\Local\Temp\ccIx7zyv.s 			page 22


 469:Generated_Source\PSoC6\pdl\drivers\peripheral\sysclk/cy_sysclk.c ****         uint32_t reg = _VAL2FLD(SRSS_CLK_FLL_CONFIG_FLL_MULT, config->fllMult);
 713              		.loc 1 469 0 is_stmt 1
 714 003a 2368     		ldr	r3, [r4]
 715 003c 9B03     		lsls	r3, r3, #14
 716 003e 990B     		lsrs	r1, r3, #14
 717              	.LVL111:
 470:Generated_Source\PSoC6\pdl\drivers\peripheral\sysclk/cy_sysclk.c ****         /* no assert check for enableOutputDiv, because it's a type boolean */
 471:Generated_Source\PSoC6\pdl\drivers\peripheral\sysclk/cy_sysclk.c ****         SRSS->CLK_FLL_CONFIG = reg | _VAL2FLD(SRSS_CLK_FLL_CONFIG_FLL_OUTPUT_DIV, (uint32_t)(config
 718              		.loc 1 471 0
 719 0040 E379     		ldrb	r3, [r4, #7]
 720 0042 1B06     		lsls	r3, r3, #24
 721 0044 8022     		movs	r2, #128
 722 0046 5204     		lsls	r2, r2, #17
 723 0048 1340     		ands	r3, r2
 724 004a 0B43     		orrs	r3, r1
 725 004c B022     		movs	r2, #176
 726 004e D200     		lsls	r2, r2, #3
 727 0050 3C49     		ldr	r1, .L69+4
 728              	.LVL112:
 729 0052 8B50     		str	r3, [r1, r2]
 730              	.LVL113:
 472:Generated_Source\PSoC6\pdl\drivers\peripheral\sysclk/cy_sysclk.c **** 
 473:Generated_Source\PSoC6\pdl\drivers\peripheral\sysclk/cy_sysclk.c ****         /* update CLK_FLL_CONFIG2 register with 2 parameters */
 474:Generated_Source\PSoC6\pdl\drivers\peripheral\sysclk/cy_sysclk.c ****         /* asserts just check for bitfield overflow */
 475:Generated_Source\PSoC6\pdl\drivers\peripheral\sysclk/cy_sysclk.c ****         CY_ASSERT_L1(config->refDiv <= (SRSS_CLK_FLL_CONFIG2_FLL_REF_DIV_Msk >> SRSS_CLK_FLL_CONFIG
 731              		.loc 1 475 0
 732 0054 A288     		ldrh	r2, [r4, #4]
 733 0056 3E4B     		ldr	r3, .L69+16
 734 0058 9A42     		cmp	r2, r3
 735 005a 04D9     		bls	.L61
 736              		.loc 1 475 0 is_stmt 0 discriminator 1
 737 005c DC21     		movs	r1, #220
 738 005e FF31     		adds	r1, r1, #255
 739 0060 3748     		ldr	r0, .L69
 740 0062 FFF7FEFF 		bl	Cy_SysLib_AssertFailed
 741              	.LVL114:
 742              	.L61:
 476:Generated_Source\PSoC6\pdl\drivers\peripheral\sysclk/cy_sysclk.c ****         CY_ASSERT_L1(config->lockTolerance <= (SRSS_CLK_FLL_CONFIG2_LOCK_TOL_Msk >> SRSS_CLK_FLL_CO
 743              		.loc 1 476 0 is_stmt 1
 744 0066 2289     		ldrh	r2, [r4, #8]
 745 0068 3A4B     		ldr	r3, .L69+20
 746 006a 9A42     		cmp	r2, r3
 747 006c 04D9     		bls	.L62
 748              		.loc 1 476 0 is_stmt 0 discriminator 1
 749 006e EE21     		movs	r1, #238
 750 0070 4900     		lsls	r1, r1, #1
 751 0072 3348     		ldr	r0, .L69
 752 0074 FFF7FEFF 		bl	Cy_SysLib_AssertFailed
 753              	.LVL115:
 754              	.L62:
 477:Generated_Source\PSoC6\pdl\drivers\peripheral\sysclk/cy_sysclk.c ****         reg = _VAL2FLD(SRSS_CLK_FLL_CONFIG2_FLL_REF_DIV, config->refDiv);
 755              		.loc 1 477 0 is_stmt 1
 756 0078 A388     		ldrh	r3, [r4, #4]
 757 007a DB04     		lsls	r3, r3, #19
 758 007c D90C     		lsrs	r1, r3, #19
 759              	.LVL116:
 478:Generated_Source\PSoC6\pdl\drivers\peripheral\sysclk/cy_sysclk.c ****         SRSS->CLK_FLL_CONFIG2 = reg | _VAL2FLD(SRSS_CLK_FLL_CONFIG2_LOCK_TOL, config->lockTolerance
ARM GAS  C:\Users\kiwamu\AppData\Local\Temp\ccIx7zyv.s 			page 23


 760              		.loc 1 478 0
 761 007e 2389     		ldrh	r3, [r4, #8]
 762 0080 1B04     		lsls	r3, r3, #16
 763 0082 354A     		ldr	r2, .L69+24
 764 0084 1340     		ands	r3, r2
 765 0086 0B43     		orrs	r3, r1
 766 0088 344A     		ldr	r2, .L69+28
 767 008a 2E49     		ldr	r1, .L69+4
 768              	.LVL117:
 769 008c 8B50     		str	r3, [r1, r2]
 770              	.LVL118:
 479:Generated_Source\PSoC6\pdl\drivers\peripheral\sysclk/cy_sysclk.c **** 
 480:Generated_Source\PSoC6\pdl\drivers\peripheral\sysclk/cy_sysclk.c ****         /* update CLK_FLL_CONFIG3 register with 4 parameters */
 481:Generated_Source\PSoC6\pdl\drivers\peripheral\sysclk/cy_sysclk.c ****         /* asserts just check for bitfield overflow */
 482:Generated_Source\PSoC6\pdl\drivers\peripheral\sysclk/cy_sysclk.c ****         CY_ASSERT_L1(config->igain <= (SRSS_CLK_FLL_CONFIG3_FLL_LF_IGAIN_Msk >> SRSS_CLK_FLL_CONFIG
 771              		.loc 1 482 0
 772 008e A37A     		ldrb	r3, [r4, #10]
 773 0090 0F2B     		cmp	r3, #15
 774 0092 04D9     		bls	.L63
 775              		.loc 1 482 0 is_stmt 0 discriminator 1
 776 0094 F121     		movs	r1, #241
 777 0096 4900     		lsls	r1, r1, #1
 778 0098 2948     		ldr	r0, .L69
 779 009a FFF7FEFF 		bl	Cy_SysLib_AssertFailed
 780              	.LVL119:
 781              	.L63:
 483:Generated_Source\PSoC6\pdl\drivers\peripheral\sysclk/cy_sysclk.c ****         CY_ASSERT_L1(config->pgain <= (SRSS_CLK_FLL_CONFIG3_FLL_LF_PGAIN_Msk >> SRSS_CLK_FLL_CONFIG
 782              		.loc 1 483 0 is_stmt 1
 783 009e E37A     		ldrb	r3, [r4, #11]
 784 00a0 0F2B     		cmp	r3, #15
 785 00a2 04D9     		bls	.L64
 786              		.loc 1 483 0 is_stmt 0 discriminator 1
 787 00a4 E421     		movs	r1, #228
 788 00a6 FF31     		adds	r1, r1, #255
 789 00a8 2548     		ldr	r0, .L69
 790 00aa FFF7FEFF 		bl	Cy_SysLib_AssertFailed
 791              	.LVL120:
 792              	.L64:
 484:Generated_Source\PSoC6\pdl\drivers\peripheral\sysclk/cy_sysclk.c ****         CY_ASSERT_L1(config->settlingCount <= (SRSS_CLK_FLL_CONFIG3_SETTLING_COUNT_Msk >> SRSS_CLK_
 793              		.loc 1 484 0 is_stmt 1
 794 00ae A289     		ldrh	r2, [r4, #12]
 795 00b0 274B     		ldr	r3, .L69+16
 796 00b2 9A42     		cmp	r2, r3
 797 00b4 04D9     		bls	.L65
 798              		.loc 1 484 0 is_stmt 0 discriminator 1
 799 00b6 F221     		movs	r1, #242
 800 00b8 4900     		lsls	r1, r1, #1
 801 00ba 2148     		ldr	r0, .L69
 802 00bc FFF7FEFF 		bl	Cy_SysLib_AssertFailed
 803              	.LVL121:
 804              	.L65:
 485:Generated_Source\PSoC6\pdl\drivers\peripheral\sysclk/cy_sysclk.c ****         reg  = _VAL2FLD(SRSS_CLK_FLL_CONFIG3_FLL_LF_IGAIN, config->igain);
 805              		.loc 1 485 0 is_stmt 1
 806 00c0 A37A     		ldrb	r3, [r4, #10]
 807 00c2 0F21     		movs	r1, #15
 808 00c4 1940     		ands	r1, r3
 809              	.LVL122:
ARM GAS  C:\Users\kiwamu\AppData\Local\Temp\ccIx7zyv.s 			page 24


 486:Generated_Source\PSoC6\pdl\drivers\peripheral\sysclk/cy_sysclk.c ****         reg |= _VAL2FLD(SRSS_CLK_FLL_CONFIG3_FLL_LF_PGAIN, config->pgain);
 810              		.loc 1 486 0
 811 00c6 E27A     		ldrb	r2, [r4, #11]
 812 00c8 1201     		lsls	r2, r2, #4
 813 00ca FF23     		movs	r3, #255
 814 00cc 1340     		ands	r3, r2
 815 00ce 0B43     		orrs	r3, r1
 816              	.LVL123:
 487:Generated_Source\PSoC6\pdl\drivers\peripheral\sysclk/cy_sysclk.c ****         reg |= _VAL2FLD(SRSS_CLK_FLL_CONFIG3_SETTLING_COUNT, config->settlingCount);
 817              		.loc 1 487 0
 818 00d0 A289     		ldrh	r2, [r4, #12]
 819 00d2 1202     		lsls	r2, r2, #8
 820 00d4 2249     		ldr	r1, .L69+32
 821 00d6 0A40     		ands	r2, r1
 822 00d8 1343     		orrs	r3, r2
 823              	.LVL124:
 488:Generated_Source\PSoC6\pdl\drivers\peripheral\sysclk/cy_sysclk.c ****         SRSS->CLK_FLL_CONFIG3 = reg | _VAL2FLD(SRSS_CLK_FLL_CONFIG3_BYPASS_SEL, (uint32_t)(config->
 824              		.loc 1 488 0
 825 00da A27B     		ldrb	r2, [r4, #14]
 826 00dc 1207     		lsls	r2, r2, #28
 827 00de C021     		movs	r1, #192
 828 00e0 8905     		lsls	r1, r1, #22
 829 00e2 0A40     		ands	r2, r1
 830 00e4 1343     		orrs	r3, r2
 831              	.LVL125:
 832 00e6 B122     		movs	r2, #177
 833 00e8 D200     		lsls	r2, r2, #3
 834 00ea 1649     		ldr	r1, .L69+4
 835 00ec 8B50     		str	r3, [r1, r2]
 836              	.LVL126:
 489:Generated_Source\PSoC6\pdl\drivers\peripheral\sysclk/cy_sysclk.c **** 
 490:Generated_Source\PSoC6\pdl\drivers\peripheral\sysclk/cy_sysclk.c ****         /* update CLK_FLL_CONFIG4 register with 1 parameter; preserve other bits */
 491:Generated_Source\PSoC6\pdl\drivers\peripheral\sysclk/cy_sysclk.c ****         /* asserts just check for bitfield overflow */
 492:Generated_Source\PSoC6\pdl\drivers\peripheral\sysclk/cy_sysclk.c ****         CY_ASSERT_L1(config->ccoRange <= (SRSS_CLK_FLL_CONFIG4_CCO_RANGE_Msk >> SRSS_CLK_FLL_CONFIG
 837              		.loc 1 492 0
 838 00ee A379     		ldrb	r3, [r4, #6]
 839 00f0 072B     		cmp	r3, #7
 840 00f2 04D9     		bls	.L66
 841              		.loc 1 492 0 is_stmt 0 discriminator 1
 842 00f4 F621     		movs	r1, #246
 843 00f6 4900     		lsls	r1, r1, #1
 844 00f8 1148     		ldr	r0, .L69
 845 00fa FFF7FEFF 		bl	Cy_SysLib_AssertFailed
 846              	.LVL127:
 847              	.L66:
 493:Generated_Source\PSoC6\pdl\drivers\peripheral\sysclk/cy_sysclk.c ****         CY_ASSERT_L1(config->cco_Freq <= (SRSS_CLK_FLL_CONFIG4_CCO_FREQ_Msk >> SRSS_CLK_FLL_CONFIG4
 848              		.loc 1 493 0 is_stmt 1
 849 00fe 228A     		ldrh	r2, [r4, #16]
 850 0100 144B     		ldr	r3, .L69+20
 851 0102 9A42     		cmp	r2, r3
 852 0104 04D9     		bls	.L67
 853              		.loc 1 493 0 is_stmt 0 discriminator 1
 854 0106 EE21     		movs	r1, #238
 855 0108 FF31     		adds	r1, r1, #255
 856 010a 0D48     		ldr	r0, .L69
 857 010c FFF7FEFF 		bl	Cy_SysLib_AssertFailed
 858              	.LVL128:
ARM GAS  C:\Users\kiwamu\AppData\Local\Temp\ccIx7zyv.s 			page 25


 859              	.L67:
 494:Generated_Source\PSoC6\pdl\drivers\peripheral\sysclk/cy_sysclk.c ****         CY_SYSCLK_CLR_SET(SRSS->CLK_FLL_CONFIG4, SRSS_CLK_FLL_CONFIG4_CCO_RANGE, (uint32_t)(config-
 860              		.loc 1 494 0 is_stmt 1
 861 0110 0C48     		ldr	r0, .L69+4
 862 0112 1449     		ldr	r1, .L69+36
 863 0114 4658     		ldr	r6, [r0, r1]
 864 0116 144B     		ldr	r3, .L69+40
 865 0118 1E40     		ands	r6, r3
 866 011a A379     		ldrb	r3, [r4, #6]
 867 011c 1B02     		lsls	r3, r3, #8
 868 011e E022     		movs	r2, #224
 869 0120 D200     		lsls	r2, r2, #3
 870 0122 1340     		ands	r3, r2
 871 0124 3343     		orrs	r3, r6
 872 0126 4350     		str	r3, [r0, r1]
 495:Generated_Source\PSoC6\pdl\drivers\peripheral\sysclk/cy_sysclk.c ****         CY_SYSCLK_CLR_SET(SRSS->CLK_FLL_CONFIG4, SRSS_CLK_FLL_CONFIG4_CCO_FREQ, (uint32_t)(config->
 873              		.loc 1 495 0
 874 0128 4658     		ldr	r6, [r0, r1]
 875 012a 104B     		ldr	r3, .L69+44
 876 012c 1E40     		ands	r6, r3
 877 012e 238A     		ldrh	r3, [r4, #16]
 878 0130 1B04     		lsls	r3, r3, #16
 879 0132 094A     		ldr	r2, .L69+24
 880 0134 1340     		ands	r3, r2
 881 0136 3343     		orrs	r3, r6
 882 0138 4350     		str	r3, [r0, r1]
 883              	.L59:
 884              	.LBE32:
 496:Generated_Source\PSoC6\pdl\drivers\peripheral\sysclk/cy_sysclk.c ****     } /* if no error */
 497:Generated_Source\PSoC6\pdl\drivers\peripheral\sysclk/cy_sysclk.c **** 
 498:Generated_Source\PSoC6\pdl\drivers\peripheral\sysclk/cy_sysclk.c ****     return (returnStatus);
 499:Generated_Source\PSoC6\pdl\drivers\peripheral\sysclk/cy_sysclk.c **** }
 885              		.loc 1 499 0
 886 013a 2800     		movs	r0, r5
 887              		@ sp needed
 888              	.LVL129:
 889              	.LVL130:
 890 013c 70BD     		pop	{r4, r5, r6, pc}
 891              	.L70:
 892 013e C046     		.align	2
 893              	.L69:
 894 0140 00000000 		.word	.LC3
 895 0144 00002640 		.word	1076232192
 896 0148 03004A00 		.word	4849667
 897 014c FFFF0300 		.word	262143
 898 0150 FF1F0000 		.word	8191
 899 0154 FF010000 		.word	511
 900 0158 0000FF01 		.word	33488896
 901 015c 84050000 		.word	1412
 902 0160 00FF1F00 		.word	2096896
 903 0164 8C050000 		.word	1420
 904 0168 FFF8FFFF 		.word	-1793
 905 016c FFFF00FE 		.word	-33488897
 906              		.cfi_endproc
 907              	.LFE144:
 908              		.size	Cy_SysClk_FllManualConfigure, .-Cy_SysClk_FllManualConfigure
 909              		.global	__aeabi_uidiv
ARM GAS  C:\Users\kiwamu\AppData\Local\Temp\ccIx7zyv.s 			page 26


 910              		.global	__aeabi_fsub
 911              		.global	__aeabi_ddiv
 912              		.global	__aeabi_d2uiz
 913              		.section	.text.Cy_SysClk_FllConfigure,"ax",%progbits
 914              		.align	2
 915              		.global	Cy_SysClk_FllConfigure
 916              		.code	16
 917              		.thumb_func
 918              		.type	Cy_SysClk_FllConfigure, %function
 919              	Cy_SysClk_FllConfigure:
 920              	.LFB143:
 311:Generated_Source\PSoC6\pdl\drivers\peripheral\sysclk/cy_sysclk.c ****     cy_en_sysclk_status_t returnStatus = CY_SYSCLK_SUCCESS;
 921              		.loc 1 311 0
 922              		.cfi_startproc
 923              		@ args = 0, pretend = 0, frame = 128
 924              		@ frame_needed = 0, uses_anonymous_args = 0
 925              	.LVL131:
 926 0000 F0B5     		push	{r4, r5, r6, r7, lr}
 927              		.cfi_def_cfa_offset 20
 928              		.cfi_offset 4, -20
 929              		.cfi_offset 5, -16
 930              		.cfi_offset 6, -12
 931              		.cfi_offset 7, -8
 932              		.cfi_offset 14, -4
 933 0002 5746     		mov	r7, r10
 934 0004 4646     		mov	r6, r8
 935 0006 C0B4     		push	{r6, r7}
 936              		.cfi_def_cfa_offset 28
 937              		.cfi_offset 8, -28
 938              		.cfi_offset 10, -24
 939 0008 A1B0     		sub	sp, sp, #132
 940              		.cfi_def_cfa_offset 160
 941 000a 0400     		movs	r4, r0
 942 000c 0090     		str	r0, [sp]
 943 000e 0D00     		movs	r5, r1
 944 0010 1600     		movs	r6, r2
 945              	.LVL132:
 315:Generated_Source\PSoC6\pdl\drivers\peripheral\sysclk/cy_sysclk.c ****     {
 946              		.loc 1 315 0
 947 0012 B023     		movs	r3, #176
 948 0014 DB00     		lsls	r3, r3, #3
 949 0016 C14A     		ldr	r2, .L106
 950              	.LVL133:
 951 0018 D358     		ldr	r3, [r2, r3]
 952 001a 002B     		cmp	r3, #0
 953 001c 15DB     		blt	.L92
 319:Generated_Source\PSoC6\pdl\drivers\peripheral\sysclk/cy_sysclk.c ****     {
 954              		.loc 1 319 0
 955 001e C04A     		ldr	r2, .L106+4
 956 0020 C04B     		ldr	r3, .L106+8
 957 0022 CB18     		adds	r3, r1, r3
 958 0024 9342     		cmp	r3, r2
 959 0026 12D8     		bhi	.L93
 323:Generated_Source\PSoC6\pdl\drivers\peripheral\sysclk/cy_sysclk.c ****     {
 960              		.loc 1 323 0
 961 0028 0800     		movs	r0, r1
 962              	.LVL134:
ARM GAS  C:\Users\kiwamu\AppData\Local\Temp\ccIx7zyv.s 			page 27


 963 002a FFF7FEFF 		bl	__aeabi_ui2f
 964              	.LVL135:
 965 002e 071C     		adds	r7, r0, #0
 966 0030 2000     		movs	r0, r4
 967 0032 FFF7FEFF 		bl	__aeabi_ui2f
 968              	.LVL136:
 969 0036 011C     		adds	r1, r0, #0
 970 0038 381C     		adds	r0, r7, #0
 971 003a FFF7FEFF 		bl	__aeabi_fdiv
 972              	.LVL137:
 973 003e BA49     		ldr	r1, .L106+12
 974 0040 FFF7FEFF 		bl	__aeabi_fcmplt
 975              	.LVL138:
 976 0044 0028     		cmp	r0, #0
 977 0046 04D1     		bne	.L94
 978 0048 04E0     		b	.L72
 979              	.LVL139:
 980              	.L92:
 317:Generated_Source\PSoC6\pdl\drivers\peripheral\sysclk/cy_sysclk.c ****     }
 981              		.loc 1 317 0
 982 004a B848     		ldr	r0, .L106+16
 983              	.LVL140:
 984 004c 02E0     		b	.L72
 985              	.LVL141:
 986              	.L93:
 321:Generated_Source\PSoC6\pdl\drivers\peripheral\sysclk/cy_sysclk.c ****     }
 987              		.loc 1 321 0
 988 004e B848     		ldr	r0, .L106+20
 989              	.LVL142:
 990 0050 00E0     		b	.L72
 991              	.LVL143:
 992              	.L94:
 325:Generated_Source\PSoC6\pdl\drivers\peripheral\sysclk/cy_sysclk.c ****     }
 993              		.loc 1 325 0
 994 0052 B748     		ldr	r0, .L106+20
 995              	.L72:
 996              	.LVL144:
 332:Generated_Source\PSoC6\pdl\drivers\peripheral\sysclk/cy_sysclk.c ****     {
 997              		.loc 1 332 0
 998 0054 0028     		cmp	r0, #0
 999 0056 00D0     		beq	.LCB984
 1000 0058 5BE1     		b	.L73	@long jump
 1001              	.LCB984:
 337:Generated_Source\PSoC6\pdl\drivers\peripheral\sysclk/cy_sysclk.c ****         {
 1002              		.loc 1 337 0
 1003 005a 022E     		cmp	r6, #2
 1004 005c 00D1     		bne	.LCB986
 1005 005e 4CE1     		b	.L74	@long jump
 1006              	.LCB986:
 1007              	.LBB33:
 341:Generated_Source\PSoC6\pdl\drivers\peripheral\sysclk/cy_sysclk.c **** 
 1008              		.loc 1 341 0
 1009 0060 FFF7FEFF 		bl	Cy_SysClk_ClkPathGetSource
 1010              	.LVL145:
 1011 0064 8046     		mov	r8, r0
 1012              	.LVL146:
 343:Generated_Source\PSoC6\pdl\drivers\peripheral\sysclk/cy_sysclk.c ****             /* 1. Output division by 2 is always required. */
ARM GAS  C:\Users\kiwamu\AppData\Local\Temp\ccIx7zyv.s 			page 28


 1013              		.loc 1 343 0
 1014 0066 05AB     		add	r3, sp, #20
 1015 0068 9E73     		strb	r6, [r3, #14]
 345:Generated_Source\PSoC6\pdl\drivers\peripheral\sysclk/cy_sysclk.c ****             /* 2. Compute the target CCO frequency from the target output frequency and output divi
 1016              		.loc 1 345 0
 1017 006a 0122     		movs	r2, #1
 1018 006c DA71     		strb	r2, [r3, #7]
 347:Generated_Source\PSoC6\pdl\drivers\peripheral\sysclk/cy_sysclk.c ****             /* 3. Compute the CCO range value from the CCO frequency */
 1019              		.loc 1 347 0
 1020 006e 6F00     		lsls	r7, r5, #1
 1021              	.LVL147:
 349:Generated_Source\PSoC6\pdl\drivers\peripheral\sysclk/cy_sysclk.c ****                                ((ccoFreq >= 113009380ul) ? CY_SYSCLK_FLL_CCO_RANGE3 :
 1022              		.loc 1 349 0
 1023 0070 B04B     		ldr	r3, .L106+24
 1024 0072 9F42     		cmp	r7, r3
 1025 0074 0BD8     		bhi	.L95
 349:Generated_Source\PSoC6\pdl\drivers\peripheral\sysclk/cy_sysclk.c ****                                ((ccoFreq >= 113009380ul) ? CY_SYSCLK_FLL_CCO_RANGE3 :
 1026              		.loc 1 349 0 is_stmt 0 discriminator 1
 1027 0076 B04B     		ldr	r3, .L106+28
 1028 0078 9F42     		cmp	r7, r3
 1029 007a 0BD8     		bhi	.L96
 349:Generated_Source\PSoC6\pdl\drivers\peripheral\sysclk/cy_sysclk.c ****                                ((ccoFreq >= 113009380ul) ? CY_SYSCLK_FLL_CCO_RANGE3 :
 1030              		.loc 1 349 0 discriminator 3
 1031 007c AF4B     		ldr	r3, .L106+32
 1032 007e 9F42     		cmp	r7, r3
 1033 0080 0BD8     		bhi	.L97
 352:Generated_Source\PSoC6\pdl\drivers\peripheral\sysclk/cy_sysclk.c ****             {
 1034              		.loc 1 352 0 is_stmt 1 discriminator 5
 1035 0082 AF4B     		ldr	r3, .L106+36
 1036 0084 BB42     		cmp	r3, r7
 1037 0086 9B41     		sbcs	r3, r3, r3
 1038 0088 5B42     		rsbs	r3, r3, #0
 1039 008a 9A46     		mov	r10, r3
 1040 008c 07E0     		b	.L75
 1041              	.L95:
 349:Generated_Source\PSoC6\pdl\drivers\peripheral\sysclk/cy_sysclk.c ****                                ((ccoFreq >= 113009380ul) ? CY_SYSCLK_FLL_CCO_RANGE3 :
 1042              		.loc 1 349 0
 1043 008e 0423     		movs	r3, #4
 1044 0090 9A46     		mov	r10, r3
 1045 0092 04E0     		b	.L75
 1046              	.L96:
 1047 0094 0323     		movs	r3, #3
 1048 0096 9A46     		mov	r10, r3
 1049 0098 01E0     		b	.L75
 1050              	.L97:
 1051 009a 0223     		movs	r3, #2
 1052 009c 9A46     		mov	r10, r3
 1053              	.L75:
 349:Generated_Source\PSoC6\pdl\drivers\peripheral\sysclk/cy_sysclk.c ****                                ((ccoFreq >= 113009380ul) ? CY_SYSCLK_FLL_CCO_RANGE3 :
 1054              		.loc 1 349 0 is_stmt 0 discriminator 12
 1055 009e 05AB     		add	r3, sp, #20
 1056 00a0 5246     		mov	r2, r10
 1057 00a2 9A71     		strb	r2, [r3, #6]
 1058              	.LBB34:
 355:Generated_Source\PSoC6\pdl\drivers\peripheral\sysclk/cy_sysclk.c ****                 const float32_t fMargin[] = {43600000.0f, 58100000.0f, 77200000.0f, 103000000.0f, 1
 1059              		.loc 1 355 0 is_stmt 1 discriminator 12
 1060 00a4 0AA8     		add	r0, sp, #40
ARM GAS  C:\Users\kiwamu\AppData\Local\Temp\ccIx7zyv.s 			page 29


 1061              	.LVL148:
 1062 00a6 A74B     		ldr	r3, .L106+40
 1063 00a8 0200     		movs	r2, r0
 1064 00aa 1900     		movs	r1, r3
 1065 00ac 51C9     		ldmia	r1!, {r0, r4, r6}
 1066 00ae 51C2     		stmia	r2!, {r0, r4, r6}
 1067              	.LVL149:
 1068 00b0 11C9     		ldmia	r1!, {r0, r4}
 1069 00b2 11C2     		stmia	r2!, {r0, r4}
 356:Generated_Source\PSoC6\pdl\drivers\peripheral\sysclk/cy_sysclk.c **** 
 1070              		.loc 1 356 0 discriminator 12
 1071 00b4 0FA9     		add	r1, sp, #60
 1072 00b6 1433     		adds	r3, r3, #20
 1073 00b8 0A00     		movs	r2, r1
 1074 00ba 13CB     		ldmia	r3!, {r0, r1, r4}
 1075 00bc 13C2     		stmia	r2!, {r0, r1, r4}
 1076 00be 03CB     		ldmia	r3!, {r0, r1}
 1077 00c0 03C2     		stmia	r2!, {r0, r1}
 361:Generated_Source\PSoC6\pdl\drivers\peripheral\sysclk/cy_sysclk.c ****                                                       ((trimSteps[config.ccoRange] / 2.0f) * (float
 1078              		.loc 1 361 0 discriminator 12
 1079 00c2 1223     		movs	r3, #18
 1080 00c4 FF33     		adds	r3, r3, #255
 1081 00c6 9845     		cmp	r8, r3
 1082 00c8 1DD0     		beq	.L98
 361:Generated_Source\PSoC6\pdl\drivers\peripheral\sysclk/cy_sysclk.c ****                                                       ((trimSteps[config.ccoRange] / 2.0f) * (float
 1083              		.loc 1 361 0 is_stmt 0 discriminator 2
 1084 00ca 0098     		ldr	r0, [sp]
 1085 00cc FFF7FEFF 		bl	__aeabi_ui2f
 1086              	.LVL150:
 1087 00d0 061C     		adds	r6, r0, #0
 362:Generated_Source\PSoC6\pdl\drivers\peripheral\sysclk/cy_sysclk.c ****             /* 5. Compute the FLL multiplier value.
 1088              		.loc 1 362 0 is_stmt 1 discriminator 2
 1089 00d2 5346     		mov	r3, r10
 1090 00d4 9B00     		lsls	r3, r3, #2
 1091 00d6 0AAA     		add	r2, sp, #40
 1092 00d8 9858     		ldr	r0, [r3, r2]
 1093 00da FC21     		movs	r1, #252
 1094 00dc 8905     		lsls	r1, r1, #22
 1095 00de FFF7FEFF 		bl	__aeabi_fmul
 1096              	.LVL151:
 1097 00e2 041C     		adds	r4, r0, #0
 1098 00e4 3800     		movs	r0, r7
 1099 00e6 FFF7FEFF 		bl	__aeabi_ui2f
 1100              	.LVL152:
 1101 00ea 011C     		adds	r1, r0, #0
 1102 00ec 201C     		adds	r0, r4, #0
 1103 00ee FFF7FEFF 		bl	__aeabi_fmul
 1104              	.LVL153:
 1105 00f2 011C     		adds	r1, r0, #0
 361:Generated_Source\PSoC6\pdl\drivers\peripheral\sysclk/cy_sysclk.c ****                                                       ((trimSteps[config.ccoRange] / 2.0f) * (float
 1106              		.loc 1 361 0 discriminator 2
 1107 00f4 301C     		adds	r0, r6, #0
 1108 00f6 FFF7FEFF 		bl	__aeabi_fdiv
 1109              	.LVL154:
 1110 00fa FFF7FEFF 		bl	ceilf
 1111              	.LVL155:
 1112 00fe FFF7FEFF 		bl	__aeabi_f2uiz
ARM GAS  C:\Users\kiwamu\AppData\Local\Temp\ccIx7zyv.s 			page 30


 1113              	.LVL156:
 1114 0102 84B2     		uxth	r4, r0
 1115 0104 00E0     		b	.L76
 1116              	.L98:
 361:Generated_Source\PSoC6\pdl\drivers\peripheral\sysclk/cy_sysclk.c ****                                                       ((trimSteps[config.ccoRange] / 2.0f) * (float
 1117              		.loc 1 361 0 is_stmt 0
 1118 0106 1324     		movs	r4, #19
 1119              	.L76:
 361:Generated_Source\PSoC6\pdl\drivers\peripheral\sysclk/cy_sysclk.c ****                                                       ((trimSteps[config.ccoRange] / 2.0f) * (float
 1120              		.loc 1 361 0 discriminator 4
 1121 0108 05AE     		add	r6, sp, #20
 1122 010a B480     		strh	r4, [r6, #4]
 365:Generated_Source\PSoC6\pdl\drivers\peripheral\sysclk/cy_sysclk.c ****             /* 6. Compute the lock tolerance.
 1123              		.loc 1 365 0 is_stmt 1 discriminator 4
 1124 010c 6008     		lsrs	r0, r4, #1
 1125 010e 009B     		ldr	r3, [sp]
 1126 0110 9C46     		mov	ip, r3
 1127 0112 6044     		add	r0, r0, ip
 1128 0114 2100     		movs	r1, r4
 1129 0116 FFF7FEFF 		bl	__aeabi_uidiv
 1130              	.LVL157:
 1131 011a 0100     		movs	r1, r0
 1132 011c 781E     		subs	r0, r7, #1
 1133 011e FFF7FEFF 		bl	__aeabi_uidiv
 1134              	.LVL158:
 1135 0122 0130     		adds	r0, r0, #1
 1136 0124 0590     		str	r0, [sp, #20]
 371:Generated_Source\PSoC6\pdl\drivers\peripheral\sysclk/cy_sysclk.c ****             /* 7. Compute the CCO igain and pgain. */
 1137              		.loc 1 371 0 discriminator 4
 1138 0126 FFF7FEFF 		bl	__aeabi_ui2f
 1139              	.LVL159:
 1140 012a 8749     		ldr	r1, .L106+44
 1141 012c FFF7FEFF 		bl	__aeabi_fmul
 1142              	.LVL160:
 1143 0130 FFF7FEFF 		bl	ceilf
 1144              	.LVL161:
 1145 0134 FFF7FEFF 		bl	__aeabi_f2uiz
 1146              	.LVL162:
 1147 0138 3081     		strh	r0, [r6, #8]
 1148              	.LBB35:
 375:Generated_Source\PSoC6\pdl\drivers\peripheral\sysclk/cy_sysclk.c ****                     float32_t ki_p = (0.85f / (kcco * ((float32_t)(config.refDiv) / (float32_t)inpu
 1149              		.loc 1 375 0 discriminator 4
 1150 013a 5246     		mov	r2, r10
 1151 013c 9300     		lsls	r3, r2, #2
 1152 013e 0AAA     		add	r2, sp, #40
 1153 0140 9858     		ldr	r0, [r3, r2]
 1154 0142 0FAA     		add	r2, sp, #60
 1155 0144 9A58     		ldr	r2, [r3, r2]
 1156 0146 0192     		str	r2, [sp, #4]
 1157 0148 111C     		adds	r1, r2, #0
 1158 014a FFF7FEFF 		bl	__aeabi_fmul
 1159              	.LVL163:
 1160 014e 7F49     		ldr	r1, .L106+48
 1161 0150 FFF7FEFF 		bl	__aeabi_fdiv
 1162              	.LVL164:
 1163 0154 0390     		str	r0, [sp, #12]
 1164              	.LVL165:
ARM GAS  C:\Users\kiwamu\AppData\Local\Temp\ccIx7zyv.s 			page 31


 376:Generated_Source\PSoC6\pdl\drivers\peripheral\sysclk/cy_sysclk.c **** 
 1165              		.loc 1 376 0 discriminator 4
 1166 0156 2000     		movs	r0, r4
 1167              	.LVL166:
 1168 0158 FFF7FEFF 		bl	__aeabi_ui2f
 1169              	.LVL167:
 1170 015c 041C     		adds	r4, r0, #0
 1171 015e 0098     		ldr	r0, [sp]
 1172 0160 FFF7FEFF 		bl	__aeabi_ui2f
 1173              	.LVL168:
 1174 0164 011C     		adds	r1, r0, #0
 1175 0166 0290     		str	r0, [sp, #8]
 1176 0168 201C     		adds	r0, r4, #0
 1177 016a FFF7FEFF 		bl	__aeabi_fdiv
 1178              	.LVL169:
 1179 016e 011C     		adds	r1, r0, #0
 1180 0170 0398     		ldr	r0, [sp, #12]
 1181 0172 FFF7FEFF 		bl	__aeabi_fmul
 1182              	.LVL170:
 1183 0176 011C     		adds	r1, r0, #0
 1184 0178 7548     		ldr	r0, .L106+52
 1185 017a FFF7FEFF 		bl	__aeabi_fdiv
 1186              	.LVL171:
 1187 017e 7349     		ldr	r1, .L106+48
 1188 0180 FFF7FEFF 		bl	__aeabi_fdiv
 1189              	.LVL172:
 1190 0184 0090     		str	r0, [sp]
 1191              	.LVL173:
 379:Generated_Source\PSoC6\pdl\drivers\peripheral\sysclk/cy_sysclk.c ****                                                0.5f, 1.0f, 2.0f, 4.0f, 8.0f};
 1192              		.loc 1 379 0 discriminator 4
 1193 0186 14A9     		add	r1, sp, #80
 1194 0188 6E4B     		ldr	r3, .L106+40
 1195 018a 2833     		adds	r3, r3, #40
 1196 018c 0A00     		movs	r2, r1
 1197 018e 13CB     		ldmia	r3!, {r0, r1, r4}
 1198 0190 13C2     		stmia	r2!, {r0, r1, r4}
 1199              	.LVL174:
 1200 0192 13CB     		ldmia	r3!, {r0, r1, r4}
 1201 0194 13C2     		stmia	r2!, {r0, r1, r4}
 1202 0196 13CB     		ldmia	r3!, {r0, r1, r4}
 1203 0198 13C2     		stmia	r2!, {r0, r1, r4}
 1204 019a 13CB     		ldmia	r3!, {r0, r1, r4}
 1205 019c 13C2     		stmia	r2!, {r0, r1, r4}
 383:Generated_Source\PSoC6\pdl\drivers\peripheral\sysclk/cy_sysclk.c ****                         (gains[config.igain] > ki_p) && (config.igain != 0ul); config.igain--){}
 1206              		.loc 1 383 0 discriminator 4
 1207 019e 0B23     		movs	r3, #11
 1208 01a0 B372     		strb	r3, [r6, #10]
 1209 01a2 02E0     		b	.L77
 1210              	.L80:
 384:Generated_Source\PSoC6\pdl\drivers\peripheral\sysclk/cy_sysclk.c ****                     /* decrement igain if the WCO is the FLL source */
 1211              		.loc 1 384 0 discriminator 1
 1212 01a4 013E     		subs	r6, r6, #1
 1213 01a6 05AB     		add	r3, sp, #20
 1214 01a8 9E72     		strb	r6, [r3, #10]
 1215              	.L77:
 1216 01aa 05AB     		add	r3, sp, #20
 1217 01ac 9E7A     		ldrb	r6, [r3, #10]
ARM GAS  C:\Users\kiwamu\AppData\Local\Temp\ccIx7zyv.s 			page 32


 1218 01ae B200     		lsls	r2, r6, #2
 1219 01b0 14AB     		add	r3, sp, #80
 1220 01b2 D158     		ldr	r1, [r2, r3]
 383:Generated_Source\PSoC6\pdl\drivers\peripheral\sysclk/cy_sysclk.c ****                         (gains[config.igain] > ki_p) && (config.igain != 0ul); config.igain--){}
 1221              		.loc 1 383 0 discriminator 1
 1222 01b4 0098     		ldr	r0, [sp]
 1223 01b6 FFF7FEFF 		bl	__aeabi_fcmplt
 1224              	.LVL175:
 1225 01ba 0028     		cmp	r0, #0
 1226 01bc 01D0     		beq	.L78
 384:Generated_Source\PSoC6\pdl\drivers\peripheral\sysclk/cy_sysclk.c ****                     /* decrement igain if the WCO is the FLL source */
 1227              		.loc 1 384 0 discriminator 2
 1228 01be 002E     		cmp	r6, #0
 1229 01c0 F0D1     		bne	.L80
 1230              	.L78:
 386:Generated_Source\PSoC6\pdl\drivers\peripheral\sysclk/cy_sysclk.c ****                     {
 1231              		.loc 1 386 0
 1232 01c2 1223     		movs	r3, #18
 1233 01c4 FF33     		adds	r3, r3, #255
 1234 01c6 9845     		cmp	r8, r3
 1235 01c8 04D1     		bne	.L81
 386:Generated_Source\PSoC6\pdl\drivers\peripheral\sysclk/cy_sysclk.c ****                     {
 1236              		.loc 1 386 0 is_stmt 0 discriminator 1
 1237 01ca 002E     		cmp	r6, #0
 1238 01cc 02D0     		beq	.L81
 388:Generated_Source\PSoC6\pdl\drivers\peripheral\sysclk/cy_sysclk.c ****                     }
 1239              		.loc 1 388 0 is_stmt 1
 1240 01ce 013E     		subs	r6, r6, #1
 1241 01d0 05AB     		add	r3, sp, #20
 1242 01d2 9E72     		strb	r6, [r3, #10]
 1243              	.L81:
 391:Generated_Source\PSoC6\pdl\drivers\peripheral\sysclk/cy_sysclk.c ****                         (gains[config.pgain] > (ki_p - gains[config.igain])) && (config.pgain != 0u
 1244              		.loc 1 391 0
 1245 01d4 0B22     		movs	r2, #11
 1246 01d6 05AB     		add	r3, sp, #20
 1247 01d8 DA72     		strb	r2, [r3, #11]
 1248 01da 02E0     		b	.L82
 1249              	.L85:
 393:Generated_Source\PSoC6\pdl\drivers\peripheral\sysclk/cy_sysclk.c ****                     /* decrement pgain if the WCO is the FLL source */
 1250              		.loc 1 393 0
 1251 01dc 013E     		subs	r6, r6, #1
 1252 01de 05AB     		add	r3, sp, #20
 1253 01e0 DE72     		strb	r6, [r3, #11]
 1254              	.L82:
 392:Generated_Source\PSoC6\pdl\drivers\peripheral\sysclk/cy_sysclk.c ****                         config.pgain--){}
 1255              		.loc 1 392 0 discriminator 1
 1256 01e2 05AB     		add	r3, sp, #20
 1257 01e4 DE7A     		ldrb	r6, [r3, #11]
 1258 01e6 14AA     		add	r2, sp, #80
 1259 01e8 B100     		lsls	r1, r6, #2
 1260 01ea 8C58     		ldr	r4, [r1, r2]
 1261 01ec 9B7A     		ldrb	r3, [r3, #10]
 1262 01ee 9B00     		lsls	r3, r3, #2
 1263 01f0 9958     		ldr	r1, [r3, r2]
 1264 01f2 0098     		ldr	r0, [sp]
 1265 01f4 FFF7FEFF 		bl	__aeabi_fsub
 1266              	.LVL176:
ARM GAS  C:\Users\kiwamu\AppData\Local\Temp\ccIx7zyv.s 			page 33


 1267 01f8 011C     		adds	r1, r0, #0
 391:Generated_Source\PSoC6\pdl\drivers\peripheral\sysclk/cy_sysclk.c ****                         (gains[config.pgain] > (ki_p - gains[config.igain])) && (config.pgain != 0u
 1268              		.loc 1 391 0 discriminator 1
 1269 01fa 201C     		adds	r0, r4, #0
 1270 01fc FFF7FEFF 		bl	__aeabi_fcmpgt
 1271              	.LVL177:
 1272 0200 0028     		cmp	r0, #0
 1273 0202 01D0     		beq	.L83
 392:Generated_Source\PSoC6\pdl\drivers\peripheral\sysclk/cy_sysclk.c ****                         config.pgain--){}
 1274              		.loc 1 392 0
 1275 0204 002E     		cmp	r6, #0
 1276 0206 E9D1     		bne	.L85
 1277              	.L83:
 395:Generated_Source\PSoC6\pdl\drivers\peripheral\sysclk/cy_sysclk.c ****                     {
 1278              		.loc 1 395 0
 1279 0208 1223     		movs	r3, #18
 1280 020a FF33     		adds	r3, r3, #255
 1281 020c 9845     		cmp	r8, r3
 1282 020e 04D1     		bne	.L86
 395:Generated_Source\PSoC6\pdl\drivers\peripheral\sysclk/cy_sysclk.c ****                     {
 1283              		.loc 1 395 0 is_stmt 0 discriminator 1
 1284 0210 002E     		cmp	r6, #0
 1285 0212 02D0     		beq	.L86
 397:Generated_Source\PSoC6\pdl\drivers\peripheral\sysclk/cy_sysclk.c ****                     }
 1286              		.loc 1 397 0 is_stmt 1
 1287 0214 013E     		subs	r6, r6, #1
 1288 0216 05AB     		add	r3, sp, #20
 1289 0218 DE72     		strb	r6, [r3, #11]
 1290              	.L86:
 1291              	.LBE35:
 402:Generated_Source\PSoC6\pdl\drivers\peripheral\sysclk/cy_sysclk.c ****                            log(1.0f + trimSteps[config.ccoRange])));
 1292              		.loc 1 402 0
 1293 021a 3800     		movs	r0, r7
 1294 021c FFF7FEFF 		bl	__aeabi_ui2f
 1295              	.LVL178:
 1296 0220 0199     		ldr	r1, [sp, #4]
 1297 0222 FFF7FEFF 		bl	__aeabi_fdiv
 1298              	.LVL179:
 1299 0226 FFF7FEFF 		bl	__aeabi_f2d
 1300              	.LVL180:
 1301 022a FFF7FEFF 		bl	log
 1302              	.LVL181:
 1303 022e 0600     		movs	r6, r0
 1304 0230 0F00     		movs	r7, r1
 1305              	.LVL182:
 403:Generated_Source\PSoC6\pdl\drivers\peripheral\sysclk/cy_sysclk.c ****             }
 1306              		.loc 1 403 0
 1307 0232 05AC     		add	r4, sp, #20
 1308 0234 A379     		ldrb	r3, [r4, #6]
 1309 0236 9B00     		lsls	r3, r3, #2
 1310 0238 0AAA     		add	r2, sp, #40
 1311 023a 9858     		ldr	r0, [r3, r2]
 1312 023c FE21     		movs	r1, #254
 1313 023e 8905     		lsls	r1, r1, #22
 1314 0240 FFF7FEFF 		bl	__aeabi_fadd
 1315              	.LVL183:
 1316 0244 FFF7FEFF 		bl	__aeabi_f2d
ARM GAS  C:\Users\kiwamu\AppData\Local\Temp\ccIx7zyv.s 			page 34


 1317              	.LVL184:
 1318 0248 FFF7FEFF 		bl	log
 1319              	.LVL185:
 1320 024c 0200     		movs	r2, r0
 1321 024e 0B00     		movs	r3, r1
 402:Generated_Source\PSoC6\pdl\drivers\peripheral\sysclk/cy_sysclk.c ****                            log(1.0f + trimSteps[config.ccoRange])));
 1322              		.loc 1 402 0
 1323 0250 3000     		movs	r0, r6
 1324 0252 3900     		movs	r1, r7
 1325 0254 FFF7FEFF 		bl	__aeabi_ddiv
 1326              	.LVL186:
 1327 0258 FFF7FEFF 		bl	floor
 1328              	.LVL187:
 401:Generated_Source\PSoC6\pdl\drivers\peripheral\sysclk/cy_sysclk.c ****                     (floor(log((float32_t)ccoFreq / fMargin[config.ccoRange]) /
 1329              		.loc 1 401 0
 1330 025c FFF7FEFF 		bl	__aeabi_d2uiz
 1331              	.LVL188:
 1332 0260 2082     		strh	r0, [r4, #16]
 1333              	.LBE34:
 1334              	.LBB36:
 408:Generated_Source\PSoC6\pdl\drivers\peripheral\sysclk/cy_sysclk.c ****                 float32_t testval = 6000.0f / (float32_t)outputFreq;
 1335              		.loc 1 408 0
 1336 0262 A088     		ldrh	r0, [r4, #4]
 1337 0264 FFF7FEFF 		bl	__aeabi_ui2f
 1338              	.LVL189:
 1339 0268 041C     		adds	r4, r0, #0
 1340 026a 3849     		ldr	r1, .L106+48
 1341 026c 029F     		ldr	r7, [sp, #8]
 1342 026e 381C     		adds	r0, r7, #0
 1343 0270 FFF7FEFF 		bl	__aeabi_fdiv
 1344              	.LVL190:
 1345 0274 011C     		adds	r1, r0, #0
 1346 0276 201C     		adds	r0, r4, #0
 1347 0278 FFF7FEFF 		bl	__aeabi_fdiv
 1348              	.LVL191:
 1349 027c 061C     		adds	r6, r0, #0
 1350              	.LVL192:
 409:Generated_Source\PSoC6\pdl\drivers\peripheral\sysclk/cy_sysclk.c ****                 float32_t divval  = ceil((float32_t)inputFreq * 0.000001f);
 1351              		.loc 1 409 0
 1352 027e 2800     		movs	r0, r5
 1353              	.LVL193:
 1354 0280 FFF7FEFF 		bl	__aeabi_ui2f
 1355              	.LVL194:
 1356 0284 011C     		adds	r1, r0, #0
 1357 0286 3348     		ldr	r0, .L106+56
 1358 0288 FFF7FEFF 		bl	__aeabi_fdiv
 1359              	.LVL195:
 1360 028c 051C     		adds	r5, r0, #0
 1361              	.LVL196:
 410:Generated_Source\PSoC6\pdl\drivers\peripheral\sysclk/cy_sysclk.c ****                 float32_t altval  = ceil((divval / ttref) + 1.0f);
 1362              		.loc 1 410 0
 1363 028e 3249     		ldr	r1, .L106+60
 1364 0290 381C     		adds	r0, r7, #0
 1365              	.LVL197:
 1366 0292 FFF7FEFF 		bl	__aeabi_fmul
 1367              	.LVL198:
 1368 0296 FFF7FEFF 		bl	ceilf
ARM GAS  C:\Users\kiwamu\AppData\Local\Temp\ccIx7zyv.s 			page 35


 1369              	.LVL199:
 1370 029a 041C     		adds	r4, r0, #0
 1371              	.LVL200:
 411:Generated_Source\PSoC6\pdl\drivers\peripheral\sysclk/cy_sysclk.c ****                 config.settlingCount = (uint16)(wcoSource ? 200u : 
 1372              		.loc 1 411 0
 1373 029c 311C     		adds	r1, r6, #0
 1374 029e FFF7FEFF 		bl	__aeabi_fdiv
 1375              	.LVL201:
 1376 02a2 FE21     		movs	r1, #254
 1377 02a4 8905     		lsls	r1, r1, #22
 1378 02a6 FFF7FEFF 		bl	__aeabi_fadd
 1379              	.LVL202:
 1380 02aa FFF7FEFF 		bl	ceilf
 1381              	.LVL203:
 1382 02ae 071C     		adds	r7, r0, #0
 1383              	.LVL204:
 412:Generated_Source\PSoC6\pdl\drivers\peripheral\sysclk/cy_sysclk.c ****                                                 ((ttref > testval) ? divval :
 1384              		.loc 1 412 0
 1385 02b0 1223     		movs	r3, #18
 1386 02b2 FF33     		adds	r3, r3, #255
 1387 02b4 9845     		cmp	r8, r3
 1388 02b6 1AD0     		beq	.L99
 412:Generated_Source\PSoC6\pdl\drivers\peripheral\sysclk/cy_sysclk.c ****                                                 ((ttref > testval) ? divval :
 1389              		.loc 1 412 0 is_stmt 0 discriminator 1
 1390 02b8 291C     		adds	r1, r5, #0
 1391 02ba 301C     		adds	r0, r6, #0
 1392              	.LVL205:
 1393 02bc FFF7FEFF 		bl	__aeabi_fcmpgt
 1394              	.LVL206:
 1395 02c0 0028     		cmp	r0, #0
 1396 02c2 04D0     		beq	.L104
 412:Generated_Source\PSoC6\pdl\drivers\peripheral\sysclk/cy_sysclk.c ****                                                 ((ttref > testval) ? divval :
 1397              		.loc 1 412 0 discriminator 3
 1398 02c4 201C     		adds	r0, r4, #0
 1399 02c6 FFF7FEFF 		bl	__aeabi_f2uiz
 1400              	.LVL207:
 1401 02ca 83B2     		uxth	r3, r0
 1402 02cc 10E0     		b	.L87
 1403              	.L104:
 412:Generated_Source\PSoC6\pdl\drivers\peripheral\sysclk/cy_sysclk.c ****                                                 ((ttref > testval) ? divval :
 1404              		.loc 1 412 0 discriminator 4
 1405 02ce 391C     		adds	r1, r7, #0
 1406 02d0 201C     		adds	r0, r4, #0
 1407 02d2 FFF7FEFF 		bl	__aeabi_fcmpgt
 1408              	.LVL208:
 1409 02d6 0028     		cmp	r0, #0
 1410 02d8 04D0     		beq	.L105
 412:Generated_Source\PSoC6\pdl\drivers\peripheral\sysclk/cy_sysclk.c ****                                                 ((ttref > testval) ? divval :
 1411              		.loc 1 412 0 discriminator 6
 1412 02da 201C     		adds	r0, r4, #0
 1413 02dc FFF7FEFF 		bl	__aeabi_f2uiz
 1414              	.LVL209:
 1415 02e0 83B2     		uxth	r3, r0
 1416 02e2 05E0     		b	.L87
 1417              	.L105:
 412:Generated_Source\PSoC6\pdl\drivers\peripheral\sysclk/cy_sysclk.c ****                                                 ((ttref > testval) ? divval :
 1418              		.loc 1 412 0 discriminator 7
ARM GAS  C:\Users\kiwamu\AppData\Local\Temp\ccIx7zyv.s 			page 36


 1419 02e4 381C     		adds	r0, r7, #0
 1420 02e6 FFF7FEFF 		bl	__aeabi_f2uiz
 1421              	.LVL210:
 1422 02ea 83B2     		uxth	r3, r0
 1423 02ec 00E0     		b	.L87
 1424              	.LVL211:
 1425              	.L99:
 412:Generated_Source\PSoC6\pdl\drivers\peripheral\sysclk/cy_sysclk.c ****                                                 ((ttref > testval) ? divval :
 1426              		.loc 1 412 0
 1427 02ee C823     		movs	r3, #200
 1428              	.LVL212:
 1429              	.L87:
 412:Generated_Source\PSoC6\pdl\drivers\peripheral\sysclk/cy_sysclk.c ****                                                 ((ttref > testval) ? divval :
 1430              		.loc 1 412 0 discriminator 12
 1431 02f0 05A8     		add	r0, sp, #20
 1432 02f2 8381     		strh	r3, [r0, #12]
 1433              	.LBE36:
 417:Generated_Source\PSoC6\pdl\drivers\peripheral\sysclk/cy_sysclk.c ****         } /* if not bypass output mode */
 1434              		.loc 1 417 0 is_stmt 1 discriminator 12
 1435 02f4 FFF7FEFF 		bl	Cy_SysClk_FllManualConfigure
 1436              	.LVL213:
 1437              	.LBE33:
 1438 02f8 0BE0     		b	.L73
 1439              	.LVL214:
 1440              	.L74:
 423:Generated_Source\PSoC6\pdl\drivers\peripheral\sysclk/cy_sysclk.c ****         }
 1441              		.loc 1 423 0
 1442 02fa 084C     		ldr	r4, .L106
 1443              	.LVL215:
 1444 02fc B121     		movs	r1, #177
 1445 02fe C900     		lsls	r1, r1, #3
 1446 0300 6258     		ldr	r2, [r4, r1]
 1447 0302 164B     		ldr	r3, .L106+64
 1448 0304 1A40     		ands	r2, r3
 1449 0306 3607     		lsls	r6, r6, #28
 1450 0308 C023     		movs	r3, #192
 1451 030a 9B05     		lsls	r3, r3, #22
 1452 030c 1E40     		ands	r6, r3
 1453 030e 1643     		orrs	r6, r2
 1454 0310 6650     		str	r6, [r4, r1]
 1455              	.LVL216:
 1456              	.L73:
 428:Generated_Source\PSoC6\pdl\drivers\peripheral\sysclk/cy_sysclk.c **** 
 1457              		.loc 1 428 0
 1458 0312 21B0     		add	sp, sp, #132
 1459              		@ sp needed
 1460 0314 0CBC     		pop	{r2, r3}
 1461 0316 9046     		mov	r8, r2
 1462 0318 9A46     		mov	r10, r3
 1463 031a F0BD     		pop	{r4, r5, r6, r7, pc}
 1464              	.L107:
 1465              		.align	2
 1466              	.L106:
 1467 031c 00002640 		.word	1076232192
 1468 0320 00AB8704 		.word	76000000
 1469 0324 00CA91FE 		.word	-24000000
 1470 0328 CDCC0C40 		.word	1074580685
ARM GAS  C:\Users\kiwamu\AppData\Local\Temp\ccIx7zyv.s 			page 37


 1471 032c 03004A00 		.word	4849667
 1472 0330 01004A00 		.word	4849665
 1473 0334 7FFEF508 		.word	150339199
 1474 0338 E362BC06 		.word	113009379
 1475 033c DB361005 		.word	84948699
 1476 0340 EF5BCE03 		.word	63855599
 1477 0344 00000000 		.word	.LANCHOR0
 1478 0348 F6259B3C 		.word	1016800758
 1479 034c 00007A44 		.word	1148846080
 1480 0350 9A99593F 		.word	1062836634
 1481 0354 0080BB45 		.word	1169915904
 1482 0358 BD378635 		.word	897988541
 1483 035c FFFFFFCF 		.word	-805306369
 1484              		.cfi_endproc
 1485              	.LFE143:
 1486              		.size	Cy_SysClk_FllConfigure, .-Cy_SysClk_FllConfigure
 1487              		.section	.text.Cy_SysClk_FllGetConfiguration,"ax",%progbits
 1488              		.align	2
 1489              		.global	Cy_SysClk_FllGetConfiguration
 1490              		.code	16
 1491              		.thumb_func
 1492              		.type	Cy_SysClk_FllGetConfiguration, %function
 1493              	Cy_SysClk_FllGetConfiguration:
 1494              	.LFB145:
 500:Generated_Source\PSoC6\pdl\drivers\peripheral\sysclk/cy_sysclk.c **** 
 501:Generated_Source\PSoC6\pdl\drivers\peripheral\sysclk/cy_sysclk.c **** /*******************************************************************************
 502:Generated_Source\PSoC6\pdl\drivers\peripheral\sysclk/cy_sysclk.c **** * Function Name: Cy_SysClk_FllGetConfiguration
 503:Generated_Source\PSoC6\pdl\drivers\peripheral\sysclk/cy_sysclk.c **** ****************************************************************************//**
 504:Generated_Source\PSoC6\pdl\drivers\peripheral\sysclk/cy_sysclk.c **** *
 505:Generated_Source\PSoC6\pdl\drivers\peripheral\sysclk/cy_sysclk.c **** * Reports the FLL configuration settings.
 506:Generated_Source\PSoC6\pdl\drivers\peripheral\sysclk/cy_sysclk.c **** *
 507:Generated_Source\PSoC6\pdl\drivers\peripheral\sysclk/cy_sysclk.c **** * \param config \ref cy_stc_fll_manual_config_t
 508:Generated_Source\PSoC6\pdl\drivers\peripheral\sysclk/cy_sysclk.c **** *
 509:Generated_Source\PSoC6\pdl\drivers\peripheral\sysclk/cy_sysclk.c **** *******************************************************************************/
 510:Generated_Source\PSoC6\pdl\drivers\peripheral\sysclk/cy_sysclk.c **** void Cy_SysClk_FllGetConfiguration(cy_stc_fll_manual_config_t *config)
 511:Generated_Source\PSoC6\pdl\drivers\peripheral\sysclk/cy_sysclk.c **** {
 1495              		.loc 1 511 0
 1496              		.cfi_startproc
 1497              		@ args = 0, pretend = 0, frame = 0
 1498              		@ frame_needed = 0, uses_anonymous_args = 0
 1499              	.LVL217:
 1500 0000 10B5     		push	{r4, lr}
 1501              		.cfi_def_cfa_offset 8
 1502              		.cfi_offset 4, -8
 1503              		.cfi_offset 14, -4
 1504 0002 041E     		subs	r4, r0, #0
 512:Generated_Source\PSoC6\pdl\drivers\peripheral\sysclk/cy_sysclk.c ****     CY_ASSERT_L1(config != NULL);
 1505              		.loc 1 512 0
 1506 0004 04D1     		bne	.L109
 1507              		.loc 1 512 0 is_stmt 0 discriminator 1
 1508 0006 8021     		movs	r1, #128
 1509 0008 8900     		lsls	r1, r1, #2
 1510 000a 1848     		ldr	r0, .L110
 1511              	.LVL218:
 1512 000c FFF7FEFF 		bl	Cy_SysLib_AssertFailed
 1513              	.LVL219:
 1514              	.L109:
ARM GAS  C:\Users\kiwamu\AppData\Local\Temp\ccIx7zyv.s 			page 38


 513:Generated_Source\PSoC6\pdl\drivers\peripheral\sysclk/cy_sysclk.c ****     /* read 2 parameters from CLK_FLL_CONFIG register */
 514:Generated_Source\PSoC6\pdl\drivers\peripheral\sysclk/cy_sysclk.c ****     uint32_t tempReg = SRSS->CLK_FLL_CONFIG;
 1515              		.loc 1 514 0 is_stmt 1
 1516 0010 1749     		ldr	r1, .L110+4
 1517 0012 B023     		movs	r3, #176
 1518 0014 DB00     		lsls	r3, r3, #3
 1519 0016 CB58     		ldr	r3, [r1, r3]
 1520              	.LVL220:
 515:Generated_Source\PSoC6\pdl\drivers\peripheral\sysclk/cy_sysclk.c ****     config->fllMult         = _FLD2VAL(SRSS_CLK_FLL_CONFIG_FLL_MULT, tempReg);
 1521              		.loc 1 515 0
 1522 0018 9A03     		lsls	r2, r3, #14
 1523 001a 920B     		lsrs	r2, r2, #14
 1524 001c 2260     		str	r2, [r4]
 516:Generated_Source\PSoC6\pdl\drivers\peripheral\sysclk/cy_sysclk.c ****     config->enableOutputDiv = (bool)_FLD2VAL(SRSS_CLK_FLL_CONFIG_FLL_OUTPUT_DIV, tempReg);
 1525              		.loc 1 516 0
 1526 001e 1B0E     		lsrs	r3, r3, #24
 1527              	.LVL221:
 1528 0020 0122     		movs	r2, #1
 1529 0022 1340     		ands	r3, r2
 1530 0024 E371     		strb	r3, [r4, #7]
 517:Generated_Source\PSoC6\pdl\drivers\peripheral\sysclk/cy_sysclk.c ****     /* read 2 parameters from CLK_FLL_CONFIG2 register */
 518:Generated_Source\PSoC6\pdl\drivers\peripheral\sysclk/cy_sysclk.c ****     tempReg = SRSS->CLK_FLL_CONFIG2;
 1531              		.loc 1 518 0
 1532 0026 134B     		ldr	r3, .L110+8
 1533 0028 CB58     		ldr	r3, [r1, r3]
 1534              	.LVL222:
 519:Generated_Source\PSoC6\pdl\drivers\peripheral\sysclk/cy_sysclk.c ****     config->refDiv          = _FLD2VAL(SRSS_CLK_FLL_CONFIG2_FLL_REF_DIV, tempReg);
 1535              		.loc 1 519 0
 1536 002a DA04     		lsls	r2, r3, #19
 1537 002c D20C     		lsrs	r2, r2, #19
 1538 002e A280     		strh	r2, [r4, #4]
 520:Generated_Source\PSoC6\pdl\drivers\peripheral\sysclk/cy_sysclk.c ****     config->lockTolerance   = _FLD2VAL(SRSS_CLK_FLL_CONFIG2_LOCK_TOL, tempReg);
 1539              		.loc 1 520 0
 1540 0030 1B0C     		lsrs	r3, r3, #16
 1541              	.LVL223:
 1542 0032 DB05     		lsls	r3, r3, #23
 1543 0034 DB0D     		lsrs	r3, r3, #23
 1544 0036 2381     		strh	r3, [r4, #8]
 521:Generated_Source\PSoC6\pdl\drivers\peripheral\sysclk/cy_sysclk.c ****     /* read 4 parameters from CLK_FLL_CONFIG3 register */
 522:Generated_Source\PSoC6\pdl\drivers\peripheral\sysclk/cy_sysclk.c ****     tempReg = SRSS->CLK_FLL_CONFIG3;
 1545              		.loc 1 522 0
 1546 0038 B123     		movs	r3, #177
 1547 003a DB00     		lsls	r3, r3, #3
 1548 003c CB58     		ldr	r3, [r1, r3]
 1549              	.LVL224:
 523:Generated_Source\PSoC6\pdl\drivers\peripheral\sysclk/cy_sysclk.c ****     config->igain           = _FLD2VAL(SRSS_CLK_FLL_CONFIG3_FLL_LF_IGAIN, tempReg);
 1550              		.loc 1 523 0
 1551 003e 0F20     		movs	r0, #15
 1552 0040 0200     		movs	r2, r0
 1553 0042 1A40     		ands	r2, r3
 1554 0044 A272     		strb	r2, [r4, #10]
 524:Generated_Source\PSoC6\pdl\drivers\peripheral\sysclk/cy_sysclk.c ****     config->pgain           = _FLD2VAL(SRSS_CLK_FLL_CONFIG3_FLL_LF_PGAIN, tempReg);
 1555              		.loc 1 524 0
 1556 0046 1A09     		lsrs	r2, r3, #4
 1557 0048 0240     		ands	r2, r0
 1558 004a E272     		strb	r2, [r4, #11]
 525:Generated_Source\PSoC6\pdl\drivers\peripheral\sysclk/cy_sysclk.c ****     config->settlingCount   = _FLD2VAL(SRSS_CLK_FLL_CONFIG3_SETTLING_COUNT, tempReg);
ARM GAS  C:\Users\kiwamu\AppData\Local\Temp\ccIx7zyv.s 			page 39


 1559              		.loc 1 525 0
 1560 004c 1A0A     		lsrs	r2, r3, #8
 1561 004e D204     		lsls	r2, r2, #19
 1562 0050 D20C     		lsrs	r2, r2, #19
 1563 0052 A281     		strh	r2, [r4, #12]
 526:Generated_Source\PSoC6\pdl\drivers\peripheral\sysclk/cy_sysclk.c ****     config->outputMode      = (cy_en_fll_pll_output_mode_t)_FLD2VAL(SRSS_CLK_FLL_CONFIG3_BYPASS_SEL
 1564              		.loc 1 526 0
 1565 0054 1B0F     		lsrs	r3, r3, #28
 1566              	.LVL225:
 1567 0056 0322     		movs	r2, #3
 1568 0058 1340     		ands	r3, r2
 1569 005a A373     		strb	r3, [r4, #14]
 527:Generated_Source\PSoC6\pdl\drivers\peripheral\sysclk/cy_sysclk.c ****     /* read 1 parameter from CLK_FLL_CONFIG4 register */
 528:Generated_Source\PSoC6\pdl\drivers\peripheral\sysclk/cy_sysclk.c ****     config->ccoRange        = (cy_en_fll_cco_ranges_t)_FLD2VAL(SRSS_CLK_FLL_CONFIG4_CCO_RANGE, SRSS
 1570              		.loc 1 528 0
 1571 005c 064B     		ldr	r3, .L110+12
 1572 005e CB58     		ldr	r3, [r1, r3]
 1573 0060 1B0A     		lsrs	r3, r3, #8
 1574 0062 0432     		adds	r2, r2, #4
 1575 0064 1340     		ands	r3, r2
 1576 0066 A371     		strb	r3, [r4, #6]
 529:Generated_Source\PSoC6\pdl\drivers\peripheral\sysclk/cy_sysclk.c **** }
 1577              		.loc 1 529 0
 1578              		@ sp needed
 1579              	.LVL226:
 1580 0068 10BD     		pop	{r4, pc}
 1581              	.L111:
 1582 006a C046     		.align	2
 1583              	.L110:
 1584 006c 00000000 		.word	.LC3
 1585 0070 00002640 		.word	1076232192
 1586 0074 84050000 		.word	1412
 1587 0078 8C050000 		.word	1420
 1588              		.cfi_endproc
 1589              	.LFE145:
 1590              		.size	Cy_SysClk_FllGetConfiguration, .-Cy_SysClk_FllGetConfiguration
 1591              		.section	.text.Cy_SysClk_FllEnable,"ax",%progbits
 1592              		.align	2
 1593              		.global	Cy_SysClk_FllEnable
 1594              		.code	16
 1595              		.thumb_func
 1596              		.type	Cy_SysClk_FllEnable, %function
 1597              	Cy_SysClk_FllEnable:
 1598              	.LFB146:
 530:Generated_Source\PSoC6\pdl\drivers\peripheral\sysclk/cy_sysclk.c **** 
 531:Generated_Source\PSoC6\pdl\drivers\peripheral\sysclk/cy_sysclk.c **** /*******************************************************************************
 532:Generated_Source\PSoC6\pdl\drivers\peripheral\sysclk/cy_sysclk.c **** * Function Name: Cy_SysClk_FllEnable
 533:Generated_Source\PSoC6\pdl\drivers\peripheral\sysclk/cy_sysclk.c **** ****************************************************************************//**
 534:Generated_Source\PSoC6\pdl\drivers\peripheral\sysclk/cy_sysclk.c **** *
 535:Generated_Source\PSoC6\pdl\drivers\peripheral\sysclk/cy_sysclk.c **** * Enables the FLL. The FLL should be configured before calling this function.
 536:Generated_Source\PSoC6\pdl\drivers\peripheral\sysclk/cy_sysclk.c **** *
 537:Generated_Source\PSoC6\pdl\drivers\peripheral\sysclk/cy_sysclk.c **** * \param timeoutus amount of time in micro seconds to wait for FLL to lock.
 538:Generated_Source\PSoC6\pdl\drivers\peripheral\sysclk/cy_sysclk.c **** * If lock doesn't occur, FLL is stopped. To avoid waiting for lock set this to 0,
 539:Generated_Source\PSoC6\pdl\drivers\peripheral\sysclk/cy_sysclk.c **** * and manually check for lock using \ref Cy_SysClk_FllLocked.
 540:Generated_Source\PSoC6\pdl\drivers\peripheral\sysclk/cy_sysclk.c **** *
 541:Generated_Source\PSoC6\pdl\drivers\peripheral\sysclk/cy_sysclk.c **** * \return Error / status code:<br>
 542:Generated_Source\PSoC6\pdl\drivers\peripheral\sysclk/cy_sysclk.c **** * CY_SYSCLK_SUCCESS - FLL successfully enabled<br>
ARM GAS  C:\Users\kiwamu\AppData\Local\Temp\ccIx7zyv.s 			page 40


 543:Generated_Source\PSoC6\pdl\drivers\peripheral\sysclk/cy_sysclk.c **** * CY_SYSCLK_TIMEOUT - Timeout waiting for FLL lock
 544:Generated_Source\PSoC6\pdl\drivers\peripheral\sysclk/cy_sysclk.c **** *
 545:Generated_Source\PSoC6\pdl\drivers\peripheral\sysclk/cy_sysclk.c **** * \note
 546:Generated_Source\PSoC6\pdl\drivers\peripheral\sysclk/cy_sysclk.c **** * While waiting for the FLL to lock, the FLL bypass mode is set to \ref CY_SYSCLK_FLLPLL_OUTPUT_INP
 547:Generated_Source\PSoC6\pdl\drivers\peripheral\sysclk/cy_sysclk.c **** * After the FLL is locked, the FLL bypass mdoe is then set to \ref CY_SYSCLK_FLLPLL_OUTPUT_OUTPUT.
 548:Generated_Source\PSoC6\pdl\drivers\peripheral\sysclk/cy_sysclk.c **** *******************************************************************************/
 549:Generated_Source\PSoC6\pdl\drivers\peripheral\sysclk/cy_sysclk.c **** cy_en_sysclk_status_t Cy_SysClk_FllEnable(uint32_t timeoutus)
 550:Generated_Source\PSoC6\pdl\drivers\peripheral\sysclk/cy_sysclk.c **** {
 1599              		.loc 1 550 0
 1600              		.cfi_startproc
 1601              		@ args = 0, pretend = 0, frame = 0
 1602              		@ frame_needed = 0, uses_anonymous_args = 0
 1603              	.LVL227:
 1604 0000 70B5     		push	{r4, r5, r6, lr}
 1605              		.cfi_def_cfa_offset 16
 1606              		.cfi_offset 4, -16
 1607              		.cfi_offset 5, -12
 1608              		.cfi_offset 6, -8
 1609              		.cfi_offset 14, -4
 1610 0002 0500     		movs	r5, r0
 1611              	.LVL228:
 551:Generated_Source\PSoC6\pdl\drivers\peripheral\sysclk/cy_sysclk.c ****     cy_en_sysclk_status_t rtnval;
 552:Generated_Source\PSoC6\pdl\drivers\peripheral\sysclk/cy_sysclk.c ****     bool nonZeroTimeout = (timeoutus != 0ul);
 553:Generated_Source\PSoC6\pdl\drivers\peripheral\sysclk/cy_sysclk.c **** 
 554:Generated_Source\PSoC6\pdl\drivers\peripheral\sysclk/cy_sysclk.c ****     /* first set the CCO enable bit */
 555:Generated_Source\PSoC6\pdl\drivers\peripheral\sysclk/cy_sysclk.c ****     SRSS->CLK_FLL_CONFIG4 |= _VAL2FLD(SRSS_CLK_FLL_CONFIG4_CCO_ENABLE, 1ul); /* 1 = enable */
 1612              		.loc 1 555 0
 1613 0004 2D49     		ldr	r1, .L125
 1614 0006 2E4A     		ldr	r2, .L125+4
 1615 0008 8B58     		ldr	r3, [r1, r2]
 1616 000a 8020     		movs	r0, #128
 1617              	.LVL229:
 1618 000c 0006     		lsls	r0, r0, #24
 1619 000e 0343     		orrs	r3, r0
 1620 0010 8B50     		str	r3, [r1, r2]
 556:Generated_Source\PSoC6\pdl\drivers\peripheral\sysclk/cy_sysclk.c **** 
 557:Generated_Source\PSoC6\pdl\drivers\peripheral\sysclk/cy_sysclk.c ****     /* Wait until CCO is ready */
 558:Generated_Source\PSoC6\pdl\drivers\peripheral\sysclk/cy_sysclk.c ****     for (; (_FLD2VAL(SRSS_CLK_FLL_STATUS_CCO_READY, SRSS->CLK_FLL_STATUS) == 0ul) &&
 1621              		.loc 1 558 0
 1622 0012 2C00     		movs	r4, r5
 1623 0014 03E0     		b	.L113
 1624              	.LVL230:
 1625              	.L115:
 559:Generated_Source\PSoC6\pdl\drivers\peripheral\sysclk/cy_sysclk.c ****            (timeoutus != 0ul);
 560:Generated_Source\PSoC6\pdl\drivers\peripheral\sysclk/cy_sysclk.c ****          timeoutus--)
 561:Generated_Source\PSoC6\pdl\drivers\peripheral\sysclk/cy_sysclk.c ****     {
 562:Generated_Source\PSoC6\pdl\drivers\peripheral\sysclk/cy_sysclk.c ****         Cy_SysLib_DelayUs(1u);
 1626              		.loc 1 562 0
 1627 0016 0120     		movs	r0, #1
 1628 0018 FFF7FEFF 		bl	Cy_SysLib_DelayUs
 1629              	.LVL231:
 560:Generated_Source\PSoC6\pdl\drivers\peripheral\sysclk/cy_sysclk.c ****     {
 1630              		.loc 1 560 0
 1631 001c 013C     		subs	r4, r4, #1
 1632              	.LVL232:
 1633              	.L113:
 558:Generated_Source\PSoC6\pdl\drivers\peripheral\sysclk/cy_sysclk.c ****            (timeoutus != 0ul);
ARM GAS  C:\Users\kiwamu\AppData\Local\Temp\ccIx7zyv.s 			page 41


 1634              		.loc 1 558 0
 1635 001e B223     		movs	r3, #178
 1636 0020 DB00     		lsls	r3, r3, #3
 1637 0022 264A     		ldr	r2, .L125
 1638 0024 D358     		ldr	r3, [r2, r3]
 1639 0026 5B07     		lsls	r3, r3, #29
 1640 0028 01D4     		bmi	.L114
 558:Generated_Source\PSoC6\pdl\drivers\peripheral\sysclk/cy_sysclk.c ****            (timeoutus != 0ul);
 1641              		.loc 1 558 0 is_stmt 0 discriminator 1
 1642 002a 002C     		cmp	r4, #0
 1643 002c F3D1     		bne	.L115
 1644              	.L114:
 563:Generated_Source\PSoC6\pdl\drivers\peripheral\sysclk/cy_sysclk.c ****     }
 564:Generated_Source\PSoC6\pdl\drivers\peripheral\sysclk/cy_sysclk.c **** 
 565:Generated_Source\PSoC6\pdl\drivers\peripheral\sysclk/cy_sysclk.c ****     /* Set the FLL bypass mode to 2 */
 566:Generated_Source\PSoC6\pdl\drivers\peripheral\sysclk/cy_sysclk.c ****     CY_SYSCLK_CLR_SET(SRSS->CLK_FLL_CONFIG3, SRSS_CLK_FLL_CONFIG3_BYPASS_SEL, (uint32_t)CY_SYSCLK_F
 1645              		.loc 1 566 0 is_stmt 1
 1646 002e 2349     		ldr	r1, .L125
 1647 0030 B122     		movs	r2, #177
 1648 0032 D200     		lsls	r2, r2, #3
 1649 0034 8858     		ldr	r0, [r1, r2]
 1650 0036 234B     		ldr	r3, .L125+8
 1651 0038 0340     		ands	r3, r0
 1652 003a 8020     		movs	r0, #128
 1653 003c 8005     		lsls	r0, r0, #22
 1654 003e 0343     		orrs	r3, r0
 1655 0040 8B50     		str	r3, [r1, r2]
 567:Generated_Source\PSoC6\pdl\drivers\peripheral\sysclk/cy_sysclk.c **** 
 568:Generated_Source\PSoC6\pdl\drivers\peripheral\sysclk/cy_sysclk.c ****     /* Set the FLL enable bit, if CCO is ready */
 569:Generated_Source\PSoC6\pdl\drivers\peripheral\sysclk/cy_sysclk.c ****     if ((!nonZeroTimeout) || (nonZeroTimeout && (timeoutus != 0ul)))
 1656              		.loc 1 569 0
 1657 0042 002D     		cmp	r5, #0
 1658 0044 02D0     		beq	.L116
 1659              		.loc 1 569 0 is_stmt 0 discriminator 1
 1660 0046 0ED0     		beq	.L118
 1661              		.loc 1 569 0 discriminator 2
 1662 0048 002C     		cmp	r4, #0
 1663 004a 0CD0     		beq	.L118
 1664              	.L116:
 570:Generated_Source\PSoC6\pdl\drivers\peripheral\sysclk/cy_sysclk.c ****     {
 571:Generated_Source\PSoC6\pdl\drivers\peripheral\sysclk/cy_sysclk.c ****         SRSS->CLK_FLL_CONFIG |= _VAL2FLD(SRSS_CLK_FLL_CONFIG_FLL_ENABLE, 1ul); /* 1 = enable */
 1665              		.loc 1 571 0 is_stmt 1
 1666 004c 1B49     		ldr	r1, .L125
 1667 004e B022     		movs	r2, #176
 1668 0050 D200     		lsls	r2, r2, #3
 1669 0052 8B58     		ldr	r3, [r1, r2]
 1670 0054 8020     		movs	r0, #128
 1671 0056 0006     		lsls	r0, r0, #24
 1672 0058 0343     		orrs	r3, r0
 1673 005a 8B50     		str	r3, [r1, r2]
 1674 005c 03E0     		b	.L118
 1675              	.L120:
 572:Generated_Source\PSoC6\pdl\drivers\peripheral\sysclk/cy_sysclk.c ****     }
 573:Generated_Source\PSoC6\pdl\drivers\peripheral\sysclk/cy_sysclk.c **** 
 574:Generated_Source\PSoC6\pdl\drivers\peripheral\sysclk/cy_sysclk.c ****     /* now do the timeout wait for FLL_STATUS, bit LOCKED */
 575:Generated_Source\PSoC6\pdl\drivers\peripheral\sysclk/cy_sysclk.c ****     for (; (_FLD2VAL(SRSS_CLK_FLL_STATUS_LOCKED, SRSS->CLK_FLL_STATUS) == 0ul) &&
 576:Generated_Source\PSoC6\pdl\drivers\peripheral\sysclk/cy_sysclk.c ****            (timeoutus != 0ul);
ARM GAS  C:\Users\kiwamu\AppData\Local\Temp\ccIx7zyv.s 			page 42


 577:Generated_Source\PSoC6\pdl\drivers\peripheral\sysclk/cy_sysclk.c ****          timeoutus--)
 578:Generated_Source\PSoC6\pdl\drivers\peripheral\sysclk/cy_sysclk.c ****     {
 579:Generated_Source\PSoC6\pdl\drivers\peripheral\sysclk/cy_sysclk.c ****         Cy_SysLib_DelayUs(1u);
 1676              		.loc 1 579 0
 1677 005e 0120     		movs	r0, #1
 1678 0060 FFF7FEFF 		bl	Cy_SysLib_DelayUs
 1679              	.LVL233:
 577:Generated_Source\PSoC6\pdl\drivers\peripheral\sysclk/cy_sysclk.c ****     {
 1680              		.loc 1 577 0
 1681 0064 013C     		subs	r4, r4, #1
 1682              	.LVL234:
 1683              	.L118:
 575:Generated_Source\PSoC6\pdl\drivers\peripheral\sysclk/cy_sysclk.c ****            (timeoutus != 0ul);
 1684              		.loc 1 575 0
 1685 0066 B223     		movs	r3, #178
 1686 0068 DB00     		lsls	r3, r3, #3
 1687 006a 144A     		ldr	r2, .L125
 1688 006c D358     		ldr	r3, [r2, r3]
 1689 006e DB07     		lsls	r3, r3, #31
 1690 0070 01D4     		bmi	.L119
 575:Generated_Source\PSoC6\pdl\drivers\peripheral\sysclk/cy_sysclk.c ****            (timeoutus != 0ul);
 1691              		.loc 1 575 0 is_stmt 0 discriminator 1
 1692 0072 002C     		cmp	r4, #0
 1693 0074 F3D1     		bne	.L120
 1694              	.L119:
 580:Generated_Source\PSoC6\pdl\drivers\peripheral\sysclk/cy_sysclk.c ****     }
 581:Generated_Source\PSoC6\pdl\drivers\peripheral\sysclk/cy_sysclk.c **** 
 582:Generated_Source\PSoC6\pdl\drivers\peripheral\sysclk/cy_sysclk.c ****     /* If lock doesn't occur, FLL is stopped. */
 583:Generated_Source\PSoC6\pdl\drivers\peripheral\sysclk/cy_sysclk.c ****     if (nonZeroTimeout && (timeoutus == 0ul))
 1695              		.loc 1 583 0 is_stmt 1
 1696 0076 002D     		cmp	r5, #0
 1697 0078 0ED0     		beq	.L121
 1698              		.loc 1 583 0 is_stmt 0 discriminator 1
 1699 007a 002C     		cmp	r4, #0
 1700 007c 0CD1     		bne	.L121
 1701              	.LBB37:
 1702              	.LBB38:
 1703              		.file 2 "Generated_Source\\PSoC6\\pdl\\drivers\\peripheral\\sysclk\\cy_sysclk.h"
   1:Generated_Source\PSoC6\pdl\drivers\peripheral\sysclk/cy_sysclk.h **** /***************************************************************************//**
   2:Generated_Source\PSoC6\pdl\drivers\peripheral\sysclk/cy_sysclk.h **** * \file cy_sysclk.h
   3:Generated_Source\PSoC6\pdl\drivers\peripheral\sysclk/cy_sysclk.h **** * \version 1.10
   4:Generated_Source\PSoC6\pdl\drivers\peripheral\sysclk/cy_sysclk.h **** *
   5:Generated_Source\PSoC6\pdl\drivers\peripheral\sysclk/cy_sysclk.h **** * Provides an API declaration of the sysclk driver.
   6:Generated_Source\PSoC6\pdl\drivers\peripheral\sysclk/cy_sysclk.h **** *
   7:Generated_Source\PSoC6\pdl\drivers\peripheral\sysclk/cy_sysclk.h **** ********************************************************************************
   8:Generated_Source\PSoC6\pdl\drivers\peripheral\sysclk/cy_sysclk.h **** * \copyright
   9:Generated_Source\PSoC6\pdl\drivers\peripheral\sysclk/cy_sysclk.h **** * Copyright 2016-2017, Cypress Semiconductor Corporation. All rights reserved.
  10:Generated_Source\PSoC6\pdl\drivers\peripheral\sysclk/cy_sysclk.h **** * You may use this file only in accordance with the license, terms, conditions,
  11:Generated_Source\PSoC6\pdl\drivers\peripheral\sysclk/cy_sysclk.h **** * disclaimers, and limitations in the end user license agreement accompanying
  12:Generated_Source\PSoC6\pdl\drivers\peripheral\sysclk/cy_sysclk.h **** * the software package with which this file was provided.
  13:Generated_Source\PSoC6\pdl\drivers\peripheral\sysclk/cy_sysclk.h **** *******************************************************************************/
  14:Generated_Source\PSoC6\pdl\drivers\peripheral\sysclk/cy_sysclk.h **** 
  15:Generated_Source\PSoC6\pdl\drivers\peripheral\sysclk/cy_sysclk.h **** /**
  16:Generated_Source\PSoC6\pdl\drivers\peripheral\sysclk/cy_sysclk.h **** * \defgroup group_sysclk System Clock (SysClk)
  17:Generated_Source\PSoC6\pdl\drivers\peripheral\sysclk/cy_sysclk.h **** * \{
  18:Generated_Source\PSoC6\pdl\drivers\peripheral\sysclk/cy_sysclk.h **** * The System Clock (SysClk) driver contains the API for configuring system and
  19:Generated_Source\PSoC6\pdl\drivers\peripheral\sysclk/cy_sysclk.h **** * peripheral clocks. Firmware uses the API to configure , enable, or disable
ARM GAS  C:\Users\kiwamu\AppData\Local\Temp\ccIx7zyv.s 			page 43


  20:Generated_Source\PSoC6\pdl\drivers\peripheral\sysclk/cy_sysclk.h **** * a clock.
  21:Generated_Source\PSoC6\pdl\drivers\peripheral\sysclk/cy_sysclk.h **** * 
  22:Generated_Source\PSoC6\pdl\drivers\peripheral\sysclk/cy_sysclk.h **** * The PSoC 6 clock system includes a variety of resources that can vary per
  23:Generated_Source\PSoC6\pdl\drivers\peripheral\sysclk/cy_sysclk.h **** * device, including:
  24:Generated_Source\PSoC6\pdl\drivers\peripheral\sysclk/cy_sysclk.h **** * - Internal clock sources such as internal oscillators
  25:Generated_Source\PSoC6\pdl\drivers\peripheral\sysclk/cy_sysclk.h **** * - External clock sources such as crystal oscillators or a signal on an I/O pin
  26:Generated_Source\PSoC6\pdl\drivers\peripheral\sysclk/cy_sysclk.h **** * - Generated clocks such as an FLL, a PLL, and peripheral clocks
  27:Generated_Source\PSoC6\pdl\drivers\peripheral\sysclk/cy_sysclk.h **** *
  28:Generated_Source\PSoC6\pdl\drivers\peripheral\sysclk/cy_sysclk.h **** * Consult the Technical Reference Manual for your device for details of the 
  29:Generated_Source\PSoC6\pdl\drivers\peripheral\sysclk/cy_sysclk.h **** * clock system.
  30:Generated_Source\PSoC6\pdl\drivers\peripheral\sysclk/cy_sysclk.h **** *
  31:Generated_Source\PSoC6\pdl\drivers\peripheral\sysclk/cy_sysclk.h **** * The PDL defines clock system capabilities in:\n
  32:Generated_Source\PSoC6\pdl\drivers\peripheral\sysclk/cy_sysclk.h **** * devices\<family\>/<series\>/include\<series\>_config.h. For example\n
  33:Generated_Source\PSoC6\pdl\drivers\peripheral\sysclk/cy_sysclk.h **** * devices/psoc6/psoc63/include/psoc63_config.h. User-configurable clock speeds 
  34:Generated_Source\PSoC6\pdl\drivers\peripheral\sysclk/cy_sysclk.h **** * are defined in the file system_<series>.h.
  35:Generated_Source\PSoC6\pdl\drivers\peripheral\sysclk/cy_sysclk.h **** *
  36:Generated_Source\PSoC6\pdl\drivers\peripheral\sysclk/cy_sysclk.h **** * This diagram represents the PSoC 63 series clock tree. The actual tree
  37:Generated_Source\PSoC6\pdl\drivers\peripheral\sysclk/cy_sysclk.h **** * may vary based on series.
  38:Generated_Source\PSoC6\pdl\drivers\peripheral\sysclk/cy_sysclk.h **** * ![](sysclk_tree.png)
  39:Generated_Source\PSoC6\pdl\drivers\peripheral\sysclk/cy_sysclk.h **** *
  40:Generated_Source\PSoC6\pdl\drivers\peripheral\sysclk/cy_sysclk.h **** * In addition to the clocks shown on the diagram, this driver also supports
  41:Generated_Source\PSoC6\pdl\drivers\peripheral\sysclk/cy_sysclk.h **** * multiple peripheral clocks, as well as the fast clock, slow clock, backup
  42:Generated_Source\PSoC6\pdl\drivers\peripheral\sysclk/cy_sysclk.h **** * domain clock, timer clock, and pump clock. There are also functions for 
  43:Generated_Source\PSoC6\pdl\drivers\peripheral\sysclk/cy_sysclk.h **** * clock measurement and trimming.
  44:Generated_Source\PSoC6\pdl\drivers\peripheral\sysclk/cy_sysclk.h **** *
  45:Generated_Source\PSoC6\pdl\drivers\peripheral\sysclk/cy_sysclk.h **** * The API for any given clock contains the functions to manage that clock. These
  46:Generated_Source\PSoC6\pdl\drivers\peripheral\sysclk/cy_sysclk.h **** * functions may include:
  47:Generated_Source\PSoC6\pdl\drivers\peripheral\sysclk/cy_sysclk.h **** * - Enable or Disable
  48:Generated_Source\PSoC6\pdl\drivers\peripheral\sysclk/cy_sysclk.h **** * - Get or Set Source
  49:Generated_Source\PSoC6\pdl\drivers\peripheral\sysclk/cy_sysclk.h **** * - Get or Set Divider
  50:Generated_Source\PSoC6\pdl\drivers\peripheral\sysclk/cy_sysclk.h **** * - Configure
  51:Generated_Source\PSoC6\pdl\drivers\peripheral\sysclk/cy_sysclk.h **** *
  52:Generated_Source\PSoC6\pdl\drivers\peripheral\sysclk/cy_sysclk.h **** * In the API reference for this driver, most clocks have
  53:Generated_Source\PSoC6\pdl\drivers\peripheral\sysclk/cy_sysclk.h **** * a dedicated section, so the information to manage that clock is in one
  54:Generated_Source\PSoC6\pdl\drivers\peripheral\sysclk/cy_sysclk.h **** * place. Use the left navigation menu to locate the desired information.
  55:Generated_Source\PSoC6\pdl\drivers\peripheral\sysclk/cy_sysclk.h **** *
  56:Generated_Source\PSoC6\pdl\drivers\peripheral\sysclk/cy_sysclk.h **** * \section group_sysclk_configuration Configuration Considerations
  57:Generated_Source\PSoC6\pdl\drivers\peripheral\sysclk/cy_sysclk.h **** * There are no general SysClk configuration concerns. 
  58:Generated_Source\PSoC6\pdl\drivers\peripheral\sysclk/cy_sysclk.h **** * Some clocks (for example the PLL) require configuration. For such a clock the
  59:Generated_Source\PSoC6\pdl\drivers\peripheral\sysclk/cy_sysclk.h **** * API typically provides a Configure function to set up the clock. See notes on
  60:Generated_Source\PSoC6\pdl\drivers\peripheral\sysclk/cy_sysclk.h **** * individual function definitions.
  61:Generated_Source\PSoC6\pdl\drivers\peripheral\sysclk/cy_sysclk.h **** * \warning When the device is in the Ultra-Low Power (ULP) mode, the maximum
  62:Generated_Source\PSoC6\pdl\drivers\peripheral\sysclk/cy_sysclk.h **** * frequency of some clocks is reduced. See the device datasheet for details.
  63:Generated_Source\PSoC6\pdl\drivers\peripheral\sysclk/cy_sysclk.h **** *
  64:Generated_Source\PSoC6\pdl\drivers\peripheral\sysclk/cy_sysclk.h **** *
  65:Generated_Source\PSoC6\pdl\drivers\peripheral\sysclk/cy_sysclk.h **** * \section group_sysclk_more_information More Information
  66:Generated_Source\PSoC6\pdl\drivers\peripheral\sysclk/cy_sysclk.h **** * See the Clock Component datasheet. See also the Clocking System chapter of
  67:Generated_Source\PSoC6\pdl\drivers\peripheral\sysclk/cy_sysclk.h **** * the device technical reference manual (TRM).
  68:Generated_Source\PSoC6\pdl\drivers\peripheral\sysclk/cy_sysclk.h **** *
  69:Generated_Source\PSoC6\pdl\drivers\peripheral\sysclk/cy_sysclk.h **** * \section group_sysclk_MISRA MISRA-C Compliance
  70:Generated_Source\PSoC6\pdl\drivers\peripheral\sysclk/cy_sysclk.h **** * <table class="doxtable">
  71:Generated_Source\PSoC6\pdl\drivers\peripheral\sysclk/cy_sysclk.h **** *   <tr>
  72:Generated_Source\PSoC6\pdl\drivers\peripheral\sysclk/cy_sysclk.h **** *     <th>MISRA Rule</th>
  73:Generated_Source\PSoC6\pdl\drivers\peripheral\sysclk/cy_sysclk.h **** *     <th>Rule Class (Required/Advisory)</th>
  74:Generated_Source\PSoC6\pdl\drivers\peripheral\sysclk/cy_sysclk.h **** *     <th>Rule Description</th>
  75:Generated_Source\PSoC6\pdl\drivers\peripheral\sysclk/cy_sysclk.h **** *     <th>Description of Deviation(s)</th>
  76:Generated_Source\PSoC6\pdl\drivers\peripheral\sysclk/cy_sysclk.h **** *   </tr>
ARM GAS  C:\Users\kiwamu\AppData\Local\Temp\ccIx7zyv.s 			page 44


  77:Generated_Source\PSoC6\pdl\drivers\peripheral\sysclk/cy_sysclk.h **** *   <tr>
  78:Generated_Source\PSoC6\pdl\drivers\peripheral\sysclk/cy_sysclk.h **** *     <td>1.2</td>
  79:Generated_Source\PSoC6\pdl\drivers\peripheral\sysclk/cy_sysclk.h **** *     <td>R</td>
  80:Generated_Source\PSoC6\pdl\drivers\peripheral\sysclk/cy_sysclk.h **** *     <td>No reliance on undefined behavior.</td>
  81:Generated_Source\PSoC6\pdl\drivers\peripheral\sysclk/cy_sysclk.h **** *     <td>Calculation of an absolute value in the FLL and PLL configuration.</td>
  82:Generated_Source\PSoC6\pdl\drivers\peripheral\sysclk/cy_sysclk.h **** *   </tr>
  83:Generated_Source\PSoC6\pdl\drivers\peripheral\sysclk/cy_sysclk.h **** *   <tr>
  84:Generated_Source\PSoC6\pdl\drivers\peripheral\sysclk/cy_sysclk.h **** *     <td>5.6</td>
  85:Generated_Source\PSoC6\pdl\drivers\peripheral\sysclk/cy_sysclk.h **** *     <td>R</td>
  86:Generated_Source\PSoC6\pdl\drivers\peripheral\sysclk/cy_sysclk.h **** *     <td>No identifier in one name space should have the same spelling as an identifier in another
  87:Generated_Source\PSoC6\pdl\drivers\peripheral\sysclk/cy_sysclk.h **** *         exception of structure member and union member names.</td>
  88:Generated_Source\PSoC6\pdl\drivers\peripheral\sysclk/cy_sysclk.h **** *     <td>The "mode" and "retval" are used as a structure/union member they are a label, tag or ord
  89:Generated_Source\PSoC6\pdl\drivers\peripheral\sysclk/cy_sysclk.h **** *         identifier.</td>
  90:Generated_Source\PSoC6\pdl\drivers\peripheral\sysclk/cy_sysclk.h **** *   </tr>
  91:Generated_Source\PSoC6\pdl\drivers\peripheral\sysclk/cy_sysclk.h **** *   <tr>
  92:Generated_Source\PSoC6\pdl\drivers\peripheral\sysclk/cy_sysclk.h **** *     <td>10.1</td>
  93:Generated_Source\PSoC6\pdl\drivers\peripheral\sysclk/cy_sysclk.h **** *     <td>R</td>
  94:Generated_Source\PSoC6\pdl\drivers\peripheral\sysclk/cy_sysclk.h **** *     <td>The value of an expression of integer type shall not be implicitly converted to a differe
  95:Generated_Source\PSoC6\pdl\drivers\peripheral\sysclk/cy_sysclk.h **** *         if the expression is complex.</td>
  96:Generated_Source\PSoC6\pdl\drivers\peripheral\sysclk/cy_sysclk.h **** *     <td>Use of a Cypress defined macro to access memory mapped objects.
  97:Generated_Source\PSoC6\pdl\drivers\peripheral\sysclk/cy_sysclk.h **** *         Use of a Cypress defined macro to divide with rounding.</td>
  98:Generated_Source\PSoC6\pdl\drivers\peripheral\sysclk/cy_sysclk.h **** *   </tr>
  99:Generated_Source\PSoC6\pdl\drivers\peripheral\sysclk/cy_sysclk.h **** *   <tr>
 100:Generated_Source\PSoC6\pdl\drivers\peripheral\sysclk/cy_sysclk.h **** *     <td>10.2</td>
 101:Generated_Source\PSoC6\pdl\drivers\peripheral\sysclk/cy_sysclk.h **** *     <td>R</td>
 102:Generated_Source\PSoC6\pdl\drivers\peripheral\sysclk/cy_sysclk.h **** *     <td>The value of an expression of floating type shall not be implicitly converted to a differ
 103:Generated_Source\PSoC6\pdl\drivers\peripheral\sysclk/cy_sysclk.h **** *         a) it is not a conversion to a wider floating type, or
 104:Generated_Source\PSoC6\pdl\drivers\peripheral\sysclk/cy_sysclk.h **** *         b) the expression is complex, or
 105:Generated_Source\PSoC6\pdl\drivers\peripheral\sysclk/cy_sysclk.h **** *         c) the expression is a function argument, or
 106:Generated_Source\PSoC6\pdl\drivers\peripheral\sysclk/cy_sysclk.h **** *         d) the expression is a return expression.</td>
 107:Generated_Source\PSoC6\pdl\drivers\peripheral\sysclk/cy_sysclk.h **** *     <td>The operands of this relational operator are expressions of different "essential type" ca
 108:Generated_Source\PSoC6\pdl\drivers\peripheral\sysclk/cy_sysclk.h **** *         (enum and unsigned).</td>
 109:Generated_Source\PSoC6\pdl\drivers\peripheral\sysclk/cy_sysclk.h **** *   </tr>
 110:Generated_Source\PSoC6\pdl\drivers\peripheral\sysclk/cy_sysclk.h **** *   <tr>
 111:Generated_Source\PSoC6\pdl\drivers\peripheral\sysclk/cy_sysclk.h **** *     <td>10.3</td>
 112:Generated_Source\PSoC6\pdl\drivers\peripheral\sysclk/cy_sysclk.h **** *     <td>R</td>
 113:Generated_Source\PSoC6\pdl\drivers\peripheral\sysclk/cy_sysclk.h **** *     <td>A composite integer expression is being cast to a wider type.</td>
 114:Generated_Source\PSoC6\pdl\drivers\peripheral\sysclk/cy_sysclk.h **** *     <td>Use of a Cypress defined macro to access memory-mapped objects. Calculating the clock par
 115:Generated_Source\PSoC6\pdl\drivers\peripheral\sysclk/cy_sysclk.h **** *   </tr>
 116:Generated_Source\PSoC6\pdl\drivers\peripheral\sysclk/cy_sysclk.h **** *   <tr>
 117:Generated_Source\PSoC6\pdl\drivers\peripheral\sysclk/cy_sysclk.h **** *     <td>10.4</td>
 118:Generated_Source\PSoC6\pdl\drivers\peripheral\sysclk/cy_sysclk.h **** *     <td>R</td>
 119:Generated_Source\PSoC6\pdl\drivers\peripheral\sysclk/cy_sysclk.h **** *     <td>A composite floating point expression is being cast to double, or unsigned.</td>
 120:Generated_Source\PSoC6\pdl\drivers\peripheral\sysclk/cy_sysclk.h **** *     <td>Use of the C library sqrt() function. Casting a floating-point calculation result to an i
 121:Generated_Source\PSoC6\pdl\drivers\peripheral\sysclk/cy_sysclk.h **** *   </tr>
 122:Generated_Source\PSoC6\pdl\drivers\peripheral\sysclk/cy_sysclk.h **** *   <tr>
 123:Generated_Source\PSoC6\pdl\drivers\peripheral\sysclk/cy_sysclk.h **** *     <td>10.5</td>
 124:Generated_Source\PSoC6\pdl\drivers\peripheral\sysclk/cy_sysclk.h **** *     <td>R</td>
 125:Generated_Source\PSoC6\pdl\drivers\peripheral\sysclk/cy_sysclk.h **** *     <td>The value of an expression of integer type shall not be implicitly converted to a differe
 126:Generated_Source\PSoC6\pdl\drivers\peripheral\sysclk/cy_sysclk.h **** *         if the expression is complex.</td>
 127:Generated_Source\PSoC6\pdl\drivers\peripheral\sysclk/cy_sysclk.h **** *     <td>Use of a Cypress defined macro to access memory-mapped objects.</td>
 128:Generated_Source\PSoC6\pdl\drivers\peripheral\sysclk/cy_sysclk.h **** *   </tr>
 129:Generated_Source\PSoC6\pdl\drivers\peripheral\sysclk/cy_sysclk.h **** *   <tr>
 130:Generated_Source\PSoC6\pdl\drivers\peripheral\sysclk/cy_sysclk.h **** *     <td>12.1</td>
 131:Generated_Source\PSoC6\pdl\drivers\peripheral\sysclk/cy_sysclk.h **** *     <td>A</td>
 132:Generated_Source\PSoC6\pdl\drivers\peripheral\sysclk/cy_sysclk.h **** *     <td>Extra parentheses recommended.</td>
 133:Generated_Source\PSoC6\pdl\drivers\peripheral\sysclk/cy_sysclk.h **** *     <td>Ternary operator uses constants; extra parentheses not needed.</td>
ARM GAS  C:\Users\kiwamu\AppData\Local\Temp\ccIx7zyv.s 			page 45


 134:Generated_Source\PSoC6\pdl\drivers\peripheral\sysclk/cy_sysclk.h **** *   </tr>
 135:Generated_Source\PSoC6\pdl\drivers\peripheral\sysclk/cy_sysclk.h **** *   <tr>
 136:Generated_Source\PSoC6\pdl\drivers\peripheral\sysclk/cy_sysclk.h **** *     <td>12.2</td>
 137:Generated_Source\PSoC6\pdl\drivers\peripheral\sysclk/cy_sysclk.h **** *     <td>A</td>
 138:Generated_Source\PSoC6\pdl\drivers\peripheral\sysclk/cy_sysclk.h **** *     <td>The value of an expression must be the same under any order of evaluation that the standa
 139:Generated_Source\PSoC6\pdl\drivers\peripheral\sysclk/cy_sysclk.h **** *     <td>The "rtnval" is modified more than once between the sequence points - the evaluation orde
 140:Generated_Source\PSoC6\pdl\drivers\peripheral\sysclk/cy_sysclk.h **** *   </tr>
 141:Generated_Source\PSoC6\pdl\drivers\peripheral\sysclk/cy_sysclk.h **** *   <tr>
 142:Generated_Source\PSoC6\pdl\drivers\peripheral\sysclk/cy_sysclk.h **** *     <td>12.4</td>
 143:Generated_Source\PSoC6\pdl\drivers\peripheral\sysclk/cy_sysclk.h **** *     <td>A</td>
 144:Generated_Source\PSoC6\pdl\drivers\peripheral\sysclk/cy_sysclk.h **** *     <td>The right hand operand of a logical && or || operator shall not contain side effects.</td
 145:Generated_Source\PSoC6\pdl\drivers\peripheral\sysclk/cy_sysclk.h **** *     <td>No side effect in this case.</td>
 146:Generated_Source\PSoC6\pdl\drivers\peripheral\sysclk/cy_sysclk.h **** *   </tr>
 147:Generated_Source\PSoC6\pdl\drivers\peripheral\sysclk/cy_sysclk.h **** *   <tr>
 148:Generated_Source\PSoC6\pdl\drivers\peripheral\sysclk/cy_sysclk.h **** *     <td>13.4</td>
 149:Generated_Source\PSoC6\pdl\drivers\peripheral\sysclk/cy_sysclk.h **** *     <td>R</td>
 150:Generated_Source\PSoC6\pdl\drivers\peripheral\sysclk/cy_sysclk.h **** *     <td>The controlling expression of a for statement shall not contain any objects of floating t
 151:Generated_Source\PSoC6\pdl\drivers\peripheral\sysclk/cy_sysclk.h **** *     <td>Scanning through a list of floating point values.</td>
 152:Generated_Source\PSoC6\pdl\drivers\peripheral\sysclk/cy_sysclk.h **** *   </tr>
 153:Generated_Source\PSoC6\pdl\drivers\peripheral\sysclk/cy_sysclk.h **** *   <tr>
 154:Generated_Source\PSoC6\pdl\drivers\peripheral\sysclk/cy_sysclk.h **** *     <td>16.7</td>
 155:Generated_Source\PSoC6\pdl\drivers\peripheral\sysclk/cy_sysclk.h **** *     <td>R</td>
 156:Generated_Source\PSoC6\pdl\drivers\peripheral\sysclk/cy_sysclk.h **** *     <td>The object addressed by the pointer parameter is not modified and so the pointer could be
 157:Generated_Source\PSoC6\pdl\drivers\peripheral\sysclk/cy_sysclk.h **** *         type 'pointer to const'.</td>
 158:Generated_Source\PSoC6\pdl\drivers\peripheral\sysclk/cy_sysclk.h **** *     <td>The callback function for system power management (SysPm) must be of generic callback typ
 159:Generated_Source\PSoC6\pdl\drivers\peripheral\sysclk/cy_sysclk.h **** *         contains non-const pointer parameter.</td>
 160:Generated_Source\PSoC6\pdl\drivers\peripheral\sysclk/cy_sysclk.h **** *   </tr>
 161:Generated_Source\PSoC6\pdl\drivers\peripheral\sysclk/cy_sysclk.h **** *   <tr>
 162:Generated_Source\PSoC6\pdl\drivers\peripheral\sysclk/cy_sysclk.h **** *     <td>18.4</td>
 163:Generated_Source\PSoC6\pdl\drivers\peripheral\sysclk/cy_sysclk.h **** *     <td>R</td>
 164:Generated_Source\PSoC6\pdl\drivers\peripheral\sysclk/cy_sysclk.h **** *     <td>Unions shall not be used.</td>
 165:Generated_Source\PSoC6\pdl\drivers\peripheral\sysclk/cy_sysclk.h **** *     <td>The clock path in \ref Cy_SysClk_PeriphGetFrequency() uses either FLL or PLL.</td>
 166:Generated_Source\PSoC6\pdl\drivers\peripheral\sysclk/cy_sysclk.h **** *   </tr>
 167:Generated_Source\PSoC6\pdl\drivers\peripheral\sysclk/cy_sysclk.h **** *   <tr>
 168:Generated_Source\PSoC6\pdl\drivers\peripheral\sysclk/cy_sysclk.h **** *     <td>19.4</td>
 169:Generated_Source\PSoC6\pdl\drivers\peripheral\sysclk/cy_sysclk.h **** *     <td>R</td>
 170:Generated_Source\PSoC6\pdl\drivers\peripheral\sysclk/cy_sysclk.h **** *     <td>Macros shall only expand to a limited set of constructs.</td>
 171:Generated_Source\PSoC6\pdl\drivers\peripheral\sysclk/cy_sysclk.h **** *     <td>The macro CY_SYSCLK_CLR_SET uses a concatenate operation,
 172:Generated_Source\PSoC6\pdl\drivers\peripheral\sysclk/cy_sysclk.h **** *         so one of the macro parameters cannot be enclosed in parentheses.</td>
 173:Generated_Source\PSoC6\pdl\drivers\peripheral\sysclk/cy_sysclk.h **** *   </tr>
 174:Generated_Source\PSoC6\pdl\drivers\peripheral\sysclk/cy_sysclk.h **** * </table>
 175:Generated_Source\PSoC6\pdl\drivers\peripheral\sysclk/cy_sysclk.h **** *
 176:Generated_Source\PSoC6\pdl\drivers\peripheral\sysclk/cy_sysclk.h **** *
 177:Generated_Source\PSoC6\pdl\drivers\peripheral\sysclk/cy_sysclk.h **** * \section group_sysclk_changelog Changelog
 178:Generated_Source\PSoC6\pdl\drivers\peripheral\sysclk/cy_sysclk.h **** * <table class="doxtable">
 179:Generated_Source\PSoC6\pdl\drivers\peripheral\sysclk/cy_sysclk.h **** *   <tr><th>Version</th><th>Changes</th><th>Reason for Change</th></tr>
 180:Generated_Source\PSoC6\pdl\drivers\peripheral\sysclk/cy_sysclk.h **** *   <tr>
 181:Generated_Source\PSoC6\pdl\drivers\peripheral\sysclk/cy_sysclk.h **** *     <td>1.0</td>
 182:Generated_Source\PSoC6\pdl\drivers\peripheral\sysclk/cy_sysclk.h **** *     <td>Initial version</td>
 183:Generated_Source\PSoC6\pdl\drivers\peripheral\sysclk/cy_sysclk.h **** *     <td></td>
 184:Generated_Source\PSoC6\pdl\drivers\peripheral\sysclk/cy_sysclk.h **** *   </tr>
 185:Generated_Source\PSoC6\pdl\drivers\peripheral\sysclk/cy_sysclk.h **** * </table>
 186:Generated_Source\PSoC6\pdl\drivers\peripheral\sysclk/cy_sysclk.h **** *
 187:Generated_Source\PSoC6\pdl\drivers\peripheral\sysclk/cy_sysclk.h **** * \defgroup group_sysclk_macros           Macros
 188:Generated_Source\PSoC6\pdl\drivers\peripheral\sysclk/cy_sysclk.h **** * \{
 189:Generated_Source\PSoC6\pdl\drivers\peripheral\sysclk/cy_sysclk.h **** * \}
 190:Generated_Source\PSoC6\pdl\drivers\peripheral\sysclk/cy_sysclk.h **** * \defgroup group_sysclk_enums           General Enumerated Types
ARM GAS  C:\Users\kiwamu\AppData\Local\Temp\ccIx7zyv.s 			page 46


 191:Generated_Source\PSoC6\pdl\drivers\peripheral\sysclk/cy_sysclk.h **** * \{
 192:Generated_Source\PSoC6\pdl\drivers\peripheral\sysclk/cy_sysclk.h **** *   \defgroup group_sysclk_returns         Function return values
 193:Generated_Source\PSoC6\pdl\drivers\peripheral\sysclk/cy_sysclk.h **** * \}
 194:Generated_Source\PSoC6\pdl\drivers\peripheral\sysclk/cy_sysclk.h **** * \defgroup group_sysclk_eco             External Crystal Oscillator (ECO)
 195:Generated_Source\PSoC6\pdl\drivers\peripheral\sysclk/cy_sysclk.h **** * \{
 196:Generated_Source\PSoC6\pdl\drivers\peripheral\sysclk/cy_sysclk.h **** *   <p>The PSoC 6 BLE device contains an oscillator to drive an external 
 197:Generated_Source\PSoC6\pdl\drivers\peripheral\sysclk/cy_sysclk.h **** *   crystal. This clock source is built using an oscillator circuit
 198:Generated_Source\PSoC6\pdl\drivers\peripheral\sysclk/cy_sysclk.h **** *   in PSoC. The circuit employs an external crystal that must be populated on
 199:Generated_Source\PSoC6\pdl\drivers\peripheral\sysclk/cy_sysclk.h **** *   the external crystal pins of the PSoC. The ECO can be the source clock for
 200:Generated_Source\PSoC6\pdl\drivers\peripheral\sysclk/cy_sysclk.h **** *   any of the clock paths. See \ref group_sysclk_path_src.</p>
 201:Generated_Source\PSoC6\pdl\drivers\peripheral\sysclk/cy_sysclk.h **** *
 202:Generated_Source\PSoC6\pdl\drivers\peripheral\sysclk/cy_sysclk.h **** *   Use Cy_SysClk_EcoConfigure() to configure the ECO. Pass in the required
 203:Generated_Source\PSoC6\pdl\drivers\peripheral\sysclk/cy_sysclk.h **** *   parameters, there is no configuration structure. Use Cy_SysClk_ClkPathSetSource()
 204:Generated_Source\PSoC6\pdl\drivers\peripheral\sysclk/cy_sysclk.h **** *   to specify the clock path source as \ref CY_SYSCLK_CLKPATH_IN_ECO
 205:Generated_Source\PSoC6\pdl\drivers\peripheral\sysclk/cy_sysclk.h **** *
 206:Generated_Source\PSoC6\pdl\drivers\peripheral\sysclk/cy_sysclk.h **** *   \defgroup group_sysclk_eco_funcs       Functions
 207:Generated_Source\PSoC6\pdl\drivers\peripheral\sysclk/cy_sysclk.h **** * \}
 208:Generated_Source\PSoC6\pdl\drivers\peripheral\sysclk/cy_sysclk.h **** * \defgroup group_sysclk_path_src           Clock Path Source
 209:Generated_Source\PSoC6\pdl\drivers\peripheral\sysclk/cy_sysclk.h **** * \{
 210:Generated_Source\PSoC6\pdl\drivers\peripheral\sysclk/cy_sysclk.h **** *   <p>Use these functions to set or get the source clock for a clock path. A clock
 211:Generated_Source\PSoC6\pdl\drivers\peripheral\sysclk/cy_sysclk.h **** *   path can use the same or a different source clock as any other path. API
 212:Generated_Source\PSoC6\pdl\drivers\peripheral\sysclk/cy_sysclk.h **** *   functions set or get the source.</p>
 213:Generated_Source\PSoC6\pdl\drivers\peripheral\sysclk/cy_sysclk.h **** *
 214:Generated_Source\PSoC6\pdl\drivers\peripheral\sysclk/cy_sysclk.h **** *   <b>Clock path</b>: Path 0 is the FLL; path 1 is the PLL, path 2 is direct
 215:Generated_Source\PSoC6\pdl\drivers\peripheral\sysclk/cy_sysclk.h **** *   to the high-frequency clocks.
 216:Generated_Source\PSoC6\pdl\drivers\peripheral\sysclk/cy_sysclk.h **** *
 217:Generated_Source\PSoC6\pdl\drivers\peripheral\sysclk/cy_sysclk.h **** *   <b>Clock source</b>: Use constants enumerated in \ref cy_en_clkpath_in_sources_t
 218:Generated_Source\PSoC6\pdl\drivers\peripheral\sysclk/cy_sysclk.h **** *   to identify the source clock. The actual available clock paths and sources may 
 219:Generated_Source\PSoC6\pdl\drivers\peripheral\sysclk/cy_sysclk.h **** *   vary from the diagram.
 220:Generated_Source\PSoC6\pdl\drivers\peripheral\sysclk/cy_sysclk.h **** *   ![](sysclk_path_source.png)
 221:Generated_Source\PSoC6\pdl\drivers\peripheral\sysclk/cy_sysclk.h **** *
 222:Generated_Source\PSoC6\pdl\drivers\peripheral\sysclk/cy_sysclk.h **** *   \note The PDL driver cannot configure a clock path to use Digital Signal
 223:Generated_Source\PSoC6\pdl\drivers\peripheral\sysclk/cy_sysclk.h **** *   Interconnect (DSI) outputs as sources. This must be done through DSI
 224:Generated_Source\PSoC6\pdl\drivers\peripheral\sysclk/cy_sysclk.h **** *   configuration in PSoC Creator.
 225:Generated_Source\PSoC6\pdl\drivers\peripheral\sysclk/cy_sysclk.h **** *
 226:Generated_Source\PSoC6\pdl\drivers\peripheral\sysclk/cy_sysclk.h **** *   \defgroup group_sysclk_path_src_funcs     Functions
 227:Generated_Source\PSoC6\pdl\drivers\peripheral\sysclk/cy_sysclk.h **** *   \defgroup group_sysclk_path_src_enums     Enumerated Types
 228:Generated_Source\PSoC6\pdl\drivers\peripheral\sysclk/cy_sysclk.h **** * \}
 229:Generated_Source\PSoC6\pdl\drivers\peripheral\sysclk/cy_sysclk.h **** * \defgroup group_sysclk_fll             Frequency Locked Loop (FLL)
 230:Generated_Source\PSoC6\pdl\drivers\peripheral\sysclk/cy_sysclk.h **** * \{
 231:Generated_Source\PSoC6\pdl\drivers\peripheral\sysclk/cy_sysclk.h **** *   <p>The FLL generates a clock output based on the input frequency. Consult 
 232:Generated_Source\PSoC6\pdl\drivers\peripheral\sysclk/cy_sysclk.h **** *   device-specific documentation for the frequency ranges for your device. 
 233:Generated_Source\PSoC6\pdl\drivers\peripheral\sysclk/cy_sysclk.h **** *   The design makes it possible to use a lower
 234:Generated_Source\PSoC6\pdl\drivers\peripheral\sysclk/cy_sysclk.h **** *   frequency source, such as IMO, to generate higher clock frequencies
 235:Generated_Source\PSoC6\pdl\drivers\peripheral\sysclk/cy_sysclk.h **** *   for the rest of the system.</p>
 236:Generated_Source\PSoC6\pdl\drivers\peripheral\sysclk/cy_sysclk.h **** *
 237:Generated_Source\PSoC6\pdl\drivers\peripheral\sysclk/cy_sysclk.h **** *   The FLL is similar in purpose to a PLL but is not equivalent.
 238:Generated_Source\PSoC6\pdl\drivers\peripheral\sysclk/cy_sysclk.h **** *   - They may have different frequency ranges.
 239:Generated_Source\PSoC6\pdl\drivers\peripheral\sysclk/cy_sysclk.h **** *   - The FLL starts up (locks) faster and consumes less current than the PLL.
 240:Generated_Source\PSoC6\pdl\drivers\peripheral\sysclk/cy_sysclk.h **** *   - The FLL accepts a source clock with lower frequency than PLL, such as the WCO (32 KHz). 
 241:Generated_Source\PSoC6\pdl\drivers\peripheral\sysclk/cy_sysclk.h **** *   - The FLL does not lock phase. It is essentially a counter with a
 242:Generated_Source\PSoC6\pdl\drivers\peripheral\sysclk/cy_sysclk.h **** *   current-controlled oscillator (CCO). The counter counts the number of output
 243:Generated_Source\PSoC6\pdl\drivers\peripheral\sysclk/cy_sysclk.h **** *   clock edges in a reference clock period and adjusts the CCO until the
 244:Generated_Source\PSoC6\pdl\drivers\peripheral\sysclk/cy_sysclk.h **** *   expected ratio is achieved (locked). After initial lock, the CCO is
 245:Generated_Source\PSoC6\pdl\drivers\peripheral\sysclk/cy_sysclk.h **** *   adjusted dynamically to keep the ratio within tolerance. The lock tolerance
 246:Generated_Source\PSoC6\pdl\drivers\peripheral\sysclk/cy_sysclk.h **** *   is user-adjustable.
 247:Generated_Source\PSoC6\pdl\drivers\peripheral\sysclk/cy_sysclk.h **** *   ![](sysclk_fll.png)
ARM GAS  C:\Users\kiwamu\AppData\Local\Temp\ccIx7zyv.s 			page 47


 248:Generated_Source\PSoC6\pdl\drivers\peripheral\sysclk/cy_sysclk.h **** *
 249:Generated_Source\PSoC6\pdl\drivers\peripheral\sysclk/cy_sysclk.h **** *   Firmware configures the FLL using Cy_SysClk_FllConfigure(). Specify the input
 250:Generated_Source\PSoC6\pdl\drivers\peripheral\sysclk/cy_sysclk.h **** *   and output frequencies, and the output mode. See \ref cy_en_fll_pll_output_mode_t
 251:Generated_Source\PSoC6\pdl\drivers\peripheral\sysclk/cy_sysclk.h **** *   for output choices.
 252:Generated_Source\PSoC6\pdl\drivers\peripheral\sysclk/cy_sysclk.h **** *
 253:Generated_Source\PSoC6\pdl\drivers\peripheral\sysclk/cy_sysclk.h **** *   Alternatively, firmware can fill in values for the
 254:Generated_Source\PSoC6\pdl\drivers\peripheral\sysclk/cy_sysclk.h **** *   \ref cy_stc_fll_manual_config_t structure, and call Cy_SysClk_FllManualConfigure().
 255:Generated_Source\PSoC6\pdl\drivers\peripheral\sysclk/cy_sysclk.h **** *   This call provides precise control over the FLL configuration, such as the
 256:Generated_Source\PSoC6\pdl\drivers\peripheral\sysclk/cy_sysclk.h **** *   lock tolerance.
 257:Generated_Source\PSoC6\pdl\drivers\peripheral\sysclk/cy_sysclk.h **** *
 258:Generated_Source\PSoC6\pdl\drivers\peripheral\sysclk/cy_sysclk.h **** * See the Clocking System chapter of the device technical reference manual (TRM).
 259:Generated_Source\PSoC6\pdl\drivers\peripheral\sysclk/cy_sysclk.h **** *
 260:Generated_Source\PSoC6\pdl\drivers\peripheral\sysclk/cy_sysclk.h **** *   \defgroup group_sysclk_fll_funcs       Functions
 261:Generated_Source\PSoC6\pdl\drivers\peripheral\sysclk/cy_sysclk.h **** *   \defgroup group_sysclk_fll_structs     Data Structures
 262:Generated_Source\PSoC6\pdl\drivers\peripheral\sysclk/cy_sysclk.h **** *   \defgroup group_sysclk_fll_enums       Enumerated Types
 263:Generated_Source\PSoC6\pdl\drivers\peripheral\sysclk/cy_sysclk.h **** * \}
 264:Generated_Source\PSoC6\pdl\drivers\peripheral\sysclk/cy_sysclk.h **** * \defgroup group_sysclk_pll             Phase Locked Loop (PLL)
 265:Generated_Source\PSoC6\pdl\drivers\peripheral\sysclk/cy_sysclk.h **** * \{
 266:Generated_Source\PSoC6\pdl\drivers\peripheral\sysclk/cy_sysclk.h **** *   <p>The PLL generates a clock output based on the input frequency. Consult 
 267:Generated_Source\PSoC6\pdl\drivers\peripheral\sysclk/cy_sysclk.h **** *   device-specific documentation for the frequency ranges for your device. The 
 268:Generated_Source\PSoC6\pdl\drivers\peripheral\sysclk/cy_sysclk.h **** *   design makes it possible to use a lower frequency source, such as IMO, to 
 269:Generated_Source\PSoC6\pdl\drivers\peripheral\sysclk/cy_sysclk.h **** *   generate higher clock frequencies for the rest of the system. </p>
 270:Generated_Source\PSoC6\pdl\drivers\peripheral\sysclk/cy_sysclk.h **** *
 271:Generated_Source\PSoC6\pdl\drivers\peripheral\sysclk/cy_sysclk.h **** *   The PLL is similar in purpose to the FLL but is not equivalent.
 272:Generated_Source\PSoC6\pdl\drivers\peripheral\sysclk/cy_sysclk.h **** *   - They may have different frequency ranges.
 273:Generated_Source\PSoC6\pdl\drivers\peripheral\sysclk/cy_sysclk.h **** *   - The PLL starts up more slowly and consumes more current than the FLL.
 274:Generated_Source\PSoC6\pdl\drivers\peripheral\sysclk/cy_sysclk.h **** *   - The PLL requires a higher frequency source clock than PLL. 
 275:Generated_Source\PSoC6\pdl\drivers\peripheral\sysclk/cy_sysclk.h **** *   ![](sysclk_pll.png)
 276:Generated_Source\PSoC6\pdl\drivers\peripheral\sysclk/cy_sysclk.h **** *
 277:Generated_Source\PSoC6\pdl\drivers\peripheral\sysclk/cy_sysclk.h **** *   Firmware can configure the PLL using Cy_SysClk_PllConfigure(). Provide
 278:Generated_Source\PSoC6\pdl\drivers\peripheral\sysclk/cy_sysclk.h **** *   configuration values in a filled \ref cy_stc_pll_config_t structure. See
 279:Generated_Source\PSoC6\pdl\drivers\peripheral\sysclk/cy_sysclk.h **** *   \ref cy_en_fll_pll_output_mode_t for output choices.
 280:Generated_Source\PSoC6\pdl\drivers\peripheral\sysclk/cy_sysclk.h **** *
 281:Generated_Source\PSoC6\pdl\drivers\peripheral\sysclk/cy_sysclk.h **** *   Alternatively, firmware can fill in values for the \ref cy_stc_pll_manual_config_t
 282:Generated_Source\PSoC6\pdl\drivers\peripheral\sysclk/cy_sysclk.h **** *   structure, and call Cy_SysClk_PllManualConfigure().
 283:Generated_Source\PSoC6\pdl\drivers\peripheral\sysclk/cy_sysclk.h **** * 
 284:Generated_Source\PSoC6\pdl\drivers\peripheral\sysclk/cy_sysclk.h **** *   See the Clocking System chapter of the device technical reference manual (TRM).
 285:Generated_Source\PSoC6\pdl\drivers\peripheral\sysclk/cy_sysclk.h **** *
 286:Generated_Source\PSoC6\pdl\drivers\peripheral\sysclk/cy_sysclk.h **** *   \defgroup group_sysclk_pll_funcs       Functions
 287:Generated_Source\PSoC6\pdl\drivers\peripheral\sysclk/cy_sysclk.h **** *   \defgroup group_sysclk_pll_structs     Data Structures
 288:Generated_Source\PSoC6\pdl\drivers\peripheral\sysclk/cy_sysclk.h **** * \}
 289:Generated_Source\PSoC6\pdl\drivers\peripheral\sysclk/cy_sysclk.h **** * \defgroup group_sysclk_ilo             Internal Low-Speed Oscillator (ILO)
 290:Generated_Source\PSoC6\pdl\drivers\peripheral\sysclk/cy_sysclk.h **** * \{
 291:Generated_Source\PSoC6\pdl\drivers\peripheral\sysclk/cy_sysclk.h **** *   <p>The ILO operates with no external components and outputs a stable clock at
 292:Generated_Source\PSoC6\pdl\drivers\peripheral\sysclk/cy_sysclk.h **** *   32.768 kHz nominal. The ILO is relatively low power and low
 293:Generated_Source\PSoC6\pdl\drivers\peripheral\sysclk/cy_sysclk.h **** *   accuracy. The ILO is in the backup domain. It is available in all
 294:Generated_Source\PSoC6\pdl\drivers\peripheral\sysclk/cy_sysclk.h **** *   power modes. The ILO can be used as a source for the \ref group_sysclk_clk_lf.</p>
 295:Generated_Source\PSoC6\pdl\drivers\peripheral\sysclk/cy_sysclk.h **** *   ![](sysclk_backup.png)
 296:Generated_Source\PSoC6\pdl\drivers\peripheral\sysclk/cy_sysclk.h **** *
 297:Generated_Source\PSoC6\pdl\drivers\peripheral\sysclk/cy_sysclk.h **** *   The ILO is always the source clock for the \ref group_wdt. Therefore:
 298:Generated_Source\PSoC6\pdl\drivers\peripheral\sysclk/cy_sysclk.h **** *   - The WDT must be unlocked when making an ILO function call in the PDL
 299:Generated_Source\PSoC6\pdl\drivers\peripheral\sysclk/cy_sysclk.h **** *   - It is recommended to always have the ILO enabled
 300:Generated_Source\PSoC6\pdl\drivers\peripheral\sysclk/cy_sysclk.h **** *
 301:Generated_Source\PSoC6\pdl\drivers\peripheral\sysclk/cy_sysclk.h **** *   API functions enable or disable the clock. To ensure the ILO remains active
 302:Generated_Source\PSoC6\pdl\drivers\peripheral\sysclk/cy_sysclk.h **** *   in Hibernate mode, and across power-on-reset (POR) or brown out detect (BOD),
 303:Generated_Source\PSoC6\pdl\drivers\peripheral\sysclk/cy_sysclk.h **** *   firmware must call Cy_SysClk_IloHibernateOn() and pass in a Boolean TRUE. 
 304:Generated_Source\PSoC6\pdl\drivers\peripheral\sysclk/cy_sysclk.h **** *
ARM GAS  C:\Users\kiwamu\AppData\Local\Temp\ccIx7zyv.s 			page 48


 305:Generated_Source\PSoC6\pdl\drivers\peripheral\sysclk/cy_sysclk.h **** *   This clock can be trimmed. Firmware uses functions described in
 306:Generated_Source\PSoC6\pdl\drivers\peripheral\sysclk/cy_sysclk.h **** *   \ref group_sysclk_calclk to get the current clock frequency before trimming.
 307:Generated_Source\PSoC6\pdl\drivers\peripheral\sysclk/cy_sysclk.h **** *   Then call Cy_SysClk_IloTrim().
 308:Generated_Source\PSoC6\pdl\drivers\peripheral\sysclk/cy_sysclk.h **** *
 309:Generated_Source\PSoC6\pdl\drivers\peripheral\sysclk/cy_sysclk.h **** *   See the Clocking System chapter of the device technical reference manual (TRM).
 310:Generated_Source\PSoC6\pdl\drivers\peripheral\sysclk/cy_sysclk.h **** *
 311:Generated_Source\PSoC6\pdl\drivers\peripheral\sysclk/cy_sysclk.h **** *   \defgroup group_sysclk_ilo_funcs       Functions
 312:Generated_Source\PSoC6\pdl\drivers\peripheral\sysclk/cy_sysclk.h **** * \}
 313:Generated_Source\PSoC6\pdl\drivers\peripheral\sysclk/cy_sysclk.h **** * \defgroup group_sysclk_pilo            Precision Internal Low-Speed Oscillator (PILO)
 314:Generated_Source\PSoC6\pdl\drivers\peripheral\sysclk/cy_sysclk.h **** * \{
 315:Generated_Source\PSoC6\pdl\drivers\peripheral\sysclk/cy_sysclk.h **** *   <p>PILO provides a more accurate 32.768-kHz clock than \ref group_sysclk_ilo "ILO", when 
 316:Generated_Source\PSoC6\pdl\drivers\peripheral\sysclk/cy_sysclk.h **** *   periodically calibrated using a high-accuracy clock such as the
 317:Generated_Source\PSoC6\pdl\drivers\peripheral\sysclk/cy_sysclk.h **** *   \ref group_sysclk_eco "ECO". PILO works in Deep-Sleep and higher power
 318:Generated_Source\PSoC6\pdl\drivers\peripheral\sysclk/cy_sysclk.h **** *   modes. It is not available in Hibernate mode.</p>
 319:Generated_Source\PSoC6\pdl\drivers\peripheral\sysclk/cy_sysclk.h **** *
 320:Generated_Source\PSoC6\pdl\drivers\peripheral\sysclk/cy_sysclk.h **** *   The PILO can be used as a source for the \ref group_sysclk_clk_lf. However,
 321:Generated_Source\PSoC6\pdl\drivers\peripheral\sysclk/cy_sysclk.h **** *   because PILO is disabled in Hibernate mode, RTC timers and counters can be
 322:Generated_Source\PSoC6\pdl\drivers\peripheral\sysclk/cy_sysclk.h **** *   corrupted. If this is unacceptable, use \ref group_sysclk_ilo "ILO" or
 323:Generated_Source\PSoC6\pdl\drivers\peripheral\sysclk/cy_sysclk.h **** *   \ref group_sysclk_wco "WCO" as the source clock for
 324:Generated_Source\PSoC6\pdl\drivers\peripheral\sysclk/cy_sysclk.h **** *   the low-frequency clock. 
 325:Generated_Source\PSoC6\pdl\drivers\peripheral\sysclk/cy_sysclk.h **** *
 326:Generated_Source\PSoC6\pdl\drivers\peripheral\sysclk/cy_sysclk.h **** *   ![](sysclk_backup.png)
 327:Generated_Source\PSoC6\pdl\drivers\peripheral\sysclk/cy_sysclk.h **** *
 328:Generated_Source\PSoC6\pdl\drivers\peripheral\sysclk/cy_sysclk.h **** *   Periodic calibration to a high-accuracy clock (such as ECO) is required to
 329:Generated_Source\PSoC6\pdl\drivers\peripheral\sysclk/cy_sysclk.h **** *   maintain accuracy. Firmware uses functions described in Clock Measurement
 330:Generated_Source\PSoC6\pdl\drivers\peripheral\sysclk/cy_sysclk.h **** *   to get the current PILO frequency before trimming. Then use Cy_SysClk_PiloTrim().
 331:Generated_Source\PSoC6\pdl\drivers\peripheral\sysclk/cy_sysclk.h **** *
 332:Generated_Source\PSoC6\pdl\drivers\peripheral\sysclk/cy_sysclk.h **** *   See the Clocking System chapter of the device technical reference manual (TRM).
 333:Generated_Source\PSoC6\pdl\drivers\peripheral\sysclk/cy_sysclk.h **** *
 334:Generated_Source\PSoC6\pdl\drivers\peripheral\sysclk/cy_sysclk.h **** *   \defgroup group_sysclk_pilo_funcs      Functions
 335:Generated_Source\PSoC6\pdl\drivers\peripheral\sysclk/cy_sysclk.h **** * \}
 336:Generated_Source\PSoC6\pdl\drivers\peripheral\sysclk/cy_sysclk.h **** * \defgroup group_sysclk_calclk          Clock Measurement
 337:Generated_Source\PSoC6\pdl\drivers\peripheral\sysclk/cy_sysclk.h **** * \{
 338:Generated_Source\PSoC6\pdl\drivers\peripheral\sysclk/cy_sysclk.h **** *   <p>These functions measure the frequency of a specified clock relative to a
 339:Generated_Source\PSoC6\pdl\drivers\peripheral\sysclk/cy_sysclk.h **** *   reference clock. They are typically called in the following order:</p>
 340:Generated_Source\PSoC6\pdl\drivers\peripheral\sysclk/cy_sysclk.h **** *   1. Specify the measured clock, the count, and the reference clock; then start the counters:
 341:Generated_Source\PSoC6\pdl\drivers\peripheral\sysclk/cy_sysclk.h **** *   Cy_SysClk_StartClkMeasurementCounters();
 342:Generated_Source\PSoC6\pdl\drivers\peripheral\sysclk/cy_sysclk.h **** *   2. Wait for the measurement counter to finish counting:
 343:Generated_Source\PSoC6\pdl\drivers\peripheral\sysclk/cy_sysclk.h **** *   while(Cy_SysClk_ClkMeasurementCountersDone() != CY_RET_FINISHED);
 344:Generated_Source\PSoC6\pdl\drivers\peripheral\sysclk/cy_sysclk.h **** *   3. Get the measured frequency:<br>
 345:Generated_Source\PSoC6\pdl\drivers\peripheral\sysclk/cy_sysclk.h **** *   freq_measure = Cy_SysClk_ClkMeasurementCountersGetFreq();
 346:Generated_Source\PSoC6\pdl\drivers\peripheral\sysclk/cy_sysclk.h **** *
 347:Generated_Source\PSoC6\pdl\drivers\peripheral\sysclk/cy_sysclk.h **** *   \note These functions may also be used as part of a clock trimming
 348:Generated_Source\PSoC6\pdl\drivers\peripheral\sysclk/cy_sysclk.h **** *   process - see the \ref group_sysclk_trim "Clock Trim" section.
 349:Generated_Source\PSoC6\pdl\drivers\peripheral\sysclk/cy_sysclk.h **** *
 350:Generated_Source\PSoC6\pdl\drivers\peripheral\sysclk/cy_sysclk.h **** *   See the Clocking System chapter of the device technical reference manual (TRM).
 351:Generated_Source\PSoC6\pdl\drivers\peripheral\sysclk/cy_sysclk.h **** *
 352:Generated_Source\PSoC6\pdl\drivers\peripheral\sysclk/cy_sysclk.h **** *   \defgroup group_sysclk_calclk_funcs    Functions
 353:Generated_Source\PSoC6\pdl\drivers\peripheral\sysclk/cy_sysclk.h **** *   \defgroup group_sysclk_calclk_enums    Enumerated Types
 354:Generated_Source\PSoC6\pdl\drivers\peripheral\sysclk/cy_sysclk.h **** * \}
 355:Generated_Source\PSoC6\pdl\drivers\peripheral\sysclk/cy_sysclk.h **** * \defgroup group_sysclk_trim            Clock Trim (ILO, PILO)
 356:Generated_Source\PSoC6\pdl\drivers\peripheral\sysclk/cy_sysclk.h **** * \{
 357:Generated_Source\PSoC6\pdl\drivers\peripheral\sysclk/cy_sysclk.h **** *   <p>These functions perform a single trim operation on the ILO or PILO. Each
 358:Generated_Source\PSoC6\pdl\drivers\peripheral\sysclk/cy_sysclk.h **** *   function's parameter is the actual frequency of the clock. To measure the
 359:Generated_Source\PSoC6\pdl\drivers\peripheral\sysclk/cy_sysclk.h **** *   frequency, use the functions described in the \ref group_sysclk_calclk section.</p>
 360:Generated_Source\PSoC6\pdl\drivers\peripheral\sysclk/cy_sysclk.h **** *
 361:Generated_Source\PSoC6\pdl\drivers\peripheral\sysclk/cy_sysclk.h **** *   To trim the clock as close as possible to the target frequency, multiple
ARM GAS  C:\Users\kiwamu\AppData\Local\Temp\ccIx7zyv.s 			page 49


 362:Generated_Source\PSoC6\pdl\drivers\peripheral\sysclk/cy_sysclk.h **** *   calls to the trim function may be needed. A typical usage example is to:
 363:Generated_Source\PSoC6\pdl\drivers\peripheral\sysclk/cy_sysclk.h **** *   1. Call the clock measurement functions to get the actual frequency of the clock
 364:Generated_Source\PSoC6\pdl\drivers\peripheral\sysclk/cy_sysclk.h **** *   2. Call the trim function, passing in the measured frequency:
 365:Generated_Source\PSoC6\pdl\drivers\peripheral\sysclk/cy_sysclk.h **** *   Cy_SysClk_IloTrim() or Cy_SysClk_PiloTrim()
 366:Generated_Source\PSoC6\pdl\drivers\peripheral\sysclk/cy_sysclk.h **** *   3. Repeat the above until the trim function reports trimming is done.
 367:Generated_Source\PSoC6\pdl\drivers\peripheral\sysclk/cy_sysclk.h **** *
 368:Generated_Source\PSoC6\pdl\drivers\peripheral\sysclk/cy_sysclk.h **** *   See the Clocking System chapter of the device technical reference manual (TRM).
 369:Generated_Source\PSoC6\pdl\drivers\peripheral\sysclk/cy_sysclk.h **** *
 370:Generated_Source\PSoC6\pdl\drivers\peripheral\sysclk/cy_sysclk.h **** *   \defgroup group_sysclk_trim_funcs      Functions
 371:Generated_Source\PSoC6\pdl\drivers\peripheral\sysclk/cy_sysclk.h **** * \}
 372:Generated_Source\PSoC6\pdl\drivers\peripheral\sysclk/cy_sysclk.h **** * \defgroup group_sysclk_pm              Power Management
 373:Generated_Source\PSoC6\pdl\drivers\peripheral\sysclk/cy_sysclk.h **** * \{
 374:Generated_Source\PSoC6\pdl\drivers\peripheral\sysclk/cy_sysclk.h **** *   The PDL provides a callback function that firmware can use to handle
 375:Generated_Source\PSoC6\pdl\drivers\peripheral\sysclk/cy_sysclk.h **** *   transition to DeepSleep mode: Cy_SysClk_DeepSleepCallback().
 376:Generated_Source\PSoC6\pdl\drivers\peripheral\sysclk/cy_sysclk.h **** *   
 377:Generated_Source\PSoC6\pdl\drivers\peripheral\sysclk/cy_sysclk.h **** *   Firmware can configure the system to call this function during execution of
 378:Generated_Source\PSoC6\pdl\drivers\peripheral\sysclk/cy_sysclk.h **** *   Cy_SysPm_DeepSleep(). To do so, register this function as a callback before
 379:Generated_Source\PSoC6\pdl\drivers\peripheral\sysclk/cy_sysclk.h **** *   calling Cy_SysPm_DeepSleep(). Specify \ref CY_SYSPM_DEEPSLEEP as the callback type,
 380:Generated_Source\PSoC6\pdl\drivers\peripheral\sysclk/cy_sysclk.h **** *   and call Cy_SysPm_RegisterCallback().
 381:Generated_Source\PSoC6\pdl\drivers\peripheral\sysclk/cy_sysclk.h **** *   
 382:Generated_Source\PSoC6\pdl\drivers\peripheral\sysclk/cy_sysclk.h **** *   \note If the FLL or PLL source is the ECO, this function must be registered,
 383:Generated_Source\PSoC6\pdl\drivers\peripheral\sysclk/cy_sysclk.h **** *   and it must be the last callback function that is registered.
 384:Generated_Source\PSoC6\pdl\drivers\peripheral\sysclk/cy_sysclk.h **** *   
 385:Generated_Source\PSoC6\pdl\drivers\peripheral\sysclk/cy_sysclk.h **** *   See the Clocking System chapter of the device technical reference manual (TRM).
 386:Generated_Source\PSoC6\pdl\drivers\peripheral\sysclk/cy_sysclk.h **** *
 387:Generated_Source\PSoC6\pdl\drivers\peripheral\sysclk/cy_sysclk.h **** *   \defgroup group_sysclk_pm_funcs        Functions
 388:Generated_Source\PSoC6\pdl\drivers\peripheral\sysclk/cy_sysclk.h **** * \}
 389:Generated_Source\PSoC6\pdl\drivers\peripheral\sysclk/cy_sysclk.h **** * \defgroup group_sysclk_wco             Watch Crystal Oscillator (WCO)
 390:Generated_Source\PSoC6\pdl\drivers\peripheral\sysclk/cy_sysclk.h **** * \{
 391:Generated_Source\PSoC6\pdl\drivers\peripheral\sysclk/cy_sysclk.h **** *   <p>The WCO is a highly accurate 32.768-kHz clock source. It is the primary
 392:Generated_Source\PSoC6\pdl\drivers\peripheral\sysclk/cy_sysclk.h **** *   clock source for the real-time clock (RTC). The WCO can be used as a
 393:Generated_Source\PSoC6\pdl\drivers\peripheral\sysclk/cy_sysclk.h **** *   source for the low-frequency clock. A design can bypass the WCO. If so,
 394:Generated_Source\PSoC6\pdl\drivers\peripheral\sysclk/cy_sysclk.h **** *   an external 32 KHz clock must be provided on the WCO_OUT pin.</p>
 395:Generated_Source\PSoC6\pdl\drivers\peripheral\sysclk/cy_sysclk.h **** *
 396:Generated_Source\PSoC6\pdl\drivers\peripheral\sysclk/cy_sysclk.h **** *   ![](sysclk_backup.png)
 397:Generated_Source\PSoC6\pdl\drivers\peripheral\sysclk/cy_sysclk.h **** *
 398:Generated_Source\PSoC6\pdl\drivers\peripheral\sysclk/cy_sysclk.h **** *   The WCO has a built-in clock supervisor (CSV). The supervisor detects if
 399:Generated_Source\PSoC6\pdl\drivers\peripheral\sysclk/cy_sysclk.h **** *   the WCO has been lost; that is, the WCO is no longer producing clock
 400:Generated_Source\PSoC6\pdl\drivers\peripheral\sysclk/cy_sysclk.h **** *   pulses. The CSV does this by checking to ensure there is at least one WCO
 401:Generated_Source\PSoC6\pdl\drivers\peripheral\sysclk/cy_sysclk.h **** *   clock pulse within a certain time window. The ILO or PILO can be the
 402:Generated_Source\PSoC6\pdl\drivers\peripheral\sysclk/cy_sysclk.h **** *   supervising clock. Firmware can configure the CSV to trigger a fault,
 403:Generated_Source\PSoC6\pdl\drivers\peripheral\sysclk/cy_sysclk.h **** *   a reset, or a fault after four cycles of the supervising clock.
 404:Generated_Source\PSoC6\pdl\drivers\peripheral\sysclk/cy_sysclk.h **** *
 405:Generated_Source\PSoC6\pdl\drivers\peripheral\sysclk/cy_sysclk.h **** *   To configure the CSV, fill in the values of a \ref cy_stc_wco_csv_config_t
 406:Generated_Source\PSoC6\pdl\drivers\peripheral\sysclk/cy_sysclk.h **** *   structure and call Cy_SysClk_WcoConfigureCsv(). This structure specifies
 407:Generated_Source\PSoC6\pdl\drivers\peripheral\sysclk/cy_sysclk.h **** *   the supervising clock, that the CSV is enabled, the time window, and the
 408:Generated_Source\PSoC6\pdl\drivers\peripheral\sysclk/cy_sysclk.h **** *   action on error.
 409:Generated_Source\PSoC6\pdl\drivers\peripheral\sysclk/cy_sysclk.h **** *
 410:Generated_Source\PSoC6\pdl\drivers\peripheral\sysclk/cy_sysclk.h **** *   See the Clocking System chapter of the device technical reference manual (TRM).
 411:Generated_Source\PSoC6\pdl\drivers\peripheral\sysclk/cy_sysclk.h **** *
 412:Generated_Source\PSoC6\pdl\drivers\peripheral\sysclk/cy_sysclk.h **** *   \defgroup group_sysclk_wco_funcs       Functions
 413:Generated_Source\PSoC6\pdl\drivers\peripheral\sysclk/cy_sysclk.h **** *   \defgroup group_sysclk_wco_structs     Data Structures
 414:Generated_Source\PSoC6\pdl\drivers\peripheral\sysclk/cy_sysclk.h **** *   \defgroup group_sysclk_wco_enums       Enumerated Types
 415:Generated_Source\PSoC6\pdl\drivers\peripheral\sysclk/cy_sysclk.h **** * \}
 416:Generated_Source\PSoC6\pdl\drivers\peripheral\sysclk/cy_sysclk.h **** * \defgroup group_sysclk_clk_hf          High-Frequency Clocks
 417:Generated_Source\PSoC6\pdl\drivers\peripheral\sysclk/cy_sysclk.h **** * \{
 418:Generated_Source\PSoC6\pdl\drivers\peripheral\sysclk/cy_sysclk.h **** *   <p>PSoC 6 has five high-frequency root clocks. Each CLK_HF has a particular
ARM GAS  C:\Users\kiwamu\AppData\Local\Temp\ccIx7zyv.s 			page 50


 419:Generated_Source\PSoC6\pdl\drivers\peripheral\sysclk/cy_sysclk.h **** *   destination on the device.</p>
 420:Generated_Source\PSoC6\pdl\drivers\peripheral\sysclk/cy_sysclk.h **** *
 421:Generated_Source\PSoC6\pdl\drivers\peripheral\sysclk/cy_sysclk.h **** *   |Name     |Description                                             |
 422:Generated_Source\PSoC6\pdl\drivers\peripheral\sysclk/cy_sysclk.h **** *   |:--------|:-------------------------------------------------------|
 423:Generated_Source\PSoC6\pdl\drivers\peripheral\sysclk/cy_sysclk.h **** *   |CLK_HF[0]| Root clock for both CPUs, PERI, and AHB infrastructure |
 424:Generated_Source\PSoC6\pdl\drivers\peripheral\sysclk/cy_sysclk.h **** *   |CLK_HF[1]| Root clock for the PDM/PCM and I2S audio subsystem     |
 425:Generated_Source\PSoC6\pdl\drivers\peripheral\sysclk/cy_sysclk.h **** *   |CLK_HF[2]| Root clock for the Serial Memory Interface subsystem   |
 426:Generated_Source\PSoC6\pdl\drivers\peripheral\sysclk/cy_sysclk.h **** *   |CLK_HF[3]| Root clock for USB communications                      |
 427:Generated_Source\PSoC6\pdl\drivers\peripheral\sysclk/cy_sysclk.h **** *   |CLK_HF[4]| Clock output on clk_ext pin (when used as an output)   |
 428:Generated_Source\PSoC6\pdl\drivers\peripheral\sysclk/cy_sysclk.h **** *
 429:Generated_Source\PSoC6\pdl\drivers\peripheral\sysclk/cy_sysclk.h **** *   ![](sysclk_hf.png)
 430:Generated_Source\PSoC6\pdl\drivers\peripheral\sysclk/cy_sysclk.h **** *
 431:Generated_Source\PSoC6\pdl\drivers\peripheral\sysclk/cy_sysclk.h **** *   Each root clock has a clock supervisor (CSV) that can detect frequency loss,
 432:Generated_Source\PSoC6\pdl\drivers\peripheral\sysclk/cy_sysclk.h **** *   or monitor that the clock frequency stays within a specified range. The
 433:Generated_Source\PSoC6\pdl\drivers\peripheral\sysclk/cy_sysclk.h **** *   possible supervising clocks are IMO, the external clock, or ALTHF. Loss
 434:Generated_Source\PSoC6\pdl\drivers\peripheral\sysclk/cy_sysclk.h **** *   detection and frequency monitoring can be enabled or disabled
 435:Generated_Source\PSoC6\pdl\drivers\peripheral\sysclk/cy_sysclk.h **** *   independently. Each has its own programmable action that occurs on
 436:Generated_Source\PSoC6\pdl\drivers\peripheral\sysclk/cy_sysclk.h **** *   detection of an error.
 437:Generated_Source\PSoC6\pdl\drivers\peripheral\sysclk/cy_sysclk.h **** *   
 438:Generated_Source\PSoC6\pdl\drivers\peripheral\sysclk/cy_sysclk.h **** *   To configure the CSV, fill in the values of a \ref cy_stc_clkhf_csv_config_t
 439:Generated_Source\PSoC6\pdl\drivers\peripheral\sysclk/cy_sysclk.h **** *   structure and call Cy_SysClk_ClkHfConfigureCsv(). This structure specifies
 440:Generated_Source\PSoC6\pdl\drivers\peripheral\sysclk/cy_sysclk.h **** *   the supervising clock, the action on error, the frequency range to
 441:Generated_Source\PSoC6\pdl\drivers\peripheral\sysclk/cy_sysclk.h **** *   monitor, and other configuration options.
 442:Generated_Source\PSoC6\pdl\drivers\peripheral\sysclk/cy_sysclk.h **** *   
 443:Generated_Source\PSoC6\pdl\drivers\peripheral\sysclk/cy_sysclk.h **** *   API functions enable or disable, set or get the clock source, set or get the
 444:Generated_Source\PSoC6\pdl\drivers\peripheral\sysclk/cy_sysclk.h **** *   clock divider. 
 445:Generated_Source\PSoC6\pdl\drivers\peripheral\sysclk/cy_sysclk.h **** *   
 446:Generated_Source\PSoC6\pdl\drivers\peripheral\sysclk/cy_sysclk.h **** *   Note that CLK_HF[0] cannot be disabled. This divided clock drives the CM4,
 447:Generated_Source\PSoC6\pdl\drivers\peripheral\sysclk/cy_sysclk.h **** *   the CM0+, and the peripherals in the system.
 448:Generated_Source\PSoC6\pdl\drivers\peripheral\sysclk/cy_sysclk.h **** *
 449:Generated_Source\PSoC6\pdl\drivers\peripheral\sysclk/cy_sysclk.h **** *   ![](sysclk_hf_dist.png)
 450:Generated_Source\PSoC6\pdl\drivers\peripheral\sysclk/cy_sysclk.h **** *
 451:Generated_Source\PSoC6\pdl\drivers\peripheral\sysclk/cy_sysclk.h **** *   See the Clocking System chapter of the device technical reference manual (TRM).
 452:Generated_Source\PSoC6\pdl\drivers\peripheral\sysclk/cy_sysclk.h **** *
 453:Generated_Source\PSoC6\pdl\drivers\peripheral\sysclk/cy_sysclk.h **** *   \defgroup group_sysclk_clk_hf_funcs    Functions
 454:Generated_Source\PSoC6\pdl\drivers\peripheral\sysclk/cy_sysclk.h **** *   \defgroup group_sysclk_clk_hf_structs  Data Structures
 455:Generated_Source\PSoC6\pdl\drivers\peripheral\sysclk/cy_sysclk.h **** *   \defgroup group_sysclk_clk_hf_enums    Enumerated Types
 456:Generated_Source\PSoC6\pdl\drivers\peripheral\sysclk/cy_sysclk.h **** * \}
 457:Generated_Source\PSoC6\pdl\drivers\peripheral\sysclk/cy_sysclk.h **** * \defgroup group_sysclk_clk_fast        Fast Clock
 458:Generated_Source\PSoC6\pdl\drivers\peripheral\sysclk/cy_sysclk.h **** * \{
 459:Generated_Source\PSoC6\pdl\drivers\peripheral\sysclk/cy_sysclk.h **** *   <p>The fast clock drives the Cortex-M4 processor. This clock is a divided
 460:Generated_Source\PSoC6\pdl\drivers\peripheral\sysclk/cy_sysclk.h **** *   version of CLK_HF[0]. See \ref group_sysclk_clk_hf "HF Clocks".
 461:Generated_Source\PSoC6\pdl\drivers\peripheral\sysclk/cy_sysclk.h **** *
 462:Generated_Source\PSoC6\pdl\drivers\peripheral\sysclk/cy_sysclk.h **** *   The API functions for this clock set or get the divider.
 463:Generated_Source\PSoC6\pdl\drivers\peripheral\sysclk/cy_sysclk.h **** *
 464:Generated_Source\PSoC6\pdl\drivers\peripheral\sysclk/cy_sysclk.h **** *   ![](sysclk_fast.png)
 465:Generated_Source\PSoC6\pdl\drivers\peripheral\sysclk/cy_sysclk.h **** *
 466:Generated_Source\PSoC6\pdl\drivers\peripheral\sysclk/cy_sysclk.h **** *   See the Clocking System chapter of the device technical reference manual (TRM).
 467:Generated_Source\PSoC6\pdl\drivers\peripheral\sysclk/cy_sysclk.h **** *
 468:Generated_Source\PSoC6\pdl\drivers\peripheral\sysclk/cy_sysclk.h **** *   \defgroup group_sysclk_clk_fast_funcs  Functions
 469:Generated_Source\PSoC6\pdl\drivers\peripheral\sysclk/cy_sysclk.h **** * \}
 470:Generated_Source\PSoC6\pdl\drivers\peripheral\sysclk/cy_sysclk.h **** * \defgroup group_sysclk_clk_peri        Peripheral Clock
 471:Generated_Source\PSoC6\pdl\drivers\peripheral\sysclk/cy_sysclk.h **** * \{
 472:Generated_Source\PSoC6\pdl\drivers\peripheral\sysclk/cy_sysclk.h **** *   <p>The peripheral clock is a divided clock of CLK_HF0. See
 473:Generated_Source\PSoC6\pdl\drivers\peripheral\sysclk/cy_sysclk.h **** *   \ref group_sysclk_clk_hf "HF Clocks". It is the source clock for the
 474:Generated_Source\PSoC6\pdl\drivers\peripheral\sysclk/cy_sysclk.h **** *   \ref group_sysclk_clk_slow, and multiple peripheral clocks. See
 475:Generated_Source\PSoC6\pdl\drivers\peripheral\sysclk/cy_sysclk.h **** *   \ref group_sysclk_clk_peripheral.</p>
ARM GAS  C:\Users\kiwamu\AppData\Local\Temp\ccIx7zyv.s 			page 51


 476:Generated_Source\PSoC6\pdl\drivers\peripheral\sysclk/cy_sysclk.h **** *
 477:Generated_Source\PSoC6\pdl\drivers\peripheral\sysclk/cy_sysclk.h **** *   The API functions for this clock set or get the divider. 
 478:Generated_Source\PSoC6\pdl\drivers\peripheral\sysclk/cy_sysclk.h **** *
 479:Generated_Source\PSoC6\pdl\drivers\peripheral\sysclk/cy_sysclk.h **** *   ![](sysclk_peri.png)
 480:Generated_Source\PSoC6\pdl\drivers\peripheral\sysclk/cy_sysclk.h **** *
 481:Generated_Source\PSoC6\pdl\drivers\peripheral\sysclk/cy_sysclk.h **** *   See the Clocking System chapter of the device technical reference manual (TRM).
 482:Generated_Source\PSoC6\pdl\drivers\peripheral\sysclk/cy_sysclk.h **** *
 483:Generated_Source\PSoC6\pdl\drivers\peripheral\sysclk/cy_sysclk.h **** *   \defgroup group_sysclk_clk_peri_funcs  Functions
 484:Generated_Source\PSoC6\pdl\drivers\peripheral\sysclk/cy_sysclk.h **** * \}
 485:Generated_Source\PSoC6\pdl\drivers\peripheral\sysclk/cy_sysclk.h **** * \defgroup group_sysclk_clk_peripheral  Peripherals Clock Dividers
 486:Generated_Source\PSoC6\pdl\drivers\peripheral\sysclk/cy_sysclk.h **** * \{
 487:Generated_Source\PSoC6\pdl\drivers\peripheral\sysclk/cy_sysclk.h **** *   <p>There are multiple peripheral clock dividers that, in effect, create 
 488:Generated_Source\PSoC6\pdl\drivers\peripheral\sysclk/cy_sysclk.h **** *   multiple separate peripheral clocks. The available dividers vary per device 
 489:Generated_Source\PSoC6\pdl\drivers\peripheral\sysclk/cy_sysclk.h **** *   series. As an example, for the PSoC 63 series there are 29 dividers:</p>
 490:Generated_Source\PSoC6\pdl\drivers\peripheral\sysclk/cy_sysclk.h **** *   - eight 8-bit dividers
 491:Generated_Source\PSoC6\pdl\drivers\peripheral\sysclk/cy_sysclk.h **** *   - sixteen 16-bit dividers
 492:Generated_Source\PSoC6\pdl\drivers\peripheral\sysclk/cy_sysclk.h **** *   - four fractional 16.5-bit dividers (16 integer bits, 5 fractional bits)
 493:Generated_Source\PSoC6\pdl\drivers\peripheral\sysclk/cy_sysclk.h **** *   - one fractional 24.5-bit divider (24 integer bits, 5 fractional bits)
 494:Generated_Source\PSoC6\pdl\drivers\peripheral\sysclk/cy_sysclk.h **** *
 495:Generated_Source\PSoC6\pdl\drivers\peripheral\sysclk/cy_sysclk.h **** *   The five fractional bits supports further precision in 1/32nd increments. For
 496:Generated_Source\PSoC6\pdl\drivers\peripheral\sysclk/cy_sysclk.h **** *   example, a divider with an integer value of 3 and a fractional value of
 497:Generated_Source\PSoC6\pdl\drivers\peripheral\sysclk/cy_sysclk.h **** *   4 (4/32) results in a divider of 3.125. Fractional dividers are useful when
 498:Generated_Source\PSoC6\pdl\drivers\peripheral\sysclk/cy_sysclk.h **** *   a high-precision clock is required, for example, for a UART/SPI serial
 499:Generated_Source\PSoC6\pdl\drivers\peripheral\sysclk/cy_sysclk.h **** *   interface.
 500:Generated_Source\PSoC6\pdl\drivers\peripheral\sysclk/cy_sysclk.h **** *
 501:Generated_Source\PSoC6\pdl\drivers\peripheral\sysclk/cy_sysclk.h **** *   ![](sysclk_peri_divs.png)
 502:Generated_Source\PSoC6\pdl\drivers\peripheral\sysclk/cy_sysclk.h **** *
 503:Generated_Source\PSoC6\pdl\drivers\peripheral\sysclk/cy_sysclk.h **** *   Each peripheral can connect to any one of the programmable dividers. A
 504:Generated_Source\PSoC6\pdl\drivers\peripheral\sysclk/cy_sysclk.h **** *   particular peripheral clock divider can drive multiple peripherals.
 505:Generated_Source\PSoC6\pdl\drivers\peripheral\sysclk/cy_sysclk.h **** *   
 506:Generated_Source\PSoC6\pdl\drivers\peripheral\sysclk/cy_sysclk.h **** *   API functions set (Cy_SysClk_PeriphAssignDivider()) or get
 507:Generated_Source\PSoC6\pdl\drivers\peripheral\sysclk/cy_sysclk.h **** *   (Cy_SysClk_PeriphGetAssignedDivider()) the divider assigned to a peripheral. 
 508:Generated_Source\PSoC6\pdl\drivers\peripheral\sysclk/cy_sysclk.h **** *   
 509:Generated_Source\PSoC6\pdl\drivers\peripheral\sysclk/cy_sysclk.h **** *   Other API functions set or get the actual divider value, set or get a
 510:Generated_Source\PSoC6\pdl\drivers\peripheral\sysclk/cy_sysclk.h **** *   fractional divider, and enable or disable a divider.
 511:Generated_Source\PSoC6\pdl\drivers\peripheral\sysclk/cy_sysclk.h **** *   
 512:Generated_Source\PSoC6\pdl\drivers\peripheral\sysclk/cy_sysclk.h **** *   The driver supports phase aligning two peripheral clock dividers with
 513:Generated_Source\PSoC6\pdl\drivers\peripheral\sysclk/cy_sysclk.h **** *   Cy_SysClk_PeriphEnablePhaseAlignDivider(). Alignment works for both integer
 514:Generated_Source\PSoC6\pdl\drivers\peripheral\sysclk/cy_sysclk.h **** *   and fractional dividers. The divider to which a second divider is aligned
 515:Generated_Source\PSoC6\pdl\drivers\peripheral\sysclk/cy_sysclk.h **** *   must already be enabled.
 516:Generated_Source\PSoC6\pdl\drivers\peripheral\sysclk/cy_sysclk.h **** *   
 517:Generated_Source\PSoC6\pdl\drivers\peripheral\sysclk/cy_sysclk.h **** *   See the Clocking System chapter of the device technical reference manual (TRM).
 518:Generated_Source\PSoC6\pdl\drivers\peripheral\sysclk/cy_sysclk.h **** *
 519:Generated_Source\PSoC6\pdl\drivers\peripheral\sysclk/cy_sysclk.h **** *   \defgroup group_sysclk_clk_peripheral_funcs Functions
 520:Generated_Source\PSoC6\pdl\drivers\peripheral\sysclk/cy_sysclk.h **** *   \defgroup group_sysclk_clk_peripheral_enums Enumerated Types
 521:Generated_Source\PSoC6\pdl\drivers\peripheral\sysclk/cy_sysclk.h **** * \}
 522:Generated_Source\PSoC6\pdl\drivers\peripheral\sysclk/cy_sysclk.h **** * \defgroup group_sysclk_clk_slow        Slow Clock
 523:Generated_Source\PSoC6\pdl\drivers\peripheral\sysclk/cy_sysclk.h **** * \{
 524:Generated_Source\PSoC6\pdl\drivers\peripheral\sysclk/cy_sysclk.h **** *   <p>The slow clock is the source clock for the Cortex-M0+. This clock is a
 525:Generated_Source\PSoC6\pdl\drivers\peripheral\sysclk/cy_sysclk.h **** *   divided version of the \ref group_sysclk_clk_peri, which in turn is a divided version
 526:Generated_Source\PSoC6\pdl\drivers\peripheral\sysclk/cy_sysclk.h **** *   of CLK_HF[0]. See \ref group_sysclk_clk_hf "HF Clocks".</p>
 527:Generated_Source\PSoC6\pdl\drivers\peripheral\sysclk/cy_sysclk.h **** *
 528:Generated_Source\PSoC6\pdl\drivers\peripheral\sysclk/cy_sysclk.h **** *   The API functions for this clock set or get the divider.
 529:Generated_Source\PSoC6\pdl\drivers\peripheral\sysclk/cy_sysclk.h **** *
 530:Generated_Source\PSoC6\pdl\drivers\peripheral\sysclk/cy_sysclk.h **** *   ![](sysclk_slow.png)
 531:Generated_Source\PSoC6\pdl\drivers\peripheral\sysclk/cy_sysclk.h **** *
 532:Generated_Source\PSoC6\pdl\drivers\peripheral\sysclk/cy_sysclk.h **** *   See the Clocking System chapter of the device technical reference manual (TRM).
ARM GAS  C:\Users\kiwamu\AppData\Local\Temp\ccIx7zyv.s 			page 52


 533:Generated_Source\PSoC6\pdl\drivers\peripheral\sysclk/cy_sysclk.h **** *
 534:Generated_Source\PSoC6\pdl\drivers\peripheral\sysclk/cy_sysclk.h **** *   \defgroup group_sysclk_clk_slow_funcs  Functions
 535:Generated_Source\PSoC6\pdl\drivers\peripheral\sysclk/cy_sysclk.h **** * \}
 536:Generated_Source\PSoC6\pdl\drivers\peripheral\sysclk/cy_sysclk.h **** * \defgroup group_sysclk_clk_lf          Low-Frequency Clock
 537:Generated_Source\PSoC6\pdl\drivers\peripheral\sysclk/cy_sysclk.h **** * \{
 538:Generated_Source\PSoC6\pdl\drivers\peripheral\sysclk/cy_sysclk.h **** *   <p>The low-frequency clock is the source clock for the \ref group_mcwdt
 539:Generated_Source\PSoC6\pdl\drivers\peripheral\sysclk/cy_sysclk.h **** *   and can be the source clock for \ref group_sysclk_clk_bak, which drives the
 540:Generated_Source\PSoC6\pdl\drivers\peripheral\sysclk/cy_sysclk.h **** *   \ref group_rtc.</p>
 541:Generated_Source\PSoC6\pdl\drivers\peripheral\sysclk/cy_sysclk.h **** *   
 542:Generated_Source\PSoC6\pdl\drivers\peripheral\sysclk/cy_sysclk.h **** *   The low-frequency clock has three possible source clocks:
 543:Generated_Source\PSoC6\pdl\drivers\peripheral\sysclk/cy_sysclk.h **** *   \ref group_sysclk_ilo "ILO", \ref group_sysclk_pilo "PILO", and
 544:Generated_Source\PSoC6\pdl\drivers\peripheral\sysclk/cy_sysclk.h **** *   \ref group_sysclk_wco "WCO".
 545:Generated_Source\PSoC6\pdl\drivers\peripheral\sysclk/cy_sysclk.h **** *   
 546:Generated_Source\PSoC6\pdl\drivers\peripheral\sysclk/cy_sysclk.h **** *   The API functions for this clock set or get the source clock.
 547:Generated_Source\PSoC6\pdl\drivers\peripheral\sysclk/cy_sysclk.h **** *
 548:Generated_Source\PSoC6\pdl\drivers\peripheral\sysclk/cy_sysclk.h **** *   ![](sysclk_lf.png)
 549:Generated_Source\PSoC6\pdl\drivers\peripheral\sysclk/cy_sysclk.h **** *
 550:Generated_Source\PSoC6\pdl\drivers\peripheral\sysclk/cy_sysclk.h **** *   See the Clocking System chapter of the device technical reference manual (TRM).
 551:Generated_Source\PSoC6\pdl\drivers\peripheral\sysclk/cy_sysclk.h **** *
 552:Generated_Source\PSoC6\pdl\drivers\peripheral\sysclk/cy_sysclk.h **** *   \defgroup group_sysclk_clk_lf_funcs    Functions
 553:Generated_Source\PSoC6\pdl\drivers\peripheral\sysclk/cy_sysclk.h **** *   \defgroup group_sysclk_clk_lf_enums    Enumerated Types
 554:Generated_Source\PSoC6\pdl\drivers\peripheral\sysclk/cy_sysclk.h **** * \}
 555:Generated_Source\PSoC6\pdl\drivers\peripheral\sysclk/cy_sysclk.h **** * \defgroup group_sysclk_clk_timer       Timer Clock
 556:Generated_Source\PSoC6\pdl\drivers\peripheral\sysclk/cy_sysclk.h **** * \{
 557:Generated_Source\PSoC6\pdl\drivers\peripheral\sysclk/cy_sysclk.h **** *   <p>The timer clock can be the source clock for the \ref group_arm_system_timer
 558:Generated_Source\PSoC6\pdl\drivers\peripheral\sysclk/cy_sysclk.h **** *   (Cy_SysTick_SetClockSource()). It can also be used as a reference clock for
 559:Generated_Source\PSoC6\pdl\drivers\peripheral\sysclk/cy_sysclk.h **** *   a counter in the \ref group_energy_profiler "Profile" (Cy_Profile_ConfigureCounter()).</p>
 560:Generated_Source\PSoC6\pdl\drivers\peripheral\sysclk/cy_sysclk.h **** *   
 561:Generated_Source\PSoC6\pdl\drivers\peripheral\sysclk/cy_sysclk.h **** *   The timer clock is a divided clock of either IMO or CLK_HF[0]. See
 562:Generated_Source\PSoC6\pdl\drivers\peripheral\sysclk/cy_sysclk.h **** *   \ref group_sysclk_clk_hf "HF Clocks".
 563:Generated_Source\PSoC6\pdl\drivers\peripheral\sysclk/cy_sysclk.h **** *   
 564:Generated_Source\PSoC6\pdl\drivers\peripheral\sysclk/cy_sysclk.h **** *   API functions for this clock set or get the source, set or get the divider,
 565:Generated_Source\PSoC6\pdl\drivers\peripheral\sysclk/cy_sysclk.h **** *   and enable or disable the clock.
 566:Generated_Source\PSoC6\pdl\drivers\peripheral\sysclk/cy_sysclk.h **** *   
 567:Generated_Source\PSoC6\pdl\drivers\peripheral\sysclk/cy_sysclk.h **** *   See the Clocking System chapter of the device technical reference manual (TRM).
 568:Generated_Source\PSoC6\pdl\drivers\peripheral\sysclk/cy_sysclk.h **** *
 569:Generated_Source\PSoC6\pdl\drivers\peripheral\sysclk/cy_sysclk.h **** *   \defgroup group_sysclk_clk_timer_funcs Functions
 570:Generated_Source\PSoC6\pdl\drivers\peripheral\sysclk/cy_sysclk.h **** *   \defgroup group_sysclk_clk_timer_enums Enumerated Types
 571:Generated_Source\PSoC6\pdl\drivers\peripheral\sysclk/cy_sysclk.h **** * \}
 572:Generated_Source\PSoC6\pdl\drivers\peripheral\sysclk/cy_sysclk.h **** * \defgroup group_sysclk_clk_pump        Pump Clock
 573:Generated_Source\PSoC6\pdl\drivers\peripheral\sysclk/cy_sysclk.h **** * \{
 574:Generated_Source\PSoC6\pdl\drivers\peripheral\sysclk/cy_sysclk.h **** *   The pump clock may be required to drive the internal voltage pump for the
 575:Generated_Source\PSoC6\pdl\drivers\peripheral\sysclk/cy_sysclk.h **** *   Continuous Time Block mini (CTBm) in the analog subsystem.
 576:Generated_Source\PSoC6\pdl\drivers\peripheral\sysclk/cy_sysclk.h **** *   
 577:Generated_Source\PSoC6\pdl\drivers\peripheral\sysclk/cy_sysclk.h **** *   The pump clock is a divided clock of one of the clock paths. See
 578:Generated_Source\PSoC6\pdl\drivers\peripheral\sysclk/cy_sysclk.h **** *   \ref group_sysclk_path_src.
 579:Generated_Source\PSoC6\pdl\drivers\peripheral\sysclk/cy_sysclk.h **** *   
 580:Generated_Source\PSoC6\pdl\drivers\peripheral\sysclk/cy_sysclk.h **** *   API functions for this clock set or get the source, set or get the divider,
 581:Generated_Source\PSoC6\pdl\drivers\peripheral\sysclk/cy_sysclk.h **** *   and enable or disable the clock.
 582:Generated_Source\PSoC6\pdl\drivers\peripheral\sysclk/cy_sysclk.h **** *   
 583:Generated_Source\PSoC6\pdl\drivers\peripheral\sysclk/cy_sysclk.h **** *   See the Clocking System chapter of the device technical reference manual
 584:Generated_Source\PSoC6\pdl\drivers\peripheral\sysclk/cy_sysclk.h **** *   (TRM) and the Continuous Time Block mini chapter of the TRM.
 585:Generated_Source\PSoC6\pdl\drivers\peripheral\sysclk/cy_sysclk.h **** *
 586:Generated_Source\PSoC6\pdl\drivers\peripheral\sysclk/cy_sysclk.h **** *   \defgroup group_sysclk_clk_pump_funcs  Functions
 587:Generated_Source\PSoC6\pdl\drivers\peripheral\sysclk/cy_sysclk.h **** *   \defgroup group_sysclk_clk_pump_enums  Enumerated Types
 588:Generated_Source\PSoC6\pdl\drivers\peripheral\sysclk/cy_sysclk.h **** * \}
 589:Generated_Source\PSoC6\pdl\drivers\peripheral\sysclk/cy_sysclk.h **** * \defgroup group_sysclk_clk_bak         Backup Domain Clock
ARM GAS  C:\Users\kiwamu\AppData\Local\Temp\ccIx7zyv.s 			page 53


 590:Generated_Source\PSoC6\pdl\drivers\peripheral\sysclk/cy_sysclk.h **** * \{
 591:Generated_Source\PSoC6\pdl\drivers\peripheral\sysclk/cy_sysclk.h **** *   The backup domain clock drives the \ref group_rtc. 
 592:Generated_Source\PSoC6\pdl\drivers\peripheral\sysclk/cy_sysclk.h **** *   
 593:Generated_Source\PSoC6\pdl\drivers\peripheral\sysclk/cy_sysclk.h **** *   The backup domain clock has two possible source clocks: \ref group_sysclk_wco "WCO"
 594:Generated_Source\PSoC6\pdl\drivers\peripheral\sysclk/cy_sysclk.h **** *   or the \ref group_sysclk_clk_lf. In turn the low frequency clock is sourced by
 595:Generated_Source\PSoC6\pdl\drivers\peripheral\sysclk/cy_sysclk.h **** *   \ref group_sysclk_ilo "ILO", \ref group_sysclk_pilo "PILO", or
 596:Generated_Source\PSoC6\pdl\drivers\peripheral\sysclk/cy_sysclk.h **** *   \ref group_sysclk_wco "WCO". Typically ILO is not suitable as an RTC source,
 597:Generated_Source\PSoC6\pdl\drivers\peripheral\sysclk/cy_sysclk.h **** *   because of its low accuracy.
 598:Generated_Source\PSoC6\pdl\drivers\peripheral\sysclk/cy_sysclk.h **** *   
 599:Generated_Source\PSoC6\pdl\drivers\peripheral\sysclk/cy_sysclk.h **** *   The API functions for this clock set or get the source clock. 
 600:Generated_Source\PSoC6\pdl\drivers\peripheral\sysclk/cy_sysclk.h **** *   
 601:Generated_Source\PSoC6\pdl\drivers\peripheral\sysclk/cy_sysclk.h **** *   See the Clocking System chapter of the device technical reference manual (TRM).
 602:Generated_Source\PSoC6\pdl\drivers\peripheral\sysclk/cy_sysclk.h **** *
 603:Generated_Source\PSoC6\pdl\drivers\peripheral\sysclk/cy_sysclk.h **** *   \defgroup group_sysclk_clk_bak_funcs   Functions
 604:Generated_Source\PSoC6\pdl\drivers\peripheral\sysclk/cy_sysclk.h **** *   \defgroup group_sysclk_clk_bak_enums   Enumerated Types
 605:Generated_Source\PSoC6\pdl\drivers\peripheral\sysclk/cy_sysclk.h **** * \}
 606:Generated_Source\PSoC6\pdl\drivers\peripheral\sysclk/cy_sysclk.h **** */
 607:Generated_Source\PSoC6\pdl\drivers\peripheral\sysclk/cy_sysclk.h **** 
 608:Generated_Source\PSoC6\pdl\drivers\peripheral\sysclk/cy_sysclk.h **** #if !defined(__CY_SYSCLK_H__)
 609:Generated_Source\PSoC6\pdl\drivers\peripheral\sysclk/cy_sysclk.h **** #define __CY_SYSCLK_H__
 610:Generated_Source\PSoC6\pdl\drivers\peripheral\sysclk/cy_sysclk.h **** 
 611:Generated_Source\PSoC6\pdl\drivers\peripheral\sysclk/cy_sysclk.h **** #include "cy_device_headers.h"
 612:Generated_Source\PSoC6\pdl\drivers\peripheral\sysclk/cy_sysclk.h **** #include "syslib/cy_syslib.h"
 613:Generated_Source\PSoC6\pdl\drivers\peripheral\sysclk/cy_sysclk.h **** #include "syspm/cy_syspm.h"
 614:Generated_Source\PSoC6\pdl\drivers\peripheral\sysclk/cy_sysclk.h **** #include <stdbool.h>
 615:Generated_Source\PSoC6\pdl\drivers\peripheral\sysclk/cy_sysclk.h **** 
 616:Generated_Source\PSoC6\pdl\drivers\peripheral\sysclk/cy_sysclk.h **** #if defined(__cplusplus)
 617:Generated_Source\PSoC6\pdl\drivers\peripheral\sysclk/cy_sysclk.h **** extern "C" {
 618:Generated_Source\PSoC6\pdl\drivers\peripheral\sysclk/cy_sysclk.h **** #endif /* __cplusplus */
 619:Generated_Source\PSoC6\pdl\drivers\peripheral\sysclk/cy_sysclk.h **** 
 620:Generated_Source\PSoC6\pdl\drivers\peripheral\sysclk/cy_sysclk.h **** /**
 621:Generated_Source\PSoC6\pdl\drivers\peripheral\sysclk/cy_sysclk.h **** * \addtogroup group_sysclk_macros
 622:Generated_Source\PSoC6\pdl\drivers\peripheral\sysclk/cy_sysclk.h **** * \{
 623:Generated_Source\PSoC6\pdl\drivers\peripheral\sysclk/cy_sysclk.h **** */
 624:Generated_Source\PSoC6\pdl\drivers\peripheral\sysclk/cy_sysclk.h **** /** Driver major version */
 625:Generated_Source\PSoC6\pdl\drivers\peripheral\sysclk/cy_sysclk.h **** #define  CY_SYSCLK_DRV_VERSION_MAJOR   1
 626:Generated_Source\PSoC6\pdl\drivers\peripheral\sysclk/cy_sysclk.h **** /** Driver minor version */
 627:Generated_Source\PSoC6\pdl\drivers\peripheral\sysclk/cy_sysclk.h **** #define  CY_SYSCLK_DRV_VERSION_MINOR   10
 628:Generated_Source\PSoC6\pdl\drivers\peripheral\sysclk/cy_sysclk.h **** /** Sysclk driver identifier */
 629:Generated_Source\PSoC6\pdl\drivers\peripheral\sysclk/cy_sysclk.h **** #define CY_SYSCLK_ID   CY_PDL_DRV_ID(0x12U)
 630:Generated_Source\PSoC6\pdl\drivers\peripheral\sysclk/cy_sysclk.h **** 
 631:Generated_Source\PSoC6\pdl\drivers\peripheral\sysclk/cy_sysclk.h **** /** \} group_sysclk_macros */
 632:Generated_Source\PSoC6\pdl\drivers\peripheral\sysclk/cy_sysclk.h **** 
 633:Generated_Source\PSoC6\pdl\drivers\peripheral\sysclk/cy_sysclk.h **** /**
 634:Generated_Source\PSoC6\pdl\drivers\peripheral\sysclk/cy_sysclk.h **** * \addtogroup group_sysclk_returns
 635:Generated_Source\PSoC6\pdl\drivers\peripheral\sysclk/cy_sysclk.h **** * \{
 636:Generated_Source\PSoC6\pdl\drivers\peripheral\sysclk/cy_sysclk.h **** */
 637:Generated_Source\PSoC6\pdl\drivers\peripheral\sysclk/cy_sysclk.h **** /** Defines general-purpose function return values. */
 638:Generated_Source\PSoC6\pdl\drivers\peripheral\sysclk/cy_sysclk.h **** typedef enum
 639:Generated_Source\PSoC6\pdl\drivers\peripheral\sysclk/cy_sysclk.h **** {
 640:Generated_Source\PSoC6\pdl\drivers\peripheral\sysclk/cy_sysclk.h ****     CY_SYSCLK_SUCCESS       = 0u, /**< Command completed with no errors */
 641:Generated_Source\PSoC6\pdl\drivers\peripheral\sysclk/cy_sysclk.h ****     CY_SYSCLK_BAD_PARAM     = (CY_SYSCLK_ID | CY_PDL_STATUS_ERROR | 1u), /**< Invalid function inpu
 642:Generated_Source\PSoC6\pdl\drivers\peripheral\sysclk/cy_sysclk.h ****     CY_SYSCLK_TIMEOUT       = (CY_SYSCLK_ID | CY_PDL_STATUS_ERROR | 2u), /**< Timeout occurred */
 643:Generated_Source\PSoC6\pdl\drivers\peripheral\sysclk/cy_sysclk.h ****     CY_SYSCLK_INVALID_STATE = (CY_SYSCLK_ID | CY_PDL_STATUS_ERROR | 3u)  /**< Clock is in an invali
 644:Generated_Source\PSoC6\pdl\drivers\peripheral\sysclk/cy_sysclk.h **** } cy_en_sysclk_status_t;
 645:Generated_Source\PSoC6\pdl\drivers\peripheral\sysclk/cy_sysclk.h **** /** \} group_sysclk_returns */
 646:Generated_Source\PSoC6\pdl\drivers\peripheral\sysclk/cy_sysclk.h **** 
ARM GAS  C:\Users\kiwamu\AppData\Local\Temp\ccIx7zyv.s 			page 54


 647:Generated_Source\PSoC6\pdl\drivers\peripheral\sysclk/cy_sysclk.h **** /** \cond INTERNAL */
 648:Generated_Source\PSoC6\pdl\drivers\peripheral\sysclk/cy_sysclk.h **** /* Generates shorter code for setting register bitfields */
 649:Generated_Source\PSoC6\pdl\drivers\peripheral\sysclk/cy_sysclk.h **** #define CY_SYSCLK_CLR_SET(reg, field, value) (reg) = _CLR_SET_FLD32U((reg), field, (value))
 650:Generated_Source\PSoC6\pdl\drivers\peripheral\sysclk/cy_sysclk.h **** /* Calculate a / b with rounding to the nearest integer. a and b must have the same sign. */
 651:Generated_Source\PSoC6\pdl\drivers\peripheral\sysclk/cy_sysclk.h **** #define CY_SYSCLK_DIV_ROUND(a, b) (((a) + ((b) / 2u)) / (b))
 652:Generated_Source\PSoC6\pdl\drivers\peripheral\sysclk/cy_sysclk.h **** /* Calculate a / b with rounding up if remainder != 0. a and b must both be positive. */
 653:Generated_Source\PSoC6\pdl\drivers\peripheral\sysclk/cy_sysclk.h **** #define CY_SYSCLK_DIV_ROUNDUP(a, b) ((((a) - 1u) / (b)) + 1u)
 654:Generated_Source\PSoC6\pdl\drivers\peripheral\sysclk/cy_sysclk.h **** /** \endcond */
 655:Generated_Source\PSoC6\pdl\drivers\peripheral\sysclk/cy_sysclk.h **** 
 656:Generated_Source\PSoC6\pdl\drivers\peripheral\sysclk/cy_sysclk.h **** 
 657:Generated_Source\PSoC6\pdl\drivers\peripheral\sysclk/cy_sysclk.h **** /* ========================================================================== */
 658:Generated_Source\PSoC6\pdl\drivers\peripheral\sysclk/cy_sysclk.h **** /* ===========================    ECO SECTION    ============================ */
 659:Generated_Source\PSoC6\pdl\drivers\peripheral\sysclk/cy_sysclk.h **** /* ========================================================================== */
 660:Generated_Source\PSoC6\pdl\drivers\peripheral\sysclk/cy_sysclk.h **** /**
 661:Generated_Source\PSoC6\pdl\drivers\peripheral\sysclk/cy_sysclk.h **** * \addtogroup group_sysclk_eco_funcs
 662:Generated_Source\PSoC6\pdl\drivers\peripheral\sysclk/cy_sysclk.h **** * \{
 663:Generated_Source\PSoC6\pdl\drivers\peripheral\sysclk/cy_sysclk.h **** */
 664:Generated_Source\PSoC6\pdl\drivers\peripheral\sysclk/cy_sysclk.h **** cy_en_sysclk_status_t Cy_SysClk_EcoConfigure(uint32_t freq, uint32_t cLoad, uint32_t esr, uint32_t 
 665:Generated_Source\PSoC6\pdl\drivers\peripheral\sysclk/cy_sysclk.h **** cy_en_sysclk_status_t Cy_SysClk_EcoEnable(uint32_t timeoutus);
 666:Generated_Source\PSoC6\pdl\drivers\peripheral\sysclk/cy_sysclk.h **** __STATIC_INLINE void Cy_SysClk_EcoDisable(void);
 667:Generated_Source\PSoC6\pdl\drivers\peripheral\sysclk/cy_sysclk.h **** __STATIC_INLINE uint32_t Cy_SysClk_EcoGetStatus(void);
 668:Generated_Source\PSoC6\pdl\drivers\peripheral\sysclk/cy_sysclk.h **** 
 669:Generated_Source\PSoC6\pdl\drivers\peripheral\sysclk/cy_sysclk.h **** /*******************************************************************************
 670:Generated_Source\PSoC6\pdl\drivers\peripheral\sysclk/cy_sysclk.h **** * Function Name: Cy_SysClk_EcoDisable
 671:Generated_Source\PSoC6\pdl\drivers\peripheral\sysclk/cy_sysclk.h **** ****************************************************************************//**
 672:Generated_Source\PSoC6\pdl\drivers\peripheral\sysclk/cy_sysclk.h **** *
 673:Generated_Source\PSoC6\pdl\drivers\peripheral\sysclk/cy_sysclk.h **** * Disables the external crystal oscillator (ECO). This function should not be
 674:Generated_Source\PSoC6\pdl\drivers\peripheral\sysclk/cy_sysclk.h **** * called if the ECO is sourcing clkHf[0].
 675:Generated_Source\PSoC6\pdl\drivers\peripheral\sysclk/cy_sysclk.h **** *
 676:Generated_Source\PSoC6\pdl\drivers\peripheral\sysclk/cy_sysclk.h **** *******************************************************************************/
 677:Generated_Source\PSoC6\pdl\drivers\peripheral\sysclk/cy_sysclk.h **** __STATIC_INLINE void Cy_SysClk_EcoDisable(void)
 678:Generated_Source\PSoC6\pdl\drivers\peripheral\sysclk/cy_sysclk.h **** {
 679:Generated_Source\PSoC6\pdl\drivers\peripheral\sysclk/cy_sysclk.h ****     SRSS->CLK_ECO_CONFIG &= ~_VAL2FLD(SRSS_CLK_ECO_CONFIG_ECO_EN, 1u); /* 0 = disable */
 680:Generated_Source\PSoC6\pdl\drivers\peripheral\sysclk/cy_sysclk.h **** }
 681:Generated_Source\PSoC6\pdl\drivers\peripheral\sysclk/cy_sysclk.h **** 
 682:Generated_Source\PSoC6\pdl\drivers\peripheral\sysclk/cy_sysclk.h **** /*******************************************************************************
 683:Generated_Source\PSoC6\pdl\drivers\peripheral\sysclk/cy_sysclk.h **** * Function Name: Cy_SysClk_EcoGetStatus
 684:Generated_Source\PSoC6\pdl\drivers\peripheral\sysclk/cy_sysclk.h **** ****************************************************************************//**
 685:Generated_Source\PSoC6\pdl\drivers\peripheral\sysclk/cy_sysclk.h **** *
 686:Generated_Source\PSoC6\pdl\drivers\peripheral\sysclk/cy_sysclk.h **** * Reports the current status of the external crystal oscillator (ECO).
 687:Generated_Source\PSoC6\pdl\drivers\peripheral\sysclk/cy_sysclk.h **** *
 688:Generated_Source\PSoC6\pdl\drivers\peripheral\sysclk/cy_sysclk.h **** * \return
 689:Generated_Source\PSoC6\pdl\drivers\peripheral\sysclk/cy_sysclk.h **** * 0 = ECO does not have sufficient amplitude<br>
 690:Generated_Source\PSoC6\pdl\drivers\peripheral\sysclk/cy_sysclk.h **** * 1 = ECO has sufficient amplitude but may not be meeting accuracy and duty cycle specifications<br
 691:Generated_Source\PSoC6\pdl\drivers\peripheral\sysclk/cy_sysclk.h **** * 2 = ECO has fully stabilized
 692:Generated_Source\PSoC6\pdl\drivers\peripheral\sysclk/cy_sysclk.h **** *
 693:Generated_Source\PSoC6\pdl\drivers\peripheral\sysclk/cy_sysclk.h **** *******************************************************************************/
 694:Generated_Source\PSoC6\pdl\drivers\peripheral\sysclk/cy_sysclk.h **** __STATIC_INLINE uint32_t Cy_SysClk_EcoGetStatus(void)
 695:Generated_Source\PSoC6\pdl\drivers\peripheral\sysclk/cy_sysclk.h **** {
 696:Generated_Source\PSoC6\pdl\drivers\peripheral\sysclk/cy_sysclk.h ****     uint32_t retval = (SRSS->CLK_ECO_STATUS & 3ul); /* bit 0 = ECO_OK, bit 1 = ECO_READY */
 697:Generated_Source\PSoC6\pdl\drivers\peripheral\sysclk/cy_sysclk.h ****     /* if ECO is not ready, just report the ECO_OK bit. Otherwise report 2 = ECO ready */
 698:Generated_Source\PSoC6\pdl\drivers\peripheral\sysclk/cy_sysclk.h ****     return (((retval & 2ul) == 0) ? retval : 2ul);
 699:Generated_Source\PSoC6\pdl\drivers\peripheral\sysclk/cy_sysclk.h **** }
 700:Generated_Source\PSoC6\pdl\drivers\peripheral\sysclk/cy_sysclk.h **** /** \} group_sysclk_eco_funcs */
 701:Generated_Source\PSoC6\pdl\drivers\peripheral\sysclk/cy_sysclk.h **** 
 702:Generated_Source\PSoC6\pdl\drivers\peripheral\sysclk/cy_sysclk.h **** 
 703:Generated_Source\PSoC6\pdl\drivers\peripheral\sysclk/cy_sysclk.h **** /* ========================================================================== */
ARM GAS  C:\Users\kiwamu\AppData\Local\Temp\ccIx7zyv.s 			page 55


 704:Generated_Source\PSoC6\pdl\drivers\peripheral\sysclk/cy_sysclk.h **** /* ====================    INPUT MULTIPLEXER SECTION    ===================== */
 705:Generated_Source\PSoC6\pdl\drivers\peripheral\sysclk/cy_sysclk.h **** /* ========================================================================== */
 706:Generated_Source\PSoC6\pdl\drivers\peripheral\sysclk/cy_sysclk.h **** /**
 707:Generated_Source\PSoC6\pdl\drivers\peripheral\sysclk/cy_sysclk.h **** * \addtogroup group_sysclk_path_src_enums
 708:Generated_Source\PSoC6\pdl\drivers\peripheral\sysclk/cy_sysclk.h **** * \{
 709:Generated_Source\PSoC6\pdl\drivers\peripheral\sysclk/cy_sysclk.h **** */
 710:Generated_Source\PSoC6\pdl\drivers\peripheral\sysclk/cy_sysclk.h **** /**
 711:Generated_Source\PSoC6\pdl\drivers\peripheral\sysclk/cy_sysclk.h **** *   Input multiplexer clock sources
 712:Generated_Source\PSoC6\pdl\drivers\peripheral\sysclk/cy_sysclk.h **** */
 713:Generated_Source\PSoC6\pdl\drivers\peripheral\sysclk/cy_sysclk.h **** typedef enum
 714:Generated_Source\PSoC6\pdl\drivers\peripheral\sysclk/cy_sysclk.h **** {
 715:Generated_Source\PSoC6\pdl\drivers\peripheral\sysclk/cy_sysclk.h ****     CY_SYSCLK_CLKPATH_IN_IMO    =     0u, /**< Select the IMO as the output of the path mux */
 716:Generated_Source\PSoC6\pdl\drivers\peripheral\sysclk/cy_sysclk.h ****     CY_SYSCLK_CLKPATH_IN_EXT    =     1u, /**< Select the EXT as the output of the path mux */
 717:Generated_Source\PSoC6\pdl\drivers\peripheral\sysclk/cy_sysclk.h ****     CY_SYSCLK_CLKPATH_IN_ECO    =     2u, /**< Select the ECO as the output of the path mux */
 718:Generated_Source\PSoC6\pdl\drivers\peripheral\sysclk/cy_sysclk.h ****     CY_SYSCLK_CLKPATH_IN_ALTHF  =     3u, /**< Select the ALTHF as the output of the path mux */
 719:Generated_Source\PSoC6\pdl\drivers\peripheral\sysclk/cy_sysclk.h ****     CY_SYSCLK_CLKPATH_IN_DSIMUX =     4u, /**< Select the DSI MUX output as the output of the path 
 720:Generated_Source\PSoC6\pdl\drivers\peripheral\sysclk/cy_sysclk.h ****     CY_SYSCLK_CLKPATH_IN_DSI    = 0x100u, /**< Select a DSI signal (0 - 15) as the output of the DS
 721:Generated_Source\PSoC6\pdl\drivers\peripheral\sysclk/cy_sysclk.h ****     CY_SYSCLK_CLKPATH_IN_ILO    = 0x110u, /**< Select the ILO (16) as the output of the DSI mux and
 722:Generated_Source\PSoC6\pdl\drivers\peripheral\sysclk/cy_sysclk.h ****     CY_SYSCLK_CLKPATH_IN_WCO    = 0x111u, /**< Select the WCO (17) as the output of the DSI mux and
 723:Generated_Source\PSoC6\pdl\drivers\peripheral\sysclk/cy_sysclk.h ****     CY_SYSCLK_CLKPATH_IN_ALTLF  = 0x112u, /**< Select the ALTLF (18) as the output of the DSI mux a
 724:Generated_Source\PSoC6\pdl\drivers\peripheral\sysclk/cy_sysclk.h ****     CY_SYSCLK_CLKPATH_IN_PILO   = 0x113u  /**< Select the PILO (19) as the output of the DSI mux an
 725:Generated_Source\PSoC6\pdl\drivers\peripheral\sysclk/cy_sysclk.h **** } cy_en_clkpath_in_sources_t;
 726:Generated_Source\PSoC6\pdl\drivers\peripheral\sysclk/cy_sysclk.h **** /** \} group_sysclk_path_src_enums */
 727:Generated_Source\PSoC6\pdl\drivers\peripheral\sysclk/cy_sysclk.h **** 
 728:Generated_Source\PSoC6\pdl\drivers\peripheral\sysclk/cy_sysclk.h **** /**
 729:Generated_Source\PSoC6\pdl\drivers\peripheral\sysclk/cy_sysclk.h **** * \addtogroup group_sysclk_path_src_funcs
 730:Generated_Source\PSoC6\pdl\drivers\peripheral\sysclk/cy_sysclk.h **** * \{
 731:Generated_Source\PSoC6\pdl\drivers\peripheral\sysclk/cy_sysclk.h **** */
 732:Generated_Source\PSoC6\pdl\drivers\peripheral\sysclk/cy_sysclk.h **** cy_en_sysclk_status_t Cy_SysClk_ClkPathSetSource(uint32_t clkPath, cy_en_clkpath_in_sources_t sourc
 733:Generated_Source\PSoC6\pdl\drivers\peripheral\sysclk/cy_sysclk.h **** cy_en_clkpath_in_sources_t Cy_SysClk_ClkPathGetSource(uint32_t clkPath);
 734:Generated_Source\PSoC6\pdl\drivers\peripheral\sysclk/cy_sysclk.h **** /** \} group_sysclk_path_src_funcs */
 735:Generated_Source\PSoC6\pdl\drivers\peripheral\sysclk/cy_sysclk.h **** 
 736:Generated_Source\PSoC6\pdl\drivers\peripheral\sysclk/cy_sysclk.h **** 
 737:Generated_Source\PSoC6\pdl\drivers\peripheral\sysclk/cy_sysclk.h **** /* ========================================================================== */
 738:Generated_Source\PSoC6\pdl\drivers\peripheral\sysclk/cy_sysclk.h **** /* ===========================    FLL SECTION    ============================ */
 739:Generated_Source\PSoC6\pdl\drivers\peripheral\sysclk/cy_sysclk.h **** /* ========================================================================== */
 740:Generated_Source\PSoC6\pdl\drivers\peripheral\sysclk/cy_sysclk.h **** /**
 741:Generated_Source\PSoC6\pdl\drivers\peripheral\sysclk/cy_sysclk.h **** * \addtogroup group_sysclk_fll_enums
 742:Generated_Source\PSoC6\pdl\drivers\peripheral\sysclk/cy_sysclk.h **** * \{
 743:Generated_Source\PSoC6\pdl\drivers\peripheral\sysclk/cy_sysclk.h **** */
 744:Generated_Source\PSoC6\pdl\drivers\peripheral\sysclk/cy_sysclk.h **** /** FLL and PLL output mode.
 745:Generated_Source\PSoC6\pdl\drivers\peripheral\sysclk/cy_sysclk.h **** * See registers CLK_FLL_CONFIG3 and CLK_PLL_CONFIG0, bits BYPASS_SEL.
 746:Generated_Source\PSoC6\pdl\drivers\peripheral\sysclk/cy_sysclk.h **** */
 747:Generated_Source\PSoC6\pdl\drivers\peripheral\sysclk/cy_sysclk.h **** typedef enum
 748:Generated_Source\PSoC6\pdl\drivers\peripheral\sysclk/cy_sysclk.h **** {
 749:Generated_Source\PSoC6\pdl\drivers\peripheral\sysclk/cy_sysclk.h ****     CY_SYSCLK_FLLPLL_OUTPUT_AUTO   = 0u, /**< Output FLL/PLL input source when not locked, and FLL/
 750:Generated_Source\PSoC6\pdl\drivers\peripheral\sysclk/cy_sysclk.h ****     CY_SYSCLK_FLLPLL_OUTPUT_AUTO1  = 1u, /**< Same as AUTO */
 751:Generated_Source\PSoC6\pdl\drivers\peripheral\sysclk/cy_sysclk.h ****     CY_SYSCLK_FLLPLL_OUTPUT_INPUT  = 2u, /**< Output FLL/PLL input source regardless of lock status
 752:Generated_Source\PSoC6\pdl\drivers\peripheral\sysclk/cy_sysclk.h ****     CY_SYSCLK_FLLPLL_OUTPUT_OUTPUT = 3u  /**< Output FLL/PLL output regardless of lock status. This
 753:Generated_Source\PSoC6\pdl\drivers\peripheral\sysclk/cy_sysclk.h **** } cy_en_fll_pll_output_mode_t;
 754:Generated_Source\PSoC6\pdl\drivers\peripheral\sysclk/cy_sysclk.h **** 
 755:Generated_Source\PSoC6\pdl\drivers\peripheral\sysclk/cy_sysclk.h **** /** FLL current-controlled oscillator (CCO) frequency ranges.
 756:Generated_Source\PSoC6\pdl\drivers\peripheral\sysclk/cy_sysclk.h **** * See register CLK_FLL_CONFIG4, bits CCO_RANGE.
 757:Generated_Source\PSoC6\pdl\drivers\peripheral\sysclk/cy_sysclk.h **** */
 758:Generated_Source\PSoC6\pdl\drivers\peripheral\sysclk/cy_sysclk.h **** typedef enum
 759:Generated_Source\PSoC6\pdl\drivers\peripheral\sysclk/cy_sysclk.h **** {
 760:Generated_Source\PSoC6\pdl\drivers\peripheral\sysclk/cy_sysclk.h ****     CY_SYSCLK_FLL_CCO_RANGE0, /**< Target frequency is in range  48 -  64 MHz. */
ARM GAS  C:\Users\kiwamu\AppData\Local\Temp\ccIx7zyv.s 			page 56


 761:Generated_Source\PSoC6\pdl\drivers\peripheral\sysclk/cy_sysclk.h ****     CY_SYSCLK_FLL_CCO_RANGE1, /**< Target frequency is in range  64 -  85 MHz. */
 762:Generated_Source\PSoC6\pdl\drivers\peripheral\sysclk/cy_sysclk.h ****     CY_SYSCLK_FLL_CCO_RANGE2, /**< Target frequency is in range  85 - 113 MHz. */
 763:Generated_Source\PSoC6\pdl\drivers\peripheral\sysclk/cy_sysclk.h ****     CY_SYSCLK_FLL_CCO_RANGE3, /**< Target frequency is in range 113 - 150 MHz. */
 764:Generated_Source\PSoC6\pdl\drivers\peripheral\sysclk/cy_sysclk.h ****     CY_SYSCLK_FLL_CCO_RANGE4  /**< Target frequency is in range 150 - 200 MHz. */
 765:Generated_Source\PSoC6\pdl\drivers\peripheral\sysclk/cy_sysclk.h **** } cy_en_fll_cco_ranges_t;
 766:Generated_Source\PSoC6\pdl\drivers\peripheral\sysclk/cy_sysclk.h **** /** \} group_sysclk_fll_enums */
 767:Generated_Source\PSoC6\pdl\drivers\peripheral\sysclk/cy_sysclk.h **** 
 768:Generated_Source\PSoC6\pdl\drivers\peripheral\sysclk/cy_sysclk.h **** /**
 769:Generated_Source\PSoC6\pdl\drivers\peripheral\sysclk/cy_sysclk.h **** * \addtogroup group_sysclk_fll_structs
 770:Generated_Source\PSoC6\pdl\drivers\peripheral\sysclk/cy_sysclk.h **** * \{
 771:Generated_Source\PSoC6\pdl\drivers\peripheral\sysclk/cy_sysclk.h **** */
 772:Generated_Source\PSoC6\pdl\drivers\peripheral\sysclk/cy_sysclk.h **** /** Structure containing information for manual configuration of FLL.
 773:Generated_Source\PSoC6\pdl\drivers\peripheral\sysclk/cy_sysclk.h **** */
 774:Generated_Source\PSoC6\pdl\drivers\peripheral\sysclk/cy_sysclk.h **** typedef struct
 775:Generated_Source\PSoC6\pdl\drivers\peripheral\sysclk/cy_sysclk.h **** {
 776:Generated_Source\PSoC6\pdl\drivers\peripheral\sysclk/cy_sysclk.h ****     uint32_t                    fllMult;         /**< CLK_FLL_CONFIG  register, FLL_MULT bits */
 777:Generated_Source\PSoC6\pdl\drivers\peripheral\sysclk/cy_sysclk.h ****     uint16_t                    refDiv;          /**< CLK_FLL_CONFIG2 register, FLL_REF_DIV bits */
 778:Generated_Source\PSoC6\pdl\drivers\peripheral\sysclk/cy_sysclk.h ****     cy_en_fll_cco_ranges_t      ccoRange;        /**< CLK_FLL_CONFIG4 register, CCO_RANGE bits */
 779:Generated_Source\PSoC6\pdl\drivers\peripheral\sysclk/cy_sysclk.h ****     bool                        enableOutputDiv; /**< CLK_FLL_CONFIG  register, FLL_OUTPUT_DIV bit 
 780:Generated_Source\PSoC6\pdl\drivers\peripheral\sysclk/cy_sysclk.h ****     uint16_t                    lockTolerance;   /**< CLK_FLL_CONFIG2 register, LOCK_TOL bits */
 781:Generated_Source\PSoC6\pdl\drivers\peripheral\sysclk/cy_sysclk.h ****     uint8_t                     igain;           /**< CLK_FLL_CONFIG3 register, FLL_LF_IGAIN bits *
 782:Generated_Source\PSoC6\pdl\drivers\peripheral\sysclk/cy_sysclk.h ****     uint8_t                     pgain;           /**< CLK_FLL_CONFIG3 register, FLL_LF_PGAIN bits *
 783:Generated_Source\PSoC6\pdl\drivers\peripheral\sysclk/cy_sysclk.h ****     uint16_t                    settlingCount;   /**< CLK_FLL_CONFIG3 register, SETTLING_COUNT bits
 784:Generated_Source\PSoC6\pdl\drivers\peripheral\sysclk/cy_sysclk.h ****     cy_en_fll_pll_output_mode_t outputMode;      /**< CLK_FLL_CONFIG3 register, BYPASS_SEL bits */
 785:Generated_Source\PSoC6\pdl\drivers\peripheral\sysclk/cy_sysclk.h ****     uint16_t                    cco_Freq;        /**< CLK_FLL_CONFIG4 register, CCO_FREQ bits */
 786:Generated_Source\PSoC6\pdl\drivers\peripheral\sysclk/cy_sysclk.h **** } cy_stc_fll_manual_config_t;
 787:Generated_Source\PSoC6\pdl\drivers\peripheral\sysclk/cy_sysclk.h **** /** \} group_sysclk_fll_structs */
 788:Generated_Source\PSoC6\pdl\drivers\peripheral\sysclk/cy_sysclk.h **** 
 789:Generated_Source\PSoC6\pdl\drivers\peripheral\sysclk/cy_sysclk.h **** /**
 790:Generated_Source\PSoC6\pdl\drivers\peripheral\sysclk/cy_sysclk.h **** * \addtogroup group_sysclk_fll_funcs
 791:Generated_Source\PSoC6\pdl\drivers\peripheral\sysclk/cy_sysclk.h **** * \{
 792:Generated_Source\PSoC6\pdl\drivers\peripheral\sysclk/cy_sysclk.h **** */
 793:Generated_Source\PSoC6\pdl\drivers\peripheral\sysclk/cy_sysclk.h **** cy_en_sysclk_status_t Cy_SysClk_FllConfigure(uint32_t inputFreq, uint32_t outputFreq, cy_en_fll_pll
 794:Generated_Source\PSoC6\pdl\drivers\peripheral\sysclk/cy_sysclk.h **** cy_en_sysclk_status_t Cy_SysClk_FllManualConfigure(const cy_stc_fll_manual_config_t *config);
 795:Generated_Source\PSoC6\pdl\drivers\peripheral\sysclk/cy_sysclk.h **** void Cy_SysClk_FllGetConfiguration(cy_stc_fll_manual_config_t *config);
 796:Generated_Source\PSoC6\pdl\drivers\peripheral\sysclk/cy_sysclk.h **** cy_en_sysclk_status_t Cy_SysClk_FllEnable(uint32_t timeoutus);
 797:Generated_Source\PSoC6\pdl\drivers\peripheral\sysclk/cy_sysclk.h **** __STATIC_INLINE bool Cy_SysClk_FllLocked(void);
 798:Generated_Source\PSoC6\pdl\drivers\peripheral\sysclk/cy_sysclk.h **** __STATIC_INLINE bool Cy_SysClk_FllLostLock(void);
 799:Generated_Source\PSoC6\pdl\drivers\peripheral\sysclk/cy_sysclk.h **** __STATIC_INLINE cy_en_sysclk_status_t Cy_SysClk_FllDisable(void);
 800:Generated_Source\PSoC6\pdl\drivers\peripheral\sysclk/cy_sysclk.h **** 
 801:Generated_Source\PSoC6\pdl\drivers\peripheral\sysclk/cy_sysclk.h **** /*******************************************************************************
 802:Generated_Source\PSoC6\pdl\drivers\peripheral\sysclk/cy_sysclk.h **** * Function Name: Cy_SysClk_FllLocked
 803:Generated_Source\PSoC6\pdl\drivers\peripheral\sysclk/cy_sysclk.h **** ****************************************************************************//**
 804:Generated_Source\PSoC6\pdl\drivers\peripheral\sysclk/cy_sysclk.h **** *
 805:Generated_Source\PSoC6\pdl\drivers\peripheral\sysclk/cy_sysclk.h **** * Reports whether or not the FLL is locked.
 806:Generated_Source\PSoC6\pdl\drivers\peripheral\sysclk/cy_sysclk.h **** *
 807:Generated_Source\PSoC6\pdl\drivers\peripheral\sysclk/cy_sysclk.h **** * \return false = not locked, true = locked
 808:Generated_Source\PSoC6\pdl\drivers\peripheral\sysclk/cy_sysclk.h **** *
 809:Generated_Source\PSoC6\pdl\drivers\peripheral\sysclk/cy_sysclk.h **** *******************************************************************************/
 810:Generated_Source\PSoC6\pdl\drivers\peripheral\sysclk/cy_sysclk.h **** __STATIC_INLINE bool Cy_SysClk_FllLocked(void)
 811:Generated_Source\PSoC6\pdl\drivers\peripheral\sysclk/cy_sysclk.h **** {
 812:Generated_Source\PSoC6\pdl\drivers\peripheral\sysclk/cy_sysclk.h ****     return (bool)(_FLD2VAL(SRSS_CLK_FLL_STATUS_LOCKED, SRSS->CLK_FLL_STATUS));
 813:Generated_Source\PSoC6\pdl\drivers\peripheral\sysclk/cy_sysclk.h **** }
 814:Generated_Source\PSoC6\pdl\drivers\peripheral\sysclk/cy_sysclk.h **** 
 815:Generated_Source\PSoC6\pdl\drivers\peripheral\sysclk/cy_sysclk.h **** /*******************************************************************************
 816:Generated_Source\PSoC6\pdl\drivers\peripheral\sysclk/cy_sysclk.h **** * Function Name: Cy_SysClk_FllLostLock
 817:Generated_Source\PSoC6\pdl\drivers\peripheral\sysclk/cy_sysclk.h **** ****************************************************************************//**
ARM GAS  C:\Users\kiwamu\AppData\Local\Temp\ccIx7zyv.s 			page 57


 818:Generated_Source\PSoC6\pdl\drivers\peripheral\sysclk/cy_sysclk.h **** *
 819:Generated_Source\PSoC6\pdl\drivers\peripheral\sysclk/cy_sysclk.h **** * Reports whether or not the FLL lost its lock since the last time this function
 820:Generated_Source\PSoC6\pdl\drivers\peripheral\sysclk/cy_sysclk.h **** * was called. Clears the lost lock indicator.
 821:Generated_Source\PSoC6\pdl\drivers\peripheral\sysclk/cy_sysclk.h **** *
 822:Generated_Source\PSoC6\pdl\drivers\peripheral\sysclk/cy_sysclk.h **** * \return false = didn't lose lock, true = lost lock
 823:Generated_Source\PSoC6\pdl\drivers\peripheral\sysclk/cy_sysclk.h **** *
 824:Generated_Source\PSoC6\pdl\drivers\peripheral\sysclk/cy_sysclk.h **** *******************************************************************************/
 825:Generated_Source\PSoC6\pdl\drivers\peripheral\sysclk/cy_sysclk.h **** __STATIC_INLINE bool Cy_SysClk_FllLostLock(void)
 826:Generated_Source\PSoC6\pdl\drivers\peripheral\sysclk/cy_sysclk.h **** {
 827:Generated_Source\PSoC6\pdl\drivers\peripheral\sysclk/cy_sysclk.h ****     uint32_t retval = _FLD2VAL(SRSS_CLK_FLL_STATUS_UNLOCK_OCCURRED, SRSS->CLK_FLL_STATUS);
 828:Generated_Source\PSoC6\pdl\drivers\peripheral\sysclk/cy_sysclk.h ****     /* write a 1 to clear the unlock occurred bit */
 829:Generated_Source\PSoC6\pdl\drivers\peripheral\sysclk/cy_sysclk.h ****     SRSS->CLK_FLL_STATUS = _VAL2FLD(SRSS_CLK_FLL_STATUS_UNLOCK_OCCURRED, 1u);
 830:Generated_Source\PSoC6\pdl\drivers\peripheral\sysclk/cy_sysclk.h ****     return ((bool)retval);
 831:Generated_Source\PSoC6\pdl\drivers\peripheral\sysclk/cy_sysclk.h **** }
 832:Generated_Source\PSoC6\pdl\drivers\peripheral\sysclk/cy_sysclk.h **** 
 833:Generated_Source\PSoC6\pdl\drivers\peripheral\sysclk/cy_sysclk.h **** /*******************************************************************************
 834:Generated_Source\PSoC6\pdl\drivers\peripheral\sysclk/cy_sysclk.h **** * Function Name: Cy_SysClk_FllDisable
 835:Generated_Source\PSoC6\pdl\drivers\peripheral\sysclk/cy_sysclk.h **** ****************************************************************************//**
 836:Generated_Source\PSoC6\pdl\drivers\peripheral\sysclk/cy_sysclk.h **** *
 837:Generated_Source\PSoC6\pdl\drivers\peripheral\sysclk/cy_sysclk.h **** * Disables the FLL and the CCO.
 838:Generated_Source\PSoC6\pdl\drivers\peripheral\sysclk/cy_sysclk.h **** *
 839:Generated_Source\PSoC6\pdl\drivers\peripheral\sysclk/cy_sysclk.h **** * \return \ref cy_en_sysclk_status_t
 840:Generated_Source\PSoC6\pdl\drivers\peripheral\sysclk/cy_sysclk.h **** *
 841:Generated_Source\PSoC6\pdl\drivers\peripheral\sysclk/cy_sysclk.h **** *******************************************************************************/
 842:Generated_Source\PSoC6\pdl\drivers\peripheral\sysclk/cy_sysclk.h **** __STATIC_INLINE cy_en_sysclk_status_t Cy_SysClk_FllDisable(void)
 843:Generated_Source\PSoC6\pdl\drivers\peripheral\sysclk/cy_sysclk.h **** {
 844:Generated_Source\PSoC6\pdl\drivers\peripheral\sysclk/cy_sysclk.h ****     SRSS->CLK_FLL_CONFIG  &= ~_VAL2FLD(SRSS_CLK_FLL_CONFIG_FLL_ENABLE,  1u); /* 0 = disable */
 1704              		.loc 2 844 0 is_stmt 1
 1705 007e 0F4A     		ldr	r2, .L125
 1706 0080 B021     		movs	r1, #176
 1707 0082 C900     		lsls	r1, r1, #3
 1708 0084 5358     		ldr	r3, [r2, r1]
 1709 0086 5B00     		lsls	r3, r3, #1
 1710 0088 5B08     		lsrs	r3, r3, #1
 1711 008a 5350     		str	r3, [r2, r1]
 845:Generated_Source\PSoC6\pdl\drivers\peripheral\sysclk/cy_sysclk.h ****     SRSS->CLK_FLL_CONFIG4 &= ~_VAL2FLD(SRSS_CLK_FLL_CONFIG4_CCO_ENABLE, 1u); /* 0 = disable */
 1712              		.loc 2 845 0
 1713 008c 0C49     		ldr	r1, .L125+4
 1714 008e 5358     		ldr	r3, [r2, r1]
 1715 0090 5B00     		lsls	r3, r3, #1
 1716 0092 5B08     		lsrs	r3, r3, #1
 1717 0094 5350     		str	r3, [r2, r1]
 1718 0096 0BE0     		b	.L122
 1719              	.L121:
 1720              	.LBE38:
 1721              	.LBE37:
 584:Generated_Source\PSoC6\pdl\drivers\peripheral\sysclk/cy_sysclk.c ****     {
 585:Generated_Source\PSoC6\pdl\drivers\peripheral\sysclk/cy_sysclk.c ****         (void)Cy_SysClk_FllDisable();
 586:Generated_Source\PSoC6\pdl\drivers\peripheral\sysclk/cy_sysclk.c ****     }
 587:Generated_Source\PSoC6\pdl\drivers\peripheral\sysclk/cy_sysclk.c ****     else
 588:Generated_Source\PSoC6\pdl\drivers\peripheral\sysclk/cy_sysclk.c ****     { /* Lock occurred; we need to clear the unlock occurred bit.
 589:Generated_Source\PSoC6\pdl\drivers\peripheral\sysclk/cy_sysclk.c ****          Do so by writing a 1 to it. */
 590:Generated_Source\PSoC6\pdl\drivers\peripheral\sysclk/cy_sysclk.c ****         SRSS->CLK_FLL_STATUS = _VAL2FLD(SRSS_CLK_FLL_STATUS_UNLOCK_OCCURRED, 1ul);
 1722              		.loc 1 590 0
 1723 0098 084B     		ldr	r3, .L125
 1724 009a 0221     		movs	r1, #2
 1725 009c B222     		movs	r2, #178
ARM GAS  C:\Users\kiwamu\AppData\Local\Temp\ccIx7zyv.s 			page 58


 1726 009e D200     		lsls	r2, r2, #3
 1727 00a0 9950     		str	r1, [r3, r2]
 591:Generated_Source\PSoC6\pdl\drivers\peripheral\sysclk/cy_sysclk.c ****         /* Set the FLL bypass mode to 3 */
 592:Generated_Source\PSoC6\pdl\drivers\peripheral\sysclk/cy_sysclk.c ****         CY_SYSCLK_CLR_SET(SRSS->CLK_FLL_CONFIG3, SRSS_CLK_FLL_CONFIG3_BYPASS_SEL,
 1728              		.loc 1 592 0
 1729 00a2 B121     		movs	r1, #177
 1730 00a4 C900     		lsls	r1, r1, #3
 1731 00a6 5A58     		ldr	r2, [r3, r1]
 1732 00a8 C020     		movs	r0, #192
 1733 00aa 8005     		lsls	r0, r0, #22
 1734 00ac 0243     		orrs	r2, r0
 1735 00ae 5A50     		str	r2, [r3, r1]
 1736              	.L122:
 593:Generated_Source\PSoC6\pdl\drivers\peripheral\sysclk/cy_sysclk.c ****                           (uint32_t)CY_SYSCLK_FLLPLL_OUTPUT_OUTPUT);
 594:Generated_Source\PSoC6\pdl\drivers\peripheral\sysclk/cy_sysclk.c ****     }
 595:Generated_Source\PSoC6\pdl\drivers\peripheral\sysclk/cy_sysclk.c **** 
 596:Generated_Source\PSoC6\pdl\drivers\peripheral\sysclk/cy_sysclk.c ****     rtnval = ((timeoutus == 0ul) ? CY_SYSCLK_TIMEOUT : CY_SYSCLK_SUCCESS);
 1737              		.loc 1 596 0
 1738 00b0 002C     		cmp	r4, #0
 1739 00b2 01D1     		bne	.L124
 1740 00b4 0448     		ldr	r0, .L125+12
 1741 00b6 00E0     		b	.L123
 1742              	.L124:
 1743 00b8 0020     		movs	r0, #0
 1744              	.L123:
 1745              	.LVL235:
 597:Generated_Source\PSoC6\pdl\drivers\peripheral\sysclk/cy_sysclk.c ****     return rtnval;
 598:Generated_Source\PSoC6\pdl\drivers\peripheral\sysclk/cy_sysclk.c **** }
 1746              		.loc 1 598 0 discriminator 4
 1747              		@ sp needed
 1748              	.LVL236:
 1749              	.LVL237:
 1750 00ba 70BD     		pop	{r4, r5, r6, pc}
 1751              	.L126:
 1752              		.align	2
 1753              	.L125:
 1754 00bc 00002640 		.word	1076232192
 1755 00c0 8C050000 		.word	1420
 1756 00c4 FFFFFFCF 		.word	-805306369
 1757 00c8 02004A00 		.word	4849666
 1758              		.cfi_endproc
 1759              	.LFE146:
 1760              		.size	Cy_SysClk_FllEnable, .-Cy_SysClk_FllEnable
 1761              		.section	.text.Cy_SysClk_PllManualConfigure,"ax",%progbits
 1762              		.align	2
 1763              		.global	Cy_SysClk_PllManualConfigure
 1764              		.code	16
 1765              		.thumb_func
 1766              		.type	Cy_SysClk_PllManualConfigure, %function
 1767              	Cy_SysClk_PllManualConfigure:
 1768              	.LFB148:
 599:Generated_Source\PSoC6\pdl\drivers\peripheral\sysclk/cy_sysclk.c **** /** \} group_sysclk_fll_funcs */
 600:Generated_Source\PSoC6\pdl\drivers\peripheral\sysclk/cy_sysclk.c **** 
 601:Generated_Source\PSoC6\pdl\drivers\peripheral\sysclk/cy_sysclk.c **** 
 602:Generated_Source\PSoC6\pdl\drivers\peripheral\sysclk/cy_sysclk.c **** /* ========================================================================== */
 603:Generated_Source\PSoC6\pdl\drivers\peripheral\sysclk/cy_sysclk.c **** /* ===========================    PLL SECTION    ============================ */
 604:Generated_Source\PSoC6\pdl\drivers\peripheral\sysclk/cy_sysclk.c **** /* ========================================================================== */
ARM GAS  C:\Users\kiwamu\AppData\Local\Temp\ccIx7zyv.s 			page 59


 605:Generated_Source\PSoC6\pdl\drivers\peripheral\sysclk/cy_sysclk.c **** /** \cond INTERNAL */
 606:Generated_Source\PSoC6\pdl\drivers\peripheral\sysclk/cy_sysclk.c **** /* PLL OUTPUT_DIV bitfield allowable range */
 607:Generated_Source\PSoC6\pdl\drivers\peripheral\sysclk/cy_sysclk.c **** #define MIN_OUTPUT_DIV     2UL
 608:Generated_Source\PSoC6\pdl\drivers\peripheral\sysclk/cy_sysclk.c **** #define MAX_OUTPUT_DIV    16UL
 609:Generated_Source\PSoC6\pdl\drivers\peripheral\sysclk/cy_sysclk.c **** 
 610:Generated_Source\PSoC6\pdl\drivers\peripheral\sysclk/cy_sysclk.c **** /* PLL REFERENCE_DIV bitfield allowable range */
 611:Generated_Source\PSoC6\pdl\drivers\peripheral\sysclk/cy_sysclk.c **** #define MIN_REF_DIV        1UL
 612:Generated_Source\PSoC6\pdl\drivers\peripheral\sysclk/cy_sysclk.c **** #define MAX_REF_DIV       18UL
 613:Generated_Source\PSoC6\pdl\drivers\peripheral\sysclk/cy_sysclk.c **** 
 614:Generated_Source\PSoC6\pdl\drivers\peripheral\sysclk/cy_sysclk.c **** /* PLL FEEDBACK_DIV bitfield allowable ranges, LF and normal modes */
 615:Generated_Source\PSoC6\pdl\drivers\peripheral\sysclk/cy_sysclk.c **** #define MIN_FB_DIV_LF     19UL
 616:Generated_Source\PSoC6\pdl\drivers\peripheral\sysclk/cy_sysclk.c **** #define MAX_FB_DIV_LF     56UL
 617:Generated_Source\PSoC6\pdl\drivers\peripheral\sysclk/cy_sysclk.c **** #define MIN_FB_DIV_NORM   22UL
 618:Generated_Source\PSoC6\pdl\drivers\peripheral\sysclk/cy_sysclk.c **** #define MAX_FB_DIV_NORM  112UL
 619:Generated_Source\PSoC6\pdl\drivers\peripheral\sysclk/cy_sysclk.c **** /* PLL FEEDBACK_DIV bitfield allowable range selection */
 620:Generated_Source\PSoC6\pdl\drivers\peripheral\sysclk/cy_sysclk.c **** #define MIN_FB_DIV ((config->lfMode) ? MIN_FB_DIV_LF : MIN_FB_DIV_NORM)
 621:Generated_Source\PSoC6\pdl\drivers\peripheral\sysclk/cy_sysclk.c **** #define MAX_FB_DIV ((config->lfMode) ? MAX_FB_DIV_LF : MAX_FB_DIV_NORM)
 622:Generated_Source\PSoC6\pdl\drivers\peripheral\sysclk/cy_sysclk.c **** 
 623:Generated_Source\PSoC6\pdl\drivers\peripheral\sysclk/cy_sysclk.c **** /* PLL Fvco range allowable ranges, LF and normal modes */
 624:Generated_Source\PSoC6\pdl\drivers\peripheral\sysclk/cy_sysclk.c **** #define MIN_FVCO_LF   170000000UL
 625:Generated_Source\PSoC6\pdl\drivers\peripheral\sysclk/cy_sysclk.c **** #define MAX_FVCO_LF   200000000UL
 626:Generated_Source\PSoC6\pdl\drivers\peripheral\sysclk/cy_sysclk.c **** #define MIN_FVCO_NORM 200000000UL
 627:Generated_Source\PSoC6\pdl\drivers\peripheral\sysclk/cy_sysclk.c **** #define MAX_FVCO_NORM 400000000UL
 628:Generated_Source\PSoC6\pdl\drivers\peripheral\sysclk/cy_sysclk.c **** /* PLL Fvco range selection */
 629:Generated_Source\PSoC6\pdl\drivers\peripheral\sysclk/cy_sysclk.c **** #define MIN_FVCO ((config->lfMode) ? MIN_FVCO_LF : MIN_FVCO_NORM)
 630:Generated_Source\PSoC6\pdl\drivers\peripheral\sysclk/cy_sysclk.c **** #define MAX_FVCO ((config->lfMode) ? MAX_FVCO_LF : MAX_FVCO_NORM)
 631:Generated_Source\PSoC6\pdl\drivers\peripheral\sysclk/cy_sysclk.c **** 
 632:Generated_Source\PSoC6\pdl\drivers\peripheral\sysclk/cy_sysclk.c **** /* PLL input and output frequency limits */
 633:Generated_Source\PSoC6\pdl\drivers\peripheral\sysclk/cy_sysclk.c **** #define MIN_IN_FREQ    4000000UL
 634:Generated_Source\PSoC6\pdl\drivers\peripheral\sysclk/cy_sysclk.c **** #define MAX_IN_FREQ   64000000UL
 635:Generated_Source\PSoC6\pdl\drivers\peripheral\sysclk/cy_sysclk.c **** #define MIN_OUT_FREQ ((config->lfMode) ? (MIN_FVCO_LF / MAX_OUTPUT_DIV) : (MIN_FVCO_NORM / MAX_OUTP
 636:Generated_Source\PSoC6\pdl\drivers\peripheral\sysclk/cy_sysclk.c **** #define MAX_OUT_FREQ CY_HF_CLK_MAX_FREQ
 637:Generated_Source\PSoC6\pdl\drivers\peripheral\sysclk/cy_sysclk.c **** /** \endcond */
 638:Generated_Source\PSoC6\pdl\drivers\peripheral\sysclk/cy_sysclk.c **** 
 639:Generated_Source\PSoC6\pdl\drivers\peripheral\sysclk/cy_sysclk.c **** /**
 640:Generated_Source\PSoC6\pdl\drivers\peripheral\sysclk/cy_sysclk.c **** * \addtogroup group_sysclk_pll_funcs
 641:Generated_Source\PSoC6\pdl\drivers\peripheral\sysclk/cy_sysclk.c **** * \{
 642:Generated_Source\PSoC6\pdl\drivers\peripheral\sysclk/cy_sysclk.c **** */
 643:Generated_Source\PSoC6\pdl\drivers\peripheral\sysclk/cy_sysclk.c **** /*******************************************************************************
 644:Generated_Source\PSoC6\pdl\drivers\peripheral\sysclk/cy_sysclk.c **** * Function Name: Cy_SysClk_PllConfigure
 645:Generated_Source\PSoC6\pdl\drivers\peripheral\sysclk/cy_sysclk.c **** ****************************************************************************//**
 646:Generated_Source\PSoC6\pdl\drivers\peripheral\sysclk/cy_sysclk.c **** *
 647:Generated_Source\PSoC6\pdl\drivers\peripheral\sysclk/cy_sysclk.c **** * Configures a given PLL.
 648:Generated_Source\PSoC6\pdl\drivers\peripheral\sysclk/cy_sysclk.c **** * The configuration formula used is:
 649:Generated_Source\PSoC6\pdl\drivers\peripheral\sysclk/cy_sysclk.c **** *   Fout = pll_clk * (P / Q / div_out), where:
 650:Generated_Source\PSoC6\pdl\drivers\peripheral\sysclk/cy_sysclk.c **** *     Fout is the desired output frequency
 651:Generated_Source\PSoC6\pdl\drivers\peripheral\sysclk/cy_sysclk.c **** *     pll_clk is the frequency of the input source
 652:Generated_Source\PSoC6\pdl\drivers\peripheral\sysclk/cy_sysclk.c **** *     P is the feedback divider. Its value is in bitfield FEEDBACK_DIV.
 653:Generated_Source\PSoC6\pdl\drivers\peripheral\sysclk/cy_sysclk.c **** *     Q is the reference divider. Its value is in bitfield REFERENCE_DIV.
 654:Generated_Source\PSoC6\pdl\drivers\peripheral\sysclk/cy_sysclk.c **** *     div_out is the reference divider. Its value is in bitfield OUTPUT_DIV.
 655:Generated_Source\PSoC6\pdl\drivers\peripheral\sysclk/cy_sysclk.c **** *
 656:Generated_Source\PSoC6\pdl\drivers\peripheral\sysclk/cy_sysclk.c **** * \param clkPath Selects which PLL to configure. 1 is the first PLL; 0 is invalid.
 657:Generated_Source\PSoC6\pdl\drivers\peripheral\sysclk/cy_sysclk.c **** *
 658:Generated_Source\PSoC6\pdl\drivers\peripheral\sysclk/cy_sysclk.c **** * \param config \ref cy_stc_pll_config_t
 659:Generated_Source\PSoC6\pdl\drivers\peripheral\sysclk/cy_sysclk.c **** *
 660:Generated_Source\PSoC6\pdl\drivers\peripheral\sysclk/cy_sysclk.c **** * \return  Error / status code:<br>
 661:Generated_Source\PSoC6\pdl\drivers\peripheral\sysclk/cy_sysclk.c **** * CY_SYSCLK_SUCCESS - PLL successfully configured<br>
ARM GAS  C:\Users\kiwamu\AppData\Local\Temp\ccIx7zyv.s 			page 60


 662:Generated_Source\PSoC6\pdl\drivers\peripheral\sysclk/cy_sysclk.c **** * CY_SYSCLK_INVALID_STATE - PLL not configured because it is enabled<br>
 663:Generated_Source\PSoC6\pdl\drivers\peripheral\sysclk/cy_sysclk.c **** * CY_SYSCLK_BAD_PARAM - invalid clock path number, or input or desired output frequency is out of v
 664:Generated_Source\PSoC6\pdl\drivers\peripheral\sysclk/cy_sysclk.c **** *
 665:Generated_Source\PSoC6\pdl\drivers\peripheral\sysclk/cy_sysclk.c **** * \note
 666:Generated_Source\PSoC6\pdl\drivers\peripheral\sysclk/cy_sysclk.c **** * Call this function after changing the PLL input frequency, for example if
 667:Generated_Source\PSoC6\pdl\drivers\peripheral\sysclk/cy_sysclk.c **** * \ref Cy_SysClk_ClkPathSetSource() is called.
 668:Generated_Source\PSoC6\pdl\drivers\peripheral\sysclk/cy_sysclk.c **** * \note
 669:Generated_Source\PSoC6\pdl\drivers\peripheral\sysclk/cy_sysclk.c **** * Do not call this function when the PLL is enabled. If it is, then this function
 670:Generated_Source\PSoC6\pdl\drivers\peripheral\sysclk/cy_sysclk.c **** * returns immediately with an error return value and no register updates.
 671:Generated_Source\PSoC6\pdl\drivers\peripheral\sysclk/cy_sysclk.c **** *******************************************************************************/
 672:Generated_Source\PSoC6\pdl\drivers\peripheral\sysclk/cy_sysclk.c **** cy_en_sysclk_status_t Cy_SysClk_PllConfigure(uint32_t clkPath, const cy_stc_pll_config_t *config)
 673:Generated_Source\PSoC6\pdl\drivers\peripheral\sysclk/cy_sysclk.c **** {
 674:Generated_Source\PSoC6\pdl\drivers\peripheral\sysclk/cy_sysclk.c ****     cy_en_sysclk_status_t returnStatus = CY_SYSCLK_SUCCESS;
 675:Generated_Source\PSoC6\pdl\drivers\peripheral\sysclk/cy_sysclk.c **** 
 676:Generated_Source\PSoC6\pdl\drivers\peripheral\sysclk/cy_sysclk.c ****     /* check for error */
 677:Generated_Source\PSoC6\pdl\drivers\peripheral\sysclk/cy_sysclk.c ****     if ((clkPath == 0ul) || (clkPath > SRSS_NUM_PLL)) /* invalid clock path number */
 678:Generated_Source\PSoC6\pdl\drivers\peripheral\sysclk/cy_sysclk.c ****     {
 679:Generated_Source\PSoC6\pdl\drivers\peripheral\sysclk/cy_sysclk.c ****         returnStatus = CY_SYSCLK_BAD_PARAM;
 680:Generated_Source\PSoC6\pdl\drivers\peripheral\sysclk/cy_sysclk.c ****     }
 681:Generated_Source\PSoC6\pdl\drivers\peripheral\sysclk/cy_sysclk.c ****     else if (_FLD2VAL(SRSS_CLK_PLL_CONFIG_ENABLE, SRSS->CLK_PLL_CONFIG[clkPath - 1ul]) != 0u) /* 1 
 682:Generated_Source\PSoC6\pdl\drivers\peripheral\sysclk/cy_sysclk.c ****     {
 683:Generated_Source\PSoC6\pdl\drivers\peripheral\sysclk/cy_sysclk.c ****         returnStatus = CY_SYSCLK_INVALID_STATE;
 684:Generated_Source\PSoC6\pdl\drivers\peripheral\sysclk/cy_sysclk.c ****     }
 685:Generated_Source\PSoC6\pdl\drivers\peripheral\sysclk/cy_sysclk.c ****     /* invalid input frequency */
 686:Generated_Source\PSoC6\pdl\drivers\peripheral\sysclk/cy_sysclk.c ****     else if (((config->inputFreq) < MIN_IN_FREQ) || (MAX_IN_FREQ < (config->inputFreq)))
 687:Generated_Source\PSoC6\pdl\drivers\peripheral\sysclk/cy_sysclk.c ****     {
 688:Generated_Source\PSoC6\pdl\drivers\peripheral\sysclk/cy_sysclk.c ****         returnStatus = CY_SYSCLK_BAD_PARAM;
 689:Generated_Source\PSoC6\pdl\drivers\peripheral\sysclk/cy_sysclk.c ****     }
 690:Generated_Source\PSoC6\pdl\drivers\peripheral\sysclk/cy_sysclk.c ****     /* invalid output frequency */
 691:Generated_Source\PSoC6\pdl\drivers\peripheral\sysclk/cy_sysclk.c ****     else if (((config->outputFreq) < MIN_OUT_FREQ) || (MAX_OUT_FREQ < (config->outputFreq)))
 692:Generated_Source\PSoC6\pdl\drivers\peripheral\sysclk/cy_sysclk.c ****     {
 693:Generated_Source\PSoC6\pdl\drivers\peripheral\sysclk/cy_sysclk.c ****         returnStatus = CY_SYSCLK_BAD_PARAM;
 694:Generated_Source\PSoC6\pdl\drivers\peripheral\sysclk/cy_sysclk.c ****     }
 695:Generated_Source\PSoC6\pdl\drivers\peripheral\sysclk/cy_sysclk.c ****     else
 696:Generated_Source\PSoC6\pdl\drivers\peripheral\sysclk/cy_sysclk.c ****     { /* returnStatus is OK */
 697:Generated_Source\PSoC6\pdl\drivers\peripheral\sysclk/cy_sysclk.c ****     }
 698:Generated_Source\PSoC6\pdl\drivers\peripheral\sysclk/cy_sysclk.c **** 
 699:Generated_Source\PSoC6\pdl\drivers\peripheral\sysclk/cy_sysclk.c ****     /* no errors */
 700:Generated_Source\PSoC6\pdl\drivers\peripheral\sysclk/cy_sysclk.c ****     if (returnStatus == CY_SYSCLK_SUCCESS)
 701:Generated_Source\PSoC6\pdl\drivers\peripheral\sysclk/cy_sysclk.c ****     {
 702:Generated_Source\PSoC6\pdl\drivers\peripheral\sysclk/cy_sysclk.c ****         cy_stc_pll_manual_config_t manualConfig;
 703:Generated_Source\PSoC6\pdl\drivers\peripheral\sysclk/cy_sysclk.c ****         manualConfig.feedbackDiv = 0ul;
 704:Generated_Source\PSoC6\pdl\drivers\peripheral\sysclk/cy_sysclk.c ****         manualConfig.referenceDiv = 0ul;
 705:Generated_Source\PSoC6\pdl\drivers\peripheral\sysclk/cy_sysclk.c ****         manualConfig.outputDiv = 0ul;
 706:Generated_Source\PSoC6\pdl\drivers\peripheral\sysclk/cy_sysclk.c **** 
 707:Generated_Source\PSoC6\pdl\drivers\peripheral\sysclk/cy_sysclk.c ****         /* If output mode is bypass (input routed directly to output), then done.
 708:Generated_Source\PSoC6\pdl\drivers\peripheral\sysclk/cy_sysclk.c ****            The output frequency equals the input frequency regardless of the
 709:Generated_Source\PSoC6\pdl\drivers\peripheral\sysclk/cy_sysclk.c ****            frequency parameters. */
 710:Generated_Source\PSoC6\pdl\drivers\peripheral\sysclk/cy_sysclk.c ****         if (config->outputMode != CY_SYSCLK_FLLPLL_OUTPUT_INPUT)
 711:Generated_Source\PSoC6\pdl\drivers\peripheral\sysclk/cy_sysclk.c ****         {
 712:Generated_Source\PSoC6\pdl\drivers\peripheral\sysclk/cy_sysclk.c ****             /* for each possible value of OUTPUT_DIV and REFERENCE_DIV (Q), try
 713:Generated_Source\PSoC6\pdl\drivers\peripheral\sysclk/cy_sysclk.c ****                to find a value for FEEDBACK_DIV (P) that gives an output frequency
 714:Generated_Source\PSoC6\pdl\drivers\peripheral\sysclk/cy_sysclk.c ****                as close as possible to the desired output frequency. */
 715:Generated_Source\PSoC6\pdl\drivers\peripheral\sysclk/cy_sysclk.c ****             uint32_t p, q, out;
 716:Generated_Source\PSoC6\pdl\drivers\peripheral\sysclk/cy_sysclk.c ****             uint32_t foutBest = 0ul; /* to ensure at least one pass through the for loops below */
 717:Generated_Source\PSoC6\pdl\drivers\peripheral\sysclk/cy_sysclk.c **** 
 718:Generated_Source\PSoC6\pdl\drivers\peripheral\sysclk/cy_sysclk.c ****             /* REFERENCE_DIV (Q) selection */
ARM GAS  C:\Users\kiwamu\AppData\Local\Temp\ccIx7zyv.s 			page 61


 719:Generated_Source\PSoC6\pdl\drivers\peripheral\sysclk/cy_sysclk.c ****             for (q = MIN_REF_DIV; (q <= MAX_REF_DIV) && (foutBest != (config->outputFreq)); q++)
 720:Generated_Source\PSoC6\pdl\drivers\peripheral\sysclk/cy_sysclk.c ****             {
 721:Generated_Source\PSoC6\pdl\drivers\peripheral\sysclk/cy_sysclk.c ****                 /* FEEDBACK_DIV (P) selection */
 722:Generated_Source\PSoC6\pdl\drivers\peripheral\sysclk/cy_sysclk.c ****                 for (p = MIN_FB_DIV; (p <= MAX_FB_DIV) && (foutBest != (config->outputFreq)); p++)
 723:Generated_Source\PSoC6\pdl\drivers\peripheral\sysclk/cy_sysclk.c ****                 {
 724:Generated_Source\PSoC6\pdl\drivers\peripheral\sysclk/cy_sysclk.c ****                     /* Calculate the intermediate Fvco, and make sure that it's in range. */
 725:Generated_Source\PSoC6\pdl\drivers\peripheral\sysclk/cy_sysclk.c ****                     uint32_t fvco = (uint32_t)(((uint64_t)(config->inputFreq) * (uint64_t)p) / (uin
 726:Generated_Source\PSoC6\pdl\drivers\peripheral\sysclk/cy_sysclk.c ****                     if ((MIN_FVCO <= fvco) && (fvco <= MAX_FVCO))
 727:Generated_Source\PSoC6\pdl\drivers\peripheral\sysclk/cy_sysclk.c ****                     {
 728:Generated_Source\PSoC6\pdl\drivers\peripheral\sysclk/cy_sysclk.c ****                         /* OUTPUT_DIV selection */
 729:Generated_Source\PSoC6\pdl\drivers\peripheral\sysclk/cy_sysclk.c ****                         for (out = MIN_OUTPUT_DIV; (out <= MAX_OUTPUT_DIV) && (foutBest != (config-
 730:Generated_Source\PSoC6\pdl\drivers\peripheral\sysclk/cy_sysclk.c ****                         {
 731:Generated_Source\PSoC6\pdl\drivers\peripheral\sysclk/cy_sysclk.c ****                             /* Calculate what output frequency will actually be produced. 
 732:Generated_Source\PSoC6\pdl\drivers\peripheral\sysclk/cy_sysclk.c ****                                If it's closer to the target than what we have so far, then save it.
 733:Generated_Source\PSoC6\pdl\drivers\peripheral\sysclk/cy_sysclk.c ****                             uint32_t fout = ((p * config->inputFreq) / q) / out;
 734:Generated_Source\PSoC6\pdl\drivers\peripheral\sysclk/cy_sysclk.c ****                             if ((uint32_t)abs((int32_t)fout - (int32_t)(config->outputFreq)) <
 735:Generated_Source\PSoC6\pdl\drivers\peripheral\sysclk/cy_sysclk.c ****                                 (uint32_t)abs((int32_t)foutBest - (int32_t)(config->outputFreq)))
 736:Generated_Source\PSoC6\pdl\drivers\peripheral\sysclk/cy_sysclk.c ****                             {
 737:Generated_Source\PSoC6\pdl\drivers\peripheral\sysclk/cy_sysclk.c ****                                 foutBest = fout;
 738:Generated_Source\PSoC6\pdl\drivers\peripheral\sysclk/cy_sysclk.c ****                                 manualConfig.feedbackDiv  = p;
 739:Generated_Source\PSoC6\pdl\drivers\peripheral\sysclk/cy_sysclk.c ****                                 manualConfig.referenceDiv = q;
 740:Generated_Source\PSoC6\pdl\drivers\peripheral\sysclk/cy_sysclk.c ****                                 manualConfig.outputDiv    = out;
 741:Generated_Source\PSoC6\pdl\drivers\peripheral\sysclk/cy_sysclk.c ****                             }
 742:Generated_Source\PSoC6\pdl\drivers\peripheral\sysclk/cy_sysclk.c ****                         }
 743:Generated_Source\PSoC6\pdl\drivers\peripheral\sysclk/cy_sysclk.c ****                     }
 744:Generated_Source\PSoC6\pdl\drivers\peripheral\sysclk/cy_sysclk.c ****                 }
 745:Generated_Source\PSoC6\pdl\drivers\peripheral\sysclk/cy_sysclk.c ****             }
 746:Generated_Source\PSoC6\pdl\drivers\peripheral\sysclk/cy_sysclk.c ****             /* exit loops if foutBest equals outputFreq */
 747:Generated_Source\PSoC6\pdl\drivers\peripheral\sysclk/cy_sysclk.c ****         } /* if not bypass output mode */
 748:Generated_Source\PSoC6\pdl\drivers\peripheral\sysclk/cy_sysclk.c **** 
 749:Generated_Source\PSoC6\pdl\drivers\peripheral\sysclk/cy_sysclk.c ****         /* configure PLL based on calculated values */
 750:Generated_Source\PSoC6\pdl\drivers\peripheral\sysclk/cy_sysclk.c ****         manualConfig.lfMode     = config->lfMode;
 751:Generated_Source\PSoC6\pdl\drivers\peripheral\sysclk/cy_sysclk.c ****         manualConfig.outputMode = config->outputMode;
 752:Generated_Source\PSoC6\pdl\drivers\peripheral\sysclk/cy_sysclk.c ****         returnStatus = Cy_SysClk_PllManualConfigure(clkPath, &manualConfig);
 753:Generated_Source\PSoC6\pdl\drivers\peripheral\sysclk/cy_sysclk.c **** 
 754:Generated_Source\PSoC6\pdl\drivers\peripheral\sysclk/cy_sysclk.c ****     } /* if no error */
 755:Generated_Source\PSoC6\pdl\drivers\peripheral\sysclk/cy_sysclk.c **** 
 756:Generated_Source\PSoC6\pdl\drivers\peripheral\sysclk/cy_sysclk.c ****     return (returnStatus);
 757:Generated_Source\PSoC6\pdl\drivers\peripheral\sysclk/cy_sysclk.c **** }
 758:Generated_Source\PSoC6\pdl\drivers\peripheral\sysclk/cy_sysclk.c **** 
 759:Generated_Source\PSoC6\pdl\drivers\peripheral\sysclk/cy_sysclk.c **** /*******************************************************************************
 760:Generated_Source\PSoC6\pdl\drivers\peripheral\sysclk/cy_sysclk.c **** * Function Name: Cy_SysClk_PllManualConfigure
 761:Generated_Source\PSoC6\pdl\drivers\peripheral\sysclk/cy_sysclk.c **** ****************************************************************************//**
 762:Generated_Source\PSoC6\pdl\drivers\peripheral\sysclk/cy_sysclk.c **** *
 763:Generated_Source\PSoC6\pdl\drivers\peripheral\sysclk/cy_sysclk.c **** * Manually configures a PLL based on user inputs.
 764:Generated_Source\PSoC6\pdl\drivers\peripheral\sysclk/cy_sysclk.c **** *
 765:Generated_Source\PSoC6\pdl\drivers\peripheral\sysclk/cy_sysclk.c **** * \param clkPath Selects which PLL to configure. 1 is the first PLL; 0 is invalid.
 766:Generated_Source\PSoC6\pdl\drivers\peripheral\sysclk/cy_sysclk.c **** *
 767:Generated_Source\PSoC6\pdl\drivers\peripheral\sysclk/cy_sysclk.c **** * \param config \ref cy_stc_pll_manual_config_t
 768:Generated_Source\PSoC6\pdl\drivers\peripheral\sysclk/cy_sysclk.c **** *
 769:Generated_Source\PSoC6\pdl\drivers\peripheral\sysclk/cy_sysclk.c **** * \return  Error / status code:<br>
 770:Generated_Source\PSoC6\pdl\drivers\peripheral\sysclk/cy_sysclk.c **** * CY_SYSCLK_SUCCESS - PLL successfully configured<br>
 771:Generated_Source\PSoC6\pdl\drivers\peripheral\sysclk/cy_sysclk.c **** * CY_SYSCLK_INVALID_STATE - PLL not configured because it is enabled<br>
 772:Generated_Source\PSoC6\pdl\drivers\peripheral\sysclk/cy_sysclk.c **** * CY_SYSCLK_BAD_PARAM - invalid clock path number
 773:Generated_Source\PSoC6\pdl\drivers\peripheral\sysclk/cy_sysclk.c **** *
 774:Generated_Source\PSoC6\pdl\drivers\peripheral\sysclk/cy_sysclk.c **** * \note
 775:Generated_Source\PSoC6\pdl\drivers\peripheral\sysclk/cy_sysclk.c **** * Call this function after changing the PLL input frequency, for example if
ARM GAS  C:\Users\kiwamu\AppData\Local\Temp\ccIx7zyv.s 			page 62


 776:Generated_Source\PSoC6\pdl\drivers\peripheral\sysclk/cy_sysclk.c **** * \ref Cy_SysClk_ClkPathSetSource() is called.
 777:Generated_Source\PSoC6\pdl\drivers\peripheral\sysclk/cy_sysclk.c **** * \note
 778:Generated_Source\PSoC6\pdl\drivers\peripheral\sysclk/cy_sysclk.c **** * Do not call this function when the PLL is enabled. If it is, then this function
 779:Generated_Source\PSoC6\pdl\drivers\peripheral\sysclk/cy_sysclk.c **** * returns immediately with an error return value and no register updates.
 780:Generated_Source\PSoC6\pdl\drivers\peripheral\sysclk/cy_sysclk.c **** *******************************************************************************/
 781:Generated_Source\PSoC6\pdl\drivers\peripheral\sysclk/cy_sysclk.c **** cy_en_sysclk_status_t Cy_SysClk_PllManualConfigure(uint32_t clkPath, const cy_stc_pll_manual_config
 782:Generated_Source\PSoC6\pdl\drivers\peripheral\sysclk/cy_sysclk.c **** {
 1769              		.loc 1 782 0
 1770              		.cfi_startproc
 1771              		@ args = 0, pretend = 0, frame = 0
 1772              		@ frame_needed = 0, uses_anonymous_args = 0
 1773              	.LVL238:
 1774 0000 70B5     		push	{r4, r5, r6, lr}
 1775              		.cfi_def_cfa_offset 16
 1776              		.cfi_offset 4, -16
 1777              		.cfi_offset 5, -12
 1778              		.cfi_offset 6, -8
 1779              		.cfi_offset 14, -4
 1780 0002 0300     		movs	r3, r0
 1781              	.LVL239:
 783:Generated_Source\PSoC6\pdl\drivers\peripheral\sysclk/cy_sysclk.c ****     cy_en_sysclk_status_t returnStatus = CY_SYSCLK_SUCCESS;
 784:Generated_Source\PSoC6\pdl\drivers\peripheral\sysclk/cy_sysclk.c **** 
 785:Generated_Source\PSoC6\pdl\drivers\peripheral\sysclk/cy_sysclk.c ****     /* check for errors */
 786:Generated_Source\PSoC6\pdl\drivers\peripheral\sysclk/cy_sysclk.c ****     if ((clkPath == 0ul) || (clkPath > SRSS_NUM_PLL)) /* invalid clock path number */
 1782              		.loc 1 786 0
 1783 0004 0128     		cmp	r0, #1
 1784 0006 23D1     		bne	.L133
 787:Generated_Source\PSoC6\pdl\drivers\peripheral\sysclk/cy_sysclk.c ****     {
 788:Generated_Source\PSoC6\pdl\drivers\peripheral\sysclk/cy_sysclk.c ****         returnStatus = CY_SYSCLK_BAD_PARAM;
 789:Generated_Source\PSoC6\pdl\drivers\peripheral\sysclk/cy_sysclk.c ****     }
 790:Generated_Source\PSoC6\pdl\drivers\peripheral\sysclk/cy_sysclk.c ****     else if (_FLD2VAL(SRSS_CLK_PLL_CONFIG_ENABLE, SRSS->CLK_PLL_CONFIG[clkPath - 1ul]) != 0u) /* 1 
 1785              		.loc 1 790 0
 1786 0008 0200     		movs	r2, r0
 1787 000a 8032     		adds	r2, r2, #128
 1788 000c FF32     		adds	r2, r2, #255
 1789 000e 9200     		lsls	r2, r2, #2
 1790 0010 3048     		ldr	r0, .L142
 1791              	.LVL240:
 1792 0012 1258     		ldr	r2, [r2, r0]
 1793 0014 002A     		cmp	r2, #0
 1794 0016 1DDB     		blt	.L134
 791:Generated_Source\PSoC6\pdl\drivers\peripheral\sysclk/cy_sysclk.c ****     {
 792:Generated_Source\PSoC6\pdl\drivers\peripheral\sysclk/cy_sysclk.c ****         returnStatus = CY_SYSCLK_INVALID_STATE;
 793:Generated_Source\PSoC6\pdl\drivers\peripheral\sysclk/cy_sysclk.c ****     }
 794:Generated_Source\PSoC6\pdl\drivers\peripheral\sysclk/cy_sysclk.c ****     /* valid divider bitfield values */
 795:Generated_Source\PSoC6\pdl\drivers\peripheral\sysclk/cy_sysclk.c ****     else if ((config->outputDiv    < MIN_OUTPUT_DIV) || (MAX_OUTPUT_DIV < config->outputDiv)    ||
 1795              		.loc 1 795 0
 1796 0018 8A78     		ldrb	r2, [r1, #2]
 1797 001a 023A     		subs	r2, r2, #2
 1798 001c D2B2     		uxtb	r2, r2
 1799 001e 0E2A     		cmp	r2, #14
 1800 0020 1AD8     		bhi	.L135
 796:Generated_Source\PSoC6\pdl\drivers\peripheral\sysclk/cy_sysclk.c ****              (config->referenceDiv <    MIN_REF_DIV) || (MAX_REF_DIV    < config->referenceDiv) ||
 1801              		.loc 1 796 0 discriminator 1
 1802 0022 4A78     		ldrb	r2, [r1, #1]
 795:Generated_Source\PSoC6\pdl\drivers\peripheral\sysclk/cy_sysclk.c ****              (config->referenceDiv <    MIN_REF_DIV) || (MAX_REF_DIV    < config->referenceDiv) ||
 1803              		.loc 1 795 0 discriminator 1
ARM GAS  C:\Users\kiwamu\AppData\Local\Temp\ccIx7zyv.s 			page 63


 1804 0024 002A     		cmp	r2, #0
 1805 0026 19D0     		beq	.L136
 1806              		.loc 1 796 0
 1807 0028 122A     		cmp	r2, #18
 1808 002a 19D8     		bhi	.L137
 797:Generated_Source\PSoC6\pdl\drivers\peripheral\sysclk/cy_sysclk.c ****              (config->feedbackDiv  < (config->lfMode ? MIN_FB_DIV_LF : MIN_FB_DIV))             ||
 1809              		.loc 1 797 0
 1810 002c 0A78     		ldrb	r2, [r1]
 1811 002e C878     		ldrb	r0, [r1, #3]
 1812 0030 0028     		cmp	r0, #0
 1813 0032 01D0     		beq	.L138
 1814 0034 1324     		movs	r4, #19
 1815 0036 00E0     		b	.L129
 1816              	.L138:
 1817 0038 1624     		movs	r4, #22
 1818              	.L129:
 796:Generated_Source\PSoC6\pdl\drivers\peripheral\sysclk/cy_sysclk.c ****              (config->referenceDiv <    MIN_REF_DIV) || (MAX_REF_DIV    < config->referenceDiv) ||
 1819              		.loc 1 796 0
 1820 003a 9442     		cmp	r4, r2
 1821 003c 12D8     		bhi	.L139
 798:Generated_Source\PSoC6\pdl\drivers\peripheral\sysclk/cy_sysclk.c ****              ((config->lfMode ? MAX_FB_DIV_LF : MAX_FB_DIV) < config->feedbackDiv))
 1822              		.loc 1 798 0
 1823 003e 0028     		cmp	r0, #0
 1824 0040 01D0     		beq	.L140
 1825 0042 3820     		movs	r0, #56
 1826 0044 00E0     		b	.L130
 1827              	.L140:
 1828 0046 7020     		movs	r0, #112
 1829              	.L130:
 797:Generated_Source\PSoC6\pdl\drivers\peripheral\sysclk/cy_sysclk.c ****              (config->feedbackDiv  < (config->lfMode ? MIN_FB_DIV_LF : MIN_FB_DIV))             ||
 1830              		.loc 1 797 0 discriminator 4
 1831 0048 9042     		cmp	r0, r2
 1832 004a 0DD3     		bcc	.L141
 783:Generated_Source\PSoC6\pdl\drivers\peripheral\sysclk/cy_sysclk.c **** 
 1833              		.loc 1 783 0
 1834 004c 0020     		movs	r0, #0
 1835 004e 0CE0     		b	.L128
 1836              	.LVL241:
 1837              	.L133:
 788:Generated_Source\PSoC6\pdl\drivers\peripheral\sysclk/cy_sysclk.c ****     }
 1838              		.loc 1 788 0
 1839 0050 2148     		ldr	r0, .L142+4
 1840              	.LVL242:
 1841 0052 0AE0     		b	.L128
 1842              	.L134:
 792:Generated_Source\PSoC6\pdl\drivers\peripheral\sysclk/cy_sysclk.c ****     }
 1843              		.loc 1 792 0
 1844 0054 2148     		ldr	r0, .L142+8
 1845 0056 08E0     		b	.L128
 1846              	.L135:
 799:Generated_Source\PSoC6\pdl\drivers\peripheral\sysclk/cy_sysclk.c ****     {
 800:Generated_Source\PSoC6\pdl\drivers\peripheral\sysclk/cy_sysclk.c ****          returnStatus = CY_SYSCLK_BAD_PARAM;
 1847              		.loc 1 800 0
 1848 0058 1F48     		ldr	r0, .L142+4
 1849 005a 06E0     		b	.L128
 1850              	.L136:
 1851 005c 1E48     		ldr	r0, .L142+4
ARM GAS  C:\Users\kiwamu\AppData\Local\Temp\ccIx7zyv.s 			page 64


 1852 005e 04E0     		b	.L128
 1853              	.L137:
 1854 0060 1D48     		ldr	r0, .L142+4
 1855 0062 02E0     		b	.L128
 1856              	.L139:
 1857 0064 1C48     		ldr	r0, .L142+4
 1858 0066 00E0     		b	.L128
 1859              	.L141:
 1860 0068 1B48     		ldr	r0, .L142+4
 1861              	.L128:
 1862              	.LVL243:
 801:Generated_Source\PSoC6\pdl\drivers\peripheral\sysclk/cy_sysclk.c ****     }
 802:Generated_Source\PSoC6\pdl\drivers\peripheral\sysclk/cy_sysclk.c ****     else
 803:Generated_Source\PSoC6\pdl\drivers\peripheral\sysclk/cy_sysclk.c ****     { /* returnStatus is OK */
 804:Generated_Source\PSoC6\pdl\drivers\peripheral\sysclk/cy_sysclk.c ****     }
 805:Generated_Source\PSoC6\pdl\drivers\peripheral\sysclk/cy_sysclk.c **** 
 806:Generated_Source\PSoC6\pdl\drivers\peripheral\sysclk/cy_sysclk.c ****     /* no errors */
 807:Generated_Source\PSoC6\pdl\drivers\peripheral\sysclk/cy_sysclk.c ****     if (returnStatus == CY_SYSCLK_SUCCESS)
 1863              		.loc 1 807 0
 1864 006a 0028     		cmp	r0, #0
 1865 006c 30D1     		bne	.L131
 808:Generated_Source\PSoC6\pdl\drivers\peripheral\sysclk/cy_sysclk.c ****     {
 809:Generated_Source\PSoC6\pdl\drivers\peripheral\sysclk/cy_sysclk.c ****         clkPath--; /* to correctly access PLL config registers structure */
 1866              		.loc 1 809 0
 1867 006e 013B     		subs	r3, r3, #1
 1868              	.LVL244:
 810:Generated_Source\PSoC6\pdl\drivers\peripheral\sysclk/cy_sysclk.c ****         /* If output mode is bypass (input routed directly to output), then done.
 811:Generated_Source\PSoC6\pdl\drivers\peripheral\sysclk/cy_sysclk.c ****            The output frequency equals the input frequency regardless of the frequency parameters. 
 812:Generated_Source\PSoC6\pdl\drivers\peripheral\sysclk/cy_sysclk.c ****         if (config->outputMode != CY_SYSCLK_FLLPLL_OUTPUT_INPUT)
 1869              		.loc 1 812 0
 1870 0070 0A79     		ldrb	r2, [r1, #4]
 1871 0072 022A     		cmp	r2, #2
 1872 0074 1ED0     		beq	.L132
 813:Generated_Source\PSoC6\pdl\drivers\peripheral\sysclk/cy_sysclk.c ****         {
 814:Generated_Source\PSoC6\pdl\drivers\peripheral\sysclk/cy_sysclk.c ****             SRSS->CLK_PLL_CONFIG[clkPath] =
 815:Generated_Source\PSoC6\pdl\drivers\peripheral\sysclk/cy_sysclk.c ****                 _VAL2FLD(SRSS_CLK_PLL_CONFIG_FEEDBACK_DIV,  (uint32_t)(config->feedbackDiv))  |
 1873              		.loc 1 815 0
 1874 0076 0A78     		ldrb	r2, [r1]
 1875 0078 7F26     		movs	r6, #127
 1876 007a 1640     		ands	r6, r2
 816:Generated_Source\PSoC6\pdl\drivers\peripheral\sysclk/cy_sysclk.c ****                 _VAL2FLD(SRSS_CLK_PLL_CONFIG_REFERENCE_DIV, (uint32_t)(config->referenceDiv)) |
 1877              		.loc 1 816 0
 1878 007c 4A78     		ldrb	r2, [r1, #1]
 1879 007e 1202     		lsls	r2, r2, #8
 1880 0080 F824     		movs	r4, #248
 1881 0082 6401     		lsls	r4, r4, #5
 1882 0084 2240     		ands	r2, r4
 815:Generated_Source\PSoC6\pdl\drivers\peripheral\sysclk/cy_sysclk.c ****                 _VAL2FLD(SRSS_CLK_PLL_CONFIG_REFERENCE_DIV, (uint32_t)(config->referenceDiv)) |
 1883              		.loc 1 815 0
 1884 0086 3243     		orrs	r2, r6
 817:Generated_Source\PSoC6\pdl\drivers\peripheral\sysclk/cy_sysclk.c ****                 _VAL2FLD(SRSS_CLK_PLL_CONFIG_OUTPUT_DIV,    (uint32_t)(config->outputDiv))    |
 1885              		.loc 1 817 0
 1886 0088 8E78     		ldrb	r6, [r1, #2]
 1887 008a 3604     		lsls	r6, r6, #16
 1888 008c F825     		movs	r5, #248
 1889 008e 6D03     		lsls	r5, r5, #13
 1890 0090 3400     		movs	r4, r6
ARM GAS  C:\Users\kiwamu\AppData\Local\Temp\ccIx7zyv.s 			page 65


 1891 0092 2C40     		ands	r4, r5
 816:Generated_Source\PSoC6\pdl\drivers\peripheral\sysclk/cy_sysclk.c ****                 _VAL2FLD(SRSS_CLK_PLL_CONFIG_REFERENCE_DIV, (uint32_t)(config->referenceDiv)) |
 1892              		.loc 1 816 0
 1893 0094 2243     		orrs	r2, r4
 1894 0096 1600     		movs	r6, r2
 818:Generated_Source\PSoC6\pdl\drivers\peripheral\sysclk/cy_sysclk.c ****                 _VAL2FLD(SRSS_CLK_PLL_CONFIG_PLL_LF_MODE,   (uint32_t)(config->lfMode));
 1895              		.loc 1 818 0
 1896 0098 CA78     		ldrb	r2, [r1, #3]
 1897 009a D206     		lsls	r2, r2, #27
 1898 009c 8025     		movs	r5, #128
 1899 009e 2D05     		lsls	r5, r5, #20
 1900 00a0 2A40     		ands	r2, r5
 1901 00a2 1400     		movs	r4, r2
 817:Generated_Source\PSoC6\pdl\drivers\peripheral\sysclk/cy_sysclk.c ****                 _VAL2FLD(SRSS_CLK_PLL_CONFIG_OUTPUT_DIV,    (uint32_t)(config->outputDiv))    |
 1902              		.loc 1 817 0
 1903 00a4 3200     		movs	r2, r6
 1904 00a6 2243     		orrs	r2, r4
 814:Generated_Source\PSoC6\pdl\drivers\peripheral\sysclk/cy_sysclk.c ****                 _VAL2FLD(SRSS_CLK_PLL_CONFIG_FEEDBACK_DIV,  (uint32_t)(config->feedbackDiv))  |
 1905              		.loc 1 814 0
 1906 00a8 1C00     		movs	r4, r3
 1907 00aa 8134     		adds	r4, r4, #129
 1908 00ac FF34     		adds	r4, r4, #255
 1909 00ae A400     		lsls	r4, r4, #2
 1910 00b0 084D     		ldr	r5, .L142
 1911 00b2 6251     		str	r2, [r4, r5]
 1912              	.L132:
 819:Generated_Source\PSoC6\pdl\drivers\peripheral\sysclk/cy_sysclk.c ****         }
 820:Generated_Source\PSoC6\pdl\drivers\peripheral\sysclk/cy_sysclk.c **** 
 821:Generated_Source\PSoC6\pdl\drivers\peripheral\sysclk/cy_sysclk.c ****         CY_SYSCLK_CLR_SET(SRSS->CLK_PLL_CONFIG[clkPath], SRSS_CLK_PLL_CONFIG_BYPASS_SEL, (uint32_t)
 1913              		.loc 1 821 0
 1914 00b4 074D     		ldr	r5, .L142
 1915 00b6 8133     		adds	r3, r3, #129
 1916              	.LVL245:
 1917 00b8 FF33     		adds	r3, r3, #255
 1918              	.LVL246:
 1919 00ba 9B00     		lsls	r3, r3, #2
 1920              	.LVL247:
 1921 00bc 5C59     		ldr	r4, [r3, r5]
 1922 00be 084A     		ldr	r2, .L142+12
 1923 00c0 1440     		ands	r4, r2
 1924 00c2 0A79     		ldrb	r2, [r1, #4]
 1925 00c4 1207     		lsls	r2, r2, #28
 1926 00c6 C021     		movs	r1, #192
 1927              	.LVL248:
 1928 00c8 8905     		lsls	r1, r1, #22
 1929 00ca 0A40     		ands	r2, r1
 1930 00cc 2243     		orrs	r2, r4
 1931 00ce 5A51     		str	r2, [r3, r5]
 1932              	.LVL249:
 1933              	.L131:
 822:Generated_Source\PSoC6\pdl\drivers\peripheral\sysclk/cy_sysclk.c ****     } /* if no error */
 823:Generated_Source\PSoC6\pdl\drivers\peripheral\sysclk/cy_sysclk.c **** 
 824:Generated_Source\PSoC6\pdl\drivers\peripheral\sysclk/cy_sysclk.c ****     return (returnStatus);
 825:Generated_Source\PSoC6\pdl\drivers\peripheral\sysclk/cy_sysclk.c **** }
 1934              		.loc 1 825 0
 1935              		@ sp needed
 1936 00d0 70BD     		pop	{r4, r5, r6, pc}
ARM GAS  C:\Users\kiwamu\AppData\Local\Temp\ccIx7zyv.s 			page 66


 1937              	.L143:
 1938 00d2 C046     		.align	2
 1939              	.L142:
 1940 00d4 00002640 		.word	1076232192
 1941 00d8 01004A00 		.word	4849665
 1942 00dc 03004A00 		.word	4849667
 1943 00e0 FFFFFFCF 		.word	-805306369
 1944              		.cfi_endproc
 1945              	.LFE148:
 1946              		.size	Cy_SysClk_PllManualConfigure, .-Cy_SysClk_PllManualConfigure
 1947              		.global	__aeabi_lmul
 1948              		.global	__aeabi_uldivmod
 1949              		.section	.text.Cy_SysClk_PllConfigure,"ax",%progbits
 1950              		.align	2
 1951              		.global	Cy_SysClk_PllConfigure
 1952              		.code	16
 1953              		.thumb_func
 1954              		.type	Cy_SysClk_PllConfigure, %function
 1955              	Cy_SysClk_PllConfigure:
 1956              	.LFB147:
 673:Generated_Source\PSoC6\pdl\drivers\peripheral\sysclk/cy_sysclk.c ****     cy_en_sysclk_status_t returnStatus = CY_SYSCLK_SUCCESS;
 1957              		.loc 1 673 0
 1958              		.cfi_startproc
 1959              		@ args = 0, pretend = 0, frame = 16
 1960              		@ frame_needed = 0, uses_anonymous_args = 0
 1961              	.LVL250:
 1962 0000 F0B5     		push	{r4, r5, r6, r7, lr}
 1963              		.cfi_def_cfa_offset 20
 1964              		.cfi_offset 4, -20
 1965              		.cfi_offset 5, -16
 1966              		.cfi_offset 6, -12
 1967              		.cfi_offset 7, -8
 1968              		.cfi_offset 14, -4
 1969 0002 5F46     		mov	r7, fp
 1970 0004 5646     		mov	r6, r10
 1971 0006 4D46     		mov	r5, r9
 1972 0008 4446     		mov	r4, r8
 1973 000a F0B4     		push	{r4, r5, r6, r7}
 1974              		.cfi_def_cfa_offset 36
 1975              		.cfi_offset 8, -36
 1976              		.cfi_offset 9, -32
 1977              		.cfi_offset 10, -28
 1978              		.cfi_offset 11, -24
 1979 000c 85B0     		sub	sp, sp, #20
 1980              		.cfi_def_cfa_offset 56
 1981 000e 8146     		mov	r9, r0
 1982 0010 0F00     		movs	r7, r1
 1983              	.LVL251:
 677:Generated_Source\PSoC6\pdl\drivers\peripheral\sysclk/cy_sysclk.c ****     {
 1984              		.loc 1 677 0
 1985 0012 0300     		movs	r3, r0
 1986 0014 0128     		cmp	r0, #1
 1987 0016 1BD1     		bne	.L162
 681:Generated_Source\PSoC6\pdl\drivers\peripheral\sysclk/cy_sysclk.c ****     {
 1988              		.loc 1 681 0
 1989 0018 8033     		adds	r3, r3, #128
 1990 001a FF33     		adds	r3, r3, #255
ARM GAS  C:\Users\kiwamu\AppData\Local\Temp\ccIx7zyv.s 			page 67


 1991 001c 9B00     		lsls	r3, r3, #2
 1992 001e 4E4A     		ldr	r2, .L174
 1993 0020 9B58     		ldr	r3, [r3, r2]
 1994 0022 002B     		cmp	r3, #0
 1995 0024 16DB     		blt	.L163
 686:Generated_Source\PSoC6\pdl\drivers\peripheral\sysclk/cy_sysclk.c ****     {
 1996              		.loc 1 686 0
 1997 0026 0B68     		ldr	r3, [r1]
 1998 0028 4C4A     		ldr	r2, .L174+4
 1999 002a 9446     		mov	ip, r2
 2000 002c 6344     		add	r3, r3, ip
 2001 002e 4C4A     		ldr	r2, .L174+8
 2002 0030 9342     		cmp	r3, r2
 2003 0032 11D8     		bhi	.L164
 691:Generated_Source\PSoC6\pdl\drivers\peripheral\sysclk/cy_sysclk.c ****     {
 2004              		.loc 1 691 0
 2005 0034 4B68     		ldr	r3, [r1, #4]
 2006 0036 0A7A     		ldrb	r2, [r1, #8]
 2007 0038 002A     		cmp	r2, #0
 2008 003a 01D0     		beq	.L165
 2009 003c 494A     		ldr	r2, .L174+12
 2010 003e 00E0     		b	.L146
 2011              	.L165:
 2012 0040 494A     		ldr	r2, .L174+16
 2013              	.L146:
 691:Generated_Source\PSoC6\pdl\drivers\peripheral\sysclk/cy_sysclk.c ****     {
 2014              		.loc 1 691 0 is_stmt 0 discriminator 4
 2015 0042 9A42     		cmp	r2, r3
 2016 0044 0AD8     		bhi	.L166
 691:Generated_Source\PSoC6\pdl\drivers\peripheral\sysclk/cy_sysclk.c ****     {
 2017              		.loc 1 691 0 discriminator 5
 2018 0046 494A     		ldr	r2, .L174+20
 2019 0048 9342     		cmp	r3, r2
 2020 004a 09D8     		bhi	.L167
 674:Generated_Source\PSoC6\pdl\drivers\peripheral\sysclk/cy_sysclk.c **** 
 2021              		.loc 1 674 0 is_stmt 1
 2022 004c 0020     		movs	r0, #0
 2023              	.LVL252:
 2024 004e 08E0     		b	.L145
 2025              	.LVL253:
 2026              	.L162:
 679:Generated_Source\PSoC6\pdl\drivers\peripheral\sysclk/cy_sysclk.c ****     }
 2027              		.loc 1 679 0
 2028 0050 4748     		ldr	r0, .L174+24
 2029              	.LVL254:
 2030 0052 06E0     		b	.L145
 2031              	.LVL255:
 2032              	.L163:
 683:Generated_Source\PSoC6\pdl\drivers\peripheral\sysclk/cy_sysclk.c ****     }
 2033              		.loc 1 683 0
 2034 0054 4748     		ldr	r0, .L174+28
 2035              	.LVL256:
 2036 0056 04E0     		b	.L145
 2037              	.LVL257:
 2038              	.L164:
 688:Generated_Source\PSoC6\pdl\drivers\peripheral\sysclk/cy_sysclk.c ****     }
 2039              		.loc 1 688 0
ARM GAS  C:\Users\kiwamu\AppData\Local\Temp\ccIx7zyv.s 			page 68


 2040 0058 4548     		ldr	r0, .L174+24
 2041              	.LVL258:
 2042 005a 02E0     		b	.L145
 2043              	.LVL259:
 2044              	.L166:
 693:Generated_Source\PSoC6\pdl\drivers\peripheral\sysclk/cy_sysclk.c ****     }
 2045              		.loc 1 693 0
 2046 005c 4448     		ldr	r0, .L174+24
 2047              	.LVL260:
 2048 005e 00E0     		b	.L145
 2049              	.LVL261:
 2050              	.L167:
 2051 0060 4348     		ldr	r0, .L174+24
 2052              	.LVL262:
 2053              	.L145:
 700:Generated_Source\PSoC6\pdl\drivers\peripheral\sysclk/cy_sysclk.c ****     {
 2054              		.loc 1 700 0
 2055 0062 0028     		cmp	r0, #0
 2056 0064 70D1     		bne	.L147
 2057              	.LBB39:
 703:Generated_Source\PSoC6\pdl\drivers\peripheral\sysclk/cy_sysclk.c ****         manualConfig.referenceDiv = 0ul;
 2058              		.loc 1 703 0
 2059 0066 0023     		movs	r3, #0
 2060 0068 02AA     		add	r2, sp, #8
 2061 006a 1370     		strb	r3, [r2]
 704:Generated_Source\PSoC6\pdl\drivers\peripheral\sysclk/cy_sysclk.c ****         manualConfig.outputDiv = 0ul;
 2062              		.loc 1 704 0
 2063 006c 5370     		strb	r3, [r2, #1]
 705:Generated_Source\PSoC6\pdl\drivers\peripheral\sysclk/cy_sysclk.c **** 
 2064              		.loc 1 705 0
 2065 006e 9370     		strb	r3, [r2, #2]
 710:Generated_Source\PSoC6\pdl\drivers\peripheral\sysclk/cy_sysclk.c ****         {
 2066              		.loc 1 710 0
 2067 0070 7B7A     		ldrb	r3, [r7, #9]
 2068 0072 9B46     		mov	fp, r3
 2069 0074 022B     		cmp	r3, #2
 2070 0076 53D1     		bne	.L168
 2071              	.LBB40:
 2072 0078 5CE0     		b	.L149
 2073              	.LVL263:
 2074              	.L161:
 722:Generated_Source\PSoC6\pdl\drivers\peripheral\sysclk/cy_sysclk.c ****                 {
 2075              		.loc 1 722 0
 2076 007a 3B7A     		ldrb	r3, [r7, #8]
 2077              	.LVL264:
 2078 007c 9A46     		mov	r10, r3
 2079 007e 002B     		cmp	r3, #0
 2080 0080 01D0     		beq	.L169
 2081 0082 1326     		movs	r6, #19
 2082 0084 3EE0     		b	.L151
 2083              	.L169:
 2084 0086 1626     		movs	r6, #22
 2085 0088 3CE0     		b	.L151
 2086              	.LVL265:
 2087              	.L160:
 2088              	.LBB41:
 725:Generated_Source\PSoC6\pdl\drivers\peripheral\sysclk/cy_sysclk.c ****                     if ((MIN_FVCO <= fvco) && (fvco <= MAX_FVCO))
ARM GAS  C:\Users\kiwamu\AppData\Local\Temp\ccIx7zyv.s 			page 69


 2089              		.loc 1 725 0
 2090 008a 3200     		movs	r2, r6
 2091 008c 0023     		movs	r3, #0
 2092 008e 3868     		ldr	r0, [r7]
 2093 0090 0021     		movs	r1, #0
 2094 0092 FFF7FEFF 		bl	__aeabi_lmul
 2095              	.LVL266:
 2096 0096 019A     		ldr	r2, [sp, #4]
 2097 0098 0023     		movs	r3, #0
 2098 009a FFF7FEFF 		bl	__aeabi_uldivmod
 2099              	.LVL267:
 726:Generated_Source\PSoC6\pdl\drivers\peripheral\sysclk/cy_sysclk.c ****                     {
 2100              		.loc 1 726 0
 2101 009e 5346     		mov	r3, r10
 2102 00a0 002B     		cmp	r3, #0
 2103 00a2 01D0     		beq	.L170
 2104 00a4 344B     		ldr	r3, .L174+32
 2105 00a6 00E0     		b	.L152
 2106              	.L170:
 2107 00a8 344B     		ldr	r3, .L174+36
 2108              	.L152:
 726:Generated_Source\PSoC6\pdl\drivers\peripheral\sysclk/cy_sysclk.c ****                     {
 2109              		.loc 1 726 0 is_stmt 0 discriminator 4
 2110 00aa 8342     		cmp	r3, r0
 2111 00ac 29D8     		bhi	.L153
 726:Generated_Source\PSoC6\pdl\drivers\peripheral\sysclk/cy_sysclk.c ****                     {
 2112              		.loc 1 726 0 discriminator 5
 2113 00ae 5346     		mov	r3, r10
 2114 00b0 002B     		cmp	r3, #0
 2115 00b2 01D0     		beq	.L171
 726:Generated_Source\PSoC6\pdl\drivers\peripheral\sysclk/cy_sysclk.c ****                     {
 2116              		.loc 1 726 0
 2117 00b4 314B     		ldr	r3, .L174+36
 2118 00b6 00E0     		b	.L154
 2119              	.L171:
 2120 00b8 314B     		ldr	r3, .L174+40
 2121              	.L154:
 726:Generated_Source\PSoC6\pdl\drivers\peripheral\sysclk/cy_sysclk.c ****                     {
 2122              		.loc 1 726 0 discriminator 9
 2123 00ba 8342     		cmp	r3, r0
 2124 00bc 1CD2     		bcs	.L172
 2125 00be 20E0     		b	.L153
 2126              	.LVL268:
 2127              	.L157:
 2128              	.LBB42:
 733:Generated_Source\PSoC6\pdl\drivers\peripheral\sysclk/cy_sysclk.c ****                             if ((uint32_t)abs((int32_t)fout - (int32_t)(config->outputFreq)) <
 2129              		.loc 1 733 0 is_stmt 1
 2130 00c0 3868     		ldr	r0, [r7]
 2131 00c2 7043     		muls	r0, r6
 2132 00c4 0199     		ldr	r1, [sp, #4]
 2133 00c6 FFF7FEFF 		bl	__aeabi_uidiv
 2134              	.LVL269:
 2135 00ca 2100     		movs	r1, r4
 2136 00cc FFF7FEFF 		bl	__aeabi_uidiv
 2137              	.LVL270:
 734:Generated_Source\PSoC6\pdl\drivers\peripheral\sysclk/cy_sysclk.c ****                                 (uint32_t)abs((int32_t)foutBest - (int32_t)(config->outputFreq)))
 2138              		.loc 1 734 0
ARM GAS  C:\Users\kiwamu\AppData\Local\Temp\ccIx7zyv.s 			page 70


 2139 00d0 421B     		subs	r2, r0, r5
 2140 00d2 D317     		asrs	r3, r2, #31
 2141 00d4 D218     		adds	r2, r2, r3
 2142 00d6 5A40     		eors	r2, r3
 735:Generated_Source\PSoC6\pdl\drivers\peripheral\sysclk/cy_sysclk.c ****                             {
 2143              		.loc 1 735 0
 2144 00d8 4346     		mov	r3, r8
 2145 00da 5B1B     		subs	r3, r3, r5
 2146 00dc D917     		asrs	r1, r3, #31
 2147 00de 5B18     		adds	r3, r3, r1
 2148 00e0 4B40     		eors	r3, r1
 734:Generated_Source\PSoC6\pdl\drivers\peripheral\sysclk/cy_sysclk.c ****                                 (uint32_t)abs((int32_t)foutBest - (int32_t)(config->outputFreq)))
 2149              		.loc 1 734 0
 2150 00e2 9A42     		cmp	r2, r3
 2151 00e4 06D2     		bcs	.L156
 2152              	.LVL271:
 738:Generated_Source\PSoC6\pdl\drivers\peripheral\sysclk/cy_sysclk.c ****                                 manualConfig.referenceDiv = q;
 2153              		.loc 1 738 0
 2154 00e6 02AB     		add	r3, sp, #8
 2155 00e8 1E70     		strb	r6, [r3]
 739:Generated_Source\PSoC6\pdl\drivers\peripheral\sysclk/cy_sysclk.c ****                                 manualConfig.outputDiv    = out;
 2156              		.loc 1 739 0
 2157 00ea 6A46     		mov	r2, sp
 2158 00ec 1279     		ldrb	r2, [r2, #4]
 2159 00ee 5A70     		strb	r2, [r3, #1]
 740:Generated_Source\PSoC6\pdl\drivers\peripheral\sysclk/cy_sysclk.c ****                             }
 2160              		.loc 1 740 0
 2161 00f0 9C70     		strb	r4, [r3, #2]
 737:Generated_Source\PSoC6\pdl\drivers\peripheral\sysclk/cy_sysclk.c ****                                 manualConfig.feedbackDiv  = p;
 2162              		.loc 1 737 0
 2163 00f2 8046     		mov	r8, r0
 2164              	.LVL272:
 2165              	.L156:
 2166              	.LBE42:
 729:Generated_Source\PSoC6\pdl\drivers\peripheral\sysclk/cy_sysclk.c ****                         {
 2167              		.loc 1 729 0 discriminator 2
 2168 00f4 0134     		adds	r4, r4, #1
 2169              	.LVL273:
 2170 00f6 00E0     		b	.L155
 2171              	.LVL274:
 2172              	.L172:
 2173 00f8 0224     		movs	r4, #2
 2174              	.LVL275:
 2175              	.L155:
 729:Generated_Source\PSoC6\pdl\drivers\peripheral\sysclk/cy_sysclk.c ****                         {
 2176              		.loc 1 729 0 is_stmt 0 discriminator 1
 2177 00fa 102C     		cmp	r4, #16
 2178 00fc 01D8     		bhi	.L153
 729:Generated_Source\PSoC6\pdl\drivers\peripheral\sysclk/cy_sysclk.c ****                         {
 2179              		.loc 1 729 0 discriminator 3
 2180 00fe A845     		cmp	r8, r5
 2181 0100 DED1     		bne	.L157
 2182              	.LVL276:
 2183              	.L153:
 2184              	.LBE41:
 722:Generated_Source\PSoC6\pdl\drivers\peripheral\sysclk/cy_sysclk.c ****                 {
 2185              		.loc 1 722 0 is_stmt 1 discriminator 6
ARM GAS  C:\Users\kiwamu\AppData\Local\Temp\ccIx7zyv.s 			page 71


 2186 0102 0136     		adds	r6, r6, #1
 2187              	.LVL277:
 2188              	.L151:
 722:Generated_Source\PSoC6\pdl\drivers\peripheral\sysclk/cy_sysclk.c ****                 {
 2189              		.loc 1 722 0 is_stmt 0 discriminator 5
 2190 0104 5346     		mov	r3, r10
 2191 0106 002B     		cmp	r3, #0
 2192 0108 01D0     		beq	.L173
 722:Generated_Source\PSoC6\pdl\drivers\peripheral\sysclk/cy_sysclk.c ****                 {
 2193              		.loc 1 722 0
 2194 010a 3823     		movs	r3, #56
 2195 010c 00E0     		b	.L158
 2196              	.L173:
 2197 010e 7023     		movs	r3, #112
 2198              	.L158:
 722:Generated_Source\PSoC6\pdl\drivers\peripheral\sysclk/cy_sysclk.c ****                 {
 2199              		.loc 1 722 0 discriminator 10
 2200 0110 9E42     		cmp	r6, r3
 2201 0112 01D8     		bhi	.L159
 722:Generated_Source\PSoC6\pdl\drivers\peripheral\sysclk/cy_sysclk.c ****                 {
 2202              		.loc 1 722 0 discriminator 11
 2203 0114 A845     		cmp	r8, r5
 2204 0116 B8D1     		bne	.L160
 2205              	.L159:
 719:Generated_Source\PSoC6\pdl\drivers\peripheral\sysclk/cy_sysclk.c ****             {
 2206              		.loc 1 719 0 is_stmt 1 discriminator 2
 2207 0118 019B     		ldr	r3, [sp, #4]
 2208 011a 0133     		adds	r3, r3, #1
 2209 011c 0193     		str	r3, [sp, #4]
 2210              	.LVL278:
 2211 011e 03E0     		b	.L148
 2212              	.LVL279:
 2213              	.L168:
 2214              	.LBE40:
 2215 0120 0023     		movs	r3, #0
 2216 0122 9846     		mov	r8, r3
 2217 0124 0133     		adds	r3, r3, #1
 2218 0126 0193     		str	r3, [sp, #4]
 2219              	.LVL280:
 2220              	.L148:
 2221              	.LBB43:
 719:Generated_Source\PSoC6\pdl\drivers\peripheral\sysclk/cy_sysclk.c ****             {
 2222              		.loc 1 719 0 is_stmt 0 discriminator 1
 2223 0128 019B     		ldr	r3, [sp, #4]
 2224 012a 122B     		cmp	r3, #18
 2225 012c 02D8     		bhi	.L149
 719:Generated_Source\PSoC6\pdl\drivers\peripheral\sysclk/cy_sysclk.c ****             {
 2226              		.loc 1 719 0 discriminator 3
 2227 012e 7D68     		ldr	r5, [r7, #4]
 2228 0130 A845     		cmp	r8, r5
 2229 0132 A2D1     		bne	.L161
 2230              	.LVL281:
 2231              	.L149:
 2232              	.LBE43:
 750:Generated_Source\PSoC6\pdl\drivers\peripheral\sysclk/cy_sysclk.c ****         manualConfig.outputMode = config->outputMode;
 2233              		.loc 1 750 0 is_stmt 1
 2234 0134 3B7A     		ldrb	r3, [r7, #8]
ARM GAS  C:\Users\kiwamu\AppData\Local\Temp\ccIx7zyv.s 			page 72


 2235 0136 02AA     		add	r2, sp, #8
 2236 0138 D370     		strb	r3, [r2, #3]
 751:Generated_Source\PSoC6\pdl\drivers\peripheral\sysclk/cy_sysclk.c ****         returnStatus = Cy_SysClk_PllManualConfigure(clkPath, &manualConfig);
 2237              		.loc 1 751 0
 2238 013a 1300     		movs	r3, r2
 2239 013c 5A46     		mov	r2, fp
 2240 013e 1A71     		strb	r2, [r3, #4]
 752:Generated_Source\PSoC6\pdl\drivers\peripheral\sysclk/cy_sysclk.c **** 
 2241              		.loc 1 752 0
 2242 0140 1900     		movs	r1, r3
 2243 0142 4846     		mov	r0, r9
 2244 0144 FFF7FEFF 		bl	Cy_SysClk_PllManualConfigure
 2245              	.LVL282:
 2246              	.L147:
 2247              	.LBE39:
 757:Generated_Source\PSoC6\pdl\drivers\peripheral\sysclk/cy_sysclk.c **** 
 2248              		.loc 1 757 0
 2249 0148 05B0     		add	sp, sp, #20
 2250              		@ sp needed
 2251              	.LVL283:
 2252              	.LVL284:
 2253 014a 3CBC     		pop	{r2, r3, r4, r5}
 2254 014c 9046     		mov	r8, r2
 2255 014e 9946     		mov	r9, r3
 2256 0150 A246     		mov	r10, r4
 2257 0152 AB46     		mov	fp, r5
 2258 0154 F0BD     		pop	{r4, r5, r6, r7, pc}
 2259              	.L175:
 2260 0156 C046     		.align	2
 2261              	.L174:
 2262 0158 00002640 		.word	1076232192
 2263 015c 00F7C2FF 		.word	-4000000
 2264 0160 00879303 		.word	60000000
 2265 0164 E81FA200 		.word	10625000
 2266 0168 20BCBE00 		.word	12500000
 2267 016c 80D1F008 		.word	150000000
 2268 0170 01004A00 		.word	4849665
 2269 0174 03004A00 		.word	4849667
 2270 0178 80FE210A 		.word	170000000
 2271 017c 00C2EB0B 		.word	200000000
 2272 0180 0084D717 		.word	400000000
 2273              		.cfi_endproc
 2274              	.LFE147:
 2275              		.size	Cy_SysClk_PllConfigure, .-Cy_SysClk_PllConfigure
 2276              		.section	.text.Cy_SysClk_PllGetConfiguration,"ax",%progbits
 2277              		.align	2
 2278              		.global	Cy_SysClk_PllGetConfiguration
 2279              		.code	16
 2280              		.thumb_func
 2281              		.type	Cy_SysClk_PllGetConfiguration, %function
 2282              	Cy_SysClk_PllGetConfiguration:
 2283              	.LFB149:
 826:Generated_Source\PSoC6\pdl\drivers\peripheral\sysclk/cy_sysclk.c **** 
 827:Generated_Source\PSoC6\pdl\drivers\peripheral\sysclk/cy_sysclk.c **** /*******************************************************************************
 828:Generated_Source\PSoC6\pdl\drivers\peripheral\sysclk/cy_sysclk.c **** * Function Name: Cy_SysClk_PllGetConfiguration
 829:Generated_Source\PSoC6\pdl\drivers\peripheral\sysclk/cy_sysclk.c **** ****************************************************************************//**
 830:Generated_Source\PSoC6\pdl\drivers\peripheral\sysclk/cy_sysclk.c **** *
ARM GAS  C:\Users\kiwamu\AppData\Local\Temp\ccIx7zyv.s 			page 73


 831:Generated_Source\PSoC6\pdl\drivers\peripheral\sysclk/cy_sysclk.c **** * Reports configuration settings for a PLL.
 832:Generated_Source\PSoC6\pdl\drivers\peripheral\sysclk/cy_sysclk.c **** *
 833:Generated_Source\PSoC6\pdl\drivers\peripheral\sysclk/cy_sysclk.c **** * \param clkPath Selects which PLL to report. 1 is the first PLL; 0 is invalid.
 834:Generated_Source\PSoC6\pdl\drivers\peripheral\sysclk/cy_sysclk.c **** *
 835:Generated_Source\PSoC6\pdl\drivers\peripheral\sysclk/cy_sysclk.c **** * \param config \ref cy_stc_pll_manual_config_t
 836:Generated_Source\PSoC6\pdl\drivers\peripheral\sysclk/cy_sysclk.c **** *
 837:Generated_Source\PSoC6\pdl\drivers\peripheral\sysclk/cy_sysclk.c **** * \return  Error / status code:<br>
 838:Generated_Source\PSoC6\pdl\drivers\peripheral\sysclk/cy_sysclk.c **** * CY_SYSCLK_SUCCESS - PLL data successfully reported<br>
 839:Generated_Source\PSoC6\pdl\drivers\peripheral\sysclk/cy_sysclk.c **** * CY_SYSCLK_BAD_PARAM - invalid clock path number
 840:Generated_Source\PSoC6\pdl\drivers\peripheral\sysclk/cy_sysclk.c **** *
 841:Generated_Source\PSoC6\pdl\drivers\peripheral\sysclk/cy_sysclk.c **** *******************************************************************************/
 842:Generated_Source\PSoC6\pdl\drivers\peripheral\sysclk/cy_sysclk.c **** cy_en_sysclk_status_t Cy_SysClk_PllGetConfiguration(uint32_t clkPath, cy_stc_pll_manual_config_t *c
 843:Generated_Source\PSoC6\pdl\drivers\peripheral\sysclk/cy_sysclk.c **** {
 2284              		.loc 1 843 0
 2285              		.cfi_startproc
 2286              		@ args = 0, pretend = 0, frame = 0
 2287              		@ frame_needed = 0, uses_anonymous_args = 0
 2288              		@ link register save eliminated.
 2289              	.LVL285:
 844:Generated_Source\PSoC6\pdl\drivers\peripheral\sysclk/cy_sysclk.c ****     cy_en_sysclk_status_t rtnval = CY_SYSCLK_BAD_PARAM;
 845:Generated_Source\PSoC6\pdl\drivers\peripheral\sysclk/cy_sysclk.c ****     if ((clkPath != 0ul) && (clkPath <= SRSS_NUM_PLL))
 2290              		.loc 1 845 0
 2291 0000 0128     		cmp	r0, #1
 2292 0002 19D1     		bne	.L178
 2293              	.LBB44:
 846:Generated_Source\PSoC6\pdl\drivers\peripheral\sysclk/cy_sysclk.c ****     {
 847:Generated_Source\PSoC6\pdl\drivers\peripheral\sysclk/cy_sysclk.c ****         uint32_t tempReg = SRSS->CLK_PLL_CONFIG[clkPath - 1ul];
 2294              		.loc 1 847 0
 2295 0004 8030     		adds	r0, r0, #128
 2296              	.LVL286:
 2297 0006 FF30     		adds	r0, r0, #255
 2298              	.LVL287:
 2299 0008 8000     		lsls	r0, r0, #2
 2300              	.LVL288:
 2301 000a 0C4B     		ldr	r3, .L179
 2302 000c C358     		ldr	r3, [r0, r3]
 2303              	.LVL289:
 848:Generated_Source\PSoC6\pdl\drivers\peripheral\sysclk/cy_sysclk.c ****         config->feedbackDiv  = (uint8_t)_FLD2VAL(SRSS_CLK_PLL_CONFIG_FEEDBACK_DIV, tempReg);
 2304              		.loc 1 848 0
 2305 000e 7F22     		movs	r2, #127
 2306 0010 1A40     		ands	r2, r3
 2307 0012 0A70     		strb	r2, [r1]
 849:Generated_Source\PSoC6\pdl\drivers\peripheral\sysclk/cy_sysclk.c ****         config->referenceDiv = (uint8_t)_FLD2VAL(SRSS_CLK_PLL_CONFIG_REFERENCE_DIV, tempReg);
 2308              		.loc 1 849 0
 2309 0014 1A0A     		lsrs	r2, r3, #8
 2310 0016 1F20     		movs	r0, #31
 2311 0018 0240     		ands	r2, r0
 2312 001a 4A70     		strb	r2, [r1, #1]
 850:Generated_Source\PSoC6\pdl\drivers\peripheral\sysclk/cy_sysclk.c ****         config->outputDiv    = (uint8_t)_FLD2VAL(SRSS_CLK_PLL_CONFIG_OUTPUT_DIV, tempReg);
 2313              		.loc 1 850 0
 2314 001c 1A0C     		lsrs	r2, r3, #16
 2315 001e 1040     		ands	r0, r2
 2316 0020 8870     		strb	r0, [r1, #2]
 851:Generated_Source\PSoC6\pdl\drivers\peripheral\sysclk/cy_sysclk.c ****         config->lfMode       = (bool)_FLD2VAL(SRSS_CLK_PLL_CONFIG_OUTPUT_DIV, tempReg);
 2317              		.loc 1 851 0
 2318 0022 1F20     		movs	r0, #31
 2319 0024 0240     		ands	r2, r0
ARM GAS  C:\Users\kiwamu\AppData\Local\Temp\ccIx7zyv.s 			page 74


 2320 0026 501E     		subs	r0, r2, #1
 2321 0028 8241     		sbcs	r2, r2, r0
 2322 002a CA70     		strb	r2, [r1, #3]
 852:Generated_Source\PSoC6\pdl\drivers\peripheral\sysclk/cy_sysclk.c ****         config->outputMode   = (cy_en_fll_pll_output_mode_t)_FLD2VAL(SRSS_CLK_PLL_CONFIG_BYPASS_SEL
 2323              		.loc 1 852 0
 2324 002c 1B0F     		lsrs	r3, r3, #28
 2325              	.LVL290:
 2326 002e 0322     		movs	r2, #3
 2327 0030 1340     		ands	r3, r2
 2328 0032 0B71     		strb	r3, [r1, #4]
 2329              	.LVL291:
 853:Generated_Source\PSoC6\pdl\drivers\peripheral\sysclk/cy_sysclk.c ****         rtnval = CY_SYSCLK_SUCCESS;
 2330              		.loc 1 853 0
 2331 0034 0020     		movs	r0, #0
 2332 0036 00E0     		b	.L177
 2333              	.LVL292:
 2334              	.L178:
 2335              	.LBE44:
 844:Generated_Source\PSoC6\pdl\drivers\peripheral\sysclk/cy_sysclk.c ****     if ((clkPath != 0ul) && (clkPath <= SRSS_NUM_PLL))
 2336              		.loc 1 844 0
 2337 0038 0148     		ldr	r0, .L179+4
 2338              	.LVL293:
 2339              	.L177:
 854:Generated_Source\PSoC6\pdl\drivers\peripheral\sysclk/cy_sysclk.c ****     }
 855:Generated_Source\PSoC6\pdl\drivers\peripheral\sysclk/cy_sysclk.c ****     return (rtnval);
 856:Generated_Source\PSoC6\pdl\drivers\peripheral\sysclk/cy_sysclk.c **** }
 2340              		.loc 1 856 0
 2341              		@ sp needed
 2342 003a 7047     		bx	lr
 2343              	.L180:
 2344              		.align	2
 2345              	.L179:
 2346 003c 00002640 		.word	1076232192
 2347 0040 01004A00 		.word	4849665
 2348              		.cfi_endproc
 2349              	.LFE149:
 2350              		.size	Cy_SysClk_PllGetConfiguration, .-Cy_SysClk_PllGetConfiguration
 2351              		.section	.text.Cy_SysClk_PllEnable,"ax",%progbits
 2352              		.align	2
 2353              		.global	Cy_SysClk_PllEnable
 2354              		.code	16
 2355              		.thumb_func
 2356              		.type	Cy_SysClk_PllEnable, %function
 2357              	Cy_SysClk_PllEnable:
 2358              	.LFB150:
 857:Generated_Source\PSoC6\pdl\drivers\peripheral\sysclk/cy_sysclk.c **** 
 858:Generated_Source\PSoC6\pdl\drivers\peripheral\sysclk/cy_sysclk.c **** /*******************************************************************************
 859:Generated_Source\PSoC6\pdl\drivers\peripheral\sysclk/cy_sysclk.c **** * Function Name: Cy_SysClk_PllEnable
 860:Generated_Source\PSoC6\pdl\drivers\peripheral\sysclk/cy_sysclk.c **** ****************************************************************************//**
 861:Generated_Source\PSoC6\pdl\drivers\peripheral\sysclk/cy_sysclk.c **** *
 862:Generated_Source\PSoC6\pdl\drivers\peripheral\sysclk/cy_sysclk.c **** * Enables the PLL. The PLL should be configured before calling this function.
 863:Generated_Source\PSoC6\pdl\drivers\peripheral\sysclk/cy_sysclk.c **** *
 864:Generated_Source\PSoC6\pdl\drivers\peripheral\sysclk/cy_sysclk.c **** * \param clkPath Selects which PLL to enable. 1 is the first PLL; 0 is invalid.
 865:Generated_Source\PSoC6\pdl\drivers\peripheral\sysclk/cy_sysclk.c **** *
 866:Generated_Source\PSoC6\pdl\drivers\peripheral\sysclk/cy_sysclk.c **** * \param timeoutus amount of time in microseconds to wait for the PLL to lock.
 867:Generated_Source\PSoC6\pdl\drivers\peripheral\sysclk/cy_sysclk.c **** * If lock doesn't occur, PLL is stopped. To avoid waiting for lock set this to 0,
 868:Generated_Source\PSoC6\pdl\drivers\peripheral\sysclk/cy_sysclk.c **** * and manually check for lock using \ref Cy_SysClk_PllLocked.
ARM GAS  C:\Users\kiwamu\AppData\Local\Temp\ccIx7zyv.s 			page 75


 869:Generated_Source\PSoC6\pdl\drivers\peripheral\sysclk/cy_sysclk.c **** *
 870:Generated_Source\PSoC6\pdl\drivers\peripheral\sysclk/cy_sysclk.c **** * \return Error / status code:<br>
 871:Generated_Source\PSoC6\pdl\drivers\peripheral\sysclk/cy_sysclk.c **** * CY_SYSCLK_SUCCESS - PLL successfully enabled<br>
 872:Generated_Source\PSoC6\pdl\drivers\peripheral\sysclk/cy_sysclk.c **** * CY_SYSCLK_TIMEOUT - Timeout waiting for PLL lock<br>
 873:Generated_Source\PSoC6\pdl\drivers\peripheral\sysclk/cy_sysclk.c **** * CY_SYSCLK_BAD_PARAM - invalid clock path number
 874:Generated_Source\PSoC6\pdl\drivers\peripheral\sysclk/cy_sysclk.c **** *
 875:Generated_Source\PSoC6\pdl\drivers\peripheral\sysclk/cy_sysclk.c **** *******************************************************************************/
 876:Generated_Source\PSoC6\pdl\drivers\peripheral\sysclk/cy_sysclk.c **** cy_en_sysclk_status_t Cy_SysClk_PllEnable(uint32_t clkPath, uint32_t timeoutus)
 877:Generated_Source\PSoC6\pdl\drivers\peripheral\sysclk/cy_sysclk.c **** {
 2359              		.loc 1 877 0
 2360              		.cfi_startproc
 2361              		@ args = 0, pretend = 0, frame = 0
 2362              		@ frame_needed = 0, uses_anonymous_args = 0
 2363              	.LVL294:
 2364 0000 70B5     		push	{r4, r5, r6, lr}
 2365              		.cfi_def_cfa_offset 16
 2366              		.cfi_offset 4, -16
 2367              		.cfi_offset 5, -12
 2368              		.cfi_offset 6, -8
 2369              		.cfi_offset 14, -4
 2370 0002 0C00     		movs	r4, r1
 2371              	.LVL295:
 878:Generated_Source\PSoC6\pdl\drivers\peripheral\sysclk/cy_sysclk.c ****     cy_en_sysclk_status_t rtnval = CY_SYSCLK_BAD_PARAM;
 879:Generated_Source\PSoC6\pdl\drivers\peripheral\sysclk/cy_sysclk.c ****     if ((clkPath != 0ul) && (clkPath <= SRSS_NUM_PLL))
 2372              		.loc 1 879 0
 2373 0004 0128     		cmp	r0, #1
 2374 0006 1CD1     		bne	.L186
 880:Generated_Source\PSoC6\pdl\drivers\peripheral\sysclk/cy_sysclk.c ****     {
 881:Generated_Source\PSoC6\pdl\drivers\peripheral\sysclk/cy_sysclk.c ****         clkPath--; /* to correctly access PLL config and status registers structures */
 2375              		.loc 1 881 0
 2376 0008 451E     		subs	r5, r0, #1
 2377              	.LVL296:
 882:Generated_Source\PSoC6\pdl\drivers\peripheral\sysclk/cy_sysclk.c ****         /* first set the PLL enable bit */
 883:Generated_Source\PSoC6\pdl\drivers\peripheral\sysclk/cy_sysclk.c ****         SRSS->CLK_PLL_CONFIG[clkPath] |= _VAL2FLD(SRSS_CLK_PLL_CONFIG_ENABLE, 1ul); /* 1 = enable *
 2378              		.loc 1 883 0
 2379 000a 104A     		ldr	r2, .L188
 2380 000c 8030     		adds	r0, r0, #128
 2381 000e FF30     		adds	r0, r0, #255
 2382 0010 8000     		lsls	r0, r0, #2
 2383 0012 8358     		ldr	r3, [r0, r2]
 2384 0014 8021     		movs	r1, #128
 2385              	.LVL297:
 2386 0016 0906     		lsls	r1, r1, #24
 2387 0018 0B43     		orrs	r3, r1
 2388 001a 8350     		str	r3, [r0, r2]
 884:Generated_Source\PSoC6\pdl\drivers\peripheral\sysclk/cy_sysclk.c **** 
 885:Generated_Source\PSoC6\pdl\drivers\peripheral\sysclk/cy_sysclk.c ****         /* now do the timeout wait for PLL_STATUS, bit LOCKED */
 886:Generated_Source\PSoC6\pdl\drivers\peripheral\sysclk/cy_sysclk.c ****         for (; (_FLD2VAL(SRSS_CLK_PLL_STATUS_LOCKED, SRSS->CLK_PLL_STATUS[clkPath]) == 0ul) &&
 2389              		.loc 1 886 0
 2390 001c 03E0     		b	.L183
 2391              	.L185:
 887:Generated_Source\PSoC6\pdl\drivers\peripheral\sysclk/cy_sysclk.c ****                (timeoutus != 0ul);
 888:Generated_Source\PSoC6\pdl\drivers\peripheral\sysclk/cy_sysclk.c ****              timeoutus--)
 889:Generated_Source\PSoC6\pdl\drivers\peripheral\sysclk/cy_sysclk.c ****         {
 890:Generated_Source\PSoC6\pdl\drivers\peripheral\sysclk/cy_sysclk.c ****             Cy_SysLib_DelayUs(1u);
 2392              		.loc 1 890 0
 2393 001e 0120     		movs	r0, #1
ARM GAS  C:\Users\kiwamu\AppData\Local\Temp\ccIx7zyv.s 			page 76


 2394 0020 FFF7FEFF 		bl	Cy_SysLib_DelayUs
 2395              	.LVL298:
 888:Generated_Source\PSoC6\pdl\drivers\peripheral\sysclk/cy_sysclk.c ****         {
 2396              		.loc 1 888 0
 2397 0024 013C     		subs	r4, r4, #1
 2398              	.LVL299:
 2399              	.L183:
 886:Generated_Source\PSoC6\pdl\drivers\peripheral\sysclk/cy_sysclk.c ****                (timeoutus != 0ul);
 2400              		.loc 1 886 0
 2401 0026 2B00     		movs	r3, r5
 2402 0028 9133     		adds	r3, r3, #145
 2403 002a FF33     		adds	r3, r3, #255
 2404 002c 9B00     		lsls	r3, r3, #2
 2405 002e 074A     		ldr	r2, .L188
 2406 0030 9B58     		ldr	r3, [r3, r2]
 2407 0032 DB07     		lsls	r3, r3, #31
 2408 0034 01D4     		bmi	.L184
 886:Generated_Source\PSoC6\pdl\drivers\peripheral\sysclk/cy_sysclk.c ****                (timeoutus != 0ul);
 2409              		.loc 1 886 0 is_stmt 0 discriminator 1
 2410 0036 002C     		cmp	r4, #0
 2411 0038 F1D1     		bne	.L185
 2412              	.L184:
 891:Generated_Source\PSoC6\pdl\drivers\peripheral\sysclk/cy_sysclk.c ****         }
 892:Generated_Source\PSoC6\pdl\drivers\peripheral\sysclk/cy_sysclk.c ****         rtnval = ((timeoutus == 0ul) ? CY_SYSCLK_TIMEOUT : CY_SYSCLK_SUCCESS);
 2413              		.loc 1 892 0 is_stmt 1
 2414 003a 002C     		cmp	r4, #0
 2415 003c 03D1     		bne	.L187
 2416 003e 0448     		ldr	r0, .L188+4
 2417 0040 02E0     		b	.L182
 2418              	.LVL300:
 2419              	.L186:
 878:Generated_Source\PSoC6\pdl\drivers\peripheral\sysclk/cy_sysclk.c ****     if ((clkPath != 0ul) && (clkPath <= SRSS_NUM_PLL))
 2420              		.loc 1 878 0
 2421 0042 0448     		ldr	r0, .L188+8
 2422              	.LVL301:
 2423 0044 00E0     		b	.L182
 2424              	.LVL302:
 2425              	.L187:
 2426              		.loc 1 892 0
 2427 0046 0020     		movs	r0, #0
 2428              	.LVL303:
 2429              	.L182:
 893:Generated_Source\PSoC6\pdl\drivers\peripheral\sysclk/cy_sysclk.c ****     }
 894:Generated_Source\PSoC6\pdl\drivers\peripheral\sysclk/cy_sysclk.c ****     return (rtnval);
 895:Generated_Source\PSoC6\pdl\drivers\peripheral\sysclk/cy_sysclk.c **** }
 2430              		.loc 1 895 0
 2431              		@ sp needed
 2432              	.LVL304:
 2433 0048 70BD     		pop	{r4, r5, r6, pc}
 2434              	.L189:
 2435 004a C046     		.align	2
 2436              	.L188:
 2437 004c 00002640 		.word	1076232192
 2438 0050 02004A00 		.word	4849666
 2439 0054 01004A00 		.word	4849665
 2440              		.cfi_endproc
 2441              	.LFE150:
ARM GAS  C:\Users\kiwamu\AppData\Local\Temp\ccIx7zyv.s 			page 77


 2442              		.size	Cy_SysClk_PllEnable, .-Cy_SysClk_PllEnable
 2443              		.section	.text.Cy_SysClk_StartClkMeasurementCounters,"ax",%progbits
 2444              		.align	2
 2445              		.global	Cy_SysClk_StartClkMeasurementCounters
 2446              		.code	16
 2447              		.thumb_func
 2448              		.type	Cy_SysClk_StartClkMeasurementCounters, %function
 2449              	Cy_SysClk_StartClkMeasurementCounters:
 2450              	.LFB151:
 896:Generated_Source\PSoC6\pdl\drivers\peripheral\sysclk/cy_sysclk.c **** /** \} group_sysclk_pll_funcs */
 897:Generated_Source\PSoC6\pdl\drivers\peripheral\sysclk/cy_sysclk.c **** 
 898:Generated_Source\PSoC6\pdl\drivers\peripheral\sysclk/cy_sysclk.c **** 
 899:Generated_Source\PSoC6\pdl\drivers\peripheral\sysclk/cy_sysclk.c **** /* ========================================================================== */
 900:Generated_Source\PSoC6\pdl\drivers\peripheral\sysclk/cy_sysclk.c **** /* ====================    Clock Measurement section    ===================== */
 901:Generated_Source\PSoC6\pdl\drivers\peripheral\sysclk/cy_sysclk.c **** /* ========================================================================== */
 902:Generated_Source\PSoC6\pdl\drivers\peripheral\sysclk/cy_sysclk.c **** 
 903:Generated_Source\PSoC6\pdl\drivers\peripheral\sysclk/cy_sysclk.c **** /* Cy_SysClk_StartClkMeasurementCounters() input parameter saved for use later in other functions. 
 904:Generated_Source\PSoC6\pdl\drivers\peripheral\sysclk/cy_sysclk.c **** static uint32_t clk1Count1;
 905:Generated_Source\PSoC6\pdl\drivers\peripheral\sysclk/cy_sysclk.c **** 
 906:Generated_Source\PSoC6\pdl\drivers\peripheral\sysclk/cy_sysclk.c **** /* These variables act as locks to prevent collisions between clock measurement and entry into
 907:Generated_Source\PSoC6\pdl\drivers\peripheral\sysclk/cy_sysclk.c ****    DeepSleep mode. See Cy_SysClk_DeepSleep(). */
 908:Generated_Source\PSoC6\pdl\drivers\peripheral\sysclk/cy_sysclk.c **** static bool clkCounting = false;
 909:Generated_Source\PSoC6\pdl\drivers\peripheral\sysclk/cy_sysclk.c **** static bool preventCounting = false;
 910:Generated_Source\PSoC6\pdl\drivers\peripheral\sysclk/cy_sysclk.c **** 
 911:Generated_Source\PSoC6\pdl\drivers\peripheral\sysclk/cy_sysclk.c **** /**
 912:Generated_Source\PSoC6\pdl\drivers\peripheral\sysclk/cy_sysclk.c **** * \addtogroup group_sysclk_calclk_funcs
 913:Generated_Source\PSoC6\pdl\drivers\peripheral\sysclk/cy_sysclk.c **** * \{
 914:Generated_Source\PSoC6\pdl\drivers\peripheral\sysclk/cy_sysclk.c **** */
 915:Generated_Source\PSoC6\pdl\drivers\peripheral\sysclk/cy_sysclk.c **** /*******************************************************************************
 916:Generated_Source\PSoC6\pdl\drivers\peripheral\sysclk/cy_sysclk.c **** * Function Name: Cy_SysClk_StartClkMeasurementCounters
 917:Generated_Source\PSoC6\pdl\drivers\peripheral\sysclk/cy_sysclk.c **** ****************************************************************************//**
 918:Generated_Source\PSoC6\pdl\drivers\peripheral\sysclk/cy_sysclk.c **** *
 919:Generated_Source\PSoC6\pdl\drivers\peripheral\sysclk/cy_sysclk.c **** * Assigns clocks to the clock measurement counters, and starts counting. The counters
 920:Generated_Source\PSoC6\pdl\drivers\peripheral\sysclk/cy_sysclk.c **** * let you measure a clock frequency using another clock as a reference. There are two
 921:Generated_Source\PSoC6\pdl\drivers\peripheral\sysclk/cy_sysclk.c **** * counters.<br>
 922:Generated_Source\PSoC6\pdl\drivers\peripheral\sysclk/cy_sysclk.c **** * One counter (counter1), which is clocked by clock1, is loaded with an initial value
 923:Generated_Source\PSoC6\pdl\drivers\peripheral\sysclk/cy_sysclk.c **** * and counts down to zero.<br>
 924:Generated_Source\PSoC6\pdl\drivers\peripheral\sysclk/cy_sysclk.c **** * The second counter (counter2), which is clocked by clock2, counts up until the first
 925:Generated_Source\PSoC6\pdl\drivers\peripheral\sysclk/cy_sysclk.c **** * counter reaches zero.<br>
 926:Generated_Source\PSoC6\pdl\drivers\peripheral\sysclk/cy_sysclk.c **** * Either clock1 or clock2 can be a reference clock; the other clock becomes the
 927:Generated_Source\PSoC6\pdl\drivers\peripheral\sysclk/cy_sysclk.c **** * measured clock. The reference clock frequency is always known.<br>
 928:Generated_Source\PSoC6\pdl\drivers\peripheral\sysclk/cy_sysclk.c **** * After calling this function, call \ref Cy_SysClk_ClkMeasurementCountersDone()
 929:Generated_Source\PSoC6\pdl\drivers\peripheral\sysclk/cy_sysclk.c **** * to determine when counting is done, that is, counter1 has counted down to zero.
 930:Generated_Source\PSoC6\pdl\drivers\peripheral\sysclk/cy_sysclk.c **** * Then call \ref Cy_SysClk_ClkMeasurementCountersGetFreq() to calculate the frequency
 931:Generated_Source\PSoC6\pdl\drivers\peripheral\sysclk/cy_sysclk.c **** * of the measured clock.
 932:Generated_Source\PSoC6\pdl\drivers\peripheral\sysclk/cy_sysclk.c **** *
 933:Generated_Source\PSoC6\pdl\drivers\peripheral\sysclk/cy_sysclk.c **** * \param clock1 The clock for counter1
 934:Generated_Source\PSoC6\pdl\drivers\peripheral\sysclk/cy_sysclk.c **** *
 935:Generated_Source\PSoC6\pdl\drivers\peripheral\sysclk/cy_sysclk.c **** * \param count1 The initial value for counter1, from which counter1 counts down to zero.
 936:Generated_Source\PSoC6\pdl\drivers\peripheral\sysclk/cy_sysclk.c **** *
 937:Generated_Source\PSoC6\pdl\drivers\peripheral\sysclk/cy_sysclk.c **** * \param clock2 The clock for counter2
 938:Generated_Source\PSoC6\pdl\drivers\peripheral\sysclk/cy_sysclk.c **** *
 939:Generated_Source\PSoC6\pdl\drivers\peripheral\sysclk/cy_sysclk.c **** * \return Error / status code:<br>
 940:Generated_Source\PSoC6\pdl\drivers\peripheral\sysclk/cy_sysclk.c **** * CY_SYSCLK_INVALID_STATE if already doing a measurement<br>
 941:Generated_Source\PSoC6\pdl\drivers\peripheral\sysclk/cy_sysclk.c **** * CY_SYSCLK_BAD_PARAM if invalid clock input parameter<br>
 942:Generated_Source\PSoC6\pdl\drivers\peripheral\sysclk/cy_sysclk.c **** * else CY_SYSCLK_SUCCESS
 943:Generated_Source\PSoC6\pdl\drivers\peripheral\sysclk/cy_sysclk.c **** *
ARM GAS  C:\Users\kiwamu\AppData\Local\Temp\ccIx7zyv.s 			page 78


 944:Generated_Source\PSoC6\pdl\drivers\peripheral\sysclk/cy_sysclk.c **** * \note The counters are both 24-bit, so the maximum value of count1 is 0xFFFFFF.
 945:Generated_Source\PSoC6\pdl\drivers\peripheral\sysclk/cy_sysclk.c **** * If clock2 frequency is greater than clock1, make sure that count1 is low enough
 946:Generated_Source\PSoC6\pdl\drivers\peripheral\sysclk/cy_sysclk.c **** * that counter2 does not overflow before counter1 reaches zero.
 947:Generated_Source\PSoC6\pdl\drivers\peripheral\sysclk/cy_sysclk.c **** * \note The time to complete a measurement is count1 / clock1 frequency.
 948:Generated_Source\PSoC6\pdl\drivers\peripheral\sysclk/cy_sysclk.c **** * \note The clocks for both counters must have a nonzero frequency, or
 949:Generated_Source\PSoC6\pdl\drivers\peripheral\sysclk/cy_sysclk.c **** * \ref Cy_SysClk_ClkMeasurementCountersGetFreq() incorrectly reports the result of the
 950:Generated_Source\PSoC6\pdl\drivers\peripheral\sysclk/cy_sysclk.c **** * previous  measurement.
 951:Generated_Source\PSoC6\pdl\drivers\peripheral\sysclk/cy_sysclk.c **** * \note Do not enter a device low power mode (Sleep, Deep Sleep) while doing a measurement;
 952:Generated_Source\PSoC6\pdl\drivers\peripheral\sysclk/cy_sysclk.c **** * the measured clock frequency may not be accurate.
 953:Generated_Source\PSoC6\pdl\drivers\peripheral\sysclk/cy_sysclk.c **** *
 954:Generated_Source\PSoC6\pdl\drivers\peripheral\sysclk/cy_sysclk.c **** *******************************************************************************/
 955:Generated_Source\PSoC6\pdl\drivers\peripheral\sysclk/cy_sysclk.c **** cy_en_sysclk_status_t Cy_SysClk_StartClkMeasurementCounters(cy_en_meas_clks_t clock1, uint32_t coun
 956:Generated_Source\PSoC6\pdl\drivers\peripheral\sysclk/cy_sysclk.c **** {
 2451              		.loc 1 956 0
 2452              		.cfi_startproc
 2453              		@ args = 0, pretend = 0, frame = 0
 2454              		@ frame_needed = 0, uses_anonymous_args = 0
 2455              	.LVL305:
 2456 0000 F0B5     		push	{r4, r5, r6, r7, lr}
 2457              		.cfi_def_cfa_offset 20
 2458              		.cfi_offset 4, -20
 2459              		.cfi_offset 5, -16
 2460              		.cfi_offset 6, -12
 2461              		.cfi_offset 7, -8
 2462              		.cfi_offset 14, -4
 2463              	.LVL306:
 957:Generated_Source\PSoC6\pdl\drivers\peripheral\sysclk/cy_sysclk.c ****     cy_en_sysclk_status_t rtnval = CY_SYSCLK_INVALID_STATE;
 958:Generated_Source\PSoC6\pdl\drivers\peripheral\sysclk/cy_sysclk.c **** 
 959:Generated_Source\PSoC6\pdl\drivers\peripheral\sysclk/cy_sysclk.c ****     if ((!preventCounting) /* don't start a measurement if about to enter DeepSleep mode */  ||
 2464              		.loc 1 959 0
 2465 0002 5B4B     		ldr	r3, .L205
 2466 0004 1B78     		ldrb	r3, [r3]
 2467 0006 002B     		cmp	r3, #0
 2468 0008 05D0     		beq	.L191
 960:Generated_Source\PSoC6\pdl\drivers\peripheral\sysclk/cy_sysclk.c ****         (_FLD2VAL(SRSS_CLK_CAL_CNT1_CAL_COUNTER_DONE, SRSS->CLK_CAL_CNT1) != 0ul/*1 = done*/))
 2469              		.loc 1 960 0 discriminator 1
 2470 000a 5A4B     		ldr	r3, .L205+4
 2471 000c 5A4C     		ldr	r4, .L205+8
 2472 000e E358     		ldr	r3, [r4, r3]
 959:Generated_Source\PSoC6\pdl\drivers\peripheral\sysclk/cy_sysclk.c ****         (_FLD2VAL(SRSS_CLK_CAL_CNT1_CAL_COUNTER_DONE, SRSS->CLK_CAL_CNT1) != 0ul/*1 = done*/))
 2473              		.loc 1 959 0 discriminator 1
 2474 0010 002B     		cmp	r3, #0
 2475 0012 00DB     		blt	.LCB2496
 2476 0014 A4E0     		b	.L201	@long jump
 2477              	.LCB2496:
 2478              	.L191:
 2479              	.LVL307:
 961:Generated_Source\PSoC6\pdl\drivers\peripheral\sysclk/cy_sysclk.c ****     {
 962:Generated_Source\PSoC6\pdl\drivers\peripheral\sysclk/cy_sysclk.c ****         /* Connect the indicated clocks to the respective counters.
 963:Generated_Source\PSoC6\pdl\drivers\peripheral\sysclk/cy_sysclk.c **** 
 964:Generated_Source\PSoC6\pdl\drivers\peripheral\sysclk/cy_sysclk.c ****            if clock1 is a slow clock,
 965:Generated_Source\PSoC6\pdl\drivers\peripheral\sysclk/cy_sysclk.c ****              select it in SRSS_CLK_OUTPUT_SLOW.SLOW_SEL0, and SRSS_CLK_OUTPUT_FAST.FAST_SEL0 = SLOW
 966:Generated_Source\PSoC6\pdl\drivers\peripheral\sysclk/cy_sysclk.c ****            else if clock1 is a fast clock,
 967:Generated_Source\PSoC6\pdl\drivers\peripheral\sysclk/cy_sysclk.c ****              select it in SRSS_CLK_OUTPUT_FAST.FAST_SEL0,
 968:Generated_Source\PSoC6\pdl\drivers\peripheral\sysclk/cy_sysclk.c ****            else error, do nothing and return.
 969:Generated_Source\PSoC6\pdl\drivers\peripheral\sysclk/cy_sysclk.c **** 
 970:Generated_Source\PSoC6\pdl\drivers\peripheral\sysclk/cy_sysclk.c ****            if clock2 is a slow clock,
ARM GAS  C:\Users\kiwamu\AppData\Local\Temp\ccIx7zyv.s 			page 79


 971:Generated_Source\PSoC6\pdl\drivers\peripheral\sysclk/cy_sysclk.c ****              select it in SRSS_CLK_OUTPUT_SLOW.SLOW_SEL1, and SRSS_CLK_OUTPUT_FAST.FAST_SEL1 = SLOW
 972:Generated_Source\PSoC6\pdl\drivers\peripheral\sysclk/cy_sysclk.c ****            else if clock2 is a fast clock,
 973:Generated_Source\PSoC6\pdl\drivers\peripheral\sysclk/cy_sysclk.c ****              select it in SRSS_CLK_OUTPUT_FAST.FAST_SEL1,
 974:Generated_Source\PSoC6\pdl\drivers\peripheral\sysclk/cy_sysclk.c ****            else error, do nothing and return.
 975:Generated_Source\PSoC6\pdl\drivers\peripheral\sysclk/cy_sysclk.c ****         */
 976:Generated_Source\PSoC6\pdl\drivers\peripheral\sysclk/cy_sysclk.c ****         rtnval = CY_SYSCLK_BAD_PARAM;
 977:Generated_Source\PSoC6\pdl\drivers\peripheral\sysclk/cy_sysclk.c ****         if ((clock1 < CY_SYSCLK_MEAS_CLK_LAST_CLK) && (clock2 < CY_SYSCLK_MEAS_CLK_LAST_CLK) &&
 2480              		.loc 1 977 0
 2481 0016 594B     		ldr	r3, .L205+12
 2482 0018 9842     		cmp	r0, r3
 2483 001a 00D9     		bls	.LCB2501
 2484 001c A2E0     		b	.L202	@long jump
 2485              	.LCB2501:
 2486              		.loc 1 977 0 is_stmt 0 discriminator 1
 2487 001e 9A42     		cmp	r2, r3
 2488 0020 00D9     		bls	.LCB2503
 2489 0022 A1E0     		b	.L203	@long jump
 2490              	.LCB2503:
 2491              		.loc 1 977 0 discriminator 2
 2492 0024 564B     		ldr	r3, .L205+16
 2493 0026 9942     		cmp	r1, r3
 2494 0028 00D9     		bls	.LCB2506
 2495 002a 9FE0     		b	.L204	@long jump
 2496              	.LCB2506:
 978:Generated_Source\PSoC6\pdl\drivers\peripheral\sysclk/cy_sysclk.c ****             (count1 <= (SRSS_CLK_CAL_CNT1_CAL_COUNTER1_Msk >> SRSS_CLK_CAL_CNT1_CAL_COUNTER1_Pos)))
 979:Generated_Source\PSoC6\pdl\drivers\peripheral\sysclk/cy_sysclk.c ****         {
 980:Generated_Source\PSoC6\pdl\drivers\peripheral\sysclk/cy_sysclk.c ****             /* Disallow entry into DeepSleep mode while counting. */
 981:Generated_Source\PSoC6\pdl\drivers\peripheral\sysclk/cy_sysclk.c ****             clkCounting = true;
 2497              		.loc 1 981 0 is_stmt 1
 2498 002c 0124     		movs	r4, #1
 2499 002e 504B     		ldr	r3, .L205
 2500 0030 5C70     		strb	r4, [r3, #1]
 982:Generated_Source\PSoC6\pdl\drivers\peripheral\sysclk/cy_sysclk.c **** 
 983:Generated_Source\PSoC6\pdl\drivers\peripheral\sysclk/cy_sysclk.c ****             if (clock1 < CY_SYSCLK_MEAS_CLK_FAST_CLKS)
 2501              		.loc 1 983 0
 2502 0032 FF28     		cmp	r0, #255
 2503 0034 10D8     		bhi	.L193
 984:Generated_Source\PSoC6\pdl\drivers\peripheral\sysclk/cy_sysclk.c ****             { /* slow clock */
 985:Generated_Source\PSoC6\pdl\drivers\peripheral\sysclk/cy_sysclk.c ****                 SRSS->CLK_OUTPUT_SLOW = _CLR_SET_FLD32U(SRSS->CLK_OUTPUT_SLOW, SRSS_CLK_OUTPUT_SLOW
 2504              		.loc 1 985 0
 2505 0036 504C     		ldr	r4, .L205+8
 2506 0038 A327     		movs	r7, #163
 2507 003a FF00     		lsls	r7, r7, #3
 2508 003c E559     		ldr	r5, [r4, r7]
 2509 003e 0F26     		movs	r6, #15
 2510 0040 B543     		bics	r5, r6
 2511 0042 0F23     		movs	r3, #15
 2512 0044 1840     		ands	r0, r3
 2513              	.LVL308:
 2514 0046 2843     		orrs	r0, r5
 2515 0048 E051     		str	r0, [r4, r7]
 986:Generated_Source\PSoC6\pdl\drivers\peripheral\sysclk/cy_sysclk.c ****                 SRSS->CLK_OUTPUT_FAST = _CLR_SET_FLD32U(SRSS->CLK_OUTPUT_FAST, SRSS_CLK_OUTPUT_FAST
 2516              		.loc 1 986 0
 2517 004a 4E4D     		ldr	r5, .L205+20
 2518 004c 6359     		ldr	r3, [r4, r5]
 2519 004e B343     		bics	r3, r6
 2520 0050 0720     		movs	r0, #7
ARM GAS  C:\Users\kiwamu\AppData\Local\Temp\ccIx7zyv.s 			page 80


 2521 0052 0343     		orrs	r3, r0
 2522 0054 6351     		str	r3, [r4, r5]
 2523 0056 32E0     		b	.L194
 2524              	.LVL309:
 2525              	.L193:
 987:Generated_Source\PSoC6\pdl\drivers\peripheral\sysclk/cy_sysclk.c ****             }
 988:Generated_Source\PSoC6\pdl\drivers\peripheral\sysclk/cy_sysclk.c ****             else
 989:Generated_Source\PSoC6\pdl\drivers\peripheral\sysclk/cy_sysclk.c ****             { /* fast clock */
 990:Generated_Source\PSoC6\pdl\drivers\peripheral\sysclk/cy_sysclk.c ****                 if (clock1 < CY_SYSCLK_MEAS_CLK_PATH_CLKS)
 2526              		.loc 1 990 0
 2527 0058 4B4B     		ldr	r3, .L205+24
 2528 005a 9842     		cmp	r0, r3
 2529 005c 08D8     		bhi	.L195
 991:Generated_Source\PSoC6\pdl\drivers\peripheral\sysclk/cy_sysclk.c ****                 { /* ECO, EXT, ALTHF */
 992:Generated_Source\PSoC6\pdl\drivers\peripheral\sysclk/cy_sysclk.c ****                     SRSS->CLK_OUTPUT_FAST = _CLR_SET_FLD32U(SRSS->CLK_OUTPUT_FAST, SRSS_CLK_OUTPUT_
 2530              		.loc 1 992 0
 2531 005e 464E     		ldr	r6, .L205+8
 2532 0060 484D     		ldr	r5, .L205+20
 2533 0062 7459     		ldr	r4, [r6, r5]
 2534 0064 0F23     		movs	r3, #15
 2535 0066 9C43     		bics	r4, r3
 2536 0068 1840     		ands	r0, r3
 2537              	.LVL310:
 2538 006a 2043     		orrs	r0, r4
 2539 006c 7051     		str	r0, [r6, r5]
 2540 006e 26E0     		b	.L194
 2541              	.LVL311:
 2542              	.L195:
 993:Generated_Source\PSoC6\pdl\drivers\peripheral\sysclk/cy_sysclk.c ****                 }
 994:Generated_Source\PSoC6\pdl\drivers\peripheral\sysclk/cy_sysclk.c ****                 else
 995:Generated_Source\PSoC6\pdl\drivers\peripheral\sysclk/cy_sysclk.c ****                 { /* PATH or CLKHF */
 996:Generated_Source\PSoC6\pdl\drivers\peripheral\sysclk/cy_sysclk.c ****                     SRSS->CLK_OUTPUT_FAST = _CLR_SET_FLD32U(SRSS->CLK_OUTPUT_FAST, SRSS_CLK_OUTPUT_
 2543              		.loc 1 996 0
 2544 0070 414F     		ldr	r7, .L205+8
 2545 0072 444E     		ldr	r6, .L205+20
 2546 0074 BB59     		ldr	r3, [r7, r6]
 2547 0076 0F24     		movs	r4, #15
 2548 0078 A343     		bics	r3, r4
 2549 007a 1D00     		movs	r5, r3
 2550 007c 030A     		lsrs	r3, r0, #8
 2551 007e A446     		mov	ip, r4
 2552 0080 1C00     		movs	r4, r3
 2553 0082 6346     		mov	r3, ip
 2554 0084 2340     		ands	r3, r4
 2555 0086 2B43     		orrs	r3, r5
 2556 0088 BB51     		str	r3, [r7, r6]
 997:Generated_Source\PSoC6\pdl\drivers\peripheral\sysclk/cy_sysclk.c ****                                                             (((uint32_t)clock1 >> 8) & 0x0Ful) /*us
 998:Generated_Source\PSoC6\pdl\drivers\peripheral\sysclk/cy_sysclk.c ****                     if (clock1 < CY_SYSCLK_MEAS_CLK_CLKHFS)
 2557              		.loc 1 998 0
 2558 008a 404B     		ldr	r3, .L205+28
 2559 008c 9842     		cmp	r0, r3
 2560 008e 0BD8     		bhi	.L196
 999:Generated_Source\PSoC6\pdl\drivers\peripheral\sysclk/cy_sysclk.c ****                     { /* PATH select */
1000:Generated_Source\PSoC6\pdl\drivers\peripheral\sysclk/cy_sysclk.c ****                         SRSS->CLK_OUTPUT_FAST = _CLR_SET_FLD32U(SRSS->CLK_OUTPUT_FAST, SRSS_CLK_OUT
 2561              		.loc 1 1000 0
 2562 0090 3C4D     		ldr	r5, .L205+20
 2563 0092 7B59     		ldr	r3, [r7, r5]
ARM GAS  C:\Users\kiwamu\AppData\Local\Temp\ccIx7zyv.s 			page 81


 2564 0094 F024     		movs	r4, #240
 2565 0096 A343     		bics	r3, r4
 2566 0098 1C00     		movs	r4, r3
 2567 009a 0001     		lsls	r0, r0, #4
 2568              	.LVL312:
 2569 009c FF23     		movs	r3, #255
 2570 009e 1840     		ands	r0, r3
 2571 00a0 2300     		movs	r3, r4
 2572 00a2 0343     		orrs	r3, r0
 2573 00a4 7B51     		str	r3, [r7, r5]
 2574 00a6 0AE0     		b	.L194
 2575              	.LVL313:
 2576              	.L196:
1001:Generated_Source\PSoC6\pdl\drivers\peripheral\sysclk/cy_sysclk.c ****                                                                 ((uint32_t)clock1 & 0x0Ful) /*use e
1002:Generated_Source\PSoC6\pdl\drivers\peripheral\sysclk/cy_sysclk.c ****                     }
1003:Generated_Source\PSoC6\pdl\drivers\peripheral\sysclk/cy_sysclk.c ****                     else
1004:Generated_Source\PSoC6\pdl\drivers\peripheral\sysclk/cy_sysclk.c ****                     { /* CLKHF select */
1005:Generated_Source\PSoC6\pdl\drivers\peripheral\sysclk/cy_sysclk.c ****                         SRSS->CLK_OUTPUT_FAST = _CLR_SET_FLD32U(SRSS->CLK_OUTPUT_FAST, SRSS_CLK_OUT
 2577              		.loc 1 1005 0
 2578 00a8 334E     		ldr	r6, .L205+8
 2579 00aa 364D     		ldr	r5, .L205+20
 2580 00ac 7459     		ldr	r4, [r6, r5]
 2581 00ae 384B     		ldr	r3, .L205+32
 2582 00b0 1C40     		ands	r4, r3
 2583 00b2 0002     		lsls	r0, r0, #8
 2584              	.LVL314:
 2585 00b4 F023     		movs	r3, #240
 2586 00b6 1B01     		lsls	r3, r3, #4
 2587 00b8 1840     		ands	r0, r3
 2588 00ba 2043     		orrs	r0, r4
 2589 00bc 7051     		str	r0, [r6, r5]
 2590              	.L194:
1006:Generated_Source\PSoC6\pdl\drivers\peripheral\sysclk/cy_sysclk.c ****                                                                 ((uint32_t)clock1 & 0x0Ful) /*use e
1007:Generated_Source\PSoC6\pdl\drivers\peripheral\sysclk/cy_sysclk.c ****                     }
1008:Generated_Source\PSoC6\pdl\drivers\peripheral\sysclk/cy_sysclk.c ****                 }
1009:Generated_Source\PSoC6\pdl\drivers\peripheral\sysclk/cy_sysclk.c ****             } /* clock1 fast clock */
1010:Generated_Source\PSoC6\pdl\drivers\peripheral\sysclk/cy_sysclk.c **** 
1011:Generated_Source\PSoC6\pdl\drivers\peripheral\sysclk/cy_sysclk.c ****             if (clock2 < CY_SYSCLK_MEAS_CLK_FAST_CLKS)
 2591              		.loc 1 1011 0
 2592 00be FF2A     		cmp	r2, #255
 2593 00c0 13D8     		bhi	.L197
1012:Generated_Source\PSoC6\pdl\drivers\peripheral\sysclk/cy_sysclk.c ****             { /* slow clock */
1013:Generated_Source\PSoC6\pdl\drivers\peripheral\sysclk/cy_sysclk.c ****                 SRSS->CLK_OUTPUT_SLOW = _CLR_SET_FLD32U(SRSS->CLK_OUTPUT_SLOW, SRSS_CLK_OUTPUT_SLOW
 2594              		.loc 1 1013 0
 2595 00c2 2D48     		ldr	r0, .L205+8
 2596 00c4 A324     		movs	r4, #163
 2597 00c6 E400     		lsls	r4, r4, #3
 2598 00c8 0359     		ldr	r3, [r0, r4]
 2599 00ca F025     		movs	r5, #240
 2600 00cc AB43     		bics	r3, r5
 2601 00ce 1201     		lsls	r2, r2, #4
 2602              	.LVL315:
 2603 00d0 0F35     		adds	r5, r5, #15
 2604 00d2 2A40     		ands	r2, r5
 2605 00d4 1A43     		orrs	r2, r3
 2606 00d6 0251     		str	r2, [r0, r4]
1014:Generated_Source\PSoC6\pdl\drivers\peripheral\sysclk/cy_sysclk.c ****                 SRSS->CLK_OUTPUT_FAST = _CLR_SET_FLD32U(SRSS->CLK_OUTPUT_FAST, SRSS_CLK_OUTPUT_FAST
ARM GAS  C:\Users\kiwamu\AppData\Local\Temp\ccIx7zyv.s 			page 82


 2607              		.loc 1 1014 0
 2608 00d8 2A4A     		ldr	r2, .L205+20
 2609 00da 8458     		ldr	r4, [r0, r2]
 2610 00dc 2D4B     		ldr	r3, .L205+36
 2611 00de 2340     		ands	r3, r4
 2612 00e0 E024     		movs	r4, #224
 2613 00e2 E402     		lsls	r4, r4, #11
 2614 00e4 2343     		orrs	r3, r4
 2615 00e6 8350     		str	r3, [r0, r2]
 2616 00e8 33E0     		b	.L198
 2617              	.LVL316:
 2618              	.L197:
1015:Generated_Source\PSoC6\pdl\drivers\peripheral\sysclk/cy_sysclk.c ****             }
1016:Generated_Source\PSoC6\pdl\drivers\peripheral\sysclk/cy_sysclk.c ****             else
1017:Generated_Source\PSoC6\pdl\drivers\peripheral\sysclk/cy_sysclk.c ****             { /* fast clock */
1018:Generated_Source\PSoC6\pdl\drivers\peripheral\sysclk/cy_sysclk.c ****                 if (clock2 < CY_SYSCLK_MEAS_CLK_PATH_CLKS)
 2619              		.loc 1 1018 0
 2620 00ea 274B     		ldr	r3, .L205+24
 2621 00ec 9A42     		cmp	r2, r3
 2622 00ee 0BD8     		bhi	.L199
1019:Generated_Source\PSoC6\pdl\drivers\peripheral\sysclk/cy_sysclk.c ****                 { /* ECO, EXT, ALTHF */
1020:Generated_Source\PSoC6\pdl\drivers\peripheral\sysclk/cy_sysclk.c ****                     SRSS->CLK_OUTPUT_FAST = _CLR_SET_FLD32U(SRSS->CLK_OUTPUT_FAST, SRSS_CLK_OUTPUT_
 2623              		.loc 1 1020 0
 2624 00f0 214D     		ldr	r5, .L205+8
 2625 00f2 244C     		ldr	r4, .L205+20
 2626 00f4 2859     		ldr	r0, [r5, r4]
 2627 00f6 274B     		ldr	r3, .L205+36
 2628 00f8 1840     		ands	r0, r3
 2629 00fa 1204     		lsls	r2, r2, #16
 2630              	.LVL317:
 2631 00fc F023     		movs	r3, #240
 2632 00fe 1B03     		lsls	r3, r3, #12
 2633 0100 1A40     		ands	r2, r3
 2634 0102 0243     		orrs	r2, r0
 2635 0104 2A51     		str	r2, [r5, r4]
 2636 0106 24E0     		b	.L198
 2637              	.LVL318:
 2638              	.L199:
1021:Generated_Source\PSoC6\pdl\drivers\peripheral\sysclk/cy_sysclk.c ****                 }
1022:Generated_Source\PSoC6\pdl\drivers\peripheral\sysclk/cy_sysclk.c ****                 else
1023:Generated_Source\PSoC6\pdl\drivers\peripheral\sysclk/cy_sysclk.c ****                 { /* PATH or CLKHF */
1024:Generated_Source\PSoC6\pdl\drivers\peripheral\sysclk/cy_sysclk.c ****                     SRSS->CLK_OUTPUT_FAST = _CLR_SET_FLD32U(SRSS->CLK_OUTPUT_FAST, SRSS_CLK_OUTPUT_
 2639              		.loc 1 1024 0
 2640 0108 1B4E     		ldr	r6, .L205+8
 2641 010a 1E4D     		ldr	r5, .L205+20
 2642 010c 7459     		ldr	r4, [r6, r5]
 2643 010e 214B     		ldr	r3, .L205+36
 2644 0110 1C40     		ands	r4, r3
 2645 0112 130A     		lsrs	r3, r2, #8
 2646 0114 1B04     		lsls	r3, r3, #16
 2647 0116 F020     		movs	r0, #240
 2648 0118 0003     		lsls	r0, r0, #12
 2649 011a 0340     		ands	r3, r0
 2650 011c 2343     		orrs	r3, r4
 2651 011e 7351     		str	r3, [r6, r5]
1025:Generated_Source\PSoC6\pdl\drivers\peripheral\sysclk/cy_sysclk.c ****                                                             (((uint32_t)clock2 >> 8) & 0x0Ful) /*us
1026:Generated_Source\PSoC6\pdl\drivers\peripheral\sysclk/cy_sysclk.c ****                     if (clock2 < CY_SYSCLK_MEAS_CLK_CLKHFS)
ARM GAS  C:\Users\kiwamu\AppData\Local\Temp\ccIx7zyv.s 			page 83


 2652              		.loc 1 1026 0
 2653 0120 1A4B     		ldr	r3, .L205+28
 2654 0122 9A42     		cmp	r2, r3
 2655 0124 0AD8     		bhi	.L200
1027:Generated_Source\PSoC6\pdl\drivers\peripheral\sysclk/cy_sysclk.c ****                     { /* PATH select */
1028:Generated_Source\PSoC6\pdl\drivers\peripheral\sysclk/cy_sysclk.c ****                         SRSS->CLK_OUTPUT_FAST = _CLR_SET_FLD32U(SRSS->CLK_OUTPUT_FAST, SRSS_CLK_OUT
 2656              		.loc 1 1028 0
 2657 0126 7459     		ldr	r4, [r6, r5]
 2658 0128 1B4B     		ldr	r3, .L205+40
 2659 012a 1C40     		ands	r4, r3
 2660 012c 1205     		lsls	r2, r2, #20
 2661              	.LVL319:
 2662 012e F020     		movs	r0, #240
 2663 0130 0004     		lsls	r0, r0, #16
 2664 0132 0240     		ands	r2, r0
 2665 0134 2300     		movs	r3, r4
 2666 0136 1343     		orrs	r3, r2
 2667 0138 7351     		str	r3, [r6, r5]
 2668 013a 0AE0     		b	.L198
 2669              	.LVL320:
 2670              	.L200:
1029:Generated_Source\PSoC6\pdl\drivers\peripheral\sysclk/cy_sysclk.c ****                                                                 ((uint32_t)clock2 & 0x0Ful) /*use e
1030:Generated_Source\PSoC6\pdl\drivers\peripheral\sysclk/cy_sysclk.c ****                     }
1031:Generated_Source\PSoC6\pdl\drivers\peripheral\sysclk/cy_sysclk.c ****                     else
1032:Generated_Source\PSoC6\pdl\drivers\peripheral\sysclk/cy_sysclk.c ****                     { /* CLKHF select */
1033:Generated_Source\PSoC6\pdl\drivers\peripheral\sysclk/cy_sysclk.c ****                         SRSS->CLK_OUTPUT_FAST = _CLR_SET_FLD32U(SRSS->CLK_OUTPUT_FAST, SRSS_CLK_OUT
 2671              		.loc 1 1033 0
 2672 013c 0E4D     		ldr	r5, .L205+8
 2673 013e 114C     		ldr	r4, .L205+20
 2674 0140 2859     		ldr	r0, [r5, r4]
 2675 0142 164B     		ldr	r3, .L205+44
 2676 0144 1840     		ands	r0, r3
 2677 0146 1206     		lsls	r2, r2, #24
 2678              	.LVL321:
 2679 0148 F023     		movs	r3, #240
 2680 014a 1B05     		lsls	r3, r3, #20
 2681 014c 1A40     		ands	r2, r3
 2682 014e 0243     		orrs	r2, r0
 2683 0150 2A51     		str	r2, [r5, r4]
 2684              	.L198:
 2685              	.LVL322:
1034:Generated_Source\PSoC6\pdl\drivers\peripheral\sysclk/cy_sysclk.c ****                                                                 ((uint32_t)clock2 & 0x0Ful) /*use e
1035:Generated_Source\PSoC6\pdl\drivers\peripheral\sysclk/cy_sysclk.c ****                     }
1036:Generated_Source\PSoC6\pdl\drivers\peripheral\sysclk/cy_sysclk.c ****                 }
1037:Generated_Source\PSoC6\pdl\drivers\peripheral\sysclk/cy_sysclk.c ****             } /* clock2 fast clock */
1038:Generated_Source\PSoC6\pdl\drivers\peripheral\sysclk/cy_sysclk.c **** 
1039:Generated_Source\PSoC6\pdl\drivers\peripheral\sysclk/cy_sysclk.c ****             rtnval = CY_SYSCLK_SUCCESS;
1040:Generated_Source\PSoC6\pdl\drivers\peripheral\sysclk/cy_sysclk.c **** 
1041:Generated_Source\PSoC6\pdl\drivers\peripheral\sysclk/cy_sysclk.c ****             /* Save this input parameter for use later, in other functions.
1042:Generated_Source\PSoC6\pdl\drivers\peripheral\sysclk/cy_sysclk.c ****                No error checking is done on this parameter.*/
1043:Generated_Source\PSoC6\pdl\drivers\peripheral\sysclk/cy_sysclk.c ****             clk1Count1 = count1;
 2686              		.loc 1 1043 0
 2687 0152 074B     		ldr	r3, .L205
 2688 0154 5960     		str	r1, [r3, #4]
1044:Generated_Source\PSoC6\pdl\drivers\peripheral\sysclk/cy_sysclk.c **** 
1045:Generated_Source\PSoC6\pdl\drivers\peripheral\sysclk/cy_sysclk.c ****             /* Counting starts when counter1 is written with a nonzero value. */
1046:Generated_Source\PSoC6\pdl\drivers\peripheral\sysclk/cy_sysclk.c ****             SRSS->CLK_CAL_CNT1 = clk1Count1;
ARM GAS  C:\Users\kiwamu\AppData\Local\Temp\ccIx7zyv.s 			page 84


 2689              		.loc 1 1046 0
 2690 0156 074B     		ldr	r3, .L205+4
 2691 0158 074A     		ldr	r2, .L205+8
 2692 015a D150     		str	r1, [r2, r3]
1039:Generated_Source\PSoC6\pdl\drivers\peripheral\sysclk/cy_sysclk.c **** 
 2693              		.loc 1 1039 0
 2694 015c 0020     		movs	r0, #0
 2695 015e 06E0     		b	.L192
 2696              	.LVL323:
 2697              	.L201:
 957:Generated_Source\PSoC6\pdl\drivers\peripheral\sysclk/cy_sysclk.c **** 
 2698              		.loc 1 957 0
 2699 0160 0F48     		ldr	r0, .L205+48
 2700              	.LVL324:
 2701 0162 04E0     		b	.L192
 2702              	.LVL325:
 2703              	.L202:
 976:Generated_Source\PSoC6\pdl\drivers\peripheral\sysclk/cy_sysclk.c ****         if ((clock1 < CY_SYSCLK_MEAS_CLK_LAST_CLK) && (clock2 < CY_SYSCLK_MEAS_CLK_LAST_CLK) &&
 2704              		.loc 1 976 0
 2705 0164 0F48     		ldr	r0, .L205+52
 2706              	.LVL326:
 2707 0166 02E0     		b	.L192
 2708              	.LVL327:
 2709              	.L203:
 2710 0168 0E48     		ldr	r0, .L205+52
 2711              	.LVL328:
 2712 016a 00E0     		b	.L192
 2713              	.LVL329:
 2714              	.L204:
 2715 016c 0D48     		ldr	r0, .L205+52
 2716              	.LVL330:
 2717              	.L192:
1047:Generated_Source\PSoC6\pdl\drivers\peripheral\sysclk/cy_sysclk.c ****         } /* if (clock1 < CY_SYSCLK_MEAS_CLK_LAST_CLK && clock2 < CY_SYSCLK_MEAS_CLK_LAST_CLK) */
1048:Generated_Source\PSoC6\pdl\drivers\peripheral\sysclk/cy_sysclk.c ****     } /* if (not done) */
1049:Generated_Source\PSoC6\pdl\drivers\peripheral\sysclk/cy_sysclk.c ****     return (rtnval);
1050:Generated_Source\PSoC6\pdl\drivers\peripheral\sysclk/cy_sysclk.c **** }
 2718              		.loc 1 1050 0
 2719              		@ sp needed
 2720 016e F0BD     		pop	{r4, r5, r6, r7, pc}
 2721              	.L206:
 2722              		.align	2
 2723              	.L205:
 2724 0170 00000000 		.word	.LANCHOR1
 2725 0174 1C050000 		.word	1308
 2726 0178 00002640 		.word	1076232192
 2727 017c 0F060000 		.word	1551
 2728 0180 FFFFFF00 		.word	16777215
 2729 0184 14050000 		.word	1300
 2730 0188 FF040000 		.word	1279
 2731 018c FF050000 		.word	1535
 2732 0190 FFF0FFFF 		.word	-3841
 2733 0194 FFFFF0FF 		.word	-983041
 2734 0198 FFFF0FFF 		.word	-15728641
 2735 019c FFFFFFF0 		.word	-251658241
 2736 01a0 03004A00 		.word	4849667
 2737 01a4 01004A00 		.word	4849665
 2738              		.cfi_endproc
ARM GAS  C:\Users\kiwamu\AppData\Local\Temp\ccIx7zyv.s 			page 85


 2739              	.LFE151:
 2740              		.size	Cy_SysClk_StartClkMeasurementCounters, .-Cy_SysClk_StartClkMeasurementCounters
 2741              		.section	.text.Cy_SysClk_ClkMeasurementCountersGetFreq,"ax",%progbits
 2742              		.align	2
 2743              		.global	Cy_SysClk_ClkMeasurementCountersGetFreq
 2744              		.code	16
 2745              		.thumb_func
 2746              		.type	Cy_SysClk_ClkMeasurementCountersGetFreq, %function
 2747              	Cy_SysClk_ClkMeasurementCountersGetFreq:
 2748              	.LFB152:
1051:Generated_Source\PSoC6\pdl\drivers\peripheral\sysclk/cy_sysclk.c **** 
1052:Generated_Source\PSoC6\pdl\drivers\peripheral\sysclk/cy_sysclk.c **** /*******************************************************************************
1053:Generated_Source\PSoC6\pdl\drivers\peripheral\sysclk/cy_sysclk.c **** * Function Name: Cy_SysClk_ClkMeasurementCountersGetFreq
1054:Generated_Source\PSoC6\pdl\drivers\peripheral\sysclk/cy_sysclk.c **** ****************************************************************************//**
1055:Generated_Source\PSoC6\pdl\drivers\peripheral\sysclk/cy_sysclk.c **** *
1056:Generated_Source\PSoC6\pdl\drivers\peripheral\sysclk/cy_sysclk.c **** * Calculates the frequency of the indicated measured clock (clock1 or clock2).<br>
1057:Generated_Source\PSoC6\pdl\drivers\peripheral\sysclk/cy_sysclk.c **** * If clock1 is the measured clock, its frequency is:<br>
1058:Generated_Source\PSoC6\pdl\drivers\peripheral\sysclk/cy_sysclk.c **** * clock1 frequency = (count1 / count2) * clock2 frequency<br>
1059:Generated_Source\PSoC6\pdl\drivers\peripheral\sysclk/cy_sysclk.c **** * If clock2 is the measured clock, its frequency is:<br>
1060:Generated_Source\PSoC6\pdl\drivers\peripheral\sysclk/cy_sysclk.c **** * clock2 frequency = (count2 / count1) * clock1 frequency<br>
1061:Generated_Source\PSoC6\pdl\drivers\peripheral\sysclk/cy_sysclk.c **** * Call this function only after counting is done; see \ref Cy_SysClk_ClkMeasurementCountersDone().
1062:Generated_Source\PSoC6\pdl\drivers\peripheral\sysclk/cy_sysclk.c **** *
1063:Generated_Source\PSoC6\pdl\drivers\peripheral\sysclk/cy_sysclk.c **** * \param measuredClock False (0) if the measured clock is clock1, true (nonzero)
1064:Generated_Source\PSoC6\pdl\drivers\peripheral\sysclk/cy_sysclk.c **** * if the measured clock is clock2.
1065:Generated_Source\PSoC6\pdl\drivers\peripheral\sysclk/cy_sysclk.c **** *
1066:Generated_Source\PSoC6\pdl\drivers\peripheral\sysclk/cy_sysclk.c **** * \param refClkFreq The reference clock frequency (clock1 or clock2).
1067:Generated_Source\PSoC6\pdl\drivers\peripheral\sysclk/cy_sysclk.c **** *
1068:Generated_Source\PSoC6\pdl\drivers\peripheral\sysclk/cy_sysclk.c **** * \return The frequency of the measured clock, in Hz.
1069:Generated_Source\PSoC6\pdl\drivers\peripheral\sysclk/cy_sysclk.c **** *
1070:Generated_Source\PSoC6\pdl\drivers\peripheral\sysclk/cy_sysclk.c **** *******************************************************************************/
1071:Generated_Source\PSoC6\pdl\drivers\peripheral\sysclk/cy_sysclk.c **** uint32_t Cy_SysClk_ClkMeasurementCountersGetFreq(bool measuredClock, uint32_t refClkFreq)
1072:Generated_Source\PSoC6\pdl\drivers\peripheral\sysclk/cy_sysclk.c **** {
 2749              		.loc 1 1072 0
 2750              		.cfi_startproc
 2751              		@ args = 0, pretend = 0, frame = 8
 2752              		@ frame_needed = 0, uses_anonymous_args = 0
 2753              	.LVL331:
 2754 0000 70B5     		push	{r4, r5, r6, lr}
 2755              		.cfi_def_cfa_offset 16
 2756              		.cfi_offset 4, -16
 2757              		.cfi_offset 5, -12
 2758              		.cfi_offset 6, -8
 2759              		.cfi_offset 14, -4
 2760 0002 82B0     		sub	sp, sp, #8
 2761              		.cfi_def_cfa_offset 24
1073:Generated_Source\PSoC6\pdl\drivers\peripheral\sysclk/cy_sysclk.c ****     volatile uint64_t rtnval = (uint64_t)_FLD2VAL(SRSS_CLK_CAL_CNT2_CAL_COUNTER2, SRSS->CLK_CAL_CNT
 2762              		.loc 1 1073 0
 2763 0004 A423     		movs	r3, #164
 2764 0006 DB00     		lsls	r3, r3, #3
 2765 0008 1D4A     		ldr	r2, .L211
 2766 000a D458     		ldr	r4, [r2, r3]
 2767 000c 2402     		lsls	r4, r4, #8
 2768 000e 220A     		lsrs	r2, r4, #8
 2769 0010 0023     		movs	r3, #0
 2770 0012 0092     		str	r2, [sp]
 2771 0014 0193     		str	r3, [sp, #4]
1074:Generated_Source\PSoC6\pdl\drivers\peripheral\sysclk/cy_sysclk.c **** 
ARM GAS  C:\Users\kiwamu\AppData\Local\Temp\ccIx7zyv.s 			page 86


1075:Generated_Source\PSoC6\pdl\drivers\peripheral\sysclk/cy_sysclk.c ****     /* Done counting; allow entry into DeepSleep mode. */
1076:Generated_Source\PSoC6\pdl\drivers\peripheral\sysclk/cy_sysclk.c ****     clkCounting = false;
 2772              		.loc 1 1076 0
 2773 0016 1B4B     		ldr	r3, .L211+4
 2774 0018 0022     		movs	r2, #0
 2775 001a 5A70     		strb	r2, [r3, #1]
1077:Generated_Source\PSoC6\pdl\drivers\peripheral\sysclk/cy_sysclk.c **** 
1078:Generated_Source\PSoC6\pdl\drivers\peripheral\sysclk/cy_sysclk.c ****     if (!measuredClock)
 2776              		.loc 1 1078 0
 2777 001c 0028     		cmp	r0, #0
 2778 001e 19D1     		bne	.L208
1079:Generated_Source\PSoC6\pdl\drivers\peripheral\sysclk/cy_sysclk.c ****     { /* clock1 is the measured clock */
1080:Generated_Source\PSoC6\pdl\drivers\peripheral\sysclk/cy_sysclk.c ****         if (rtnval != 0u) /* avoid divide by zero */
 2779              		.loc 1 1080 0
 2780 0020 009A     		ldr	r2, [sp]
 2781 0022 019B     		ldr	r3, [sp, #4]
 2782 0024 1A43     		orrs	r2, r3
 2783 0026 26D0     		beq	.L209
1081:Generated_Source\PSoC6\pdl\drivers\peripheral\sysclk/cy_sysclk.c ****         {
1082:Generated_Source\PSoC6\pdl\drivers\peripheral\sysclk/cy_sysclk.c ****             rtnval = CY_SYSCLK_DIV_ROUND((uint64_t)clk1Count1 * (uint64_t)refClkFreq, rtnval);
 2784              		.loc 1 1082 0
 2785 0028 164B     		ldr	r3, .L211+4
 2786 002a 5868     		ldr	r0, [r3, #4]
 2787              	.LVL332:
 2788 002c 0A00     		movs	r2, r1
 2789 002e 0023     		movs	r3, #0
 2790 0030 0021     		movs	r1, #0
 2791              	.LVL333:
 2792 0032 FFF7FEFF 		bl	__aeabi_lmul
 2793              	.LVL334:
 2794 0036 009C     		ldr	r4, [sp]
 2795 0038 019D     		ldr	r5, [sp, #4]
 2796 003a EE07     		lsls	r6, r5, #31
 2797 003c 6208     		lsrs	r2, r4, #1
 2798 003e 3243     		orrs	r2, r6
 2799 0040 6B08     		lsrs	r3, r5, #1
 2800 0042 8018     		adds	r0, r0, r2
 2801 0044 5941     		adcs	r1, r1, r3
 2802 0046 009A     		ldr	r2, [sp]
 2803 0048 019B     		ldr	r3, [sp, #4]
 2804 004a FFF7FEFF 		bl	__aeabi_uldivmod
 2805              	.LVL335:
 2806 004e 0090     		str	r0, [sp]
 2807 0050 0191     		str	r1, [sp, #4]
 2808 0052 10E0     		b	.L209
 2809              	.LVL336:
 2810              	.L208:
1083:Generated_Source\PSoC6\pdl\drivers\peripheral\sysclk/cy_sysclk.c ****         }
1084:Generated_Source\PSoC6\pdl\drivers\peripheral\sysclk/cy_sysclk.c ****     }
1085:Generated_Source\PSoC6\pdl\drivers\peripheral\sysclk/cy_sysclk.c ****     else
1086:Generated_Source\PSoC6\pdl\drivers\peripheral\sysclk/cy_sysclk.c ****     { /* clock2 is the measured clock */
1087:Generated_Source\PSoC6\pdl\drivers\peripheral\sysclk/cy_sysclk.c ****         rtnval = CY_SYSCLK_DIV_ROUND(rtnval * (uint64_t)refClkFreq, (uint64_t)clk1Count1 );
 2811              		.loc 1 1087 0
 2812 0054 009A     		ldr	r2, [sp]
 2813 0056 019B     		ldr	r3, [sp, #4]
 2814 0058 0800     		movs	r0, r1
 2815              	.LVL337:
ARM GAS  C:\Users\kiwamu\AppData\Local\Temp\ccIx7zyv.s 			page 87


 2816 005a 0021     		movs	r1, #0
 2817              	.LVL338:
 2818 005c FFF7FEFF 		bl	__aeabi_lmul
 2819              	.LVL339:
 2820 0060 084B     		ldr	r3, .L211+4
 2821 0062 5A68     		ldr	r2, [r3, #4]
 2822 0064 5408     		lsrs	r4, r2, #1
 2823 0066 0025     		movs	r5, #0
 2824 0068 0019     		adds	r0, r0, r4
 2825 006a 6941     		adcs	r1, r1, r5
 2826 006c 0023     		movs	r3, #0
 2827 006e FFF7FEFF 		bl	__aeabi_uldivmod
 2828              	.LVL340:
 2829 0072 0090     		str	r0, [sp]
 2830 0074 0191     		str	r1, [sp, #4]
 2831              	.L209:
1088:Generated_Source\PSoC6\pdl\drivers\peripheral\sysclk/cy_sysclk.c ****     }
1089:Generated_Source\PSoC6\pdl\drivers\peripheral\sysclk/cy_sysclk.c ****     return ((uint32_t)rtnval);
 2832              		.loc 1 1089 0
 2833 0076 0098     		ldr	r0, [sp]
 2834 0078 0199     		ldr	r1, [sp, #4]
1090:Generated_Source\PSoC6\pdl\drivers\peripheral\sysclk/cy_sysclk.c **** }
 2835              		.loc 1 1090 0
 2836 007a 02B0     		add	sp, sp, #8
 2837              		@ sp needed
 2838 007c 70BD     		pop	{r4, r5, r6, pc}
 2839              	.L212:
 2840 007e C046     		.align	2
 2841              	.L211:
 2842 0080 00002640 		.word	1076232192
 2843 0084 00000000 		.word	.LANCHOR1
 2844              		.cfi_endproc
 2845              	.LFE152:
 2846              		.size	Cy_SysClk_ClkMeasurementCountersGetFreq, .-Cy_SysClk_ClkMeasurementCountersGetFreq
 2847              		.section	.text.Cy_SysClk_IloTrim,"ax",%progbits
 2848              		.align	2
 2849              		.global	Cy_SysClk_IloTrim
 2850              		.code	16
 2851              		.thumb_func
 2852              		.type	Cy_SysClk_IloTrim, %function
 2853              	Cy_SysClk_IloTrim:
 2854              	.LFB153:
1091:Generated_Source\PSoC6\pdl\drivers\peripheral\sysclk/cy_sysclk.c **** /** \} group_sysclk_calclk_funcs */
1092:Generated_Source\PSoC6\pdl\drivers\peripheral\sysclk/cy_sysclk.c **** 
1093:Generated_Source\PSoC6\pdl\drivers\peripheral\sysclk/cy_sysclk.c **** 
1094:Generated_Source\PSoC6\pdl\drivers\peripheral\sysclk/cy_sysclk.c **** /* ========================================================================== */
1095:Generated_Source\PSoC6\pdl\drivers\peripheral\sysclk/cy_sysclk.c **** /* ==========================    TRIM SECTION    ============================ */
1096:Generated_Source\PSoC6\pdl\drivers\peripheral\sysclk/cy_sysclk.c **** /* ========================================================================== */
1097:Generated_Source\PSoC6\pdl\drivers\peripheral\sysclk/cy_sysclk.c **** /**
1098:Generated_Source\PSoC6\pdl\drivers\peripheral\sysclk/cy_sysclk.c **** * \addtogroup group_sysclk_trim_funcs
1099:Generated_Source\PSoC6\pdl\drivers\peripheral\sysclk/cy_sysclk.c **** * \{
1100:Generated_Source\PSoC6\pdl\drivers\peripheral\sysclk/cy_sysclk.c **** */
1101:Generated_Source\PSoC6\pdl\drivers\peripheral\sysclk/cy_sysclk.c **** 
1102:Generated_Source\PSoC6\pdl\drivers\peripheral\sysclk/cy_sysclk.c **** /*******************************************************************************
1103:Generated_Source\PSoC6\pdl\drivers\peripheral\sysclk/cy_sysclk.c **** * Function Name: Cy_SysClk_IloTrim
1104:Generated_Source\PSoC6\pdl\drivers\peripheral\sysclk/cy_sysclk.c **** ****************************************************************************//**
1105:Generated_Source\PSoC6\pdl\drivers\peripheral\sysclk/cy_sysclk.c **** *
ARM GAS  C:\Users\kiwamu\AppData\Local\Temp\ccIx7zyv.s 			page 88


1106:Generated_Source\PSoC6\pdl\drivers\peripheral\sysclk/cy_sysclk.c **** * Trims the ILO to be as close to 32,768 Hz as possible.
1107:Generated_Source\PSoC6\pdl\drivers\peripheral\sysclk/cy_sysclk.c **** *
1108:Generated_Source\PSoC6\pdl\drivers\peripheral\sysclk/cy_sysclk.c **** * \param iloFreq current ILO frequency. Call \ref Cy_SysClk_StartClkMeasurementCounters
1109:Generated_Source\PSoC6\pdl\drivers\peripheral\sysclk/cy_sysclk.c **** * and other measurement functions to obtain the current frequency of the ILO.
1110:Generated_Source\PSoC6\pdl\drivers\peripheral\sysclk/cy_sysclk.c **** *
1111:Generated_Source\PSoC6\pdl\drivers\peripheral\sysclk/cy_sysclk.c **** * \return Change in trim value; 0 if done, that is, no change in trim value.
1112:Generated_Source\PSoC6\pdl\drivers\peripheral\sysclk/cy_sysclk.c **** *
1113:Generated_Source\PSoC6\pdl\drivers\peripheral\sysclk/cy_sysclk.c **** * \note The watchdog timer (WDT) must be unlocked before calling this function.
1114:Generated_Source\PSoC6\pdl\drivers\peripheral\sysclk/cy_sysclk.c **** *******************************************************************************/
1115:Generated_Source\PSoC6\pdl\drivers\peripheral\sysclk/cy_sysclk.c **** /** \cond INTERNAL */
1116:Generated_Source\PSoC6\pdl\drivers\peripheral\sysclk/cy_sysclk.c **** /* target frequency */
1117:Generated_Source\PSoC6\pdl\drivers\peripheral\sysclk/cy_sysclk.c **** #define CY_SYSCLK_ILO_TARGET_FREQ  32768u
1118:Generated_Source\PSoC6\pdl\drivers\peripheral\sysclk/cy_sysclk.c **** /** \endcond */
1119:Generated_Source\PSoC6\pdl\drivers\peripheral\sysclk/cy_sysclk.c **** 
1120:Generated_Source\PSoC6\pdl\drivers\peripheral\sysclk/cy_sysclk.c **** int32_t Cy_SysClk_IloTrim(uint32_t iloFreq)
1121:Generated_Source\PSoC6\pdl\drivers\peripheral\sysclk/cy_sysclk.c **** {
 2855              		.loc 1 1121 0
 2856              		.cfi_startproc
 2857              		@ args = 0, pretend = 0, frame = 0
 2858              		@ frame_needed = 0, uses_anonymous_args = 0
 2859              	.LVL341:
 2860 0000 70B5     		push	{r4, r5, r6, lr}
 2861              		.cfi_def_cfa_offset 16
 2862              		.cfi_offset 4, -16
 2863              		.cfi_offset 5, -12
 2864              		.cfi_offset 6, -8
 2865              		.cfi_offset 14, -4
 2866              	.LVL342:
1122:Generated_Source\PSoC6\pdl\drivers\peripheral\sysclk/cy_sysclk.c ****     /* Nominal trim step size is 1.5% of "the frequency". Using the target frequency. */
1123:Generated_Source\PSoC6\pdl\drivers\peripheral\sysclk/cy_sysclk.c ****     const uint32_t trimStep = CY_SYSCLK_DIV_ROUND((uint32_t)CY_SYSCLK_ILO_TARGET_FREQ * 15ul, 1000u
1124:Generated_Source\PSoC6\pdl\drivers\peripheral\sysclk/cy_sysclk.c **** 
1125:Generated_Source\PSoC6\pdl\drivers\peripheral\sysclk/cy_sysclk.c ****     uint32_t newTrim = 0ul;
1126:Generated_Source\PSoC6\pdl\drivers\peripheral\sysclk/cy_sysclk.c ****     uint32_t curTrim = 0ul;
1127:Generated_Source\PSoC6\pdl\drivers\peripheral\sysclk/cy_sysclk.c **** 
1128:Generated_Source\PSoC6\pdl\drivers\peripheral\sysclk/cy_sysclk.c ****     /* Do nothing if iloFreq is already within one trim step from the target */
1129:Generated_Source\PSoC6\pdl\drivers\peripheral\sysclk/cy_sysclk.c ****     uint32_t diff = (uint32_t)abs((int32_t)iloFreq - (int32_t)CY_SYSCLK_ILO_TARGET_FREQ);
 2867              		.loc 1 1129 0
 2868 0002 174B     		ldr	r3, .L218
 2869 0004 C318     		adds	r3, r0, r3
 2870 0006 DA17     		asrs	r2, r3, #31
 2871 0008 9B18     		adds	r3, r3, r2
 2872 000a 5340     		eors	r3, r2
 2873              	.LVL343:
1130:Generated_Source\PSoC6\pdl\drivers\peripheral\sysclk/cy_sysclk.c ****     if (diff >= trimStep)
 2874              		.loc 1 1130 0
 2875 000c EC22     		movs	r2, #236
 2876 000e FF32     		adds	r2, r2, #255
 2877 0010 9342     		cmp	r3, r2
 2878 0012 21D9     		bls	.L217
1131:Generated_Source\PSoC6\pdl\drivers\peripheral\sysclk/cy_sysclk.c ****     {
1132:Generated_Source\PSoC6\pdl\drivers\peripheral\sysclk/cy_sysclk.c ****         curTrim = _FLD2VAL(SRSS_CLK_TRIM_ILO_CTL_ILO_FTRIM, SRSS->CLK_TRIM_ILO_CTL);
 2879              		.loc 1 1132 0
 2880 0014 134B     		ldr	r3, .L218+4
 2881              	.LVL344:
 2882 0016 144A     		ldr	r2, .L218+8
 2883 0018 D358     		ldr	r3, [r2, r3]
 2884 001a 3F24     		movs	r4, #63
ARM GAS  C:\Users\kiwamu\AppData\Local\Temp\ccIx7zyv.s 			page 89


 2885 001c 1C40     		ands	r4, r3
 2886              	.LVL345:
1133:Generated_Source\PSoC6\pdl\drivers\peripheral\sysclk/cy_sysclk.c ****         if (iloFreq > CY_SYSCLK_ILO_TARGET_FREQ)
 2887              		.loc 1 1133 0
 2888 001e 8023     		movs	r3, #128
 2889 0020 1B02     		lsls	r3, r3, #8
 2890 0022 9842     		cmp	r0, r3
 2891 0024 08D9     		bls	.L215
1134:Generated_Source\PSoC6\pdl\drivers\peripheral\sysclk/cy_sysclk.c ****         { /* iloFreq is too high. Reduce the trim value */
1135:Generated_Source\PSoC6\pdl\drivers\peripheral\sysclk/cy_sysclk.c ****             newTrim = curTrim - CY_SYSCLK_DIV_ROUND(iloFreq - CY_SYSCLK_ILO_TARGET_FREQ, trimStep);
 2892              		.loc 1 1135 0
 2893 0026 114B     		ldr	r3, .L218+12
 2894 0028 9C46     		mov	ip, r3
 2895 002a 6044     		add	r0, r0, ip
 2896              	.LVL346:
 2897 002c F621     		movs	r1, #246
 2898 002e 4900     		lsls	r1, r1, #1
 2899 0030 FFF7FEFF 		bl	__aeabi_uidiv
 2900              	.LVL347:
 2901 0034 201A     		subs	r0, r4, r0
 2902              	.LVL348:
 2903 0036 06E0     		b	.L216
 2904              	.LVL349:
 2905              	.L215:
1136:Generated_Source\PSoC6\pdl\drivers\peripheral\sysclk/cy_sysclk.c ****         }
1137:Generated_Source\PSoC6\pdl\drivers\peripheral\sysclk/cy_sysclk.c ****         else
1138:Generated_Source\PSoC6\pdl\drivers\peripheral\sysclk/cy_sysclk.c ****         { /* iloFreq too low. Increase the trim value. */
1139:Generated_Source\PSoC6\pdl\drivers\peripheral\sysclk/cy_sysclk.c ****             newTrim = curTrim + CY_SYSCLK_DIV_ROUND(CY_SYSCLK_ILO_TARGET_FREQ - iloFreq, trimStep);
 2906              		.loc 1 1139 0
 2907 0038 0D4B     		ldr	r3, .L218+16
 2908 003a 181A     		subs	r0, r3, r0
 2909              	.LVL350:
 2910 003c F621     		movs	r1, #246
 2911 003e 4900     		lsls	r1, r1, #1
 2912 0040 FFF7FEFF 		bl	__aeabi_uidiv
 2913              	.LVL351:
 2914 0044 2018     		adds	r0, r4, r0
 2915              	.LVL352:
 2916              	.L216:
1140:Generated_Source\PSoC6\pdl\drivers\peripheral\sysclk/cy_sysclk.c ****         }
1141:Generated_Source\PSoC6\pdl\drivers\peripheral\sysclk/cy_sysclk.c **** 
1142:Generated_Source\PSoC6\pdl\drivers\peripheral\sysclk/cy_sysclk.c ****         /* Update the trim value */
1143:Generated_Source\PSoC6\pdl\drivers\peripheral\sysclk/cy_sysclk.c ****         CY_SYSCLK_CLR_SET(SRSS->CLK_TRIM_ILO_CTL, SRSS_CLK_TRIM_ILO_CTL_ILO_FTRIM, newTrim);
 2917              		.loc 1 1143 0
 2918 0046 084D     		ldr	r5, .L218+8
 2919 0048 0649     		ldr	r1, .L218+4
 2920 004a 6A58     		ldr	r2, [r5, r1]
 2921 004c 3F23     		movs	r3, #63
 2922 004e 9A43     		bics	r2, r3
 2923 0050 0340     		ands	r3, r0
 2924 0052 1343     		orrs	r3, r2
 2925 0054 6B50     		str	r3, [r5, r1]
 2926 0056 01E0     		b	.L214
 2927              	.LVL353:
 2928              	.L217:
1126:Generated_Source\PSoC6\pdl\drivers\peripheral\sysclk/cy_sysclk.c **** 
 2929              		.loc 1 1126 0
ARM GAS  C:\Users\kiwamu\AppData\Local\Temp\ccIx7zyv.s 			page 90


 2930 0058 0024     		movs	r4, #0
1125:Generated_Source\PSoC6\pdl\drivers\peripheral\sysclk/cy_sysclk.c ****     uint32_t curTrim = 0ul;
 2931              		.loc 1 1125 0
 2932 005a 0020     		movs	r0, #0
 2933              	.LVL354:
 2934              	.L214:
1144:Generated_Source\PSoC6\pdl\drivers\peripheral\sysclk/cy_sysclk.c ****     }
1145:Generated_Source\PSoC6\pdl\drivers\peripheral\sysclk/cy_sysclk.c ****     return (int32_t)(curTrim - newTrim);
 2935              		.loc 1 1145 0
 2936 005c 201A     		subs	r0, r4, r0
 2937              	.LVL355:
1146:Generated_Source\PSoC6\pdl\drivers\peripheral\sysclk/cy_sysclk.c **** }
 2938              		.loc 1 1146 0
 2939              		@ sp needed
 2940              	.LVL356:
 2941 005e 70BD     		pop	{r4, r5, r6, pc}
 2942              	.L219:
 2943              		.align	2
 2944              	.L218:
 2945 0060 0080FFFF 		.word	-32768
 2946 0064 18FF0000 		.word	65304
 2947 0068 00002640 		.word	1076232192
 2948 006c F680FFFF 		.word	-32522
 2949 0070 F6800000 		.word	33014
 2950              		.cfi_endproc
 2951              	.LFE153:
 2952              		.size	Cy_SysClk_IloTrim, .-Cy_SysClk_IloTrim
 2953              		.section	.text.Cy_SysClk_PiloTrim,"ax",%progbits
 2954              		.align	2
 2955              		.global	Cy_SysClk_PiloTrim
 2956              		.code	16
 2957              		.thumb_func
 2958              		.type	Cy_SysClk_PiloTrim, %function
 2959              	Cy_SysClk_PiloTrim:
 2960              	.LFB154:
1147:Generated_Source\PSoC6\pdl\drivers\peripheral\sysclk/cy_sysclk.c **** 
1148:Generated_Source\PSoC6\pdl\drivers\peripheral\sysclk/cy_sysclk.c **** /*******************************************************************************
1149:Generated_Source\PSoC6\pdl\drivers\peripheral\sysclk/cy_sysclk.c **** * Function Name: Cy_SysClk_PiloTrim
1150:Generated_Source\PSoC6\pdl\drivers\peripheral\sysclk/cy_sysclk.c **** ****************************************************************************//**
1151:Generated_Source\PSoC6\pdl\drivers\peripheral\sysclk/cy_sysclk.c **** *
1152:Generated_Source\PSoC6\pdl\drivers\peripheral\sysclk/cy_sysclk.c **** * Trims the PILO to be as close to 32,768 Hz as possible.
1153:Generated_Source\PSoC6\pdl\drivers\peripheral\sysclk/cy_sysclk.c **** *
1154:Generated_Source\PSoC6\pdl\drivers\peripheral\sysclk/cy_sysclk.c **** * \param piloFreq current PILO frequency. Call \ref Cy_SysClk_StartClkMeasurementCounters
1155:Generated_Source\PSoC6\pdl\drivers\peripheral\sysclk/cy_sysclk.c **** * and other measurement functions to obtain the current frequency of the PILO.
1156:Generated_Source\PSoC6\pdl\drivers\peripheral\sysclk/cy_sysclk.c **** *
1157:Generated_Source\PSoC6\pdl\drivers\peripheral\sysclk/cy_sysclk.c **** * \return Change in trim value; 0 if done, that is, no change in trim value.
1158:Generated_Source\PSoC6\pdl\drivers\peripheral\sysclk/cy_sysclk.c **** *
1159:Generated_Source\PSoC6\pdl\drivers\peripheral\sysclk/cy_sysclk.c **** *******************************************************************************/
1160:Generated_Source\PSoC6\pdl\drivers\peripheral\sysclk/cy_sysclk.c **** /** \cond INTERNAL */
1161:Generated_Source\PSoC6\pdl\drivers\peripheral\sysclk/cy_sysclk.c **** /* target frequency */
1162:Generated_Source\PSoC6\pdl\drivers\peripheral\sysclk/cy_sysclk.c **** #define CY_SYSCLK_PILO_TARGET_FREQ  32768ul
1163:Generated_Source\PSoC6\pdl\drivers\peripheral\sysclk/cy_sysclk.c **** /* nominal trim step size */
1164:Generated_Source\PSoC6\pdl\drivers\peripheral\sysclk/cy_sysclk.c **** #define CY_SYSCLK_PILO_TRIM_STEP        5ul
1165:Generated_Source\PSoC6\pdl\drivers\peripheral\sysclk/cy_sysclk.c **** /** \endcond */
1166:Generated_Source\PSoC6\pdl\drivers\peripheral\sysclk/cy_sysclk.c **** 
1167:Generated_Source\PSoC6\pdl\drivers\peripheral\sysclk/cy_sysclk.c **** int32_t Cy_SysClk_PiloTrim(uint32_t piloFreq)
1168:Generated_Source\PSoC6\pdl\drivers\peripheral\sysclk/cy_sysclk.c **** {
ARM GAS  C:\Users\kiwamu\AppData\Local\Temp\ccIx7zyv.s 			page 91


 2961              		.loc 1 1168 0
 2962              		.cfi_startproc
 2963              		@ args = 0, pretend = 0, frame = 0
 2964              		@ frame_needed = 0, uses_anonymous_args = 0
 2965              	.LVL357:
 2966 0000 70B5     		push	{r4, r5, r6, lr}
 2967              		.cfi_def_cfa_offset 16
 2968              		.cfi_offset 4, -16
 2969              		.cfi_offset 5, -12
 2970              		.cfi_offset 6, -8
 2971              		.cfi_offset 14, -4
 2972              	.LVL358:
1169:Generated_Source\PSoC6\pdl\drivers\peripheral\sysclk/cy_sysclk.c ****     uint32_t newTrim = 0ul;
1170:Generated_Source\PSoC6\pdl\drivers\peripheral\sysclk/cy_sysclk.c ****     uint32_t curTrim = 0ul;
1171:Generated_Source\PSoC6\pdl\drivers\peripheral\sysclk/cy_sysclk.c **** 
1172:Generated_Source\PSoC6\pdl\drivers\peripheral\sysclk/cy_sysclk.c ****     /* Do nothing if piloFreq is already within one trim step from the target */
1173:Generated_Source\PSoC6\pdl\drivers\peripheral\sysclk/cy_sysclk.c ****     uint32_t diff = (uint32_t)abs((int32_t)piloFreq - (int32_t)CY_SYSCLK_PILO_TARGET_FREQ);
 2973              		.loc 1 1173 0
 2974 0002 1A4B     		ldr	r3, .L227
 2975 0004 C318     		adds	r3, r0, r3
 2976 0006 DA17     		asrs	r2, r3, #31
 2977 0008 9B18     		adds	r3, r3, r2
 2978 000a 5340     		eors	r3, r2
 2979              	.LVL359:
1174:Generated_Source\PSoC6\pdl\drivers\peripheral\sysclk/cy_sysclk.c ****     if (diff >= CY_SYSCLK_PILO_TRIM_STEP)
 2980              		.loc 1 1174 0
 2981 000c 042B     		cmp	r3, #4
 2982 000e 28D9     		bls	.L224
 2983              	.LBB45:
 2984              	.LBB46:
 846:Generated_Source\PSoC6\pdl\drivers\peripheral\sysclk/cy_sysclk.h ****     return CY_SYSCLK_SUCCESS; /* placeholder */
 847:Generated_Source\PSoC6\pdl\drivers\peripheral\sysclk/cy_sysclk.h **** }
 848:Generated_Source\PSoC6\pdl\drivers\peripheral\sysclk/cy_sysclk.h **** /** \} group_sysclk_fll_funcs */
 849:Generated_Source\PSoC6\pdl\drivers\peripheral\sysclk/cy_sysclk.h **** 
 850:Generated_Source\PSoC6\pdl\drivers\peripheral\sysclk/cy_sysclk.h **** 
 851:Generated_Source\PSoC6\pdl\drivers\peripheral\sysclk/cy_sysclk.h **** /* ========================================================================== */
 852:Generated_Source\PSoC6\pdl\drivers\peripheral\sysclk/cy_sysclk.h **** /* ===========================    PLL SECTION    ============================ */
 853:Generated_Source\PSoC6\pdl\drivers\peripheral\sysclk/cy_sysclk.h **** /* ========================================================================== */
 854:Generated_Source\PSoC6\pdl\drivers\peripheral\sysclk/cy_sysclk.h **** /**
 855:Generated_Source\PSoC6\pdl\drivers\peripheral\sysclk/cy_sysclk.h **** * \addtogroup group_sysclk_pll_structs
 856:Generated_Source\PSoC6\pdl\drivers\peripheral\sysclk/cy_sysclk.h **** * \{
 857:Generated_Source\PSoC6\pdl\drivers\peripheral\sysclk/cy_sysclk.h **** */
 858:Generated_Source\PSoC6\pdl\drivers\peripheral\sysclk/cy_sysclk.h **** /** Structure containing information for configuration of a PLL.
 859:Generated_Source\PSoC6\pdl\drivers\peripheral\sysclk/cy_sysclk.h **** */
 860:Generated_Source\PSoC6\pdl\drivers\peripheral\sysclk/cy_sysclk.h **** typedef struct
 861:Generated_Source\PSoC6\pdl\drivers\peripheral\sysclk/cy_sysclk.h **** {
 862:Generated_Source\PSoC6\pdl\drivers\peripheral\sysclk/cy_sysclk.h ****     uint32_t                    inputFreq;  /**< frequency of PLL source, in Hz */
 863:Generated_Source\PSoC6\pdl\drivers\peripheral\sysclk/cy_sysclk.h ****     uint32_t                    outputFreq; /**< frequency of PLL output, in Hz */
 864:Generated_Source\PSoC6\pdl\drivers\peripheral\sysclk/cy_sysclk.h ****     bool                        lfMode;     /**< CLK_PLL_CONFIG register, PLL_LF_MODE bit */
 865:Generated_Source\PSoC6\pdl\drivers\peripheral\sysclk/cy_sysclk.h ****     cy_en_fll_pll_output_mode_t outputMode; /**< CLK_PLL_CONFIG register, BYPASS_SEL bits */
 866:Generated_Source\PSoC6\pdl\drivers\peripheral\sysclk/cy_sysclk.h **** } cy_stc_pll_config_t;
 867:Generated_Source\PSoC6\pdl\drivers\peripheral\sysclk/cy_sysclk.h **** 
 868:Generated_Source\PSoC6\pdl\drivers\peripheral\sysclk/cy_sysclk.h **** /** Structure containing information for manual configuration of a PLL.
 869:Generated_Source\PSoC6\pdl\drivers\peripheral\sysclk/cy_sysclk.h **** */
 870:Generated_Source\PSoC6\pdl\drivers\peripheral\sysclk/cy_sysclk.h **** typedef struct
 871:Generated_Source\PSoC6\pdl\drivers\peripheral\sysclk/cy_sysclk.h **** {
 872:Generated_Source\PSoC6\pdl\drivers\peripheral\sysclk/cy_sysclk.h ****     uint8_t                     feedbackDiv;  /**< CLK_PLL_CONFIG register, FEEDBACK_DIV (P) bits *
ARM GAS  C:\Users\kiwamu\AppData\Local\Temp\ccIx7zyv.s 			page 92


 873:Generated_Source\PSoC6\pdl\drivers\peripheral\sysclk/cy_sysclk.h ****     uint8_t                     referenceDiv; /**< CLK_PLL_CONFIG register, REFERENCE_DIV (Q) bits 
 874:Generated_Source\PSoC6\pdl\drivers\peripheral\sysclk/cy_sysclk.h ****     uint8_t                     outputDiv;    /**< CLK_PLL_CONFIG register, OUTPUT_DIV bits */
 875:Generated_Source\PSoC6\pdl\drivers\peripheral\sysclk/cy_sysclk.h ****     bool                        lfMode;       /**< CLK_PLL_CONFIG register, PLL_LF_MODE bit */
 876:Generated_Source\PSoC6\pdl\drivers\peripheral\sysclk/cy_sysclk.h ****     cy_en_fll_pll_output_mode_t outputMode;   /**< CLK_PLL_CONFIG register, BYPASS_SEL bits */
 877:Generated_Source\PSoC6\pdl\drivers\peripheral\sysclk/cy_sysclk.h **** } cy_stc_pll_manual_config_t;
 878:Generated_Source\PSoC6\pdl\drivers\peripheral\sysclk/cy_sysclk.h **** /** \} group_sysclk_pll_structs */
 879:Generated_Source\PSoC6\pdl\drivers\peripheral\sysclk/cy_sysclk.h **** 
 880:Generated_Source\PSoC6\pdl\drivers\peripheral\sysclk/cy_sysclk.h **** /**
 881:Generated_Source\PSoC6\pdl\drivers\peripheral\sysclk/cy_sysclk.h **** * \addtogroup group_sysclk_pll_funcs
 882:Generated_Source\PSoC6\pdl\drivers\peripheral\sysclk/cy_sysclk.h **** * \{
 883:Generated_Source\PSoC6\pdl\drivers\peripheral\sysclk/cy_sysclk.h **** */
 884:Generated_Source\PSoC6\pdl\drivers\peripheral\sysclk/cy_sysclk.h **** cy_en_sysclk_status_t Cy_SysClk_PllConfigure(uint32_t clkPath, const cy_stc_pll_config_t *config);
 885:Generated_Source\PSoC6\pdl\drivers\peripheral\sysclk/cy_sysclk.h **** cy_en_sysclk_status_t Cy_SysClk_PllManualConfigure(uint32_t clkPath, const cy_stc_pll_manual_config
 886:Generated_Source\PSoC6\pdl\drivers\peripheral\sysclk/cy_sysclk.h **** cy_en_sysclk_status_t Cy_SysClk_PllGetConfiguration(uint32_t clkPath, cy_stc_pll_manual_config_t *c
 887:Generated_Source\PSoC6\pdl\drivers\peripheral\sysclk/cy_sysclk.h **** cy_en_sysclk_status_t Cy_SysClk_PllEnable(uint32_t clkPath, uint32_t timeoutus);
 888:Generated_Source\PSoC6\pdl\drivers\peripheral\sysclk/cy_sysclk.h **** __STATIC_INLINE bool Cy_SysClk_PllLocked(uint32_t clkPath);
 889:Generated_Source\PSoC6\pdl\drivers\peripheral\sysclk/cy_sysclk.h **** __STATIC_INLINE bool Cy_SysClk_PllLostLock(uint32_t clkPath);
 890:Generated_Source\PSoC6\pdl\drivers\peripheral\sysclk/cy_sysclk.h **** __STATIC_INLINE cy_en_sysclk_status_t Cy_SysClk_PllDisable(uint32_t clkPath);
 891:Generated_Source\PSoC6\pdl\drivers\peripheral\sysclk/cy_sysclk.h **** 
 892:Generated_Source\PSoC6\pdl\drivers\peripheral\sysclk/cy_sysclk.h **** /*******************************************************************************
 893:Generated_Source\PSoC6\pdl\drivers\peripheral\sysclk/cy_sysclk.h **** * Function Name: Cy_SysClk_PllLocked
 894:Generated_Source\PSoC6\pdl\drivers\peripheral\sysclk/cy_sysclk.h **** ****************************************************************************//**
 895:Generated_Source\PSoC6\pdl\drivers\peripheral\sysclk/cy_sysclk.h **** *
 896:Generated_Source\PSoC6\pdl\drivers\peripheral\sysclk/cy_sysclk.h **** * Reports whether or not the selected PLL is locked.
 897:Generated_Source\PSoC6\pdl\drivers\peripheral\sysclk/cy_sysclk.h **** *
 898:Generated_Source\PSoC6\pdl\drivers\peripheral\sysclk/cy_sysclk.h **** * \param clkPath Selects which PLL to check. 1 is the first PLL; 0 is invalid.
 899:Generated_Source\PSoC6\pdl\drivers\peripheral\sysclk/cy_sysclk.h **** *
 900:Generated_Source\PSoC6\pdl\drivers\peripheral\sysclk/cy_sysclk.h **** * \return false = not locked, true = locked
 901:Generated_Source\PSoC6\pdl\drivers\peripheral\sysclk/cy_sysclk.h **** *
 902:Generated_Source\PSoC6\pdl\drivers\peripheral\sysclk/cy_sysclk.h **** *******************************************************************************/
 903:Generated_Source\PSoC6\pdl\drivers\peripheral\sysclk/cy_sysclk.h **** __STATIC_INLINE bool Cy_SysClk_PllLocked(uint32_t clkPath)
 904:Generated_Source\PSoC6\pdl\drivers\peripheral\sysclk/cy_sysclk.h **** {
 905:Generated_Source\PSoC6\pdl\drivers\peripheral\sysclk/cy_sysclk.h ****     CY_ASSERT_L1((clkPath != 0ul) && (clkPath <= SRSS_NUM_PLL));
 906:Generated_Source\PSoC6\pdl\drivers\peripheral\sysclk/cy_sysclk.h ****     return (bool)(_FLD2VAL(SRSS_CLK_PLL_STATUS_LOCKED, SRSS->CLK_PLL_STATUS[clkPath - 1ul]));
 907:Generated_Source\PSoC6\pdl\drivers\peripheral\sysclk/cy_sysclk.h **** }
 908:Generated_Source\PSoC6\pdl\drivers\peripheral\sysclk/cy_sysclk.h **** 
 909:Generated_Source\PSoC6\pdl\drivers\peripheral\sysclk/cy_sysclk.h **** /*******************************************************************************
 910:Generated_Source\PSoC6\pdl\drivers\peripheral\sysclk/cy_sysclk.h **** * Function Name: Cy_SysClk_PllLostLock
 911:Generated_Source\PSoC6\pdl\drivers\peripheral\sysclk/cy_sysclk.h **** ****************************************************************************//**
 912:Generated_Source\PSoC6\pdl\drivers\peripheral\sysclk/cy_sysclk.h **** *
 913:Generated_Source\PSoC6\pdl\drivers\peripheral\sysclk/cy_sysclk.h **** * Reports whether or not the selected PLL lost its lock since the last time this
 914:Generated_Source\PSoC6\pdl\drivers\peripheral\sysclk/cy_sysclk.h **** * function was called. Clears the lost lock indicator.
 915:Generated_Source\PSoC6\pdl\drivers\peripheral\sysclk/cy_sysclk.h **** *
 916:Generated_Source\PSoC6\pdl\drivers\peripheral\sysclk/cy_sysclk.h **** * \param clkPath Selects which PLL to check. 1 is the first PLL; 0 is invalid.
 917:Generated_Source\PSoC6\pdl\drivers\peripheral\sysclk/cy_sysclk.h **** *
 918:Generated_Source\PSoC6\pdl\drivers\peripheral\sysclk/cy_sysclk.h **** * \return 0 = didn't lose lock, 1 = lost lock
 919:Generated_Source\PSoC6\pdl\drivers\peripheral\sysclk/cy_sysclk.h **** *
 920:Generated_Source\PSoC6\pdl\drivers\peripheral\sysclk/cy_sysclk.h **** *******************************************************************************/
 921:Generated_Source\PSoC6\pdl\drivers\peripheral\sysclk/cy_sysclk.h **** __STATIC_INLINE bool Cy_SysClk_PllLostLock(uint32_t clkPath)
 922:Generated_Source\PSoC6\pdl\drivers\peripheral\sysclk/cy_sysclk.h **** {
 923:Generated_Source\PSoC6\pdl\drivers\peripheral\sysclk/cy_sysclk.h ****     uint32_t retval = 0ul;
 924:Generated_Source\PSoC6\pdl\drivers\peripheral\sysclk/cy_sysclk.h **** 
 925:Generated_Source\PSoC6\pdl\drivers\peripheral\sysclk/cy_sysclk.h ****     CY_ASSERT_L1((clkPath != 0ul) && (clkPath <= SRSS_NUM_PLL));
 926:Generated_Source\PSoC6\pdl\drivers\peripheral\sysclk/cy_sysclk.h **** 
 927:Generated_Source\PSoC6\pdl\drivers\peripheral\sysclk/cy_sysclk.h ****     retval = _FLD2VAL(SRSS_CLK_PLL_STATUS_UNLOCK_OCCURRED, SRSS->CLK_PLL_STATUS[clkPath - 1ul]);
 928:Generated_Source\PSoC6\pdl\drivers\peripheral\sysclk/cy_sysclk.h ****     /* write a 1 to clear the unlock occurred bit */
 929:Generated_Source\PSoC6\pdl\drivers\peripheral\sysclk/cy_sysclk.h ****     SRSS->CLK_PLL_STATUS[clkPath - 1ul] = _VAL2FLD(SRSS_CLK_PLL_STATUS_UNLOCK_OCCURRED, 1u);
ARM GAS  C:\Users\kiwamu\AppData\Local\Temp\ccIx7zyv.s 			page 93


 930:Generated_Source\PSoC6\pdl\drivers\peripheral\sysclk/cy_sysclk.h ****     return ((bool)retval);
 931:Generated_Source\PSoC6\pdl\drivers\peripheral\sysclk/cy_sysclk.h **** }
 932:Generated_Source\PSoC6\pdl\drivers\peripheral\sysclk/cy_sysclk.h **** 
 933:Generated_Source\PSoC6\pdl\drivers\peripheral\sysclk/cy_sysclk.h **** /*******************************************************************************
 934:Generated_Source\PSoC6\pdl\drivers\peripheral\sysclk/cy_sysclk.h **** * Function Name: Cy_SysClk_PllDisable
 935:Generated_Source\PSoC6\pdl\drivers\peripheral\sysclk/cy_sysclk.h **** ****************************************************************************//**
 936:Generated_Source\PSoC6\pdl\drivers\peripheral\sysclk/cy_sysclk.h **** *
 937:Generated_Source\PSoC6\pdl\drivers\peripheral\sysclk/cy_sysclk.h **** * Disables the selected PLL.
 938:Generated_Source\PSoC6\pdl\drivers\peripheral\sysclk/cy_sysclk.h **** *
 939:Generated_Source\PSoC6\pdl\drivers\peripheral\sysclk/cy_sysclk.h **** * \param clkPath Selects which PLL to disable. 1 is the first PLL; 0 is invalid.
 940:Generated_Source\PSoC6\pdl\drivers\peripheral\sysclk/cy_sysclk.h **** *
 941:Generated_Source\PSoC6\pdl\drivers\peripheral\sysclk/cy_sysclk.h **** * \return Error / status code:<br>
 942:Generated_Source\PSoC6\pdl\drivers\peripheral\sysclk/cy_sysclk.h **** * CY_SYSCLK_SUCCESS - PLL successfully disabled<br>
 943:Generated_Source\PSoC6\pdl\drivers\peripheral\sysclk/cy_sysclk.h **** * CY_SYSCLK_BAD_PARAM - invalid clock path number
 944:Generated_Source\PSoC6\pdl\drivers\peripheral\sysclk/cy_sysclk.h **** *
 945:Generated_Source\PSoC6\pdl\drivers\peripheral\sysclk/cy_sysclk.h **** *******************************************************************************/
 946:Generated_Source\PSoC6\pdl\drivers\peripheral\sysclk/cy_sysclk.h **** __STATIC_INLINE cy_en_sysclk_status_t Cy_SysClk_PllDisable(uint32_t clkPath)
 947:Generated_Source\PSoC6\pdl\drivers\peripheral\sysclk/cy_sysclk.h **** {
 948:Generated_Source\PSoC6\pdl\drivers\peripheral\sysclk/cy_sysclk.h ****     cy_en_sysclk_status_t retval = CY_SYSCLK_BAD_PARAM;
 949:Generated_Source\PSoC6\pdl\drivers\peripheral\sysclk/cy_sysclk.h ****     if ((clkPath != 0ul) && (clkPath <= SRSS_NUM_PLL))
 950:Generated_Source\PSoC6\pdl\drivers\peripheral\sysclk/cy_sysclk.h ****     {
 951:Generated_Source\PSoC6\pdl\drivers\peripheral\sysclk/cy_sysclk.h ****         SRSS->CLK_PLL_CONFIG[clkPath - 1ul] &= ~_VAL2FLD(SRSS_CLK_PLL_CONFIG_ENABLE, 1u); /* 0 = di
 952:Generated_Source\PSoC6\pdl\drivers\peripheral\sysclk/cy_sysclk.h ****         retval = CY_SYSCLK_SUCCESS;
 953:Generated_Source\PSoC6\pdl\drivers\peripheral\sysclk/cy_sysclk.h ****     }
 954:Generated_Source\PSoC6\pdl\drivers\peripheral\sysclk/cy_sysclk.h ****     return (retval);
 955:Generated_Source\PSoC6\pdl\drivers\peripheral\sysclk/cy_sysclk.h **** }
 956:Generated_Source\PSoC6\pdl\drivers\peripheral\sysclk/cy_sysclk.h **** /** \} group_sysclk_pll_funcs */
 957:Generated_Source\PSoC6\pdl\drivers\peripheral\sysclk/cy_sysclk.h **** 
 958:Generated_Source\PSoC6\pdl\drivers\peripheral\sysclk/cy_sysclk.h **** 
 959:Generated_Source\PSoC6\pdl\drivers\peripheral\sysclk/cy_sysclk.h **** /* ========================================================================== */
 960:Generated_Source\PSoC6\pdl\drivers\peripheral\sysclk/cy_sysclk.h **** /* ===========================    ILO SECTION    ============================ */
 961:Generated_Source\PSoC6\pdl\drivers\peripheral\sysclk/cy_sysclk.h **** /* ========================================================================== */
 962:Generated_Source\PSoC6\pdl\drivers\peripheral\sysclk/cy_sysclk.h **** /**
 963:Generated_Source\PSoC6\pdl\drivers\peripheral\sysclk/cy_sysclk.h **** * \addtogroup group_sysclk_ilo_funcs
 964:Generated_Source\PSoC6\pdl\drivers\peripheral\sysclk/cy_sysclk.h **** * \{
 965:Generated_Source\PSoC6\pdl\drivers\peripheral\sysclk/cy_sysclk.h **** */
 966:Generated_Source\PSoC6\pdl\drivers\peripheral\sysclk/cy_sysclk.h **** __STATIC_INLINE void Cy_SysClk_IloEnable(void);
 967:Generated_Source\PSoC6\pdl\drivers\peripheral\sysclk/cy_sysclk.h **** __STATIC_INLINE cy_en_sysclk_status_t Cy_SysClk_IloDisable(void);
 968:Generated_Source\PSoC6\pdl\drivers\peripheral\sysclk/cy_sysclk.h **** __STATIC_INLINE void Cy_SysClk_IloHibernateOn(bool on);
 969:Generated_Source\PSoC6\pdl\drivers\peripheral\sysclk/cy_sysclk.h **** 
 970:Generated_Source\PSoC6\pdl\drivers\peripheral\sysclk/cy_sysclk.h **** /*******************************************************************************
 971:Generated_Source\PSoC6\pdl\drivers\peripheral\sysclk/cy_sysclk.h **** * Function Name: Cy_SysClk_IloEnable
 972:Generated_Source\PSoC6\pdl\drivers\peripheral\sysclk/cy_sysclk.h **** ****************************************************************************//**
 973:Generated_Source\PSoC6\pdl\drivers\peripheral\sysclk/cy_sysclk.h **** *
 974:Generated_Source\PSoC6\pdl\drivers\peripheral\sysclk/cy_sysclk.h **** * Enables the ILO.
 975:Generated_Source\PSoC6\pdl\drivers\peripheral\sysclk/cy_sysclk.h **** *
 976:Generated_Source\PSoC6\pdl\drivers\peripheral\sysclk/cy_sysclk.h **** * \note The watchdog timer (WDT) must be unlocked before calling this function.
 977:Generated_Source\PSoC6\pdl\drivers\peripheral\sysclk/cy_sysclk.h **** *******************************************************************************/
 978:Generated_Source\PSoC6\pdl\drivers\peripheral\sysclk/cy_sysclk.h **** __STATIC_INLINE void Cy_SysClk_IloEnable(void)
 979:Generated_Source\PSoC6\pdl\drivers\peripheral\sysclk/cy_sysclk.h **** {
 980:Generated_Source\PSoC6\pdl\drivers\peripheral\sysclk/cy_sysclk.h ****     SRSS->CLK_ILO_CONFIG |= _VAL2FLD(SRSS_CLK_ILO_CONFIG_ENABLE, 1u); /* 1 = enable */
 981:Generated_Source\PSoC6\pdl\drivers\peripheral\sysclk/cy_sysclk.h **** }
 982:Generated_Source\PSoC6\pdl\drivers\peripheral\sysclk/cy_sysclk.h **** 
 983:Generated_Source\PSoC6\pdl\drivers\peripheral\sysclk/cy_sysclk.h **** /*******************************************************************************
 984:Generated_Source\PSoC6\pdl\drivers\peripheral\sysclk/cy_sysclk.h **** * Function Name: Cy_SysClk_IloDisable
 985:Generated_Source\PSoC6\pdl\drivers\peripheral\sysclk/cy_sysclk.h **** ****************************************************************************//**
 986:Generated_Source\PSoC6\pdl\drivers\peripheral\sysclk/cy_sysclk.h **** *
ARM GAS  C:\Users\kiwamu\AppData\Local\Temp\ccIx7zyv.s 			page 94


 987:Generated_Source\PSoC6\pdl\drivers\peripheral\sysclk/cy_sysclk.h **** * Disables the ILO. ILO can't be disabled if WDT is enabled.
 988:Generated_Source\PSoC6\pdl\drivers\peripheral\sysclk/cy_sysclk.h **** *
 989:Generated_Source\PSoC6\pdl\drivers\peripheral\sysclk/cy_sysclk.h **** * \return Error / status code:<br>
 990:Generated_Source\PSoC6\pdl\drivers\peripheral\sysclk/cy_sysclk.h **** * CY_SYSCLK_SUCCESS - ILO successfully disabled<br>
 991:Generated_Source\PSoC6\pdl\drivers\peripheral\sysclk/cy_sysclk.h **** * CY_SYSCLK_INVALID_STATE - Cannot disable the ILO if the WDT is enabled.
 992:Generated_Source\PSoC6\pdl\drivers\peripheral\sysclk/cy_sysclk.h **** *
 993:Generated_Source\PSoC6\pdl\drivers\peripheral\sysclk/cy_sysclk.h **** * \note The watchdog timer (WDT) must be unlocked before calling this function.
 994:Generated_Source\PSoC6\pdl\drivers\peripheral\sysclk/cy_sysclk.h **** * Do not call this function if the WDT is enabled, because the WDT is clocked by
 995:Generated_Source\PSoC6\pdl\drivers\peripheral\sysclk/cy_sysclk.h **** * the ILO.
 996:Generated_Source\PSoC6\pdl\drivers\peripheral\sysclk/cy_sysclk.h **** *******************************************************************************/
 997:Generated_Source\PSoC6\pdl\drivers\peripheral\sysclk/cy_sysclk.h **** __STATIC_INLINE cy_en_sysclk_status_t Cy_SysClk_IloDisable(void)
 998:Generated_Source\PSoC6\pdl\drivers\peripheral\sysclk/cy_sysclk.h **** {
 999:Generated_Source\PSoC6\pdl\drivers\peripheral\sysclk/cy_sysclk.h ****     cy_en_sysclk_status_t retval = CY_SYSCLK_INVALID_STATE;
1000:Generated_Source\PSoC6\pdl\drivers\peripheral\sysclk/cy_sysclk.h ****     if (_FLD2VAL(SRSS_WDT_CTL_WDT_EN, SRSS->WDT_CTL) == 0ul) /* 0 = disabled */
1001:Generated_Source\PSoC6\pdl\drivers\peripheral\sysclk/cy_sysclk.h ****     {
1002:Generated_Source\PSoC6\pdl\drivers\peripheral\sysclk/cy_sysclk.h ****         SRSS->CLK_ILO_CONFIG &= ~_VAL2FLD(SRSS_CLK_ILO_CONFIG_ENABLE, 1u); /* 0 = disable */
1003:Generated_Source\PSoC6\pdl\drivers\peripheral\sysclk/cy_sysclk.h ****         retval = CY_SYSCLK_SUCCESS;
1004:Generated_Source\PSoC6\pdl\drivers\peripheral\sysclk/cy_sysclk.h ****     }
1005:Generated_Source\PSoC6\pdl\drivers\peripheral\sysclk/cy_sysclk.h ****     return retval;
1006:Generated_Source\PSoC6\pdl\drivers\peripheral\sysclk/cy_sysclk.h **** }
1007:Generated_Source\PSoC6\pdl\drivers\peripheral\sysclk/cy_sysclk.h **** 
1008:Generated_Source\PSoC6\pdl\drivers\peripheral\sysclk/cy_sysclk.h **** /*******************************************************************************
1009:Generated_Source\PSoC6\pdl\drivers\peripheral\sysclk/cy_sysclk.h **** * Function Name: Cy_SysClk_IloHibernateOn
1010:Generated_Source\PSoC6\pdl\drivers\peripheral\sysclk/cy_sysclk.h **** ****************************************************************************//**
1011:Generated_Source\PSoC6\pdl\drivers\peripheral\sysclk/cy_sysclk.h **** *
1012:Generated_Source\PSoC6\pdl\drivers\peripheral\sysclk/cy_sysclk.h **** * Controls whether the ILO stays on during a hibernate, or through an XRES or
1013:Generated_Source\PSoC6\pdl\drivers\peripheral\sysclk/cy_sysclk.h **** * brown-out detect (BOD) event.
1014:Generated_Source\PSoC6\pdl\drivers\peripheral\sysclk/cy_sysclk.h **** *
1015:Generated_Source\PSoC6\pdl\drivers\peripheral\sysclk/cy_sysclk.h **** * \param on
1016:Generated_Source\PSoC6\pdl\drivers\peripheral\sysclk/cy_sysclk.h **** * 1 = ILO stays on during hibernate or across XRES/BOD. 0 = ILO turns off for
1017:Generated_Source\PSoC6\pdl\drivers\peripheral\sysclk/cy_sysclk.h **** * hibernate or XRES/BOD.
1018:Generated_Source\PSoC6\pdl\drivers\peripheral\sysclk/cy_sysclk.h **** *
1019:Generated_Source\PSoC6\pdl\drivers\peripheral\sysclk/cy_sysclk.h **** * \note Writes to the register/bit are ignored if the watchdog (WDT) is locked.
1020:Generated_Source\PSoC6\pdl\drivers\peripheral\sysclk/cy_sysclk.h **** *******************************************************************************/
1021:Generated_Source\PSoC6\pdl\drivers\peripheral\sysclk/cy_sysclk.h **** __STATIC_INLINE void Cy_SysClk_IloHibernateOn(bool on)
1022:Generated_Source\PSoC6\pdl\drivers\peripheral\sysclk/cy_sysclk.h **** {
1023:Generated_Source\PSoC6\pdl\drivers\peripheral\sysclk/cy_sysclk.h ****     CY_SYSCLK_CLR_SET(SRSS->CLK_ILO_CONFIG, SRSS_CLK_ILO_CONFIG_ILO_BACKUP, (uint32_t)on);
1024:Generated_Source\PSoC6\pdl\drivers\peripheral\sysclk/cy_sysclk.h **** }
1025:Generated_Source\PSoC6\pdl\drivers\peripheral\sysclk/cy_sysclk.h **** /** \} group_sysclk_ilo_funcs */
1026:Generated_Source\PSoC6\pdl\drivers\peripheral\sysclk/cy_sysclk.h **** 
1027:Generated_Source\PSoC6\pdl\drivers\peripheral\sysclk/cy_sysclk.h **** 
1028:Generated_Source\PSoC6\pdl\drivers\peripheral\sysclk/cy_sysclk.h **** /* ========================================================================== */
1029:Generated_Source\PSoC6\pdl\drivers\peripheral\sysclk/cy_sysclk.h **** /* ===========================    PILO SECTION    =========================== */
1030:Generated_Source\PSoC6\pdl\drivers\peripheral\sysclk/cy_sysclk.h **** /* ========================================================================== */
1031:Generated_Source\PSoC6\pdl\drivers\peripheral\sysclk/cy_sysclk.h **** /**
1032:Generated_Source\PSoC6\pdl\drivers\peripheral\sysclk/cy_sysclk.h **** * \addtogroup group_sysclk_pilo_funcs
1033:Generated_Source\PSoC6\pdl\drivers\peripheral\sysclk/cy_sysclk.h **** * \{
1034:Generated_Source\PSoC6\pdl\drivers\peripheral\sysclk/cy_sysclk.h **** */
1035:Generated_Source\PSoC6\pdl\drivers\peripheral\sysclk/cy_sysclk.h **** __STATIC_INLINE void Cy_SysClk_PiloEnable(void);
1036:Generated_Source\PSoC6\pdl\drivers\peripheral\sysclk/cy_sysclk.h **** __STATIC_INLINE void Cy_SysClk_PiloDisable(void);
1037:Generated_Source\PSoC6\pdl\drivers\peripheral\sysclk/cy_sysclk.h **** __STATIC_INLINE void Cy_SysClk_PiloSetTrim(uint32_t trimVal);
1038:Generated_Source\PSoC6\pdl\drivers\peripheral\sysclk/cy_sysclk.h **** __STATIC_INLINE uint32_t Cy_SysClk_PiloGetTrim(void);
1039:Generated_Source\PSoC6\pdl\drivers\peripheral\sysclk/cy_sysclk.h **** 
1040:Generated_Source\PSoC6\pdl\drivers\peripheral\sysclk/cy_sysclk.h **** /*******************************************************************************
1041:Generated_Source\PSoC6\pdl\drivers\peripheral\sysclk/cy_sysclk.h **** * Function Name: Cy_SysClk_PiloEnable
1042:Generated_Source\PSoC6\pdl\drivers\peripheral\sysclk/cy_sysclk.h **** ****************************************************************************//**
1043:Generated_Source\PSoC6\pdl\drivers\peripheral\sysclk/cy_sysclk.h **** *
ARM GAS  C:\Users\kiwamu\AppData\Local\Temp\ccIx7zyv.s 			page 95


1044:Generated_Source\PSoC6\pdl\drivers\peripheral\sysclk/cy_sysclk.h **** * Enables the PILO.
1045:Generated_Source\PSoC6\pdl\drivers\peripheral\sysclk/cy_sysclk.h **** *
1046:Generated_Source\PSoC6\pdl\drivers\peripheral\sysclk/cy_sysclk.h **** * \note Requires 1 msec, for delay between enabling the PILO and releasing the
1047:Generated_Source\PSoC6\pdl\drivers\peripheral\sysclk/cy_sysclk.h **** * PILO reset.
1048:Generated_Source\PSoC6\pdl\drivers\peripheral\sysclk/cy_sysclk.h **** *******************************************************************************/
1049:Generated_Source\PSoC6\pdl\drivers\peripheral\sysclk/cy_sysclk.h **** __STATIC_INLINE void Cy_SysClk_PiloEnable(void)
1050:Generated_Source\PSoC6\pdl\drivers\peripheral\sysclk/cy_sysclk.h **** {
1051:Generated_Source\PSoC6\pdl\drivers\peripheral\sysclk/cy_sysclk.h ****     SRSS->CLK_PILO_CONFIG |= _VAL2FLD(SRSS_CLK_PILO_CONFIG_PILO_EN, 1u); /* 1 = enable */
1052:Generated_Source\PSoC6\pdl\drivers\peripheral\sysclk/cy_sysclk.h ****     Cy_SysLib_Delay(1/*msec*/);
1053:Generated_Source\PSoC6\pdl\drivers\peripheral\sysclk/cy_sysclk.h ****     /* release the reset and enable clock output */
1054:Generated_Source\PSoC6\pdl\drivers\peripheral\sysclk/cy_sysclk.h ****     SRSS->CLK_PILO_CONFIG |= (_VAL2FLD(SRSS_CLK_PILO_CONFIG_PILO_RESET_N, 1u) |
1055:Generated_Source\PSoC6\pdl\drivers\peripheral\sysclk/cy_sysclk.h ****                               _VAL2FLD(SRSS_CLK_PILO_CONFIG_PILO_CLK_EN, 1u));
1056:Generated_Source\PSoC6\pdl\drivers\peripheral\sysclk/cy_sysclk.h **** }
1057:Generated_Source\PSoC6\pdl\drivers\peripheral\sysclk/cy_sysclk.h **** 
1058:Generated_Source\PSoC6\pdl\drivers\peripheral\sysclk/cy_sysclk.h **** /*******************************************************************************
1059:Generated_Source\PSoC6\pdl\drivers\peripheral\sysclk/cy_sysclk.h **** * Function Name: Cy_SysClk_PiloDisable
1060:Generated_Source\PSoC6\pdl\drivers\peripheral\sysclk/cy_sysclk.h **** ****************************************************************************//**
1061:Generated_Source\PSoC6\pdl\drivers\peripheral\sysclk/cy_sysclk.h **** *
1062:Generated_Source\PSoC6\pdl\drivers\peripheral\sysclk/cy_sysclk.h **** * Disables the PILO.
1063:Generated_Source\PSoC6\pdl\drivers\peripheral\sysclk/cy_sysclk.h **** *
1064:Generated_Source\PSoC6\pdl\drivers\peripheral\sysclk/cy_sysclk.h **** *******************************************************************************/
1065:Generated_Source\PSoC6\pdl\drivers\peripheral\sysclk/cy_sysclk.h **** __STATIC_INLINE void Cy_SysClk_PiloDisable(void)
1066:Generated_Source\PSoC6\pdl\drivers\peripheral\sysclk/cy_sysclk.h **** {
1067:Generated_Source\PSoC6\pdl\drivers\peripheral\sysclk/cy_sysclk.h ****     /* Clear PILO_EN, PILO_RESET_N, and PILO_CLK_EN bitfields. This disables the
1068:Generated_Source\PSoC6\pdl\drivers\peripheral\sysclk/cy_sysclk.h ****        PILO and holds the PILO in a reset state. */
1069:Generated_Source\PSoC6\pdl\drivers\peripheral\sysclk/cy_sysclk.h ****     SRSS->CLK_PILO_CONFIG &= ~(_VAL2FLD(SRSS_CLK_PILO_CONFIG_PILO_EN, 1u)      |
1070:Generated_Source\PSoC6\pdl\drivers\peripheral\sysclk/cy_sysclk.h ****                                _VAL2FLD(SRSS_CLK_PILO_CONFIG_PILO_RESET_N, 1u) |
1071:Generated_Source\PSoC6\pdl\drivers\peripheral\sysclk/cy_sysclk.h ****                                _VAL2FLD(SRSS_CLK_PILO_CONFIG_PILO_CLK_EN, 1u));
1072:Generated_Source\PSoC6\pdl\drivers\peripheral\sysclk/cy_sysclk.h **** }
1073:Generated_Source\PSoC6\pdl\drivers\peripheral\sysclk/cy_sysclk.h **** 
1074:Generated_Source\PSoC6\pdl\drivers\peripheral\sysclk/cy_sysclk.h **** /*******************************************************************************
1075:Generated_Source\PSoC6\pdl\drivers\peripheral\sysclk/cy_sysclk.h **** * Function Name: Cy_SysClk_PiloSetTrim
1076:Generated_Source\PSoC6\pdl\drivers\peripheral\sysclk/cy_sysclk.h **** ****************************************************************************//**
1077:Generated_Source\PSoC6\pdl\drivers\peripheral\sysclk/cy_sysclk.h **** *
1078:Generated_Source\PSoC6\pdl\drivers\peripheral\sysclk/cy_sysclk.h **** * Sets the PILO trim bits, which adjusts the PILO frequency. This is typically
1079:Generated_Source\PSoC6\pdl\drivers\peripheral\sysclk/cy_sysclk.h **** * done after measuring the PILO frequency; see \ref Cy_SysClk_StartClkMeasurementCounters().
1080:Generated_Source\PSoC6\pdl\drivers\peripheral\sysclk/cy_sysclk.h **** *
1081:Generated_Source\PSoC6\pdl\drivers\peripheral\sysclk/cy_sysclk.h **** *******************************************************************************/
1082:Generated_Source\PSoC6\pdl\drivers\peripheral\sysclk/cy_sysclk.h **** __STATIC_INLINE void Cy_SysClk_PiloSetTrim(uint32_t trimVal)
1083:Generated_Source\PSoC6\pdl\drivers\peripheral\sysclk/cy_sysclk.h **** {
1084:Generated_Source\PSoC6\pdl\drivers\peripheral\sysclk/cy_sysclk.h ****     CY_SYSCLK_CLR_SET(SRSS->CLK_PILO_CONFIG, SRSS_CLK_PILO_CONFIG_PILO_FFREQ, trimVal);
1085:Generated_Source\PSoC6\pdl\drivers\peripheral\sysclk/cy_sysclk.h **** }
1086:Generated_Source\PSoC6\pdl\drivers\peripheral\sysclk/cy_sysclk.h **** 
1087:Generated_Source\PSoC6\pdl\drivers\peripheral\sysclk/cy_sysclk.h **** /*******************************************************************************
1088:Generated_Source\PSoC6\pdl\drivers\peripheral\sysclk/cy_sysclk.h **** * Function Name: Cy_SysClk_PiloGetTrim
1089:Generated_Source\PSoC6\pdl\drivers\peripheral\sysclk/cy_sysclk.h **** ****************************************************************************//**
1090:Generated_Source\PSoC6\pdl\drivers\peripheral\sysclk/cy_sysclk.h **** *
1091:Generated_Source\PSoC6\pdl\drivers\peripheral\sysclk/cy_sysclk.h **** * Reports the current PILO trim bits value.
1092:Generated_Source\PSoC6\pdl\drivers\peripheral\sysclk/cy_sysclk.h **** *
1093:Generated_Source\PSoC6\pdl\drivers\peripheral\sysclk/cy_sysclk.h **** *******************************************************************************/
1094:Generated_Source\PSoC6\pdl\drivers\peripheral\sysclk/cy_sysclk.h **** __STATIC_INLINE uint32_t Cy_SysClk_PiloGetTrim(void)
1095:Generated_Source\PSoC6\pdl\drivers\peripheral\sysclk/cy_sysclk.h **** {
1096:Generated_Source\PSoC6\pdl\drivers\peripheral\sysclk/cy_sysclk.h ****     return (_FLD2VAL(SRSS_CLK_PILO_CONFIG_PILO_FFREQ, SRSS->CLK_PILO_CONFIG));
 2985              		.loc 2 1096 0
 2986 0010 174B     		ldr	r3, .L227+4
 2987              	.LVL360:
 2988 0012 184A     		ldr	r2, .L227+8
ARM GAS  C:\Users\kiwamu\AppData\Local\Temp\ccIx7zyv.s 			page 96


 2989              	.LVL361:
 2990 0014 D458     		ldr	r4, [r2, r3]
 2991 0016 A405     		lsls	r4, r4, #22
 2992 0018 A40D     		lsrs	r4, r4, #22
 2993              	.LVL362:
 2994              	.LBE46:
 2995              	.LBE45:
1175:Generated_Source\PSoC6\pdl\drivers\peripheral\sysclk/cy_sysclk.c ****     {
1176:Generated_Source\PSoC6\pdl\drivers\peripheral\sysclk/cy_sysclk.c ****         curTrim = Cy_SysClk_PiloGetTrim();
1177:Generated_Source\PSoC6\pdl\drivers\peripheral\sysclk/cy_sysclk.c ****         if (piloFreq > CY_SYSCLK_PILO_TARGET_FREQ)
 2996              		.loc 1 1177 0
 2997 001a 8023     		movs	r3, #128
 2998 001c 1B02     		lsls	r3, r3, #8
 2999 001e 9842     		cmp	r0, r3
 3000 0020 08D9     		bls	.L222
1178:Generated_Source\PSoC6\pdl\drivers\peripheral\sysclk/cy_sysclk.c ****         { /* piloFreq too high. Decrease the trim value. */
1179:Generated_Source\PSoC6\pdl\drivers\peripheral\sysclk/cy_sysclk.c ****             newTrim = curTrim - CY_SYSCLK_DIV_ROUND(piloFreq - CY_SYSCLK_PILO_TARGET_FREQ, CY_SYSCL
 3001              		.loc 1 1179 0
 3002 0022 154B     		ldr	r3, .L227+12
 3003 0024 9C46     		mov	ip, r3
 3004 0026 6044     		add	r0, r0, ip
 3005              	.LVL363:
 3006 0028 0521     		movs	r1, #5
 3007 002a FFF7FEFF 		bl	__aeabi_uidiv
 3008              	.LVL364:
 3009 002e 201A     		subs	r0, r4, r0
 3010              	.LVL365:
1180:Generated_Source\PSoC6\pdl\drivers\peripheral\sysclk/cy_sysclk.c ****             if ((int32_t)newTrim < 0) /* limit underflow */
 3011              		.loc 1 1180 0
 3012 0030 0DD5     		bpl	.L223
 3013 0032 09E0     		b	.L225
 3014              	.LVL366:
 3015              	.L222:
1181:Generated_Source\PSoC6\pdl\drivers\peripheral\sysclk/cy_sysclk.c ****             {
1182:Generated_Source\PSoC6\pdl\drivers\peripheral\sysclk/cy_sysclk.c ****                 newTrim = 0;
1183:Generated_Source\PSoC6\pdl\drivers\peripheral\sysclk/cy_sysclk.c ****             }
1184:Generated_Source\PSoC6\pdl\drivers\peripheral\sysclk/cy_sysclk.c ****         }
1185:Generated_Source\PSoC6\pdl\drivers\peripheral\sysclk/cy_sysclk.c ****         else
1186:Generated_Source\PSoC6\pdl\drivers\peripheral\sysclk/cy_sysclk.c ****         { /* piloFreq too low. Increase the trim value. */
1187:Generated_Source\PSoC6\pdl\drivers\peripheral\sysclk/cy_sysclk.c ****             newTrim = curTrim + CY_SYSCLK_DIV_ROUND(CY_SYSCLK_PILO_TARGET_FREQ - piloFreq, CY_SYSCL
 3016              		.loc 1 1187 0
 3017 0034 114B     		ldr	r3, .L227+16
 3018 0036 181A     		subs	r0, r3, r0
 3019              	.LVL367:
 3020 0038 0521     		movs	r1, #5
 3021 003a FFF7FEFF 		bl	__aeabi_uidiv
 3022              	.LVL368:
 3023 003e 0019     		adds	r0, r0, r4
 3024              	.LVL369:
1188:Generated_Source\PSoC6\pdl\drivers\peripheral\sysclk/cy_sysclk.c ****             if (newTrim >= SRSS_CLK_PILO_CONFIG_PILO_FFREQ_Msk) /* limit overflow */
 3025              		.loc 1 1188 0
 3026 0040 0F4B     		ldr	r3, .L227+20
 3027 0042 9842     		cmp	r0, r3
 3028 0044 02D8     		bhi	.L226
 3029 0046 02E0     		b	.L223
 3030              	.L225:
1182:Generated_Source\PSoC6\pdl\drivers\peripheral\sysclk/cy_sysclk.c ****             }
ARM GAS  C:\Users\kiwamu\AppData\Local\Temp\ccIx7zyv.s 			page 97


 3031              		.loc 1 1182 0
 3032 0048 0020     		movs	r0, #0
 3033              	.LVL370:
 3034 004a 00E0     		b	.L223
 3035              	.LVL371:
 3036              	.L226:
1189:Generated_Source\PSoC6\pdl\drivers\peripheral\sysclk/cy_sysclk.c ****             {
1190:Generated_Source\PSoC6\pdl\drivers\peripheral\sysclk/cy_sysclk.c ****                 newTrim = SRSS_CLK_PILO_CONFIG_PILO_FFREQ_Msk;
 3037              		.loc 1 1190 0
 3038 004c 0D48     		ldr	r0, .L227+24
 3039              	.LVL372:
 3040              	.L223:
 3041              	.LBB47:
 3042              	.LBB48:
1084:Generated_Source\PSoC6\pdl\drivers\peripheral\sysclk/cy_sysclk.h **** }
 3043              		.loc 2 1084 0
 3044 004e 094D     		ldr	r5, .L227+8
 3045 0050 0749     		ldr	r1, .L227+4
 3046 0052 6B58     		ldr	r3, [r5, r1]
 3047 0054 9B0A     		lsrs	r3, r3, #10
 3048 0056 9B02     		lsls	r3, r3, #10
 3049 0058 8205     		lsls	r2, r0, #22
 3050 005a 920D     		lsrs	r2, r2, #22
 3051 005c 1343     		orrs	r3, r2
 3052 005e 6B50     		str	r3, [r5, r1]
 3053 0060 01E0     		b	.L221
 3054              	.LVL373:
 3055              	.L224:
 3056              	.LBE48:
 3057              	.LBE47:
1170:Generated_Source\PSoC6\pdl\drivers\peripheral\sysclk/cy_sysclk.c **** 
 3058              		.loc 1 1170 0
 3059 0062 0024     		movs	r4, #0
1169:Generated_Source\PSoC6\pdl\drivers\peripheral\sysclk/cy_sysclk.c ****     uint32_t curTrim = 0ul;
 3060              		.loc 1 1169 0
 3061 0064 0020     		movs	r0, #0
 3062              	.LVL374:
 3063              	.L221:
1191:Generated_Source\PSoC6\pdl\drivers\peripheral\sysclk/cy_sysclk.c ****             }
1192:Generated_Source\PSoC6\pdl\drivers\peripheral\sysclk/cy_sysclk.c ****         }
1193:Generated_Source\PSoC6\pdl\drivers\peripheral\sysclk/cy_sysclk.c ****         Cy_SysClk_PiloSetTrim(newTrim);
1194:Generated_Source\PSoC6\pdl\drivers\peripheral\sysclk/cy_sysclk.c ****     }
1195:Generated_Source\PSoC6\pdl\drivers\peripheral\sysclk/cy_sysclk.c **** 
1196:Generated_Source\PSoC6\pdl\drivers\peripheral\sysclk/cy_sysclk.c ****     return (int32_t)(curTrim - newTrim);
 3064              		.loc 1 1196 0
 3065 0066 201A     		subs	r0, r4, r0
 3066              	.LVL375:
1197:Generated_Source\PSoC6\pdl\drivers\peripheral\sysclk/cy_sysclk.c **** }
 3067              		.loc 1 1197 0
 3068              		@ sp needed
 3069              	.LVL376:
 3070 0068 70BD     		pop	{r4, r5, r6, pc}
 3071              	.L228:
 3072 006a C046     		.align	2
 3073              	.L227:
 3074 006c 0080FFFF 		.word	-32768
 3075 0070 3C050000 		.word	1340
ARM GAS  C:\Users\kiwamu\AppData\Local\Temp\ccIx7zyv.s 			page 98


 3076 0074 00002640 		.word	1076232192
 3077 0078 0280FFFF 		.word	-32766
 3078 007c 02800000 		.word	32770
 3079 0080 FE030000 		.word	1022
 3080 0084 FF030000 		.word	1023
 3081              		.cfi_endproc
 3082              	.LFE154:
 3083              		.size	Cy_SysClk_PiloTrim, .-Cy_SysClk_PiloTrim
 3084              		.section	.text.Cy_SysClk_DeepSleepCallback,"ax",%progbits
 3085              		.align	2
 3086              		.global	Cy_SysClk_DeepSleepCallback
 3087              		.code	16
 3088              		.thumb_func
 3089              		.type	Cy_SysClk_DeepSleepCallback, %function
 3090              	Cy_SysClk_DeepSleepCallback:
 3091              	.LFB155:
1198:Generated_Source\PSoC6\pdl\drivers\peripheral\sysclk/cy_sysclk.c **** /** \} group_sysclk_trim_funcs */
1199:Generated_Source\PSoC6\pdl\drivers\peripheral\sysclk/cy_sysclk.c **** 
1200:Generated_Source\PSoC6\pdl\drivers\peripheral\sysclk/cy_sysclk.c **** 
1201:Generated_Source\PSoC6\pdl\drivers\peripheral\sysclk/cy_sysclk.c **** /* ========================================================================== */
1202:Generated_Source\PSoC6\pdl\drivers\peripheral\sysclk/cy_sysclk.c **** /* ======================    POWER MANAGEMENT SECTION    ==================== */
1203:Generated_Source\PSoC6\pdl\drivers\peripheral\sysclk/cy_sysclk.c **** /* ========================================================================== */
1204:Generated_Source\PSoC6\pdl\drivers\peripheral\sysclk/cy_sysclk.c **** /**
1205:Generated_Source\PSoC6\pdl\drivers\peripheral\sysclk/cy_sysclk.c **** * \addtogroup group_sysclk_pm_funcs
1206:Generated_Source\PSoC6\pdl\drivers\peripheral\sysclk/cy_sysclk.c **** * \{
1207:Generated_Source\PSoC6\pdl\drivers\peripheral\sysclk/cy_sysclk.c **** */
1208:Generated_Source\PSoC6\pdl\drivers\peripheral\sysclk/cy_sysclk.c **** /** \cond INTERNAL */
1209:Generated_Source\PSoC6\pdl\drivers\peripheral\sysclk/cy_sysclk.c **** /* timeout count for use in function Cy_SysClk_DeepSleepCallback() is sufficiently large for ~1 sec
1210:Generated_Source\PSoC6\pdl\drivers\peripheral\sysclk/cy_sysclk.c **** #define TIMEOUTK 5000000ul
1211:Generated_Source\PSoC6\pdl\drivers\peripheral\sysclk/cy_sysclk.c **** /** \endcond */
1212:Generated_Source\PSoC6\pdl\drivers\peripheral\sysclk/cy_sysclk.c **** 
1213:Generated_Source\PSoC6\pdl\drivers\peripheral\sysclk/cy_sysclk.c **** /*******************************************************************************
1214:Generated_Source\PSoC6\pdl\drivers\peripheral\sysclk/cy_sysclk.c **** * Function Name: Cy_SysClk_DeepSleepCallback
1215:Generated_Source\PSoC6\pdl\drivers\peripheral\sysclk/cy_sysclk.c **** ****************************************************************************//**
1216:Generated_Source\PSoC6\pdl\drivers\peripheral\sysclk/cy_sysclk.c **** *
1217:Generated_Source\PSoC6\pdl\drivers\peripheral\sysclk/cy_sysclk.c **** * This is a callback function for System Power Management (SysPm), for entering
1218:Generated_Source\PSoC6\pdl\drivers\peripheral\sysclk/cy_sysclk.c **** * DeepSleep mode. This function does the following tests:<br>
1219:Generated_Source\PSoC6\pdl\drivers\peripheral\sysclk/cy_sysclk.c **** * FLL and PLL:<br>
1220:Generated_Source\PSoC6\pdl\drivers\peripheral\sysclk/cy_sysclk.c **** * 1. If the FLL or a PLL have the ECO as a source (see \ref Cy_SysClk_ClkPathGetSource),
1221:Generated_Source\PSoC6\pdl\drivers\peripheral\sysclk/cy_sysclk.c **** *    and is enabled, changes the source to IMO.<br>
1222:Generated_Source\PSoC6\pdl\drivers\peripheral\sysclk/cy_sysclk.c **** * 2. On wakeup, timeout-waits for FLL and PLL to regain their frequency locks,
1223:Generated_Source\PSoC6\pdl\drivers\peripheral\sysclk/cy_sysclk.c **** *    if enabled.<br>
1224:Generated_Source\PSoC6\pdl\drivers\peripheral\sysclk/cy_sysclk.c **** * Frequency measurement: Prevents entry into DeepSleep mode if currently counting;
1225:Generated_Source\PSoC6\pdl\drivers\peripheral\sysclk/cy_sysclk.c **** * see \ref Cy_SysClk_StartClkMeasurementCounters. Does not allow start of counting
1226:Generated_Source\PSoC6\pdl\drivers\peripheral\sysclk/cy_sysclk.c **** * if already indicated that entry into DeepSleep mode is OK.<br>
1227:Generated_Source\PSoC6\pdl\drivers\peripheral\sysclk/cy_sysclk.c **** *
1228:Generated_Source\PSoC6\pdl\drivers\peripheral\sysclk/cy_sysclk.c **** * This function can be called during execution of \ref Cy_SysPm_DeepSleep.
1229:Generated_Source\PSoC6\pdl\drivers\peripheral\sysclk/cy_sysclk.c **** * To do so, register this function as a callback before calling
1230:Generated_Source\PSoC6\pdl\drivers\peripheral\sysclk/cy_sysclk.c **** * \ref Cy_SysPm_DeepSleep - specify \ref CY_SYSPM_DEEPSLEEP as the callback
1231:Generated_Source\PSoC6\pdl\drivers\peripheral\sysclk/cy_sysclk.c **** * type and call \ref Cy_SysPm_RegisterCallback.
1232:Generated_Source\PSoC6\pdl\drivers\peripheral\sysclk/cy_sysclk.c **** *
1233:Generated_Source\PSoC6\pdl\drivers\peripheral\sysclk/cy_sysclk.c **** * \note If the FLL or PLL source is the ECO, this function must be registered, and
1234:Generated_Source\PSoC6\pdl\drivers\peripheral\sysclk/cy_sysclk.c **** * it must be the last callback function that is registered. This is needed to allow the
1235:Generated_Source\PSoC6\pdl\drivers\peripheral\sysclk/cy_sysclk.c **** * ECO to stabilize before reconnecting it to the FLL or PLL.
1236:Generated_Source\PSoC6\pdl\drivers\peripheral\sysclk/cy_sysclk.c **** *
1237:Generated_Source\PSoC6\pdl\drivers\peripheral\sysclk/cy_sysclk.c **** * \param callbackParams
1238:Generated_Source\PSoC6\pdl\drivers\peripheral\sysclk/cy_sysclk.c **** * structure with the syspm callback parameters,
ARM GAS  C:\Users\kiwamu\AppData\Local\Temp\ccIx7zyv.s 			page 99


1239:Generated_Source\PSoC6\pdl\drivers\peripheral\sysclk/cy_sysclk.c **** * see \ref cy_stc_syspm_callback_params_t.
1240:Generated_Source\PSoC6\pdl\drivers\peripheral\sysclk/cy_sysclk.c **** *
1241:Generated_Source\PSoC6\pdl\drivers\peripheral\sysclk/cy_sysclk.c **** * \return Error / status code; see \ref cy_en_syspm_status_t. Pass if not doing
1242:Generated_Source\PSoC6\pdl\drivers\peripheral\sysclk/cy_sysclk.c **** * a clock measurement, otherwise Fail. Timeout if timeout waiting for FLL or a PLL
1243:Generated_Source\PSoC6\pdl\drivers\peripheral\sysclk/cy_sysclk.c **** * to regain its frequency lock.
1244:Generated_Source\PSoC6\pdl\drivers\peripheral\sysclk/cy_sysclk.c **** *
1245:Generated_Source\PSoC6\pdl\drivers\peripheral\sysclk/cy_sysclk.c **** *******************************************************************************/
1246:Generated_Source\PSoC6\pdl\drivers\peripheral\sysclk/cy_sysclk.c **** cy_en_syspm_status_t Cy_SysClk_DeepSleepCallback(cy_stc_syspm_callback_params_t *callbackParams)
1247:Generated_Source\PSoC6\pdl\drivers\peripheral\sysclk/cy_sysclk.c **** {
 3092              		.loc 1 1247 0
 3093              		.cfi_startproc
 3094              		@ args = 0, pretend = 0, frame = 0
 3095              		@ frame_needed = 0, uses_anonymous_args = 0
 3096              	.LVL377:
 3097 0000 70B5     		push	{r4, r5, r6, lr}
 3098              		.cfi_def_cfa_offset 16
 3099              		.cfi_offset 4, -16
 3100              		.cfi_offset 5, -12
 3101              		.cfi_offset 6, -8
 3102              		.cfi_offset 14, -4
 3103 0002 041E     		subs	r4, r0, #0
 3104              	.LVL378:
1248:Generated_Source\PSoC6\pdl\drivers\peripheral\sysclk/cy_sysclk.c ****     /* bitmapped paths and roots that may be affected by FLL or PLL being sourced by ECO */
1249:Generated_Source\PSoC6\pdl\drivers\peripheral\sysclk/cy_sysclk.c ****     static uint16_t changedSourcePaths;
1250:Generated_Source\PSoC6\pdl\drivers\peripheral\sysclk/cy_sysclk.c **** 
1251:Generated_Source\PSoC6\pdl\drivers\peripheral\sysclk/cy_sysclk.c ****     cy_en_syspm_status_t rtnval = CY_SYSPM_SUCCESS;
1252:Generated_Source\PSoC6\pdl\drivers\peripheral\sysclk/cy_sysclk.c **** 
1253:Generated_Source\PSoC6\pdl\drivers\peripheral\sysclk/cy_sysclk.c ****     CY_ASSERT_L1(callbackParams != NULL);
 3105              		.loc 1 1253 0
 3106 0004 03D1     		bne	.L230
 3107              		.loc 1 1253 0 is_stmt 0 discriminator 1
 3108 0006 5A49     		ldr	r1, .L261
 3109 0008 5A48     		ldr	r0, .L261+4
 3110              	.LVL379:
 3111 000a FFF7FEFF 		bl	Cy_SysLib_AssertFailed
 3112              	.LVL380:
 3113              	.L230:
1254:Generated_Source\PSoC6\pdl\drivers\peripheral\sysclk/cy_sysclk.c **** 
1255:Generated_Source\PSoC6\pdl\drivers\peripheral\sysclk/cy_sysclk.c ****     /* Entry into DeepSleep mode tests */
1256:Generated_Source\PSoC6\pdl\drivers\peripheral\sysclk/cy_sysclk.c ****     if (callbackParams->mode == CY_SYSPM_CHECK_READY)
 3114              		.loc 1 1256 0 is_stmt 1
 3115 000e 2378     		ldrb	r3, [r4]
 3116 0010 012B     		cmp	r3, #1
 3117 0012 3BD1     		bne	.L231
1257:Generated_Source\PSoC6\pdl\drivers\peripheral\sysclk/cy_sysclk.c ****     {
1258:Generated_Source\PSoC6\pdl\drivers\peripheral\sysclk/cy_sysclk.c ****         /* Don't allow entry into DeepSleep mode if currently measuring a frequency. */
1259:Generated_Source\PSoC6\pdl\drivers\peripheral\sysclk/cy_sysclk.c ****         if (clkCounting)
 3118              		.loc 1 1259 0
 3119 0014 584B     		ldr	r3, .L261+8
 3120 0016 5B78     		ldrb	r3, [r3, #1]
 3121 0018 002B     		cmp	r3, #0
 3122 001a 00D0     		beq	.LCB3164
 3123 001c A2E0     		b	.L255	@long jump
 3124              	.LCB3164:
 3125              	.LBB49:
1260:Generated_Source\PSoC6\pdl\drivers\peripheral\sysclk/cy_sysclk.c ****         {
1261:Generated_Source\PSoC6\pdl\drivers\peripheral\sysclk/cy_sysclk.c ****             rtnval = CY_SYSPM_FAIL;
ARM GAS  C:\Users\kiwamu\AppData\Local\Temp\ccIx7zyv.s 			page 100


1262:Generated_Source\PSoC6\pdl\drivers\peripheral\sysclk/cy_sysclk.c ****         }
1263:Generated_Source\PSoC6\pdl\drivers\peripheral\sysclk/cy_sysclk.c ****         else 
1264:Generated_Source\PSoC6\pdl\drivers\peripheral\sysclk/cy_sysclk.c ****         { /* Indicating that we can go into DeepSleep. Before doing so ... */
1265:Generated_Source\PSoC6\pdl\drivers\peripheral\sysclk/cy_sysclk.c ****             uint32_t fllpll; /* 0 = FLL, all other values = a PLL */
1266:Generated_Source\PSoC6\pdl\drivers\peripheral\sysclk/cy_sysclk.c **** 
1267:Generated_Source\PSoC6\pdl\drivers\peripheral\sysclk/cy_sysclk.c ****             /* initialize record of changed paths */
1268:Generated_Source\PSoC6\pdl\drivers\peripheral\sysclk/cy_sysclk.c ****             changedSourcePaths = 0u;
 3126              		.loc 1 1268 0
 3127 001e 0022     		movs	r2, #0
 3128 0020 554B     		ldr	r3, .L261+8
 3129 0022 1A81     		strh	r2, [r3, #8]
 3130              	.LVL381:
1269:Generated_Source\PSoC6\pdl\drivers\peripheral\sysclk/cy_sysclk.c **** 
1270:Generated_Source\PSoC6\pdl\drivers\peripheral\sysclk/cy_sysclk.c ****             /* for FLL and each PLL, */
1271:Generated_Source\PSoC6\pdl\drivers\peripheral\sysclk/cy_sysclk.c ****             for (fllpll = 0ul; fllpll < (SRSS_NUM_PLL + 1ul); fllpll++)
 3131              		.loc 1 1271 0
 3132 0024 0024     		movs	r4, #0
 3133              	.LVL382:
 3134 0026 20E0     		b	.L233
 3135              	.LVL383:
 3136              	.L237:
1272:Generated_Source\PSoC6\pdl\drivers\peripheral\sysclk/cy_sysclk.c ****             {
1273:Generated_Source\PSoC6\pdl\drivers\peripheral\sysclk/cy_sysclk.c ****                 /* If FLL or PLL is enabled, */
1274:Generated_Source\PSoC6\pdl\drivers\peripheral\sysclk/cy_sysclk.c ****                 if (0ul != ((fllpll == 0ul) ? (_FLD2VAL(SRSS_CLK_FLL_CONFIG_FLL_ENABLE, SRSS->CLK_F
 3137              		.loc 1 1274 0
 3138 0028 002C     		cmp	r4, #0
 3139 002a 05D1     		bne	.L234
 3140              		.loc 1 1274 0 is_stmt 0 discriminator 1
 3141 002c B023     		movs	r3, #176
 3142 002e DB00     		lsls	r3, r3, #3
 3143 0030 524A     		ldr	r2, .L261+12
 3144 0032 D358     		ldr	r3, [r2, r3]
 3145 0034 DB0F     		lsrs	r3, r3, #31
 3146 0036 06E0     		b	.L235
 3147              	.L234:
1275:Generated_Source\PSoC6\pdl\drivers\peripheral\sysclk/cy_sysclk.c ****                                               (_FLD2VAL(SRSS_CLK_PLL_CONFIG_ENABLE, SRSS->CLK_PLL_C
 3148              		.loc 1 1275 0 is_stmt 1 discriminator 2
 3149 0038 2300     		movs	r3, r4
 3150 003a 8133     		adds	r3, r3, #129
 3151 003c FF33     		adds	r3, r3, #255
 3152 003e 9B00     		lsls	r3, r3, #2
 3153 0040 4E4A     		ldr	r2, .L261+12
 3154 0042 9B58     		ldr	r3, [r3, r2]
1274:Generated_Source\PSoC6\pdl\drivers\peripheral\sysclk/cy_sysclk.c ****                                               (_FLD2VAL(SRSS_CLK_PLL_CONFIG_ENABLE, SRSS->CLK_PLL_C
 3155              		.loc 1 1274 0 discriminator 2
 3156 0044 DB0F     		lsrs	r3, r3, #31
 3157              	.L235:
1274:Generated_Source\PSoC6\pdl\drivers\peripheral\sysclk/cy_sysclk.c ****                                               (_FLD2VAL(SRSS_CLK_PLL_CONFIG_ENABLE, SRSS->CLK_PLL_C
 3158              		.loc 1 1274 0 is_stmt 0 discriminator 4
 3159 0046 002B     		cmp	r3, #0
 3160 0048 0ED0     		beq	.L236
1276:Generated_Source\PSoC6\pdl\drivers\peripheral\sysclk/cy_sysclk.c ****                 {
1277:Generated_Source\PSoC6\pdl\drivers\peripheral\sysclk/cy_sysclk.c ****                     /* and the FLL or PLL has ECO as a source, */
1278:Generated_Source\PSoC6\pdl\drivers\peripheral\sysclk/cy_sysclk.c ****                     if (Cy_SysClk_ClkPathGetSource(fllpll) == CY_SYSCLK_CLKPATH_IN_ECO)
 3161              		.loc 1 1278 0 is_stmt 1
 3162 004a 2000     		movs	r0, r4
 3163 004c FFF7FEFF 		bl	Cy_SysClk_ClkPathGetSource
ARM GAS  C:\Users\kiwamu\AppData\Local\Temp\ccIx7zyv.s 			page 101


 3164              	.LVL384:
 3165 0050 0228     		cmp	r0, #2
 3166 0052 09D1     		bne	.L236
1279:Generated_Source\PSoC6\pdl\drivers\peripheral\sysclk/cy_sysclk.c ****                     {
1280:Generated_Source\PSoC6\pdl\drivers\peripheral\sysclk/cy_sysclk.c ****                         /* Change this FLL or PLL source to IMO */
1281:Generated_Source\PSoC6\pdl\drivers\peripheral\sysclk/cy_sysclk.c ****                         (void)Cy_SysClk_ClkPathSetSource(fllpll, CY_SYSCLK_CLKPATH_IN_IMO);
 3167              		.loc 1 1281 0
 3168 0054 0021     		movs	r1, #0
 3169 0056 2000     		movs	r0, r4
 3170 0058 FFF7FEFF 		bl	Cy_SysClk_ClkPathSetSource
 3171              	.LVL385:
1282:Generated_Source\PSoC6\pdl\drivers\peripheral\sysclk/cy_sysclk.c ****                         /* keep a record that this FLL or PLL's source was changed from ECO */
1283:Generated_Source\PSoC6\pdl\drivers\peripheral\sysclk/cy_sysclk.c ****                         changedSourcePaths |= (uint16_t)(1u << fllpll);
 3172              		.loc 1 1283 0
 3173 005c 0123     		movs	r3, #1
 3174 005e A340     		lsls	r3, r3, r4
 3175 0060 454A     		ldr	r2, .L261+8
 3176 0062 1189     		ldrh	r1, [r2, #8]
 3177 0064 0B43     		orrs	r3, r1
 3178 0066 1381     		strh	r3, [r2, #8]
 3179              	.L236:
1271:Generated_Source\PSoC6\pdl\drivers\peripheral\sysclk/cy_sysclk.c ****             {
 3180              		.loc 1 1271 0 discriminator 2
 3181 0068 0134     		adds	r4, r4, #1
 3182              	.LVL386:
 3183              	.L233:
1271:Generated_Source\PSoC6\pdl\drivers\peripheral\sysclk/cy_sysclk.c ****             {
 3184              		.loc 1 1271 0 is_stmt 0 discriminator 1
 3185 006a 012C     		cmp	r4, #1
 3186 006c DCD9     		bls	.L237
1284:Generated_Source\PSoC6\pdl\drivers\peripheral\sysclk/cy_sysclk.c ****                     }
1285:Generated_Source\PSoC6\pdl\drivers\peripheral\sysclk/cy_sysclk.c ****                 }
1286:Generated_Source\PSoC6\pdl\drivers\peripheral\sysclk/cy_sysclk.c ****             }
1287:Generated_Source\PSoC6\pdl\drivers\peripheral\sysclk/cy_sysclk.c ****             /* Set the FLL bypass mode to 2 */
1288:Generated_Source\PSoC6\pdl\drivers\peripheral\sysclk/cy_sysclk.c ****             CY_SYSCLK_CLR_SET(SRSS->CLK_FLL_CONFIG3, SRSS_CLK_FLL_CONFIG3_BYPASS_SEL, (uint32_t)CY_
 3187              		.loc 1 1288 0 is_stmt 1
 3188 006e 4349     		ldr	r1, .L261+12
 3189 0070 B122     		movs	r2, #177
 3190 0072 D200     		lsls	r2, r2, #3
 3191 0074 8858     		ldr	r0, [r1, r2]
 3192 0076 424B     		ldr	r3, .L261+16
 3193 0078 0340     		ands	r3, r0
 3194 007a 8020     		movs	r0, #128
 3195 007c 8005     		lsls	r0, r0, #22
 3196 007e 0343     		orrs	r3, r0
 3197 0080 8B50     		str	r3, [r1, r2]
1289:Generated_Source\PSoC6\pdl\drivers\peripheral\sysclk/cy_sysclk.c ****             /* Also, prevent starting a new clock measurement until after we've come back from Deep
1290:Generated_Source\PSoC6\pdl\drivers\peripheral\sysclk/cy_sysclk.c ****             preventCounting = true;
 3198              		.loc 1 1290 0
 3199 0082 0122     		movs	r2, #1
 3200 0084 3C4B     		ldr	r3, .L261+8
 3201 0086 1A70     		strb	r2, [r3]
 3202              	.LBE49:
1251:Generated_Source\PSoC6\pdl\drivers\peripheral\sysclk/cy_sysclk.c **** 
 3203              		.loc 1 1251 0
 3204 0088 0024     		movs	r4, #0
 3205              	.LVL387:
ARM GAS  C:\Users\kiwamu\AppData\Local\Temp\ccIx7zyv.s 			page 102


 3206 008a 6EE0     		b	.L232
 3207              	.LVL388:
 3208              	.L231:
1291:Generated_Source\PSoC6\pdl\drivers\peripheral\sysclk/cy_sysclk.c ****         }
1292:Generated_Source\PSoC6\pdl\drivers\peripheral\sysclk/cy_sysclk.c ****     }
1293:Generated_Source\PSoC6\pdl\drivers\peripheral\sysclk/cy_sysclk.c **** 
1294:Generated_Source\PSoC6\pdl\drivers\peripheral\sysclk/cy_sysclk.c ****     /* After return from DeepSleep, for each FLL and PLL, if needed, restore the source to ECO.
1295:Generated_Source\PSoC6\pdl\drivers\peripheral\sysclk/cy_sysclk.c ****        And block until the FLL or PLL has regained its frequency locks. */
1296:Generated_Source\PSoC6\pdl\drivers\peripheral\sysclk/cy_sysclk.c ****     else if (callbackParams->mode == CY_SYSPM_AFTER_TRANSITION)
 3209              		.loc 1 1296 0
 3210 008c 082B     		cmp	r3, #8
 3211 008e 6BD1     		bne	.L256
1297:Generated_Source\PSoC6\pdl\drivers\peripheral\sysclk/cy_sysclk.c ****     {
1298:Generated_Source\PSoC6\pdl\drivers\peripheral\sysclk/cy_sysclk.c ****         /* if any FLL/PLL was sourced by the ECO, timeout wait for the ECO to become fully stabiliz
1299:Generated_Source\PSoC6\pdl\drivers\peripheral\sysclk/cy_sysclk.c ****         if (changedSourcePaths != 0u)
 3212              		.loc 1 1299 0
 3213 0090 394B     		ldr	r3, .L261+8
 3214 0092 1B89     		ldrh	r3, [r3, #8]
 3215 0094 002B     		cmp	r3, #0
 3216 0096 03D1     		bne	.L257
1251:Generated_Source\PSoC6\pdl\drivers\peripheral\sysclk/cy_sysclk.c **** 
 3217              		.loc 1 1251 0
 3218 0098 0024     		movs	r4, #0
 3219              	.LVL389:
 3220 009a 57E0     		b	.L239
 3221              	.LVL390:
 3222              	.L242:
 3223              	.LBB50:
1300:Generated_Source\PSoC6\pdl\drivers\peripheral\sysclk/cy_sysclk.c ****         {
1301:Generated_Source\PSoC6\pdl\drivers\peripheral\sysclk/cy_sysclk.c ****             uint32_t timeout;
1302:Generated_Source\PSoC6\pdl\drivers\peripheral\sysclk/cy_sysclk.c ****             /* Cy_SysClk_EcoGetStatus()return value 2ul = fully stabilized */
1303:Generated_Source\PSoC6\pdl\drivers\peripheral\sysclk/cy_sysclk.c ****             for (timeout = TIMEOUTK; (timeout != 0ul) && (Cy_SysClk_EcoGetStatus() != 2ul); timeout
 3224              		.loc 1 1303 0 discriminator 4
 3225 009c 013A     		subs	r2, r2, #1
 3226              	.LVL391:
 3227 009e 00E0     		b	.L238
 3228              	.LVL392:
 3229              	.L257:
 3230              	.LBE50:
 3231 00a0 384A     		ldr	r2, .L261+20
 3232              	.L238:
 3233              	.LVL393:
 3234              	.LBB62:
 3235              		.loc 1 1303 0 is_stmt 0 discriminator 1
 3236 00a2 002A     		cmp	r2, #0
 3237 00a4 0AD0     		beq	.L240
 3238              	.LBB51:
 3239              	.LBB52:
 696:Generated_Source\PSoC6\pdl\drivers\peripheral\sysclk/cy_sysclk.h ****     /* if ECO is not ready, just report the ECO_OK bit. Otherwise report 2 = ECO ready */
 3240              		.loc 2 696 0 is_stmt 1
 3241 00a6 A623     		movs	r3, #166
 3242 00a8 DB00     		lsls	r3, r3, #3
 3243 00aa 3449     		ldr	r1, .L261+12
 3244 00ac C958     		ldr	r1, [r1, r3]
 3245 00ae 0323     		movs	r3, #3
 3246 00b0 0B40     		ands	r3, r1
 3247              	.LVL394:
ARM GAS  C:\Users\kiwamu\AppData\Local\Temp\ccIx7zyv.s 			page 103


 698:Generated_Source\PSoC6\pdl\drivers\peripheral\sysclk/cy_sysclk.h **** }
 3248              		.loc 2 698 0
 3249 00b2 8907     		lsls	r1, r1, #30
 3250 00b4 00D5     		bpl	.L241
 3251 00b6 0223     		movs	r3, #2
 3252              	.LVL395:
 3253              	.L241:
 3254              	.LBE52:
 3255              	.LBE51:
 3256              		.loc 1 1303 0
 3257 00b8 022B     		cmp	r3, #2
 3258 00ba EFD1     		bne	.L242
 3259              	.L240:
1304:Generated_Source\PSoC6\pdl\drivers\peripheral\sysclk/cy_sysclk.c ****             if (timeout != 0ul)
 3260              		.loc 1 1304 0
 3261 00bc 002A     		cmp	r2, #0
 3262 00be 44D1     		bne	.L259
 3263 00c0 0025     		movs	r5, #0
 3264 00c2 0024     		movs	r4, #0
 3265              	.LVL396:
 3266 00c4 3EE0     		b	.L243
 3267              	.LVL397:
 3268              	.L254:
 3269              	.LBB54:
1305:Generated_Source\PSoC6\pdl\drivers\peripheral\sysclk/cy_sysclk.c ****             {
1306:Generated_Source\PSoC6\pdl\drivers\peripheral\sysclk/cy_sysclk.c ****                 rtnval = CY_SYSPM_TIMEOUT;
1307:Generated_Source\PSoC6\pdl\drivers\peripheral\sysclk/cy_sysclk.c ****             }
1308:Generated_Source\PSoC6\pdl\drivers\peripheral\sysclk/cy_sysclk.c ****             else
1309:Generated_Source\PSoC6\pdl\drivers\peripheral\sysclk/cy_sysclk.c ****             {
1310:Generated_Source\PSoC6\pdl\drivers\peripheral\sysclk/cy_sysclk.c ****                 /* for FLL and each PLL, */
1311:Generated_Source\PSoC6\pdl\drivers\peripheral\sysclk/cy_sysclk.c ****                 uint32_t fllpll; /* 0 = FLL, all other values = a PLL */
1312:Generated_Source\PSoC6\pdl\drivers\peripheral\sysclk/cy_sysclk.c ****                 for (fllpll = 0ul; fllpll < (SRSS_NUM_PLL + 1ul); fllpll++)
1313:Generated_Source\PSoC6\pdl\drivers\peripheral\sysclk/cy_sysclk.c ****                 {
1314:Generated_Source\PSoC6\pdl\drivers\peripheral\sysclk/cy_sysclk.c ****                     /* If FLL or PLL is enabled, */
1315:Generated_Source\PSoC6\pdl\drivers\peripheral\sysclk/cy_sysclk.c ****                     if (0ul !=
 3270              		.loc 1 1315 0
 3271 00c6 002D     		cmp	r5, #0
 3272 00c8 05D1     		bne	.L244
1316:Generated_Source\PSoC6\pdl\drivers\peripheral\sysclk/cy_sysclk.c ****                         ((fllpll == 0ul) ? (_FLD2VAL(SRSS_CLK_FLL_CONFIG_FLL_ENABLE, SRSS->CLK_FLL_
 3273              		.loc 1 1316 0 discriminator 1
 3274 00ca B023     		movs	r3, #176
 3275 00cc DB00     		lsls	r3, r3, #3
 3276 00ce 2B4A     		ldr	r2, .L261+12
 3277 00d0 D358     		ldr	r3, [r2, r3]
1315:Generated_Source\PSoC6\pdl\drivers\peripheral\sysclk/cy_sysclk.c ****                         ((fllpll == 0ul) ? (_FLD2VAL(SRSS_CLK_FLL_CONFIG_FLL_ENABLE, SRSS->CLK_FLL_
 3278              		.loc 1 1315 0 discriminator 1
 3279 00d2 DB0F     		lsrs	r3, r3, #31
 3280 00d4 06E0     		b	.L245
 3281              	.L244:
1317:Generated_Source\PSoC6\pdl\drivers\peripheral\sysclk/cy_sysclk.c ****                                            (_FLD2VAL(SRSS_CLK_PLL_CONFIG_ENABLE, SRSS->CLK_PLL_CONF
 3282              		.loc 1 1317 0 discriminator 2
 3283 00d6 2B00     		movs	r3, r5
 3284 00d8 8133     		adds	r3, r3, #129
 3285 00da FF33     		adds	r3, r3, #255
 3286 00dc 9B00     		lsls	r3, r3, #2
 3287 00de 274A     		ldr	r2, .L261+12
 3288 00e0 9B58     		ldr	r3, [r3, r2]
ARM GAS  C:\Users\kiwamu\AppData\Local\Temp\ccIx7zyv.s 			page 104


1315:Generated_Source\PSoC6\pdl\drivers\peripheral\sysclk/cy_sysclk.c ****                         ((fllpll == 0ul) ? (_FLD2VAL(SRSS_CLK_FLL_CONFIG_FLL_ENABLE, SRSS->CLK_FLL_
 3289              		.loc 1 1315 0 discriminator 2
 3290 00e2 DB0F     		lsrs	r3, r3, #31
 3291              	.L245:
1315:Generated_Source\PSoC6\pdl\drivers\peripheral\sysclk/cy_sysclk.c ****                         ((fllpll == 0ul) ? (_FLD2VAL(SRSS_CLK_FLL_CONFIG_FLL_ENABLE, SRSS->CLK_FLL_
 3292              		.loc 1 1315 0 is_stmt 0 discriminator 4
 3293 00e4 002B     		cmp	r3, #0
 3294 00e6 2CD0     		beq	.L246
1318:Generated_Source\PSoC6\pdl\drivers\peripheral\sysclk/cy_sysclk.c ****                     {
1319:Generated_Source\PSoC6\pdl\drivers\peripheral\sysclk/cy_sysclk.c ****                         /* check the record that this FLL or PLL's source was changed from ECO */
1320:Generated_Source\PSoC6\pdl\drivers\peripheral\sysclk/cy_sysclk.c ****                         if ((changedSourcePaths & (uint16_t)(1u << fllpll)) != 0u)
 3295              		.loc 1 1320 0 is_stmt 1
 3296 00e8 0123     		movs	r3, #1
 3297 00ea AB40     		lsls	r3, r3, r5
 3298 00ec 224A     		ldr	r2, .L261+8
 3299 00ee 1289     		ldrh	r2, [r2, #8]
 3300 00f0 1B04     		lsls	r3, r3, #16
 3301 00f2 1B0C     		lsrs	r3, r3, #16
 3302 00f4 1342     		tst	r3, r2
 3303 00f6 03D0     		beq	.L247
1321:Generated_Source\PSoC6\pdl\drivers\peripheral\sysclk/cy_sysclk.c ****                         {
1322:Generated_Source\PSoC6\pdl\drivers\peripheral\sysclk/cy_sysclk.c ****                             /* Change this FLL or PLL source back to ECO */
1323:Generated_Source\PSoC6\pdl\drivers\peripheral\sysclk/cy_sysclk.c ****                             (void)Cy_SysClk_ClkPathSetSource(fllpll, CY_SYSCLK_CLKPATH_IN_ECO);
 3304              		.loc 1 1323 0
 3305 00f8 0221     		movs	r1, #2
 3306 00fa 2800     		movs	r0, r5
 3307 00fc FFF7FEFF 		bl	Cy_SysClk_ClkPathSetSource
 3308              	.LVL398:
 3309              	.L247:
 3310              	.LBE54:
 3311              	.LBB60:
 3312              	.LBB53:
 698:Generated_Source\PSoC6\pdl\drivers\peripheral\sysclk/cy_sysclk.h **** }
 3313              		.loc 2 698 0 discriminator 1
 3314 0100 204E     		ldr	r6, .L261+20
 3315 0102 19E0     		b	.L248
 3316              	.LVL399:
 3317              	.L253:
 3318              	.LBE53:
 3319              	.LBE60:
 3320              	.LBB61:
 3321              	.LBB55:
1324:Generated_Source\PSoC6\pdl\drivers\peripheral\sysclk/cy_sysclk.c ****                         }
1325:Generated_Source\PSoC6\pdl\drivers\peripheral\sysclk/cy_sysclk.c ****                         { /* Timeout wait for FLL or PLL to regain lock. */
1326:Generated_Source\PSoC6\pdl\drivers\peripheral\sysclk/cy_sysclk.c ****                             uint32_t timout;
1327:Generated_Source\PSoC6\pdl\drivers\peripheral\sysclk/cy_sysclk.c ****                             for (timout = TIMEOUTK; timout != 0ul; timout--)
1328:Generated_Source\PSoC6\pdl\drivers\peripheral\sysclk/cy_sysclk.c ****                             {
1329:Generated_Source\PSoC6\pdl\drivers\peripheral\sysclk/cy_sysclk.c ****                                 if (true == ((fllpll == 0ul) ? Cy_SysClk_FllLocked() : Cy_SysClk_Pl
 3322              		.loc 1 1329 0
 3323 0104 002D     		cmp	r5, #0
 3324 0106 06D1     		bne	.L249
 3325              	.LBB56:
 3326              	.LBB57:
 812:Generated_Source\PSoC6\pdl\drivers\peripheral\sysclk/cy_sysclk.h **** }
 3327              		.loc 2 812 0
 3328 0108 B223     		movs	r3, #178
 3329 010a DB00     		lsls	r3, r3, #3
ARM GAS  C:\Users\kiwamu\AppData\Local\Temp\ccIx7zyv.s 			page 105


 3330 010c 1B4A     		ldr	r2, .L261+12
 3331 010e D258     		ldr	r2, [r2, r3]
 3332 0110 0123     		movs	r3, #1
 3333 0112 1340     		ands	r3, r2
 3334              	.LBE57:
 3335              	.LBE56:
 3336 0114 0DE0     		b	.L250
 3337              	.L249:
 3338              	.LVL400:
 3339              	.LBB58:
 3340              	.LBB59:
 905:Generated_Source\PSoC6\pdl\drivers\peripheral\sysclk/cy_sysclk.h ****     return (bool)(_FLD2VAL(SRSS_CLK_PLL_STATUS_LOCKED, SRSS->CLK_PLL_STATUS[clkPath - 1ul]));
 3341              		.loc 2 905 0
 3342 0116 012D     		cmp	r5, #1
 3343 0118 03D0     		beq	.L251
 3344 011a 1B49     		ldr	r1, .L261+24
 3345 011c 1B48     		ldr	r0, .L261+28
 3346 011e FFF7FEFF 		bl	Cy_SysLib_AssertFailed
 3347              	.LVL401:
 3348              	.L251:
 906:Generated_Source\PSoC6\pdl\drivers\peripheral\sysclk/cy_sysclk.h **** }
 3349              		.loc 2 906 0
 3350 0122 2B00     		movs	r3, r5
 3351 0124 9033     		adds	r3, r3, #144
 3352 0126 FF33     		adds	r3, r3, #255
 3353 0128 9B00     		lsls	r3, r3, #2
 3354 012a 144A     		ldr	r2, .L261+12
 3355 012c 9B58     		ldr	r3, [r3, r2]
 3356 012e 0122     		movs	r2, #1
 3357 0130 1340     		ands	r3, r2
 3358              	.LVL402:
 3359              	.L250:
 3360              	.LBE59:
 3361              	.LBE58:
 3362              		.loc 1 1329 0 discriminator 4
 3363 0132 002B     		cmp	r3, #0
 3364 0134 02D1     		bne	.L252
1327:Generated_Source\PSoC6\pdl\drivers\peripheral\sysclk/cy_sysclk.c ****                             {
 3365              		.loc 1 1327 0 discriminator 2
 3366 0136 013E     		subs	r6, r6, #1
 3367              	.LVL403:
 3368              	.L248:
1327:Generated_Source\PSoC6\pdl\drivers\peripheral\sysclk/cy_sysclk.c ****                             {
 3369              		.loc 1 1327 0 is_stmt 0 discriminator 1
 3370 0138 002E     		cmp	r6, #0
 3371 013a E3D1     		bne	.L253
 3372              	.L252:
1330:Generated_Source\PSoC6\pdl\drivers\peripheral\sysclk/cy_sysclk.c ****                                 {
1331:Generated_Source\PSoC6\pdl\drivers\peripheral\sysclk/cy_sysclk.c ****                                     break;
1332:Generated_Source\PSoC6\pdl\drivers\peripheral\sysclk/cy_sysclk.c ****                                 }
1333:Generated_Source\PSoC6\pdl\drivers\peripheral\sysclk/cy_sysclk.c ****                             }
1334:Generated_Source\PSoC6\pdl\drivers\peripheral\sysclk/cy_sysclk.c ****                             if (timout != 0ul)
 3373              		.loc 1 1334 0 is_stmt 1
 3374 013c 002E     		cmp	r6, #0
 3375 013e 00D0     		beq	.L246
1335:Generated_Source\PSoC6\pdl\drivers\peripheral\sysclk/cy_sysclk.c ****                             {
1336:Generated_Source\PSoC6\pdl\drivers\peripheral\sysclk/cy_sysclk.c ****                                 rtnval = CY_SYSPM_TIMEOUT;
ARM GAS  C:\Users\kiwamu\AppData\Local\Temp\ccIx7zyv.s 			page 106


 3376              		.loc 1 1336 0
 3377 0140 134C     		ldr	r4, .L261+32
 3378              	.LVL404:
 3379              	.L246:
 3380              	.LBE55:
1312:Generated_Source\PSoC6\pdl\drivers\peripheral\sysclk/cy_sysclk.c ****                 {
 3381              		.loc 1 1312 0 discriminator 2
 3382 0142 0135     		adds	r5, r5, #1
 3383              	.LVL405:
 3384              	.L243:
1312:Generated_Source\PSoC6\pdl\drivers\peripheral\sysclk/cy_sysclk.c ****                 {
 3385              		.loc 1 1312 0 is_stmt 0 discriminator 1
 3386 0144 012D     		cmp	r5, #1
 3387 0146 BED9     		bls	.L254
 3388 0148 00E0     		b	.L239
 3389              	.LVL406:
 3390              	.L259:
 3391              	.LBE61:
1306:Generated_Source\PSoC6\pdl\drivers\peripheral\sysclk/cy_sysclk.c ****             }
 3392              		.loc 1 1306 0 is_stmt 1
 3393 014a 114C     		ldr	r4, .L261+32
 3394              	.LVL407:
 3395              	.L239:
 3396              	.LBE62:
1337:Generated_Source\PSoC6\pdl\drivers\peripheral\sysclk/cy_sysclk.c ****                             }
1338:Generated_Source\PSoC6\pdl\drivers\peripheral\sysclk/cy_sysclk.c ****                         }
1339:Generated_Source\PSoC6\pdl\drivers\peripheral\sysclk/cy_sysclk.c ****                     }
1340:Generated_Source\PSoC6\pdl\drivers\peripheral\sysclk/cy_sysclk.c ****                 }
1341:Generated_Source\PSoC6\pdl\drivers\peripheral\sysclk/cy_sysclk.c ****             }
1342:Generated_Source\PSoC6\pdl\drivers\peripheral\sysclk/cy_sysclk.c ****         }
1343:Generated_Source\PSoC6\pdl\drivers\peripheral\sysclk/cy_sysclk.c ****         
1344:Generated_Source\PSoC6\pdl\drivers\peripheral\sysclk/cy_sysclk.c ****         /* Set the FLL bypass mode to 3 */
1345:Generated_Source\PSoC6\pdl\drivers\peripheral\sysclk/cy_sysclk.c ****         CY_SYSCLK_CLR_SET(SRSS->CLK_FLL_CONFIG3, SRSS_CLK_FLL_CONFIG3_BYPASS_SEL,
 3397              		.loc 1 1345 0
 3398 014c 0B49     		ldr	r1, .L261+12
 3399 014e B122     		movs	r2, #177
 3400 0150 D200     		lsls	r2, r2, #3
 3401 0152 8B58     		ldr	r3, [r1, r2]
 3402 0154 C020     		movs	r0, #192
 3403 0156 8005     		lsls	r0, r0, #22
 3404 0158 0343     		orrs	r3, r0
 3405 015a 8B50     		str	r3, [r1, r2]
1346:Generated_Source\PSoC6\pdl\drivers\peripheral\sysclk/cy_sysclk.c ****                           (uint32_t)CY_SYSCLK_FLLPLL_OUTPUT_OUTPUT);
1347:Generated_Source\PSoC6\pdl\drivers\peripheral\sysclk/cy_sysclk.c ****         /* Coming back from DeepSleep; we can allow clock measurement. */
1348:Generated_Source\PSoC6\pdl\drivers\peripheral\sysclk/cy_sysclk.c ****         preventCounting = false;
 3406              		.loc 1 1348 0
 3407 015c 0022     		movs	r2, #0
 3408 015e 064B     		ldr	r3, .L261+8
 3409 0160 1A70     		strb	r2, [r3]
 3410 0162 02E0     		b	.L232
 3411              	.LVL408:
 3412              	.L255:
1261:Generated_Source\PSoC6\pdl\drivers\peripheral\sysclk/cy_sysclk.c ****         }
 3413              		.loc 1 1261 0
 3414 0164 0B4C     		ldr	r4, .L261+36
 3415              	.LVL409:
 3416 0166 00E0     		b	.L232
ARM GAS  C:\Users\kiwamu\AppData\Local\Temp\ccIx7zyv.s 			page 107


 3417              	.LVL410:
 3418              	.L256:
1251:Generated_Source\PSoC6\pdl\drivers\peripheral\sysclk/cy_sysclk.c **** 
 3419              		.loc 1 1251 0
 3420 0168 0024     		movs	r4, #0
 3421              	.LVL411:
 3422              	.L232:
1349:Generated_Source\PSoC6\pdl\drivers\peripheral\sysclk/cy_sysclk.c ****     }
1350:Generated_Source\PSoC6\pdl\drivers\peripheral\sysclk/cy_sysclk.c **** 
1351:Generated_Source\PSoC6\pdl\drivers\peripheral\sysclk/cy_sysclk.c ****     /* No other modes need be checked. */
1352:Generated_Source\PSoC6\pdl\drivers\peripheral\sysclk/cy_sysclk.c ****     else
1353:Generated_Source\PSoC6\pdl\drivers\peripheral\sysclk/cy_sysclk.c ****     {
1354:Generated_Source\PSoC6\pdl\drivers\peripheral\sysclk/cy_sysclk.c ****     }
1355:Generated_Source\PSoC6\pdl\drivers\peripheral\sysclk/cy_sysclk.c **** 
1356:Generated_Source\PSoC6\pdl\drivers\peripheral\sysclk/cy_sysclk.c ****     return rtnval;
1357:Generated_Source\PSoC6\pdl\drivers\peripheral\sysclk/cy_sysclk.c **** }
 3423              		.loc 1 1357 0
 3424 016a 2000     		movs	r0, r4
 3425              		@ sp needed
 3426              	.LVL412:
 3427 016c 70BD     		pop	{r4, r5, r6, pc}
 3428              	.L262:
 3429 016e C046     		.align	2
 3430              	.L261:
 3431 0170 E5040000 		.word	1253
 3432 0174 00000000 		.word	.LC3
 3433 0178 00000000 		.word	.LANCHOR1
 3434 017c 00002640 		.word	1076232192
 3435 0180 FFFFFFCF 		.word	-805306369
 3436 0184 404B4C00 		.word	5000000
 3437 0188 89030000 		.word	905
 3438 018c 44000000 		.word	.LC12
 3439 0190 02004200 		.word	4325378
 3440 0194 FF004200 		.word	4325631
 3441              		.cfi_endproc
 3442              	.LFE155:
 3443              		.size	Cy_SysClk_DeepSleepCallback, .-Cy_SysClk_DeepSleepCallback
 3444              		.section	.text.Cy_SysClk_PeriphGetFrequency,"ax",%progbits
 3445              		.align	2
 3446              		.global	Cy_SysClk_PeriphGetFrequency
 3447              		.code	16
 3448              		.thumb_func
 3449              		.type	Cy_SysClk_PeriphGetFrequency, %function
 3450              	Cy_SysClk_PeriphGetFrequency:
 3451              	.LFB156:
1358:Generated_Source\PSoC6\pdl\drivers\peripheral\sysclk/cy_sysclk.c **** /** \} group_sysclk_pm_funcs */
1359:Generated_Source\PSoC6\pdl\drivers\peripheral\sysclk/cy_sysclk.c **** 
1360:Generated_Source\PSoC6\pdl\drivers\peripheral\sysclk/cy_sysclk.c **** 
1361:Generated_Source\PSoC6\pdl\drivers\peripheral\sysclk/cy_sysclk.c **** /* ========================================================================== */
1362:Generated_Source\PSoC6\pdl\drivers\peripheral\sysclk/cy_sysclk.c **** /* ===========================    WCO SECTION    ============================ */
1363:Generated_Source\PSoC6\pdl\drivers\peripheral\sysclk/cy_sysclk.c **** /* ========================================================================== */
1364:Generated_Source\PSoC6\pdl\drivers\peripheral\sysclk/cy_sysclk.c **** /**
1365:Generated_Source\PSoC6\pdl\drivers\peripheral\sysclk/cy_sysclk.c **** * \addtogroup group_sysclk_wco_funcs
1366:Generated_Source\PSoC6\pdl\drivers\peripheral\sysclk/cy_sysclk.c **** * \{
1367:Generated_Source\PSoC6\pdl\drivers\peripheral\sysclk/cy_sysclk.c **** */
1368:Generated_Source\PSoC6\pdl\drivers\peripheral\sysclk/cy_sysclk.c **** #if (SRSS_WCOCSV_PRESENT != 0) || defined(CY_DOXYGEN)
1369:Generated_Source\PSoC6\pdl\drivers\peripheral\sysclk/cy_sysclk.c **** /*******************************************************************************
ARM GAS  C:\Users\kiwamu\AppData\Local\Temp\ccIx7zyv.s 			page 108


1370:Generated_Source\PSoC6\pdl\drivers\peripheral\sysclk/cy_sysclk.c **** * Function Name: Cy_SysClk_WcoConfigureCsv
1371:Generated_Source\PSoC6\pdl\drivers\peripheral\sysclk/cy_sysclk.c **** ****************************************************************************//**
1372:Generated_Source\PSoC6\pdl\drivers\peripheral\sysclk/cy_sysclk.c **** *
1373:Generated_Source\PSoC6\pdl\drivers\peripheral\sysclk/cy_sysclk.c **** * Configure the WCO clock supervisor (CSV).
1374:Generated_Source\PSoC6\pdl\drivers\peripheral\sysclk/cy_sysclk.c **** *
1375:Generated_Source\PSoC6\pdl\drivers\peripheral\sysclk/cy_sysclk.c **** * \param config \ref cy_stc_wco_csv_config_t
1376:Generated_Source\PSoC6\pdl\drivers\peripheral\sysclk/cy_sysclk.c **** *
1377:Generated_Source\PSoC6\pdl\drivers\peripheral\sysclk/cy_sysclk.c **** * \note
1378:Generated_Source\PSoC6\pdl\drivers\peripheral\sysclk/cy_sysclk.c **** * If loss detection is enabled, writes to other register bits are ignored.
1379:Generated_Source\PSoC6\pdl\drivers\peripheral\sysclk/cy_sysclk.c **** * Therefore loss detection is disabled before writing the config structure
1380:Generated_Source\PSoC6\pdl\drivers\peripheral\sysclk/cy_sysclk.c **** * members to the CTL register. Note that one of the config structure members is
1381:Generated_Source\PSoC6\pdl\drivers\peripheral\sysclk/cy_sysclk.c **** * an enable bit.
1382:Generated_Source\PSoC6\pdl\drivers\peripheral\sysclk/cy_sysclk.c **** *******************************************************************************/
1383:Generated_Source\PSoC6\pdl\drivers\peripheral\sysclk/cy_sysclk.c **** void Cy_SysClk_WcoConfigureCsv(const cy_stc_wco_csv_config_t *config)
1384:Generated_Source\PSoC6\pdl\drivers\peripheral\sysclk/cy_sysclk.c **** {
1385:Generated_Source\PSoC6\pdl\drivers\peripheral\sysclk/cy_sysclk.c ****     CY_ASSERT_L1(config != NULL);
1386:Generated_Source\PSoC6\pdl\drivers\peripheral\sysclk/cy_sysclk.c ****     CY_ASSERT_L3(config->SupervisorClock <= CY_SYSCLK_WCO_CSV_SUPERVISOR_PILO);
1387:Generated_Source\PSoC6\pdl\drivers\peripheral\sysclk/cy_sysclk.c ****     CY_ASSERT_L3(config->LossWindow      <= CY_SYSCLK_CSV_LOSS_512_CYCLES);
1388:Generated_Source\PSoC6\pdl\drivers\peripheral\sysclk/cy_sysclk.c ****     CY_ASSERT_L3(config->LossAction      <= CY_SYSCLK_CSV_ERROR_FAULT_RESET);
1389:Generated_Source\PSoC6\pdl\drivers\peripheral\sysclk/cy_sysclk.c **** 
1390:Generated_Source\PSoC6\pdl\drivers\peripheral\sysclk/cy_sysclk.c ****     /* First clear all bits, including the enable bit; disable loss detection. */
1391:Generated_Source\PSoC6\pdl\drivers\peripheral\sysclk/cy_sysclk.c ****     SRSS->CLK_CSV_WCO_CTL = 0ul;
1392:Generated_Source\PSoC6\pdl\drivers\peripheral\sysclk/cy_sysclk.c ****     /* Then write the structure elements (which include an enable bit) to the register. */
1393:Generated_Source\PSoC6\pdl\drivers\peripheral\sysclk/cy_sysclk.c ****     SRSS->CLK_CSV_WCO_CTL = _VAL2FLD(SRSS_CLK_CSV_WCO_CTL_CSV_MUX, (uint32_t)config->SupervisorCloc
1394:Generated_Source\PSoC6\pdl\drivers\peripheral\sysclk/cy_sysclk.c ****                             _VAL2FLD(SRSS_CLK_CSV_WCO_CTL_CSV_LOSS_WINDOW, (uint32_t)(config->LossW
1395:Generated_Source\PSoC6\pdl\drivers\peripheral\sysclk/cy_sysclk.c ****                             _VAL2FLD(SRSS_CLK_CSV_WCO_CTL_CSV_LOSS_ACTION, (uint32_t)(config->LossA
1396:Generated_Source\PSoC6\pdl\drivers\peripheral\sysclk/cy_sysclk.c ****                             _VAL2FLD(SRSS_CLK_CSV_WCO_CTL_CSV_LOSS_EN, config->enableLossDetection)
1397:Generated_Source\PSoC6\pdl\drivers\peripheral\sysclk/cy_sysclk.c **** }
1398:Generated_Source\PSoC6\pdl\drivers\peripheral\sysclk/cy_sysclk.c **** #endif /* (SRSS_WCOCSV_PRESENT != 0) || defined(CY_DOXYGEN) */
1399:Generated_Source\PSoC6\pdl\drivers\peripheral\sysclk/cy_sysclk.c **** /** \} group_sysclk_wco_funcs */
1400:Generated_Source\PSoC6\pdl\drivers\peripheral\sysclk/cy_sysclk.c **** 
1401:Generated_Source\PSoC6\pdl\drivers\peripheral\sysclk/cy_sysclk.c **** 
1402:Generated_Source\PSoC6\pdl\drivers\peripheral\sysclk/cy_sysclk.c **** /* ========================================================================== */
1403:Generated_Source\PSoC6\pdl\drivers\peripheral\sysclk/cy_sysclk.c **** /* =========================    clkHf[n] SECTION    ========================= */
1404:Generated_Source\PSoC6\pdl\drivers\peripheral\sysclk/cy_sysclk.c **** /* ========================================================================== */
1405:Generated_Source\PSoC6\pdl\drivers\peripheral\sysclk/cy_sysclk.c **** /**
1406:Generated_Source\PSoC6\pdl\drivers\peripheral\sysclk/cy_sysclk.c **** * \addtogroup group_sysclk_clk_hf_funcs
1407:Generated_Source\PSoC6\pdl\drivers\peripheral\sysclk/cy_sysclk.c **** * \{
1408:Generated_Source\PSoC6\pdl\drivers\peripheral\sysclk/cy_sysclk.c **** */
1409:Generated_Source\PSoC6\pdl\drivers\peripheral\sysclk/cy_sysclk.c **** #if (SRSS_MASK_HFCSV != 0)  || defined(CY_DOXYGEN)
1410:Generated_Source\PSoC6\pdl\drivers\peripheral\sysclk/cy_sysclk.c **** /*******************************************************************************
1411:Generated_Source\PSoC6\pdl\drivers\peripheral\sysclk/cy_sysclk.c **** * Function Name: Cy_SysClk_ClkHfConfigureCsv
1412:Generated_Source\PSoC6\pdl\drivers\peripheral\sysclk/cy_sysclk.c **** ****************************************************************************//**
1413:Generated_Source\PSoC6\pdl\drivers\peripheral\sysclk/cy_sysclk.c **** *
1414:Generated_Source\PSoC6\pdl\drivers\peripheral\sysclk/cy_sysclk.c **** * Configures the clkHf clock supervisor (CSV).
1415:Generated_Source\PSoC6\pdl\drivers\peripheral\sysclk/cy_sysclk.c **** *
1416:Generated_Source\PSoC6\pdl\drivers\peripheral\sysclk/cy_sysclk.c **** * \param clkHf selects which clkHf CSV to configure.
1417:Generated_Source\PSoC6\pdl\drivers\peripheral\sysclk/cy_sysclk.c **** *
1418:Generated_Source\PSoC6\pdl\drivers\peripheral\sysclk/cy_sysclk.c **** * \param config \ref cy_stc_clkhf_csv_config_t
1419:Generated_Source\PSoC6\pdl\drivers\peripheral\sysclk/cy_sysclk.c **** *
1420:Generated_Source\PSoC6\pdl\drivers\peripheral\sysclk/cy_sysclk.c **** * \return Error / status code: CY_SYSCLK_INVALID_STATE if clkHf CSV is not present
1421:Generated_Source\PSoC6\pdl\drivers\peripheral\sysclk/cy_sysclk.c **** * in the device, else CY_SYSCLK_SUCCESS
1422:Generated_Source\PSoC6\pdl\drivers\peripheral\sysclk/cy_sysclk.c **** *
1423:Generated_Source\PSoC6\pdl\drivers\peripheral\sysclk/cy_sysclk.c **** * \note
1424:Generated_Source\PSoC6\pdl\drivers\peripheral\sysclk/cy_sysclk.c **** * If loss detection is enabled, writes to other register bits are ignored.
1425:Generated_Source\PSoC6\pdl\drivers\peripheral\sysclk/cy_sysclk.c **** * Therefore loss detection is disabled before writing the config structure
1426:Generated_Source\PSoC6\pdl\drivers\peripheral\sysclk/cy_sysclk.c **** * members to the CTL register. Note that one of the config structure members is
ARM GAS  C:\Users\kiwamu\AppData\Local\Temp\ccIx7zyv.s 			page 109


1427:Generated_Source\PSoC6\pdl\drivers\peripheral\sysclk/cy_sysclk.c **** * an enable bit.
1428:Generated_Source\PSoC6\pdl\drivers\peripheral\sysclk/cy_sysclk.c **** *******************************************************************************/
1429:Generated_Source\PSoC6\pdl\drivers\peripheral\sysclk/cy_sysclk.c **** cy_en_sysclk_status_t Cy_SysClk_ClkHfConfigureCsv(uint32_t clkHf, const cy_stc_clkhf_csv_config_t *
1430:Generated_Source\PSoC6\pdl\drivers\peripheral\sysclk/cy_sysclk.c **** {
1431:Generated_Source\PSoC6\pdl\drivers\peripheral\sysclk/cy_sysclk.c ****     CY_ASSERT_L1(clkHf < SRSS_NUM_HFROOT);
1432:Generated_Source\PSoC6\pdl\drivers\peripheral\sysclk/cy_sysclk.c ****     CY_ASSERT_L1(config != NULL);
1433:Generated_Source\PSoC6\pdl\drivers\peripheral\sysclk/cy_sysclk.c ****     CY_ASSERT_L3(config->SupervisorClock <= CY_SYSCLK_CLKHF_CSV_SUPERVISOR_ALTHF);
1434:Generated_Source\PSoC6\pdl\drivers\peripheral\sysclk/cy_sysclk.c ****     CY_ASSERT_L3(config->FrequencyAction <= CY_SYSCLK_CSV_ERROR_FAULT_RESET);
1435:Generated_Source\PSoC6\pdl\drivers\peripheral\sysclk/cy_sysclk.c ****     CY_ASSERT_L3(config->LossWindow      <= CY_SYSCLK_CSV_LOSS_512_CYCLES);
1436:Generated_Source\PSoC6\pdl\drivers\peripheral\sysclk/cy_sysclk.c ****     CY_ASSERT_L3(config->LossAction      <= CY_SYSCLK_CSV_ERROR_FAULT_RESET);
1437:Generated_Source\PSoC6\pdl\drivers\peripheral\sysclk/cy_sysclk.c **** 
1438:Generated_Source\PSoC6\pdl\drivers\peripheral\sysclk/cy_sysclk.c ****     /* First update the limit bits; this can be done regardless of enable state. */
1439:Generated_Source\PSoC6\pdl\drivers\peripheral\sysclk/cy_sysclk.c ****     SRSS->CLK_CSV[clkHf].HF_LIMIT = _VAL2FLD(CLK_CSV_HF_LIMIT_UPPER_LIMIT, config->FrequencyUpperLi
1440:Generated_Source\PSoC6\pdl\drivers\peripheral\sysclk/cy_sysclk.c ****                                     _VAL2FLD(CLK_CSV_HF_LIMIT_LOWER_LIMIT, config->FrequencyLowerLi
1441:Generated_Source\PSoC6\pdl\drivers\peripheral\sysclk/cy_sysclk.c ****     /* Then clear all CTL register bits, including the enable bit; disable loss detection. */
1442:Generated_Source\PSoC6\pdl\drivers\peripheral\sysclk/cy_sysclk.c ****     SRSS->CLK_CSV[clkHf].HF_CTL = 0ul;
1443:Generated_Source\PSoC6\pdl\drivers\peripheral\sysclk/cy_sysclk.c ****     /* Finally, write the structure elements (which include an enable bit) to the CTL register. */
1444:Generated_Source\PSoC6\pdl\drivers\peripheral\sysclk/cy_sysclk.c ****     SRSS->CLK_CSV[clkHf].HF_CTL = _VAL2FLD(CLK_CSV_HF_CTL_CSV_LOSS_EN, config->enableLossDetection)
1445:Generated_Source\PSoC6\pdl\drivers\peripheral\sysclk/cy_sysclk.c ****                                   _VAL2FLD(CLK_CSV_HF_CTL_CSV_LOSS_ACTION, (uint32_t)(config->LossA
1446:Generated_Source\PSoC6\pdl\drivers\peripheral\sysclk/cy_sysclk.c ****                                   _VAL2FLD(CLK_CSV_HF_CTL_CSV_FREQ_EN, config->enableFrequencyFault
1447:Generated_Source\PSoC6\pdl\drivers\peripheral\sysclk/cy_sysclk.c ****                                   _VAL2FLD(CLK_CSV_HF_CTL_CSV_FREQ_ACTION, (uint32_t)(config->Frequ
1448:Generated_Source\PSoC6\pdl\drivers\peripheral\sysclk/cy_sysclk.c ****                                   _VAL2FLD(CLK_CSV_HF_CTL_CSV_LOSS_WINDOW, (uint32_t)(config->LossW
1449:Generated_Source\PSoC6\pdl\drivers\peripheral\sysclk/cy_sysclk.c ****                                   _VAL2FLD(CLK_CSV_HF_CTL_CSV_MUX, (uint32_t)(config->SupervisorClo
1450:Generated_Source\PSoC6\pdl\drivers\peripheral\sysclk/cy_sysclk.c ****                                   _VAL2FLD(CLK_CSV_HF_CTL_CSV_FREQ_WINDOW, config->SupervisingWindo
1451:Generated_Source\PSoC6\pdl\drivers\peripheral\sysclk/cy_sysclk.c ****     return CY_SYSCLK_SUCCESS; /* placeholder */
1452:Generated_Source\PSoC6\pdl\drivers\peripheral\sysclk/cy_sysclk.c **** }
1453:Generated_Source\PSoC6\pdl\drivers\peripheral\sysclk/cy_sysclk.c **** #endif /* (SRSS_MASK_HFCSV != 0)  || defined(CY_DOXYGEN) */
1454:Generated_Source\PSoC6\pdl\drivers\peripheral\sysclk/cy_sysclk.c **** /** \} group_sysclk_clk_hf_funcs */
1455:Generated_Source\PSoC6\pdl\drivers\peripheral\sysclk/cy_sysclk.c **** 
1456:Generated_Source\PSoC6\pdl\drivers\peripheral\sysclk/cy_sysclk.c **** 
1457:Generated_Source\PSoC6\pdl\drivers\peripheral\sysclk/cy_sysclk.c **** /* ========================================================================== */
1458:Generated_Source\PSoC6\pdl\drivers\peripheral\sysclk/cy_sysclk.c **** /* =====================    clk_peripherals SECTION    ====================== */
1459:Generated_Source\PSoC6\pdl\drivers\peripheral\sysclk/cy_sysclk.c **** /* ========================================================================== */
1460:Generated_Source\PSoC6\pdl\drivers\peripheral\sysclk/cy_sysclk.c **** /**
1461:Generated_Source\PSoC6\pdl\drivers\peripheral\sysclk/cy_sysclk.c **** * \addtogroup group_sysclk_clk_peripheral_funcs
1462:Generated_Source\PSoC6\pdl\drivers\peripheral\sysclk/cy_sysclk.c **** * \{
1463:Generated_Source\PSoC6\pdl\drivers\peripheral\sysclk/cy_sysclk.c **** */
1464:Generated_Source\PSoC6\pdl\drivers\peripheral\sysclk/cy_sysclk.c **** /*******************************************************************************
1465:Generated_Source\PSoC6\pdl\drivers\peripheral\sysclk/cy_sysclk.c **** * Function Name: Cy_SysClk_PeriphGetFrequency
1466:Generated_Source\PSoC6\pdl\drivers\peripheral\sysclk/cy_sysclk.c **** ****************************************************************************//**
1467:Generated_Source\PSoC6\pdl\drivers\peripheral\sysclk/cy_sysclk.c **** *
1468:Generated_Source\PSoC6\pdl\drivers\peripheral\sysclk/cy_sysclk.c **** * Reports the frequency of the output of a given peripheral divider.
1469:Generated_Source\PSoC6\pdl\drivers\peripheral\sysclk/cy_sysclk.c **** *
1470:Generated_Source\PSoC6\pdl\drivers\peripheral\sysclk/cy_sysclk.c **** * \param dividerType specifies which type of divider to use; \ref cy_en_divider_types_t
1471:Generated_Source\PSoC6\pdl\drivers\peripheral\sysclk/cy_sysclk.c **** *
1472:Generated_Source\PSoC6\pdl\drivers\peripheral\sysclk/cy_sysclk.c **** * \param dividerNum specifies which divider of the selected type to configure
1473:Generated_Source\PSoC6\pdl\drivers\peripheral\sysclk/cy_sysclk.c **** *
1474:Generated_Source\PSoC6\pdl\drivers\peripheral\sysclk/cy_sysclk.c **** * \return The frequency, in Hz.
1475:Generated_Source\PSoC6\pdl\drivers\peripheral\sysclk/cy_sysclk.c **** *
1476:Generated_Source\PSoC6\pdl\drivers\peripheral\sysclk/cy_sysclk.c **** * \note
1477:Generated_Source\PSoC6\pdl\drivers\peripheral\sysclk/cy_sysclk.c **** * The reported frequency may be zero, which indicates unknown. This happens if
1478:Generated_Source\PSoC6\pdl\drivers\peripheral\sysclk/cy_sysclk.c **** * the source input is clk_ext, ECO, clk_althf, dsi_out, or clk_altlf.
1479:Generated_Source\PSoC6\pdl\drivers\peripheral\sysclk/cy_sysclk.c **** *
1480:Generated_Source\PSoC6\pdl\drivers\peripheral\sysclk/cy_sysclk.c **** *******************************************************************************/
1481:Generated_Source\PSoC6\pdl\drivers\peripheral\sysclk/cy_sysclk.c **** uint32_t Cy_SysClk_PeriphGetFrequency(cy_en_divider_types_t dividerType, uint32_t dividerNum)
1482:Generated_Source\PSoC6\pdl\drivers\peripheral\sysclk/cy_sysclk.c **** {
 3452              		.loc 1 1482 0
ARM GAS  C:\Users\kiwamu\AppData\Local\Temp\ccIx7zyv.s 			page 110


 3453              		.cfi_startproc
 3454              		@ args = 0, pretend = 0, frame = 40
 3455              		@ frame_needed = 0, uses_anonymous_args = 0
 3456              	.LVL413:
 3457 0000 F0B5     		push	{r4, r5, r6, r7, lr}
 3458              		.cfi_def_cfa_offset 20
 3459              		.cfi_offset 4, -20
 3460              		.cfi_offset 5, -16
 3461              		.cfi_offset 6, -12
 3462              		.cfi_offset 7, -8
 3463              		.cfi_offset 14, -4
 3464 0002 4746     		mov	r7, r8
 3465 0004 80B4     		push	{r7}
 3466              		.cfi_def_cfa_offset 24
 3467              		.cfi_offset 8, -24
 3468 0006 8AB0     		sub	sp, sp, #40
 3469              		.cfi_def_cfa_offset 64
 3470 0008 0600     		movs	r6, r0
 3471 000a 0F00     		movs	r7, r1
 3472              	.LVL414:
1483:Generated_Source\PSoC6\pdl\drivers\peripheral\sysclk/cy_sysclk.c ****     uint32_t rtnval = 0ul; /* 0 = unknown frequency */
1484:Generated_Source\PSoC6\pdl\drivers\peripheral\sysclk/cy_sysclk.c **** 
1485:Generated_Source\PSoC6\pdl\drivers\peripheral\sysclk/cy_sysclk.c ****     CY_ASSERT_L1(((dividerType == CY_SYSCLK_DIV_8_BIT)    && (dividerNum < PERI_DIV_8_NR))    ||
 3473              		.loc 1 1485 0
 3474 000c 0028     		cmp	r0, #0
 3475 000e 01D1     		bne	.L264
 3476              		.loc 1 1485 0 is_stmt 0 discriminator 2
 3477 0010 0729     		cmp	r1, #7
 3478 0012 10D9     		bls	.L265
 3479              	.L264:
 3480              		.loc 1 1485 0 discriminator 3
 3481 0014 012E     		cmp	r6, #1
 3482 0016 01D1     		bne	.L266
 3483              		.loc 1 1485 0 discriminator 5
 3484 0018 0F2F     		cmp	r7, #15
 3485 001a 0CD9     		bls	.L265
 3486              	.L266:
 3487              		.loc 1 1485 0 discriminator 6
 3488 001c 022E     		cmp	r6, #2
 3489 001e 01D1     		bne	.L267
 3490              		.loc 1 1485 0 discriminator 8
 3491 0020 032F     		cmp	r7, #3
 3492 0022 08D9     		bls	.L265
 3493              	.L267:
 3494              		.loc 1 1485 0 discriminator 9
 3495 0024 032E     		cmp	r6, #3
 3496 0026 01D1     		bne	.L268
 3497              		.loc 1 1485 0 discriminator 11
 3498 0028 002F     		cmp	r7, #0
 3499 002a 04D0     		beq	.L265
 3500              	.L268:
 3501              		.loc 1 1485 0 discriminator 12
 3502 002c BA21     		movs	r1, #186
 3503              	.LVL415:
 3504 002e C900     		lsls	r1, r1, #3
 3505 0030 9748     		ldr	r0, .L302
 3506              	.LVL416:
ARM GAS  C:\Users\kiwamu\AppData\Local\Temp\ccIx7zyv.s 			page 111


 3507 0032 FFF7FEFF 		bl	Cy_SysLib_AssertFailed
 3508              	.LVL417:
 3509              	.L265:
1486:Generated_Source\PSoC6\pdl\drivers\peripheral\sysclk/cy_sysclk.c ****                  ((dividerType == CY_SYSCLK_DIV_16_BIT)   && (dividerNum < PERI_DIV_16_NR))   ||
1487:Generated_Source\PSoC6\pdl\drivers\peripheral\sysclk/cy_sysclk.c ****                  ((dividerType == CY_SYSCLK_DIV_16_5_BIT) && (dividerNum < PERI_DIV_16_5_NR)) ||
1488:Generated_Source\PSoC6\pdl\drivers\peripheral\sysclk/cy_sysclk.c ****                  ((dividerType == CY_SYSCLK_DIV_24_5_BIT) && (dividerNum < PERI_DIV_24_5_NR)));
1489:Generated_Source\PSoC6\pdl\drivers\peripheral\sysclk/cy_sysclk.c **** 
1490:Generated_Source\PSoC6\pdl\drivers\peripheral\sysclk/cy_sysclk.c ****     /* FLL or PLL configuration parameters */
1491:Generated_Source\PSoC6\pdl\drivers\peripheral\sysclk/cy_sysclk.c ****     union
1492:Generated_Source\PSoC6\pdl\drivers\peripheral\sysclk/cy_sysclk.c ****     {
1493:Generated_Source\PSoC6\pdl\drivers\peripheral\sysclk/cy_sysclk.c ****         cy_stc_fll_manual_config_t fll;
1494:Generated_Source\PSoC6\pdl\drivers\peripheral\sysclk/cy_sysclk.c ****         struct
1495:Generated_Source\PSoC6\pdl\drivers\peripheral\sysclk/cy_sysclk.c ****         {
1496:Generated_Source\PSoC6\pdl\drivers\peripheral\sysclk/cy_sysclk.c ****             uint8_t feedbackDiv;
1497:Generated_Source\PSoC6\pdl\drivers\peripheral\sysclk/cy_sysclk.c ****             uint8_t referenceDiv;
1498:Generated_Source\PSoC6\pdl\drivers\peripheral\sysclk/cy_sysclk.c ****             uint8_t outputDiv;
1499:Generated_Source\PSoC6\pdl\drivers\peripheral\sysclk/cy_sysclk.c ****         } pll;
1500:Generated_Source\PSoC6\pdl\drivers\peripheral\sysclk/cy_sysclk.c ****     } fllpll = {0ul};
 3510              		.loc 1 1500 0 is_stmt 1
 3511 0036 1422     		movs	r2, #20
 3512 0038 0021     		movs	r1, #0
 3513 003a 05A8     		add	r0, sp, #20
 3514 003c FFF7FEFF 		bl	memset
 3515              	.LVL418:
1501:Generated_Source\PSoC6\pdl\drivers\peripheral\sysclk/cy_sysclk.c **** 
1502:Generated_Source\PSoC6\pdl\drivers\peripheral\sysclk/cy_sysclk.c ****     /* variables holding intermediate clock sources and dividers */
1503:Generated_Source\PSoC6\pdl\drivers\peripheral\sysclk/cy_sysclk.c ****     cy_en_fll_pll_output_mode_t mode = CY_SYSCLK_FLLPLL_OUTPUT_AUTO; /* FLL or PLL mode; n/a for di
1504:Generated_Source\PSoC6\pdl\drivers\peripheral\sysclk/cy_sysclk.c ****     bool                     locked = 0;      /* FLL or PLL lock status; n/a for direct */
1505:Generated_Source\PSoC6\pdl\drivers\peripheral\sysclk/cy_sysclk.c ****     cy_en_clkpath_in_sources_t  source;       /* source input for path (FLL, PLL, or direct) */
1506:Generated_Source\PSoC6\pdl\drivers\peripheral\sysclk/cy_sysclk.c ****     uint32_t                 source_freq;     /* source clock frequency, in Hz */
1507:Generated_Source\PSoC6\pdl\drivers\peripheral\sysclk/cy_sysclk.c ****     cy_en_clkhf_in_sources_t path;            /* source input for root 0 (clkHf[0]) */
1508:Generated_Source\PSoC6\pdl\drivers\peripheral\sysclk/cy_sysclk.c ****     uint32_t                 path_freq = 0ul; /* path (FLL, PLL, or direct) frequency, in Hz */
1509:Generated_Source\PSoC6\pdl\drivers\peripheral\sysclk/cy_sysclk.c ****     uint32_t                 root_div;        /* root prescaler (1/2/4/8) */
1510:Generated_Source\PSoC6\pdl\drivers\peripheral\sysclk/cy_sysclk.c ****     uint32_t                 clkHf0_div;      /* clkHf[0] predivider to clk_peri */
1511:Generated_Source\PSoC6\pdl\drivers\peripheral\sysclk/cy_sysclk.c **** 
1512:Generated_Source\PSoC6\pdl\drivers\peripheral\sysclk/cy_sysclk.c ****     /* clk_peri divider to selected peripheral clock */
1513:Generated_Source\PSoC6\pdl\drivers\peripheral\sysclk/cy_sysclk.c ****     struct
1514:Generated_Source\PSoC6\pdl\drivers\peripheral\sysclk/cy_sysclk.c ****     {
1515:Generated_Source\PSoC6\pdl\drivers\peripheral\sysclk/cy_sysclk.c ****         uint32_t integer;
1516:Generated_Source\PSoC6\pdl\drivers\peripheral\sysclk/cy_sysclk.c ****         uint32_t frac;
1517:Generated_Source\PSoC6\pdl\drivers\peripheral\sysclk/cy_sysclk.c ****     } clkdiv = {0ul, 0ul};
 3516              		.loc 1 1517 0
 3517 0040 0023     		movs	r3, #0
 3518 0042 0393     		str	r3, [sp, #12]
 3519 0044 0493     		str	r3, [sp, #16]
 3520              	.LVL419:
 3521              	.LBB78:
 3522              	.LBB79:
1097:Generated_Source\PSoC6\pdl\drivers\peripheral\sysclk/cy_sysclk.h **** }
1098:Generated_Source\PSoC6\pdl\drivers\peripheral\sysclk/cy_sysclk.h **** /** \} group_sysclk_pilo_funcs */
1099:Generated_Source\PSoC6\pdl\drivers\peripheral\sysclk/cy_sysclk.h **** 
1100:Generated_Source\PSoC6\pdl\drivers\peripheral\sysclk/cy_sysclk.h **** 
1101:Generated_Source\PSoC6\pdl\drivers\peripheral\sysclk/cy_sysclk.h **** /* ========================================================================== */
1102:Generated_Source\PSoC6\pdl\drivers\peripheral\sysclk/cy_sysclk.h **** /* ====================    CLOCK MEASUREMENT SECTION    ===================== */
1103:Generated_Source\PSoC6\pdl\drivers\peripheral\sysclk/cy_sysclk.h **** /* ========================================================================== */
1104:Generated_Source\PSoC6\pdl\drivers\peripheral\sysclk/cy_sysclk.h **** /**
1105:Generated_Source\PSoC6\pdl\drivers\peripheral\sysclk/cy_sysclk.h **** * \addtogroup group_sysclk_calclk_enums
ARM GAS  C:\Users\kiwamu\AppData\Local\Temp\ccIx7zyv.s 			page 112


1106:Generated_Source\PSoC6\pdl\drivers\peripheral\sysclk/cy_sysclk.h **** * \{
1107:Generated_Source\PSoC6\pdl\drivers\peripheral\sysclk/cy_sysclk.h **** */
1108:Generated_Source\PSoC6\pdl\drivers\peripheral\sysclk/cy_sysclk.h **** /** Defines all possible clock sources. */
1109:Generated_Source\PSoC6\pdl\drivers\peripheral\sysclk/cy_sysclk.h **** typedef enum
1110:Generated_Source\PSoC6\pdl\drivers\peripheral\sysclk/cy_sysclk.h **** {
1111:Generated_Source\PSoC6\pdl\drivers\peripheral\sysclk/cy_sysclk.h ****     CY_SYSCLK_MEAS_CLK_ILO =           1u,
1112:Generated_Source\PSoC6\pdl\drivers\peripheral\sysclk/cy_sysclk.h ****     CY_SYSCLK_MEAS_CLK_WCO =           2u,
1113:Generated_Source\PSoC6\pdl\drivers\peripheral\sysclk/cy_sysclk.h ****     CY_SYSCLK_MEAS_CLK_BAK =           3u,
1114:Generated_Source\PSoC6\pdl\drivers\peripheral\sysclk/cy_sysclk.h ****     CY_SYSCLK_MEAS_CLK_ALTLF =         4u,
1115:Generated_Source\PSoC6\pdl\drivers\peripheral\sysclk/cy_sysclk.h ****     CY_SYSCLK_MEAS_CLK_LFCLK =         5u,
1116:Generated_Source\PSoC6\pdl\drivers\peripheral\sysclk/cy_sysclk.h ****     CY_SYSCLK_MEAS_CLK_IMO =           6u,
1117:Generated_Source\PSoC6\pdl\drivers\peripheral\sysclk/cy_sysclk.h ****     CY_SYSCLK_MEAS_CLK_PILO =          8u,
1118:Generated_Source\PSoC6\pdl\drivers\peripheral\sysclk/cy_sysclk.h ****     CY_SYSCLK_MEAS_CLK_FAST_CLKS =     0x100u,
1119:Generated_Source\PSoC6\pdl\drivers\peripheral\sysclk/cy_sysclk.h ****     CY_SYSCLK_MEAS_CLK_ECO =           0x101u,
1120:Generated_Source\PSoC6\pdl\drivers\peripheral\sysclk/cy_sysclk.h ****     CY_SYSCLK_MEAS_CLK_EXT =           0x102u,
1121:Generated_Source\PSoC6\pdl\drivers\peripheral\sysclk/cy_sysclk.h ****     CY_SYSCLK_MEAS_CLK_ALTHF =         0x103u,
1122:Generated_Source\PSoC6\pdl\drivers\peripheral\sysclk/cy_sysclk.h ****     CY_SYSCLK_MEAS_CLK_PATH_CLKS =     0x500u,
1123:Generated_Source\PSoC6\pdl\drivers\peripheral\sysclk/cy_sysclk.h ****     CY_SYSCLK_MEAS_CLK_PATH0 =         0x500u,
1124:Generated_Source\PSoC6\pdl\drivers\peripheral\sysclk/cy_sysclk.h ****     CY_SYSCLK_MEAS_CLK_PATH1 =         0x501u,
1125:Generated_Source\PSoC6\pdl\drivers\peripheral\sysclk/cy_sysclk.h ****     CY_SYSCLK_MEAS_CLK_PATH2 =         0x502u,
1126:Generated_Source\PSoC6\pdl\drivers\peripheral\sysclk/cy_sysclk.h ****     CY_SYSCLK_MEAS_CLK_PATH3 =         0x503u,
1127:Generated_Source\PSoC6\pdl\drivers\peripheral\sysclk/cy_sysclk.h ****     CY_SYSCLK_MEAS_CLK_PATH4 =         0x504u,
1128:Generated_Source\PSoC6\pdl\drivers\peripheral\sysclk/cy_sysclk.h ****     CY_SYSCLK_MEAS_CLK_PATH5 =         0x505u,
1129:Generated_Source\PSoC6\pdl\drivers\peripheral\sysclk/cy_sysclk.h ****     CY_SYSCLK_MEAS_CLK_PATH6 =         0x506u,
1130:Generated_Source\PSoC6\pdl\drivers\peripheral\sysclk/cy_sysclk.h ****     CY_SYSCLK_MEAS_CLK_PATH7 =         0x507u,
1131:Generated_Source\PSoC6\pdl\drivers\peripheral\sysclk/cy_sysclk.h ****     CY_SYSCLK_MEAS_CLK_PATH8 =         0x508u,
1132:Generated_Source\PSoC6\pdl\drivers\peripheral\sysclk/cy_sysclk.h ****     CY_SYSCLK_MEAS_CLK_PATH9 =         0x509u,
1133:Generated_Source\PSoC6\pdl\drivers\peripheral\sysclk/cy_sysclk.h ****     CY_SYSCLK_MEAS_CLK_PATH10 =        0x50Au,
1134:Generated_Source\PSoC6\pdl\drivers\peripheral\sysclk/cy_sysclk.h ****     CY_SYSCLK_MEAS_CLK_PATH11 =        0x50Bu,
1135:Generated_Source\PSoC6\pdl\drivers\peripheral\sysclk/cy_sysclk.h ****     CY_SYSCLK_MEAS_CLK_PATH12 =        0x50Cu,
1136:Generated_Source\PSoC6\pdl\drivers\peripheral\sysclk/cy_sysclk.h ****     CY_SYSCLK_MEAS_CLK_PATH13 =        0x50Du,
1137:Generated_Source\PSoC6\pdl\drivers\peripheral\sysclk/cy_sysclk.h ****     CY_SYSCLK_MEAS_CLK_PATH14 =        0x50Eu,
1138:Generated_Source\PSoC6\pdl\drivers\peripheral\sysclk/cy_sysclk.h ****     CY_SYSCLK_MEAS_CLK_PATH15 =        0x50Fu,
1139:Generated_Source\PSoC6\pdl\drivers\peripheral\sysclk/cy_sysclk.h ****     CY_SYSCLK_MEAS_CLK_CLKHFS =        0x600u,
1140:Generated_Source\PSoC6\pdl\drivers\peripheral\sysclk/cy_sysclk.h ****     CY_SYSCLK_MEAS_CLK_CLKHF0 =        0x600u,
1141:Generated_Source\PSoC6\pdl\drivers\peripheral\sysclk/cy_sysclk.h ****     CY_SYSCLK_MEAS_CLK_CLKHF1 =        0x601u,
1142:Generated_Source\PSoC6\pdl\drivers\peripheral\sysclk/cy_sysclk.h ****     CY_SYSCLK_MEAS_CLK_CLKHF2 =        0x602u,
1143:Generated_Source\PSoC6\pdl\drivers\peripheral\sysclk/cy_sysclk.h ****     CY_SYSCLK_MEAS_CLK_CLKHF3 =        0x603u,
1144:Generated_Source\PSoC6\pdl\drivers\peripheral\sysclk/cy_sysclk.h ****     CY_SYSCLK_MEAS_CLK_CLKHF4 =        0x604u,
1145:Generated_Source\PSoC6\pdl\drivers\peripheral\sysclk/cy_sysclk.h ****     CY_SYSCLK_MEAS_CLK_CLKHF5 =        0x605u,
1146:Generated_Source\PSoC6\pdl\drivers\peripheral\sysclk/cy_sysclk.h ****     CY_SYSCLK_MEAS_CLK_CLKHF6 =        0x606u,
1147:Generated_Source\PSoC6\pdl\drivers\peripheral\sysclk/cy_sysclk.h ****     CY_SYSCLK_MEAS_CLK_CLKHF7 =        0x607u,
1148:Generated_Source\PSoC6\pdl\drivers\peripheral\sysclk/cy_sysclk.h ****     CY_SYSCLK_MEAS_CLK_CLKHF8 =        0x608u,
1149:Generated_Source\PSoC6\pdl\drivers\peripheral\sysclk/cy_sysclk.h ****     CY_SYSCLK_MEAS_CLK_CLKHF9 =        0x609u,
1150:Generated_Source\PSoC6\pdl\drivers\peripheral\sysclk/cy_sysclk.h ****     CY_SYSCLK_MEAS_CLK_CLKHF10 =       0x60Au,
1151:Generated_Source\PSoC6\pdl\drivers\peripheral\sysclk/cy_sysclk.h ****     CY_SYSCLK_MEAS_CLK_CLKHF11 =       0x60Bu,
1152:Generated_Source\PSoC6\pdl\drivers\peripheral\sysclk/cy_sysclk.h ****     CY_SYSCLK_MEAS_CLK_CLKHF12 =       0x60Cu,
1153:Generated_Source\PSoC6\pdl\drivers\peripheral\sysclk/cy_sysclk.h ****     CY_SYSCLK_MEAS_CLK_CLKHF13 =       0x60Du,
1154:Generated_Source\PSoC6\pdl\drivers\peripheral\sysclk/cy_sysclk.h ****     CY_SYSCLK_MEAS_CLK_CLKHF14 =       0x60Eu,
1155:Generated_Source\PSoC6\pdl\drivers\peripheral\sysclk/cy_sysclk.h ****     CY_SYSCLK_MEAS_CLK_CLKHF15 =       0x60Fu,
1156:Generated_Source\PSoC6\pdl\drivers\peripheral\sysclk/cy_sysclk.h ****     CY_SYSCLK_MEAS_CLK_LAST_CLK =      0x610u
1157:Generated_Source\PSoC6\pdl\drivers\peripheral\sysclk/cy_sysclk.h **** } cy_en_meas_clks_t;
1158:Generated_Source\PSoC6\pdl\drivers\peripheral\sysclk/cy_sysclk.h **** /** \} group_sysclk_calclk_enums */
1159:Generated_Source\PSoC6\pdl\drivers\peripheral\sysclk/cy_sysclk.h **** 
1160:Generated_Source\PSoC6\pdl\drivers\peripheral\sysclk/cy_sysclk.h **** /**
1161:Generated_Source\PSoC6\pdl\drivers\peripheral\sysclk/cy_sysclk.h **** * \addtogroup group_sysclk_calclk_funcs
1162:Generated_Source\PSoC6\pdl\drivers\peripheral\sysclk/cy_sysclk.h **** * \{
ARM GAS  C:\Users\kiwamu\AppData\Local\Temp\ccIx7zyv.s 			page 113


1163:Generated_Source\PSoC6\pdl\drivers\peripheral\sysclk/cy_sysclk.h **** */
1164:Generated_Source\PSoC6\pdl\drivers\peripheral\sysclk/cy_sysclk.h **** cy_en_sysclk_status_t Cy_SysClk_StartClkMeasurementCounters(cy_en_meas_clks_t clock1, uint32_t coun
1165:Generated_Source\PSoC6\pdl\drivers\peripheral\sysclk/cy_sysclk.h **** __STATIC_INLINE bool Cy_SysClk_ClkMeasurementCountersDone(void);
1166:Generated_Source\PSoC6\pdl\drivers\peripheral\sysclk/cy_sysclk.h **** uint32_t Cy_SysClk_ClkMeasurementCountersGetFreq(bool measuredClock, uint32_t refClkFreq);
1167:Generated_Source\PSoC6\pdl\drivers\peripheral\sysclk/cy_sysclk.h **** 
1168:Generated_Source\PSoC6\pdl\drivers\peripheral\sysclk/cy_sysclk.h **** /*******************************************************************************
1169:Generated_Source\PSoC6\pdl\drivers\peripheral\sysclk/cy_sysclk.h **** * Function Name: Cy_SysClk_ClkMeasurementCountersDone
1170:Generated_Source\PSoC6\pdl\drivers\peripheral\sysclk/cy_sysclk.h **** ****************************************************************************//**
1171:Generated_Source\PSoC6\pdl\drivers\peripheral\sysclk/cy_sysclk.h **** *
1172:Generated_Source\PSoC6\pdl\drivers\peripheral\sysclk/cy_sysclk.h **** * Checks if clock measurement counting is done, that is, counter1 has counted down
1173:Generated_Source\PSoC6\pdl\drivers\peripheral\sysclk/cy_sysclk.h **** * to zero. Call \ref Cy_SysClk_StartClkMeasurementCounters() before calling this function.
1174:Generated_Source\PSoC6\pdl\drivers\peripheral\sysclk/cy_sysclk.h **** *
1175:Generated_Source\PSoC6\pdl\drivers\peripheral\sysclk/cy_sysclk.h **** * \return Status of calibration counters: true if done, false if not.
1176:Generated_Source\PSoC6\pdl\drivers\peripheral\sysclk/cy_sysclk.h **** *
1177:Generated_Source\PSoC6\pdl\drivers\peripheral\sysclk/cy_sysclk.h **** *******************************************************************************/
1178:Generated_Source\PSoC6\pdl\drivers\peripheral\sysclk/cy_sysclk.h **** __STATIC_INLINE bool Cy_SysClk_ClkMeasurementCountersDone(void)
1179:Generated_Source\PSoC6\pdl\drivers\peripheral\sysclk/cy_sysclk.h **** {
1180:Generated_Source\PSoC6\pdl\drivers\peripheral\sysclk/cy_sysclk.h ****     return (_FLD2VAL(SRSS_CLK_CAL_CNT1_CAL_COUNTER_DONE, SRSS->CLK_CAL_CNT1)); /* 1 = done */
1181:Generated_Source\PSoC6\pdl\drivers\peripheral\sysclk/cy_sysclk.h **** }
1182:Generated_Source\PSoC6\pdl\drivers\peripheral\sysclk/cy_sysclk.h **** /** \} group_sysclk_calclk_funcs */
1183:Generated_Source\PSoC6\pdl\drivers\peripheral\sysclk/cy_sysclk.h **** 
1184:Generated_Source\PSoC6\pdl\drivers\peripheral\sysclk/cy_sysclk.h **** 
1185:Generated_Source\PSoC6\pdl\drivers\peripheral\sysclk/cy_sysclk.h **** /* ========================================================================== */
1186:Generated_Source\PSoC6\pdl\drivers\peripheral\sysclk/cy_sysclk.h **** /* ==========================    TRIM SECTION    ============================ */
1187:Generated_Source\PSoC6\pdl\drivers\peripheral\sysclk/cy_sysclk.h **** /* ========================================================================== */
1188:Generated_Source\PSoC6\pdl\drivers\peripheral\sysclk/cy_sysclk.h **** /**
1189:Generated_Source\PSoC6\pdl\drivers\peripheral\sysclk/cy_sysclk.h **** * \addtogroup group_sysclk_trim_funcs
1190:Generated_Source\PSoC6\pdl\drivers\peripheral\sysclk/cy_sysclk.h **** * \{
1191:Generated_Source\PSoC6\pdl\drivers\peripheral\sysclk/cy_sysclk.h **** */
1192:Generated_Source\PSoC6\pdl\drivers\peripheral\sysclk/cy_sysclk.h **** int32_t Cy_SysClk_IloTrim(uint32_t iloFreq);
1193:Generated_Source\PSoC6\pdl\drivers\peripheral\sysclk/cy_sysclk.h **** int32_t Cy_SysClk_PiloTrim(uint32_t piloFreq);
1194:Generated_Source\PSoC6\pdl\drivers\peripheral\sysclk/cy_sysclk.h **** /** \} group_sysclk_trim_funcs */
1195:Generated_Source\PSoC6\pdl\drivers\peripheral\sysclk/cy_sysclk.h **** 
1196:Generated_Source\PSoC6\pdl\drivers\peripheral\sysclk/cy_sysclk.h **** 
1197:Generated_Source\PSoC6\pdl\drivers\peripheral\sysclk/cy_sysclk.h **** /* ========================================================================== */
1198:Generated_Source\PSoC6\pdl\drivers\peripheral\sysclk/cy_sysclk.h **** /* ======================    POWER MANAGEMENT SECTION    ==================== */
1199:Generated_Source\PSoC6\pdl\drivers\peripheral\sysclk/cy_sysclk.h **** /* ========================================================================== */
1200:Generated_Source\PSoC6\pdl\drivers\peripheral\sysclk/cy_sysclk.h **** /**
1201:Generated_Source\PSoC6\pdl\drivers\peripheral\sysclk/cy_sysclk.h **** * \addtogroup group_sysclk_pm_funcs
1202:Generated_Source\PSoC6\pdl\drivers\peripheral\sysclk/cy_sysclk.h **** * \{
1203:Generated_Source\PSoC6\pdl\drivers\peripheral\sysclk/cy_sysclk.h **** */
1204:Generated_Source\PSoC6\pdl\drivers\peripheral\sysclk/cy_sysclk.h **** cy_en_syspm_status_t Cy_SysClk_DeepSleepCallback(cy_stc_syspm_callback_params_t *callbackParams);
1205:Generated_Source\PSoC6\pdl\drivers\peripheral\sysclk/cy_sysclk.h **** /** \} group_sysclk_pm_funcs */
1206:Generated_Source\PSoC6\pdl\drivers\peripheral\sysclk/cy_sysclk.h **** 
1207:Generated_Source\PSoC6\pdl\drivers\peripheral\sysclk/cy_sysclk.h **** 
1208:Generated_Source\PSoC6\pdl\drivers\peripheral\sysclk/cy_sysclk.h **** /* ========================================================================== */
1209:Generated_Source\PSoC6\pdl\drivers\peripheral\sysclk/cy_sysclk.h **** /* ===========================    WCO SECTION    ============================ */
1210:Generated_Source\PSoC6\pdl\drivers\peripheral\sysclk/cy_sysclk.h **** /* ========================================================================== */
1211:Generated_Source\PSoC6\pdl\drivers\peripheral\sysclk/cy_sysclk.h **** /**
1212:Generated_Source\PSoC6\pdl\drivers\peripheral\sysclk/cy_sysclk.h **** * \addtogroup group_sysclk_wco_enums
1213:Generated_Source\PSoC6\pdl\drivers\peripheral\sysclk/cy_sysclk.h **** * \{
1214:Generated_Source\PSoC6\pdl\drivers\peripheral\sysclk/cy_sysclk.h **** */
1215:Generated_Source\PSoC6\pdl\drivers\peripheral\sysclk/cy_sysclk.h **** /** WCO bypass modes */
1216:Generated_Source\PSoC6\pdl\drivers\peripheral\sysclk/cy_sysclk.h **** typedef enum
1217:Generated_Source\PSoC6\pdl\drivers\peripheral\sysclk/cy_sysclk.h **** {
1218:Generated_Source\PSoC6\pdl\drivers\peripheral\sysclk/cy_sysclk.h ****     CY_SYSCLK_WCO_NOT_BYPASSED = 0u, /**< WCO is not bypassed crystal is used */
1219:Generated_Source\PSoC6\pdl\drivers\peripheral\sysclk/cy_sysclk.h ****     CY_SYSCLK_WCO_BYPASSED = 1u      /**< WCO is bypassed external clock must be supplied  on XTAL 
ARM GAS  C:\Users\kiwamu\AppData\Local\Temp\ccIx7zyv.s 			page 114


1220:Generated_Source\PSoC6\pdl\drivers\peripheral\sysclk/cy_sysclk.h **** } cy_en_wco_bypass_modes_t;
1221:Generated_Source\PSoC6\pdl\drivers\peripheral\sysclk/cy_sysclk.h **** 
1222:Generated_Source\PSoC6\pdl\drivers\peripheral\sysclk/cy_sysclk.h **** /** WCO CSV supervisor clock selections */
1223:Generated_Source\PSoC6\pdl\drivers\peripheral\sysclk/cy_sysclk.h **** typedef enum
1224:Generated_Source\PSoC6\pdl\drivers\peripheral\sysclk/cy_sysclk.h **** {
1225:Generated_Source\PSoC6\pdl\drivers\peripheral\sysclk/cy_sysclk.h ****     CY_SYSCLK_WCO_CSV_SUPERVISOR_ILO,   /**< WCO CSV supervisor clock source is the ILO */
1226:Generated_Source\PSoC6\pdl\drivers\peripheral\sysclk/cy_sysclk.h ****     CY_SYSCLK_WCO_CSV_SUPERVISOR_ALTLF, /**< WCO CSV supervisor clock source is the alternate low-f
1227:Generated_Source\PSoC6\pdl\drivers\peripheral\sysclk/cy_sysclk.h ****     CY_SYSCLK_WCO_CSV_SUPERVISOR_PILO   /**< WCO CSV supervisor clock source is the PILO */
1228:Generated_Source\PSoC6\pdl\drivers\peripheral\sysclk/cy_sysclk.h **** } cy_en_wco_csv_supervisor_clock_t;
1229:Generated_Source\PSoC6\pdl\drivers\peripheral\sysclk/cy_sysclk.h **** 
1230:Generated_Source\PSoC6\pdl\drivers\peripheral\sysclk/cy_sysclk.h **** /**
1231:Generated_Source\PSoC6\pdl\drivers\peripheral\sysclk/cy_sysclk.h **** * Clock supervisor clock loss window. There must be one clock of the supervised
1232:Generated_Source\PSoC6\pdl\drivers\peripheral\sysclk/cy_sysclk.h **** * clock within this many clocks of the supervising clock.
1233:Generated_Source\PSoC6\pdl\drivers\peripheral\sysclk/cy_sysclk.h **** * See registers CLK_CSV_HF_CTL and CLK_CSV_WCO_CTL, bitfield CSV_LOSS_WINDOW.
1234:Generated_Source\PSoC6\pdl\drivers\peripheral\sysclk/cy_sysclk.h **** */
1235:Generated_Source\PSoC6\pdl\drivers\peripheral\sysclk/cy_sysclk.h **** typedef enum
1236:Generated_Source\PSoC6\pdl\drivers\peripheral\sysclk/cy_sysclk.h **** {
1237:Generated_Source\PSoC6\pdl\drivers\peripheral\sysclk/cy_sysclk.h ****     CY_SYSCLK_CSV_LOSS_4_CYCLES =   0u, /**< 1 clock must be seen within 4 cycles of the supervisin
1238:Generated_Source\PSoC6\pdl\drivers\peripheral\sysclk/cy_sysclk.h ****     CY_SYSCLK_CSV_LOSS_8_CYCLES =   1u, /**< 1 clock must be seen within 8 cycles of the supervisin
1239:Generated_Source\PSoC6\pdl\drivers\peripheral\sysclk/cy_sysclk.h ****     CY_SYSCLK_CSV_LOSS_16_CYCLES =  2u, /**< 1 clock must be seen within 16 cycles of the supervisi
1240:Generated_Source\PSoC6\pdl\drivers\peripheral\sysclk/cy_sysclk.h ****     CY_SYSCLK_CSV_LOSS_32_CYCLES =  3u, /**< 1 clock must be seen within 32 cycles of the supervisi
1241:Generated_Source\PSoC6\pdl\drivers\peripheral\sysclk/cy_sysclk.h ****     CY_SYSCLK_CSV_LOSS_64_CYCLES =  4u, /**< 1 clock must be seen within 64 cycles of the supervisi
1242:Generated_Source\PSoC6\pdl\drivers\peripheral\sysclk/cy_sysclk.h ****     CY_SYSCLK_CSV_LOSS_128_CYCLES = 5u, /**< 1 clock must be seen within 128 cycles of the supervis
1243:Generated_Source\PSoC6\pdl\drivers\peripheral\sysclk/cy_sysclk.h ****     CY_SYSCLK_CSV_LOSS_256_CYCLES = 6u, /**< 1 clock must be seen within 256 cycles of the supervis
1244:Generated_Source\PSoC6\pdl\drivers\peripheral\sysclk/cy_sysclk.h ****     CY_SYSCLK_CSV_LOSS_512_CYCLES = 7u  /**< 1 clock must be seen within 512 cycles of the supervis
1245:Generated_Source\PSoC6\pdl\drivers\peripheral\sysclk/cy_sysclk.h **** } cy_en_csv_loss_window_t;
1246:Generated_Source\PSoC6\pdl\drivers\peripheral\sysclk/cy_sysclk.h **** 
1247:Generated_Source\PSoC6\pdl\drivers\peripheral\sysclk/cy_sysclk.h **** /**
1248:Generated_Source\PSoC6\pdl\drivers\peripheral\sysclk/cy_sysclk.h **** * Clock supervisor error actions. See register CLK_CSV_HF_CTL[CSV_FREQ_ACTION and CSV_LOSS_ACTION].
1249:Generated_Source\PSoC6\pdl\drivers\peripheral\sysclk/cy_sysclk.h **** */
1250:Generated_Source\PSoC6\pdl\drivers\peripheral\sysclk/cy_sysclk.h **** typedef enum
1251:Generated_Source\PSoC6\pdl\drivers\peripheral\sysclk/cy_sysclk.h **** {
1252:Generated_Source\PSoC6\pdl\drivers\peripheral\sysclk/cy_sysclk.h ****     CY_SYSCLK_CSV_ERROR_IGNORE = 0u,     /**< Ignore the error reported by the clock supervisor. */
1253:Generated_Source\PSoC6\pdl\drivers\peripheral\sysclk/cy_sysclk.h ****     CY_SYSCLK_CSV_ERROR_FAULT = 1u,      /**< Trigger a fault when an error is reported by the cloc
1254:Generated_Source\PSoC6\pdl\drivers\peripheral\sysclk/cy_sysclk.h ****     CY_SYSCLK_CSV_ERROR_RESET = 2u,      /**< Trigger a reset when an error is reported by the cloc
1255:Generated_Source\PSoC6\pdl\drivers\peripheral\sysclk/cy_sysclk.h ****     CY_SYSCLK_CSV_ERROR_FAULT_RESET = 3u /**< Trigger a fault then reset when an error is reported 
1256:Generated_Source\PSoC6\pdl\drivers\peripheral\sysclk/cy_sysclk.h **** } cy_en_csv_error_actions_t;
1257:Generated_Source\PSoC6\pdl\drivers\peripheral\sysclk/cy_sysclk.h **** /** \} group_sysclk_wco_enums */
1258:Generated_Source\PSoC6\pdl\drivers\peripheral\sysclk/cy_sysclk.h **** 
1259:Generated_Source\PSoC6\pdl\drivers\peripheral\sysclk/cy_sysclk.h **** /**
1260:Generated_Source\PSoC6\pdl\drivers\peripheral\sysclk/cy_sysclk.h **** * \addtogroup group_sysclk_wco_structs
1261:Generated_Source\PSoC6\pdl\drivers\peripheral\sysclk/cy_sysclk.h **** * \{
1262:Generated_Source\PSoC6\pdl\drivers\peripheral\sysclk/cy_sysclk.h **** */
1263:Generated_Source\PSoC6\pdl\drivers\peripheral\sysclk/cy_sysclk.h **** /**
1264:Generated_Source\PSoC6\pdl\drivers\peripheral\sysclk/cy_sysclk.h **** * This structure is used to configure the clock supervisor for the WCO.
1265:Generated_Source\PSoC6\pdl\drivers\peripheral\sysclk/cy_sysclk.h **** */
1266:Generated_Source\PSoC6\pdl\drivers\peripheral\sysclk/cy_sysclk.h **** typedef struct
1267:Generated_Source\PSoC6\pdl\drivers\peripheral\sysclk/cy_sysclk.h **** {
1268:Generated_Source\PSoC6\pdl\drivers\peripheral\sysclk/cy_sysclk.h ****     cy_en_wco_csv_supervisor_clock_t SupervisorClock; /**< supervisor clock selection */
1269:Generated_Source\PSoC6\pdl\drivers\peripheral\sysclk/cy_sysclk.h ****     bool enableLossDetection;                         /**< 1= enabled, 0= disabled. Note that if lo
1270:Generated_Source\PSoC6\pdl\drivers\peripheral\sysclk/cy_sysclk.h ****     cy_en_csv_loss_window_t LossWindow;               /**< \ref cy_en_csv_loss_window_t */
1271:Generated_Source\PSoC6\pdl\drivers\peripheral\sysclk/cy_sysclk.h ****     cy_en_csv_error_actions_t LossAction;             /**< \ref cy_en_csv_error_actions_t */
1272:Generated_Source\PSoC6\pdl\drivers\peripheral\sysclk/cy_sysclk.h **** } cy_stc_wco_csv_config_t;
1273:Generated_Source\PSoC6\pdl\drivers\peripheral\sysclk/cy_sysclk.h **** /** \} group_sysclk_wco_structs */
1274:Generated_Source\PSoC6\pdl\drivers\peripheral\sysclk/cy_sysclk.h **** 
1275:Generated_Source\PSoC6\pdl\drivers\peripheral\sysclk/cy_sysclk.h **** /**
1276:Generated_Source\PSoC6\pdl\drivers\peripheral\sysclk/cy_sysclk.h **** * \addtogroup group_sysclk_wco_funcs
ARM GAS  C:\Users\kiwamu\AppData\Local\Temp\ccIx7zyv.s 			page 115


1277:Generated_Source\PSoC6\pdl\drivers\peripheral\sysclk/cy_sysclk.h **** * \{
1278:Generated_Source\PSoC6\pdl\drivers\peripheral\sysclk/cy_sysclk.h **** */
1279:Generated_Source\PSoC6\pdl\drivers\peripheral\sysclk/cy_sysclk.h **** __STATIC_INLINE cy_en_sysclk_status_t Cy_SysClk_WcoEnable(uint32_t timeoutus);
1280:Generated_Source\PSoC6\pdl\drivers\peripheral\sysclk/cy_sysclk.h **** __STATIC_INLINE bool Cy_SysClk_WcoOkay(void);
1281:Generated_Source\PSoC6\pdl\drivers\peripheral\sysclk/cy_sysclk.h **** __STATIC_INLINE void Cy_SysClk_WcoDisable(void);
1282:Generated_Source\PSoC6\pdl\drivers\peripheral\sysclk/cy_sysclk.h **** __STATIC_INLINE void Cy_SysClk_WcoBypass(cy_en_wco_bypass_modes_t bypass);
1283:Generated_Source\PSoC6\pdl\drivers\peripheral\sysclk/cy_sysclk.h **** #if (SRSS_WCOCSV_PRESENT != 0) || defined(CY_DOXYGEN)
1284:Generated_Source\PSoC6\pdl\drivers\peripheral\sysclk/cy_sysclk.h ****     void Cy_SysClk_WcoConfigureCsv(const cy_stc_wco_csv_config_t *config);
1285:Generated_Source\PSoC6\pdl\drivers\peripheral\sysclk/cy_sysclk.h **** #endif /* (SRSS_WCOCSV_PRESENT != 0) || defined(CY_DOXYGEN) */
1286:Generated_Source\PSoC6\pdl\drivers\peripheral\sysclk/cy_sysclk.h **** 
1287:Generated_Source\PSoC6\pdl\drivers\peripheral\sysclk/cy_sysclk.h **** 
1288:Generated_Source\PSoC6\pdl\drivers\peripheral\sysclk/cy_sysclk.h **** /*******************************************************************************
1289:Generated_Source\PSoC6\pdl\drivers\peripheral\sysclk/cy_sysclk.h **** * Function Name: Cy_SysClk_WcoEnable
1290:Generated_Source\PSoC6\pdl\drivers\peripheral\sysclk/cy_sysclk.h **** ****************************************************************************//**
1291:Generated_Source\PSoC6\pdl\drivers\peripheral\sysclk/cy_sysclk.h **** *
1292:Generated_Source\PSoC6\pdl\drivers\peripheral\sysclk/cy_sysclk.h **** * Enables the WCO.
1293:Generated_Source\PSoC6\pdl\drivers\peripheral\sysclk/cy_sysclk.h **** *
1294:Generated_Source\PSoC6\pdl\drivers\peripheral\sysclk/cy_sysclk.h **** * \param timeoutus amount of time in microseconds to wait for the WCO to be ready.
1295:Generated_Source\PSoC6\pdl\drivers\peripheral\sysclk/cy_sysclk.h **** * If WCO is not ready, WCO is stopped. To avoid waiting for WCO ready set this to 0,
1296:Generated_Source\PSoC6\pdl\drivers\peripheral\sysclk/cy_sysclk.h **** * and manually check if WCO is okay using \ref Cy_SysClk_WcoOkay.
1297:Generated_Source\PSoC6\pdl\drivers\peripheral\sysclk/cy_sysclk.h **** *
1298:Generated_Source\PSoC6\pdl\drivers\peripheral\sysclk/cy_sysclk.h **** * \return Error / status code:<br>
1299:Generated_Source\PSoC6\pdl\drivers\peripheral\sysclk/cy_sysclk.h **** * CY_SYSCLK_SUCCESS - WCO successfully enabled<br>
1300:Generated_Source\PSoC6\pdl\drivers\peripheral\sysclk/cy_sysclk.h **** * CY_SYSCLK_TIMEOUT - Timeout waiting for WCO to stabilize
1301:Generated_Source\PSoC6\pdl\drivers\peripheral\sysclk/cy_sysclk.h **** *
1302:Generated_Source\PSoC6\pdl\drivers\peripheral\sysclk/cy_sysclk.h **** *******************************************************************************/
1303:Generated_Source\PSoC6\pdl\drivers\peripheral\sysclk/cy_sysclk.h **** __STATIC_INLINE cy_en_sysclk_status_t Cy_SysClk_WcoEnable(uint32_t timeoutus)
1304:Generated_Source\PSoC6\pdl\drivers\peripheral\sysclk/cy_sysclk.h **** {
1305:Generated_Source\PSoC6\pdl\drivers\peripheral\sysclk/cy_sysclk.h ****     cy_en_sysclk_status_t rtnval = CY_SYSCLK_TIMEOUT;
1306:Generated_Source\PSoC6\pdl\drivers\peripheral\sysclk/cy_sysclk.h **** 
1307:Generated_Source\PSoC6\pdl\drivers\peripheral\sysclk/cy_sysclk.h ****     /* first set the WCO enable bit */
1308:Generated_Source\PSoC6\pdl\drivers\peripheral\sysclk/cy_sysclk.h ****     BACKUP->CTL |= _VAL2FLD(BACKUP_CTL_WCO_EN, 1u); /* 1 = enable */
1309:Generated_Source\PSoC6\pdl\drivers\peripheral\sysclk/cy_sysclk.h **** 
1310:Generated_Source\PSoC6\pdl\drivers\peripheral\sysclk/cy_sysclk.h ****     /* now do the timeout wait for STATUS, bit WCO_OK */
1311:Generated_Source\PSoC6\pdl\drivers\peripheral\sysclk/cy_sysclk.h ****     for (; (Cy_SysClk_WcoOkay() == false) && (timeoutus != 0ul); timeoutus--)
1312:Generated_Source\PSoC6\pdl\drivers\peripheral\sysclk/cy_sysclk.h ****     {
1313:Generated_Source\PSoC6\pdl\drivers\peripheral\sysclk/cy_sysclk.h ****         Cy_SysLib_DelayUs(1u);
1314:Generated_Source\PSoC6\pdl\drivers\peripheral\sysclk/cy_sysclk.h ****     }
1315:Generated_Source\PSoC6\pdl\drivers\peripheral\sysclk/cy_sysclk.h ****     if (timeoutus != 0ul)
1316:Generated_Source\PSoC6\pdl\drivers\peripheral\sysclk/cy_sysclk.h ****     {
1317:Generated_Source\PSoC6\pdl\drivers\peripheral\sysclk/cy_sysclk.h ****         rtnval = CY_SYSCLK_SUCCESS;
1318:Generated_Source\PSoC6\pdl\drivers\peripheral\sysclk/cy_sysclk.h ****     }
1319:Generated_Source\PSoC6\pdl\drivers\peripheral\sysclk/cy_sysclk.h **** 
1320:Generated_Source\PSoC6\pdl\drivers\peripheral\sysclk/cy_sysclk.h ****     return (rtnval);
1321:Generated_Source\PSoC6\pdl\drivers\peripheral\sysclk/cy_sysclk.h **** }
1322:Generated_Source\PSoC6\pdl\drivers\peripheral\sysclk/cy_sysclk.h **** 
1323:Generated_Source\PSoC6\pdl\drivers\peripheral\sysclk/cy_sysclk.h **** /*******************************************************************************
1324:Generated_Source\PSoC6\pdl\drivers\peripheral\sysclk/cy_sysclk.h **** * Function Name: Cy_SysClk_WcoOkay
1325:Generated_Source\PSoC6\pdl\drivers\peripheral\sysclk/cy_sysclk.h **** ****************************************************************************//**
1326:Generated_Source\PSoC6\pdl\drivers\peripheral\sysclk/cy_sysclk.h **** *
1327:Generated_Source\PSoC6\pdl\drivers\peripheral\sysclk/cy_sysclk.h **** * Reports the status of the WCO_OK bit.
1328:Generated_Source\PSoC6\pdl\drivers\peripheral\sysclk/cy_sysclk.h **** *
1329:Generated_Source\PSoC6\pdl\drivers\peripheral\sysclk/cy_sysclk.h **** * \return true = okay false = not okay
1330:Generated_Source\PSoC6\pdl\drivers\peripheral\sysclk/cy_sysclk.h **** *
1331:Generated_Source\PSoC6\pdl\drivers\peripheral\sysclk/cy_sysclk.h **** *******************************************************************************/
1332:Generated_Source\PSoC6\pdl\drivers\peripheral\sysclk/cy_sysclk.h **** __STATIC_INLINE bool Cy_SysClk_WcoOkay(void)
1333:Generated_Source\PSoC6\pdl\drivers\peripheral\sysclk/cy_sysclk.h **** {
ARM GAS  C:\Users\kiwamu\AppData\Local\Temp\ccIx7zyv.s 			page 116


1334:Generated_Source\PSoC6\pdl\drivers\peripheral\sysclk/cy_sysclk.h ****     return (bool)(_FLD2VAL(BACKUP_STATUS_WCO_OK, BACKUP->STATUS));
1335:Generated_Source\PSoC6\pdl\drivers\peripheral\sysclk/cy_sysclk.h **** }
1336:Generated_Source\PSoC6\pdl\drivers\peripheral\sysclk/cy_sysclk.h **** 
1337:Generated_Source\PSoC6\pdl\drivers\peripheral\sysclk/cy_sysclk.h **** /*******************************************************************************
1338:Generated_Source\PSoC6\pdl\drivers\peripheral\sysclk/cy_sysclk.h **** * Function Name: Cy_SysClk_WcoDisable
1339:Generated_Source\PSoC6\pdl\drivers\peripheral\sysclk/cy_sysclk.h **** ****************************************************************************//**
1340:Generated_Source\PSoC6\pdl\drivers\peripheral\sysclk/cy_sysclk.h **** *
1341:Generated_Source\PSoC6\pdl\drivers\peripheral\sysclk/cy_sysclk.h **** * Disables the WCO.
1342:Generated_Source\PSoC6\pdl\drivers\peripheral\sysclk/cy_sysclk.h **** *
1343:Generated_Source\PSoC6\pdl\drivers\peripheral\sysclk/cy_sysclk.h **** *******************************************************************************/
1344:Generated_Source\PSoC6\pdl\drivers\peripheral\sysclk/cy_sysclk.h **** __STATIC_INLINE void Cy_SysClk_WcoDisable(void)
1345:Generated_Source\PSoC6\pdl\drivers\peripheral\sysclk/cy_sysclk.h **** {
1346:Generated_Source\PSoC6\pdl\drivers\peripheral\sysclk/cy_sysclk.h ****     BACKUP->CTL &= ~_VAL2FLD(BACKUP_CTL_WCO_EN, 1u); /* 0 = disable */
1347:Generated_Source\PSoC6\pdl\drivers\peripheral\sysclk/cy_sysclk.h **** }
1348:Generated_Source\PSoC6\pdl\drivers\peripheral\sysclk/cy_sysclk.h **** 
1349:Generated_Source\PSoC6\pdl\drivers\peripheral\sysclk/cy_sysclk.h **** /*******************************************************************************
1350:Generated_Source\PSoC6\pdl\drivers\peripheral\sysclk/cy_sysclk.h **** * Function Name: Cy_SysClk_WcoBypass
1351:Generated_Source\PSoC6\pdl\drivers\peripheral\sysclk/cy_sysclk.h **** ****************************************************************************//**
1352:Generated_Source\PSoC6\pdl\drivers\peripheral\sysclk/cy_sysclk.h **** *
1353:Generated_Source\PSoC6\pdl\drivers\peripheral\sysclk/cy_sysclk.h **** * Sets whether the WCO is bypassed or not. If it is bypassed then a 32-kHz clock
1354:Generated_Source\PSoC6\pdl\drivers\peripheral\sysclk/cy_sysclk.h **** * must be provided on the wco_in pin.
1355:Generated_Source\PSoC6\pdl\drivers\peripheral\sysclk/cy_sysclk.h **** *
1356:Generated_Source\PSoC6\pdl\drivers\peripheral\sysclk/cy_sysclk.h **** * \param bypass \ref cy_en_wco_bypass_modes_t
1357:Generated_Source\PSoC6\pdl\drivers\peripheral\sysclk/cy_sysclk.h **** *
1358:Generated_Source\PSoC6\pdl\drivers\peripheral\sysclk/cy_sysclk.h **** *******************************************************************************/
1359:Generated_Source\PSoC6\pdl\drivers\peripheral\sysclk/cy_sysclk.h **** __STATIC_INLINE void Cy_SysClk_WcoBypass(cy_en_wco_bypass_modes_t bypass)
1360:Generated_Source\PSoC6\pdl\drivers\peripheral\sysclk/cy_sysclk.h **** {
1361:Generated_Source\PSoC6\pdl\drivers\peripheral\sysclk/cy_sysclk.h ****     CY_SYSCLK_CLR_SET(BACKUP->CTL, BACKUP_CTL_WCO_BYPASS, bypass);
1362:Generated_Source\PSoC6\pdl\drivers\peripheral\sysclk/cy_sysclk.h **** }
1363:Generated_Source\PSoC6\pdl\drivers\peripheral\sysclk/cy_sysclk.h **** /** \} group_sysclk_wco_funcs */
1364:Generated_Source\PSoC6\pdl\drivers\peripheral\sysclk/cy_sysclk.h **** 
1365:Generated_Source\PSoC6\pdl\drivers\peripheral\sysclk/cy_sysclk.h **** 
1366:Generated_Source\PSoC6\pdl\drivers\peripheral\sysclk/cy_sysclk.h **** /* ========================================================================== */
1367:Generated_Source\PSoC6\pdl\drivers\peripheral\sysclk/cy_sysclk.h **** /* =========================    clkHf[n] SECTION    ========================= */
1368:Generated_Source\PSoC6\pdl\drivers\peripheral\sysclk/cy_sysclk.h **** /* ========================================================================== */
1369:Generated_Source\PSoC6\pdl\drivers\peripheral\sysclk/cy_sysclk.h **** /**
1370:Generated_Source\PSoC6\pdl\drivers\peripheral\sysclk/cy_sysclk.h **** * \addtogroup group_sysclk_clk_hf_enums
1371:Generated_Source\PSoC6\pdl\drivers\peripheral\sysclk/cy_sysclk.h **** * \{
1372:Generated_Source\PSoC6\pdl\drivers\peripheral\sysclk/cy_sysclk.h **** */
1373:Generated_Source\PSoC6\pdl\drivers\peripheral\sysclk/cy_sysclk.h **** /**
1374:Generated_Source\PSoC6\pdl\drivers\peripheral\sysclk/cy_sysclk.h **** * Selects which clkHf input, or root mux, to configure.
1375:Generated_Source\PSoC6\pdl\drivers\peripheral\sysclk/cy_sysclk.h **** * See CLK_ROOT_SELECT registers, bits ROOT_MUX.
1376:Generated_Source\PSoC6\pdl\drivers\peripheral\sysclk/cy_sysclk.h **** * Used with functions \ref Cy_SysClk_ClkHfSetSource and \ref Cy_SysClk_ClkHfGetSource.
1377:Generated_Source\PSoC6\pdl\drivers\peripheral\sysclk/cy_sysclk.h **** */
1378:Generated_Source\PSoC6\pdl\drivers\peripheral\sysclk/cy_sysclk.h **** typedef enum
1379:Generated_Source\PSoC6\pdl\drivers\peripheral\sysclk/cy_sysclk.h **** {
1380:Generated_Source\PSoC6\pdl\drivers\peripheral\sysclk/cy_sysclk.h ****     CY_SYSCLK_CLKHF_IN_CLKPATH0  = 0u,  /**< clkHf input is Clock Path 0 */
1381:Generated_Source\PSoC6\pdl\drivers\peripheral\sysclk/cy_sysclk.h ****     CY_SYSCLK_CLKHF_IN_CLKPATH1  = 1u,  /**< clkHf input is Clock Path 1 */
1382:Generated_Source\PSoC6\pdl\drivers\peripheral\sysclk/cy_sysclk.h ****     CY_SYSCLK_CLKHF_IN_CLKPATH2  = 2u,  /**< clkHf input is Clock Path 2 */
1383:Generated_Source\PSoC6\pdl\drivers\peripheral\sysclk/cy_sysclk.h ****     CY_SYSCLK_CLKHF_IN_CLKPATH3  = 3u,  /**< clkHf input is Clock Path 3 */
1384:Generated_Source\PSoC6\pdl\drivers\peripheral\sysclk/cy_sysclk.h ****     CY_SYSCLK_CLKHF_IN_CLKPATH4  = 4u,  /**< clkHf input is Clock Path 4 */
1385:Generated_Source\PSoC6\pdl\drivers\peripheral\sysclk/cy_sysclk.h ****     CY_SYSCLK_CLKHF_IN_CLKPATH5  = 5u,  /**< clkHf input is Clock Path 5 */
1386:Generated_Source\PSoC6\pdl\drivers\peripheral\sysclk/cy_sysclk.h ****     CY_SYSCLK_CLKHF_IN_CLKPATH6  = 6u,  /**< clkHf input is Clock Path 6 */
1387:Generated_Source\PSoC6\pdl\drivers\peripheral\sysclk/cy_sysclk.h ****     CY_SYSCLK_CLKHF_IN_CLKPATH7  = 7u,  /**< clkHf input is Clock Path 7 */
1388:Generated_Source\PSoC6\pdl\drivers\peripheral\sysclk/cy_sysclk.h ****     CY_SYSCLK_CLKHF_IN_CLKPATH8  = 8u,  /**< clkHf input is Clock Path 8 */
1389:Generated_Source\PSoC6\pdl\drivers\peripheral\sysclk/cy_sysclk.h ****     CY_SYSCLK_CLKHF_IN_CLKPATH9  = 9u,  /**< clkHf input is Clock Path 9 */
1390:Generated_Source\PSoC6\pdl\drivers\peripheral\sysclk/cy_sysclk.h ****     CY_SYSCLK_CLKHF_IN_CLKPATH10 = 10u, /**< clkHf input is Clock Path 10 */
ARM GAS  C:\Users\kiwamu\AppData\Local\Temp\ccIx7zyv.s 			page 117


1391:Generated_Source\PSoC6\pdl\drivers\peripheral\sysclk/cy_sysclk.h ****     CY_SYSCLK_CLKHF_IN_CLKPATH11 = 11u, /**< clkHf input is Clock Path 11 */
1392:Generated_Source\PSoC6\pdl\drivers\peripheral\sysclk/cy_sysclk.h ****     CY_SYSCLK_CLKHF_IN_CLKPATH12 = 12u, /**< clkHf input is Clock Path 12 */
1393:Generated_Source\PSoC6\pdl\drivers\peripheral\sysclk/cy_sysclk.h ****     CY_SYSCLK_CLKHF_IN_CLKPATH13 = 13u, /**< clkHf input is Clock Path 13 */
1394:Generated_Source\PSoC6\pdl\drivers\peripheral\sysclk/cy_sysclk.h ****     CY_SYSCLK_CLKHF_IN_CLKPATH14 = 14u, /**< clkHf input is Clock Path 14 */
1395:Generated_Source\PSoC6\pdl\drivers\peripheral\sysclk/cy_sysclk.h ****     CY_SYSCLK_CLKHF_IN_CLKPATH15 = 15u, /**< clkHf input is Clock Path 15 */
1396:Generated_Source\PSoC6\pdl\drivers\peripheral\sysclk/cy_sysclk.h **** } cy_en_clkhf_in_sources_t;
1397:Generated_Source\PSoC6\pdl\drivers\peripheral\sysclk/cy_sysclk.h **** 
1398:Generated_Source\PSoC6\pdl\drivers\peripheral\sysclk/cy_sysclk.h **** 
1399:Generated_Source\PSoC6\pdl\drivers\peripheral\sysclk/cy_sysclk.h **** /**
1400:Generated_Source\PSoC6\pdl\drivers\peripheral\sysclk/cy_sysclk.h **** * clkHf divider values. See CLK_ROOT_SELECT registers, bits ROOT_DIV.
1401:Generated_Source\PSoC6\pdl\drivers\peripheral\sysclk/cy_sysclk.h **** * Used with functions \ref Cy_SysClk_ClkHfSetDivider and \ref Cy_SysClk_ClkHfGetDivider.
1402:Generated_Source\PSoC6\pdl\drivers\peripheral\sysclk/cy_sysclk.h **** */
1403:Generated_Source\PSoC6\pdl\drivers\peripheral\sysclk/cy_sysclk.h **** typedef enum
1404:Generated_Source\PSoC6\pdl\drivers\peripheral\sysclk/cy_sysclk.h **** {
1405:Generated_Source\PSoC6\pdl\drivers\peripheral\sysclk/cy_sysclk.h ****     CY_SYSCLK_CLKHF_NO_DIVIDE   = 0u,    /**< don't divide clkHf. */
1406:Generated_Source\PSoC6\pdl\drivers\peripheral\sysclk/cy_sysclk.h ****     CY_SYSCLK_CLKHF_DIVIDE_BY_2 = 1u,    /**< divide clkHf by 2 */
1407:Generated_Source\PSoC6\pdl\drivers\peripheral\sysclk/cy_sysclk.h ****     CY_SYSCLK_CLKHF_DIVIDE_BY_4 = 2u,    /**< divide clkHf by 4 */
1408:Generated_Source\PSoC6\pdl\drivers\peripheral\sysclk/cy_sysclk.h ****     CY_SYSCLK_CLKHF_DIVIDE_BY_8 = 3u     /**< divide clkHf by 8 */
1409:Generated_Source\PSoC6\pdl\drivers\peripheral\sysclk/cy_sysclk.h **** } cy_en_clkhf_dividers_t;
1410:Generated_Source\PSoC6\pdl\drivers\peripheral\sysclk/cy_sysclk.h **** 
1411:Generated_Source\PSoC6\pdl\drivers\peripheral\sysclk/cy_sysclk.h **** /**
1412:Generated_Source\PSoC6\pdl\drivers\peripheral\sysclk/cy_sysclk.h **** * clkHf clock supervisor input sources. See register CLK_CSV_HF_CTL[CSV_MUX].
1413:Generated_Source\PSoC6\pdl\drivers\peripheral\sysclk/cy_sysclk.h **** */
1414:Generated_Source\PSoC6\pdl\drivers\peripheral\sysclk/cy_sysclk.h **** typedef enum
1415:Generated_Source\PSoC6\pdl\drivers\peripheral\sysclk/cy_sysclk.h **** {
1416:Generated_Source\PSoC6\pdl\drivers\peripheral\sysclk/cy_sysclk.h ****     CY_SYSCLK_CLKHF_CSV_SUPERVISOR_IMO   = 0u,  /**< Supervising clock is the IMO. */
1417:Generated_Source\PSoC6\pdl\drivers\peripheral\sysclk/cy_sysclk.h ****     CY_SYSCLK_CLKHF_CSV_SUPERVISOR_EXT   = 1u,  /**< Supervising clock is the external clock */
1418:Generated_Source\PSoC6\pdl\drivers\peripheral\sysclk/cy_sysclk.h ****     CY_SYSCLK_CLKHF_CSV_SUPERVISOR_ALTHF = 2u   /**< Supervising clock is clk_althf */
1419:Generated_Source\PSoC6\pdl\drivers\peripheral\sysclk/cy_sysclk.h **** } cy_en_clkhf_csv_supervisor_clock_t;
1420:Generated_Source\PSoC6\pdl\drivers\peripheral\sysclk/cy_sysclk.h **** /** \} group_sysclk_clk_hf_enums */
1421:Generated_Source\PSoC6\pdl\drivers\peripheral\sysclk/cy_sysclk.h **** 
1422:Generated_Source\PSoC6\pdl\drivers\peripheral\sysclk/cy_sysclk.h **** /**
1423:Generated_Source\PSoC6\pdl\drivers\peripheral\sysclk/cy_sysclk.h **** * \addtogroup group_sysclk_clk_hf_structs
1424:Generated_Source\PSoC6\pdl\drivers\peripheral\sysclk/cy_sysclk.h **** * \{SupervisingWindow
1425:Generated_Source\PSoC6\pdl\drivers\peripheral\sysclk/cy_sysclk.h **** */
1426:Generated_Source\PSoC6\pdl\drivers\peripheral\sysclk/cy_sysclk.h **** /**
1427:Generated_Source\PSoC6\pdl\drivers\peripheral\sysclk/cy_sysclk.h **** * This structure is used to configure the clock supervisor for clkHf.
1428:Generated_Source\PSoC6\pdl\drivers\peripheral\sysclk/cy_sysclk.h **** */
1429:Generated_Source\PSoC6\pdl\drivers\peripheral\sysclk/cy_sysclk.h **** typedef struct
1430:Generated_Source\PSoC6\pdl\drivers\peripheral\sysclk/cy_sysclk.h **** {
1431:Generated_Source\PSoC6\pdl\drivers\peripheral\sysclk/cy_sysclk.h ****     cy_en_clkhf_csv_supervisor_clock_t SupervisorClock; /**< \ref cy_en_clkhf_csv_supervisor_clock_
1432:Generated_Source\PSoC6\pdl\drivers\peripheral\sysclk/cy_sysclk.h ****     uint16_t SupervisingWindow;                         /**< Number of supervising clock cycles */
1433:Generated_Source\PSoC6\pdl\drivers\peripheral\sysclk/cy_sysclk.h ****     bool enableFrequencyFaultDetection;                 /**< 1= enabled, 0= disabled */
1434:Generated_Source\PSoC6\pdl\drivers\peripheral\sysclk/cy_sysclk.h ****     uint16_t FrequencyLowerLimit;                       /**< Lowest frequency in kHz that supervise
1435:Generated_Source\PSoC6\pdl\drivers\peripheral\sysclk/cy_sysclk.h ****     uint16_t FrequencyUpperLimit;                       /**< Highest frequency in kHz that supervis
1436:Generated_Source\PSoC6\pdl\drivers\peripheral\sysclk/cy_sysclk.h ****     cy_en_csv_error_actions_t FrequencyAction;          /**< \ref cy_en_csv_error_actions_t */
1437:Generated_Source\PSoC6\pdl\drivers\peripheral\sysclk/cy_sysclk.h ****     bool enableLossDetection;                           /**< 1= enabled, 0= disabled */
1438:Generated_Source\PSoC6\pdl\drivers\peripheral\sysclk/cy_sysclk.h ****     cy_en_csv_loss_window_t LossWindow;                 /**< \ref cy_en_csv_loss_window_t */
1439:Generated_Source\PSoC6\pdl\drivers\peripheral\sysclk/cy_sysclk.h ****     cy_en_csv_error_actions_t LossAction;               /**< \ref cy_en_csv_error_actions_t */
1440:Generated_Source\PSoC6\pdl\drivers\peripheral\sysclk/cy_sysclk.h **** } cy_stc_clkhf_csv_config_t;
1441:Generated_Source\PSoC6\pdl\drivers\peripheral\sysclk/cy_sysclk.h **** /** \} group_sysclk_clk_hf_structs */
1442:Generated_Source\PSoC6\pdl\drivers\peripheral\sysclk/cy_sysclk.h **** 
1443:Generated_Source\PSoC6\pdl\drivers\peripheral\sysclk/cy_sysclk.h **** /**
1444:Generated_Source\PSoC6\pdl\drivers\peripheral\sysclk/cy_sysclk.h **** * \addtogroup group_sysclk_clk_hf_funcs
1445:Generated_Source\PSoC6\pdl\drivers\peripheral\sysclk/cy_sysclk.h **** * \{
1446:Generated_Source\PSoC6\pdl\drivers\peripheral\sysclk/cy_sysclk.h **** */
1447:Generated_Source\PSoC6\pdl\drivers\peripheral\sysclk/cy_sysclk.h **** __STATIC_INLINE cy_en_sysclk_status_t Cy_SysClk_ClkHfEnable(uint32_t clkHf);
ARM GAS  C:\Users\kiwamu\AppData\Local\Temp\ccIx7zyv.s 			page 118


1448:Generated_Source\PSoC6\pdl\drivers\peripheral\sysclk/cy_sysclk.h **** __STATIC_INLINE cy_en_sysclk_status_t Cy_SysClk_ClkHfDisable(uint32_t clkHf);
1449:Generated_Source\PSoC6\pdl\drivers\peripheral\sysclk/cy_sysclk.h **** __STATIC_INLINE cy_en_sysclk_status_t Cy_SysClk_ClkHfSetSource(uint32_t clkHf, cy_en_clkhf_in_sourc
1450:Generated_Source\PSoC6\pdl\drivers\peripheral\sysclk/cy_sysclk.h **** __STATIC_INLINE cy_en_clkhf_in_sources_t Cy_SysClk_ClkHfGetSource(uint32_t clkHf);
1451:Generated_Source\PSoC6\pdl\drivers\peripheral\sysclk/cy_sysclk.h **** __STATIC_INLINE cy_en_sysclk_status_t Cy_SysClk_ClkHfSetDivider(uint32_t clkHf, cy_en_clkhf_divider
1452:Generated_Source\PSoC6\pdl\drivers\peripheral\sysclk/cy_sysclk.h **** __STATIC_INLINE cy_en_clkhf_dividers_t Cy_SysClk_ClkHfGetDivider(uint32_t clkHf);
1453:Generated_Source\PSoC6\pdl\drivers\peripheral\sysclk/cy_sysclk.h **** #if (SRSS_MASK_HFCSV != 0)  || defined(CY_DOXYGEN)
1454:Generated_Source\PSoC6\pdl\drivers\peripheral\sysclk/cy_sysclk.h ****     cy_en_sysclk_status_t Cy_SysClk_ClkHfConfigureCsv(uint32_t clkHf, const cy_stc_clkhf_csv_config
1455:Generated_Source\PSoC6\pdl\drivers\peripheral\sysclk/cy_sysclk.h **** #endif /* (SRSS_MASK_HFCSV != 0)  || defined(CY_DOXYGEN) */
1456:Generated_Source\PSoC6\pdl\drivers\peripheral\sysclk/cy_sysclk.h **** 
1457:Generated_Source\PSoC6\pdl\drivers\peripheral\sysclk/cy_sysclk.h **** 
1458:Generated_Source\PSoC6\pdl\drivers\peripheral\sysclk/cy_sysclk.h **** /*******************************************************************************
1459:Generated_Source\PSoC6\pdl\drivers\peripheral\sysclk/cy_sysclk.h **** * Function Name: Cy_SysClk_ClkHfEnable
1460:Generated_Source\PSoC6\pdl\drivers\peripheral\sysclk/cy_sysclk.h **** ****************************************************************************//**
1461:Generated_Source\PSoC6\pdl\drivers\peripheral\sysclk/cy_sysclk.h **** *
1462:Generated_Source\PSoC6\pdl\drivers\peripheral\sysclk/cy_sysclk.h **** * Enables the selected clkHf.
1463:Generated_Source\PSoC6\pdl\drivers\peripheral\sysclk/cy_sysclk.h **** *
1464:Generated_Source\PSoC6\pdl\drivers\peripheral\sysclk/cy_sysclk.h **** * \param clkHf Selects which clkHf to enable.
1465:Generated_Source\PSoC6\pdl\drivers\peripheral\sysclk/cy_sysclk.h **** *
1466:Generated_Source\PSoC6\pdl\drivers\peripheral\sysclk/cy_sysclk.h **** * \return \ref cy_en_sysclk_status_t
1467:Generated_Source\PSoC6\pdl\drivers\peripheral\sysclk/cy_sysclk.h **** *
1468:Generated_Source\PSoC6\pdl\drivers\peripheral\sysclk/cy_sysclk.h **** *******************************************************************************/
1469:Generated_Source\PSoC6\pdl\drivers\peripheral\sysclk/cy_sysclk.h **** __STATIC_INLINE cy_en_sysclk_status_t Cy_SysClk_ClkHfEnable(uint32_t clkHf)
1470:Generated_Source\PSoC6\pdl\drivers\peripheral\sysclk/cy_sysclk.h **** {
1471:Generated_Source\PSoC6\pdl\drivers\peripheral\sysclk/cy_sysclk.h ****     cy_en_sysclk_status_t retval = CY_SYSCLK_BAD_PARAM;
1472:Generated_Source\PSoC6\pdl\drivers\peripheral\sysclk/cy_sysclk.h ****     if (clkHf < SRSS_NUM_HFROOT)
1473:Generated_Source\PSoC6\pdl\drivers\peripheral\sysclk/cy_sysclk.h ****     {
1474:Generated_Source\PSoC6\pdl\drivers\peripheral\sysclk/cy_sysclk.h ****         SRSS->CLK_ROOT_SELECT[clkHf] |= _VAL2FLD(SRSS_CLK_ROOT_SELECT_ENABLE, 1ul); /* 1 = enable *
1475:Generated_Source\PSoC6\pdl\drivers\peripheral\sysclk/cy_sysclk.h ****         retval = CY_SYSCLK_SUCCESS;
1476:Generated_Source\PSoC6\pdl\drivers\peripheral\sysclk/cy_sysclk.h ****     }
1477:Generated_Source\PSoC6\pdl\drivers\peripheral\sysclk/cy_sysclk.h ****     return (retval);
1478:Generated_Source\PSoC6\pdl\drivers\peripheral\sysclk/cy_sysclk.h **** }
1479:Generated_Source\PSoC6\pdl\drivers\peripheral\sysclk/cy_sysclk.h **** 
1480:Generated_Source\PSoC6\pdl\drivers\peripheral\sysclk/cy_sysclk.h **** /*******************************************************************************
1481:Generated_Source\PSoC6\pdl\drivers\peripheral\sysclk/cy_sysclk.h **** * Function Name: Cy_SysClk_ClkHfDisable
1482:Generated_Source\PSoC6\pdl\drivers\peripheral\sysclk/cy_sysclk.h **** ****************************************************************************//**
1483:Generated_Source\PSoC6\pdl\drivers\peripheral\sysclk/cy_sysclk.h **** *
1484:Generated_Source\PSoC6\pdl\drivers\peripheral\sysclk/cy_sysclk.h **** * Disables the selected clkHf.
1485:Generated_Source\PSoC6\pdl\drivers\peripheral\sysclk/cy_sysclk.h **** *
1486:Generated_Source\PSoC6\pdl\drivers\peripheral\sysclk/cy_sysclk.h **** * \param clkHf Selects which clkHf to enable.
1487:Generated_Source\PSoC6\pdl\drivers\peripheral\sysclk/cy_sysclk.h **** *
1488:Generated_Source\PSoC6\pdl\drivers\peripheral\sysclk/cy_sysclk.h **** * \return \ref cy_en_sysclk_status_t
1489:Generated_Source\PSoC6\pdl\drivers\peripheral\sysclk/cy_sysclk.h **** *
1490:Generated_Source\PSoC6\pdl\drivers\peripheral\sysclk/cy_sysclk.h **** * \note clkHf[0] cannot be disabled.
1491:Generated_Source\PSoC6\pdl\drivers\peripheral\sysclk/cy_sysclk.h **** *******************************************************************************/
1492:Generated_Source\PSoC6\pdl\drivers\peripheral\sysclk/cy_sysclk.h **** __STATIC_INLINE cy_en_sysclk_status_t Cy_SysClk_ClkHfDisable(uint32_t clkHf)
1493:Generated_Source\PSoC6\pdl\drivers\peripheral\sysclk/cy_sysclk.h **** {
1494:Generated_Source\PSoC6\pdl\drivers\peripheral\sysclk/cy_sysclk.h ****     cy_en_sysclk_status_t retval = CY_SYSCLK_BAD_PARAM;
1495:Generated_Source\PSoC6\pdl\drivers\peripheral\sysclk/cy_sysclk.h ****     if ((0ul < clkHf) && (clkHf < SRSS_NUM_HFROOT))
1496:Generated_Source\PSoC6\pdl\drivers\peripheral\sysclk/cy_sysclk.h ****     {
1497:Generated_Source\PSoC6\pdl\drivers\peripheral\sysclk/cy_sysclk.h ****         SRSS->CLK_ROOT_SELECT[clkHf] &= ~_VAL2FLD(SRSS_CLK_ROOT_SELECT_ENABLE, 1ul); /* 0 = disable
1498:Generated_Source\PSoC6\pdl\drivers\peripheral\sysclk/cy_sysclk.h ****         retval = CY_SYSCLK_SUCCESS;
1499:Generated_Source\PSoC6\pdl\drivers\peripheral\sysclk/cy_sysclk.h ****     }
1500:Generated_Source\PSoC6\pdl\drivers\peripheral\sysclk/cy_sysclk.h ****     return (retval);
1501:Generated_Source\PSoC6\pdl\drivers\peripheral\sysclk/cy_sysclk.h **** }
1502:Generated_Source\PSoC6\pdl\drivers\peripheral\sysclk/cy_sysclk.h **** 
1503:Generated_Source\PSoC6\pdl\drivers\peripheral\sysclk/cy_sysclk.h **** /*******************************************************************************
1504:Generated_Source\PSoC6\pdl\drivers\peripheral\sysclk/cy_sysclk.h **** * Function Name: Cy_SysClk_ClkHfSetSource
ARM GAS  C:\Users\kiwamu\AppData\Local\Temp\ccIx7zyv.s 			page 119


1505:Generated_Source\PSoC6\pdl\drivers\peripheral\sysclk/cy_sysclk.h **** ****************************************************************************//**
1506:Generated_Source\PSoC6\pdl\drivers\peripheral\sysclk/cy_sysclk.h **** *
1507:Generated_Source\PSoC6\pdl\drivers\peripheral\sysclk/cy_sysclk.h **** * Selects the source of the selected clkHf.
1508:Generated_Source\PSoC6\pdl\drivers\peripheral\sysclk/cy_sysclk.h **** *
1509:Generated_Source\PSoC6\pdl\drivers\peripheral\sysclk/cy_sysclk.h **** * \param clkHf Which clkHf mux to configure.
1510:Generated_Source\PSoC6\pdl\drivers\peripheral\sysclk/cy_sysclk.h **** *
1511:Generated_Source\PSoC6\pdl\drivers\peripheral\sysclk/cy_sysclk.h **** * \param source \ref cy_en_clkhf_in_sources_t
1512:Generated_Source\PSoC6\pdl\drivers\peripheral\sysclk/cy_sysclk.h **** *
1513:Generated_Source\PSoC6\pdl\drivers\peripheral\sysclk/cy_sysclk.h **** * \return \ref cy_en_sysclk_status_t
1514:Generated_Source\PSoC6\pdl\drivers\peripheral\sysclk/cy_sysclk.h **** *
1515:Generated_Source\PSoC6\pdl\drivers\peripheral\sysclk/cy_sysclk.h **** *******************************************************************************/
1516:Generated_Source\PSoC6\pdl\drivers\peripheral\sysclk/cy_sysclk.h **** __STATIC_INLINE cy_en_sysclk_status_t Cy_SysClk_ClkHfSetSource(uint32_t clkHf, cy_en_clkhf_in_sourc
1517:Generated_Source\PSoC6\pdl\drivers\peripheral\sysclk/cy_sysclk.h **** {
1518:Generated_Source\PSoC6\pdl\drivers\peripheral\sysclk/cy_sysclk.h ****     cy_en_sysclk_status_t retval = CY_SYSCLK_BAD_PARAM;
1519:Generated_Source\PSoC6\pdl\drivers\peripheral\sysclk/cy_sysclk.h ****     if ((clkHf < SRSS_NUM_HFROOT) && (source <= CY_SYSCLK_CLKHF_IN_CLKPATH15))
1520:Generated_Source\PSoC6\pdl\drivers\peripheral\sysclk/cy_sysclk.h ****     {
1521:Generated_Source\PSoC6\pdl\drivers\peripheral\sysclk/cy_sysclk.h ****         CY_SYSCLK_CLR_SET(SRSS->CLK_ROOT_SELECT[clkHf], SRSS_CLK_ROOT_SELECT_ROOT_MUX, source);
1522:Generated_Source\PSoC6\pdl\drivers\peripheral\sysclk/cy_sysclk.h ****         retval = CY_SYSCLK_SUCCESS;
1523:Generated_Source\PSoC6\pdl\drivers\peripheral\sysclk/cy_sysclk.h ****     }
1524:Generated_Source\PSoC6\pdl\drivers\peripheral\sysclk/cy_sysclk.h ****     return (retval);
1525:Generated_Source\PSoC6\pdl\drivers\peripheral\sysclk/cy_sysclk.h **** }
1526:Generated_Source\PSoC6\pdl\drivers\peripheral\sysclk/cy_sysclk.h **** 
1527:Generated_Source\PSoC6\pdl\drivers\peripheral\sysclk/cy_sysclk.h **** /*******************************************************************************
1528:Generated_Source\PSoC6\pdl\drivers\peripheral\sysclk/cy_sysclk.h **** * Function Name: Cy_SysClk_ClkHfGetSource
1529:Generated_Source\PSoC6\pdl\drivers\peripheral\sysclk/cy_sysclk.h **** ****************************************************************************//**
1530:Generated_Source\PSoC6\pdl\drivers\peripheral\sysclk/cy_sysclk.h **** *
1531:Generated_Source\PSoC6\pdl\drivers\peripheral\sysclk/cy_sysclk.h **** * Reports the source of the selected clkHf.
1532:Generated_Source\PSoC6\pdl\drivers\peripheral\sysclk/cy_sysclk.h **** *
1533:Generated_Source\PSoC6\pdl\drivers\peripheral\sysclk/cy_sysclk.h **** * \param clkHf selects which clkHf to get the source of.
1534:Generated_Source\PSoC6\pdl\drivers\peripheral\sysclk/cy_sysclk.h **** *
1535:Generated_Source\PSoC6\pdl\drivers\peripheral\sysclk/cy_sysclk.h **** * \return \ref cy_en_clkhf_in_sources_t
1536:Generated_Source\PSoC6\pdl\drivers\peripheral\sysclk/cy_sysclk.h **** *
1537:Generated_Source\PSoC6\pdl\drivers\peripheral\sysclk/cy_sysclk.h **** *******************************************************************************/
1538:Generated_Source\PSoC6\pdl\drivers\peripheral\sysclk/cy_sysclk.h **** __STATIC_INLINE cy_en_clkhf_in_sources_t Cy_SysClk_ClkHfGetSource(uint32_t clkHf)
1539:Generated_Source\PSoC6\pdl\drivers\peripheral\sysclk/cy_sysclk.h **** {
1540:Generated_Source\PSoC6\pdl\drivers\peripheral\sysclk/cy_sysclk.h ****     CY_ASSERT_L1(clkHf < SRSS_NUM_HFROOT);
1541:Generated_Source\PSoC6\pdl\drivers\peripheral\sysclk/cy_sysclk.h ****     return (cy_en_clkhf_in_sources_t)(_FLD2VAL(SRSS_CLK_ROOT_SELECT_ROOT_MUX, SRSS->CLK_ROOT_SELECT
 3523              		.loc 2 1541 0
 3524 0046 E023     		movs	r3, #224
 3525 0048 9B00     		lsls	r3, r3, #2
 3526 004a 924A     		ldr	r2, .L302+4
 3527 004c D358     		ldr	r3, [r2, r3]
 3528 004e 0F24     		movs	r4, #15
 3529 0050 1C40     		ands	r4, r3
 3530              	.LVL420:
 3531              	.LBE79:
 3532              	.LBE78:
1518:Generated_Source\PSoC6\pdl\drivers\peripheral\sysclk/cy_sysclk.c **** 
1519:Generated_Source\PSoC6\pdl\drivers\peripheral\sysclk/cy_sysclk.c ****     /* Start by finding the source input for root 0 (clkHf[0]) */
1520:Generated_Source\PSoC6\pdl\drivers\peripheral\sysclk/cy_sysclk.c ****     path = Cy_SysClk_ClkHfGetSource(0ul);
1521:Generated_Source\PSoC6\pdl\drivers\peripheral\sysclk/cy_sysclk.c **** 
1522:Generated_Source\PSoC6\pdl\drivers\peripheral\sysclk/cy_sysclk.c ****     if (path == CY_SYSCLK_CLKHF_IN_CLKPATH0) /* FLL? (always path 0) */
 3533              		.loc 1 1522 0
 3534 0052 12D1     		bne	.L269
1523:Generated_Source\PSoC6\pdl\drivers\peripheral\sysclk/cy_sysclk.c ****     {
1524:Generated_Source\PSoC6\pdl\drivers\peripheral\sysclk/cy_sysclk.c ****         Cy_SysClk_FllGetConfiguration(&fllpll.fll);
 3535              		.loc 1 1524 0
ARM GAS  C:\Users\kiwamu\AppData\Local\Temp\ccIx7zyv.s 			page 120


 3536 0054 05AB     		add	r3, sp, #20
 3537 0056 9846     		mov	r8, r3
 3538 0058 1800     		movs	r0, r3
 3539 005a FFF7FEFF 		bl	Cy_SysClk_FllGetConfiguration
 3540              	.LVL421:
1525:Generated_Source\PSoC6\pdl\drivers\peripheral\sysclk/cy_sysclk.c ****         source = Cy_SysClk_ClkPathGetSource(0ul);
 3541              		.loc 1 1525 0
 3542 005e 0020     		movs	r0, #0
 3543 0060 FFF7FEFF 		bl	Cy_SysClk_ClkPathGetSource
 3544              	.LVL422:
 3545 0064 0500     		movs	r5, r0
 3546              	.LVL423:
1526:Generated_Source\PSoC6\pdl\drivers\peripheral\sysclk/cy_sysclk.c ****         mode = fllpll.fll.outputMode;
 3547              		.loc 1 1526 0
 3548 0066 4346     		mov	r3, r8
 3549 0068 9B7B     		ldrb	r3, [r3, #14]
 3550 006a 9846     		mov	r8, r3
 3551              	.LVL424:
 3552              	.LBB80:
 3553              	.LBB81:
 812:Generated_Source\PSoC6\pdl\drivers\peripheral\sysclk/cy_sysclk.h **** }
 3554              		.loc 2 812 0
 3555 006c B223     		movs	r3, #178
 3556 006e DB00     		lsls	r3, r3, #3
 3557 0070 884A     		ldr	r2, .L302+4
 3558 0072 D358     		ldr	r3, [r2, r3]
 3559 0074 0122     		movs	r2, #1
 3560 0076 1340     		ands	r3, r2
 3561              	.LVL425:
 3562              	.LBE81:
 3563              	.LBE80:
 3564 0078 29E0     		b	.L270
 3565              	.LVL426:
 3566              	.L269:
1527:Generated_Source\PSoC6\pdl\drivers\peripheral\sysclk/cy_sysclk.c ****         locked = Cy_SysClk_FllLocked();
1528:Generated_Source\PSoC6\pdl\drivers\peripheral\sysclk/cy_sysclk.c ****     }
1529:Generated_Source\PSoC6\pdl\drivers\peripheral\sysclk/cy_sysclk.c ****     else if ((uint32_t)path <= (uint32_t)SRSS_NUM_PLL) /* PLL? (always path 1 - N)*/
 3567              		.loc 1 1529 0
 3568 007a 012C     		cmp	r4, #1
 3569 007c 20D8     		bhi	.L271
 3570              	.LBB82:
1530:Generated_Source\PSoC6\pdl\drivers\peripheral\sysclk/cy_sysclk.c ****     {
1531:Generated_Source\PSoC6\pdl\drivers\peripheral\sysclk/cy_sysclk.c ****         cy_stc_pll_manual_config_t config;
1532:Generated_Source\PSoC6\pdl\drivers\peripheral\sysclk/cy_sysclk.c ****         (void)Cy_SysClk_PllGetConfiguration((uint32_t)path, &config);
 3571              		.loc 1 1532 0
 3572 007e 01AD     		add	r5, sp, #4
 3573 0080 2900     		movs	r1, r5
 3574 0082 2000     		movs	r0, r4
 3575 0084 FFF7FEFF 		bl	Cy_SysClk_PllGetConfiguration
 3576              	.LVL427:
1533:Generated_Source\PSoC6\pdl\drivers\peripheral\sysclk/cy_sysclk.c ****         fllpll.pll.feedbackDiv  = config.feedbackDiv;
 3577              		.loc 1 1533 0
 3578 0088 2A78     		ldrb	r2, [r5]
 3579 008a 05AB     		add	r3, sp, #20
 3580 008c 1A70     		strb	r2, [r3]
1534:Generated_Source\PSoC6\pdl\drivers\peripheral\sysclk/cy_sysclk.c ****         fllpll.pll.referenceDiv = config.referenceDiv;
 3581              		.loc 1 1534 0
ARM GAS  C:\Users\kiwamu\AppData\Local\Temp\ccIx7zyv.s 			page 121


 3582 008e 6A78     		ldrb	r2, [r5, #1]
 3583 0090 5A70     		strb	r2, [r3, #1]
1535:Generated_Source\PSoC6\pdl\drivers\peripheral\sysclk/cy_sysclk.c ****         fllpll.pll.outputDiv    = config.outputDiv;
 3584              		.loc 1 1535 0
 3585 0092 AA78     		ldrb	r2, [r5, #2]
 3586 0094 9A70     		strb	r2, [r3, #2]
1536:Generated_Source\PSoC6\pdl\drivers\peripheral\sysclk/cy_sysclk.c ****         mode = config.outputMode;
 3587              		.loc 1 1536 0
 3588 0096 2B79     		ldrb	r3, [r5, #4]
 3589 0098 9846     		mov	r8, r3
 3590              	.LVL428:
1537:Generated_Source\PSoC6\pdl\drivers\peripheral\sysclk/cy_sysclk.c ****         source = Cy_SysClk_ClkPathGetSource((uint32_t)path);
 3591              		.loc 1 1537 0
 3592 009a 2000     		movs	r0, r4
 3593 009c FFF7FEFF 		bl	Cy_SysClk_ClkPathGetSource
 3594              	.LVL429:
 3595 00a0 0500     		movs	r5, r0
 3596              	.LVL430:
 3597              	.LBB83:
 3598              	.LBB84:
 905:Generated_Source\PSoC6\pdl\drivers\peripheral\sysclk/cy_sysclk.h ****     return (bool)(_FLD2VAL(SRSS_CLK_PLL_STATUS_LOCKED, SRSS->CLK_PLL_STATUS[clkPath - 1ul]));
 3599              		.loc 2 905 0
 3600 00a2 012C     		cmp	r4, #1
 3601 00a4 03D0     		beq	.L272
 3602 00a6 7C49     		ldr	r1, .L302+8
 3603 00a8 7C48     		ldr	r0, .L302+12
 3604              	.LVL431:
 3605 00aa FFF7FEFF 		bl	Cy_SysLib_AssertFailed
 3606              	.LVL432:
 3607              	.L272:
 906:Generated_Source\PSoC6\pdl\drivers\peripheral\sysclk/cy_sysclk.h **** }
 3608              		.loc 2 906 0
 3609 00ae 2300     		movs	r3, r4
 3610 00b0 9033     		adds	r3, r3, #144
 3611 00b2 FF33     		adds	r3, r3, #255
 3612 00b4 9B00     		lsls	r3, r3, #2
 3613 00b6 774A     		ldr	r2, .L302+4
 3614 00b8 9B58     		ldr	r3, [r3, r2]
 3615 00ba 0122     		movs	r2, #1
 3616 00bc 1340     		ands	r3, r2
 3617              	.LVL433:
 3618              	.LBE84:
 3619              	.LBE83:
 3620              	.LBE82:
 3621 00be 06E0     		b	.L270
 3622              	.LVL434:
 3623              	.L271:
1538:Generated_Source\PSoC6\pdl\drivers\peripheral\sysclk/cy_sysclk.c ****         locked = Cy_SysClk_PllLocked((uint32_t)path);
1539:Generated_Source\PSoC6\pdl\drivers\peripheral\sysclk/cy_sysclk.c ****     }
1540:Generated_Source\PSoC6\pdl\drivers\peripheral\sysclk/cy_sysclk.c ****     else /* assume clk_path < SRSS_NUM_CLKPATH */
1541:Generated_Source\PSoC6\pdl\drivers\peripheral\sysclk/cy_sysclk.c ****     { /* Direct select path. Use PLL function to get the source. */
1542:Generated_Source\PSoC6\pdl\drivers\peripheral\sysclk/cy_sysclk.c ****         source = Cy_SysClk_ClkPathGetSource((uint32_t)path);
 3624              		.loc 1 1542 0
 3625 00c0 2000     		movs	r0, r4
 3626 00c2 FFF7FEFF 		bl	Cy_SysClk_ClkPathGetSource
 3627              	.LVL435:
 3628 00c6 0500     		movs	r5, r0
ARM GAS  C:\Users\kiwamu\AppData\Local\Temp\ccIx7zyv.s 			page 122


 3629              	.LVL436:
1504:Generated_Source\PSoC6\pdl\drivers\peripheral\sysclk/cy_sysclk.c ****     cy_en_clkpath_in_sources_t  source;       /* source input for path (FLL, PLL, or direct) */
 3630              		.loc 1 1504 0
 3631 00c8 0023     		movs	r3, #0
1503:Generated_Source\PSoC6\pdl\drivers\peripheral\sysclk/cy_sysclk.c ****     bool                     locked = 0;      /* FLL or PLL lock status; n/a for direct */
 3632              		.loc 1 1503 0
 3633 00ca 0022     		movs	r2, #0
 3634 00cc 9046     		mov	r8, r2
 3635              	.LVL437:
 3636              	.L270:
1543:Generated_Source\PSoC6\pdl\drivers\peripheral\sysclk/cy_sysclk.c ****     }
1544:Generated_Source\PSoC6\pdl\drivers\peripheral\sysclk/cy_sysclk.c **** 
1545:Generated_Source\PSoC6\pdl\drivers\peripheral\sysclk/cy_sysclk.c ****     /* get the frequency of the source, i.e., the path mux input */
1546:Generated_Source\PSoC6\pdl\drivers\peripheral\sysclk/cy_sysclk.c ****     switch(source)
 3637              		.loc 1 1546 0
 3638 00ce 002D     		cmp	r5, #0
 3639 00d0 04D0     		beq	.L274
 3640 00d2 113D     		subs	r5, r5, #17
 3641              	.LVL438:
 3642 00d4 FF3D     		subs	r5, r5, #255
 3643 00d6 012D     		cmp	r5, #1
 3644 00d8 02D8     		bhi	.L273
 3645 00da 03E0     		b	.L300
 3646              	.LVL439:
 3647              	.L274:
1547:Generated_Source\PSoC6\pdl\drivers\peripheral\sysclk/cy_sysclk.c ****     {
1548:Generated_Source\PSoC6\pdl\drivers\peripheral\sysclk/cy_sysclk.c ****         case CY_SYSCLK_CLKPATH_IN_IMO: /* IMO frequency is fixed at 8 MHz */
1549:Generated_Source\PSoC6\pdl\drivers\peripheral\sysclk/cy_sysclk.c ****             source_freq = 8000000ul; /*Hz*/
 3648              		.loc 1 1549 0
 3649 00dc 704D     		ldr	r5, .L302+16
 3650              	.LVL440:
 3651 00de 03E0     		b	.L275
 3652              	.L273:
 3653              	.LVL441:
1550:Generated_Source\PSoC6\pdl\drivers\peripheral\sysclk/cy_sysclk.c ****             break;
1551:Generated_Source\PSoC6\pdl\drivers\peripheral\sysclk/cy_sysclk.c ****         case CY_SYSCLK_CLKPATH_IN_ILO: /* ILO and WCO frequencies are nominally 32.768 kHz */
1552:Generated_Source\PSoC6\pdl\drivers\peripheral\sysclk/cy_sysclk.c ****         case CY_SYSCLK_CLKPATH_IN_WCO:
1553:Generated_Source\PSoC6\pdl\drivers\peripheral\sysclk/cy_sysclk.c ****             source_freq = 32768ul; /*Hz*/
1554:Generated_Source\PSoC6\pdl\drivers\peripheral\sysclk/cy_sysclk.c ****             break;
1555:Generated_Source\PSoC6\pdl\drivers\peripheral\sysclk/cy_sysclk.c ****         default:
1556:Generated_Source\PSoC6\pdl\drivers\peripheral\sysclk/cy_sysclk.c ****             /* don't know the frequency of clk_ext, ECO, clk_althf, dsi_out, or clk_altlf */
1557:Generated_Source\PSoC6\pdl\drivers\peripheral\sysclk/cy_sysclk.c ****             source_freq = 0ul; /* unknown frequency */
 3654              		.loc 1 1557 0
 3655 00e0 0025     		movs	r5, #0
1558:Generated_Source\PSoC6\pdl\drivers\peripheral\sysclk/cy_sysclk.c ****             break;
 3656              		.loc 1 1558 0
 3657 00e2 01E0     		b	.L275
 3658              	.LVL442:
 3659              	.L300:
1553:Generated_Source\PSoC6\pdl\drivers\peripheral\sysclk/cy_sysclk.c ****             break;
 3660              		.loc 1 1553 0
 3661 00e4 8025     		movs	r5, #128
 3662 00e6 2D02     		lsls	r5, r5, #8
 3663              	.L275:
 3664              	.LVL443:
1559:Generated_Source\PSoC6\pdl\drivers\peripheral\sysclk/cy_sysclk.c ****     }
1560:Generated_Source\PSoC6\pdl\drivers\peripheral\sysclk/cy_sysclk.c ****     if (source_freq != 0ul)
ARM GAS  C:\Users\kiwamu\AppData\Local\Temp\ccIx7zyv.s 			page 123


 3665              		.loc 1 1560 0
 3666 00e8 002D     		cmp	r5, #0
 3667 00ea 00D1     		bne	.LCB3752
 3668 00ec CBE0     		b	.L295	@long jump
 3669              	.LCB3752:
1561:Generated_Source\PSoC6\pdl\drivers\peripheral\sysclk/cy_sysclk.c ****     {
1562:Generated_Source\PSoC6\pdl\drivers\peripheral\sysclk/cy_sysclk.c ****         /* Calculate the path frequency */
1563:Generated_Source\PSoC6\pdl\drivers\peripheral\sysclk/cy_sysclk.c ****         if (path == CY_SYSCLK_CLKHF_IN_CLKPATH0) /* FLL? (always path 0) */
 3670              		.loc 1 1563 0
 3671 00ee 002C     		cmp	r4, #0
 3672 00f0 1BD1     		bne	.L277
 3673              	.LVL444:
1564:Generated_Source\PSoC6\pdl\drivers\peripheral\sysclk/cy_sysclk.c ****         {
1565:Generated_Source\PSoC6\pdl\drivers\peripheral\sysclk/cy_sysclk.c ****             path_freq = source_freq; /* for bypass mode */
1566:Generated_Source\PSoC6\pdl\drivers\peripheral\sysclk/cy_sysclk.c ****             /* if not bypass mode, apply the dividers calculation */
1567:Generated_Source\PSoC6\pdl\drivers\peripheral\sysclk/cy_sysclk.c ****             if ((mode == CY_SYSCLK_FLLPLL_OUTPUT_OUTPUT) || ((mode != CY_SYSCLK_FLLPLL_OUTPUT_INPUT
 3674              		.loc 1 1567 0
 3675 00f2 4246     		mov	r2, r8
 3676 00f4 032A     		cmp	r2, #3
 3677 00f6 03D0     		beq	.L278
 3678              		.loc 1 1567 0 is_stmt 0 discriminator 1
 3679 00f8 022A     		cmp	r2, #2
 3680 00fa 3CD0     		beq	.L279
 3681              		.loc 1 1567 0 discriminator 2
 3682 00fc 002B     		cmp	r3, #0
 3683 00fe 3AD0     		beq	.L279
 3684              	.L278:
1568:Generated_Source\PSoC6\pdl\drivers\peripheral\sysclk/cy_sysclk.c ****             {
1569:Generated_Source\PSoC6\pdl\drivers\peripheral\sysclk/cy_sysclk.c ****                 /* Ffll_out = Ffll_clk * FLL_MULT / FLL_REF_DIV / (FLL_OUTPUT_DIV + 1), where:
1570:Generated_Source\PSoC6\pdl\drivers\peripheral\sysclk/cy_sysclk.c ****                  *  FLL_MULT, REFERENCE_DIV, and OUTPUT_DIV are FLL configuration register bitfield
1571:Generated_Source\PSoC6\pdl\drivers\peripheral\sysclk/cy_sysclk.c ****                  * Check for possible divide by 0.
1572:Generated_Source\PSoC6\pdl\drivers\peripheral\sysclk/cy_sysclk.c ****                  */
1573:Generated_Source\PSoC6\pdl\drivers\peripheral\sysclk/cy_sysclk.c ****                 if (fllpll.fll.refDiv != 0ul)
 3685              		.loc 1 1573 0 is_stmt 1
 3686 0100 05AB     		add	r3, sp, #20
 3687              	.LVL445:
 3688 0102 9C88     		ldrh	r4, [r3, #4]
 3689 0104 002C     		cmp	r4, #0
 3690 0106 31D0     		beq	.L296
1574:Generated_Source\PSoC6\pdl\drivers\peripheral\sysclk/cy_sysclk.c ****                 {
1575:Generated_Source\PSoC6\pdl\drivers\peripheral\sysclk/cy_sysclk.c ****                     path_freq = (uint32_t)(((uint64_t)path_freq * (uint64_t)fllpll.fll.fllMult) /
 3691              		.loc 1 1575 0
 3692 0108 059A     		ldr	r2, [sp, #20]
 3693 010a 0023     		movs	r3, #0
 3694 010c 2800     		movs	r0, r5
 3695 010e 0021     		movs	r1, #0
 3696 0110 FFF7FEFF 		bl	__aeabi_lmul
 3697              	.LVL446:
 3698 0114 2200     		movs	r2, r4
 3699 0116 0023     		movs	r3, #0
 3700 0118 FFF7FEFF 		bl	__aeabi_uldivmod
 3701              	.LVL447:
1576:Generated_Source\PSoC6\pdl\drivers\peripheral\sysclk/cy_sysclk.c ****                                            (uint64_t)fllpll.fll.refDiv) /
1577:Generated_Source\PSoC6\pdl\drivers\peripheral\sysclk/cy_sysclk.c ****                                 ((uint32_t)(fllpll.fll.enableOutputDiv) + 1ul);
 3702              		.loc 1 1577 0
 3703 011c 05AB     		add	r3, sp, #20
 3704 011e D979     		ldrb	r1, [r3, #7]
ARM GAS  C:\Users\kiwamu\AppData\Local\Temp\ccIx7zyv.s 			page 124


 3705 0120 0131     		adds	r1, r1, #1
1575:Generated_Source\PSoC6\pdl\drivers\peripheral\sysclk/cy_sysclk.c ****                                            (uint64_t)fllpll.fll.refDiv) /
 3706              		.loc 1 1575 0
 3707 0122 FFF7FEFF 		bl	__aeabi_uidiv
 3708              	.LVL448:
 3709 0126 0500     		movs	r5, r0
 3710              	.LVL449:
 3711 0128 25E0     		b	.L279
 3712              	.LVL450:
 3713              	.L277:
1578:Generated_Source\PSoC6\pdl\drivers\peripheral\sysclk/cy_sysclk.c ****                 }
1579:Generated_Source\PSoC6\pdl\drivers\peripheral\sysclk/cy_sysclk.c ****                 else
1580:Generated_Source\PSoC6\pdl\drivers\peripheral\sysclk/cy_sysclk.c ****                 {
1581:Generated_Source\PSoC6\pdl\drivers\peripheral\sysclk/cy_sysclk.c ****                     path_freq = 0ul; /* error, one of the divisors is 0 */
1582:Generated_Source\PSoC6\pdl\drivers\peripheral\sysclk/cy_sysclk.c ****                 }
1583:Generated_Source\PSoC6\pdl\drivers\peripheral\sysclk/cy_sysclk.c ****             }
1584:Generated_Source\PSoC6\pdl\drivers\peripheral\sysclk/cy_sysclk.c ****         }
1585:Generated_Source\PSoC6\pdl\drivers\peripheral\sysclk/cy_sysclk.c ****         else if ((uint32_t)path <= (uint32_t)SRSS_NUM_PLL) /* PLL? (always path 1 - N)*/
 3714              		.loc 1 1585 0
 3715 012a 012C     		cmp	r4, #1
 3716 012c 23D8     		bhi	.L279
 3717              	.LVL451:
1586:Generated_Source\PSoC6\pdl\drivers\peripheral\sysclk/cy_sysclk.c ****         {
1587:Generated_Source\PSoC6\pdl\drivers\peripheral\sysclk/cy_sysclk.c ****             path_freq = source_freq; /* for bypass mode */
1588:Generated_Source\PSoC6\pdl\drivers\peripheral\sysclk/cy_sysclk.c ****             /* if not bypass mode, apply the dividers calculation */
1589:Generated_Source\PSoC6\pdl\drivers\peripheral\sysclk/cy_sysclk.c ****             if ((mode == CY_SYSCLK_FLLPLL_OUTPUT_OUTPUT) || ((mode != CY_SYSCLK_FLLPLL_OUTPUT_INPUT
 3718              		.loc 1 1589 0
 3719 012e 4246     		mov	r2, r8
 3720 0130 032A     		cmp	r2, #3
 3721 0132 03D0     		beq	.L280
 3722              		.loc 1 1589 0 is_stmt 0 discriminator 1
 3723 0134 022A     		cmp	r2, #2
 3724 0136 1ED0     		beq	.L279
 3725              		.loc 1 1589 0 discriminator 2
 3726 0138 002B     		cmp	r3, #0
 3727 013a 1CD0     		beq	.L279
 3728              	.L280:
1590:Generated_Source\PSoC6\pdl\drivers\peripheral\sysclk/cy_sysclk.c ****             {
1591:Generated_Source\PSoC6\pdl\drivers\peripheral\sysclk/cy_sysclk.c ****                 /* Fpll_out = Fpll_clk * FEEDBACK_DIV / REFERENCE_DIV / OUTPUT_DIV, where:
1592:Generated_Source\PSoC6\pdl\drivers\peripheral\sysclk/cy_sysclk.c ****                  *  FEEDBACK_DIV, REFERENCE_DIV, and OUTPUT_DIV are PLL configuration register bitf
1593:Generated_Source\PSoC6\pdl\drivers\peripheral\sysclk/cy_sysclk.c ****                  * Check for possible divide by 0.
1594:Generated_Source\PSoC6\pdl\drivers\peripheral\sysclk/cy_sysclk.c ****                  */
1595:Generated_Source\PSoC6\pdl\drivers\peripheral\sysclk/cy_sysclk.c ****                 if ((fllpll.pll.referenceDiv != 0ul) && (fllpll.pll.outputDiv != 0ul))
 3729              		.loc 1 1595 0 is_stmt 1
 3730 013c 05AB     		add	r3, sp, #20
 3731              	.LVL452:
 3732 013e 5C78     		ldrb	r4, [r3, #1]
 3733 0140 002C     		cmp	r4, #0
 3734 0142 15D0     		beq	.L297
 3735              		.loc 1 1595 0 is_stmt 0 discriminator 1
 3736 0144 9B78     		ldrb	r3, [r3, #2]
 3737 0146 9846     		mov	r8, r3
 3738              	.LVL453:
 3739 0148 002B     		cmp	r3, #0
 3740 014a 13D0     		beq	.L298
1596:Generated_Source\PSoC6\pdl\drivers\peripheral\sysclk/cy_sysclk.c ****                 {
1597:Generated_Source\PSoC6\pdl\drivers\peripheral\sysclk/cy_sysclk.c ****                     path_freq = (uint32_t)(((uint64_t)source_freq * (uint64_t)fllpll.pll.feedbackDi
ARM GAS  C:\Users\kiwamu\AppData\Local\Temp\ccIx7zyv.s 			page 125


 3741              		.loc 1 1597 0 is_stmt 1
 3742 014c 05AB     		add	r3, sp, #20
 3743 014e 1A78     		ldrb	r2, [r3]
 3744 0150 0023     		movs	r3, #0
 3745 0152 2800     		movs	r0, r5
 3746 0154 0021     		movs	r1, #0
 3747 0156 FFF7FEFF 		bl	__aeabi_lmul
 3748              	.LVL454:
 3749 015a 2200     		movs	r2, r4
 3750 015c 0023     		movs	r3, #0
 3751 015e FFF7FEFF 		bl	__aeabi_uldivmod
 3752              	.LVL455:
 3753 0162 4146     		mov	r1, r8
 3754 0164 FFF7FEFF 		bl	__aeabi_uidiv
 3755              	.LVL456:
 3756 0168 0500     		movs	r5, r0
 3757              	.LVL457:
 3758 016a 04E0     		b	.L279
 3759              	.LVL458:
 3760              	.L296:
1581:Generated_Source\PSoC6\pdl\drivers\peripheral\sysclk/cy_sysclk.c ****                 }
 3761              		.loc 1 1581 0
 3762 016c 0025     		movs	r5, #0
 3763              	.LVL459:
 3764 016e 02E0     		b	.L279
 3765              	.LVL460:
 3766              	.L297:
1598:Generated_Source\PSoC6\pdl\drivers\peripheral\sysclk/cy_sysclk.c ****                                            (uint64_t)fllpll.pll.referenceDiv) /
1599:Generated_Source\PSoC6\pdl\drivers\peripheral\sysclk/cy_sysclk.c ****                                 (uint32_t)fllpll.pll.outputDiv;
1600:Generated_Source\PSoC6\pdl\drivers\peripheral\sysclk/cy_sysclk.c ****                 }
1601:Generated_Source\PSoC6\pdl\drivers\peripheral\sysclk/cy_sysclk.c ****                 else
1602:Generated_Source\PSoC6\pdl\drivers\peripheral\sysclk/cy_sysclk.c ****                 {
1603:Generated_Source\PSoC6\pdl\drivers\peripheral\sysclk/cy_sysclk.c ****                     path_freq = 0ul; /* error, one of the divisors is 0 */
 3767              		.loc 1 1603 0
 3768 0170 0025     		movs	r5, #0
 3769              	.LVL461:
 3770 0172 00E0     		b	.L279
 3771              	.LVL462:
 3772              	.L298:
 3773 0174 0025     		movs	r5, #0
 3774              	.LVL463:
 3775              	.L279:
 3776              	.LBB85:
 3777              	.LBB86:
1542:Generated_Source\PSoC6\pdl\drivers\peripheral\sysclk/cy_sysclk.h **** }
1543:Generated_Source\PSoC6\pdl\drivers\peripheral\sysclk/cy_sysclk.h **** 
1544:Generated_Source\PSoC6\pdl\drivers\peripheral\sysclk/cy_sysclk.h **** /*******************************************************************************
1545:Generated_Source\PSoC6\pdl\drivers\peripheral\sysclk/cy_sysclk.h **** * Function Name: Cy_SysClk_ClkHfSetDivider
1546:Generated_Source\PSoC6\pdl\drivers\peripheral\sysclk/cy_sysclk.h **** ****************************************************************************//**
1547:Generated_Source\PSoC6\pdl\drivers\peripheral\sysclk/cy_sysclk.h **** *
1548:Generated_Source\PSoC6\pdl\drivers\peripheral\sysclk/cy_sysclk.h **** * Sets the pre-divider for a clkHf.
1549:Generated_Source\PSoC6\pdl\drivers\peripheral\sysclk/cy_sysclk.h **** *
1550:Generated_Source\PSoC6\pdl\drivers\peripheral\sysclk/cy_sysclk.h **** * \param clkHf selects which clkHf divider to configure.
1551:Generated_Source\PSoC6\pdl\drivers\peripheral\sysclk/cy_sysclk.h **** *
1552:Generated_Source\PSoC6\pdl\drivers\peripheral\sysclk/cy_sysclk.h **** * \param divider \ref cy_en_clkhf_dividers_t
1553:Generated_Source\PSoC6\pdl\drivers\peripheral\sysclk/cy_sysclk.h **** *
1554:Generated_Source\PSoC6\pdl\drivers\peripheral\sysclk/cy_sysclk.h **** * \return \ref cy_en_sysclk_status_t
ARM GAS  C:\Users\kiwamu\AppData\Local\Temp\ccIx7zyv.s 			page 126


1555:Generated_Source\PSoC6\pdl\drivers\peripheral\sysclk/cy_sysclk.h **** *
1556:Generated_Source\PSoC6\pdl\drivers\peripheral\sysclk/cy_sysclk.h **** * \note Also call \ref Cy_SysClk_ClkHfSetSource to set the clkHf source.
1557:Generated_Source\PSoC6\pdl\drivers\peripheral\sysclk/cy_sysclk.h **** *******************************************************************************/
1558:Generated_Source\PSoC6\pdl\drivers\peripheral\sysclk/cy_sysclk.h **** __STATIC_INLINE cy_en_sysclk_status_t Cy_SysClk_ClkHfSetDivider(uint32_t clkHf, cy_en_clkhf_divider
1559:Generated_Source\PSoC6\pdl\drivers\peripheral\sysclk/cy_sysclk.h **** {
1560:Generated_Source\PSoC6\pdl\drivers\peripheral\sysclk/cy_sysclk.h ****     cy_en_sysclk_status_t retval = CY_SYSCLK_BAD_PARAM;
1561:Generated_Source\PSoC6\pdl\drivers\peripheral\sysclk/cy_sysclk.h ****     if ((clkHf < SRSS_NUM_HFROOT) && (divider <= CY_SYSCLK_CLKHF_DIVIDE_BY_8))
1562:Generated_Source\PSoC6\pdl\drivers\peripheral\sysclk/cy_sysclk.h ****     {
1563:Generated_Source\PSoC6\pdl\drivers\peripheral\sysclk/cy_sysclk.h ****         CY_SYSCLK_CLR_SET(SRSS->CLK_ROOT_SELECT[clkHf], SRSS_CLK_ROOT_SELECT_ROOT_DIV, divider);
1564:Generated_Source\PSoC6\pdl\drivers\peripheral\sysclk/cy_sysclk.h ****         retval = CY_SYSCLK_SUCCESS;
1565:Generated_Source\PSoC6\pdl\drivers\peripheral\sysclk/cy_sysclk.h ****     }
1566:Generated_Source\PSoC6\pdl\drivers\peripheral\sysclk/cy_sysclk.h ****     return (retval);
1567:Generated_Source\PSoC6\pdl\drivers\peripheral\sysclk/cy_sysclk.h **** }
1568:Generated_Source\PSoC6\pdl\drivers\peripheral\sysclk/cy_sysclk.h **** 
1569:Generated_Source\PSoC6\pdl\drivers\peripheral\sysclk/cy_sysclk.h **** /*******************************************************************************
1570:Generated_Source\PSoC6\pdl\drivers\peripheral\sysclk/cy_sysclk.h **** * Function Name: Cy_SysClk_ClkHfGetDivider
1571:Generated_Source\PSoC6\pdl\drivers\peripheral\sysclk/cy_sysclk.h **** ****************************************************************************//**
1572:Generated_Source\PSoC6\pdl\drivers\peripheral\sysclk/cy_sysclk.h **** *
1573:Generated_Source\PSoC6\pdl\drivers\peripheral\sysclk/cy_sysclk.h **** * Reports the pre-divider value for a clkHf.
1574:Generated_Source\PSoC6\pdl\drivers\peripheral\sysclk/cy_sysclk.h **** *
1575:Generated_Source\PSoC6\pdl\drivers\peripheral\sysclk/cy_sysclk.h **** * \param clkHf selects which clkHf to check divider of.
1576:Generated_Source\PSoC6\pdl\drivers\peripheral\sysclk/cy_sysclk.h **** *
1577:Generated_Source\PSoC6\pdl\drivers\peripheral\sysclk/cy_sysclk.h **** * \return \ref cy_en_clkhf_dividers_t
1578:Generated_Source\PSoC6\pdl\drivers\peripheral\sysclk/cy_sysclk.h **** *
1579:Generated_Source\PSoC6\pdl\drivers\peripheral\sysclk/cy_sysclk.h **** *******************************************************************************/
1580:Generated_Source\PSoC6\pdl\drivers\peripheral\sysclk/cy_sysclk.h **** __STATIC_INLINE cy_en_clkhf_dividers_t Cy_SysClk_ClkHfGetDivider(uint32_t clkHf)
1581:Generated_Source\PSoC6\pdl\drivers\peripheral\sysclk/cy_sysclk.h **** {
1582:Generated_Source\PSoC6\pdl\drivers\peripheral\sysclk/cy_sysclk.h ****     CY_ASSERT_L1(clkHf < SRSS_NUM_HFROOT);
1583:Generated_Source\PSoC6\pdl\drivers\peripheral\sysclk/cy_sysclk.h ****     return (cy_en_clkhf_dividers_t)(_FLD2VAL(SRSS_CLK_ROOT_SELECT_ROOT_DIV, SRSS->CLK_ROOT_SELECT[c
 3778              		.loc 2 1583 0
 3779 0176 E023     		movs	r3, #224
 3780 0178 9B00     		lsls	r3, r3, #2
 3781 017a 464A     		ldr	r2, .L302+4
 3782 017c D358     		ldr	r3, [r2, r3]
 3783 017e 1B09     		lsrs	r3, r3, #4
 3784 0180 0322     		movs	r2, #3
 3785 0182 1340     		ands	r3, r2
 3786              	.LVL464:
 3787              	.LBE86:
 3788              	.LBE85:
1604:Generated_Source\PSoC6\pdl\drivers\peripheral\sysclk/cy_sysclk.c ****                 }
1605:Generated_Source\PSoC6\pdl\drivers\peripheral\sysclk/cy_sysclk.c ****             }
1606:Generated_Source\PSoC6\pdl\drivers\peripheral\sysclk/cy_sysclk.c ****         }
1607:Generated_Source\PSoC6\pdl\drivers\peripheral\sysclk/cy_sysclk.c ****         else /* assume clk_path < SRSS_NUM_CLKPATH */
1608:Generated_Source\PSoC6\pdl\drivers\peripheral\sysclk/cy_sysclk.c ****         { /* direct select path */
1609:Generated_Source\PSoC6\pdl\drivers\peripheral\sysclk/cy_sysclk.c ****             path_freq = source_freq;
1610:Generated_Source\PSoC6\pdl\drivers\peripheral\sysclk/cy_sysclk.c ****         }
1611:Generated_Source\PSoC6\pdl\drivers\peripheral\sysclk/cy_sysclk.c **** 
1612:Generated_Source\PSoC6\pdl\drivers\peripheral\sysclk/cy_sysclk.c ****         /* get the prescaler value for root 0, or clkHf[0]: 1/2/4/8 */
1613:Generated_Source\PSoC6\pdl\drivers\peripheral\sysclk/cy_sysclk.c ****         root_div = 1ul << (uint32_t)Cy_SysClk_ClkHfGetDivider(0ul);
 3789              		.loc 1 1613 0
 3790 0184 023A     		subs	r2, r2, #2
 3791 0186 9A40     		lsls	r2, r2, r3
 3792 0188 9046     		mov	r8, r2
 3793              	.LVL465:
 3794              	.LBB87:
 3795              	.LBB88:
ARM GAS  C:\Users\kiwamu\AppData\Local\Temp\ccIx7zyv.s 			page 127


1584:Generated_Source\PSoC6\pdl\drivers\peripheral\sysclk/cy_sysclk.h **** }
1585:Generated_Source\PSoC6\pdl\drivers\peripheral\sysclk/cy_sysclk.h **** /** \} group_sysclk_clk_hf_funcs */
1586:Generated_Source\PSoC6\pdl\drivers\peripheral\sysclk/cy_sysclk.h **** 
1587:Generated_Source\PSoC6\pdl\drivers\peripheral\sysclk/cy_sysclk.h **** 
1588:Generated_Source\PSoC6\pdl\drivers\peripheral\sysclk/cy_sysclk.h **** /* ========================================================================== */
1589:Generated_Source\PSoC6\pdl\drivers\peripheral\sysclk/cy_sysclk.h **** /* =========================    clk_fast SECTION    ========================= */
1590:Generated_Source\PSoC6\pdl\drivers\peripheral\sysclk/cy_sysclk.h **** /* ========================================================================== */
1591:Generated_Source\PSoC6\pdl\drivers\peripheral\sysclk/cy_sysclk.h **** /**
1592:Generated_Source\PSoC6\pdl\drivers\peripheral\sysclk/cy_sysclk.h **** * \addtogroup group_sysclk_clk_fast_funcs
1593:Generated_Source\PSoC6\pdl\drivers\peripheral\sysclk/cy_sysclk.h **** * \{
1594:Generated_Source\PSoC6\pdl\drivers\peripheral\sysclk/cy_sysclk.h **** */
1595:Generated_Source\PSoC6\pdl\drivers\peripheral\sysclk/cy_sysclk.h **** __STATIC_INLINE void Cy_SysClk_ClkFastSetDivider(uint8_t divider);
1596:Generated_Source\PSoC6\pdl\drivers\peripheral\sysclk/cy_sysclk.h **** __STATIC_INLINE uint8_t Cy_SysClk_ClkFastGetDivider(void);
1597:Generated_Source\PSoC6\pdl\drivers\peripheral\sysclk/cy_sysclk.h **** 
1598:Generated_Source\PSoC6\pdl\drivers\peripheral\sysclk/cy_sysclk.h **** /*******************************************************************************
1599:Generated_Source\PSoC6\pdl\drivers\peripheral\sysclk/cy_sysclk.h **** * Function Name: Cy_SysClk_ClkFastSetDivider
1600:Generated_Source\PSoC6\pdl\drivers\peripheral\sysclk/cy_sysclk.h **** ****************************************************************************//**
1601:Generated_Source\PSoC6\pdl\drivers\peripheral\sysclk/cy_sysclk.h **** *
1602:Generated_Source\PSoC6\pdl\drivers\peripheral\sysclk/cy_sysclk.h **** * Sets the clock divider for the fast clock, which sources the main processor.
1603:Generated_Source\PSoC6\pdl\drivers\peripheral\sysclk/cy_sysclk.h **** * The source of this divider is clkHf[0].
1604:Generated_Source\PSoC6\pdl\drivers\peripheral\sysclk/cy_sysclk.h **** *
1605:Generated_Source\PSoC6\pdl\drivers\peripheral\sysclk/cy_sysclk.h **** * \param divider divider value between 0 and 255.
1606:Generated_Source\PSoC6\pdl\drivers\peripheral\sysclk/cy_sysclk.h **** * Causes integer division of (divider value + 1), or division by 1 to 256.
1607:Generated_Source\PSoC6\pdl\drivers\peripheral\sysclk/cy_sysclk.h **** *
1608:Generated_Source\PSoC6\pdl\drivers\peripheral\sysclk/cy_sysclk.h **** *******************************************************************************/
1609:Generated_Source\PSoC6\pdl\drivers\peripheral\sysclk/cy_sysclk.h **** __STATIC_INLINE void Cy_SysClk_ClkFastSetDivider(uint8_t divider)
1610:Generated_Source\PSoC6\pdl\drivers\peripheral\sysclk/cy_sysclk.h **** {
1611:Generated_Source\PSoC6\pdl\drivers\peripheral\sysclk/cy_sysclk.h ****     CY_SYSCLK_CLR_SET(CPUSS->CM4_CLOCK_CTL, CPUSS_CM4_CLOCK_CTL_FAST_INT_DIV, (uint32_t)divider);
1612:Generated_Source\PSoC6\pdl\drivers\peripheral\sysclk/cy_sysclk.h **** }
1613:Generated_Source\PSoC6\pdl\drivers\peripheral\sysclk/cy_sysclk.h **** 
1614:Generated_Source\PSoC6\pdl\drivers\peripheral\sysclk/cy_sysclk.h **** /*******************************************************************************
1615:Generated_Source\PSoC6\pdl\drivers\peripheral\sysclk/cy_sysclk.h **** * Function Name: Cy_SysClk_ClkFastGetDivider
1616:Generated_Source\PSoC6\pdl\drivers\peripheral\sysclk/cy_sysclk.h **** ****************************************************************************//**
1617:Generated_Source\PSoC6\pdl\drivers\peripheral\sysclk/cy_sysclk.h **** *
1618:Generated_Source\PSoC6\pdl\drivers\peripheral\sysclk/cy_sysclk.h **** * Returns the clock divider for the fast clock.
1619:Generated_Source\PSoC6\pdl\drivers\peripheral\sysclk/cy_sysclk.h **** *
1620:Generated_Source\PSoC6\pdl\drivers\peripheral\sysclk/cy_sysclk.h **** * \return The divider value for the fast clock.
1621:Generated_Source\PSoC6\pdl\drivers\peripheral\sysclk/cy_sysclk.h **** * The integer division done is by (divider value + 1), or division by 1 to 256.
1622:Generated_Source\PSoC6\pdl\drivers\peripheral\sysclk/cy_sysclk.h **** *
1623:Generated_Source\PSoC6\pdl\drivers\peripheral\sysclk/cy_sysclk.h **** *******************************************************************************/
1624:Generated_Source\PSoC6\pdl\drivers\peripheral\sysclk/cy_sysclk.h **** __STATIC_INLINE uint8_t Cy_SysClk_ClkFastGetDivider(void)
1625:Generated_Source\PSoC6\pdl\drivers\peripheral\sysclk/cy_sysclk.h **** {
1626:Generated_Source\PSoC6\pdl\drivers\peripheral\sysclk/cy_sysclk.h ****     return ((uint8_t)_FLD2VAL(CPUSS_CM4_CLOCK_CTL_FAST_INT_DIV, CPUSS->CM4_CLOCK_CTL));
1627:Generated_Source\PSoC6\pdl\drivers\peripheral\sysclk/cy_sysclk.h **** }
1628:Generated_Source\PSoC6\pdl\drivers\peripheral\sysclk/cy_sysclk.h **** /** \} group_sysclk_clk_fast_funcs */
1629:Generated_Source\PSoC6\pdl\drivers\peripheral\sysclk/cy_sysclk.h **** 
1630:Generated_Source\PSoC6\pdl\drivers\peripheral\sysclk/cy_sysclk.h **** 
1631:Generated_Source\PSoC6\pdl\drivers\peripheral\sysclk/cy_sysclk.h **** /* ========================================================================== */
1632:Generated_Source\PSoC6\pdl\drivers\peripheral\sysclk/cy_sysclk.h **** /* ========================    clk_peri SECTION    ========================== */
1633:Generated_Source\PSoC6\pdl\drivers\peripheral\sysclk/cy_sysclk.h **** /* ========================================================================== */
1634:Generated_Source\PSoC6\pdl\drivers\peripheral\sysclk/cy_sysclk.h **** /**
1635:Generated_Source\PSoC6\pdl\drivers\peripheral\sysclk/cy_sysclk.h **** * \addtogroup group_sysclk_clk_peri_funcs
1636:Generated_Source\PSoC6\pdl\drivers\peripheral\sysclk/cy_sysclk.h **** * \{
1637:Generated_Source\PSoC6\pdl\drivers\peripheral\sysclk/cy_sysclk.h **** */
1638:Generated_Source\PSoC6\pdl\drivers\peripheral\sysclk/cy_sysclk.h **** __STATIC_INLINE void Cy_SysClk_ClkPeriSetDivider(uint8_t divider);
1639:Generated_Source\PSoC6\pdl\drivers\peripheral\sysclk/cy_sysclk.h **** __STATIC_INLINE uint8_t Cy_SysClk_ClkPeriGetDivider(void);
1640:Generated_Source\PSoC6\pdl\drivers\peripheral\sysclk/cy_sysclk.h **** 
ARM GAS  C:\Users\kiwamu\AppData\Local\Temp\ccIx7zyv.s 			page 128


1641:Generated_Source\PSoC6\pdl\drivers\peripheral\sysclk/cy_sysclk.h **** /*******************************************************************************
1642:Generated_Source\PSoC6\pdl\drivers\peripheral\sysclk/cy_sysclk.h **** * Function Name: Cy_SysClk_ClkPeriSetDivider
1643:Generated_Source\PSoC6\pdl\drivers\peripheral\sysclk/cy_sysclk.h **** ****************************************************************************//**
1644:Generated_Source\PSoC6\pdl\drivers\peripheral\sysclk/cy_sysclk.h **** *
1645:Generated_Source\PSoC6\pdl\drivers\peripheral\sysclk/cy_sysclk.h **** * Sets the clock divider for the peripheral clock tree. All peripheral clock
1646:Generated_Source\PSoC6\pdl\drivers\peripheral\sysclk/cy_sysclk.h **** * dividers are sourced from this clock. Also the Cortex M0+ clock divider is
1647:Generated_Source\PSoC6\pdl\drivers\peripheral\sysclk/cy_sysclk.h **** * sourced from this clock. The source of this divider is clkHf[0]
1648:Generated_Source\PSoC6\pdl\drivers\peripheral\sysclk/cy_sysclk.h **** *
1649:Generated_Source\PSoC6\pdl\drivers\peripheral\sysclk/cy_sysclk.h **** * \param divider divider value between 0 and 255
1650:Generated_Source\PSoC6\pdl\drivers\peripheral\sysclk/cy_sysclk.h **** * Causes integer division of (divider value + 1), or division by 1 to 256.
1651:Generated_Source\PSoC6\pdl\drivers\peripheral\sysclk/cy_sysclk.h **** *
1652:Generated_Source\PSoC6\pdl\drivers\peripheral\sysclk/cy_sysclk.h **** *******************************************************************************/
1653:Generated_Source\PSoC6\pdl\drivers\peripheral\sysclk/cy_sysclk.h **** __STATIC_INLINE void Cy_SysClk_ClkPeriSetDivider(uint8_t divider)
1654:Generated_Source\PSoC6\pdl\drivers\peripheral\sysclk/cy_sysclk.h **** {
1655:Generated_Source\PSoC6\pdl\drivers\peripheral\sysclk/cy_sysclk.h ****     CY_SYSCLK_CLR_SET(CPUSS->CM0_CLOCK_CTL, CPUSS_CM0_CLOCK_CTL_PERI_INT_DIV, (uint32_t)divider);
1656:Generated_Source\PSoC6\pdl\drivers\peripheral\sysclk/cy_sysclk.h **** }
1657:Generated_Source\PSoC6\pdl\drivers\peripheral\sysclk/cy_sysclk.h **** 
1658:Generated_Source\PSoC6\pdl\drivers\peripheral\sysclk/cy_sysclk.h **** /*******************************************************************************
1659:Generated_Source\PSoC6\pdl\drivers\peripheral\sysclk/cy_sysclk.h **** * Function Name: Cy_SysClk_ClkPeriGetDivider
1660:Generated_Source\PSoC6\pdl\drivers\peripheral\sysclk/cy_sysclk.h **** ****************************************************************************//**
1661:Generated_Source\PSoC6\pdl\drivers\peripheral\sysclk/cy_sysclk.h **** *
1662:Generated_Source\PSoC6\pdl\drivers\peripheral\sysclk/cy_sysclk.h **** * Returns the clock divider of the peripheral (peri) clock.
1663:Generated_Source\PSoC6\pdl\drivers\peripheral\sysclk/cy_sysclk.h **** *
1664:Generated_Source\PSoC6\pdl\drivers\peripheral\sysclk/cy_sysclk.h **** * \return The divider value.
1665:Generated_Source\PSoC6\pdl\drivers\peripheral\sysclk/cy_sysclk.h **** * The integer division done is by (divider value + 1), or division by 1 to 256.
1666:Generated_Source\PSoC6\pdl\drivers\peripheral\sysclk/cy_sysclk.h **** *
1667:Generated_Source\PSoC6\pdl\drivers\peripheral\sysclk/cy_sysclk.h **** *******************************************************************************/
1668:Generated_Source\PSoC6\pdl\drivers\peripheral\sysclk/cy_sysclk.h **** __STATIC_INLINE uint8_t Cy_SysClk_ClkPeriGetDivider(void)
1669:Generated_Source\PSoC6\pdl\drivers\peripheral\sysclk/cy_sysclk.h **** {
1670:Generated_Source\PSoC6\pdl\drivers\peripheral\sysclk/cy_sysclk.h ****     return ((uint8_t)_FLD2VAL(CPUSS_CM0_CLOCK_CTL_PERI_INT_DIV, CPUSS->CM0_CLOCK_CTL));
 3796              		.loc 2 1670 0
 3797 018a 464B     		ldr	r3, .L302+20
 3798 018c 1C69     		ldr	r4, [r3, #16]
 3799              	.LBE88:
 3800              	.LBE87:
1614:Generated_Source\PSoC6\pdl\drivers\peripheral\sysclk/cy_sysclk.c **** 
1615:Generated_Source\PSoC6\pdl\drivers\peripheral\sysclk/cy_sysclk.c ****         /* get the predivider value for clkHf[0] to clk_peri */
1616:Generated_Source\PSoC6\pdl\drivers\peripheral\sysclk/cy_sysclk.c ****         clkHf0_div = (uint32_t)Cy_SysClk_ClkPeriGetDivider() + 1ul;
 3801              		.loc 1 1616 0
 3802 018e 240E     		lsrs	r4, r4, #24
 3803 0190 0134     		adds	r4, r4, #1
 3804              	.LVL466:
1617:Generated_Source\PSoC6\pdl\drivers\peripheral\sysclk/cy_sysclk.c **** 
1618:Generated_Source\PSoC6\pdl\drivers\peripheral\sysclk/cy_sysclk.c ****         /* get the divider value for clk_peri to the selected peripheral clock */
1619:Generated_Source\PSoC6\pdl\drivers\peripheral\sysclk/cy_sysclk.c ****         switch(dividerType)
 3805              		.loc 1 1619 0
 3806 0192 012E     		cmp	r6, #1
 3807 0194 02D9     		bls	.L282
 3808 0196 032E     		cmp	r6, #3
 3809 0198 62D8     		bhi	.L281
 3810 019a 2BE0     		b	.L301
 3811              	.L282:
 3812              	.LVL467:
 3813              	.LBB89:
 3814              	.LBB90:
1671:Generated_Source\PSoC6\pdl\drivers\peripheral\sysclk/cy_sysclk.h **** }
1672:Generated_Source\PSoC6\pdl\drivers\peripheral\sysclk/cy_sysclk.h **** /** \} group_sysclk_clk_peri_funcs */
ARM GAS  C:\Users\kiwamu\AppData\Local\Temp\ccIx7zyv.s 			page 129


1673:Generated_Source\PSoC6\pdl\drivers\peripheral\sysclk/cy_sysclk.h **** 
1674:Generated_Source\PSoC6\pdl\drivers\peripheral\sysclk/cy_sysclk.h **** 
1675:Generated_Source\PSoC6\pdl\drivers\peripheral\sysclk/cy_sysclk.h **** /* ========================================================================== */
1676:Generated_Source\PSoC6\pdl\drivers\peripheral\sysclk/cy_sysclk.h **** /* =====================    clk_peripherals SECTION    ====================== */
1677:Generated_Source\PSoC6\pdl\drivers\peripheral\sysclk/cy_sysclk.h **** /* ========================================================================== */
1678:Generated_Source\PSoC6\pdl\drivers\peripheral\sysclk/cy_sysclk.h **** /**
1679:Generated_Source\PSoC6\pdl\drivers\peripheral\sysclk/cy_sysclk.h **** * \addtogroup group_sysclk_clk_peripheral_enums
1680:Generated_Source\PSoC6\pdl\drivers\peripheral\sysclk/cy_sysclk.h **** * \{
1681:Generated_Source\PSoC6\pdl\drivers\peripheral\sysclk/cy_sysclk.h **** */
1682:Generated_Source\PSoC6\pdl\drivers\peripheral\sysclk/cy_sysclk.h **** /** Programmable clock divider types */
1683:Generated_Source\PSoC6\pdl\drivers\peripheral\sysclk/cy_sysclk.h **** typedef enum
1684:Generated_Source\PSoC6\pdl\drivers\peripheral\sysclk/cy_sysclk.h **** {
1685:Generated_Source\PSoC6\pdl\drivers\peripheral\sysclk/cy_sysclk.h ****     CY_SYSCLK_DIV_8_BIT    = 0u, /**< Divider Type is an 8 bit divider */
1686:Generated_Source\PSoC6\pdl\drivers\peripheral\sysclk/cy_sysclk.h ****     CY_SYSCLK_DIV_16_BIT   = 1u, /**< Divider Type is a 16 bit divider */
1687:Generated_Source\PSoC6\pdl\drivers\peripheral\sysclk/cy_sysclk.h ****     CY_SYSCLK_DIV_16_5_BIT = 2u, /**< Divider Type is a 16.5 bit fractional divider */
1688:Generated_Source\PSoC6\pdl\drivers\peripheral\sysclk/cy_sysclk.h ****     CY_SYSCLK_DIV_24_5_BIT = 3u  /**< Divider Type is a 24.5 bit fractional divider */
1689:Generated_Source\PSoC6\pdl\drivers\peripheral\sysclk/cy_sysclk.h **** } cy_en_divider_types_t;
1690:Generated_Source\PSoC6\pdl\drivers\peripheral\sysclk/cy_sysclk.h **** /** \} group_sysclk_clk_peripheral_enums */
1691:Generated_Source\PSoC6\pdl\drivers\peripheral\sysclk/cy_sysclk.h **** 
1692:Generated_Source\PSoC6\pdl\drivers\peripheral\sysclk/cy_sysclk.h **** /**
1693:Generated_Source\PSoC6\pdl\drivers\peripheral\sysclk/cy_sysclk.h **** * \addtogroup group_sysclk_clk_peripheral_funcs
1694:Generated_Source\PSoC6\pdl\drivers\peripheral\sysclk/cy_sysclk.h **** * \{
1695:Generated_Source\PSoC6\pdl\drivers\peripheral\sysclk/cy_sysclk.h **** */
1696:Generated_Source\PSoC6\pdl\drivers\peripheral\sysclk/cy_sysclk.h **** __STATIC_INLINE cy_en_sysclk_status_t Cy_SysClk_PeriphSetDivider(cy_en_divider_types_t dividerType,
1697:Generated_Source\PSoC6\pdl\drivers\peripheral\sysclk/cy_sysclk.h **** __STATIC_INLINE uint32_t Cy_SysClk_PeriphGetDivider(cy_en_divider_types_t dividerType, uint32_t div
1698:Generated_Source\PSoC6\pdl\drivers\peripheral\sysclk/cy_sysclk.h **** __STATIC_INLINE cy_en_sysclk_status_t Cy_SysClk_PeriphSetFracDivider(cy_en_divider_types_t dividerT
1699:Generated_Source\PSoC6\pdl\drivers\peripheral\sysclk/cy_sysclk.h **** __STATIC_INLINE void Cy_SysClk_PeriphGetFracDivider(cy_en_divider_types_t dividerType, uint32_t div
1700:Generated_Source\PSoC6\pdl\drivers\peripheral\sysclk/cy_sysclk.h **** __STATIC_INLINE cy_en_sysclk_status_t Cy_SysClk_PeriphAssignDivider(en_clk_dst_t ipBlock, cy_en_div
1701:Generated_Source\PSoC6\pdl\drivers\peripheral\sysclk/cy_sysclk.h **** __STATIC_INLINE uint32_t Cy_SysClk_PeriphGetAssignedDivider(en_clk_dst_t ipBlock);
1702:Generated_Source\PSoC6\pdl\drivers\peripheral\sysclk/cy_sysclk.h **** __STATIC_INLINE cy_en_sysclk_status_t Cy_SysClk_PeriphEnableDivider(cy_en_divider_types_t dividerTy
1703:Generated_Source\PSoC6\pdl\drivers\peripheral\sysclk/cy_sysclk.h **** __STATIC_INLINE cy_en_sysclk_status_t Cy_SysClk_PeriphDisableDivider(cy_en_divider_types_t dividerT
1704:Generated_Source\PSoC6\pdl\drivers\peripheral\sysclk/cy_sysclk.h **** __STATIC_INLINE cy_en_sysclk_status_t Cy_SysClk_PeriphEnablePhaseAlignDivider(cy_en_divider_types_t
1705:Generated_Source\PSoC6\pdl\drivers\peripheral\sysclk/cy_sysclk.h **** __STATIC_INLINE bool Cy_SysClk_PeriphGetDividerEnabled(cy_en_divider_types_t dividerType, uint32_t 
1706:Generated_Source\PSoC6\pdl\drivers\peripheral\sysclk/cy_sysclk.h **** uint32_t Cy_SysClk_PeriphGetFrequency(cy_en_divider_types_t dividerType, uint32_t dividerNum);
1707:Generated_Source\PSoC6\pdl\drivers\peripheral\sysclk/cy_sysclk.h **** 
1708:Generated_Source\PSoC6\pdl\drivers\peripheral\sysclk/cy_sysclk.h **** /*******************************************************************************
1709:Generated_Source\PSoC6\pdl\drivers\peripheral\sysclk/cy_sysclk.h **** * Function Name: Cy_SysClk_PeriphSetDivider
1710:Generated_Source\PSoC6\pdl\drivers\peripheral\sysclk/cy_sysclk.h **** ****************************************************************************//**
1711:Generated_Source\PSoC6\pdl\drivers\peripheral\sysclk/cy_sysclk.h **** *
1712:Generated_Source\PSoC6\pdl\drivers\peripheral\sysclk/cy_sysclk.h **** * Sets one of the programmable clock dividers. This is only used for integer
1713:Generated_Source\PSoC6\pdl\drivers\peripheral\sysclk/cy_sysclk.h **** * dividers. Use \ref Cy_SysClk_PeriphSetFracDivider for setting factional dividers.
1714:Generated_Source\PSoC6\pdl\drivers\peripheral\sysclk/cy_sysclk.h **** *
1715:Generated_Source\PSoC6\pdl\drivers\peripheral\sysclk/cy_sysclk.h **** * \param dividerType specifies which type of divider to use; \ref cy_en_divider_types_t
1716:Generated_Source\PSoC6\pdl\drivers\peripheral\sysclk/cy_sysclk.h **** *
1717:Generated_Source\PSoC6\pdl\drivers\peripheral\sysclk/cy_sysclk.h **** * \param dividerNum the divider number.
1718:Generated_Source\PSoC6\pdl\drivers\peripheral\sysclk/cy_sysclk.h **** *
1719:Generated_Source\PSoC6\pdl\drivers\peripheral\sysclk/cy_sysclk.h **** * \param dividerValue divider value
1720:Generated_Source\PSoC6\pdl\drivers\peripheral\sysclk/cy_sysclk.h **** * Causes integer division of (divider value + 1), or division by 1 to 256
1721:Generated_Source\PSoC6\pdl\drivers\peripheral\sysclk/cy_sysclk.h **** * (8-bit divider) or 1 to 65536 (16-bit divider).
1722:Generated_Source\PSoC6\pdl\drivers\peripheral\sysclk/cy_sysclk.h **** *
1723:Generated_Source\PSoC6\pdl\drivers\peripheral\sysclk/cy_sysclk.h **** * \return \ref cy_en_sysclk_status_t
1724:Generated_Source\PSoC6\pdl\drivers\peripheral\sysclk/cy_sysclk.h **** *
1725:Generated_Source\PSoC6\pdl\drivers\peripheral\sysclk/cy_sysclk.h **** *******************************************************************************/
1726:Generated_Source\PSoC6\pdl\drivers\peripheral\sysclk/cy_sysclk.h **** __STATIC_INLINE cy_en_sysclk_status_t
1727:Generated_Source\PSoC6\pdl\drivers\peripheral\sysclk/cy_sysclk.h ****                 Cy_SysClk_PeriphSetDivider(cy_en_divider_types_t dividerType,
1728:Generated_Source\PSoC6\pdl\drivers\peripheral\sysclk/cy_sysclk.h ****                                            uint32_t dividerNum, uint32_t dividerValue)
1729:Generated_Source\PSoC6\pdl\drivers\peripheral\sysclk/cy_sysclk.h **** {
ARM GAS  C:\Users\kiwamu\AppData\Local\Temp\ccIx7zyv.s 			page 130


1730:Generated_Source\PSoC6\pdl\drivers\peripheral\sysclk/cy_sysclk.h ****     cy_en_sysclk_status_t retval = CY_SYSCLK_BAD_PARAM;
1731:Generated_Source\PSoC6\pdl\drivers\peripheral\sysclk/cy_sysclk.h ****     if (dividerType == CY_SYSCLK_DIV_8_BIT)
1732:Generated_Source\PSoC6\pdl\drivers\peripheral\sysclk/cy_sysclk.h ****     {
1733:Generated_Source\PSoC6\pdl\drivers\peripheral\sysclk/cy_sysclk.h ****         if ((dividerNum < PERI_DIV_8_NR) &&
1734:Generated_Source\PSoC6\pdl\drivers\peripheral\sysclk/cy_sysclk.h ****             (dividerValue <= (PERI_DIV_8_CTL_INT8_DIV_Msk >> PERI_DIV_8_CTL_INT8_DIV_Pos)))
1735:Generated_Source\PSoC6\pdl\drivers\peripheral\sysclk/cy_sysclk.h ****         {
1736:Generated_Source\PSoC6\pdl\drivers\peripheral\sysclk/cy_sysclk.h ****             CY_SYSCLK_CLR_SET(PERI->DIV_8_CTL[dividerNum], PERI_DIV_8_CTL_INT8_DIV, dividerValue);
1737:Generated_Source\PSoC6\pdl\drivers\peripheral\sysclk/cy_sysclk.h ****             retval = CY_SYSCLK_SUCCESS;
1738:Generated_Source\PSoC6\pdl\drivers\peripheral\sysclk/cy_sysclk.h ****         }
1739:Generated_Source\PSoC6\pdl\drivers\peripheral\sysclk/cy_sysclk.h ****     }
1740:Generated_Source\PSoC6\pdl\drivers\peripheral\sysclk/cy_sysclk.h ****     else if (dividerType == CY_SYSCLK_DIV_16_BIT)
1741:Generated_Source\PSoC6\pdl\drivers\peripheral\sysclk/cy_sysclk.h ****     {
1742:Generated_Source\PSoC6\pdl\drivers\peripheral\sysclk/cy_sysclk.h ****         if ((dividerNum < PERI_DIV_16_NR) &&
1743:Generated_Source\PSoC6\pdl\drivers\peripheral\sysclk/cy_sysclk.h ****             (dividerValue <= (PERI_DIV_16_CTL_INT16_DIV_Msk >> PERI_DIV_16_CTL_INT16_DIV_Pos)))
1744:Generated_Source\PSoC6\pdl\drivers\peripheral\sysclk/cy_sysclk.h ****         {
1745:Generated_Source\PSoC6\pdl\drivers\peripheral\sysclk/cy_sysclk.h ****             CY_SYSCLK_CLR_SET(PERI->DIV_16_CTL[dividerNum], PERI_DIV_16_CTL_INT16_DIV, dividerValue
1746:Generated_Source\PSoC6\pdl\drivers\peripheral\sysclk/cy_sysclk.h ****             retval = CY_SYSCLK_SUCCESS;
1747:Generated_Source\PSoC6\pdl\drivers\peripheral\sysclk/cy_sysclk.h ****         }
1748:Generated_Source\PSoC6\pdl\drivers\peripheral\sysclk/cy_sysclk.h ****     }
1749:Generated_Source\PSoC6\pdl\drivers\peripheral\sysclk/cy_sysclk.h ****     else
1750:Generated_Source\PSoC6\pdl\drivers\peripheral\sysclk/cy_sysclk.h ****     { /* return bad parameter */
1751:Generated_Source\PSoC6\pdl\drivers\peripheral\sysclk/cy_sysclk.h ****     }
1752:Generated_Source\PSoC6\pdl\drivers\peripheral\sysclk/cy_sysclk.h ****     return (retval);
1753:Generated_Source\PSoC6\pdl\drivers\peripheral\sysclk/cy_sysclk.h **** }
1754:Generated_Source\PSoC6\pdl\drivers\peripheral\sysclk/cy_sysclk.h **** 
1755:Generated_Source\PSoC6\pdl\drivers\peripheral\sysclk/cy_sysclk.h **** /*******************************************************************************
1756:Generated_Source\PSoC6\pdl\drivers\peripheral\sysclk/cy_sysclk.h **** * Function Name: Cy_SysClk_PeriphGetDivider
1757:Generated_Source\PSoC6\pdl\drivers\peripheral\sysclk/cy_sysclk.h **** ****************************************************************************//**
1758:Generated_Source\PSoC6\pdl\drivers\peripheral\sysclk/cy_sysclk.h **** *
1759:Generated_Source\PSoC6\pdl\drivers\peripheral\sysclk/cy_sysclk.h **** * Returns the integer divider value for the specified divider. One works for
1760:Generated_Source\PSoC6\pdl\drivers\peripheral\sysclk/cy_sysclk.h **** * integer dividers. Use \ref Cy_SysClk_PeriphGetFracDivider to get the fractional
1761:Generated_Source\PSoC6\pdl\drivers\peripheral\sysclk/cy_sysclk.h **** * divider value
1762:Generated_Source\PSoC6\pdl\drivers\peripheral\sysclk/cy_sysclk.h **** *
1763:Generated_Source\PSoC6\pdl\drivers\peripheral\sysclk/cy_sysclk.h **** * \param dividerType specifies which type of divider to use; \ref cy_en_divider_types_t
1764:Generated_Source\PSoC6\pdl\drivers\peripheral\sysclk/cy_sysclk.h **** *
1765:Generated_Source\PSoC6\pdl\drivers\peripheral\sysclk/cy_sysclk.h **** * \param dividerNum specifies which divider of the selected type to configure
1766:Generated_Source\PSoC6\pdl\drivers\peripheral\sysclk/cy_sysclk.h **** *
1767:Generated_Source\PSoC6\pdl\drivers\peripheral\sysclk/cy_sysclk.h **** * \return The divider value.
1768:Generated_Source\PSoC6\pdl\drivers\peripheral\sysclk/cy_sysclk.h **** * The integer division done is by (divider value + 1), or division by 1 to 256
1769:Generated_Source\PSoC6\pdl\drivers\peripheral\sysclk/cy_sysclk.h **** * (8-bit divider) or 1 to 65536 (16-bit divider).
1770:Generated_Source\PSoC6\pdl\drivers\peripheral\sysclk/cy_sysclk.h **** *
1771:Generated_Source\PSoC6\pdl\drivers\peripheral\sysclk/cy_sysclk.h **** *******************************************************************************/
1772:Generated_Source\PSoC6\pdl\drivers\peripheral\sysclk/cy_sysclk.h **** __STATIC_INLINE uint32_t Cy_SysClk_PeriphGetDivider(cy_en_divider_types_t dividerType, uint32_t div
1773:Generated_Source\PSoC6\pdl\drivers\peripheral\sysclk/cy_sysclk.h **** {
1774:Generated_Source\PSoC6\pdl\drivers\peripheral\sysclk/cy_sysclk.h ****     uint32_t retval;
1775:Generated_Source\PSoC6\pdl\drivers\peripheral\sysclk/cy_sysclk.h **** 
1776:Generated_Source\PSoC6\pdl\drivers\peripheral\sysclk/cy_sysclk.h ****     CY_ASSERT_L1(dividerType <= CY_SYSCLK_DIV_16_BIT);
 3815              		.loc 2 1776 0
 3816 019c 012E     		cmp	r6, #1
 3817 019e 04D9     		bls	.L284
 3818 01a0 DE21     		movs	r1, #222
 3819 01a2 C900     		lsls	r1, r1, #3
 3820 01a4 3D48     		ldr	r0, .L302+12
 3821 01a6 FFF7FEFF 		bl	Cy_SysLib_AssertFailed
 3822              	.LVL468:
 3823              	.L284:
1777:Generated_Source\PSoC6\pdl\drivers\peripheral\sysclk/cy_sysclk.h **** 
ARM GAS  C:\Users\kiwamu\AppData\Local\Temp\ccIx7zyv.s 			page 131


1778:Generated_Source\PSoC6\pdl\drivers\peripheral\sysclk/cy_sysclk.h ****     if (dividerType == CY_SYSCLK_DIV_8_BIT)
 3824              		.loc 2 1778 0
 3825 01aa 002E     		cmp	r6, #0
 3826 01ac 10D1     		bne	.L285
1779:Generated_Source\PSoC6\pdl\drivers\peripheral\sysclk/cy_sysclk.h ****     {
1780:Generated_Source\PSoC6\pdl\drivers\peripheral\sysclk/cy_sysclk.h ****         CY_ASSERT_L1(dividerNum < PERI_DIV_8_NR);
 3827              		.loc 2 1780 0
 3828 01ae 072F     		cmp	r7, #7
 3829 01b0 03D9     		bls	.L286
 3830 01b2 3D49     		ldr	r1, .L302+24
 3831 01b4 3948     		ldr	r0, .L302+12
 3832 01b6 FFF7FEFF 		bl	Cy_SysLib_AssertFailed
 3833              	.LVL469:
 3834              	.L286:
1781:Generated_Source\PSoC6\pdl\drivers\peripheral\sysclk/cy_sysclk.h ****         retval = _FLD2VAL(PERI_DIV_8_CTL_INT8_DIV, PERI->DIV_8_CTL[dividerNum]);
 3835              		.loc 2 1781 0
 3836 01ba 8023     		movs	r3, #128
 3837 01bc 9B00     		lsls	r3, r3, #2
 3838 01be 9C46     		mov	ip, r3
 3839 01c0 6744     		add	r7, r7, ip
 3840              	.LVL470:
 3841 01c2 BF00     		lsls	r7, r7, #2
 3842              	.LVL471:
 3843 01c4 394B     		ldr	r3, .L302+28
 3844 01c6 FB58     		ldr	r3, [r7, r3]
 3845 01c8 1B0A     		lsrs	r3, r3, #8
 3846 01ca FF22     		movs	r2, #255
 3847 01cc 1340     		ands	r3, r2
 3848              	.LVL472:
 3849 01ce 0FE0     		b	.L287
 3850              	.LVL473:
 3851              	.L285:
1782:Generated_Source\PSoC6\pdl\drivers\peripheral\sysclk/cy_sysclk.h ****     }
1783:Generated_Source\PSoC6\pdl\drivers\peripheral\sysclk/cy_sysclk.h ****     else
1784:Generated_Source\PSoC6\pdl\drivers\peripheral\sysclk/cy_sysclk.h ****     { /* 16-bit divider */
1785:Generated_Source\PSoC6\pdl\drivers\peripheral\sysclk/cy_sysclk.h ****         CY_ASSERT_L1(dividerNum < PERI_DIV_16_NR);
 3852              		.loc 2 1785 0
 3853 01d0 0F2F     		cmp	r7, #15
 3854 01d2 03D9     		bls	.L288
 3855 01d4 3649     		ldr	r1, .L302+32
 3856 01d6 3148     		ldr	r0, .L302+12
 3857 01d8 FFF7FEFF 		bl	Cy_SysLib_AssertFailed
 3858              	.LVL474:
 3859              	.L288:
1786:Generated_Source\PSoC6\pdl\drivers\peripheral\sysclk/cy_sysclk.h ****         retval = _FLD2VAL(PERI_DIV_16_CTL_INT16_DIV, PERI->DIV_16_CTL[dividerNum]);
 3860              		.loc 2 1786 0
 3861 01dc 9023     		movs	r3, #144
 3862 01de 9B00     		lsls	r3, r3, #2
 3863 01e0 9C46     		mov	ip, r3
 3864 01e2 6744     		add	r7, r7, ip
 3865              	.LVL475:
 3866 01e4 BF00     		lsls	r7, r7, #2
 3867              	.LVL476:
 3868 01e6 314B     		ldr	r3, .L302+28
 3869 01e8 FB58     		ldr	r3, [r7, r3]
 3870 01ea 1B0A     		lsrs	r3, r3, #8
 3871 01ec 1B04     		lsls	r3, r3, #16
ARM GAS  C:\Users\kiwamu\AppData\Local\Temp\ccIx7zyv.s 			page 132


 3872 01ee 1B0C     		lsrs	r3, r3, #16
 3873              	.LVL477:
 3874              	.L287:
 3875              	.LBE90:
 3876              	.LBE89:
1620:Generated_Source\PSoC6\pdl\drivers\peripheral\sysclk/cy_sysclk.c ****         {
1621:Generated_Source\PSoC6\pdl\drivers\peripheral\sysclk/cy_sysclk.c ****             case CY_SYSCLK_DIV_8_BIT:
1622:Generated_Source\PSoC6\pdl\drivers\peripheral\sysclk/cy_sysclk.c ****             case CY_SYSCLK_DIV_16_BIT:
1623:Generated_Source\PSoC6\pdl\drivers\peripheral\sysclk/cy_sysclk.c ****                 clkdiv.integer = (uint32_t)Cy_SysClk_PeriphGetDivider(dividerType, dividerNum);
 3877              		.loc 1 1623 0
 3878 01f0 0393     		str	r3, [sp, #12]
1624:Generated_Source\PSoC6\pdl\drivers\peripheral\sysclk/cy_sysclk.c ****                 /* frac = 0 means it's an integer divider */
1625:Generated_Source\PSoC6\pdl\drivers\peripheral\sysclk/cy_sysclk.c ****                 break;
 3879              		.loc 1 1625 0
 3880 01f2 35E0     		b	.L281
 3881              	.LVL478:
 3882              	.L301:
 3883              	.LBB91:
 3884              	.LBB92:
1787:Generated_Source\PSoC6\pdl\drivers\peripheral\sysclk/cy_sysclk.h ****     }
1788:Generated_Source\PSoC6\pdl\drivers\peripheral\sysclk/cy_sysclk.h ****     return (retval);
1789:Generated_Source\PSoC6\pdl\drivers\peripheral\sysclk/cy_sysclk.h **** }
1790:Generated_Source\PSoC6\pdl\drivers\peripheral\sysclk/cy_sysclk.h **** 
1791:Generated_Source\PSoC6\pdl\drivers\peripheral\sysclk/cy_sysclk.h **** /*******************************************************************************
1792:Generated_Source\PSoC6\pdl\drivers\peripheral\sysclk/cy_sysclk.h **** * Function Name: Cy_SysClk_PeriphSetFracDivider
1793:Generated_Source\PSoC6\pdl\drivers\peripheral\sysclk/cy_sysclk.h **** ****************************************************************************//**
1794:Generated_Source\PSoC6\pdl\drivers\peripheral\sysclk/cy_sysclk.h **** *
1795:Generated_Source\PSoC6\pdl\drivers\peripheral\sysclk/cy_sysclk.h **** * Sets one of the programmable clock dividers. This function should only be used
1796:Generated_Source\PSoC6\pdl\drivers\peripheral\sysclk/cy_sysclk.h **** * for fractional clock dividers.
1797:Generated_Source\PSoC6\pdl\drivers\peripheral\sysclk/cy_sysclk.h **** *
1798:Generated_Source\PSoC6\pdl\drivers\peripheral\sysclk/cy_sysclk.h **** * \param dividerType specifies which type of divider to use; \ref cy_en_divider_types_t
1799:Generated_Source\PSoC6\pdl\drivers\peripheral\sysclk/cy_sysclk.h **** *
1800:Generated_Source\PSoC6\pdl\drivers\peripheral\sysclk/cy_sysclk.h **** * \param dividerNum specifies which divider of the selected type to configure
1801:Generated_Source\PSoC6\pdl\drivers\peripheral\sysclk/cy_sysclk.h **** *
1802:Generated_Source\PSoC6\pdl\drivers\peripheral\sysclk/cy_sysclk.h **** * \param dividerIntValue the integer divider value
1803:Generated_Source\PSoC6\pdl\drivers\peripheral\sysclk/cy_sysclk.h **** * The source of the divider is peri_clk, which is a divided version of hf_clk[0].
1804:Generated_Source\PSoC6\pdl\drivers\peripheral\sysclk/cy_sysclk.h **** * The divider value causes integer division of (divider value + 1), or division
1805:Generated_Source\PSoC6\pdl\drivers\peripheral\sysclk/cy_sysclk.h **** * by 1 to 65536 (16-bit divider) or 1 to 16777216 (24-bit divider).
1806:Generated_Source\PSoC6\pdl\drivers\peripheral\sysclk/cy_sysclk.h **** *
1807:Generated_Source\PSoC6\pdl\drivers\peripheral\sysclk/cy_sysclk.h **** * \param dividerFracValue the fraction part of the divider
1808:Generated_Source\PSoC6\pdl\drivers\peripheral\sysclk/cy_sysclk.h **** * The fractional divider can be 1-32, thus it divides the clock by 1/32 for each
1809:Generated_Source\PSoC6\pdl\drivers\peripheral\sysclk/cy_sysclk.h **** * count. To divide the clock by 11/32nds set this value to 11.
1810:Generated_Source\PSoC6\pdl\drivers\peripheral\sysclk/cy_sysclk.h **** *
1811:Generated_Source\PSoC6\pdl\drivers\peripheral\sysclk/cy_sysclk.h **** * \return \ref cy_en_sysclk_status_t
1812:Generated_Source\PSoC6\pdl\drivers\peripheral\sysclk/cy_sysclk.h **** *
1813:Generated_Source\PSoC6\pdl\drivers\peripheral\sysclk/cy_sysclk.h **** *******************************************************************************/
1814:Generated_Source\PSoC6\pdl\drivers\peripheral\sysclk/cy_sysclk.h **** __STATIC_INLINE cy_en_sysclk_status_t
1815:Generated_Source\PSoC6\pdl\drivers\peripheral\sysclk/cy_sysclk.h ****                 Cy_SysClk_PeriphSetFracDivider(cy_en_divider_types_t dividerType, uint32_t dividerN
1816:Generated_Source\PSoC6\pdl\drivers\peripheral\sysclk/cy_sysclk.h ****                                                uint32_t dividerIntValue, uint32_t dividerFracValue)
1817:Generated_Source\PSoC6\pdl\drivers\peripheral\sysclk/cy_sysclk.h **** {
1818:Generated_Source\PSoC6\pdl\drivers\peripheral\sysclk/cy_sysclk.h ****     cy_en_sysclk_status_t retval = CY_SYSCLK_BAD_PARAM;
1819:Generated_Source\PSoC6\pdl\drivers\peripheral\sysclk/cy_sysclk.h ****     if (dividerType == CY_SYSCLK_DIV_16_5_BIT)
1820:Generated_Source\PSoC6\pdl\drivers\peripheral\sysclk/cy_sysclk.h ****     {
1821:Generated_Source\PSoC6\pdl\drivers\peripheral\sysclk/cy_sysclk.h ****         if ((dividerNum < PERI_DIV_16_5_NR) &&
1822:Generated_Source\PSoC6\pdl\drivers\peripheral\sysclk/cy_sysclk.h ****             (dividerIntValue <= (PERI_DIV_16_5_CTL_INT16_DIV_Msk >> PERI_DIV_16_5_CTL_INT16_DIV_Pos
1823:Generated_Source\PSoC6\pdl\drivers\peripheral\sysclk/cy_sysclk.h ****             (dividerFracValue <= (PERI_DIV_16_5_CTL_FRAC5_DIV_Msk >> PERI_DIV_16_5_CTL_FRAC5_DIV_Po
1824:Generated_Source\PSoC6\pdl\drivers\peripheral\sysclk/cy_sysclk.h ****         {
ARM GAS  C:\Users\kiwamu\AppData\Local\Temp\ccIx7zyv.s 			page 133


1825:Generated_Source\PSoC6\pdl\drivers\peripheral\sysclk/cy_sysclk.h ****             CY_SYSCLK_CLR_SET(PERI->DIV_16_5_CTL[dividerNum], PERI_DIV_16_5_CTL_INT16_DIV, dividerI
1826:Generated_Source\PSoC6\pdl\drivers\peripheral\sysclk/cy_sysclk.h ****             CY_SYSCLK_CLR_SET(PERI->DIV_16_5_CTL[dividerNum], PERI_DIV_16_5_CTL_FRAC5_DIV, dividerF
1827:Generated_Source\PSoC6\pdl\drivers\peripheral\sysclk/cy_sysclk.h ****             retval = CY_SYSCLK_SUCCESS;
1828:Generated_Source\PSoC6\pdl\drivers\peripheral\sysclk/cy_sysclk.h ****         }
1829:Generated_Source\PSoC6\pdl\drivers\peripheral\sysclk/cy_sysclk.h ****     }
1830:Generated_Source\PSoC6\pdl\drivers\peripheral\sysclk/cy_sysclk.h ****     else if (dividerType == CY_SYSCLK_DIV_24_5_BIT)
1831:Generated_Source\PSoC6\pdl\drivers\peripheral\sysclk/cy_sysclk.h ****     {
1832:Generated_Source\PSoC6\pdl\drivers\peripheral\sysclk/cy_sysclk.h ****         if ((dividerNum < PERI_DIV_24_5_NR) &&
1833:Generated_Source\PSoC6\pdl\drivers\peripheral\sysclk/cy_sysclk.h ****             (dividerIntValue <= (PERI_DIV_24_5_CTL_INT24_DIV_Msk >> PERI_DIV_24_5_CTL_INT24_DIV_Pos
1834:Generated_Source\PSoC6\pdl\drivers\peripheral\sysclk/cy_sysclk.h ****             (dividerFracValue <= (PERI_DIV_24_5_CTL_FRAC5_DIV_Msk >> PERI_DIV_24_5_CTL_FRAC5_DIV_Po
1835:Generated_Source\PSoC6\pdl\drivers\peripheral\sysclk/cy_sysclk.h ****         {
1836:Generated_Source\PSoC6\pdl\drivers\peripheral\sysclk/cy_sysclk.h ****             CY_SYSCLK_CLR_SET(PERI->DIV_24_5_CTL[dividerNum], PERI_DIV_24_5_CTL_INT24_DIV, dividerI
1837:Generated_Source\PSoC6\pdl\drivers\peripheral\sysclk/cy_sysclk.h ****             CY_SYSCLK_CLR_SET(PERI->DIV_24_5_CTL[dividerNum], PERI_DIV_24_5_CTL_FRAC5_DIV, dividerF
1838:Generated_Source\PSoC6\pdl\drivers\peripheral\sysclk/cy_sysclk.h ****             retval = CY_SYSCLK_SUCCESS;
1839:Generated_Source\PSoC6\pdl\drivers\peripheral\sysclk/cy_sysclk.h ****         }
1840:Generated_Source\PSoC6\pdl\drivers\peripheral\sysclk/cy_sysclk.h ****     }
1841:Generated_Source\PSoC6\pdl\drivers\peripheral\sysclk/cy_sysclk.h ****     else
1842:Generated_Source\PSoC6\pdl\drivers\peripheral\sysclk/cy_sysclk.h ****     { /* return bad parameter */
1843:Generated_Source\PSoC6\pdl\drivers\peripheral\sysclk/cy_sysclk.h ****     }
1844:Generated_Source\PSoC6\pdl\drivers\peripheral\sysclk/cy_sysclk.h ****     return (retval);
1845:Generated_Source\PSoC6\pdl\drivers\peripheral\sysclk/cy_sysclk.h **** }
1846:Generated_Source\PSoC6\pdl\drivers\peripheral\sysclk/cy_sysclk.h **** 
1847:Generated_Source\PSoC6\pdl\drivers\peripheral\sysclk/cy_sysclk.h **** /*******************************************************************************
1848:Generated_Source\PSoC6\pdl\drivers\peripheral\sysclk/cy_sysclk.h **** * Function Name: Cy_SysClk_PeriphGetFracDivider
1849:Generated_Source\PSoC6\pdl\drivers\peripheral\sysclk/cy_sysclk.h **** ****************************************************************************//**
1850:Generated_Source\PSoC6\pdl\drivers\peripheral\sysclk/cy_sysclk.h **** *
1851:Generated_Source\PSoC6\pdl\drivers\peripheral\sysclk/cy_sysclk.h **** * Reports the integer and fractional parts of the divider
1852:Generated_Source\PSoC6\pdl\drivers\peripheral\sysclk/cy_sysclk.h **** *
1853:Generated_Source\PSoC6\pdl\drivers\peripheral\sysclk/cy_sysclk.h **** * \param dividerType specifies which type of divider to use; \ref cy_en_divider_types_t
1854:Generated_Source\PSoC6\pdl\drivers\peripheral\sysclk/cy_sysclk.h **** *
1855:Generated_Source\PSoC6\pdl\drivers\peripheral\sysclk/cy_sysclk.h **** * \param dividerNum specifies which divider of the selected type to configure
1856:Generated_Source\PSoC6\pdl\drivers\peripheral\sysclk/cy_sysclk.h **** *
1857:Generated_Source\PSoC6\pdl\drivers\peripheral\sysclk/cy_sysclk.h **** * \param *dividerIntValue pointer to return integer divider value
1858:Generated_Source\PSoC6\pdl\drivers\peripheral\sysclk/cy_sysclk.h **** *
1859:Generated_Source\PSoC6\pdl\drivers\peripheral\sysclk/cy_sysclk.h **** * \param *dividerFracValue pointer to return fractional divider value
1860:Generated_Source\PSoC6\pdl\drivers\peripheral\sysclk/cy_sysclk.h **** *
1861:Generated_Source\PSoC6\pdl\drivers\peripheral\sysclk/cy_sysclk.h **** * \return None. Loads pointed-to variables.
1862:Generated_Source\PSoC6\pdl\drivers\peripheral\sysclk/cy_sysclk.h **** *
1863:Generated_Source\PSoC6\pdl\drivers\peripheral\sysclk/cy_sysclk.h **** *******************************************************************************/
1864:Generated_Source\PSoC6\pdl\drivers\peripheral\sysclk/cy_sysclk.h **** __STATIC_INLINE void Cy_SysClk_PeriphGetFracDivider(cy_en_divider_types_t dividerType, uint32_t div
1865:Generated_Source\PSoC6\pdl\drivers\peripheral\sysclk/cy_sysclk.h ****                                                     uint32_t *dividerIntValue, uint32_t *dividerFra
1866:Generated_Source\PSoC6\pdl\drivers\peripheral\sysclk/cy_sysclk.h **** {
1867:Generated_Source\PSoC6\pdl\drivers\peripheral\sysclk/cy_sysclk.h ****     CY_ASSERT_L1(((dividerType == CY_SYSCLK_DIV_16_5_BIT) || (dividerType == CY_SYSCLK_DIV_24_5_BIT
 3885              		.loc 2 1867 0
 3886 01f4 B31E     		subs	r3, r6, #2
 3887 01f6 DBB2     		uxtb	r3, r3
 3888 01f8 012B     		cmp	r3, #1
 3889 01fa 03D9     		bls	.L289
 3890 01fc 2D49     		ldr	r1, .L302+36
 3891 01fe 2748     		ldr	r0, .L302+12
 3892 0200 FFF7FEFF 		bl	Cy_SysLib_AssertFailed
 3893              	.LVL479:
 3894              	.L289:
1868:Generated_Source\PSoC6\pdl\drivers\peripheral\sysclk/cy_sysclk.h ****                  (dividerIntValue != NULL) && (dividerFracValue != NULL));
1869:Generated_Source\PSoC6\pdl\drivers\peripheral\sysclk/cy_sysclk.h **** 
1870:Generated_Source\PSoC6\pdl\drivers\peripheral\sysclk/cy_sysclk.h ****     if (dividerType == CY_SYSCLK_DIV_16_5_BIT)
 3895              		.loc 2 1870 0
ARM GAS  C:\Users\kiwamu\AppData\Local\Temp\ccIx7zyv.s 			page 134


 3896 0204 022E     		cmp	r6, #2
 3897 0206 17D1     		bne	.L290
1871:Generated_Source\PSoC6\pdl\drivers\peripheral\sysclk/cy_sysclk.h ****     {
1872:Generated_Source\PSoC6\pdl\drivers\peripheral\sysclk/cy_sysclk.h ****         CY_ASSERT_L1(dividerNum < PERI_DIV_16_5_NR);
 3898              		.loc 2 1872 0
 3899 0208 032F     		cmp	r7, #3
 3900 020a 04D9     		bls	.L291
 3901 020c EA21     		movs	r1, #234
 3902 020e C900     		lsls	r1, r1, #3
 3903 0210 2248     		ldr	r0, .L302+12
 3904 0212 FFF7FEFF 		bl	Cy_SysLib_AssertFailed
 3905              	.LVL480:
 3906              	.L291:
1873:Generated_Source\PSoC6\pdl\drivers\peripheral\sysclk/cy_sysclk.h ****         *dividerIntValue  = _FLD2VAL(PERI_DIV_16_5_CTL_INT16_DIV, PERI->DIV_16_5_CTL[dividerNum]);
 3907              		.loc 2 1873 0
 3908 0216 254A     		ldr	r2, .L302+28
 3909 0218 A023     		movs	r3, #160
 3910 021a 9B00     		lsls	r3, r3, #2
 3911 021c 9C46     		mov	ip, r3
 3912 021e 6744     		add	r7, r7, ip
 3913              	.LVL481:
 3914 0220 BF00     		lsls	r7, r7, #2
 3915              	.LVL482:
 3916 0222 BB58     		ldr	r3, [r7, r2]
 3917 0224 1B0A     		lsrs	r3, r3, #8
 3918 0226 1B04     		lsls	r3, r3, #16
 3919 0228 1B0C     		lsrs	r3, r3, #16
 3920 022a 0393     		str	r3, [sp, #12]
1874:Generated_Source\PSoC6\pdl\drivers\peripheral\sysclk/cy_sysclk.h ****         *dividerFracValue = _FLD2VAL(PERI_DIV_16_5_CTL_FRAC5_DIV, PERI->DIV_16_5_CTL[dividerNum]);
 3921              		.loc 2 1874 0
 3922 022c BB58     		ldr	r3, [r7, r2]
 3923 022e DB08     		lsrs	r3, r3, #3
 3924 0230 1F22     		movs	r2, #31
 3925 0232 1340     		ands	r3, r2
 3926 0234 0493     		str	r3, [sp, #16]
 3927 0236 13E0     		b	.L281
 3928              	.LVL483:
 3929              	.L290:
1875:Generated_Source\PSoC6\pdl\drivers\peripheral\sysclk/cy_sysclk.h ****     }
1876:Generated_Source\PSoC6\pdl\drivers\peripheral\sysclk/cy_sysclk.h ****     else
1877:Generated_Source\PSoC6\pdl\drivers\peripheral\sysclk/cy_sysclk.h ****     { /* 24.5-bit divider */
1878:Generated_Source\PSoC6\pdl\drivers\peripheral\sysclk/cy_sysclk.h ****         CY_ASSERT_L1(dividerNum < PERI_DIV_24_5_NR);
 3930              		.loc 2 1878 0
 3931 0238 002F     		cmp	r7, #0
 3932 023a 03D0     		beq	.L292
 3933 023c 1E49     		ldr	r1, .L302+40
 3934 023e 1748     		ldr	r0, .L302+12
 3935 0240 FFF7FEFF 		bl	Cy_SysLib_AssertFailed
 3936              	.LVL484:
 3937              	.L292:
1879:Generated_Source\PSoC6\pdl\drivers\peripheral\sysclk/cy_sysclk.h ****         *dividerIntValue  = _FLD2VAL(PERI_DIV_24_5_CTL_INT24_DIV, PERI->DIV_24_5_CTL[dividerNum]);
 3938              		.loc 2 1879 0
 3939 0244 194A     		ldr	r2, .L302+28
 3940 0246 B023     		movs	r3, #176
 3941 0248 9B00     		lsls	r3, r3, #2
 3942 024a 9C46     		mov	ip, r3
 3943 024c 6744     		add	r7, r7, ip
ARM GAS  C:\Users\kiwamu\AppData\Local\Temp\ccIx7zyv.s 			page 135


 3944              	.LVL485:
 3945 024e BF00     		lsls	r7, r7, #2
 3946              	.LVL486:
 3947 0250 BB58     		ldr	r3, [r7, r2]
 3948 0252 1B0A     		lsrs	r3, r3, #8
 3949 0254 0393     		str	r3, [sp, #12]
1880:Generated_Source\PSoC6\pdl\drivers\peripheral\sysclk/cy_sysclk.h ****         *dividerFracValue = _FLD2VAL(PERI_DIV_24_5_CTL_FRAC5_DIV, PERI->DIV_24_5_CTL[dividerNum]);
 3950              		.loc 2 1880 0
 3951 0256 BB58     		ldr	r3, [r7, r2]
 3952 0258 DB08     		lsrs	r3, r3, #3
 3953 025a 1F22     		movs	r2, #31
 3954 025c 1340     		ands	r3, r2
 3955 025e 0493     		str	r3, [sp, #16]
 3956              	.LVL487:
 3957              	.L281:
 3958              	.LBE92:
 3959              	.LBE91:
1626:Generated_Source\PSoC6\pdl\drivers\peripheral\sysclk/cy_sysclk.c ****             case CY_SYSCLK_DIV_16_5_BIT:
1627:Generated_Source\PSoC6\pdl\drivers\peripheral\sysclk/cy_sysclk.c ****             case CY_SYSCLK_DIV_24_5_BIT:
1628:Generated_Source\PSoC6\pdl\drivers\peripheral\sysclk/cy_sysclk.c ****                 (void)Cy_SysClk_PeriphGetFracDivider(dividerType, dividerNum, &clkdiv.integer, &clk
1629:Generated_Source\PSoC6\pdl\drivers\peripheral\sysclk/cy_sysclk.c ****                 break;
1630:Generated_Source\PSoC6\pdl\drivers\peripheral\sysclk/cy_sysclk.c ****             default:
1631:Generated_Source\PSoC6\pdl\drivers\peripheral\sysclk/cy_sysclk.c ****                 break;
1632:Generated_Source\PSoC6\pdl\drivers\peripheral\sysclk/cy_sysclk.c ****         }
1633:Generated_Source\PSoC6\pdl\drivers\peripheral\sysclk/cy_sysclk.c ****         /* Divide the path input frequency down, and return the result.
1634:Generated_Source\PSoC6\pdl\drivers\peripheral\sysclk/cy_sysclk.c ****            Stepping through the following code shows the frequency at each stage.
1635:Generated_Source\PSoC6\pdl\drivers\peripheral\sysclk/cy_sysclk.c ****         */
1636:Generated_Source\PSoC6\pdl\drivers\peripheral\sysclk/cy_sysclk.c ****         rtnval = path_freq / root_div; /* clkHf[0] frequency */
 3960              		.loc 1 1636 0
 3961 0260 4146     		mov	r1, r8
 3962 0262 2800     		movs	r0, r5
 3963 0264 FFF7FEFF 		bl	__aeabi_uidiv
 3964              	.LVL488:
1637:Generated_Source\PSoC6\pdl\drivers\peripheral\sysclk/cy_sysclk.c ****         rtnval /= clkHf0_div; /* clk_peri frequency */
 3965              		.loc 1 1637 0
 3966 0268 2100     		movs	r1, r4
 3967 026a FFF7FEFF 		bl	__aeabi_uidiv
 3968              	.LVL489:
1638:Generated_Source\PSoC6\pdl\drivers\peripheral\sysclk/cy_sysclk.c ****         /* For fractional dividers, the divider is (int + 1) + frac/32.
1639:Generated_Source\PSoC6\pdl\drivers\peripheral\sysclk/cy_sysclk.c ****          * Use the fractional value to round the divider to the nearest integer.
1640:Generated_Source\PSoC6\pdl\drivers\peripheral\sysclk/cy_sysclk.c ****          */
1641:Generated_Source\PSoC6\pdl\drivers\peripheral\sysclk/cy_sysclk.c ****         rtnval /= (clkdiv.integer + 1ul + ((clkdiv.frac >= 16ul) ? 1ul : 0ul)); /* peripheral divid
 3969              		.loc 1 1641 0
 3970 026e 039B     		ldr	r3, [sp, #12]
 3971 0270 049A     		ldr	r2, [sp, #16]
 3972 0272 0F2A     		cmp	r2, #15
 3973 0274 01D9     		bls	.L299
 3974 0276 0121     		movs	r1, #1
 3975 0278 00E0     		b	.L293
 3976              	.L299:
 3977 027a 0021     		movs	r1, #0
 3978              	.L293:
 3979              		.loc 1 1641 0 is_stmt 0 discriminator 4
 3980 027c C918     		adds	r1, r1, r3
 3981 027e 0131     		adds	r1, r1, #1
 3982 0280 FFF7FEFF 		bl	__aeabi_uidiv
 3983              	.LVL490:
ARM GAS  C:\Users\kiwamu\AppData\Local\Temp\ccIx7zyv.s 			page 136


 3984 0284 00E0     		b	.L276
 3985              	.LVL491:
 3986              	.L295:
1483:Generated_Source\PSoC6\pdl\drivers\peripheral\sysclk/cy_sysclk.c **** 
 3987              		.loc 1 1483 0 is_stmt 1
 3988 0286 0020     		movs	r0, #0
 3989              	.LVL492:
 3990              	.L276:
1642:Generated_Source\PSoC6\pdl\drivers\peripheral\sysclk/cy_sysclk.c ****     }
1643:Generated_Source\PSoC6\pdl\drivers\peripheral\sysclk/cy_sysclk.c **** 
1644:Generated_Source\PSoC6\pdl\drivers\peripheral\sysclk/cy_sysclk.c ****     return rtnval;
1645:Generated_Source\PSoC6\pdl\drivers\peripheral\sysclk/cy_sysclk.c **** }
 3991              		.loc 1 1645 0
 3992 0288 0AB0     		add	sp, sp, #40
 3993              		@ sp needed
 3994 028a 04BC     		pop	{r2}
 3995 028c 9046     		mov	r8, r2
 3996 028e F0BD     		pop	{r4, r5, r6, r7, pc}
 3997              	.L303:
 3998              		.align	2
 3999              	.L302:
 4000 0290 00000000 		.word	.LC3
 4001 0294 00002640 		.word	1076232192
 4002 0298 89030000 		.word	905
 4003 029c 44000000 		.word	.LC12
 4004 02a0 00127A00 		.word	8000000
 4005 02a4 00002140 		.word	1075904512
 4006 02a8 F4060000 		.word	1780
 4007 02ac 00000140 		.word	1073807360
 4008 02b0 F9060000 		.word	1785
 4009 02b4 4C070000 		.word	1868
 4010 02b8 56070000 		.word	1878
 4011              		.cfi_endproc
 4012              	.LFE156:
 4013              		.size	Cy_SysClk_PeriphGetFrequency, .-Cy_SysClk_PeriphGetFrequency
 4014              		.section	.rodata
 4015              		.align	2
 4016              		.set	.LANCHOR0,. + 0
 4017              	.LC0:
 4018 0000 F69F903A 		.word	982556662
 4019 0004 FC70903A 		.word	982544636
 4020 0008 E02D903A 		.word	982527456
 4021 000c E02D903A 		.word	982527456
 4022 0010 7D6F993A 		.word	983134077
 4023              	.LC1:
 4024 0014 2052264C 		.word	1277579808
 4025 0018 48A25D4C 		.word	1281204808
 4026 001c 503F934C 		.word	1284718416
 4027 0020 F874C44C 		.word	1287943416
 4028 0024 20C5FB4C 		.word	1291568416
 4029              	.LC2:
 4030 0028 0000803B 		.word	998244352
 4031 002c 0000003C 		.word	1006632960
 4032 0030 0000803C 		.word	1015021568
 4033 0034 0000003D 		.word	1023410176
 4034 0038 0000803D 		.word	1031798784
 4035 003c 0000003E 		.word	1040187392
ARM GAS  C:\Users\kiwamu\AppData\Local\Temp\ccIx7zyv.s 			page 137


 4036 0040 0000803E 		.word	1048576000
 4037 0044 0000003F 		.word	1056964608
 4038 0048 0000803F 		.word	1065353216
 4039 004c 00000040 		.word	1073741824
 4040 0050 00008040 		.word	1082130432
 4041 0054 00000041 		.word	1090519040
 4042              		.section	.rodata.str1.4,"aMS",%progbits,1
 4043              		.align	2
 4044              	.LC3:
 4045 0000 47656E65 		.ascii	"Generated_Source\\PSoC6\\pdl\\drivers\\peripheral\\"
 4045      72617465 
 4045      645F536F 
 4045      75726365 
 4045      5C50536F 
 4046 002e 73797363 		.ascii	"sysclk\\cy_sysclk.c\000"
 4046      6C6B5C63 
 4046      795F7379 
 4046      73636C6B 
 4046      2E6300
 4047 0041 000000   		.space	3
 4048              	.LC12:
 4049 0044 47656E65 		.ascii	"Generated_Source\\PSoC6\\pdl\\drivers\\peripheral\\"
 4049      72617465 
 4049      645F536F 
 4049      75726365 
 4049      5C50536F 
 4050 0072 73797363 		.ascii	"sysclk\\cy_sysclk.h\000"
 4050      6C6B5C63 
 4050      795F7379 
 4050      73636C6B 
 4050      2E6800
 4051              		.bss
 4052              		.align	2
 4053              		.set	.LANCHOR1,. + 0
 4054              		.type	preventCounting, %object
 4055              		.size	preventCounting, 1
 4056              	preventCounting:
 4057 0000 00       		.space	1
 4058              		.type	clkCounting, %object
 4059              		.size	clkCounting, 1
 4060              	clkCounting:
 4061 0001 00       		.space	1
 4062 0002 0000     		.space	2
 4063              		.type	clk1Count1, %object
 4064              		.size	clk1Count1, 4
 4065              	clk1Count1:
 4066 0004 00000000 		.space	4
 4067              		.type	changedSourcePaths.11310, %object
 4068              		.size	changedSourcePaths.11310, 2
 4069              	changedSourcePaths.11310:
 4070 0008 0000     		.space	2
 4071              		.text
 4072              	.Letext0:
 4073              		.file 3 "c:\\program files (x86)\\cypress\\psoc creator\\4.2\\psoc creator\\import\\gnu\\arm\\5.4.
 4074              		.file 4 "c:\\program files (x86)\\cypress\\psoc creator\\4.2\\psoc creator\\import\\gnu\\arm\\5.4.
 4075              		.file 5 "Generated_Source\\PSoC6\\pdl\\devices/psoc6/ip/cyip_peri.h"
 4076              		.file 6 "Generated_Source\\PSoC6\\pdl\\devices/psoc6/ip/cyip_cpuss.h"
ARM GAS  C:\Users\kiwamu\AppData\Local\Temp\ccIx7zyv.s 			page 138


 4077              		.file 7 "Generated_Source\\PSoC6\\pdl\\devices/psoc6/ip/cyip_srss.h"
 4078              		.file 8 "Generated_Source\\PSoC6\\pdl\\drivers/peripheral/syslib/cy_syslib.h"
 4079              		.file 9 "Generated_Source\\PSoC6\\pdl\\drivers/peripheral/syspm/cy_syspm.h"
 4080              		.file 10 "c:\\program files (x86)\\cypress\\psoc creator\\4.2\\psoc creator\\import\\gnu\\arm\\5.4
 4081              		.file 11 "<built-in>"
 4082              		.section	.debug_info,"",%progbits
 4083              	.Ldebug_info0:
 4084 0000 28250000 		.4byte	0x2528
 4085 0004 0400     		.2byte	0x4
 4086 0006 00000000 		.4byte	.Ldebug_abbrev0
 4087 000a 04       		.byte	0x4
 4088 000b 01       		.uleb128 0x1
 4089 000c 8F040000 		.4byte	.LASF418
 4090 0010 0C       		.byte	0xc
 4091 0011 C20B0000 		.4byte	.LASF419
 4092 0015 10070000 		.4byte	.LASF420
 4093 0019 78000000 		.4byte	.Ldebug_ranges0+0x78
 4094 001d 00000000 		.4byte	0
 4095 0021 00000000 		.4byte	.Ldebug_line0
 4096 0025 02       		.uleb128 0x2
 4097 0026 02       		.byte	0x2
 4098 0027 05       		.byte	0x5
 4099 0028 87020000 		.4byte	.LASF0
 4100 002c 02       		.uleb128 0x2
 4101 002d 01       		.byte	0x1
 4102 002e 08       		.byte	0x8
 4103 002f 02160000 		.4byte	.LASF1
 4104 0033 02       		.uleb128 0x2
 4105 0034 01       		.byte	0x1
 4106 0035 06       		.byte	0x6
 4107 0036 B3130000 		.4byte	.LASF2
 4108 003a 03       		.uleb128 0x3
 4109 003b E7130000 		.4byte	.LASF3
 4110 003f 03       		.byte	0x3
 4111 0040 1D       		.byte	0x1d
 4112 0041 2C000000 		.4byte	0x2c
 4113 0045 03       		.uleb128 0x3
 4114 0046 6C070000 		.4byte	.LASF4
 4115 004a 03       		.byte	0x3
 4116 004b 2B       		.byte	0x2b
 4117 004c 50000000 		.4byte	0x50
 4118 0050 02       		.uleb128 0x2
 4119 0051 02       		.byte	0x2
 4120 0052 07       		.byte	0x7
 4121 0053 81100000 		.4byte	.LASF5
 4122 0057 03       		.uleb128 0x3
 4123 0058 D2010000 		.4byte	.LASF6
 4124 005c 03       		.byte	0x3
 4125 005d 3F       		.byte	0x3f
 4126 005e 62000000 		.4byte	0x62
 4127 0062 02       		.uleb128 0x2
 4128 0063 04       		.byte	0x4
 4129 0064 05       		.byte	0x5
 4130 0065 4F120000 		.4byte	.LASF7
 4131 0069 03       		.uleb128 0x3
 4132 006a 10160000 		.4byte	.LASF8
 4133 006e 03       		.byte	0x3
ARM GAS  C:\Users\kiwamu\AppData\Local\Temp\ccIx7zyv.s 			page 139


 4134 006f 41       		.byte	0x41
 4135 0070 74000000 		.4byte	0x74
 4136 0074 02       		.uleb128 0x2
 4137 0075 04       		.byte	0x4
 4138 0076 07       		.byte	0x7
 4139 0077 14150000 		.4byte	.LASF9
 4140 007b 02       		.uleb128 0x2
 4141 007c 08       		.byte	0x8
 4142 007d 05       		.byte	0x5
 4143 007e 160E0000 		.4byte	.LASF10
 4144 0082 03       		.uleb128 0x3
 4145 0083 B80E0000 		.4byte	.LASF11
 4146 0087 03       		.byte	0x3
 4147 0088 5B       		.byte	0x5b
 4148 0089 8D000000 		.4byte	0x8d
 4149 008d 02       		.uleb128 0x2
 4150 008e 08       		.byte	0x8
 4151 008f 07       		.byte	0x7
 4152 0090 D5050000 		.4byte	.LASF12
 4153 0094 04       		.uleb128 0x4
 4154 0095 04       		.byte	0x4
 4155 0096 05       		.byte	0x5
 4156 0097 696E7400 		.ascii	"int\000"
 4157 009b 02       		.uleb128 0x2
 4158 009c 04       		.byte	0x4
 4159 009d 07       		.byte	0x7
 4160 009e 3E140000 		.4byte	.LASF13
 4161 00a2 03       		.uleb128 0x3
 4162 00a3 100D0000 		.4byte	.LASF14
 4163 00a7 04       		.byte	0x4
 4164 00a8 18       		.byte	0x18
 4165 00a9 3A000000 		.4byte	0x3a
 4166 00ad 03       		.uleb128 0x3
 4167 00ae E3150000 		.4byte	.LASF15
 4168 00b2 04       		.byte	0x4
 4169 00b3 24       		.byte	0x24
 4170 00b4 45000000 		.4byte	0x45
 4171 00b8 03       		.uleb128 0x3
 4172 00b9 6F150000 		.4byte	.LASF16
 4173 00bd 04       		.byte	0x4
 4174 00be 2C       		.byte	0x2c
 4175 00bf 57000000 		.4byte	0x57
 4176 00c3 03       		.uleb128 0x3
 4177 00c4 3B040000 		.4byte	.LASF17
 4178 00c8 04       		.byte	0x4
 4179 00c9 30       		.byte	0x30
 4180 00ca 69000000 		.4byte	0x69
 4181 00ce 03       		.uleb128 0x3
 4182 00cf 27130000 		.4byte	.LASF18
 4183 00d3 04       		.byte	0x4
 4184 00d4 3C       		.byte	0x3c
 4185 00d5 82000000 		.4byte	0x82
 4186 00d9 02       		.uleb128 0x2
 4187 00da 04       		.byte	0x4
 4188 00db 07       		.byte	0x7
 4189 00dc E5140000 		.4byte	.LASF19
 4190 00e0 05       		.uleb128 0x5
ARM GAS  C:\Users\kiwamu\AppData\Local\Temp\ccIx7zyv.s 			page 140


 4191 00e1 C3000000 		.4byte	0xc3
 4192 00e5 06       		.uleb128 0x6
 4193 00e6 E0000000 		.4byte	0xe0
 4194 00ea 07       		.uleb128 0x7
 4195 00eb E0000000 		.4byte	0xe0
 4196 00ef FA000000 		.4byte	0xfa
 4197 00f3 08       		.uleb128 0x8
 4198 00f4 D9000000 		.4byte	0xd9
 4199 00f8 7F       		.byte	0x7f
 4200 00f9 00       		.byte	0
 4201 00fa 07       		.uleb128 0x7
 4202 00fb E0000000 		.4byte	0xe0
 4203 00ff 0A010000 		.4byte	0x10a
 4204 0103 08       		.uleb128 0x8
 4205 0104 D9000000 		.4byte	0xd9
 4206 0108 0F       		.byte	0xf
 4207 0109 00       		.byte	0
 4208 010a 09       		.uleb128 0x9
 4209 010b 40       		.byte	0x40
 4210 010c 05       		.byte	0x5
 4211 010d 27       		.byte	0x27
 4212 010e 4F010000 		.4byte	0x14f
 4213 0112 0A       		.uleb128 0xa
 4214 0113 65150000 		.4byte	.LASF20
 4215 0117 05       		.byte	0x5
 4216 0118 28       		.byte	0x28
 4217 0119 E0000000 		.4byte	0xe0
 4218 011d 00       		.byte	0
 4219 011e 0A       		.uleb128 0xa
 4220 011f 00000000 		.4byte	.LASF21
 4221 0123 05       		.byte	0x5
 4222 0124 29       		.byte	0x29
 4223 0125 64010000 		.4byte	0x164
 4224 0129 04       		.byte	0x4
 4225 012a 0A       		.uleb128 0xa
 4226 012b 61050000 		.4byte	.LASF22
 4227 012f 05       		.byte	0x5
 4228 0130 2A       		.byte	0x2a
 4229 0131 E0000000 		.4byte	0xe0
 4230 0135 20       		.byte	0x20
 4231 0136 0A       		.uleb128 0xa
 4232 0137 961A0000 		.4byte	.LASF23
 4233 013b 05       		.byte	0x5
 4234 013c 2B       		.byte	0x2b
 4235 013d E0000000 		.4byte	0xe0
 4236 0141 24       		.byte	0x24
 4237 0142 0A       		.uleb128 0xa
 4238 0143 C9110000 		.4byte	.LASF24
 4239 0147 05       		.byte	0x5
 4240 0148 2C       		.byte	0x2c
 4241 0149 7E010000 		.4byte	0x17e
 4242 014d 28       		.byte	0x28
 4243 014e 00       		.byte	0
 4244 014f 07       		.uleb128 0x7
 4245 0150 E5000000 		.4byte	0xe5
 4246 0154 5F010000 		.4byte	0x15f
 4247 0158 08       		.uleb128 0x8
ARM GAS  C:\Users\kiwamu\AppData\Local\Temp\ccIx7zyv.s 			page 141


 4248 0159 D9000000 		.4byte	0xd9
 4249 015d 06       		.byte	0x6
 4250 015e 00       		.byte	0
 4251 015f 05       		.uleb128 0x5
 4252 0160 4F010000 		.4byte	0x14f
 4253 0164 06       		.uleb128 0x6
 4254 0165 5F010000 		.4byte	0x15f
 4255 0169 07       		.uleb128 0x7
 4256 016a E5000000 		.4byte	0xe5
 4257 016e 79010000 		.4byte	0x179
 4258 0172 08       		.uleb128 0x8
 4259 0173 D9000000 		.4byte	0xd9
 4260 0177 05       		.byte	0x5
 4261 0178 00       		.byte	0
 4262 0179 05       		.uleb128 0x5
 4263 017a 69010000 		.4byte	0x169
 4264 017e 06       		.uleb128 0x6
 4265 017f 79010000 		.4byte	0x179
 4266 0183 03       		.uleb128 0x3
 4267 0184 19010000 		.4byte	.LASF25
 4268 0188 05       		.byte	0x5
 4269 0189 2D       		.byte	0x2d
 4270 018a 0A010000 		.4byte	0x10a
 4271 018e 0B       		.uleb128 0xb
 4272 018f 0002     		.2byte	0x200
 4273 0191 05       		.byte	0x5
 4274 0192 32       		.byte	0x32
 4275 0193 A4010000 		.4byte	0x1a4
 4276 0197 0A       		.uleb128 0xa
 4277 0198 7A0B0000 		.4byte	.LASF26
 4278 019c 05       		.byte	0x5
 4279 019d 33       		.byte	0x33
 4280 019e A4010000 		.4byte	0x1a4
 4281 01a2 00       		.byte	0
 4282 01a3 00       		.byte	0
 4283 01a4 05       		.uleb128 0x5
 4284 01a5 EA000000 		.4byte	0xea
 4285 01a9 03       		.uleb128 0x3
 4286 01aa A30F0000 		.4byte	.LASF27
 4287 01ae 05       		.byte	0x5
 4288 01af 34       		.byte	0x34
 4289 01b0 8E010000 		.4byte	0x18e
 4290 01b4 09       		.uleb128 0x9
 4291 01b5 40       		.byte	0x40
 4292 01b6 05       		.byte	0x5
 4293 01b7 39       		.byte	0x39
 4294 01b8 05020000 		.4byte	0x205
 4295 01bc 0A       		.uleb128 0xa
 4296 01bd 5A190000 		.4byte	.LASF28
 4297 01c1 05       		.byte	0x5
 4298 01c2 3A       		.byte	0x3a
 4299 01c3 E0000000 		.4byte	0xe0
 4300 01c7 00       		.byte	0
 4301 01c8 0A       		.uleb128 0xa
 4302 01c9 79190000 		.4byte	.LASF29
 4303 01cd 05       		.byte	0x5
 4304 01ce 3B       		.byte	0x3b
ARM GAS  C:\Users\kiwamu\AppData\Local\Temp\ccIx7zyv.s 			page 142


 4305 01cf E0000000 		.4byte	0xe0
 4306 01d3 04       		.byte	0x4
 4307 01d4 0A       		.uleb128 0xa
 4308 01d5 00000000 		.4byte	.LASF21
 4309 01d9 05       		.byte	0x5
 4310 01da 3C       		.byte	0x3c
 4311 01db 0A020000 		.4byte	0x20a
 4312 01df 08       		.byte	0x8
 4313 01e0 0A       		.uleb128 0xa
 4314 01e1 60190000 		.4byte	.LASF30
 4315 01e5 05       		.byte	0x5
 4316 01e6 3D       		.byte	0x3d
 4317 01e7 E5000000 		.4byte	0xe5
 4318 01eb 20       		.byte	0x20
 4319 01ec 0A       		.uleb128 0xa
 4320 01ed 7E190000 		.4byte	.LASF31
 4321 01f1 05       		.byte	0x5
 4322 01f2 3E       		.byte	0x3e
 4323 01f3 E0000000 		.4byte	0xe0
 4324 01f7 24       		.byte	0x24
 4325 01f8 0A       		.uleb128 0xa
 4326 01f9 C9110000 		.4byte	.LASF24
 4327 01fd 05       		.byte	0x5
 4328 01fe 3F       		.byte	0x3f
 4329 01ff 14020000 		.4byte	0x214
 4330 0203 28       		.byte	0x28
 4331 0204 00       		.byte	0
 4332 0205 05       		.uleb128 0x5
 4333 0206 69010000 		.4byte	0x169
 4334 020a 06       		.uleb128 0x6
 4335 020b 05020000 		.4byte	0x205
 4336 020f 05       		.uleb128 0x5
 4337 0210 69010000 		.4byte	0x169
 4338 0214 06       		.uleb128 0x6
 4339 0215 0F020000 		.4byte	0x20f
 4340 0219 03       		.uleb128 0x3
 4341 021a 02140000 		.4byte	.LASF32
 4342 021e 05       		.byte	0x5
 4343 021f 40       		.byte	0x40
 4344 0220 B4010000 		.4byte	0x1b4
 4345 0224 09       		.uleb128 0x9
 4346 0225 40       		.byte	0x40
 4347 0226 05       		.byte	0x5
 4348 0227 45       		.byte	0x45
 4349 0228 75020000 		.4byte	0x275
 4350 022c 0A       		.uleb128 0xa
 4351 022d 5A190000 		.4byte	.LASF28
 4352 0231 05       		.byte	0x5
 4353 0232 46       		.byte	0x46
 4354 0233 E5000000 		.4byte	0xe5
 4355 0237 00       		.byte	0
 4356 0238 0A       		.uleb128 0xa
 4357 0239 79190000 		.4byte	.LASF29
 4358 023d 05       		.byte	0x5
 4359 023e 47       		.byte	0x47
 4360 023f E0000000 		.4byte	0xe0
 4361 0243 04       		.byte	0x4
ARM GAS  C:\Users\kiwamu\AppData\Local\Temp\ccIx7zyv.s 			page 143


 4362 0244 0A       		.uleb128 0xa
 4363 0245 00000000 		.4byte	.LASF21
 4364 0249 05       		.byte	0x5
 4365 024a 48       		.byte	0x48
 4366 024b 7A020000 		.4byte	0x27a
 4367 024f 08       		.byte	0x8
 4368 0250 0A       		.uleb128 0xa
 4369 0251 60190000 		.4byte	.LASF30
 4370 0255 05       		.byte	0x5
 4371 0256 49       		.byte	0x49
 4372 0257 E5000000 		.4byte	0xe5
 4373 025b 20       		.byte	0x20
 4374 025c 0A       		.uleb128 0xa
 4375 025d 7E190000 		.4byte	.LASF31
 4376 0261 05       		.byte	0x5
 4377 0262 4A       		.byte	0x4a
 4378 0263 E0000000 		.4byte	0xe0
 4379 0267 24       		.byte	0x24
 4380 0268 0A       		.uleb128 0xa
 4381 0269 C9110000 		.4byte	.LASF24
 4382 026d 05       		.byte	0x5
 4383 026e 4B       		.byte	0x4b
 4384 026f 84020000 		.4byte	0x284
 4385 0273 28       		.byte	0x28
 4386 0274 00       		.byte	0
 4387 0275 05       		.uleb128 0x5
 4388 0276 69010000 		.4byte	0x169
 4389 027a 06       		.uleb128 0x6
 4390 027b 75020000 		.4byte	0x275
 4391 027f 05       		.uleb128 0x5
 4392 0280 69010000 		.4byte	0x169
 4393 0284 06       		.uleb128 0x6
 4394 0285 7F020000 		.4byte	0x27f
 4395 0289 03       		.uleb128 0x3
 4396 028a 990A0000 		.4byte	.LASF33
 4397 028e 05       		.byte	0x5
 4398 028f 4C       		.byte	0x4c
 4399 0290 24020000 		.4byte	0x224
 4400 0294 0B       		.uleb128 0xb
 4401 0295 0054     		.2byte	0x5400
 4402 0297 05       		.byte	0x5
 4403 0298 69       		.byte	0x69
 4404 0299 6C030000 		.4byte	0x36c
 4405 029d 0C       		.uleb128 0xc
 4406 029e 475200   		.ascii	"GR\000"
 4407 02a1 05       		.byte	0x5
 4408 02a2 6A       		.byte	0x6a
 4409 02a3 6C030000 		.4byte	0x36c
 4410 02a7 00       		.byte	0
 4411 02a8 0D       		.uleb128 0xd
 4412 02a9 AF020000 		.4byte	.LASF34
 4413 02ad 05       		.byte	0x5
 4414 02ae 6B       		.byte	0x6b
 4415 02af E0000000 		.4byte	0xe0
 4416 02b3 0004     		.2byte	0x400
 4417 02b5 0D       		.uleb128 0xd
 4418 02b6 00000000 		.4byte	.LASF21
ARM GAS  C:\Users\kiwamu\AppData\Local\Temp\ccIx7zyv.s 			page 144


 4419 02ba 05       		.byte	0x5
 4420 02bb 6C       		.byte	0x6c
 4421 02bc 91030000 		.4byte	0x391
 4422 02c0 0404     		.2byte	0x404
 4423 02c2 0D       		.uleb128 0xd
 4424 02c3 41130000 		.4byte	.LASF35
 4425 02c7 05       		.byte	0x5
 4426 02c8 6D       		.byte	0x6d
 4427 02c9 A6030000 		.4byte	0x3a6
 4428 02cd 0008     		.2byte	0x800
 4429 02cf 0D       		.uleb128 0xd
 4430 02d0 F2090000 		.4byte	.LASF36
 4431 02d4 05       		.byte	0x5
 4432 02d5 6E       		.byte	0x6e
 4433 02d6 AB030000 		.4byte	0x3ab
 4434 02da 0009     		.2byte	0x900
 4435 02dc 0D       		.uleb128 0xd
 4436 02dd 180B0000 		.4byte	.LASF37
 4437 02e1 05       		.byte	0x5
 4438 02e2 6F       		.byte	0x6f
 4439 02e3 B0030000 		.4byte	0x3b0
 4440 02e7 000A     		.2byte	0xa00
 4441 02e9 0D       		.uleb128 0xd
 4442 02ea 9C090000 		.4byte	.LASF38
 4443 02ee 05       		.byte	0x5
 4444 02ef 70       		.byte	0x70
 4445 02f0 C5030000 		.4byte	0x3c5
 4446 02f4 000B     		.2byte	0xb00
 4447 02f6 0D       		.uleb128 0xd
 4448 02f7 C9110000 		.4byte	.LASF24
 4449 02fb 05       		.byte	0x5
 4450 02fc 71       		.byte	0x71
 4451 02fd E5000000 		.4byte	0xe5
 4452 0301 FC0B     		.2byte	0xbfc
 4453 0303 0D       		.uleb128 0xd
 4454 0304 65150000 		.4byte	.LASF20
 4455 0308 05       		.byte	0x5
 4456 0309 72       		.byte	0x72
 4457 030a CA030000 		.4byte	0x3ca
 4458 030e 000C     		.2byte	0xc00
 4459 0310 0D       		.uleb128 0xd
 4460 0311 D3110000 		.4byte	.LASF39
 4461 0315 05       		.byte	0x5
 4462 0316 73       		.byte	0x73
 4463 0317 E4030000 		.4byte	0x3e4
 4464 031b 000E     		.2byte	0xe00
 4465 031d 0D       		.uleb128 0xd
 4466 031e A4080000 		.4byte	.LASF40
 4467 0322 05       		.byte	0x5
 4468 0323 74       		.byte	0x74
 4469 0324 E0000000 		.4byte	0xe0
 4470 0328 0010     		.2byte	0x1000
 4471 032a 0D       		.uleb128 0xd
 4472 032b DD110000 		.4byte	.LASF41
 4473 032f 05       		.byte	0x5
 4474 0330 75       		.byte	0x75
 4475 0331 FF030000 		.4byte	0x3ff
ARM GAS  C:\Users\kiwamu\AppData\Local\Temp\ccIx7zyv.s 			page 145


 4476 0335 0410     		.2byte	0x1004
 4477 0337 0D       		.uleb128 0xd
 4478 0338 920B0000 		.4byte	.LASF42
 4479 033c 05       		.byte	0x5
 4480 033d 76       		.byte	0x76
 4481 033e 04040000 		.4byte	0x404
 4482 0342 0020     		.2byte	0x2000
 4483 0344 0D       		.uleb128 0xd
 4484 0345 25020000 		.4byte	.LASF43
 4485 0349 05       		.byte	0x5
 4486 034a 77       		.byte	0x77
 4487 034b 14040000 		.4byte	0x414
 4488 034f 0040     		.2byte	0x4000
 4489 0351 0D       		.uleb128 0xd
 4490 0352 E7110000 		.4byte	.LASF44
 4491 0356 05       		.byte	0x5
 4492 0357 78       		.byte	0x78
 4493 0358 3A040000 		.4byte	0x43a
 4494 035c 0048     		.2byte	0x4800
 4495 035e 0D       		.uleb128 0xd
 4496 035f 990E0000 		.4byte	.LASF45
 4497 0363 05       		.byte	0x5
 4498 0364 79       		.byte	0x79
 4499 0365 3F040000 		.4byte	0x43f
 4500 0369 0050     		.2byte	0x5000
 4501 036b 00       		.byte	0
 4502 036c 07       		.uleb128 0x7
 4503 036d 83010000 		.4byte	0x183
 4504 0371 7C030000 		.4byte	0x37c
 4505 0375 08       		.uleb128 0x8
 4506 0376 D9000000 		.4byte	0xd9
 4507 037a 0F       		.byte	0xf
 4508 037b 00       		.byte	0
 4509 037c 07       		.uleb128 0x7
 4510 037d E5000000 		.4byte	0xe5
 4511 0381 8C030000 		.4byte	0x38c
 4512 0385 08       		.uleb128 0x8
 4513 0386 D9000000 		.4byte	0xd9
 4514 038a FE       		.byte	0xfe
 4515 038b 00       		.byte	0
 4516 038c 05       		.uleb128 0x5
 4517 038d 7C030000 		.4byte	0x37c
 4518 0391 06       		.uleb128 0x6
 4519 0392 8C030000 		.4byte	0x38c
 4520 0396 07       		.uleb128 0x7
 4521 0397 E0000000 		.4byte	0xe0
 4522 039b A6030000 		.4byte	0x3a6
 4523 039f 08       		.uleb128 0x8
 4524 03a0 D9000000 		.4byte	0xd9
 4525 03a4 3F       		.byte	0x3f
 4526 03a5 00       		.byte	0
 4527 03a6 05       		.uleb128 0x5
 4528 03a7 96030000 		.4byte	0x396
 4529 03ab 05       		.uleb128 0x5
 4530 03ac 96030000 		.4byte	0x396
 4531 03b0 05       		.uleb128 0x5
 4532 03b1 96030000 		.4byte	0x396
ARM GAS  C:\Users\kiwamu\AppData\Local\Temp\ccIx7zyv.s 			page 146


 4533 03b5 07       		.uleb128 0x7
 4534 03b6 E0000000 		.4byte	0xe0
 4535 03ba C5030000 		.4byte	0x3c5
 4536 03be 08       		.uleb128 0x8
 4537 03bf D9000000 		.4byte	0xd9
 4538 03c3 3E       		.byte	0x3e
 4539 03c4 00       		.byte	0
 4540 03c5 05       		.uleb128 0x5
 4541 03c6 B5030000 		.4byte	0x3b5
 4542 03ca 05       		.uleb128 0x5
 4543 03cb EA000000 		.4byte	0xea
 4544 03cf 07       		.uleb128 0x7
 4545 03d0 E5000000 		.4byte	0xe5
 4546 03d4 DF030000 		.4byte	0x3df
 4547 03d8 08       		.uleb128 0x8
 4548 03d9 D9000000 		.4byte	0xd9
 4549 03dd 7F       		.byte	0x7f
 4550 03de 00       		.byte	0
 4551 03df 05       		.uleb128 0x5
 4552 03e0 CF030000 		.4byte	0x3cf
 4553 03e4 06       		.uleb128 0x6
 4554 03e5 DF030000 		.4byte	0x3df
 4555 03e9 07       		.uleb128 0x7
 4556 03ea E5000000 		.4byte	0xe5
 4557 03ee FA030000 		.4byte	0x3fa
 4558 03f2 0E       		.uleb128 0xe
 4559 03f3 D9000000 		.4byte	0xd9
 4560 03f7 FE03     		.2byte	0x3fe
 4561 03f9 00       		.byte	0
 4562 03fa 05       		.uleb128 0x5
 4563 03fb E9030000 		.4byte	0x3e9
 4564 03ff 06       		.uleb128 0x6
 4565 0400 FA030000 		.4byte	0x3fa
 4566 0404 07       		.uleb128 0x7
 4567 0405 A9010000 		.4byte	0x1a9
 4568 0409 14040000 		.4byte	0x414
 4569 040d 08       		.uleb128 0x8
 4570 040e D9000000 		.4byte	0xd9
 4571 0412 0F       		.byte	0xf
 4572 0413 00       		.byte	0
 4573 0414 07       		.uleb128 0x7
 4574 0415 19020000 		.4byte	0x219
 4575 0419 24040000 		.4byte	0x424
 4576 041d 08       		.uleb128 0x8
 4577 041e D9000000 		.4byte	0xd9
 4578 0422 1F       		.byte	0x1f
 4579 0423 00       		.byte	0
 4580 0424 07       		.uleb128 0x7
 4581 0425 E5000000 		.4byte	0xe5
 4582 0429 35040000 		.4byte	0x435
 4583 042d 0E       		.uleb128 0xe
 4584 042e D9000000 		.4byte	0xd9
 4585 0432 FF01     		.2byte	0x1ff
 4586 0434 00       		.byte	0
 4587 0435 05       		.uleb128 0x5
 4588 0436 24040000 		.4byte	0x424
 4589 043a 06       		.uleb128 0x6
ARM GAS  C:\Users\kiwamu\AppData\Local\Temp\ccIx7zyv.s 			page 147


 4590 043b 35040000 		.4byte	0x435
 4591 043f 07       		.uleb128 0x7
 4592 0440 89020000 		.4byte	0x289
 4593 0444 4F040000 		.4byte	0x44f
 4594 0448 08       		.uleb128 0x8
 4595 0449 D9000000 		.4byte	0xd9
 4596 044d 0F       		.byte	0xf
 4597 044e 00       		.byte	0
 4598 044f 03       		.uleb128 0x3
 4599 0450 F8130000 		.4byte	.LASF46
 4600 0454 05       		.byte	0x5
 4601 0455 7B       		.byte	0x7b
 4602 0456 94020000 		.4byte	0x294
 4603 045a 0B       		.uleb128 0xb
 4604 045b 08F0     		.2byte	0xf008
 4605 045d 06       		.byte	0x6
 4606 045e 21       		.byte	0x21
 4607 045f 9A070000 		.4byte	0x79a
 4608 0463 0A       		.uleb128 0xa
 4609 0464 C8130000 		.4byte	.LASF47
 4610 0468 06       		.byte	0x6
 4611 0469 22       		.byte	0x22
 4612 046a E0000000 		.4byte	0xe0
 4613 046e 00       		.byte	0
 4614 046f 0A       		.uleb128 0xa
 4615 0470 00000000 		.4byte	.LASF21
 4616 0474 06       		.byte	0x6
 4617 0475 23       		.byte	0x23
 4618 0476 E5000000 		.4byte	0xe5
 4619 047a 04       		.byte	0x4
 4620 047b 0A       		.uleb128 0xa
 4621 047c 18030000 		.4byte	.LASF48
 4622 0480 06       		.byte	0x6
 4623 0481 24       		.byte	0x24
 4624 0482 E5000000 		.4byte	0xe5
 4625 0486 08       		.byte	0x8
 4626 0487 0A       		.uleb128 0xa
 4627 0488 C9110000 		.4byte	.LASF24
 4628 048c 06       		.byte	0x6
 4629 048d 25       		.byte	0x25
 4630 048e E5000000 		.4byte	0xe5
 4631 0492 0C       		.byte	0xc
 4632 0493 0A       		.uleb128 0xa
 4633 0494 8B010000 		.4byte	.LASF49
 4634 0498 06       		.byte	0x6
 4635 0499 26       		.byte	0x26
 4636 049a E0000000 		.4byte	0xe0
 4637 049e 10       		.byte	0x10
 4638 049f 0A       		.uleb128 0xa
 4639 04a0 D3110000 		.4byte	.LASF39
 4640 04a4 06       		.byte	0x6
 4641 04a5 27       		.byte	0x27
 4642 04a6 AF070000 		.4byte	0x7af
 4643 04aa 14       		.byte	0x14
 4644 04ab 0A       		.uleb128 0xa
 4645 04ac A9160000 		.4byte	.LASF50
 4646 04b0 06       		.byte	0x6
ARM GAS  C:\Users\kiwamu\AppData\Local\Temp\ccIx7zyv.s 			page 148


 4647 04b1 28       		.byte	0x28
 4648 04b2 E0000000 		.4byte	0xe0
 4649 04b6 20       		.byte	0x20
 4650 04b7 0A       		.uleb128 0xa
 4651 04b8 77150000 		.4byte	.LASF51
 4652 04bc 06       		.byte	0x6
 4653 04bd 29       		.byte	0x29
 4654 04be E0000000 		.4byte	0xe0
 4655 04c2 24       		.byte	0x24
 4656 04c3 0A       		.uleb128 0xa
 4657 04c4 84150000 		.4byte	.LASF52
 4658 04c8 06       		.byte	0x6
 4659 04c9 2A       		.byte	0x2a
 4660 04ca E0000000 		.4byte	0xe0
 4661 04ce 28       		.byte	0x28
 4662 04cf 0A       		.uleb128 0xa
 4663 04d0 91150000 		.4byte	.LASF53
 4664 04d4 06       		.byte	0x6
 4665 04d5 2B       		.byte	0x2b
 4666 04d6 E0000000 		.4byte	0xe0
 4667 04da 2C       		.byte	0x2c
 4668 04db 0A       		.uleb128 0xa
 4669 04dc 9E150000 		.4byte	.LASF54
 4670 04e0 06       		.byte	0x6
 4671 04e1 2C       		.byte	0x2c
 4672 04e2 E0000000 		.4byte	0xe0
 4673 04e6 30       		.byte	0x30
 4674 04e7 0A       		.uleb128 0xa
 4675 04e8 AB150000 		.4byte	.LASF55
 4676 04ec 06       		.byte	0x6
 4677 04ed 2D       		.byte	0x2d
 4678 04ee E0000000 		.4byte	0xe0
 4679 04f2 34       		.byte	0x34
 4680 04f3 0A       		.uleb128 0xa
 4681 04f4 58120000 		.4byte	.LASF56
 4682 04f8 06       		.byte	0x6
 4683 04f9 2E       		.byte	0x2e
 4684 04fa E0000000 		.4byte	0xe0
 4685 04fe 38       		.byte	0x38
 4686 04ff 0A       		.uleb128 0xa
 4687 0500 CA150000 		.4byte	.LASF57
 4688 0504 06       		.byte	0x6
 4689 0505 2F       		.byte	0x2f
 4690 0506 E0000000 		.4byte	0xe0
 4691 050a 3C       		.byte	0x3c
 4692 050b 0A       		.uleb128 0xa
 4693 050c DD110000 		.4byte	.LASF41
 4694 0510 06       		.byte	0x6
 4695 0511 30       		.byte	0x30
 4696 0512 C9070000 		.4byte	0x7c9
 4697 0516 40       		.byte	0x40
 4698 0517 0A       		.uleb128 0xa
 4699 0518 27100000 		.4byte	.LASF58
 4700 051c 06       		.byte	0x6
 4701 051d 31       		.byte	0x31
 4702 051e E0000000 		.4byte	0xe0
 4703 0522 80       		.byte	0x80
ARM GAS  C:\Users\kiwamu\AppData\Local\Temp\ccIx7zyv.s 			page 149


 4704 0523 0A       		.uleb128 0xa
 4705 0524 870E0000 		.4byte	.LASF59
 4706 0528 06       		.byte	0x6
 4707 0529 32       		.byte	0x32
 4708 052a E0000000 		.4byte	0xe0
 4709 052e 84       		.byte	0x84
 4710 052f 0A       		.uleb128 0xa
 4711 0530 8F110000 		.4byte	.LASF60
 4712 0534 06       		.byte	0x6
 4713 0535 33       		.byte	0x33
 4714 0536 E5000000 		.4byte	0xe5
 4715 053a 88       		.byte	0x88
 4716 053b 0A       		.uleb128 0xa
 4717 053c E7110000 		.4byte	.LASF44
 4718 0540 06       		.byte	0x6
 4719 0541 34       		.byte	0x34
 4720 0542 E5000000 		.4byte	0xe5
 4721 0546 8C       		.byte	0x8c
 4722 0547 0A       		.uleb128 0xa
 4723 0548 B40B0000 		.4byte	.LASF61
 4724 054c 06       		.byte	0x6
 4725 054d 35       		.byte	0x35
 4726 054e E0000000 		.4byte	0xe0
 4727 0552 90       		.byte	0x90
 4728 0553 0A       		.uleb128 0xa
 4729 0554 F1110000 		.4byte	.LASF62
 4730 0558 06       		.byte	0x6
 4731 0559 36       		.byte	0x36
 4732 055a D3070000 		.4byte	0x7d3
 4733 055e 94       		.byte	0x94
 4734 055f 0A       		.uleb128 0xa
 4735 0560 700F0000 		.4byte	.LASF63
 4736 0564 06       		.byte	0x6
 4737 0565 37       		.byte	0x37
 4738 0566 E0000000 		.4byte	0xe0
 4739 056a A0       		.byte	0xa0
 4740 056b 0A       		.uleb128 0xa
 4741 056c FB110000 		.4byte	.LASF64
 4742 0570 06       		.byte	0x6
 4743 0571 38       		.byte	0x38
 4744 0572 ED070000 		.4byte	0x7ed
 4745 0576 A4       		.byte	0xa4
 4746 0577 0D       		.uleb128 0xd
 4747 0578 7C090000 		.4byte	.LASF65
 4748 057c 06       		.byte	0x6
 4749 057d 39       		.byte	0x39
 4750 057e E0000000 		.4byte	0xe0
 4751 0582 0001     		.2byte	0x100
 4752 0584 0D       		.uleb128 0xd
 4753 0585 05120000 		.4byte	.LASF66
 4754 0589 06       		.byte	0x6
 4755 058a 3A       		.byte	0x3a
 4756 058b 07080000 		.4byte	0x807
 4757 058f 0401     		.2byte	0x104
 4758 0591 0D       		.uleb128 0xd
 4759 0592 C2050000 		.4byte	.LASF67
 4760 0596 06       		.byte	0x6
ARM GAS  C:\Users\kiwamu\AppData\Local\Temp\ccIx7zyv.s 			page 150


 4761 0597 3B       		.byte	0x3b
 4762 0598 0C080000 		.4byte	0x80c
 4763 059c 4001     		.2byte	0x140
 4764 059e 0D       		.uleb128 0xd
 4765 059f 8E130000 		.4byte	.LASF68
 4766 05a3 06       		.byte	0x6
 4767 05a4 3C       		.byte	0x3c
 4768 05a5 E0000000 		.4byte	0xe0
 4769 05a9 8001     		.2byte	0x180
 4770 05ab 0D       		.uleb128 0xd
 4771 05ac 0F120000 		.4byte	.LASF69
 4772 05b0 06       		.byte	0x6
 4773 05b1 3D       		.byte	0x3d
 4774 05b2 16080000 		.4byte	0x816
 4775 05b6 8401     		.2byte	0x184
 4776 05b8 0D       		.uleb128 0xd
 4777 05b9 27040000 		.4byte	.LASF70
 4778 05bd 06       		.byte	0x6
 4779 05be 3E       		.byte	0x3e
 4780 05bf E0000000 		.4byte	0xe0
 4781 05c3 9001     		.2byte	0x190
 4782 05c5 0D       		.uleb128 0xd
 4783 05c6 19120000 		.4byte	.LASF71
 4784 05ca 06       		.byte	0x6
 4785 05cb 3F       		.byte	0x3f
 4786 05cc 20080000 		.4byte	0x820
 4787 05d0 9401     		.2byte	0x194
 4788 05d2 0D       		.uleb128 0xd
 4789 05d3 EB010000 		.4byte	.LASF72
 4790 05d7 06       		.byte	0x6
 4791 05d8 40       		.byte	0x40
 4792 05d9 E0000000 		.4byte	0xe0
 4793 05dd A001     		.2byte	0x1a0
 4794 05df 0D       		.uleb128 0xd
 4795 05e0 B6160000 		.4byte	.LASF73
 4796 05e4 06       		.byte	0x6
 4797 05e5 41       		.byte	0x41
 4798 05e6 2A080000 		.4byte	0x82a
 4799 05ea A401     		.2byte	0x1a4
 4800 05ec 0D       		.uleb128 0xd
 4801 05ed 9C160000 		.4byte	.LASF74
 4802 05f1 06       		.byte	0x6
 4803 05f2 42       		.byte	0x42
 4804 05f3 E0000000 		.4byte	0xe0
 4805 05f7 B001     		.2byte	0x1b0
 4806 05f9 0D       		.uleb128 0xd
 4807 05fa C1160000 		.4byte	.LASF75
 4808 05fe 06       		.byte	0x6
 4809 05ff 43       		.byte	0x43
 4810 0600 34080000 		.4byte	0x834
 4811 0604 B401     		.2byte	0x1b4
 4812 0606 0D       		.uleb128 0xd
 4813 0607 490A0000 		.4byte	.LASF76
 4814 060b 06       		.byte	0x6
 4815 060c 44       		.byte	0x44
 4816 060d E0000000 		.4byte	0xe0
 4817 0611 C001     		.2byte	0x1c0
ARM GAS  C:\Users\kiwamu\AppData\Local\Temp\ccIx7zyv.s 			page 151


 4818 0613 0D       		.uleb128 0xd
 4819 0614 CC160000 		.4byte	.LASF77
 4820 0618 06       		.byte	0x6
 4821 0619 45       		.byte	0x45
 4822 061a 3E080000 		.4byte	0x83e
 4823 061e C401     		.2byte	0x1c4
 4824 0620 0D       		.uleb128 0xd
 4825 0621 10030000 		.4byte	.LASF78
 4826 0625 06       		.byte	0x6
 4827 0626 46       		.byte	0x46
 4828 0627 E0000000 		.4byte	0xe0
 4829 062b D001     		.2byte	0x1d0
 4830 062d 0D       		.uleb128 0xd
 4831 062e D7160000 		.4byte	.LASF79
 4832 0632 06       		.byte	0x6
 4833 0633 47       		.byte	0x47
 4834 0634 48080000 		.4byte	0x848
 4835 0638 D401     		.2byte	0x1d4
 4836 063a 0D       		.uleb128 0xd
 4837 063b 66190000 		.4byte	.LASF80
 4838 063f 06       		.byte	0x6
 4839 0640 48       		.byte	0x48
 4840 0641 E0000000 		.4byte	0xe0
 4841 0645 F001     		.2byte	0x1f0
 4842 0647 0D       		.uleb128 0xd
 4843 0648 B0000000 		.4byte	.LASF81
 4844 064c 06       		.byte	0x6
 4845 064d 49       		.byte	0x49
 4846 064e E0000000 		.4byte	0xe0
 4847 0652 F401     		.2byte	0x1f4
 4848 0654 0D       		.uleb128 0xd
 4849 0655 E2160000 		.4byte	.LASF82
 4850 0659 06       		.byte	0x6
 4851 065a 4A       		.byte	0x4a
 4852 065b 62080000 		.4byte	0x862
 4853 065f F801     		.2byte	0x1f8
 4854 0661 0D       		.uleb128 0xd
 4855 0662 7B000000 		.4byte	.LASF83
 4856 0666 06       		.byte	0x6
 4857 0667 4B       		.byte	0x4b
 4858 0668 E5000000 		.4byte	0xe5
 4859 066c 0802     		.2byte	0x208
 4860 066e 0D       		.uleb128 0xd
 4861 066f ED160000 		.4byte	.LASF84
 4862 0673 06       		.byte	0x6
 4863 0674 4C       		.byte	0x4c
 4864 0675 7C080000 		.4byte	0x87c
 4865 0679 0C02     		.2byte	0x20c
 4866 067b 0D       		.uleb128 0xd
 4867 067c CE170000 		.4byte	.LASF85
 4868 0680 06       		.byte	0x6
 4869 0681 4D       		.byte	0x4d
 4870 0682 E0000000 		.4byte	0xe0
 4871 0686 2002     		.2byte	0x220
 4872 0688 0D       		.uleb128 0xd
 4873 0689 F8160000 		.4byte	.LASF86
 4874 068d 06       		.byte	0x6
ARM GAS  C:\Users\kiwamu\AppData\Local\Temp\ccIx7zyv.s 			page 152


 4875 068e 4E       		.byte	0x4e
 4876 068f 86080000 		.4byte	0x886
 4877 0693 2402     		.2byte	0x224
 4878 0695 0D       		.uleb128 0xd
 4879 0696 BC020000 		.4byte	.LASF87
 4880 069a 06       		.byte	0x6
 4881 069b 4F       		.byte	0x4f
 4882 069c E0000000 		.4byte	0xe0
 4883 06a0 3002     		.2byte	0x230
 4884 06a2 0D       		.uleb128 0xd
 4885 06a3 03170000 		.4byte	.LASF88
 4886 06a7 06       		.byte	0x6
 4887 06a8 50       		.byte	0x50
 4888 06a9 90080000 		.4byte	0x890
 4889 06ad 3402     		.2byte	0x234
 4890 06af 0D       		.uleb128 0xd
 4891 06b0 301B0000 		.4byte	.LASF89
 4892 06b4 06       		.byte	0x6
 4893 06b5 51       		.byte	0x51
 4894 06b6 E0000000 		.4byte	0xe0
 4895 06ba 4002     		.2byte	0x240
 4896 06bc 0D       		.uleb128 0xd
 4897 06bd 0E170000 		.4byte	.LASF90
 4898 06c1 06       		.byte	0x6
 4899 06c2 52       		.byte	0x52
 4900 06c3 AA080000 		.4byte	0x8aa
 4901 06c7 4402     		.2byte	0x244
 4902 06c9 0D       		.uleb128 0xd
 4903 06ca BB120000 		.4byte	.LASF91
 4904 06ce 06       		.byte	0x6
 4905 06cf 53       		.byte	0x53
 4906 06d0 E0000000 		.4byte	0xe0
 4907 06d4 B002     		.2byte	0x2b0
 4908 06d6 0D       		.uleb128 0xd
 4909 06d7 19170000 		.4byte	.LASF92
 4910 06db 06       		.byte	0x6
 4911 06dc 54       		.byte	0x54
 4912 06dd B4080000 		.4byte	0x8b4
 4913 06e1 B402     		.2byte	0x2b4
 4914 06e3 0D       		.uleb128 0xd
 4915 06e4 B7010000 		.4byte	.LASF93
 4916 06e8 06       		.byte	0x6
 4917 06e9 55       		.byte	0x55
 4918 06ea E0000000 		.4byte	0xe0
 4919 06ee C002     		.2byte	0x2c0
 4920 06f0 0D       		.uleb128 0xd
 4921 06f1 FB180000 		.4byte	.LASF94
 4922 06f5 06       		.byte	0x6
 4923 06f6 56       		.byte	0x56
 4924 06f7 BE080000 		.4byte	0x8be
 4925 06fb C402     		.2byte	0x2c4
 4926 06fd 0D       		.uleb128 0xd
 4927 06fe B8090000 		.4byte	.LASF95
 4928 0702 06       		.byte	0x6
 4929 0703 57       		.byte	0x57
 4930 0704 E0000000 		.4byte	0xe0
 4931 0708 2003     		.2byte	0x320
ARM GAS  C:\Users\kiwamu\AppData\Local\Temp\ccIx7zyv.s 			page 153


 4932 070a 0D       		.uleb128 0xd
 4933 070b 06190000 		.4byte	.LASF96
 4934 070f 06       		.byte	0x6
 4935 0710 58       		.byte	0x58
 4936 0711 D8080000 		.4byte	0x8d8
 4937 0715 2403     		.2byte	0x324
 4938 0717 0D       		.uleb128 0xd
 4939 0718 A00E0000 		.4byte	.LASF97
 4940 071c 06       		.byte	0x6
 4941 071d 59       		.byte	0x59
 4942 071e E5000000 		.4byte	0xe5
 4943 0722 0004     		.2byte	0x400
 4944 0724 0D       		.uleb128 0xd
 4945 0725 11190000 		.4byte	.LASF98
 4946 0729 06       		.byte	0x6
 4947 072a 5A       		.byte	0x5a
 4948 072b F2080000 		.4byte	0x8f2
 4949 072f 0404     		.2byte	0x404
 4950 0731 0D       		.uleb128 0xd
 4951 0732 5D0D0000 		.4byte	.LASF99
 4952 0736 06       		.byte	0x6
 4953 0737 5B       		.byte	0x5b
 4954 0738 E0000000 		.4byte	0xe0
 4955 073c 0005     		.2byte	0x500
 4956 073e 0D       		.uleb128 0xd
 4957 073f 1C190000 		.4byte	.LASF100
 4958 0743 06       		.byte	0x6
 4959 0744 5C       		.byte	0x5c
 4960 0745 FC080000 		.4byte	0x8fc
 4961 0749 0405     		.2byte	0x504
 4962 074b 0D       		.uleb128 0xd
 4963 074c 3E0B0000 		.4byte	.LASF101
 4964 0750 06       		.byte	0x6
 4965 0751 5D       		.byte	0x5d
 4966 0752 E0000000 		.4byte	0xe0
 4967 0756 2005     		.2byte	0x520
 4968 0758 0D       		.uleb128 0xd
 4969 0759 27190000 		.4byte	.LASF102
 4970 075d 06       		.byte	0x6
 4971 075e 5E       		.byte	0x5e
 4972 075f 16090000 		.4byte	0x916
 4973 0763 2405     		.2byte	0x524
 4974 0765 0D       		.uleb128 0xd
 4975 0766 650F0000 		.4byte	.LASF103
 4976 076a 06       		.byte	0x6
 4977 076b 5F       		.byte	0x5f
 4978 076c E5000000 		.4byte	0xe5
 4979 0770 A005     		.2byte	0x5a0
 4980 0772 0D       		.uleb128 0xd
 4981 0773 32190000 		.4byte	.LASF104
 4982 0777 06       		.byte	0x6
 4983 0778 60       		.byte	0x60
 4984 0779 31090000 		.4byte	0x931
 4985 077d A405     		.2byte	0x5a4
 4986 077f 0D       		.uleb128 0xd
 4987 0780 9C020000 		.4byte	.LASF105
 4988 0784 06       		.byte	0x6
ARM GAS  C:\Users\kiwamu\AppData\Local\Temp\ccIx7zyv.s 			page 154


 4989 0785 61       		.byte	0x61
 4990 0786 E0000000 		.4byte	0xe0
 4991 078a 00F0     		.2byte	0xf000
 4992 078c 0D       		.uleb128 0xd
 4993 078d 60100000 		.4byte	.LASF106
 4994 0791 06       		.byte	0x6
 4995 0792 62       		.byte	0x62
 4996 0793 E0000000 		.4byte	0xe0
 4997 0797 04F0     		.2byte	0xf004
 4998 0799 00       		.byte	0
 4999 079a 07       		.uleb128 0x7
 5000 079b E5000000 		.4byte	0xe5
 5001 079f AA070000 		.4byte	0x7aa
 5002 07a3 08       		.uleb128 0x8
 5003 07a4 D9000000 		.4byte	0xd9
 5004 07a8 02       		.byte	0x2
 5005 07a9 00       		.byte	0
 5006 07aa 05       		.uleb128 0x5
 5007 07ab 9A070000 		.4byte	0x79a
 5008 07af 06       		.uleb128 0x6
 5009 07b0 AA070000 		.4byte	0x7aa
 5010 07b4 07       		.uleb128 0x7
 5011 07b5 E5000000 		.4byte	0xe5
 5012 07b9 C4070000 		.4byte	0x7c4
 5013 07bd 08       		.uleb128 0x8
 5014 07be D9000000 		.4byte	0xd9
 5015 07c2 0F       		.byte	0xf
 5016 07c3 00       		.byte	0
 5017 07c4 05       		.uleb128 0x5
 5018 07c5 B4070000 		.4byte	0x7b4
 5019 07c9 06       		.uleb128 0x6
 5020 07ca C4070000 		.4byte	0x7c4
 5021 07ce 05       		.uleb128 0x5
 5022 07cf 9A070000 		.4byte	0x79a
 5023 07d3 06       		.uleb128 0x6
 5024 07d4 CE070000 		.4byte	0x7ce
 5025 07d8 07       		.uleb128 0x7
 5026 07d9 E5000000 		.4byte	0xe5
 5027 07dd E8070000 		.4byte	0x7e8
 5028 07e1 08       		.uleb128 0x8
 5029 07e2 D9000000 		.4byte	0xd9
 5030 07e6 16       		.byte	0x16
 5031 07e7 00       		.byte	0
 5032 07e8 05       		.uleb128 0x5
 5033 07e9 D8070000 		.4byte	0x7d8
 5034 07ed 06       		.uleb128 0x6
 5035 07ee E8070000 		.4byte	0x7e8
 5036 07f2 07       		.uleb128 0x7
 5037 07f3 E5000000 		.4byte	0xe5
 5038 07f7 02080000 		.4byte	0x802
 5039 07fb 08       		.uleb128 0x8
 5040 07fc D9000000 		.4byte	0xd9
 5041 0800 0E       		.byte	0xe
 5042 0801 00       		.byte	0
 5043 0802 05       		.uleb128 0x5
 5044 0803 F2070000 		.4byte	0x7f2
 5045 0807 06       		.uleb128 0x6
ARM GAS  C:\Users\kiwamu\AppData\Local\Temp\ccIx7zyv.s 			page 155


 5046 0808 02080000 		.4byte	0x802
 5047 080c 05       		.uleb128 0x5
 5048 080d FA000000 		.4byte	0xfa
 5049 0811 05       		.uleb128 0x5
 5050 0812 9A070000 		.4byte	0x79a
 5051 0816 06       		.uleb128 0x6
 5052 0817 11080000 		.4byte	0x811
 5053 081b 05       		.uleb128 0x5
 5054 081c 9A070000 		.4byte	0x79a
 5055 0820 06       		.uleb128 0x6
 5056 0821 1B080000 		.4byte	0x81b
 5057 0825 05       		.uleb128 0x5
 5058 0826 9A070000 		.4byte	0x79a
 5059 082a 06       		.uleb128 0x6
 5060 082b 25080000 		.4byte	0x825
 5061 082f 05       		.uleb128 0x5
 5062 0830 9A070000 		.4byte	0x79a
 5063 0834 06       		.uleb128 0x6
 5064 0835 2F080000 		.4byte	0x82f
 5065 0839 05       		.uleb128 0x5
 5066 083a 9A070000 		.4byte	0x79a
 5067 083e 06       		.uleb128 0x6
 5068 083f 39080000 		.4byte	0x839
 5069 0843 05       		.uleb128 0x5
 5070 0844 4F010000 		.4byte	0x14f
 5071 0848 06       		.uleb128 0x6
 5072 0849 43080000 		.4byte	0x843
 5073 084d 07       		.uleb128 0x7
 5074 084e E5000000 		.4byte	0xe5
 5075 0852 5D080000 		.4byte	0x85d
 5076 0856 08       		.uleb128 0x8
 5077 0857 D9000000 		.4byte	0xd9
 5078 085b 03       		.byte	0x3
 5079 085c 00       		.byte	0
 5080 085d 05       		.uleb128 0x5
 5081 085e 4D080000 		.4byte	0x84d
 5082 0862 06       		.uleb128 0x6
 5083 0863 5D080000 		.4byte	0x85d
 5084 0867 07       		.uleb128 0x7
 5085 0868 E5000000 		.4byte	0xe5
 5086 086c 77080000 		.4byte	0x877
 5087 0870 08       		.uleb128 0x8
 5088 0871 D9000000 		.4byte	0xd9
 5089 0875 04       		.byte	0x4
 5090 0876 00       		.byte	0
 5091 0877 05       		.uleb128 0x5
 5092 0878 67080000 		.4byte	0x867
 5093 087c 06       		.uleb128 0x6
 5094 087d 77080000 		.4byte	0x877
 5095 0881 05       		.uleb128 0x5
 5096 0882 9A070000 		.4byte	0x79a
 5097 0886 06       		.uleb128 0x6
 5098 0887 81080000 		.4byte	0x881
 5099 088b 05       		.uleb128 0x5
 5100 088c 9A070000 		.4byte	0x79a
 5101 0890 06       		.uleb128 0x6
 5102 0891 8B080000 		.4byte	0x88b
ARM GAS  C:\Users\kiwamu\AppData\Local\Temp\ccIx7zyv.s 			page 156


 5103 0895 07       		.uleb128 0x7
 5104 0896 E5000000 		.4byte	0xe5
 5105 089a A5080000 		.4byte	0x8a5
 5106 089e 08       		.uleb128 0x8
 5107 089f D9000000 		.4byte	0xd9
 5108 08a3 1A       		.byte	0x1a
 5109 08a4 00       		.byte	0
 5110 08a5 05       		.uleb128 0x5
 5111 08a6 95080000 		.4byte	0x895
 5112 08aa 06       		.uleb128 0x6
 5113 08ab A5080000 		.4byte	0x8a5
 5114 08af 05       		.uleb128 0x5
 5115 08b0 9A070000 		.4byte	0x79a
 5116 08b4 06       		.uleb128 0x6
 5117 08b5 AF080000 		.4byte	0x8af
 5118 08b9 05       		.uleb128 0x5
 5119 08ba D8070000 		.4byte	0x7d8
 5120 08be 06       		.uleb128 0x6
 5121 08bf B9080000 		.4byte	0x8b9
 5122 08c3 07       		.uleb128 0x7
 5123 08c4 E5000000 		.4byte	0xe5
 5124 08c8 D3080000 		.4byte	0x8d3
 5125 08cc 08       		.uleb128 0x8
 5126 08cd D9000000 		.4byte	0xd9
 5127 08d1 36       		.byte	0x36
 5128 08d2 00       		.byte	0
 5129 08d3 05       		.uleb128 0x5
 5130 08d4 C3080000 		.4byte	0x8c3
 5131 08d8 06       		.uleb128 0x6
 5132 08d9 D3080000 		.4byte	0x8d3
 5133 08dd 07       		.uleb128 0x7
 5134 08de E5000000 		.4byte	0xe5
 5135 08e2 ED080000 		.4byte	0x8ed
 5136 08e6 08       		.uleb128 0x8
 5137 08e7 D9000000 		.4byte	0xd9
 5138 08eb 3E       		.byte	0x3e
 5139 08ec 00       		.byte	0
 5140 08ed 05       		.uleb128 0x5
 5141 08ee DD080000 		.4byte	0x8dd
 5142 08f2 06       		.uleb128 0x6
 5143 08f3 ED080000 		.4byte	0x8ed
 5144 08f7 05       		.uleb128 0x5
 5145 08f8 4F010000 		.4byte	0x14f
 5146 08fc 06       		.uleb128 0x6
 5147 08fd F7080000 		.4byte	0x8f7
 5148 0901 07       		.uleb128 0x7
 5149 0902 E5000000 		.4byte	0xe5
 5150 0906 11090000 		.4byte	0x911
 5151 090a 08       		.uleb128 0x8
 5152 090b D9000000 		.4byte	0xd9
 5153 090f 1E       		.byte	0x1e
 5154 0910 00       		.byte	0
 5155 0911 05       		.uleb128 0x5
 5156 0912 01090000 		.4byte	0x901
 5157 0916 06       		.uleb128 0x6
 5158 0917 11090000 		.4byte	0x911
 5159 091b 07       		.uleb128 0x7
ARM GAS  C:\Users\kiwamu\AppData\Local\Temp\ccIx7zyv.s 			page 157


 5160 091c E5000000 		.4byte	0xe5
 5161 0920 2C090000 		.4byte	0x92c
 5162 0924 0E       		.uleb128 0xe
 5163 0925 D9000000 		.4byte	0xd9
 5164 0929 963A     		.2byte	0x3a96
 5165 092b 00       		.byte	0
 5166 092c 05       		.uleb128 0x5
 5167 092d 1B090000 		.4byte	0x91b
 5168 0931 06       		.uleb128 0x6
 5169 0932 2C090000 		.4byte	0x92c
 5170 0936 03       		.uleb128 0x3
 5171 0937 14080000 		.4byte	.LASF107
 5172 093b 06       		.byte	0x6
 5173 093c 63       		.byte	0x63
 5174 093d 5A040000 		.4byte	0x45a
 5175 0941 07       		.uleb128 0x7
 5176 0942 E5000000 		.4byte	0xe5
 5177 0946 51090000 		.4byte	0x951
 5178 094a 08       		.uleb128 0x8
 5179 094b D9000000 		.4byte	0xd9
 5180 094f 01       		.byte	0x1
 5181 0950 00       		.byte	0
 5182 0951 07       		.uleb128 0x7
 5183 0952 E5000000 		.4byte	0xe5
 5184 0956 61090000 		.4byte	0x961
 5185 095a 08       		.uleb128 0x8
 5186 095b D9000000 		.4byte	0xd9
 5187 095f 07       		.byte	0x7
 5188 0960 00       		.byte	0
 5189 0961 07       		.uleb128 0x7
 5190 0962 E5000000 		.4byte	0xe5
 5191 0966 71090000 		.4byte	0x971
 5192 096a 08       		.uleb128 0x8
 5193 096b D9000000 		.4byte	0xd9
 5194 096f 1C       		.byte	0x1c
 5195 0970 00       		.byte	0
 5196 0971 09       		.uleb128 0x9
 5197 0972 40       		.byte	0x40
 5198 0973 07       		.byte	0x7
 5199 0974 22       		.byte	0x22
 5200 0975 0A0A0000 		.4byte	0xa0a
 5201 0979 0A       		.uleb128 0xa
 5202 097a 00000000 		.4byte	.LASF21
 5203 097e 07       		.byte	0x7
 5204 097f 23       		.byte	0x23
 5205 0980 E5000000 		.4byte	0xe5
 5206 0984 00       		.byte	0
 5207 0985 0A       		.uleb128 0xa
 5208 0986 FE0D0000 		.4byte	.LASF108
 5209 098a 07       		.byte	0x7
 5210 098b 24       		.byte	0x24
 5211 098c E0000000 		.4byte	0xe0
 5212 0990 04       		.byte	0x4
 5213 0991 0A       		.uleb128 0xa
 5214 0992 3F080000 		.4byte	.LASF109
 5215 0996 07       		.byte	0x7
 5216 0997 25       		.byte	0x25
ARM GAS  C:\Users\kiwamu\AppData\Local\Temp\ccIx7zyv.s 			page 158


 5217 0998 E0000000 		.4byte	0xe0
 5218 099c 08       		.byte	0x8
 5219 099d 0A       		.uleb128 0xa
 5220 099e B7190000 		.4byte	.LASF110
 5221 09a2 07       		.byte	0x7
 5222 09a3 26       		.byte	0x26
 5223 09a4 E0000000 		.4byte	0xe0
 5224 09a8 0C       		.byte	0xc
 5225 09a9 0A       		.uleb128 0xa
 5226 09aa 7A170000 		.4byte	.LASF111
 5227 09ae 07       		.byte	0x7
 5228 09af 27       		.byte	0x27
 5229 09b0 E0000000 		.4byte	0xe0
 5230 09b4 10       		.byte	0x10
 5231 09b5 0A       		.uleb128 0xa
 5232 09b6 5C170000 		.4byte	.LASF112
 5233 09ba 07       		.byte	0x7
 5234 09bb 28       		.byte	0x28
 5235 09bc E0000000 		.4byte	0xe0
 5236 09c0 14       		.byte	0x14
 5237 09c1 0A       		.uleb128 0xa
 5238 09c2 400E0000 		.4byte	.LASF113
 5239 09c6 07       		.byte	0x7
 5240 09c7 29       		.byte	0x29
 5241 09c8 E0000000 		.4byte	0xe0
 5242 09cc 18       		.byte	0x18
 5243 09cd 0A       		.uleb128 0xa
 5244 09ce 6F130000 		.4byte	.LASF114
 5245 09d2 07       		.byte	0x7
 5246 09d3 2A       		.byte	0x2a
 5247 09d4 E0000000 		.4byte	0xe0
 5248 09d8 1C       		.byte	0x1c
 5249 09d9 0A       		.uleb128 0xa
 5250 09da 8C090000 		.4byte	.LASF115
 5251 09de 07       		.byte	0x7
 5252 09df 2B       		.byte	0x2b
 5253 09e0 E0000000 		.4byte	0xe0
 5254 09e4 20       		.byte	0x20
 5255 09e5 0A       		.uleb128 0xa
 5256 09e6 72040000 		.4byte	.LASF116
 5257 09ea 07       		.byte	0x7
 5258 09eb 2C       		.byte	0x2c
 5259 09ec E5000000 		.4byte	0xe5
 5260 09f0 24       		.byte	0x24
 5261 09f1 0A       		.uleb128 0xa
 5262 09f2 6D100000 		.4byte	.LASF117
 5263 09f6 07       		.byte	0x7
 5264 09f7 2D       		.byte	0x2d
 5265 09f8 E0000000 		.4byte	0xe0
 5266 09fc 28       		.byte	0x28
 5267 09fd 0A       		.uleb128 0xa
 5268 09fe C9110000 		.4byte	.LASF24
 5269 0a02 07       		.byte	0x7
 5270 0a03 2E       		.byte	0x2e
 5271 0a04 0F0A0000 		.4byte	0xa0f
 5272 0a08 2C       		.byte	0x2c
 5273 0a09 00       		.byte	0
ARM GAS  C:\Users\kiwamu\AppData\Local\Temp\ccIx7zyv.s 			page 159


 5274 0a0a 05       		.uleb128 0x5
 5275 0a0b 67080000 		.4byte	0x867
 5276 0a0f 06       		.uleb128 0x6
 5277 0a10 0A0A0000 		.4byte	0xa0a
 5278 0a14 03       		.uleb128 0x3
 5279 0a15 A21A0000 		.4byte	.LASF118
 5280 0a19 07       		.byte	0x7
 5281 0a1a 2F       		.byte	0x2f
 5282 0a1b 71090000 		.4byte	0x971
 5283 0a1f 0B       		.uleb128 0xb
 5284 0a20 30FF     		.2byte	0xff30
 5285 0a22 07       		.byte	0x7
 5286 0a23 34       		.byte	0x34
 5287 0a24 930D0000 		.4byte	0xd93
 5288 0a28 0A       		.uleb128 0xa
 5289 0a29 98030000 		.4byte	.LASF119
 5290 0a2d 07       		.byte	0x7
 5291 0a2e 35       		.byte	0x35
 5292 0a2f E0000000 		.4byte	0xe0
 5293 0a33 00       		.byte	0
 5294 0a34 0A       		.uleb128 0xa
 5295 0a35 950F0000 		.4byte	.LASF120
 5296 0a39 07       		.byte	0x7
 5297 0a3a 36       		.byte	0x36
 5298 0a3b E0000000 		.4byte	0xe0
 5299 0a3f 04       		.byte	0x4
 5300 0a40 0A       		.uleb128 0xa
 5301 0a41 710C0000 		.4byte	.LASF121
 5302 0a45 07       		.byte	0x7
 5303 0a46 37       		.byte	0x37
 5304 0a47 E0000000 		.4byte	0xe0
 5305 0a4b 08       		.byte	0x8
 5306 0a4c 0A       		.uleb128 0xa
 5307 0a4d 00000000 		.4byte	.LASF21
 5308 0a51 07       		.byte	0x7
 5309 0a52 38       		.byte	0x38
 5310 0a53 980D0000 		.4byte	0xd98
 5311 0a57 0C       		.byte	0xc
 5312 0a58 0A       		.uleb128 0xa
 5313 0a59 8F120000 		.4byte	.LASF122
 5314 0a5d 07       		.byte	0x7
 5315 0a5e 39       		.byte	0x39
 5316 0a5f E0000000 		.4byte	0xe0
 5317 0a63 14       		.byte	0x14
 5318 0a64 0A       		.uleb128 0xa
 5319 0a65 77070000 		.4byte	.LASF123
 5320 0a69 07       		.byte	0x7
 5321 0a6a 3A       		.byte	0x3a
 5322 0a6b E0000000 		.4byte	0xe0
 5323 0a6f 18       		.byte	0x18
 5324 0a70 0A       		.uleb128 0xa
 5325 0a71 49010000 		.4byte	.LASF124
 5326 0a75 07       		.byte	0x7
 5327 0a76 3B       		.byte	0x3b
 5328 0a77 E5000000 		.4byte	0xe5
 5329 0a7b 1C       		.byte	0x1c
 5330 0a7c 0A       		.uleb128 0xa
ARM GAS  C:\Users\kiwamu\AppData\Local\Temp\ccIx7zyv.s 			page 160


 5331 0a7d C9110000 		.4byte	.LASF24
 5332 0a81 07       		.byte	0x7
 5333 0a82 3C       		.byte	0x3c
 5334 0a83 B20D0000 		.4byte	0xdb2
 5335 0a87 20       		.byte	0x20
 5336 0a88 0A       		.uleb128 0xa
 5337 0a89 B2030000 		.4byte	.LASF125
 5338 0a8d 07       		.byte	0x7
 5339 0a8e 3D       		.byte	0x3d
 5340 0a8f B70D0000 		.4byte	0xdb7
 5341 0a93 80       		.byte	0x80
 5342 0a94 0A       		.uleb128 0xa
 5343 0a95 D3110000 		.4byte	.LASF39
 5344 0a99 07       		.byte	0x7
 5345 0a9a 3E       		.byte	0x3e
 5346 0a9b D10D0000 		.4byte	0xdd1
 5347 0a9f C0       		.byte	0xc0
 5348 0aa0 0D       		.uleb128 0xd
 5349 0aa1 FA150000 		.4byte	.LASF126
 5350 0aa5 07       		.byte	0x7
 5351 0aa6 3F       		.byte	0x3f
 5352 0aa7 E0000000 		.4byte	0xe0
 5353 0aab 8001     		.2byte	0x180
 5354 0aad 0D       		.uleb128 0xd
 5355 0aae B70C0000 		.4byte	.LASF127
 5356 0ab2 07       		.byte	0x7
 5357 0ab3 40       		.byte	0x40
 5358 0ab4 E0000000 		.4byte	0xe0
 5359 0ab8 8401     		.2byte	0x184
 5360 0aba 0D       		.uleb128 0xd
 5361 0abb 11090000 		.4byte	.LASF128
 5362 0abf 07       		.byte	0x7
 5363 0ac0 41       		.byte	0x41
 5364 0ac1 E0000000 		.4byte	0xe0
 5365 0ac5 8801     		.2byte	0x188
 5366 0ac7 0D       		.uleb128 0xd
 5367 0ac8 DD110000 		.4byte	.LASF41
 5368 0acc 07       		.byte	0x7
 5369 0acd 42       		.byte	0x42
 5370 0ace DB0D0000 		.4byte	0xddb
 5371 0ad2 8C01     		.2byte	0x18c
 5372 0ad4 0D       		.uleb128 0xd
 5373 0ad5 EF120000 		.4byte	.LASF129
 5374 0ad9 07       		.byte	0x7
 5375 0ada 43       		.byte	0x43
 5376 0adb E00D0000 		.4byte	0xde0
 5377 0adf 0002     		.2byte	0x200
 5378 0ae1 0D       		.uleb128 0xd
 5379 0ae2 651A0000 		.4byte	.LASF130
 5380 0ae6 07       		.byte	0x7
 5381 0ae7 44       		.byte	0x44
 5382 0ae8 F00D0000 		.4byte	0xdf0
 5383 0aec 0003     		.2byte	0x300
 5384 0aee 0D       		.uleb128 0xd
 5385 0aef 3F120000 		.4byte	.LASF131
 5386 0af3 07       		.byte	0x7
 5387 0af4 45       		.byte	0x45
ARM GAS  C:\Users\kiwamu\AppData\Local\Temp\ccIx7zyv.s 			page 161


 5388 0af5 F50D0000 		.4byte	0xdf5
 5389 0af9 4003     		.2byte	0x340
 5390 0afb 0D       		.uleb128 0xd
 5391 0afc 3B110000 		.4byte	.LASF132
 5392 0b00 07       		.byte	0x7
 5393 0b01 46       		.byte	0x46
 5394 0b02 FA0D0000 		.4byte	0xdfa
 5395 0b06 8003     		.2byte	0x380
 5396 0b08 0D       		.uleb128 0xd
 5397 0b09 E7110000 		.4byte	.LASF44
 5398 0b0d 07       		.byte	0x7
 5399 0b0e 47       		.byte	0x47
 5400 0b0f 140E0000 		.4byte	0xe14
 5401 0b13 C003     		.2byte	0x3c0
 5402 0b15 0D       		.uleb128 0xd
 5403 0b16 91020000 		.4byte	.LASF133
 5404 0b1a 07       		.byte	0x7
 5405 0b1b 48       		.byte	0x48
 5406 0b1c E0000000 		.4byte	0xe0
 5407 0b20 0005     		.2byte	0x500
 5408 0b22 0D       		.uleb128 0xd
 5409 0b23 180D0000 		.4byte	.LASF134
 5410 0b27 07       		.byte	0x7
 5411 0b28 49       		.byte	0x49
 5412 0b29 E0000000 		.4byte	0xe0
 5413 0b2d 0405     		.2byte	0x504
 5414 0b2f 0D       		.uleb128 0xd
 5415 0b30 F1110000 		.4byte	.LASF62
 5416 0b34 07       		.byte	0x7
 5417 0b35 4A       		.byte	0x4a
 5418 0b36 E5000000 		.4byte	0xe5
 5419 0b3a 0805     		.2byte	0x508
 5420 0b3c 0D       		.uleb128 0xd
 5421 0b3d DC010000 		.4byte	.LASF135
 5422 0b41 07       		.byte	0x7
 5423 0b42 4B       		.byte	0x4b
 5424 0b43 E0000000 		.4byte	0xe0
 5425 0b47 0C05     		.2byte	0x50c
 5426 0b49 0D       		.uleb128 0xd
 5427 0b4a 810A0000 		.4byte	.LASF136
 5428 0b4e 07       		.byte	0x7
 5429 0b4f 4C       		.byte	0x4c
 5430 0b50 E0000000 		.4byte	0xe0
 5431 0b54 1005     		.2byte	0x510
 5432 0b56 0D       		.uleb128 0xd
 5433 0b57 6F0E0000 		.4byte	.LASF137
 5434 0b5b 07       		.byte	0x7
 5435 0b5c 4D       		.byte	0x4d
 5436 0b5d E0000000 		.4byte	0xe0
 5437 0b61 1405     		.2byte	0x514
 5438 0b63 0D       		.uleb128 0xd
 5439 0b64 6F020000 		.4byte	.LASF138
 5440 0b68 07       		.byte	0x7
 5441 0b69 4E       		.byte	0x4e
 5442 0b6a E0000000 		.4byte	0xe0
 5443 0b6e 1805     		.2byte	0x518
 5444 0b70 0D       		.uleb128 0xd
ARM GAS  C:\Users\kiwamu\AppData\Local\Temp\ccIx7zyv.s 			page 162


 5445 0b71 1B090000 		.4byte	.LASF139
 5446 0b75 07       		.byte	0x7
 5447 0b76 4F       		.byte	0x4f
 5448 0b77 E0000000 		.4byte	0xe0
 5449 0b7b 1C05     		.2byte	0x51c
 5450 0b7d 0D       		.uleb128 0xd
 5451 0b7e 28090000 		.4byte	.LASF140
 5452 0b82 07       		.byte	0x7
 5453 0b83 50       		.byte	0x50
 5454 0b84 E5000000 		.4byte	0xe5
 5455 0b88 2005     		.2byte	0x520
 5456 0b8a 0D       		.uleb128 0xd
 5457 0b8b FB110000 		.4byte	.LASF64
 5458 0b8f 07       		.byte	0x7
 5459 0b90 51       		.byte	0x51
 5460 0b91 1E0E0000 		.4byte	0xe1e
 5461 0b95 2405     		.2byte	0x524
 5462 0b97 0D       		.uleb128 0xd
 5463 0b98 310E0000 		.4byte	.LASF141
 5464 0b9c 07       		.byte	0x7
 5465 0b9d 52       		.byte	0x52
 5466 0b9e E0000000 		.4byte	0xe0
 5467 0ba2 2C05     		.2byte	0x52c
 5468 0ba4 0D       		.uleb128 0xd
 5469 0ba5 1F080000 		.4byte	.LASF142
 5470 0ba9 07       		.byte	0x7
 5471 0baa 53       		.byte	0x53
 5472 0bab E5000000 		.4byte	0xe5
 5473 0baf 3005     		.2byte	0x530
 5474 0bb1 0D       		.uleb128 0xd
 5475 0bb2 05120000 		.4byte	.LASF66
 5476 0bb6 07       		.byte	0x7
 5477 0bb7 54       		.byte	0x54
 5478 0bb8 280E0000 		.4byte	0xe28
 5479 0bbc 3405     		.2byte	0x534
 5480 0bbe 0D       		.uleb128 0xd
 5481 0bbf B30F0000 		.4byte	.LASF143
 5482 0bc3 07       		.byte	0x7
 5483 0bc4 55       		.byte	0x55
 5484 0bc5 E0000000 		.4byte	0xe0
 5485 0bc9 3C05     		.2byte	0x53c
 5486 0bcb 0D       		.uleb128 0xd
 5487 0bcc 0F120000 		.4byte	.LASF69
 5488 0bd0 07       		.byte	0x7
 5489 0bd1 56       		.byte	0x56
 5490 0bd2 320E0000 		.4byte	0xe32
 5491 0bd6 4005     		.2byte	0x540
 5492 0bd8 0D       		.uleb128 0xd
 5493 0bd9 E4070000 		.4byte	.LASF144
 5494 0bdd 07       		.byte	0x7
 5495 0bde 57       		.byte	0x57
 5496 0bdf E0000000 		.4byte	0xe0
 5497 0be3 8005     		.2byte	0x580
 5498 0be5 0D       		.uleb128 0xd
 5499 0be6 DD080000 		.4byte	.LASF145
 5500 0bea 07       		.byte	0x7
 5501 0beb 58       		.byte	0x58
ARM GAS  C:\Users\kiwamu\AppData\Local\Temp\ccIx7zyv.s 			page 163


 5502 0bec E0000000 		.4byte	0xe0
 5503 0bf0 8405     		.2byte	0x584
 5504 0bf2 0D       		.uleb128 0xd
 5505 0bf3 A4170000 		.4byte	.LASF146
 5506 0bf7 07       		.byte	0x7
 5507 0bf8 59       		.byte	0x59
 5508 0bf9 E0000000 		.4byte	0xe0
 5509 0bfd 8805     		.2byte	0x588
 5510 0bff 0D       		.uleb128 0xd
 5511 0c00 01090000 		.4byte	.LASF147
 5512 0c04 07       		.byte	0x7
 5513 0c05 5A       		.byte	0x5a
 5514 0c06 E0000000 		.4byte	0xe0
 5515 0c0a 8C05     		.2byte	0x58c
 5516 0c0c 0D       		.uleb128 0xd
 5517 0c0d A8010000 		.4byte	.LASF148
 5518 0c11 07       		.byte	0x7
 5519 0c12 5B       		.byte	0x5b
 5520 0c13 E0000000 		.4byte	0xe0
 5521 0c17 9005     		.2byte	0x590
 5522 0c19 0D       		.uleb128 0xd
 5523 0c1a 19120000 		.4byte	.LASF71
 5524 0c1e 07       		.byte	0x7
 5525 0c1f 5C       		.byte	0x5c
 5526 0c20 3C0E0000 		.4byte	0xe3c
 5527 0c24 9405     		.2byte	0x594
 5528 0c26 0D       		.uleb128 0xd
 5529 0c27 A9090000 		.4byte	.LASF149
 5530 0c2b 07       		.byte	0x7
 5531 0c2c 5D       		.byte	0x5d
 5532 0c2d 510E0000 		.4byte	0xe51
 5533 0c31 0006     		.2byte	0x600
 5534 0c33 0D       		.uleb128 0xd
 5535 0c34 B6160000 		.4byte	.LASF73
 5536 0c38 07       		.byte	0x7
 5537 0c39 5E       		.byte	0x5e
 5538 0c3a E5000000 		.4byte	0xe5
 5539 0c3e 3C06     		.2byte	0x63c
 5540 0c40 0D       		.uleb128 0xd
 5541 0c41 E3090000 		.4byte	.LASF150
 5542 0c45 07       		.byte	0x7
 5543 0c46 5F       		.byte	0x5f
 5544 0c47 560E0000 		.4byte	0xe56
 5545 0c4b 4006     		.2byte	0x640
 5546 0c4d 0D       		.uleb128 0xd
 5547 0c4e C1160000 		.4byte	.LASF75
 5548 0c52 07       		.byte	0x7
 5549 0c53 60       		.byte	0x60
 5550 0c54 700E0000 		.4byte	0xe70
 5551 0c58 7C06     		.2byte	0x67c
 5552 0c5a 0D       		.uleb128 0xd
 5553 0c5b DA070000 		.4byte	.LASF151
 5554 0c5f 07       		.byte	0x7
 5555 0c60 61       		.byte	0x61
 5556 0c61 E0000000 		.4byte	0xe0
 5557 0c65 0007     		.2byte	0x700
 5558 0c67 0D       		.uleb128 0xd
ARM GAS  C:\Users\kiwamu\AppData\Local\Temp\ccIx7zyv.s 			page 164


 5559 0c68 020D0000 		.4byte	.LASF152
 5560 0c6c 07       		.byte	0x7
 5561 0c6d 62       		.byte	0x62
 5562 0c6e E0000000 		.4byte	0xe0
 5563 0c72 0407     		.2byte	0x704
 5564 0c74 0D       		.uleb128 0xd
 5565 0c75 99010000 		.4byte	.LASF153
 5566 0c79 07       		.byte	0x7
 5567 0c7a 63       		.byte	0x63
 5568 0c7b E0000000 		.4byte	0xe0
 5569 0c7f 0807     		.2byte	0x708
 5570 0c81 0D       		.uleb128 0xd
 5571 0c82 7E120000 		.4byte	.LASF154
 5572 0c86 07       		.byte	0x7
 5573 0c87 64       		.byte	0x64
 5574 0c88 E5000000 		.4byte	0xe5
 5575 0c8c 0C07     		.2byte	0x70c
 5576 0c8e 0D       		.uleb128 0xd
 5577 0c8f 3B0A0000 		.4byte	.LASF155
 5578 0c93 07       		.byte	0x7
 5579 0c94 65       		.byte	0x65
 5580 0c95 E0000000 		.4byte	0xe0
 5581 0c99 1007     		.2byte	0x710
 5582 0c9b 0D       		.uleb128 0xd
 5583 0c9c CC160000 		.4byte	.LASF77
 5584 0ca0 07       		.byte	0x7
 5585 0ca1 66       		.byte	0x66
 5586 0ca2 8A0E0000 		.4byte	0xe8a
 5587 0ca6 1407     		.2byte	0x714
 5588 0ca8 0D       		.uleb128 0xd
 5589 0ca9 EE140000 		.4byte	.LASF156
 5590 0cad 07       		.byte	0x7
 5591 0cae 67       		.byte	0x67
 5592 0caf E0000000 		.4byte	0xe0
 5593 0cb3 0008     		.2byte	0x800
 5594 0cb5 0D       		.uleb128 0xd
 5595 0cb6 58010000 		.4byte	.LASF157
 5596 0cba 07       		.byte	0x7
 5597 0cbb 68       		.byte	0x68
 5598 0cbc E0000000 		.4byte	0xe0
 5599 0cc0 0408     		.2byte	0x804
 5600 0cc2 0D       		.uleb128 0xd
 5601 0cc3 D7160000 		.4byte	.LASF79
 5602 0cc7 07       		.byte	0x7
 5603 0cc8 69       		.byte	0x69
 5604 0cc9 A50E0000 		.4byte	0xea5
 5605 0ccd 0808     		.2byte	0x808
 5606 0ccf 0D       		.uleb128 0xd
 5607 0cd0 E80F0000 		.4byte	.LASF158
 5608 0cd4 07       		.byte	0x7
 5609 0cd5 6A       		.byte	0x6a
 5610 0cd6 E0000000 		.4byte	0xe0
 5611 0cda 007F     		.2byte	0x7f00
 5612 0cdc 0D       		.uleb128 0xd
 5613 0cdd F4020000 		.4byte	.LASF159
 5614 0ce1 07       		.byte	0x7
 5615 0ce2 6B       		.byte	0x6b
ARM GAS  C:\Users\kiwamu\AppData\Local\Temp\ccIx7zyv.s 			page 165


 5616 0ce3 E0000000 		.4byte	0xe0
 5617 0ce7 047F     		.2byte	0x7f04
 5618 0ce9 0D       		.uleb128 0xd
 5619 0cea 30130000 		.4byte	.LASF160
 5620 0cee 07       		.byte	0x7
 5621 0cef 6C       		.byte	0x6c
 5622 0cf0 E0000000 		.4byte	0xe0
 5623 0cf4 087F     		.2byte	0x7f08
 5624 0cf6 0D       		.uleb128 0xd
 5625 0cf7 09000000 		.4byte	.LASF161
 5626 0cfb 07       		.byte	0x7
 5627 0cfc 6D       		.byte	0x6d
 5628 0cfd E0000000 		.4byte	0xe0
 5629 0d01 0C7F     		.2byte	0x7f0c
 5630 0d03 0D       		.uleb128 0xd
 5631 0d04 E2160000 		.4byte	.LASF82
 5632 0d08 07       		.byte	0x7
 5633 0d09 6E       		.byte	0x6e
 5634 0d0a AF0E0000 		.4byte	0xeaf
 5635 0d0e 107F     		.2byte	0x7f10
 5636 0d10 0D       		.uleb128 0xd
 5637 0d11 A0030000 		.4byte	.LASF162
 5638 0d15 07       		.byte	0x7
 5639 0d16 6F       		.byte	0x6f
 5640 0d17 E0000000 		.4byte	0xe0
 5641 0d1b 307F     		.2byte	0x7f30
 5642 0d1d 0D       		.uleb128 0xd
 5643 0d1e ED160000 		.4byte	.LASF84
 5644 0d22 07       		.byte	0x7
 5645 0d23 70       		.byte	0x70
 5646 0d24 CA0E0000 		.4byte	0xeca
 5647 0d28 347F     		.2byte	0x7f34
 5648 0d2a 0D       		.uleb128 0xd
 5649 0d2b B1050000 		.4byte	.LASF163
 5650 0d2f 07       		.byte	0x7
 5651 0d30 71       		.byte	0x71
 5652 0d31 E0000000 		.4byte	0xe0
 5653 0d35 10FF     		.2byte	0xff10
 5654 0d37 0D       		.uleb128 0xd
 5655 0d38 F8160000 		.4byte	.LASF86
 5656 0d3c 07       		.byte	0x7
 5657 0d3d 72       		.byte	0x72
 5658 0d3e E5000000 		.4byte	0xe5
 5659 0d42 14FF     		.2byte	0xff14
 5660 0d44 0D       		.uleb128 0xd
 5661 0d45 61040000 		.4byte	.LASF164
 5662 0d49 07       		.byte	0x7
 5663 0d4a 73       		.byte	0x73
 5664 0d4b E0000000 		.4byte	0xe0
 5665 0d4f 18FF     		.2byte	0xff18
 5666 0d51 0D       		.uleb128 0xd
 5667 0d52 BA170000 		.4byte	.LASF165
 5668 0d56 07       		.byte	0x7
 5669 0d57 74       		.byte	0x74
 5670 0d58 E0000000 		.4byte	0xe0
 5671 0d5c 1CFF     		.2byte	0xff1c
 5672 0d5e 0D       		.uleb128 0xd
ARM GAS  C:\Users\kiwamu\AppData\Local\Temp\ccIx7zyv.s 			page 166


 5673 0d5f 60110000 		.4byte	.LASF166
 5674 0d63 07       		.byte	0x7
 5675 0d64 75       		.byte	0x75
 5676 0d65 E0000000 		.4byte	0xe0
 5677 0d69 20FF     		.2byte	0xff20
 5678 0d6b 0D       		.uleb128 0xd
 5679 0d6c 6C120000 		.4byte	.LASF167
 5680 0d70 07       		.byte	0x7
 5681 0d71 76       		.byte	0x76
 5682 0d72 E0000000 		.4byte	0xe0
 5683 0d76 24FF     		.2byte	0xff24
 5684 0d78 0D       		.uleb128 0xd
 5685 0d79 5B0A0000 		.4byte	.LASF168
 5686 0d7d 07       		.byte	0x7
 5687 0d7e 77       		.byte	0x77
 5688 0d7f E0000000 		.4byte	0xe0
 5689 0d83 28FF     		.2byte	0xff28
 5690 0d85 0D       		.uleb128 0xd
 5691 0d86 6E0A0000 		.4byte	.LASF169
 5692 0d8a 07       		.byte	0x7
 5693 0d8b 78       		.byte	0x78
 5694 0d8c E0000000 		.4byte	0xe0
 5695 0d90 2CFF     		.2byte	0xff2c
 5696 0d92 00       		.byte	0
 5697 0d93 05       		.uleb128 0x5
 5698 0d94 41090000 		.4byte	0x941
 5699 0d98 06       		.uleb128 0x6
 5700 0d99 930D0000 		.4byte	0xd93
 5701 0d9d 07       		.uleb128 0x7
 5702 0d9e E5000000 		.4byte	0xe5
 5703 0da2 AD0D0000 		.4byte	0xdad
 5704 0da6 08       		.uleb128 0x8
 5705 0da7 D9000000 		.4byte	0xd9
 5706 0dab 17       		.byte	0x17
 5707 0dac 00       		.byte	0
 5708 0dad 05       		.uleb128 0x5
 5709 0dae 9D0D0000 		.4byte	0xd9d
 5710 0db2 06       		.uleb128 0x6
 5711 0db3 AD0D0000 		.4byte	0xdad
 5712 0db7 05       		.uleb128 0x5
 5713 0db8 FA000000 		.4byte	0xfa
 5714 0dbc 07       		.uleb128 0x7
 5715 0dbd E5000000 		.4byte	0xe5
 5716 0dc1 CC0D0000 		.4byte	0xdcc
 5717 0dc5 08       		.uleb128 0x8
 5718 0dc6 D9000000 		.4byte	0xd9
 5719 0dca 2F       		.byte	0x2f
 5720 0dcb 00       		.byte	0
 5721 0dcc 05       		.uleb128 0x5
 5722 0dcd BC0D0000 		.4byte	0xdbc
 5723 0dd1 06       		.uleb128 0x6
 5724 0dd2 CC0D0000 		.4byte	0xdcc
 5725 0dd6 05       		.uleb128 0x5
 5726 0dd7 61090000 		.4byte	0x961
 5727 0ddb 06       		.uleb128 0x6
 5728 0ddc D60D0000 		.4byte	0xdd6
 5729 0de0 07       		.uleb128 0x7
ARM GAS  C:\Users\kiwamu\AppData\Local\Temp\ccIx7zyv.s 			page 167


 5730 0de1 140A0000 		.4byte	0xa14
 5731 0de5 F00D0000 		.4byte	0xdf0
 5732 0de9 08       		.uleb128 0x8
 5733 0dea D9000000 		.4byte	0xd9
 5734 0dee 03       		.byte	0x3
 5735 0def 00       		.byte	0
 5736 0df0 05       		.uleb128 0x5
 5737 0df1 FA000000 		.4byte	0xfa
 5738 0df5 05       		.uleb128 0x5
 5739 0df6 FA000000 		.4byte	0xfa
 5740 0dfa 05       		.uleb128 0x5
 5741 0dfb FA000000 		.4byte	0xfa
 5742 0dff 07       		.uleb128 0x7
 5743 0e00 E5000000 		.4byte	0xe5
 5744 0e04 0F0E0000 		.4byte	0xe0f
 5745 0e08 08       		.uleb128 0x8
 5746 0e09 D9000000 		.4byte	0xd9
 5747 0e0d 4F       		.byte	0x4f
 5748 0e0e 00       		.byte	0
 5749 0e0f 05       		.uleb128 0x5
 5750 0e10 FF0D0000 		.4byte	0xdff
 5751 0e14 06       		.uleb128 0x6
 5752 0e15 0F0E0000 		.4byte	0xe0f
 5753 0e19 05       		.uleb128 0x5
 5754 0e1a 41090000 		.4byte	0x941
 5755 0e1e 06       		.uleb128 0x6
 5756 0e1f 190E0000 		.4byte	0xe19
 5757 0e23 05       		.uleb128 0x5
 5758 0e24 41090000 		.4byte	0x941
 5759 0e28 06       		.uleb128 0x6
 5760 0e29 230E0000 		.4byte	0xe23
 5761 0e2d 05       		.uleb128 0x5
 5762 0e2e B4070000 		.4byte	0x7b4
 5763 0e32 06       		.uleb128 0x6
 5764 0e33 2D0E0000 		.4byte	0xe2d
 5765 0e37 05       		.uleb128 0x5
 5766 0e38 95080000 		.4byte	0x895
 5767 0e3c 06       		.uleb128 0x6
 5768 0e3d 370E0000 		.4byte	0xe37
 5769 0e41 07       		.uleb128 0x7
 5770 0e42 E0000000 		.4byte	0xe0
 5771 0e46 510E0000 		.4byte	0xe51
 5772 0e4a 08       		.uleb128 0x8
 5773 0e4b D9000000 		.4byte	0xd9
 5774 0e4f 0E       		.byte	0xe
 5775 0e50 00       		.byte	0
 5776 0e51 05       		.uleb128 0x5
 5777 0e52 410E0000 		.4byte	0xe41
 5778 0e56 05       		.uleb128 0x5
 5779 0e57 410E0000 		.4byte	0xe41
 5780 0e5b 07       		.uleb128 0x7
 5781 0e5c E5000000 		.4byte	0xe5
 5782 0e60 6B0E0000 		.4byte	0xe6b
 5783 0e64 08       		.uleb128 0x8
 5784 0e65 D9000000 		.4byte	0xd9
 5785 0e69 20       		.byte	0x20
 5786 0e6a 00       		.byte	0
ARM GAS  C:\Users\kiwamu\AppData\Local\Temp\ccIx7zyv.s 			page 168


 5787 0e6b 05       		.uleb128 0x5
 5788 0e6c 5B0E0000 		.4byte	0xe5b
 5789 0e70 06       		.uleb128 0x6
 5790 0e71 6B0E0000 		.4byte	0xe6b
 5791 0e75 07       		.uleb128 0x7
 5792 0e76 E5000000 		.4byte	0xe5
 5793 0e7a 850E0000 		.4byte	0xe85
 5794 0e7e 08       		.uleb128 0x8
 5795 0e7f D9000000 		.4byte	0xd9
 5796 0e83 3A       		.byte	0x3a
 5797 0e84 00       		.byte	0
 5798 0e85 05       		.uleb128 0x5
 5799 0e86 750E0000 		.4byte	0xe75
 5800 0e8a 06       		.uleb128 0x6
 5801 0e8b 850E0000 		.4byte	0xe85
 5802 0e8f 07       		.uleb128 0x7
 5803 0e90 E5000000 		.4byte	0xe5
 5804 0e94 A00E0000 		.4byte	0xea0
 5805 0e98 0E       		.uleb128 0xe
 5806 0e99 D9000000 		.4byte	0xd9
 5807 0e9d BD1D     		.2byte	0x1dbd
 5808 0e9f 00       		.byte	0
 5809 0ea0 05       		.uleb128 0x5
 5810 0ea1 8F0E0000 		.4byte	0xe8f
 5811 0ea5 06       		.uleb128 0x6
 5812 0ea6 A00E0000 		.4byte	0xea0
 5813 0eaa 05       		.uleb128 0x5
 5814 0eab 51090000 		.4byte	0x951
 5815 0eaf 06       		.uleb128 0x6
 5816 0eb0 AA0E0000 		.4byte	0xeaa
 5817 0eb4 07       		.uleb128 0x7
 5818 0eb5 E5000000 		.4byte	0xe5
 5819 0eb9 C50E0000 		.4byte	0xec5
 5820 0ebd 0E       		.uleb128 0xe
 5821 0ebe D9000000 		.4byte	0xd9
 5822 0ec2 F61F     		.2byte	0x1ff6
 5823 0ec4 00       		.byte	0
 5824 0ec5 05       		.uleb128 0x5
 5825 0ec6 B40E0000 		.4byte	0xeb4
 5826 0eca 06       		.uleb128 0x6
 5827 0ecb C50E0000 		.4byte	0xec5
 5828 0ecf 03       		.uleb128 0x3
 5829 0ed0 1B000000 		.4byte	.LASF170
 5830 0ed4 07       		.byte	0x7
 5831 0ed5 79       		.byte	0x79
 5832 0ed6 1F0A0000 		.4byte	0xa1f
 5833 0eda 0F       		.uleb128 0xf
 5834 0edb FC120000 		.4byte	.LASF171
 5835 0edf 08       		.byte	0x8
 5836 0ee0 A401     		.2byte	0x1a4
 5837 0ee2 E60E0000 		.4byte	0xee6
 5838 0ee6 02       		.uleb128 0x2
 5839 0ee7 01       		.byte	0x1
 5840 0ee8 08       		.byte	0x8
 5841 0ee9 76000000 		.4byte	.LASF172
 5842 0eed 0F       		.uleb128 0xf
 5843 0eee B1070000 		.4byte	.LASF173
ARM GAS  C:\Users\kiwamu\AppData\Local\Temp\ccIx7zyv.s 			page 169


 5844 0ef2 08       		.byte	0x8
 5845 0ef3 A501     		.2byte	0x1a5
 5846 0ef5 F90E0000 		.4byte	0xef9
 5847 0ef9 02       		.uleb128 0x2
 5848 0efa 04       		.byte	0x4
 5849 0efb 04       		.byte	0x4
 5850 0efc 5F150000 		.4byte	.LASF174
 5851 0f00 0F       		.uleb128 0xf
 5852 0f01 5B0F0000 		.4byte	.LASF175
 5853 0f05 08       		.byte	0x8
 5854 0f06 A601     		.2byte	0x1a6
 5855 0f08 0C0F0000 		.4byte	0xf0c
 5856 0f0c 02       		.uleb128 0x2
 5857 0f0d 08       		.byte	0x8
 5858 0f0e 04       		.byte	0x4
 5859 0f0f 72190000 		.4byte	.LASF176
 5860 0f13 0F       		.uleb128 0xf
 5861 0f14 940C0000 		.4byte	.LASF177
 5862 0f18 08       		.byte	0x8
 5863 0f19 4403     		.2byte	0x344
 5864 0f1b AD000000 		.4byte	0xad
 5865 0f1f 02       		.uleb128 0x2
 5866 0f20 08       		.byte	0x8
 5867 0f21 04       		.byte	0x4
 5868 0f22 9B100000 		.4byte	.LASF178
 5869 0f26 10       		.uleb128 0x10
 5870 0f27 04       		.byte	0x4
 5871 0f28 9B000000 		.4byte	0x9b
 5872 0f2c 09       		.byte	0x9
 5873 0f2d AC03     		.2byte	0x3ac
 5874 0f2f 5E0F0000 		.4byte	0xf5e
 5875 0f33 11       		.uleb128 0x11
 5876 0f34 2E080000 		.4byte	.LASF179
 5877 0f38 00       		.byte	0
 5878 0f39 12       		.uleb128 0x12
 5879 0f3a EE170000 		.4byte	.LASF180
 5880 0f3e 01004200 		.4byte	0x420001
 5881 0f42 12       		.uleb128 0x12
 5882 0f43 D70A0000 		.4byte	.LASF181
 5883 0f47 02004200 		.4byte	0x420002
 5884 0f4b 12       		.uleb128 0x12
 5885 0f4c 010B0000 		.4byte	.LASF182
 5886 0f50 03004200 		.4byte	0x420003
 5887 0f54 12       		.uleb128 0x12
 5888 0f55 EC150000 		.4byte	.LASF183
 5889 0f59 FF004200 		.4byte	0x4200ff
 5890 0f5d 00       		.byte	0
 5891 0f5e 0F       		.uleb128 0xf
 5892 0f5f E1000000 		.4byte	.LASF184
 5893 0f63 09       		.byte	0x9
 5894 0f64 B303     		.2byte	0x3b3
 5895 0f66 260F0000 		.4byte	0xf26
 5896 0f6a 10       		.uleb128 0x10
 5897 0f6b 01       		.byte	0x1
 5898 0f6c 2C000000 		.4byte	0x2c
 5899 0f70 09       		.byte	0x9
 5900 0f71 C603     		.2byte	0x3c6
ARM GAS  C:\Users\kiwamu\AppData\Local\Temp\ccIx7zyv.s 			page 170


 5901 0f73 900F0000 		.4byte	0xf90
 5902 0f77 11       		.uleb128 0x11
 5903 0f78 4A150000 		.4byte	.LASF185
 5904 0f7c 01       		.byte	0x1
 5905 0f7d 11       		.uleb128 0x11
 5906 0f7e 3F090000 		.4byte	.LASF186
 5907 0f82 02       		.byte	0x2
 5908 0f83 11       		.uleb128 0x11
 5909 0f84 5D1B0000 		.4byte	.LASF187
 5910 0f88 04       		.byte	0x4
 5911 0f89 11       		.uleb128 0x11
 5912 0f8a 781B0000 		.4byte	.LASF188
 5913 0f8e 08       		.byte	0x8
 5914 0f8f 00       		.byte	0
 5915 0f90 0F       		.uleb128 0xf
 5916 0f91 23120000 		.4byte	.LASF189
 5917 0f95 09       		.byte	0x9
 5918 0f96 D003     		.2byte	0x3d0
 5919 0f98 6A0F0000 		.4byte	0xf6a
 5920 0f9c 13       		.uleb128 0x13
 5921 0f9d 0C       		.byte	0xc
 5922 0f9e 09       		.byte	0x9
 5923 0f9f E503     		.2byte	0x3e5
 5924 0fa1 CD0F0000 		.4byte	0xfcd
 5925 0fa5 14       		.uleb128 0x14
 5926 0fa6 B7020000 		.4byte	.LASF190
 5927 0faa 09       		.byte	0x9
 5928 0fab E703     		.2byte	0x3e7
 5929 0fad 900F0000 		.4byte	0xf90
 5930 0fb1 00       		.byte	0
 5931 0fb2 14       		.uleb128 0x14
 5932 0fb3 26050000 		.4byte	.LASF191
 5933 0fb7 09       		.byte	0x9
 5934 0fb8 EA03     		.2byte	0x3ea
 5935 0fba CD0F0000 		.4byte	0xfcd
 5936 0fbe 04       		.byte	0x4
 5937 0fbf 14       		.uleb128 0x14
 5938 0fc0 7F0E0000 		.4byte	.LASF192
 5939 0fc4 09       		.byte	0x9
 5940 0fc5 EC03     		.2byte	0x3ec
 5941 0fc7 CD0F0000 		.4byte	0xfcd
 5942 0fcb 08       		.byte	0x8
 5943 0fcc 00       		.byte	0
 5944 0fcd 15       		.uleb128 0x15
 5945 0fce 04       		.byte	0x4
 5946 0fcf 0F       		.uleb128 0xf
 5947 0fd0 4D080000 		.4byte	.LASF193
 5948 0fd4 09       		.byte	0x9
 5949 0fd5 EF03     		.2byte	0x3ef
 5950 0fd7 9C0F0000 		.4byte	0xf9c
 5951 0fdb 16       		.uleb128 0x16
 5952 0fdc 04       		.byte	0x4
 5953 0fdd CF0F0000 		.4byte	0xfcf
 5954 0fe1 10       		.uleb128 0x10
 5955 0fe2 04       		.byte	0x4
 5956 0fe3 9B000000 		.4byte	0x9b
 5957 0fe7 02       		.byte	0x2
ARM GAS  C:\Users\kiwamu\AppData\Local\Temp\ccIx7zyv.s 			page 171


 5958 0fe8 7F02     		.2byte	0x27f
 5959 0fea 10100000 		.4byte	0x1010
 5960 0fee 11       		.uleb128 0x11
 5961 0fef 6E010000 		.4byte	.LASF194
 5962 0ff3 00       		.byte	0
 5963 0ff4 12       		.uleb128 0x12
 5964 0ff5 9A110000 		.4byte	.LASF195
 5965 0ff9 01004A00 		.4byte	0x4a0001
 5966 0ffd 12       		.uleb128 0x12
 5967 0ffe 2E010000 		.4byte	.LASF196
 5968 1002 02004A00 		.4byte	0x4a0002
 5969 1006 12       		.uleb128 0x12
 5970 1007 3B0C0000 		.4byte	.LASF197
 5971 100b 03004A00 		.4byte	0x4a0003
 5972 100f 00       		.byte	0
 5973 1010 0F       		.uleb128 0xf
 5974 1011 C7080000 		.4byte	.LASF198
 5975 1015 02       		.byte	0x2
 5976 1016 8402     		.2byte	0x284
 5977 1018 E10F0000 		.4byte	0xfe1
 5978 101c 10       		.uleb128 0x10
 5979 101d 02       		.byte	0x2
 5980 101e 50000000 		.4byte	0x50
 5981 1022 02       		.byte	0x2
 5982 1023 CA02     		.2byte	0x2ca
 5983 1025 6B100000 		.4byte	0x106b
 5984 1029 11       		.uleb128 0x11
 5985 102a D6120000 		.4byte	.LASF199
 5986 102e 00       		.byte	0
 5987 102f 11       		.uleb128 0x11
 5988 1030 83160000 		.4byte	.LASF200
 5989 1034 01       		.byte	0x1
 5990 1035 11       		.uleb128 0x11
 5991 1036 380D0000 		.4byte	.LASF201
 5992 103a 02       		.byte	0x2
 5993 103b 11       		.uleb128 0x11
 5994 103c 0C130000 		.4byte	.LASF202
 5995 1040 03       		.byte	0x3
 5996 1041 11       		.uleb128 0x11
 5997 1042 13140000 		.4byte	.LASF203
 5998 1046 04       		.byte	0x4
 5999 1047 17       		.uleb128 0x17
 6000 1048 56020000 		.4byte	.LASF204
 6001 104c 0001     		.2byte	0x100
 6002 104e 17       		.uleb128 0x17
 6003 104f 741A0000 		.4byte	.LASF205
 6004 1053 1001     		.2byte	0x110
 6005 1055 17       		.uleb128 0x17
 6006 1056 33100000 		.4byte	.LASF206
 6007 105a 1101     		.2byte	0x111
 6008 105c 17       		.uleb128 0x17
 6009 105d 921B0000 		.4byte	.LASF207
 6010 1061 1201     		.2byte	0x112
 6011 1063 17       		.uleb128 0x17
 6012 1064 34020000 		.4byte	.LASF208
 6013 1068 1301     		.2byte	0x113
 6014 106a 00       		.byte	0
ARM GAS  C:\Users\kiwamu\AppData\Local\Temp\ccIx7zyv.s 			page 172


 6015 106b 0F       		.uleb128 0xf
 6016 106c 3C1B0000 		.4byte	.LASF209
 6017 1070 02       		.byte	0x2
 6018 1071 D502     		.2byte	0x2d5
 6019 1073 1C100000 		.4byte	0x101c
 6020 1077 10       		.uleb128 0x10
 6021 1078 01       		.byte	0x1
 6022 1079 2C000000 		.4byte	0x2c
 6023 107d 02       		.byte	0x2
 6024 107e EC02     		.2byte	0x2ec
 6025 1080 9D100000 		.4byte	0x109d
 6026 1084 11       		.uleb128 0x11
 6027 1085 26150000 		.4byte	.LASF210
 6028 1089 00       		.byte	0
 6029 108a 11       		.uleb128 0x11
 6030 108b 530C0000 		.4byte	.LASF211
 6031 108f 01       		.byte	0x1
 6032 1090 11       		.uleb128 0x11
 6033 1091 C7140000 		.4byte	.LASF212
 6034 1095 02       		.byte	0x2
 6035 1096 11       		.uleb128 0x11
 6036 1097 9C120000 		.4byte	.LASF213
 6037 109b 03       		.byte	0x3
 6038 109c 00       		.byte	0
 6039 109d 0F       		.uleb128 0xf
 6040 109e FD090000 		.4byte	.LASF214
 6041 10a2 02       		.byte	0x2
 6042 10a3 F102     		.2byte	0x2f1
 6043 10a5 77100000 		.4byte	0x1077
 6044 10a9 10       		.uleb128 0x10
 6045 10aa 01       		.byte	0x1
 6046 10ab 2C000000 		.4byte	0x2c
 6047 10af 02       		.byte	0x2
 6048 10b0 F702     		.2byte	0x2f7
 6049 10b2 D5100000 		.4byte	0x10d5
 6050 10b6 11       		.uleb128 0x11
 6051 10b7 E51A0000 		.4byte	.LASF215
 6052 10bb 00       		.byte	0
 6053 10bc 11       		.uleb128 0x11
 6054 10bd 250B0000 		.4byte	.LASF216
 6055 10c1 01       		.byte	0x1
 6056 10c2 11       		.uleb128 0x11
 6057 10c3 FE1A0000 		.4byte	.LASF217
 6058 10c7 02       		.byte	0x2
 6059 10c8 11       		.uleb128 0x11
 6060 10c9 171B0000 		.4byte	.LASF218
 6061 10cd 03       		.byte	0x3
 6062 10ce 11       		.uleb128 0x11
 6063 10cf 610B0000 		.4byte	.LASF219
 6064 10d3 04       		.byte	0x4
 6065 10d4 00       		.byte	0
 6066 10d5 0F       		.uleb128 0xf
 6067 10d6 71110000 		.4byte	.LASF220
 6068 10da 02       		.byte	0x2
 6069 10db FD02     		.2byte	0x2fd
 6070 10dd A9100000 		.4byte	0x10a9
 6071 10e1 13       		.uleb128 0x13
ARM GAS  C:\Users\kiwamu\AppData\Local\Temp\ccIx7zyv.s 			page 173


 6072 10e2 14       		.byte	0x14
 6073 10e3 02       		.byte	0x2
 6074 10e4 0603     		.2byte	0x306
 6075 10e6 6D110000 		.4byte	0x116d
 6076 10ea 14       		.uleb128 0x14
 6077 10eb 08030000 		.4byte	.LASF221
 6078 10ef 02       		.byte	0x2
 6079 10f0 0803     		.2byte	0x308
 6080 10f2 C3000000 		.4byte	0xc3
 6081 10f6 00       		.byte	0
 6082 10f7 14       		.uleb128 0x14
 6083 10f8 1E020000 		.4byte	.LASF222
 6084 10fc 02       		.byte	0x2
 6085 10fd 0903     		.2byte	0x309
 6086 10ff AD000000 		.4byte	0xad
 6087 1103 04       		.byte	0x4
 6088 1104 14       		.uleb128 0x14
 6089 1105 03130000 		.4byte	.LASF223
 6090 1109 02       		.byte	0x2
 6091 110a 0A03     		.2byte	0x30a
 6092 110c D5100000 		.4byte	0x10d5
 6093 1110 06       		.byte	0x6
 6094 1111 14       		.uleb128 0x14
 6095 1112 840C0000 		.4byte	.LASF224
 6096 1116 02       		.byte	0x2
 6097 1117 0B03     		.2byte	0x30b
 6098 1119 6D110000 		.4byte	0x116d
 6099 111d 07       		.byte	0x7
 6100 111e 14       		.uleb128 0x14
 6101 111f 10020000 		.4byte	.LASF225
 6102 1123 02       		.byte	0x2
 6103 1124 0C03     		.2byte	0x30c
 6104 1126 AD000000 		.4byte	0xad
 6105 112a 08       		.byte	0x8
 6106 112b 14       		.uleb128 0x14
 6107 112c F2050000 		.4byte	.LASF226
 6108 1130 02       		.byte	0x2
 6109 1131 0D03     		.2byte	0x30d
 6110 1133 A2000000 		.4byte	0xa2
 6111 1137 0A       		.byte	0xa
 6112 1138 14       		.uleb128 0x14
 6113 1139 86090000 		.4byte	.LASF227
 6114 113d 02       		.byte	0x2
 6115 113e 0E03     		.2byte	0x30e
 6116 1140 A2000000 		.4byte	0xa2
 6117 1144 0B       		.byte	0xb
 6118 1145 14       		.uleb128 0x14
 6119 1146 A3050000 		.4byte	.LASF228
 6120 114a 02       		.byte	0x2
 6121 114b 0F03     		.2byte	0x30f
 6122 114d AD000000 		.4byte	0xad
 6123 1151 0C       		.byte	0xc
 6124 1152 14       		.uleb128 0x14
 6125 1153 0B0E0000 		.4byte	.LASF229
 6126 1157 02       		.byte	0x2
 6127 1158 1003     		.2byte	0x310
 6128 115a 9D100000 		.4byte	0x109d
ARM GAS  C:\Users\kiwamu\AppData\Local\Temp\ccIx7zyv.s 			page 174


 6129 115e 0E       		.byte	0xe
 6130 115f 14       		.uleb128 0x14
 6131 1160 40010000 		.4byte	.LASF230
 6132 1164 02       		.byte	0x2
 6133 1165 1103     		.2byte	0x311
 6134 1167 AD000000 		.4byte	0xad
 6135 116b 10       		.byte	0x10
 6136 116c 00       		.byte	0
 6137 116d 02       		.uleb128 0x2
 6138 116e 01       		.byte	0x1
 6139 116f 02       		.byte	0x2
 6140 1170 76090000 		.4byte	.LASF231
 6141 1174 0F       		.uleb128 0xf
 6142 1175 24170000 		.4byte	.LASF232
 6143 1179 02       		.byte	0x2
 6144 117a 1203     		.2byte	0x312
 6145 117c E1100000 		.4byte	0x10e1
 6146 1180 13       		.uleb128 0x13
 6147 1181 0C       		.byte	0xc
 6148 1182 02       		.byte	0x2
 6149 1183 5C03     		.2byte	0x35c
 6150 1185 BE110000 		.4byte	0x11be
 6151 1189 14       		.uleb128 0x14
 6152 118a 35090000 		.4byte	.LASF233
 6153 118e 02       		.byte	0x2
 6154 118f 5E03     		.2byte	0x35e
 6155 1191 C3000000 		.4byte	0xc3
 6156 1195 00       		.byte	0
 6157 1196 14       		.uleb128 0x14
 6158 1197 2D0D0000 		.4byte	.LASF234
 6159 119b 02       		.byte	0x2
 6160 119c 5F03     		.2byte	0x35f
 6161 119e C3000000 		.4byte	0xc3
 6162 11a2 04       		.byte	0x4
 6163 11a3 14       		.uleb128 0x14
 6164 11a4 65120000 		.4byte	.LASF235
 6165 11a8 02       		.byte	0x2
 6166 11a9 6003     		.2byte	0x360
 6167 11ab 6D110000 		.4byte	0x116d
 6168 11af 08       		.byte	0x8
 6169 11b0 14       		.uleb128 0x14
 6170 11b1 0B0E0000 		.4byte	.LASF229
 6171 11b5 02       		.byte	0x2
 6172 11b6 6103     		.2byte	0x361
 6173 11b8 9D100000 		.4byte	0x109d
 6174 11bc 09       		.byte	0x9
 6175 11bd 00       		.byte	0
 6176 11be 0F       		.uleb128 0xf
 6177 11bf 4C100000 		.4byte	.LASF236
 6178 11c3 02       		.byte	0x2
 6179 11c4 6203     		.2byte	0x362
 6180 11c6 80110000 		.4byte	0x1180
 6181 11ca 13       		.uleb128 0x13
 6182 11cb 05       		.byte	0x5
 6183 11cc 02       		.byte	0x2
 6184 11cd 6603     		.2byte	0x366
 6185 11cf 15120000 		.4byte	0x1215
ARM GAS  C:\Users\kiwamu\AppData\Local\Temp\ccIx7zyv.s 			page 175


 6186 11d3 14       		.uleb128 0x14
 6187 11d4 47190000 		.4byte	.LASF237
 6188 11d8 02       		.byte	0x2
 6189 11d9 6803     		.2byte	0x368
 6190 11db A2000000 		.4byte	0xa2
 6191 11df 00       		.byte	0
 6192 11e0 14       		.uleb128 0x14
 6193 11e1 6D170000 		.4byte	.LASF238
 6194 11e5 02       		.byte	0x2
 6195 11e6 6903     		.2byte	0x369
 6196 11e8 A2000000 		.4byte	0xa2
 6197 11ec 01       		.byte	0x1
 6198 11ed 14       		.uleb128 0x14
 6199 11ee 53090000 		.4byte	.LASF239
 6200 11f2 02       		.byte	0x2
 6201 11f3 6A03     		.2byte	0x36a
 6202 11f5 A2000000 		.4byte	0xa2
 6203 11f9 02       		.byte	0x2
 6204 11fa 14       		.uleb128 0x14
 6205 11fb 65120000 		.4byte	.LASF235
 6206 11ff 02       		.byte	0x2
 6207 1200 6B03     		.2byte	0x36b
 6208 1202 6D110000 		.4byte	0x116d
 6209 1206 03       		.byte	0x3
 6210 1207 14       		.uleb128 0x14
 6211 1208 0B0E0000 		.4byte	.LASF229
 6212 120c 02       		.byte	0x2
 6213 120d 6C03     		.2byte	0x36c
 6214 120f 9D100000 		.4byte	0x109d
 6215 1213 04       		.byte	0x4
 6216 1214 00       		.byte	0
 6217 1215 0F       		.uleb128 0xf
 6218 1216 C8090000 		.4byte	.LASF240
 6219 121a 02       		.byte	0x2
 6220 121b 6D03     		.2byte	0x36d
 6221 121d CA110000 		.4byte	0x11ca
 6222 1221 10       		.uleb128 0x10
 6223 1222 02       		.byte	0x2
 6224 1223 50000000 		.4byte	0x50
 6225 1227 02       		.byte	0x2
 6226 1228 5604     		.2byte	0x456
 6227 122a 6A130000 		.4byte	0x136a
 6228 122e 11       		.uleb128 0x11
 6229 122f B0140000 		.4byte	.LASF241
 6230 1233 01       		.byte	0x1
 6231 1234 11       		.uleb128 0x11
 6232 1235 10100000 		.4byte	.LASF242
 6233 1239 02       		.byte	0x2
 6234 123a 11       		.uleb128 0x11
 6235 123b 85070000 		.4byte	.LASF243
 6236 123f 03       		.byte	0x3
 6237 1240 11       		.uleb128 0x11
 6238 1241 7B140000 		.4byte	.LASF244
 6239 1245 04       		.byte	0x4
 6240 1246 11       		.uleb128 0x11
 6241 1247 E80A0000 		.4byte	.LASF245
 6242 124b 05       		.byte	0x5
ARM GAS  C:\Users\kiwamu\AppData\Local\Temp\ccIx7zyv.s 			page 176


 6243 124c 11       		.uleb128 0x11
 6244 124d 32160000 		.4byte	.LASF246
 6245 1251 06       		.byte	0x6
 6246 1252 11       		.uleb128 0x11
 6247 1253 39000000 		.4byte	.LASF247
 6248 1257 08       		.byte	0x8
 6249 1258 17       		.uleb128 0x17
 6250 1259 DD190000 		.4byte	.LASF248
 6251 125d 0001     		.2byte	0x100
 6252 125f 17       		.uleb128 0x17
 6253 1260 D10F0000 		.4byte	.LASF249
 6254 1264 0101     		.2byte	0x101
 6255 1266 17       		.uleb128 0x17
 6256 1267 B41A0000 		.4byte	.LASF250
 6257 126b 0201     		.2byte	0x102
 6258 126d 17       		.uleb128 0x17
 6259 126e 560E0000 		.4byte	.LASF251
 6260 1272 0301     		.2byte	0x103
 6261 1274 17       		.uleb128 0x17
 6262 1275 1E0A0000 		.4byte	.LASF252
 6263 1279 0005     		.2byte	0x500
 6264 127b 17       		.uleb128 0x17
 6265 127c 01180000 		.4byte	.LASF253
 6266 1280 0005     		.2byte	0x500
 6267 1282 17       		.uleb128 0x17
 6268 1283 1A180000 		.4byte	.LASF254
 6269 1287 0105     		.2byte	0x501
 6270 1289 17       		.uleb128 0x17
 6271 128a 33180000 		.4byte	.LASF255
 6272 128e 0205     		.2byte	0x502
 6273 1290 17       		.uleb128 0x17
 6274 1291 4C180000 		.4byte	.LASF256
 6275 1295 0305     		.2byte	0x503
 6276 1297 17       		.uleb128 0x17
 6277 1298 65180000 		.4byte	.LASF257
 6278 129c 0405     		.2byte	0x504
 6279 129e 17       		.uleb128 0x17
 6280 129f 7E180000 		.4byte	.LASF258
 6281 12a3 0505     		.2byte	0x505
 6282 12a5 17       		.uleb128 0x17
 6283 12a6 97180000 		.4byte	.LASF259
 6284 12aa 0605     		.2byte	0x506
 6285 12ac 17       		.uleb128 0x17
 6286 12ad B0180000 		.4byte	.LASF260
 6287 12b1 0705     		.2byte	0x507
 6288 12b3 17       		.uleb128 0x17
 6289 12b4 C9180000 		.4byte	.LASF261
 6290 12b8 0805     		.2byte	0x508
 6291 12ba 17       		.uleb128 0x17
 6292 12bb E2180000 		.4byte	.LASF262
 6293 12bf 0905     		.2byte	0x509
 6294 12c1 17       		.uleb128 0x17
 6295 12c2 0B0C0000 		.4byte	.LASF263
 6296 12c6 0A05     		.2byte	0x50a
 6297 12c8 17       		.uleb128 0x17
 6298 12c9 680D0000 		.4byte	.LASF264
 6299 12cd 0B05     		.2byte	0x50b
ARM GAS  C:\Users\kiwamu\AppData\Local\Temp\ccIx7zyv.s 			page 177


 6300 12cf 17       		.uleb128 0x17
 6301 12d0 820D0000 		.4byte	.LASF265
 6302 12d4 0C05     		.2byte	0x50c
 6303 12d6 17       		.uleb128 0x17
 6304 12d7 9C0D0000 		.4byte	.LASF266
 6305 12db 0D05     		.2byte	0x50d
 6306 12dd 17       		.uleb128 0x17
 6307 12de B60D0000 		.4byte	.LASF267
 6308 12e2 0E05     		.2byte	0x50e
 6309 12e4 17       		.uleb128 0x17
 6310 12e5 D00D0000 		.4byte	.LASF268
 6311 12e9 0F05     		.2byte	0x50f
 6312 12eb 17       		.uleb128 0x17
 6313 12ec CB1A0000 		.4byte	.LASF269
 6314 12f0 0006     		.2byte	0x600
 6315 12f2 17       		.uleb128 0x17
 6316 12f3 D3100000 		.4byte	.LASF270
 6317 12f7 0006     		.2byte	0x600
 6318 12f9 17       		.uleb128 0x17
 6319 12fa 83190000 		.4byte	.LASF271
 6320 12fe 0106     		.2byte	0x601
 6321 1300 17       		.uleb128 0x17
 6322 1301 9D190000 		.4byte	.LASF272
 6323 1305 0206     		.2byte	0x602
 6324 1307 17       		.uleb128 0x17
 6325 1308 ED100000 		.4byte	.LASF273
 6326 130c 0306     		.2byte	0x603
 6327 130e 17       		.uleb128 0x17
 6328 130f C3190000 		.4byte	.LASF274
 6329 1313 0406     		.2byte	0x604
 6330 1315 17       		.uleb128 0x17
 6331 1316 07110000 		.4byte	.LASF275
 6332 131a 0506     		.2byte	0x605
 6333 131c 17       		.uleb128 0x17
 6334 131d FA190000 		.4byte	.LASF276
 6335 1321 0606     		.2byte	0x606
 6336 1323 17       		.uleb128 0x17
 6337 1324 141A0000 		.4byte	.LASF277
 6338 1328 0706     		.2byte	0x607
 6339 132a 17       		.uleb128 0x17
 6340 132b 21110000 		.4byte	.LASF278
 6341 132f 0806     		.2byte	0x608
 6342 1331 17       		.uleb128 0x17
 6343 1332 4B1A0000 		.4byte	.LASF279
 6344 1336 0906     		.2byte	0x609
 6345 1338 17       		.uleb128 0x17
 6346 1339 2B050000 		.4byte	.LASF280
 6347 133d 0A06     		.2byte	0x60a
 6348 133f 17       		.uleb128 0x17
 6349 1340 46050000 		.4byte	.LASF281
 6350 1344 0B06     		.2byte	0x60b
 6351 1346 17       		.uleb128 0x17
 6352 1347 AE110000 		.4byte	.LASF282
 6353 134b 0C06     		.2byte	0x60c
 6354 134d 17       		.uleb128 0x17
 6355 134e F5010000 		.4byte	.LASF283
 6356 1352 0D06     		.2byte	0x60d
ARM GAS  C:\Users\kiwamu\AppData\Local\Temp\ccIx7zyv.s 			page 178


 6357 1354 17       		.uleb128 0x17
 6358 1355 6D050000 		.4byte	.LASF284
 6359 1359 0E06     		.2byte	0x60e
 6360 135b 17       		.uleb128 0x17
 6361 135c 88050000 		.4byte	.LASF285
 6362 1360 0F06     		.2byte	0x60f
 6363 1362 17       		.uleb128 0x17
 6364 1363 7C030000 		.4byte	.LASF286
 6365 1367 1006     		.2byte	0x610
 6366 1369 00       		.byte	0
 6367 136a 0F       		.uleb128 0xf
 6368 136b 9E140000 		.4byte	.LASF287
 6369 136f 02       		.byte	0x2
 6370 1370 8504     		.2byte	0x485
 6371 1372 21120000 		.4byte	0x1221
 6372 1376 10       		.uleb128 0x10
 6373 1377 01       		.byte	0x1
 6374 1378 2C000000 		.4byte	0x2c
 6375 137c 02       		.byte	0x2
 6376 137d 6305     		.2byte	0x563
 6377 137f E4130000 		.4byte	0x13e4
 6378 1383 11       		.uleb128 0x11
 6379 1384 F8050000 		.4byte	.LASF288
 6380 1388 00       		.byte	0
 6381 1389 11       		.uleb128 0x11
 6382 138a 14060000 		.4byte	.LASF289
 6383 138e 01       		.byte	0x1
 6384 138f 11       		.uleb128 0x11
 6385 1390 30060000 		.4byte	.LASF290
 6386 1394 02       		.byte	0x2
 6387 1395 11       		.uleb128 0x11
 6388 1396 4C060000 		.4byte	.LASF291
 6389 139a 03       		.byte	0x3
 6390 139b 11       		.uleb128 0x11
 6391 139c 68060000 		.4byte	.LASF292
 6392 13a0 04       		.byte	0x4
 6393 13a1 11       		.uleb128 0x11
 6394 13a2 84060000 		.4byte	.LASF293
 6395 13a6 05       		.byte	0x5
 6396 13a7 11       		.uleb128 0x11
 6397 13a8 A0060000 		.4byte	.LASF294
 6398 13ac 06       		.byte	0x6
 6399 13ad 11       		.uleb128 0x11
 6400 13ae BC060000 		.4byte	.LASF295
 6401 13b2 07       		.byte	0x7
 6402 13b3 11       		.uleb128 0x11
 6403 13b4 D8060000 		.4byte	.LASF296
 6404 13b8 08       		.byte	0x8
 6405 13b9 11       		.uleb128 0x11
 6406 13ba F4060000 		.4byte	.LASF297
 6407 13be 09       		.byte	0x9
 6408 13bf 11       		.uleb128 0x11
 6409 13c0 C30E0000 		.4byte	.LASF298
 6410 13c4 0A       		.byte	0xa
 6411 13c5 11       		.uleb128 0x11
 6412 13c6 44040000 		.4byte	.LASF299
 6413 13ca 0B       		.byte	0xb
ARM GAS  C:\Users\kiwamu\AppData\Local\Temp\ccIx7zyv.s 			page 179


 6414 13cb 11       		.uleb128 0x11
 6415 13cc F00E0000 		.4byte	.LASF300
 6416 13d0 0C       		.byte	0xc
 6417 13d1 11       		.uleb128 0x11
 6418 13d2 0D0F0000 		.4byte	.LASF301
 6419 13d6 0D       		.byte	0xd
 6420 13d7 11       		.uleb128 0x11
 6421 13d8 2A0F0000 		.4byte	.LASF302
 6422 13dc 0E       		.byte	0xe
 6423 13dd 11       		.uleb128 0x11
 6424 13de 87170000 		.4byte	.LASF303
 6425 13e2 0F       		.byte	0xf
 6426 13e3 00       		.byte	0
 6427 13e4 0F       		.uleb128 0xf
 6428 13e5 5D090000 		.4byte	.LASF304
 6429 13e9 02       		.byte	0x2
 6430 13ea 7405     		.2byte	0x574
 6431 13ec 76130000 		.4byte	0x1376
 6432 13f0 10       		.uleb128 0x10
 6433 13f1 01       		.byte	0x1
 6434 13f2 2C000000 		.4byte	0x2c
 6435 13f6 02       		.byte	0x2
 6436 13f7 7C05     		.2byte	0x57c
 6437 13f9 16140000 		.4byte	0x1416
 6438 13fd 11       		.uleb128 0x11
 6439 13fe 4B130000 		.4byte	.LASF305
 6440 1402 00       		.byte	0
 6441 1403 11       		.uleb128 0x11
 6442 1404 6C080000 		.4byte	.LASF306
 6443 1408 01       		.byte	0x1
 6444 1409 11       		.uleb128 0x11
 6445 140a 88080000 		.4byte	.LASF307
 6446 140e 02       		.byte	0x2
 6447 140f 11       		.uleb128 0x11
 6448 1410 AB080000 		.4byte	.LASF308
 6449 1414 03       		.byte	0x3
 6450 1415 00       		.byte	0
 6451 1416 0F       		.uleb128 0xf
 6452 1417 23030000 		.4byte	.LASF309
 6453 141b 02       		.byte	0x2
 6454 141c 8105     		.2byte	0x581
 6455 141e F0130000 		.4byte	0x13f0
 6456 1422 10       		.uleb128 0x10
 6457 1423 01       		.byte	0x1
 6458 1424 2C000000 		.4byte	0x2c
 6459 1428 02       		.byte	0x2
 6460 1429 9406     		.2byte	0x694
 6461 142b 48140000 		.4byte	0x1448
 6462 142f 11       		.uleb128 0x11
 6463 1430 C2000000 		.4byte	.LASF310
 6464 1434 00       		.byte	0
 6465 1435 11       		.uleb128 0x11
 6466 1436 4B110000 		.4byte	.LASF311
 6467 143a 01       		.byte	0x1
 6468 143b 11       		.uleb128 0x11
 6469 143c F90F0000 		.4byte	.LASF312
 6470 1440 02       		.byte	0x2
ARM GAS  C:\Users\kiwamu\AppData\Local\Temp\ccIx7zyv.s 			page 180


 6471 1441 11       		.uleb128 0x11
 6472 1442 6C160000 		.4byte	.LASF313
 6473 1446 03       		.byte	0x3
 6474 1447 00       		.byte	0
 6475 1448 0F       		.uleb128 0xf
 6476 1449 46170000 		.4byte	.LASF314
 6477 144d 02       		.byte	0x2
 6478 144e 9906     		.2byte	0x699
 6479 1450 22140000 		.4byte	0x1422
 6480 1454 18       		.uleb128 0x18
 6481 1455 9C070000 		.4byte	.LASF315
 6482 1459 02       		.byte	0x2
 6483 145a 4A03     		.2byte	0x34a
 6484 145c 10100000 		.4byte	0x1010
 6485 1460 03       		.byte	0x3
 6486 1461 18       		.uleb128 0x18
 6487 1462 F8140000 		.4byte	.LASF316
 6488 1466 02       		.byte	0x2
 6489 1467 4604     		.2byte	0x446
 6490 1469 C3000000 		.4byte	0xc3
 6491 146d 03       		.byte	0x3
 6492 146e 19       		.uleb128 0x19
 6493 146f 3A030000 		.4byte	.LASF396
 6494 1473 02       		.byte	0x2
 6495 1474 3A04     		.2byte	0x43a
 6496 1476 03       		.byte	0x3
 6497 1477 88140000 		.4byte	0x1488
 6498 147b 1A       		.uleb128 0x1a
 6499 147c 11010000 		.4byte	.LASF320
 6500 1480 02       		.byte	0x2
 6501 1481 3A04     		.2byte	0x43a
 6502 1483 C3000000 		.4byte	0xc3
 6503 1487 00       		.byte	0
 6504 1488 1B       		.uleb128 0x1b
 6505 1489 D0130000 		.4byte	.LASF318
 6506 148d 02       		.byte	0x2
 6507 148e B602     		.2byte	0x2b6
 6508 1490 C3000000 		.4byte	0xc3
 6509 1494 03       		.byte	0x3
 6510 1495 A6140000 		.4byte	0x14a6
 6511 1499 1C       		.uleb128 0x1c
 6512 149a F70D0000 		.4byte	.LASF344
 6513 149e 02       		.byte	0x2
 6514 149f B802     		.2byte	0x2b8
 6515 14a1 C3000000 		.4byte	0xc3
 6516 14a5 00       		.byte	0
 6517 14a6 18       		.uleb128 0x18
 6518 14a7 ED080000 		.4byte	.LASF317
 6519 14ab 02       		.byte	0x2
 6520 14ac 2A03     		.2byte	0x32a
 6521 14ae 6D110000 		.4byte	0x116d
 6522 14b2 03       		.byte	0x3
 6523 14b3 1B       		.uleb128 0x1b
 6524 14b4 0D040000 		.4byte	.LASF319
 6525 14b8 02       		.byte	0x2
 6526 14b9 8703     		.2byte	0x387
 6527 14bb 6D110000 		.4byte	0x116d
ARM GAS  C:\Users\kiwamu\AppData\Local\Temp\ccIx7zyv.s 			page 181


 6528 14bf 03       		.byte	0x3
 6529 14c0 D1140000 		.4byte	0x14d1
 6530 14c4 1A       		.uleb128 0x1a
 6531 14c5 7F020000 		.4byte	.LASF321
 6532 14c9 02       		.byte	0x2
 6533 14ca 8703     		.2byte	0x387
 6534 14cc C3000000 		.4byte	0xc3
 6535 14d0 00       		.byte	0
 6536 14d1 1B       		.uleb128 0x1b
 6537 14d2 F3070000 		.4byte	.LASF322
 6538 14d6 02       		.byte	0x2
 6539 14d7 0206     		.2byte	0x602
 6540 14d9 E4130000 		.4byte	0x13e4
 6541 14dd 03       		.byte	0x3
 6542 14de EF140000 		.4byte	0x14ef
 6543 14e2 1A       		.uleb128 0x1a
 6544 14e3 51000000 		.4byte	.LASF323
 6545 14e7 02       		.byte	0x2
 6546 14e8 0206     		.2byte	0x602
 6547 14ea C3000000 		.4byte	0xc3
 6548 14ee 00       		.byte	0
 6549 14ef 18       		.uleb128 0x18
 6550 14f0 9B0C0000 		.4byte	.LASF324
 6551 14f4 02       		.byte	0x2
 6552 14f5 8406     		.2byte	0x684
 6553 14f7 A2000000 		.4byte	0xa2
 6554 14fb 03       		.byte	0x3
 6555 14fc 1B       		.uleb128 0x1b
 6556 14fd B9100000 		.4byte	.LASF325
 6557 1501 02       		.byte	0x2
 6558 1502 2C06     		.2byte	0x62c
 6559 1504 16140000 		.4byte	0x1416
 6560 1508 03       		.byte	0x3
 6561 1509 1A150000 		.4byte	0x151a
 6562 150d 1A       		.uleb128 0x1a
 6563 150e 51000000 		.4byte	.LASF323
 6564 1512 02       		.byte	0x2
 6565 1513 2C06     		.2byte	0x62c
 6566 1515 C3000000 		.4byte	0xc3
 6567 1519 00       		.byte	0
 6568 151a 1D       		.uleb128 0x1d
 6569 151b 1B160000 		.4byte	.LASF339
 6570 151f 01       		.byte	0x1
 6571 1520 5D       		.byte	0x5d
 6572 1521 10100000 		.4byte	0x1010
 6573 1525 00000000 		.4byte	.LFB139
 6574 1529 18020000 		.4byte	.LFE139-.LFB139
 6575 152d 01       		.uleb128 0x1
 6576 152e 9C       		.byte	0x9c
 6577 152f 32160000 		.4byte	0x1632
 6578 1533 1E       		.uleb128 0x1e
 6579 1534 190A0000 		.4byte	.LASF326
 6580 1538 01       		.byte	0x1
 6581 1539 5D       		.byte	0x5d
 6582 153a C3000000 		.4byte	0xc3
 6583 153e 00000000 		.4byte	.LLST0
 6584 1542 1E       		.uleb128 0x1e
ARM GAS  C:\Users\kiwamu\AppData\Local\Temp\ccIx7zyv.s 			page 182


 6585 1543 0E150000 		.4byte	.LASF327
 6586 1547 01       		.byte	0x1
 6587 1548 5D       		.byte	0x5d
 6588 1549 C3000000 		.4byte	0xc3
 6589 154d 3A000000 		.4byte	.LLST1
 6590 1551 1F       		.uleb128 0x1f
 6591 1552 65737200 		.ascii	"esr\000"
 6592 1556 01       		.byte	0x1
 6593 1557 5D       		.byte	0x5d
 6594 1558 C3000000 		.4byte	0xc3
 6595 155c 7F000000 		.4byte	.LLST2
 6596 1560 1E       		.uleb128 0x1e
 6597 1561 63010000 		.4byte	.LASF328
 6598 1565 01       		.byte	0x1
 6599 1566 5D       		.byte	0x5d
 6600 1567 C3000000 		.4byte	0xc3
 6601 156b C4000000 		.4byte	.LLST3
 6602 156f 20       		.uleb128 0x20
 6603 1570 43150000 		.4byte	.LASF329
 6604 1574 01       		.byte	0x1
 6605 1575 60       		.byte	0x60
 6606 1576 10100000 		.4byte	0x1010
 6607 157a 09010000 		.4byte	.LLST4
 6608 157e 21       		.uleb128 0x21
 6609 157f 00000000 		.4byte	.Ldebug_ranges0+0
 6610 1583 20       		.uleb128 0x20
 6611 1584 4B140000 		.4byte	.LASF330
 6612 1588 01       		.byte	0x1
 6613 1589 64       		.byte	0x64
 6614 158a ED0E0000 		.4byte	0xeed
 6615 158e 68010000 		.4byte	.LLST5
 6616 1592 20       		.uleb128 0x20
 6617 1593 EA0D0000 		.4byte	.LASF331
 6618 1597 01       		.byte	0x1
 6619 1598 65       		.byte	0x65
 6620 1599 ED0E0000 		.4byte	0xeed
 6621 159d B2010000 		.4byte	.LLST6
 6622 15a1 20       		.uleb128 0x20
 6623 15a2 53190000 		.4byte	.LASF332
 6624 15a6 01       		.byte	0x1
 6625 15a7 68       		.byte	0x68
 6626 15a8 ED0E0000 		.4byte	0xeed
 6627 15ac E6010000 		.4byte	.LLST7
 6628 15b0 20       		.uleb128 0x20
 6629 15b1 850B0000 		.4byte	.LASF333
 6630 15b5 01       		.byte	0x1
 6631 15b6 6B       		.byte	0x6b
 6632 15b7 C3000000 		.4byte	0xc3
 6633 15bb F9010000 		.4byte	.LLST8
 6634 15bf 22       		.uleb128 0x22
 6635 15c0 BC000000 		.4byte	.LBB30
 6636 15c4 F4000000 		.4byte	.LBE30-.LBB30
 6637 15c8 27160000 		.4byte	0x1627
 6638 15cc 20       		.uleb128 0x20
 6639 15cd B4170000 		.4byte	.LASF334
 6640 15d1 01       		.byte	0x1
 6641 15d2 71       		.byte	0x71
ARM GAS  C:\Users\kiwamu\AppData\Local\Temp\ccIx7zyv.s 			page 183


 6642 15d3 C3000000 		.4byte	0xc3
 6643 15d7 2F020000 		.4byte	.LLST9
 6644 15db 20       		.uleb128 0x20
 6645 15dc 66170000 		.4byte	.LASF335
 6646 15e0 01       		.byte	0x1
 6647 15e1 71       		.byte	0x71
 6648 15e2 C3000000 		.4byte	0xc3
 6649 15e6 42020000 		.4byte	.LLST10
 6650 15ea 20       		.uleb128 0x20
 6651 15eb 21040000 		.4byte	.LASF336
 6652 15ef 01       		.byte	0x1
 6653 15f0 71       		.byte	0x71
 6654 15f1 C3000000 		.4byte	0xc3
 6655 15f5 55020000 		.4byte	.LLST11
 6656 15f9 20       		.uleb128 0x20
 6657 15fa EC050000 		.4byte	.LASF337
 6658 15fe 01       		.byte	0x1
 6659 15ff 71       		.byte	0x71
 6660 1600 C3000000 		.4byte	0xc3
 6661 1604 68020000 		.4byte	.LLST12
 6662 1608 20       		.uleb128 0x20
 6663 1609 4E0F0000 		.4byte	.LASF338
 6664 160d 01       		.byte	0x1
 6665 160e 71       		.byte	0x71
 6666 160f C3000000 		.4byte	0xc3
 6667 1613 7B020000 		.4byte	.LLST13
 6668 1617 23       		.uleb128 0x23
 6669 1618 72656700 		.ascii	"reg\000"
 6670 161c 01       		.byte	0x1
 6671 161d 71       		.byte	0x71
 6672 161e C3000000 		.4byte	0xc3
 6673 1622 92020000 		.4byte	.LLST14
 6674 1626 00       		.byte	0
 6675 1627 24       		.uleb128 0x24
 6676 1628 48000000 		.4byte	.LVL15
 6677 162c CE240000 		.4byte	0x24ce
 6678 1630 00       		.byte	0
 6679 1631 00       		.byte	0
 6680 1632 25       		.uleb128 0x25
 6681 1633 BB070000 		.4byte	.LASF340
 6682 1637 01       		.byte	0x1
 6683 1638 AD       		.byte	0xad
 6684 1639 10100000 		.4byte	0x1010
 6685 163d 00000000 		.4byte	.LFB140
 6686 1641 58000000 		.4byte	.LFE140-.LFB140
 6687 1645 01       		.uleb128 0x1
 6688 1646 9C       		.byte	0x9c
 6689 1647 79160000 		.4byte	0x1679
 6690 164b 1E       		.uleb128 0x1e
 6691 164c 3D190000 		.4byte	.LASF341
 6692 1650 01       		.byte	0x1
 6693 1651 AD       		.byte	0xad
 6694 1652 C3000000 		.4byte	0xc3
 6695 1656 BB020000 		.4byte	.LLST15
 6696 165a 20       		.uleb128 0x20
 6697 165b 43150000 		.4byte	.LASF329
 6698 165f 01       		.byte	0x1
ARM GAS  C:\Users\kiwamu\AppData\Local\Temp\ccIx7zyv.s 			page 184


 6699 1660 AF       		.byte	0xaf
 6700 1661 10100000 		.4byte	0x1010
 6701 1665 EF020000 		.4byte	.LLST16
 6702 1669 26       		.uleb128 0x26
 6703 166a 24000000 		.4byte	.LVL78
 6704 166e D9240000 		.4byte	0x24d9
 6705 1672 27       		.uleb128 0x27
 6706 1673 01       		.uleb128 0x1
 6707 1674 50       		.byte	0x50
 6708 1675 01       		.uleb128 0x1
 6709 1676 31       		.byte	0x31
 6710 1677 00       		.byte	0
 6711 1678 00       		.byte	0
 6712 1679 25       		.uleb128 0x25
 6713 167a F6000000 		.4byte	.LASF342
 6714 167e 01       		.byte	0x1
 6715 167f DE       		.byte	0xde
 6716 1680 10100000 		.4byte	0x1010
 6717 1684 00000000 		.4byte	.LFB141
 6718 1688 50000000 		.4byte	.LFE141-.LFB141
 6719 168c 01       		.uleb128 0x1
 6720 168d 9C       		.byte	0x9c
 6721 168e C0160000 		.4byte	0x16c0
 6722 1692 1E       		.uleb128 0x1e
 6723 1693 7F020000 		.4byte	.LASF321
 6724 1697 01       		.byte	0x1
 6725 1698 DE       		.byte	0xde
 6726 1699 C3000000 		.4byte	0xc3
 6727 169d 12030000 		.4byte	.LLST17
 6728 16a1 1E       		.uleb128 0x1e
 6729 16a2 F1130000 		.4byte	.LASF343
 6730 16a6 01       		.byte	0x1
 6731 16a7 DE       		.byte	0xde
 6732 16a8 6B100000 		.4byte	0x106b
 6733 16ac 9A030000 		.4byte	.LLST18
 6734 16b0 20       		.uleb128 0x20
 6735 16b1 F70D0000 		.4byte	.LASF344
 6736 16b5 01       		.byte	0x1
 6737 16b6 E0       		.byte	0xe0
 6738 16b7 10100000 		.4byte	0x1010
 6739 16bb ED030000 		.4byte	.LLST19
 6740 16bf 00       		.byte	0
 6741 16c0 25       		.uleb128 0x25
 6742 16c1 98130000 		.4byte	.LASF345
 6743 16c5 01       		.byte	0x1
 6744 16c6 FF       		.byte	0xff
 6745 16c7 6B100000 		.4byte	0x106b
 6746 16cb 00000000 		.4byte	.LFB142
 6747 16cf 40000000 		.4byte	.LFE142-.LFB142
 6748 16d3 01       		.uleb128 0x1
 6749 16d4 9C       		.byte	0x9c
 6750 16d5 13170000 		.4byte	0x1713
 6751 16d9 1E       		.uleb128 0x1e
 6752 16da 7F020000 		.4byte	.LASF321
 6753 16de 01       		.byte	0x1
 6754 16df FF       		.byte	0xff
 6755 16e0 C3000000 		.4byte	0xc3
ARM GAS  C:\Users\kiwamu\AppData\Local\Temp\ccIx7zyv.s 			page 185


 6756 16e4 10040000 		.4byte	.LLST20
 6757 16e8 28       		.uleb128 0x28
 6758 16e9 43150000 		.4byte	.LASF329
 6759 16ed 01       		.byte	0x1
 6760 16ee 0201     		.2byte	0x102
 6761 16f0 6B100000 		.4byte	0x106b
 6762 16f4 4A040000 		.4byte	.LLST21
 6763 16f8 26       		.uleb128 0x26
 6764 16f9 12000000 		.4byte	.LVL98
 6765 16fd E5240000 		.4byte	0x24e5
 6766 1701 27       		.uleb128 0x27
 6767 1702 01       		.uleb128 0x1
 6768 1703 50       		.byte	0x50
 6769 1704 05       		.uleb128 0x5
 6770 1705 03       		.byte	0x3
 6771 1706 00000000 		.4byte	.LC3
 6772 170a 27       		.uleb128 0x27
 6773 170b 01       		.uleb128 0x1
 6774 170c 51       		.byte	0x51
 6775 170d 03       		.uleb128 0x3
 6776 170e 0A       		.byte	0xa
 6777 170f 0101     		.2byte	0x101
 6778 1711 00       		.byte	0
 6779 1712 00       		.byte	0
 6780 1713 29       		.uleb128 0x29
 6781 1714 BA0A0000 		.4byte	.LASF346
 6782 1718 01       		.byte	0x1
 6783 1719 C101     		.2byte	0x1c1
 6784 171b 10100000 		.4byte	0x1010
 6785 171f 00000000 		.4byte	.LFB144
 6786 1723 70010000 		.4byte	.LFE144-.LFB144
 6787 1727 01       		.uleb128 0x1
 6788 1728 9C       		.byte	0x9c
 6789 1729 72180000 		.4byte	0x1872
 6790 172d 2A       		.uleb128 0x2a
 6791 172e 88110000 		.4byte	.LASF347
 6792 1732 01       		.byte	0x1
 6793 1733 C101     		.2byte	0x1c1
 6794 1735 72180000 		.4byte	0x1872
 6795 1739 75040000 		.4byte	.LLST22
 6796 173d 28       		.uleb128 0x28
 6797 173e A3000000 		.4byte	.LASF348
 6798 1742 01       		.byte	0x1
 6799 1743 C301     		.2byte	0x1c3
 6800 1745 10100000 		.4byte	0x1010
 6801 1749 A1040000 		.4byte	.LLST23
 6802 174d 22       		.uleb128 0x22
 6803 174e 28000000 		.4byte	.LBB32
 6804 1752 12010000 		.4byte	.LBE32-.LBB32
 6805 1756 57180000 		.4byte	0x1857
 6806 175a 2B       		.uleb128 0x2b
 6807 175b 72656700 		.ascii	"reg\000"
 6808 175f 01       		.byte	0x1
 6809 1760 D501     		.2byte	0x1d5
 6810 1762 C3000000 		.4byte	0xc3
 6811 1766 CB040000 		.4byte	.LLST24
 6812 176a 2C       		.uleb128 0x2c
ARM GAS  C:\Users\kiwamu\AppData\Local\Temp\ccIx7zyv.s 			page 186


 6813 176b 3A000000 		.4byte	.LVL110
 6814 176f E5240000 		.4byte	0x24e5
 6815 1773 88170000 		.4byte	0x1788
 6816 1777 27       		.uleb128 0x27
 6817 1778 01       		.uleb128 0x1
 6818 1779 50       		.byte	0x50
 6819 177a 05       		.uleb128 0x5
 6820 177b 03       		.byte	0x3
 6821 177c 00000000 		.4byte	.LC3
 6822 1780 27       		.uleb128 0x27
 6823 1781 01       		.uleb128 0x1
 6824 1782 51       		.byte	0x51
 6825 1783 03       		.uleb128 0x3
 6826 1784 0A       		.byte	0xa
 6827 1785 D401     		.2byte	0x1d4
 6828 1787 00       		.byte	0
 6829 1788 2C       		.uleb128 0x2c
 6830 1789 66000000 		.4byte	.LVL114
 6831 178d E5240000 		.4byte	0x24e5
 6832 1791 A6170000 		.4byte	0x17a6
 6833 1795 27       		.uleb128 0x27
 6834 1796 01       		.uleb128 0x1
 6835 1797 50       		.byte	0x50
 6836 1798 05       		.uleb128 0x5
 6837 1799 03       		.byte	0x3
 6838 179a 00000000 		.4byte	.LC3
 6839 179e 27       		.uleb128 0x27
 6840 179f 01       		.uleb128 0x1
 6841 17a0 51       		.byte	0x51
 6842 17a1 03       		.uleb128 0x3
 6843 17a2 0A       		.byte	0xa
 6844 17a3 DB01     		.2byte	0x1db
 6845 17a5 00       		.byte	0
 6846 17a6 2C       		.uleb128 0x2c
 6847 17a7 78000000 		.4byte	.LVL115
 6848 17ab E5240000 		.4byte	0x24e5
 6849 17af C4170000 		.4byte	0x17c4
 6850 17b3 27       		.uleb128 0x27
 6851 17b4 01       		.uleb128 0x1
 6852 17b5 50       		.byte	0x50
 6853 17b6 05       		.uleb128 0x5
 6854 17b7 03       		.byte	0x3
 6855 17b8 00000000 		.4byte	.LC3
 6856 17bc 27       		.uleb128 0x27
 6857 17bd 01       		.uleb128 0x1
 6858 17be 51       		.byte	0x51
 6859 17bf 03       		.uleb128 0x3
 6860 17c0 0A       		.byte	0xa
 6861 17c1 DC01     		.2byte	0x1dc
 6862 17c3 00       		.byte	0
 6863 17c4 2C       		.uleb128 0x2c
 6864 17c5 9E000000 		.4byte	.LVL119
 6865 17c9 E5240000 		.4byte	0x24e5
 6866 17cd E2170000 		.4byte	0x17e2
 6867 17d1 27       		.uleb128 0x27
 6868 17d2 01       		.uleb128 0x1
 6869 17d3 50       		.byte	0x50
ARM GAS  C:\Users\kiwamu\AppData\Local\Temp\ccIx7zyv.s 			page 187


 6870 17d4 05       		.uleb128 0x5
 6871 17d5 03       		.byte	0x3
 6872 17d6 00000000 		.4byte	.LC3
 6873 17da 27       		.uleb128 0x27
 6874 17db 01       		.uleb128 0x1
 6875 17dc 51       		.byte	0x51
 6876 17dd 03       		.uleb128 0x3
 6877 17de 0A       		.byte	0xa
 6878 17df E201     		.2byte	0x1e2
 6879 17e1 00       		.byte	0
 6880 17e2 2C       		.uleb128 0x2c
 6881 17e3 AE000000 		.4byte	.LVL120
 6882 17e7 E5240000 		.4byte	0x24e5
 6883 17eb 00180000 		.4byte	0x1800
 6884 17ef 27       		.uleb128 0x27
 6885 17f0 01       		.uleb128 0x1
 6886 17f1 50       		.byte	0x50
 6887 17f2 05       		.uleb128 0x5
 6888 17f3 03       		.byte	0x3
 6889 17f4 00000000 		.4byte	.LC3
 6890 17f8 27       		.uleb128 0x27
 6891 17f9 01       		.uleb128 0x1
 6892 17fa 51       		.byte	0x51
 6893 17fb 03       		.uleb128 0x3
 6894 17fc 0A       		.byte	0xa
 6895 17fd E301     		.2byte	0x1e3
 6896 17ff 00       		.byte	0
 6897 1800 2C       		.uleb128 0x2c
 6898 1801 C0000000 		.4byte	.LVL121
 6899 1805 E5240000 		.4byte	0x24e5
 6900 1809 1E180000 		.4byte	0x181e
 6901 180d 27       		.uleb128 0x27
 6902 180e 01       		.uleb128 0x1
 6903 180f 50       		.byte	0x50
 6904 1810 05       		.uleb128 0x5
 6905 1811 03       		.byte	0x3
 6906 1812 00000000 		.4byte	.LC3
 6907 1816 27       		.uleb128 0x27
 6908 1817 01       		.uleb128 0x1
 6909 1818 51       		.byte	0x51
 6910 1819 03       		.uleb128 0x3
 6911 181a 0A       		.byte	0xa
 6912 181b E401     		.2byte	0x1e4
 6913 181d 00       		.byte	0
 6914 181e 2C       		.uleb128 0x2c
 6915 181f FE000000 		.4byte	.LVL127
 6916 1823 E5240000 		.4byte	0x24e5
 6917 1827 3C180000 		.4byte	0x183c
 6918 182b 27       		.uleb128 0x27
 6919 182c 01       		.uleb128 0x1
 6920 182d 50       		.byte	0x50
 6921 182e 05       		.uleb128 0x5
 6922 182f 03       		.byte	0x3
 6923 1830 00000000 		.4byte	.LC3
 6924 1834 27       		.uleb128 0x27
 6925 1835 01       		.uleb128 0x1
 6926 1836 51       		.byte	0x51
ARM GAS  C:\Users\kiwamu\AppData\Local\Temp\ccIx7zyv.s 			page 188


 6927 1837 03       		.uleb128 0x3
 6928 1838 0A       		.byte	0xa
 6929 1839 EC01     		.2byte	0x1ec
 6930 183b 00       		.byte	0
 6931 183c 26       		.uleb128 0x26
 6932 183d 10010000 		.4byte	.LVL128
 6933 1841 E5240000 		.4byte	0x24e5
 6934 1845 27       		.uleb128 0x27
 6935 1846 01       		.uleb128 0x1
 6936 1847 50       		.byte	0x50
 6937 1848 05       		.uleb128 0x5
 6938 1849 03       		.byte	0x3
 6939 184a 00000000 		.4byte	.LC3
 6940 184e 27       		.uleb128 0x27
 6941 184f 01       		.uleb128 0x1
 6942 1850 51       		.byte	0x51
 6943 1851 03       		.uleb128 0x3
 6944 1852 0A       		.byte	0xa
 6945 1853 ED01     		.2byte	0x1ed
 6946 1855 00       		.byte	0
 6947 1856 00       		.byte	0
 6948 1857 26       		.uleb128 0x26
 6949 1858 10000000 		.4byte	.LVL108
 6950 185c E5240000 		.4byte	0x24e5
 6951 1860 27       		.uleb128 0x27
 6952 1861 01       		.uleb128 0x1
 6953 1862 50       		.byte	0x50
 6954 1863 05       		.uleb128 0x5
 6955 1864 03       		.byte	0x3
 6956 1865 00000000 		.4byte	.LC3
 6957 1869 27       		.uleb128 0x27
 6958 186a 01       		.uleb128 0x1
 6959 186b 51       		.byte	0x51
 6960 186c 03       		.uleb128 0x3
 6961 186d 0A       		.byte	0xa
 6962 186e C501     		.2byte	0x1c5
 6963 1870 00       		.byte	0
 6964 1871 00       		.byte	0
 6965 1872 16       		.uleb128 0x16
 6966 1873 04       		.byte	0x4
 6967 1874 78180000 		.4byte	0x1878
 6968 1878 06       		.uleb128 0x6
 6969 1879 74110000 		.4byte	0x1174
 6970 187d 2D       		.uleb128 0x2d
 6971 187e D7170000 		.4byte	.LASF349
 6972 1882 01       		.byte	0x1
 6973 1883 3601     		.2byte	0x136
 6974 1885 10100000 		.4byte	0x1010
 6975 1889 00000000 		.4byte	.LFB143
 6976 188d 60030000 		.4byte	.LFE143-.LFB143
 6977 1891 01       		.uleb128 0x1
 6978 1892 9C       		.byte	0x9c
 6979 1893 251A0000 		.4byte	0x1a25
 6980 1897 2A       		.uleb128 0x2a
 6981 1898 35090000 		.4byte	.LASF233
 6982 189c 01       		.byte	0x1
 6983 189d 3601     		.2byte	0x136
ARM GAS  C:\Users\kiwamu\AppData\Local\Temp\ccIx7zyv.s 			page 189


 6984 189f C3000000 		.4byte	0xc3
 6985 18a3 5A050000 		.4byte	.LLST25
 6986 18a7 2A       		.uleb128 0x2a
 6987 18a8 2D0D0000 		.4byte	.LASF234
 6988 18ac 01       		.byte	0x1
 6989 18ad 3601     		.2byte	0x136
 6990 18af C3000000 		.4byte	0xc3
 6991 18b3 E3050000 		.4byte	.LLST26
 6992 18b7 2A       		.uleb128 0x2a
 6993 18b8 0B0E0000 		.4byte	.LASF229
 6994 18bc 01       		.byte	0x1
 6995 18bd 3601     		.2byte	0x136
 6996 18bf 9D100000 		.4byte	0x109d
 6997 18c3 3E060000 		.4byte	.LLST27
 6998 18c7 28       		.uleb128 0x28
 6999 18c8 A3000000 		.4byte	.LASF348
 7000 18cc 01       		.byte	0x1
 7001 18cd 3801     		.2byte	0x138
 7002 18cf 10100000 		.4byte	0x1010
 7003 18d3 5F060000 		.4byte	.LLST28
 7004 18d7 2E       		.uleb128 0x2e
 7005 18d8 60000000 		.4byte	.LBB33
 7006 18dc 98020000 		.4byte	.LBE33-.LBB33
 7007 18e0 2F       		.uleb128 0x2f
 7008 18e1 88110000 		.4byte	.LASF347
 7009 18e5 01       		.byte	0x1
 7010 18e6 5301     		.2byte	0x153
 7011 18e8 74110000 		.4byte	0x1174
 7012 18ec 03       		.uleb128 0x3
 7013 18ed 91       		.byte	0x91
 7014 18ee F47E     		.sleb128 -140
 7015 18f0 28       		.uleb128 0x28
 7016 18f1 0C080000 		.4byte	.LASF350
 7017 18f5 01       		.byte	0x1
 7018 18f6 5401     		.2byte	0x154
 7019 18f8 C3000000 		.4byte	0xc3
 7020 18fc 89060000 		.4byte	.LLST29
 7021 1900 28       		.uleb128 0x28
 7022 1901 94140000 		.4byte	.LASF351
 7023 1905 01       		.byte	0x1
 7024 1906 5501     		.2byte	0x155
 7025 1908 6D110000 		.4byte	0x116d
 7026 190c BB060000 		.4byte	.LLST30
 7027 1910 22       		.uleb128 0x22
 7028 1911 A4000000 		.4byte	.LBB34
 7029 1915 BE010000 		.4byte	.LBE34-.LBB34
 7030 1919 A9190000 		.4byte	0x19a9
 7031 191d 2F       		.uleb128 0x2f
 7032 191e 310C0000 		.4byte	.LASF352
 7033 1922 01       		.byte	0x1
 7034 1923 6301     		.2byte	0x163
 7035 1925 3A1A0000 		.4byte	0x1a3a
 7036 1929 03       		.uleb128 0x3
 7037 192a 91       		.byte	0x91
 7038 192b 887F     		.sleb128 -120
 7039 192d 2F       		.uleb128 0x2f
 7040 192e 5C160000 		.4byte	.LASF353
ARM GAS  C:\Users\kiwamu\AppData\Local\Temp\ccIx7zyv.s 			page 190


 7041 1932 01       		.byte	0x1
 7042 1933 6401     		.2byte	0x164
 7043 1935 3F1A0000 		.4byte	0x1a3f
 7044 1939 03       		.uleb128 0x3
 7045 193a 91       		.byte	0x91
 7046 193b 9C7F     		.sleb128 -100
 7047 193d 22       		.uleb128 0x22
 7048 193e 3A010000 		.4byte	.LBB35
 7049 1942 E0000000 		.4byte	.LBE35-.LBB35
 7050 1946 7B190000 		.4byte	0x197b
 7051 194a 28       		.uleb128 0x28
 7052 194b 5E030000 		.4byte	.LASF354
 7053 194f 01       		.byte	0x1
 7054 1950 7701     		.2byte	0x177
 7055 1952 ED0E0000 		.4byte	0xeed
 7056 1956 ED060000 		.4byte	.LLST31
 7057 195a 28       		.uleb128 0x28
 7058 195b D5070000 		.4byte	.LASF355
 7059 195f 01       		.byte	0x1
 7060 1960 7801     		.2byte	0x178
 7061 1962 ED0E0000 		.4byte	0xeed
 7062 1966 0D070000 		.4byte	.LLST32
 7063 196a 2F       		.uleb128 0x2f
 7064 196b 571B0000 		.4byte	.LASF356
 7065 196f 01       		.byte	0x1
 7066 1970 7B01     		.2byte	0x17b
 7067 1972 541A0000 		.4byte	0x1a54
 7068 1976 03       		.uleb128 0x3
 7069 1977 91       		.byte	0x91
 7070 1978 B07F     		.sleb128 -80
 7071 197a 00       		.byte	0
 7072 197b 24       		.uleb128 0x24
 7073 197c FE000000 		.4byte	.LVL155
 7074 1980 F1240000 		.4byte	0x24f1
 7075 1984 24       		.uleb128 0x24
 7076 1985 34010000 		.4byte	.LVL161
 7077 1989 F1240000 		.4byte	0x24f1
 7078 198d 24       		.uleb128 0x24
 7079 198e 2E020000 		.4byte	.LVL181
 7080 1992 FD240000 		.4byte	0x24fd
 7081 1996 24       		.uleb128 0x24
 7082 1997 4C020000 		.4byte	.LVL185
 7083 199b FD240000 		.4byte	0x24fd
 7084 199f 24       		.uleb128 0x24
 7085 19a0 5C020000 		.4byte	.LVL187
 7086 19a4 08250000 		.4byte	0x2508
 7087 19a8 00       		.byte	0
 7088 19a9 22       		.uleb128 0x22
 7089 19aa 62020000 		.4byte	.LBB36
 7090 19ae 92000000 		.4byte	.LBE36-.LBB36
 7091 19b2 091A0000 		.4byte	0x1a09
 7092 19b6 28       		.uleb128 0x28
 7093 19b7 CF070000 		.4byte	.LASF357
 7094 19bb 01       		.byte	0x1
 7095 19bc 9801     		.2byte	0x198
 7096 19be ED0E0000 		.4byte	0xeed
 7097 19c2 2C070000 		.4byte	.LLST33
ARM GAS  C:\Users\kiwamu\AppData\Local\Temp\ccIx7zyv.s 			page 191


 7098 19c6 28       		.uleb128 0x28
 7099 19c7 030C0000 		.4byte	.LASF358
 7100 19cb 01       		.byte	0x1
 7101 19cc 9901     		.2byte	0x199
 7102 19ce ED0E0000 		.4byte	0xeed
 7103 19d2 4A070000 		.4byte	.LLST34
 7104 19d6 28       		.uleb128 0x28
 7105 19d7 7D0C0000 		.4byte	.LASF359
 7106 19db 01       		.byte	0x1
 7107 19dc 9A01     		.2byte	0x19a
 7108 19de ED0E0000 		.4byte	0xeed
 7109 19e2 68070000 		.4byte	.LLST35
 7110 19e6 28       		.uleb128 0x28
 7111 19e7 D7150000 		.4byte	.LASF360
 7112 19eb 01       		.byte	0x1
 7113 19ec 9B01     		.2byte	0x19b
 7114 19ee ED0E0000 		.4byte	0xeed
 7115 19f2 86070000 		.4byte	.LLST36
 7116 19f6 24       		.uleb128 0x24
 7117 19f7 9A020000 		.4byte	.LVL199
 7118 19fb 13250000 		.4byte	0x2513
 7119 19ff 24       		.uleb128 0x24
 7120 1a00 AE020000 		.4byte	.LVL203
 7121 1a04 13250000 		.4byte	0x2513
 7122 1a08 00       		.byte	0
 7123 1a09 24       		.uleb128 0x24
 7124 1a0a 64000000 		.4byte	.LVL145
 7125 1a0e C0160000 		.4byte	0x16c0
 7126 1a12 26       		.uleb128 0x26
 7127 1a13 F8020000 		.4byte	.LVL213
 7128 1a17 13170000 		.4byte	0x1713
 7129 1a1b 27       		.uleb128 0x27
 7130 1a1c 01       		.uleb128 0x1
 7131 1a1d 50       		.byte	0x50
 7132 1a1e 03       		.uleb128 0x3
 7133 1a1f 91       		.byte	0x91
 7134 1a20 F47E     		.sleb128 -140
 7135 1a22 00       		.byte	0
 7136 1a23 00       		.byte	0
 7137 1a24 00       		.byte	0
 7138 1a25 07       		.uleb128 0x7
 7139 1a26 351A0000 		.4byte	0x1a35
 7140 1a2a 351A0000 		.4byte	0x1a35
 7141 1a2e 08       		.uleb128 0x8
 7142 1a2f D9000000 		.4byte	0xd9
 7143 1a33 04       		.byte	0x4
 7144 1a34 00       		.byte	0
 7145 1a35 06       		.uleb128 0x6
 7146 1a36 ED0E0000 		.4byte	0xeed
 7147 1a3a 06       		.uleb128 0x6
 7148 1a3b 251A0000 		.4byte	0x1a25
 7149 1a3f 06       		.uleb128 0x6
 7150 1a40 251A0000 		.4byte	0x1a25
 7151 1a44 07       		.uleb128 0x7
 7152 1a45 351A0000 		.4byte	0x1a35
 7153 1a49 541A0000 		.4byte	0x1a54
 7154 1a4d 08       		.uleb128 0x8
ARM GAS  C:\Users\kiwamu\AppData\Local\Temp\ccIx7zyv.s 			page 192


 7155 1a4e D9000000 		.4byte	0xd9
 7156 1a52 0B       		.byte	0xb
 7157 1a53 00       		.byte	0
 7158 1a54 06       		.uleb128 0x6
 7159 1a55 441A0000 		.4byte	0x1a44
 7160 1a59 30       		.uleb128 0x30
 7161 1a5a C70C0000 		.4byte	.LASF421
 7162 1a5e 01       		.byte	0x1
 7163 1a5f FE01     		.2byte	0x1fe
 7164 1a61 00000000 		.4byte	.LFB145
 7165 1a65 7C000000 		.4byte	.LFE145-.LFB145
 7166 1a69 01       		.uleb128 0x1
 7167 1a6a 9C       		.byte	0x9c
 7168 1a6b AA1A0000 		.4byte	0x1aaa
 7169 1a6f 2A       		.uleb128 0x2a
 7170 1a70 88110000 		.4byte	.LASF347
 7171 1a74 01       		.byte	0x1
 7172 1a75 FE01     		.2byte	0x1fe
 7173 1a77 AA1A0000 		.4byte	0x1aaa
 7174 1a7b BA070000 		.4byte	.LLST37
 7175 1a7f 28       		.uleb128 0x28
 7176 1a80 74030000 		.4byte	.LASF361
 7177 1a84 01       		.byte	0x1
 7178 1a85 0202     		.2byte	0x202
 7179 1a87 C3000000 		.4byte	0xc3
 7180 1a8b E6070000 		.4byte	.LLST38
 7181 1a8f 26       		.uleb128 0x26
 7182 1a90 10000000 		.4byte	.LVL219
 7183 1a94 E5240000 		.4byte	0x24e5
 7184 1a98 27       		.uleb128 0x27
 7185 1a99 01       		.uleb128 0x1
 7186 1a9a 50       		.byte	0x50
 7187 1a9b 05       		.uleb128 0x5
 7188 1a9c 03       		.byte	0x3
 7189 1a9d 00000000 		.4byte	.LC3
 7190 1aa1 27       		.uleb128 0x27
 7191 1aa2 01       		.uleb128 0x1
 7192 1aa3 51       		.byte	0x51
 7193 1aa4 03       		.uleb128 0x3
 7194 1aa5 0A       		.byte	0xa
 7195 1aa6 0002     		.2byte	0x200
 7196 1aa8 00       		.byte	0
 7197 1aa9 00       		.byte	0
 7198 1aaa 16       		.uleb128 0x16
 7199 1aab 04       		.byte	0x4
 7200 1aac 74110000 		.4byte	0x1174
 7201 1ab0 29       		.uleb128 0x29
 7202 1ab1 C5020000 		.4byte	.LASF362
 7203 1ab5 01       		.byte	0x1
 7204 1ab6 2502     		.2byte	0x225
 7205 1ab8 10100000 		.4byte	0x1010
 7206 1abc 00000000 		.4byte	.LFB146
 7207 1ac0 CC000000 		.4byte	.LFE146-.LFB146
 7208 1ac4 01       		.uleb128 0x1
 7209 1ac5 9C       		.byte	0x9c
 7210 1ac6 2B1B0000 		.4byte	0x1b2b
 7211 1aca 2A       		.uleb128 0x2a
ARM GAS  C:\Users\kiwamu\AppData\Local\Temp\ccIx7zyv.s 			page 193


 7212 1acb 3D190000 		.4byte	.LASF341
 7213 1acf 01       		.byte	0x1
 7214 1ad0 2502     		.2byte	0x225
 7215 1ad2 C3000000 		.4byte	0xc3
 7216 1ad6 0F080000 		.4byte	.LLST39
 7217 1ada 2F       		.uleb128 0x2f
 7218 1adb 43150000 		.4byte	.LASF329
 7219 1adf 01       		.byte	0x1
 7220 1ae0 2702     		.2byte	0x227
 7221 1ae2 10100000 		.4byte	0x1010
 7222 1ae6 01       		.uleb128 0x1
 7223 1ae7 50       		.byte	0x50
 7224 1ae8 28       		.uleb128 0x28
 7225 1ae9 2F140000 		.4byte	.LASF363
 7226 1aed 01       		.byte	0x1
 7227 1aee 2802     		.2byte	0x228
 7228 1af0 6D110000 		.4byte	0x116d
 7229 1af4 38080000 		.4byte	.LLST40
 7230 1af8 31       		.uleb128 0x31
 7231 1af9 54140000 		.4byte	0x1454
 7232 1afd 7E000000 		.4byte	.LBB37
 7233 1b01 1A000000 		.4byte	.LBE37-.LBB37
 7234 1b05 01       		.byte	0x1
 7235 1b06 4902     		.2byte	0x249
 7236 1b08 2C       		.uleb128 0x2c
 7237 1b09 1C000000 		.4byte	.LVL231
 7238 1b0d D9240000 		.4byte	0x24d9
 7239 1b11 1B1B0000 		.4byte	0x1b1b
 7240 1b15 27       		.uleb128 0x27
 7241 1b16 01       		.uleb128 0x1
 7242 1b17 50       		.byte	0x50
 7243 1b18 01       		.uleb128 0x1
 7244 1b19 31       		.byte	0x31
 7245 1b1a 00       		.byte	0
 7246 1b1b 26       		.uleb128 0x26
 7247 1b1c 64000000 		.4byte	.LVL233
 7248 1b20 D9240000 		.4byte	0x24d9
 7249 1b24 27       		.uleb128 0x27
 7250 1b25 01       		.uleb128 0x1
 7251 1b26 50       		.byte	0x50
 7252 1b27 01       		.uleb128 0x1
 7253 1b28 31       		.byte	0x31
 7254 1b29 00       		.byte	0
 7255 1b2a 00       		.byte	0
 7256 1b2b 29       		.uleb128 0x29
 7257 1b2c E50C0000 		.4byte	.LASF364
 7258 1b30 01       		.byte	0x1
 7259 1b31 0D03     		.2byte	0x30d
 7260 1b33 10100000 		.4byte	0x1010
 7261 1b37 00000000 		.4byte	.LFB148
 7262 1b3b E4000000 		.4byte	.LFE148-.LFB148
 7263 1b3f 01       		.uleb128 0x1
 7264 1b40 9C       		.byte	0x9c
 7265 1b41 761B0000 		.4byte	0x1b76
 7266 1b45 2A       		.uleb128 0x2a
 7267 1b46 7F020000 		.4byte	.LASF321
 7268 1b4a 01       		.byte	0x1
ARM GAS  C:\Users\kiwamu\AppData\Local\Temp\ccIx7zyv.s 			page 194


 7269 1b4b 0D03     		.2byte	0x30d
 7270 1b4d C3000000 		.4byte	0xc3
 7271 1b51 6E080000 		.4byte	.LLST41
 7272 1b55 2A       		.uleb128 0x2a
 7273 1b56 88110000 		.4byte	.LASF347
 7274 1b5a 01       		.byte	0x1
 7275 1b5b 0D03     		.2byte	0x30d
 7276 1b5d 761B0000 		.4byte	0x1b76
 7277 1b61 CE080000 		.4byte	.LLST42
 7278 1b65 28       		.uleb128 0x28
 7279 1b66 A3000000 		.4byte	.LASF348
 7280 1b6a 01       		.byte	0x1
 7281 1b6b 0F03     		.2byte	0x30f
 7282 1b6d 10100000 		.4byte	0x1010
 7283 1b71 EF080000 		.4byte	.LLST43
 7284 1b75 00       		.byte	0
 7285 1b76 16       		.uleb128 0x16
 7286 1b77 04       		.byte	0x4
 7287 1b78 7C1B0000 		.4byte	0x1b7c
 7288 1b7c 06       		.uleb128 0x6
 7289 1b7d 15120000 		.4byte	0x1215
 7290 1b81 2D       		.uleb128 0x2d
 7291 1b82 4A0B0000 		.4byte	.LASF365
 7292 1b86 01       		.byte	0x1
 7293 1b87 A002     		.2byte	0x2a0
 7294 1b89 10100000 		.4byte	0x1010
 7295 1b8d 00000000 		.4byte	.LFB147
 7296 1b91 84010000 		.4byte	.LFE147-.LFB147
 7297 1b95 01       		.uleb128 0x1
 7298 1b96 9C       		.byte	0x9c
 7299 1b97 711C0000 		.4byte	0x1c71
 7300 1b9b 2A       		.uleb128 0x2a
 7301 1b9c 7F020000 		.4byte	.LASF321
 7302 1ba0 01       		.byte	0x1
 7303 1ba1 A002     		.2byte	0x2a0
 7304 1ba3 C3000000 		.4byte	0xc3
 7305 1ba7 0E090000 		.4byte	.LLST44
 7306 1bab 2A       		.uleb128 0x2a
 7307 1bac 88110000 		.4byte	.LASF347
 7308 1bb0 01       		.byte	0x1
 7309 1bb1 A002     		.2byte	0x2a0
 7310 1bb3 711C0000 		.4byte	0x1c71
 7311 1bb7 A8090000 		.4byte	.LLST45
 7312 1bbb 28       		.uleb128 0x28
 7313 1bbc A3000000 		.4byte	.LASF348
 7314 1bc0 01       		.byte	0x1
 7315 1bc1 A202     		.2byte	0x2a2
 7316 1bc3 10100000 		.4byte	0x1010
 7317 1bc7 EA090000 		.4byte	.LLST46
 7318 1bcb 2E       		.uleb128 0x2e
 7319 1bcc 66000000 		.4byte	.LBB39
 7320 1bd0 E2000000 		.4byte	.LBE39-.LBB39
 7321 1bd4 2F       		.uleb128 0x2f
 7322 1bd5 240E0000 		.4byte	.LASF366
 7323 1bd9 01       		.byte	0x1
 7324 1bda BE02     		.2byte	0x2be
 7325 1bdc 15120000 		.4byte	0x1215
ARM GAS  C:\Users\kiwamu\AppData\Local\Temp\ccIx7zyv.s 			page 195


 7326 1be0 02       		.uleb128 0x2
 7327 1be1 91       		.byte	0x91
 7328 1be2 50       		.sleb128 -48
 7329 1be3 32       		.uleb128 0x32
 7330 1be4 18000000 		.4byte	.Ldebug_ranges0+0x18
 7331 1be8 591C0000 		.4byte	0x1c59
 7332 1bec 2B       		.uleb128 0x2b
 7333 1bed 7000     		.ascii	"p\000"
 7334 1bef 01       		.byte	0x1
 7335 1bf0 CB02     		.2byte	0x2cb
 7336 1bf2 C3000000 		.4byte	0xc3
 7337 1bf6 1F0A0000 		.4byte	.LLST47
 7338 1bfa 2B       		.uleb128 0x2b
 7339 1bfb 7100     		.ascii	"q\000"
 7340 1bfd 01       		.byte	0x1
 7341 1bfe CB02     		.2byte	0x2cb
 7342 1c00 C3000000 		.4byte	0xc3
 7343 1c04 320A0000 		.4byte	.LLST48
 7344 1c08 2B       		.uleb128 0x2b
 7345 1c09 6F757400 		.ascii	"out\000"
 7346 1c0d 01       		.byte	0x1
 7347 1c0e CB02     		.2byte	0x2cb
 7348 1c10 C3000000 		.4byte	0xc3
 7349 1c14 680A0000 		.4byte	.LLST49
 7350 1c18 28       		.uleb128 0x28
 7351 1c19 78100000 		.4byte	.LASF367
 7352 1c1d 01       		.byte	0x1
 7353 1c1e CC02     		.2byte	0x2cc
 7354 1c20 C3000000 		.4byte	0xc3
 7355 1c24 860A0000 		.4byte	.LLST50
 7356 1c28 2E       		.uleb128 0x2e
 7357 1c29 8A000000 		.4byte	.LBB41
 7358 1c2d 78000000 		.4byte	.LBE41-.LBB41
 7359 1c31 1C       		.uleb128 0x1c
 7360 1c32 DE150000 		.4byte	.LASF368
 7361 1c36 01       		.byte	0x1
 7362 1c37 D502     		.2byte	0x2d5
 7363 1c39 C3000000 		.4byte	0xc3
 7364 1c3d 2E       		.uleb128 0x2e
 7365 1c3e C0000000 		.4byte	.LBB42
 7366 1c42 34000000 		.4byte	.LBE42-.LBB42
 7367 1c46 28       		.uleb128 0x28
 7368 1c47 68050000 		.4byte	.LASF369
 7369 1c4b 01       		.byte	0x1
 7370 1c4c DD02     		.2byte	0x2dd
 7371 1c4e C3000000 		.4byte	0xc3
 7372 1c52 BA0A0000 		.4byte	.LLST51
 7373 1c56 00       		.byte	0
 7374 1c57 00       		.byte	0
 7375 1c58 00       		.byte	0
 7376 1c59 26       		.uleb128 0x26
 7377 1c5a 48010000 		.4byte	.LVL282
 7378 1c5e 2B1B0000 		.4byte	0x1b2b
 7379 1c62 27       		.uleb128 0x27
 7380 1c63 01       		.uleb128 0x1
 7381 1c64 50       		.byte	0x50
 7382 1c65 02       		.uleb128 0x2
ARM GAS  C:\Users\kiwamu\AppData\Local\Temp\ccIx7zyv.s 			page 196


 7383 1c66 79       		.byte	0x79
 7384 1c67 00       		.sleb128 0
 7385 1c68 27       		.uleb128 0x27
 7386 1c69 01       		.uleb128 0x1
 7387 1c6a 51       		.byte	0x51
 7388 1c6b 02       		.uleb128 0x2
 7389 1c6c 91       		.byte	0x91
 7390 1c6d 50       		.sleb128 -48
 7391 1c6e 00       		.byte	0
 7392 1c6f 00       		.byte	0
 7393 1c70 00       		.byte	0
 7394 1c71 16       		.uleb128 0x16
 7395 1c72 04       		.byte	0x4
 7396 1c73 771C0000 		.4byte	0x1c77
 7397 1c77 06       		.uleb128 0x6
 7398 1c78 BE110000 		.4byte	0x11be
 7399 1c7c 29       		.uleb128 0x29
 7400 1c7d 85000000 		.4byte	.LASF370
 7401 1c81 01       		.byte	0x1
 7402 1c82 4A03     		.2byte	0x34a
 7403 1c84 10100000 		.4byte	0x1010
 7404 1c88 00000000 		.4byte	.LFB149
 7405 1c8c 44000000 		.4byte	.LFE149-.LFB149
 7406 1c90 01       		.uleb128 0x1
 7407 1c91 9C       		.byte	0x9c
 7408 1c92 DF1C0000 		.4byte	0x1cdf
 7409 1c96 2A       		.uleb128 0x2a
 7410 1c97 7F020000 		.4byte	.LASF321
 7411 1c9b 01       		.byte	0x1
 7412 1c9c 4A03     		.2byte	0x34a
 7413 1c9e C3000000 		.4byte	0xc3
 7414 1ca2 CD0A0000 		.4byte	.LLST52
 7415 1ca6 33       		.uleb128 0x33
 7416 1ca7 88110000 		.4byte	.LASF347
 7417 1cab 01       		.byte	0x1
 7418 1cac 4A03     		.2byte	0x34a
 7419 1cae DF1C0000 		.4byte	0x1cdf
 7420 1cb2 01       		.uleb128 0x1
 7421 1cb3 51       		.byte	0x51
 7422 1cb4 28       		.uleb128 0x28
 7423 1cb5 43150000 		.4byte	.LASF329
 7424 1cb9 01       		.byte	0x1
 7425 1cba 4C03     		.2byte	0x34c
 7426 1cbc 10100000 		.4byte	0x1010
 7427 1cc0 230B0000 		.4byte	.LLST53
 7428 1cc4 2E       		.uleb128 0x2e
 7429 1cc5 04000000 		.4byte	.LBB44
 7430 1cc9 34000000 		.4byte	.LBE44-.LBB44
 7431 1ccd 28       		.uleb128 0x28
 7432 1cce 74030000 		.4byte	.LASF361
 7433 1cd2 01       		.byte	0x1
 7434 1cd3 4F03     		.2byte	0x34f
 7435 1cd5 C3000000 		.4byte	0xc3
 7436 1cd9 620B0000 		.4byte	.LLST54
 7437 1cdd 00       		.byte	0
 7438 1cde 00       		.byte	0
 7439 1cdf 16       		.uleb128 0x16
ARM GAS  C:\Users\kiwamu\AppData\Local\Temp\ccIx7zyv.s 			page 197


 7440 1ce0 04       		.byte	0x4
 7441 1ce1 15120000 		.4byte	0x1215
 7442 1ce5 29       		.uleb128 0x29
 7443 1ce6 25000000 		.4byte	.LASF371
 7444 1cea 01       		.byte	0x1
 7445 1ceb 6C03     		.2byte	0x36c
 7446 1ced 10100000 		.4byte	0x1010
 7447 1cf1 00000000 		.4byte	.LFB150
 7448 1cf5 58000000 		.4byte	.LFE150-.LFB150
 7449 1cf9 01       		.uleb128 0x1
 7450 1cfa 9C       		.byte	0x9c
 7451 1cfb 3F1D0000 		.4byte	0x1d3f
 7452 1cff 2A       		.uleb128 0x2a
 7453 1d00 7F020000 		.4byte	.LASF321
 7454 1d04 01       		.byte	0x1
 7455 1d05 6C03     		.2byte	0x36c
 7456 1d07 C3000000 		.4byte	0xc3
 7457 1d0b 750B0000 		.4byte	.LLST55
 7458 1d0f 2A       		.uleb128 0x2a
 7459 1d10 3D190000 		.4byte	.LASF341
 7460 1d14 01       		.byte	0x1
 7461 1d15 6C03     		.2byte	0x36c
 7462 1d17 C3000000 		.4byte	0xc3
 7463 1d1b B70B0000 		.4byte	.LLST56
 7464 1d1f 28       		.uleb128 0x28
 7465 1d20 43150000 		.4byte	.LASF329
 7466 1d24 01       		.byte	0x1
 7467 1d25 6E03     		.2byte	0x36e
 7468 1d27 10100000 		.4byte	0x1010
 7469 1d2b EB0B0000 		.4byte	.LLST57
 7470 1d2f 26       		.uleb128 0x26
 7471 1d30 24000000 		.4byte	.LVL298
 7472 1d34 D9240000 		.4byte	0x24d9
 7473 1d38 27       		.uleb128 0x27
 7474 1d39 01       		.uleb128 0x1
 7475 1d3a 50       		.byte	0x50
 7476 1d3b 01       		.uleb128 0x1
 7477 1d3c 31       		.byte	0x31
 7478 1d3d 00       		.byte	0
 7479 1d3e 00       		.byte	0
 7480 1d3f 29       		.uleb128 0x29
 7481 1d40 BF030000 		.4byte	.LASF372
 7482 1d44 01       		.byte	0x1
 7483 1d45 BB03     		.2byte	0x3bb
 7484 1d47 10100000 		.4byte	0x1010
 7485 1d4b 00000000 		.4byte	.LFB151
 7486 1d4f A8010000 		.4byte	.LFE151-.LFB151
 7487 1d53 01       		.uleb128 0x1
 7488 1d54 9C       		.byte	0x9c
 7489 1d55 981D0000 		.4byte	0x1d98
 7490 1d59 2A       		.uleb128 0x2a
 7491 1d5a 50030000 		.4byte	.LASF373
 7492 1d5e 01       		.byte	0x1
 7493 1d5f BB03     		.2byte	0x3bb
 7494 1d61 6A130000 		.4byte	0x136a
 7495 1d65 0E0C0000 		.4byte	.LLST58
 7496 1d69 33       		.uleb128 0x33
ARM GAS  C:\Users\kiwamu\AppData\Local\Temp\ccIx7zyv.s 			page 198


 7497 1d6a 470F0000 		.4byte	.LASF374
 7498 1d6e 01       		.byte	0x1
 7499 1d6f BB03     		.2byte	0x3bb
 7500 1d71 C3000000 		.4byte	0xc3
 7501 1d75 01       		.uleb128 0x1
 7502 1d76 51       		.byte	0x51
 7503 1d77 2A       		.uleb128 0x2a
 7504 1d78 57030000 		.4byte	.LASF375
 7505 1d7c 01       		.byte	0x1
 7506 1d7d BB03     		.2byte	0x3bb
 7507 1d7f 6A130000 		.4byte	0x136a
 7508 1d83 DE0C0000 		.4byte	.LLST59
 7509 1d87 28       		.uleb128 0x28
 7510 1d88 43150000 		.4byte	.LASF329
 7511 1d8c 01       		.byte	0x1
 7512 1d8d BD03     		.2byte	0x3bd
 7513 1d8f 10100000 		.4byte	0x1010
 7514 1d93 630D0000 		.4byte	.LLST60
 7515 1d97 00       		.byte	0
 7516 1d98 2D       		.uleb128 0x2d
 7517 1d99 53140000 		.4byte	.LASF376
 7518 1d9d 01       		.byte	0x1
 7519 1d9e 2F04     		.2byte	0x42f
 7520 1da0 C3000000 		.4byte	0xc3
 7521 1da4 00000000 		.4byte	.LFB152
 7522 1da8 88000000 		.4byte	.LFE152-.LFB152
 7523 1dac 01       		.uleb128 0x1
 7524 1dad 9C       		.byte	0x9c
 7525 1dae E21D0000 		.4byte	0x1de2
 7526 1db2 2A       		.uleb128 0x2a
 7527 1db3 C30F0000 		.4byte	.LASF377
 7528 1db7 01       		.byte	0x1
 7529 1db8 2F04     		.2byte	0x42f
 7530 1dba 6D110000 		.4byte	0x116d
 7531 1dbe C20D0000 		.4byte	.LLST61
 7532 1dc2 2A       		.uleb128 0x2a
 7533 1dc3 D6000000 		.4byte	.LASF378
 7534 1dc7 01       		.byte	0x1
 7535 1dc8 2F04     		.2byte	0x42f
 7536 1dca C3000000 		.4byte	0xc3
 7537 1dce FC0D0000 		.4byte	.LLST62
 7538 1dd2 2F       		.uleb128 0x2f
 7539 1dd3 43150000 		.4byte	.LASF329
 7540 1dd7 01       		.byte	0x1
 7541 1dd8 3104     		.2byte	0x431
 7542 1dda E21D0000 		.4byte	0x1de2
 7543 1dde 02       		.uleb128 0x2
 7544 1ddf 91       		.byte	0x91
 7545 1de0 68       		.sleb128 -24
 7546 1de1 00       		.byte	0
 7547 1de2 05       		.uleb128 0x5
 7548 1de3 CE000000 		.4byte	0xce
 7549 1de7 2D       		.uleb128 0x2d
 7550 1de8 A7100000 		.4byte	.LASF379
 7551 1dec 01       		.byte	0x1
 7552 1ded 6004     		.2byte	0x460
 7553 1def B8000000 		.4byte	0xb8
ARM GAS  C:\Users\kiwamu\AppData\Local\Temp\ccIx7zyv.s 			page 199


 7554 1df3 00000000 		.4byte	.LFB153
 7555 1df7 74000000 		.4byte	.LFE153-.LFB153
 7556 1dfb 01       		.uleb128 0x1
 7557 1dfc 9C       		.byte	0x9c
 7558 1dfd 501E0000 		.4byte	0x1e50
 7559 1e01 2A       		.uleb128 0x2a
 7560 1e02 2C020000 		.4byte	.LASF380
 7561 1e06 01       		.byte	0x1
 7562 1e07 6004     		.2byte	0x460
 7563 1e09 C3000000 		.4byte	0xc3
 7564 1e0d 4C0E0000 		.4byte	.LLST63
 7565 1e11 34       		.uleb128 0x34
 7566 1e12 900A0000 		.4byte	.LASF381
 7567 1e16 01       		.byte	0x1
 7568 1e17 6304     		.2byte	0x463
 7569 1e19 501E0000 		.4byte	0x1e50
 7570 1e1d EC01     		.2byte	0x1ec
 7571 1e1f 28       		.uleb128 0x28
 7572 1e20 4E020000 		.4byte	.LASF382
 7573 1e24 01       		.byte	0x1
 7574 1e25 6504     		.2byte	0x465
 7575 1e27 C3000000 		.4byte	0xc3
 7576 1e2b AE0E0000 		.4byte	.LLST64
 7577 1e2f 28       		.uleb128 0x28
 7578 1e30 BF0C0000 		.4byte	.LASF383
 7579 1e34 01       		.byte	0x1
 7580 1e35 6604     		.2byte	0x466
 7581 1e37 C3000000 		.4byte	0xc3
 7582 1e3b FB0E0000 		.4byte	.LLST65
 7583 1e3f 28       		.uleb128 0x28
 7584 1e40 D1120000 		.4byte	.LASF384
 7585 1e44 01       		.byte	0x1
 7586 1e45 6904     		.2byte	0x469
 7587 1e47 C3000000 		.4byte	0xc3
 7588 1e4b 310F0000 		.4byte	.LLST66
 7589 1e4f 00       		.byte	0
 7590 1e50 06       		.uleb128 0x6
 7591 1e51 C3000000 		.4byte	0xc3
 7592 1e55 2D       		.uleb128 0x2d
 7593 1e56 49160000 		.4byte	.LASF385
 7594 1e5a 01       		.byte	0x1
 7595 1e5b 8F04     		.2byte	0x48f
 7596 1e5d B8000000 		.4byte	0xb8
 7597 1e61 00000000 		.4byte	.LFB154
 7598 1e65 88000000 		.4byte	.LFE154-.LFB154
 7599 1e69 01       		.uleb128 0x1
 7600 1e6a 9C       		.byte	0x9c
 7601 1e6b DA1E0000 		.4byte	0x1eda
 7602 1e6f 2A       		.uleb128 0x2a
 7603 1e70 BF130000 		.4byte	.LASF386
 7604 1e74 01       		.byte	0x1
 7605 1e75 8F04     		.2byte	0x48f
 7606 1e77 C3000000 		.4byte	0xc3
 7607 1e7b 1B100000 		.4byte	.LLST67
 7608 1e7f 28       		.uleb128 0x28
 7609 1e80 4E020000 		.4byte	.LASF382
 7610 1e84 01       		.byte	0x1
ARM GAS  C:\Users\kiwamu\AppData\Local\Temp\ccIx7zyv.s 			page 200


 7611 1e85 9104     		.2byte	0x491
 7612 1e87 C3000000 		.4byte	0xc3
 7613 1e8b 7D100000 		.4byte	.LLST68
 7614 1e8f 28       		.uleb128 0x28
 7615 1e90 BF0C0000 		.4byte	.LASF383
 7616 1e94 01       		.byte	0x1
 7617 1e95 9204     		.2byte	0x492
 7618 1e97 C3000000 		.4byte	0xc3
 7619 1e9b D5100000 		.4byte	.LLST69
 7620 1e9f 28       		.uleb128 0x28
 7621 1ea0 D1120000 		.4byte	.LASF384
 7622 1ea4 01       		.byte	0x1
 7623 1ea5 9504     		.2byte	0x495
 7624 1ea7 C3000000 		.4byte	0xc3
 7625 1eab 00110000 		.4byte	.LLST70
 7626 1eaf 31       		.uleb128 0x31
 7627 1eb0 61140000 		.4byte	0x1461
 7628 1eb4 10000000 		.4byte	.LBB45
 7629 1eb8 0A000000 		.4byte	.LBE45-.LBB45
 7630 1ebc 01       		.byte	0x1
 7631 1ebd 9804     		.2byte	0x498
 7632 1ebf 35       		.uleb128 0x35
 7633 1ec0 6E140000 		.4byte	0x146e
 7634 1ec4 4E000000 		.4byte	.LBB47
 7635 1ec8 14000000 		.4byte	.LBE47-.LBB47
 7636 1ecc 01       		.byte	0x1
 7637 1ecd A904     		.2byte	0x4a9
 7638 1ecf 36       		.uleb128 0x36
 7639 1ed0 7B140000 		.4byte	0x147b
 7640 1ed4 FE110000 		.4byte	.LLST71
 7641 1ed8 00       		.byte	0
 7642 1ed9 00       		.byte	0
 7643 1eda 29       		.uleb128 0x29
 7644 1edb E5030000 		.4byte	.LASF387
 7645 1edf 01       		.byte	0x1
 7646 1ee0 DE04     		.2byte	0x4de
 7647 1ee2 5E0F0000 		.4byte	0xf5e
 7648 1ee6 00000000 		.4byte	.LFB155
 7649 1eea 98010000 		.4byte	.LFE155-.LFB155
 7650 1eee 01       		.uleb128 0x1
 7651 1eef 9C       		.byte	0x9c
 7652 1ef0 53200000 		.4byte	0x2053
 7653 1ef4 2A       		.uleb128 0x2a
 7654 1ef5 A90E0000 		.4byte	.LASF388
 7655 1ef9 01       		.byte	0x1
 7656 1efa DE04     		.2byte	0x4de
 7657 1efc DB0F0000 		.4byte	0xfdb
 7658 1f00 11120000 		.4byte	.LLST72
 7659 1f04 2F       		.uleb128 0x2f
 7660 1f05 820F0000 		.4byte	.LASF389
 7661 1f09 01       		.byte	0x1
 7662 1f0a E104     		.2byte	0x4e1
 7663 1f0c AD000000 		.4byte	0xad
 7664 1f10 05       		.uleb128 0x5
 7665 1f11 03       		.byte	0x3
 7666 1f12 08000000 		.4byte	changedSourcePaths.11310
 7667 1f16 28       		.uleb128 0x28
ARM GAS  C:\Users\kiwamu\AppData\Local\Temp\ccIx7zyv.s 			page 201


 7668 1f17 43150000 		.4byte	.LASF329
 7669 1f1b 01       		.byte	0x1
 7670 1f1c E304     		.2byte	0x4e3
 7671 1f1e 5E0F0000 		.4byte	0xf5e
 7672 1f22 BA120000 		.4byte	.LLST73
 7673 1f26 22       		.uleb128 0x22
 7674 1f27 1E000000 		.4byte	.LBB49
 7675 1f2b 6A000000 		.4byte	.LBE49-.LBB49
 7676 1f2f 6D1F0000 		.4byte	0x1f6d
 7677 1f33 28       		.uleb128 0x28
 7678 1f34 94100000 		.4byte	.LASF390
 7679 1f38 01       		.byte	0x1
 7680 1f39 F104     		.2byte	0x4f1
 7681 1f3b C3000000 		.4byte	0xc3
 7682 1f3f 12130000 		.4byte	.LLST74
 7683 1f43 2C       		.uleb128 0x2c
 7684 1f44 50000000 		.4byte	.LVL384
 7685 1f48 C0160000 		.4byte	0x16c0
 7686 1f4c 571F0000 		.4byte	0x1f57
 7687 1f50 27       		.uleb128 0x27
 7688 1f51 01       		.uleb128 0x1
 7689 1f52 50       		.byte	0x50
 7690 1f53 02       		.uleb128 0x2
 7691 1f54 74       		.byte	0x74
 7692 1f55 00       		.sleb128 0
 7693 1f56 00       		.byte	0
 7694 1f57 26       		.uleb128 0x26
 7695 1f58 5C000000 		.4byte	.LVL385
 7696 1f5c 79160000 		.4byte	0x1679
 7697 1f60 27       		.uleb128 0x27
 7698 1f61 01       		.uleb128 0x1
 7699 1f62 50       		.byte	0x50
 7700 1f63 02       		.uleb128 0x2
 7701 1f64 74       		.byte	0x74
 7702 1f65 00       		.sleb128 0
 7703 1f66 27       		.uleb128 0x27
 7704 1f67 01       		.uleb128 0x1
 7705 1f68 51       		.byte	0x51
 7706 1f69 01       		.uleb128 0x1
 7707 1f6a 30       		.byte	0x30
 7708 1f6b 00       		.byte	0
 7709 1f6c 00       		.byte	0
 7710 1f6d 32       		.uleb128 0x32
 7711 1f6e 30000000 		.4byte	.Ldebug_ranges0+0x30
 7712 1f72 38200000 		.4byte	0x2038
 7713 1f76 28       		.uleb128 0x28
 7714 1f77 64160000 		.4byte	.LASF391
 7715 1f7b 01       		.byte	0x1
 7716 1f7c 1505     		.2byte	0x515
 7717 1f7e C3000000 		.4byte	0xc3
 7718 1f82 31130000 		.4byte	.LLST75
 7719 1f86 37       		.uleb128 0x37
 7720 1f87 88140000 		.4byte	0x1488
 7721 1f8b A6000000 		.4byte	.LBB51
 7722 1f8f 48000000 		.4byte	.Ldebug_ranges0+0x48
 7723 1f93 01       		.byte	0x1
 7724 1f94 1705     		.2byte	0x517
ARM GAS  C:\Users\kiwamu\AppData\Local\Temp\ccIx7zyv.s 			page 202


 7725 1f96 AA1F0000 		.4byte	0x1faa
 7726 1f9a 21       		.uleb128 0x21
 7727 1f9b 48000000 		.4byte	.Ldebug_ranges0+0x48
 7728 1f9f 38       		.uleb128 0x38
 7729 1fa0 99140000 		.4byte	0x1499
 7730 1fa4 5A130000 		.4byte	.LLST76
 7731 1fa8 00       		.byte	0
 7732 1fa9 00       		.byte	0
 7733 1faa 21       		.uleb128 0x21
 7734 1fab 60000000 		.4byte	.Ldebug_ranges0+0x60
 7735 1faf 28       		.uleb128 0x28
 7736 1fb0 94100000 		.4byte	.LASF390
 7737 1fb4 01       		.byte	0x1
 7738 1fb5 1F05     		.2byte	0x51f
 7739 1fb7 C3000000 		.4byte	0xc3
 7740 1fbb 6D130000 		.4byte	.LLST77
 7741 1fbf 22       		.uleb128 0x22
 7742 1fc0 04010000 		.4byte	.LBB55
 7743 1fc4 3E000000 		.4byte	.LBE55-.LBB55
 7744 1fc8 21200000 		.4byte	0x2021
 7745 1fcc 28       		.uleb128 0x28
 7746 1fcd 3F170000 		.4byte	.LASF392
 7747 1fd1 01       		.byte	0x1
 7748 1fd2 2E05     		.2byte	0x52e
 7749 1fd4 C3000000 		.4byte	0xc3
 7750 1fd8 80130000 		.4byte	.LLST78
 7751 1fdc 31       		.uleb128 0x31
 7752 1fdd A6140000 		.4byte	0x14a6
 7753 1fe1 08010000 		.4byte	.LBB56
 7754 1fe5 0C000000 		.4byte	.LBE56-.LBB56
 7755 1fe9 01       		.byte	0x1
 7756 1fea 3105     		.2byte	0x531
 7757 1fec 35       		.uleb128 0x35
 7758 1fed B3140000 		.4byte	0x14b3
 7759 1ff1 16010000 		.4byte	.LBB58
 7760 1ff5 1C000000 		.4byte	.LBE58-.LBB58
 7761 1ff9 01       		.byte	0x1
 7762 1ffa 3105     		.2byte	0x531
 7763 1ffc 36       		.uleb128 0x36
 7764 1ffd C4140000 		.4byte	0x14c4
 7765 2001 93130000 		.4byte	.LLST79
 7766 2005 26       		.uleb128 0x26
 7767 2006 22010000 		.4byte	.LVL401
 7768 200a E5240000 		.4byte	0x24e5
 7769 200e 27       		.uleb128 0x27
 7770 200f 01       		.uleb128 0x1
 7771 2010 50       		.byte	0x50
 7772 2011 05       		.uleb128 0x5
 7773 2012 03       		.byte	0x3
 7774 2013 44000000 		.4byte	.LC12
 7775 2017 27       		.uleb128 0x27
 7776 2018 01       		.uleb128 0x1
 7777 2019 51       		.byte	0x51
 7778 201a 03       		.uleb128 0x3
 7779 201b 0A       		.byte	0xa
 7780 201c 8903     		.2byte	0x389
 7781 201e 00       		.byte	0
ARM GAS  C:\Users\kiwamu\AppData\Local\Temp\ccIx7zyv.s 			page 203


 7782 201f 00       		.byte	0
 7783 2020 00       		.byte	0
 7784 2021 26       		.uleb128 0x26
 7785 2022 00010000 		.4byte	.LVL398
 7786 2026 79160000 		.4byte	0x1679
 7787 202a 27       		.uleb128 0x27
 7788 202b 01       		.uleb128 0x1
 7789 202c 50       		.byte	0x50
 7790 202d 02       		.uleb128 0x2
 7791 202e 75       		.byte	0x75
 7792 202f 00       		.sleb128 0
 7793 2030 27       		.uleb128 0x27
 7794 2031 01       		.uleb128 0x1
 7795 2032 51       		.byte	0x51
 7796 2033 01       		.uleb128 0x1
 7797 2034 32       		.byte	0x32
 7798 2035 00       		.byte	0
 7799 2036 00       		.byte	0
 7800 2037 00       		.byte	0
 7801 2038 26       		.uleb128 0x26
 7802 2039 0E000000 		.4byte	.LVL380
 7803 203d E5240000 		.4byte	0x24e5
 7804 2041 27       		.uleb128 0x27
 7805 2042 01       		.uleb128 0x1
 7806 2043 50       		.byte	0x50
 7807 2044 05       		.uleb128 0x5
 7808 2045 03       		.byte	0x3
 7809 2046 00000000 		.4byte	.LC3
 7810 204a 27       		.uleb128 0x27
 7811 204b 01       		.uleb128 0x1
 7812 204c 51       		.byte	0x51
 7813 204d 03       		.uleb128 0x3
 7814 204e 0A       		.byte	0xa
 7815 204f E504     		.2byte	0x4e5
 7816 2051 00       		.byte	0
 7817 2052 00       		.byte	0
 7818 2053 1B       		.uleb128 0x1b
 7819 2054 D9020000 		.4byte	.LASF393
 7820 2058 02       		.byte	0x2
 7821 2059 EC06     		.2byte	0x6ec
 7822 205b C3000000 		.4byte	0xc3
 7823 205f 03       		.byte	0x3
 7824 2060 89200000 		.4byte	0x2089
 7825 2064 1A       		.uleb128 0x1a
 7826 2065 250C0000 		.4byte	.LASF394
 7827 2069 02       		.byte	0x2
 7828 206a EC06     		.2byte	0x6ec
 7829 206c 48140000 		.4byte	0x1448
 7830 2070 1A       		.uleb128 0x1a
 7831 2071 80010000 		.4byte	.LASF395
 7832 2075 02       		.byte	0x2
 7833 2076 EC06     		.2byte	0x6ec
 7834 2078 C3000000 		.4byte	0xc3
 7835 207c 1C       		.uleb128 0x1c
 7836 207d F70D0000 		.4byte	.LASF344
 7837 2081 02       		.byte	0x2
 7838 2082 EE06     		.2byte	0x6ee
ARM GAS  C:\Users\kiwamu\AppData\Local\Temp\ccIx7zyv.s 			page 204


 7839 2084 C3000000 		.4byte	0xc3
 7840 2088 00       		.byte	0
 7841 2089 19       		.uleb128 0x19
 7842 208a 57000000 		.4byte	.LASF397
 7843 208e 02       		.byte	0x2
 7844 208f 4807     		.2byte	0x748
 7845 2091 03       		.byte	0x3
 7846 2092 C7200000 		.4byte	0x20c7
 7847 2096 1A       		.uleb128 0x1a
 7848 2097 250C0000 		.4byte	.LASF394
 7849 209b 02       		.byte	0x2
 7850 209c 4807     		.2byte	0x748
 7851 209e 48140000 		.4byte	0x1448
 7852 20a2 1A       		.uleb128 0x1a
 7853 20a3 80010000 		.4byte	.LASF395
 7854 20a7 02       		.byte	0x2
 7855 20a8 4807     		.2byte	0x748
 7856 20aa C3000000 		.4byte	0xc3
 7857 20ae 1A       		.uleb128 0x1a
 7858 20af AA0A0000 		.4byte	.LASF398
 7859 20b3 02       		.byte	0x2
 7860 20b4 4907     		.2byte	0x749
 7861 20b6 C7200000 		.4byte	0x20c7
 7862 20ba 1A       		.uleb128 0x1a
 7863 20bb 63030000 		.4byte	.LASF399
 7864 20bf 02       		.byte	0x2
 7865 20c0 4907     		.2byte	0x749
 7866 20c2 C7200000 		.4byte	0x20c7
 7867 20c6 00       		.byte	0
 7868 20c7 16       		.uleb128 0x16
 7869 20c8 04       		.byte	0x4
 7870 20c9 C3000000 		.4byte	0xc3
 7871 20cd 2D       		.uleb128 0x2d
 7872 20ce 2E1A0000 		.4byte	.LASF400
 7873 20d2 01       		.byte	0x1
 7874 20d3 C905     		.2byte	0x5c9
 7875 20d5 C3000000 		.4byte	0xc3
 7876 20d9 00000000 		.4byte	.LFB156
 7877 20dd BC020000 		.4byte	.LFE156-.LFB156
 7878 20e1 01       		.uleb128 0x1
 7879 20e2 9C       		.byte	0x9c
 7880 20e3 98240000 		.4byte	0x2498
 7881 20e7 2A       		.uleb128 0x2a
 7882 20e8 250C0000 		.4byte	.LASF394
 7883 20ec 01       		.byte	0x1
 7884 20ed C905     		.2byte	0x5c9
 7885 20ef 48140000 		.4byte	0x1448
 7886 20f3 A6130000 		.4byte	.LLST80
 7887 20f7 2A       		.uleb128 0x2a
 7888 20f8 80010000 		.4byte	.LASF395
 7889 20fc 01       		.byte	0x1
 7890 20fd C905     		.2byte	0x5c9
 7891 20ff C3000000 		.4byte	0xc3
 7892 2103 C7130000 		.4byte	.LLST81
 7893 2107 28       		.uleb128 0x28
 7894 2108 43150000 		.4byte	.LASF329
 7895 210c 01       		.byte	0x1
ARM GAS  C:\Users\kiwamu\AppData\Local\Temp\ccIx7zyv.s 			page 205


 7896 210d CB05     		.2byte	0x5cb
 7897 210f C3000000 		.4byte	0xc3
 7898 2113 8F140000 		.4byte	.LLST82
 7899 2117 39       		.uleb128 0x39
 7900 2118 14       		.byte	0x14
 7901 2119 01       		.byte	0x1
 7902 211a D305     		.2byte	0x5d3
 7903 211c 39210000 		.4byte	0x2139
 7904 2120 3A       		.uleb128 0x3a
 7905 2121 666C6C00 		.ascii	"fll\000"
 7906 2125 01       		.byte	0x1
 7907 2126 D505     		.2byte	0x5d5
 7908 2128 74110000 		.4byte	0x1174
 7909 212c 3A       		.uleb128 0x3a
 7910 212d 706C6C00 		.ascii	"pll\000"
 7911 2131 01       		.byte	0x1
 7912 2132 DB05     		.2byte	0x5db
 7913 2134 39210000 		.4byte	0x2139
 7914 2138 00       		.byte	0
 7915 2139 13       		.uleb128 0x13
 7916 213a 03       		.byte	0x3
 7917 213b 01       		.byte	0x1
 7918 213c D605     		.2byte	0x5d6
 7919 213e 6A210000 		.4byte	0x216a
 7920 2142 14       		.uleb128 0x14
 7921 2143 47190000 		.4byte	.LASF237
 7922 2147 01       		.byte	0x1
 7923 2148 D805     		.2byte	0x5d8
 7924 214a A2000000 		.4byte	0xa2
 7925 214e 00       		.byte	0
 7926 214f 14       		.uleb128 0x14
 7927 2150 6D170000 		.4byte	.LASF238
 7928 2154 01       		.byte	0x1
 7929 2155 D905     		.2byte	0x5d9
 7930 2157 A2000000 		.4byte	0xa2
 7931 215b 01       		.byte	0x1
 7932 215c 14       		.uleb128 0x14
 7933 215d 53090000 		.4byte	.LASF239
 7934 2161 01       		.byte	0x1
 7935 2162 DA05     		.2byte	0x5da
 7936 2164 A2000000 		.4byte	0xa2
 7937 2168 02       		.byte	0x2
 7938 2169 00       		.byte	0
 7939 216a 2F       		.uleb128 0x2f
 7940 216b 94100000 		.4byte	.LASF390
 7941 216f 01       		.byte	0x1
 7942 2170 DC05     		.2byte	0x5dc
 7943 2172 17210000 		.4byte	0x2117
 7944 2176 02       		.uleb128 0x2
 7945 2177 91       		.byte	0x91
 7946 2178 54       		.sleb128 -44
 7947 2179 28       		.uleb128 0x28
 7948 217a B7020000 		.4byte	.LASF190
 7949 217e 01       		.byte	0x1
 7950 217f DF05     		.2byte	0x5df
 7951 2181 9D100000 		.4byte	0x109d
 7952 2185 DB140000 		.4byte	.LLST83
ARM GAS  C:\Users\kiwamu\AppData\Local\Temp\ccIx7zyv.s 			page 206


 7953 2189 28       		.uleb128 0x28
 7954 218a 260D0000 		.4byte	.LASF401
 7955 218e 01       		.byte	0x1
 7956 218f E005     		.2byte	0x5e0
 7957 2191 6D110000 		.4byte	0x116d
 7958 2195 3E150000 		.4byte	.LLST84
 7959 2199 28       		.uleb128 0x28
 7960 219a F1130000 		.4byte	.LASF343
 7961 219e 01       		.byte	0x1
 7962 219f E105     		.2byte	0x5e1
 7963 21a1 6B100000 		.4byte	0x106b
 7964 21a5 8B150000 		.4byte	.LLST85
 7965 21a9 28       		.uleb128 0x28
 7966 21aa 01040000 		.4byte	.LASF402
 7967 21ae 01       		.byte	0x1
 7968 21af E205     		.2byte	0x5e2
 7969 21b1 C3000000 		.4byte	0xc3
 7970 21b5 D5150000 		.4byte	.LLST86
 7971 21b9 1C       		.uleb128 0x1c
 7972 21ba 980B0000 		.4byte	.LASF403
 7973 21be 01       		.byte	0x1
 7974 21bf E305     		.2byte	0x5e3
 7975 21c1 E4130000 		.4byte	0x13e4
 7976 21c5 28       		.uleb128 0x28
 7977 21c6 65130000 		.4byte	.LASF404
 7978 21ca 01       		.byte	0x1
 7979 21cb E405     		.2byte	0x5e4
 7980 21cd C3000000 		.4byte	0xc3
 7981 21d1 2B160000 		.4byte	.LLST87
 7982 21d5 28       		.uleb128 0x28
 7983 21d6 8D1A0000 		.4byte	.LASF405
 7984 21da 01       		.byte	0x1
 7985 21db E505     		.2byte	0x5e5
 7986 21dd C3000000 		.4byte	0xc3
 7987 21e1 A4160000 		.4byte	.LLST88
 7988 21e5 28       		.uleb128 0x28
 7989 21e6 84040000 		.4byte	.LASF406
 7990 21ea 01       		.byte	0x1
 7991 21eb E605     		.2byte	0x5e6
 7992 21ed C3000000 		.4byte	0xc3
 7993 21f1 D8160000 		.4byte	.LLST89
 7994 21f5 13       		.uleb128 0x13
 7995 21f6 08       		.byte	0x8
 7996 21f7 01       		.byte	0x1
 7997 21f8 E905     		.2byte	0x5e9
 7998 21fa 19220000 		.4byte	0x2219
 7999 21fe 14       		.uleb128 0x14
 8000 21ff 26010000 		.4byte	.LASF407
 8001 2203 01       		.byte	0x1
 8002 2204 EB05     		.2byte	0x5eb
 8003 2206 C3000000 		.4byte	0xc3
 8004 220a 00       		.byte	0
 8005 220b 14       		.uleb128 0x14
 8006 220c CD010000 		.4byte	.LASF408
 8007 2210 01       		.byte	0x1
 8008 2211 EC05     		.2byte	0x5ec
 8009 2213 C3000000 		.4byte	0xc3
ARM GAS  C:\Users\kiwamu\AppData\Local\Temp\ccIx7zyv.s 			page 207


 8010 2217 04       		.byte	0x4
 8011 2218 00       		.byte	0
 8012 2219 2F       		.uleb128 0x2f
 8013 221a 34040000 		.4byte	.LASF409
 8014 221e 01       		.byte	0x1
 8015 221f ED05     		.2byte	0x5ed
 8016 2221 F5210000 		.4byte	0x21f5
 8017 2225 02       		.uleb128 0x2
 8018 2226 91       		.byte	0x91
 8019 2227 4C       		.sleb128 -52
 8020 2228 3B       		.uleb128 0x3b
 8021 2229 D1140000 		.4byte	0x14d1
 8022 222d 46000000 		.4byte	.LBB78
 8023 2231 0C000000 		.4byte	.LBE78-.LBB78
 8024 2235 01       		.byte	0x1
 8025 2236 F005     		.2byte	0x5f0
 8026 2238 46220000 		.4byte	0x2246
 8027 223c 36       		.uleb128 0x36
 8028 223d E2140000 		.4byte	0x14e2
 8029 2241 EB160000 		.4byte	.LLST90
 8030 2245 00       		.byte	0
 8031 2246 31       		.uleb128 0x31
 8032 2247 A6140000 		.4byte	0x14a6
 8033 224b 6C000000 		.4byte	.LBB80
 8034 224f 0C000000 		.4byte	.LBE80-.LBB80
 8035 2253 01       		.byte	0x1
 8036 2254 F705     		.2byte	0x5f7
 8037 2256 22       		.uleb128 0x22
 8038 2257 7E000000 		.4byte	.LBB82
 8039 225b 40000000 		.4byte	.LBE82-.LBB82
 8040 225f D5220000 		.4byte	0x22d5
 8041 2263 2F       		.uleb128 0x2f
 8042 2264 88110000 		.4byte	.LASF347
 8043 2268 01       		.byte	0x1
 8044 2269 FB05     		.2byte	0x5fb
 8045 226b 15120000 		.4byte	0x1215
 8046 226f 02       		.uleb128 0x2
 8047 2270 91       		.byte	0x91
 8048 2271 44       		.sleb128 -60
 8049 2272 3B       		.uleb128 0x3b
 8050 2273 B3140000 		.4byte	0x14b3
 8051 2277 A2000000 		.4byte	.LBB83
 8052 227b 1C000000 		.4byte	.LBE83-.LBB83
 8053 227f 01       		.byte	0x1
 8054 2280 0206     		.2byte	0x602
 8055 2282 AA220000 		.4byte	0x22aa
 8056 2286 36       		.uleb128 0x36
 8057 2287 C4140000 		.4byte	0x14c4
 8058 228b FF160000 		.4byte	.LLST91
 8059 228f 26       		.uleb128 0x26
 8060 2290 AE000000 		.4byte	.LVL432
 8061 2294 E5240000 		.4byte	0x24e5
 8062 2298 27       		.uleb128 0x27
 8063 2299 01       		.uleb128 0x1
 8064 229a 50       		.byte	0x50
 8065 229b 05       		.uleb128 0x5
 8066 229c 03       		.byte	0x3
ARM GAS  C:\Users\kiwamu\AppData\Local\Temp\ccIx7zyv.s 			page 208


 8067 229d 44000000 		.4byte	.LC12
 8068 22a1 27       		.uleb128 0x27
 8069 22a2 01       		.uleb128 0x1
 8070 22a3 51       		.byte	0x51
 8071 22a4 03       		.uleb128 0x3
 8072 22a5 0A       		.byte	0xa
 8073 22a6 8903     		.2byte	0x389
 8074 22a8 00       		.byte	0
 8075 22a9 00       		.byte	0
 8076 22aa 2C       		.uleb128 0x2c
 8077 22ab 88000000 		.4byte	.LVL427
 8078 22af 7C1C0000 		.4byte	0x1c7c
 8079 22b3 C4220000 		.4byte	0x22c4
 8080 22b7 27       		.uleb128 0x27
 8081 22b8 01       		.uleb128 0x1
 8082 22b9 50       		.byte	0x50
 8083 22ba 02       		.uleb128 0x2
 8084 22bb 74       		.byte	0x74
 8085 22bc 00       		.sleb128 0
 8086 22bd 27       		.uleb128 0x27
 8087 22be 01       		.uleb128 0x1
 8088 22bf 51       		.byte	0x51
 8089 22c0 02       		.uleb128 0x2
 8090 22c1 75       		.byte	0x75
 8091 22c2 00       		.sleb128 0
 8092 22c3 00       		.byte	0
 8093 22c4 26       		.uleb128 0x26
 8094 22c5 A0000000 		.4byte	.LVL429
 8095 22c9 C0160000 		.4byte	0x16c0
 8096 22cd 27       		.uleb128 0x27
 8097 22ce 01       		.uleb128 0x1
 8098 22cf 50       		.byte	0x50
 8099 22d0 02       		.uleb128 0x2
 8100 22d1 74       		.byte	0x74
 8101 22d2 00       		.sleb128 0
 8102 22d3 00       		.byte	0
 8103 22d4 00       		.byte	0
 8104 22d5 3B       		.uleb128 0x3b
 8105 22d6 FC140000 		.4byte	0x14fc
 8106 22da 76010000 		.4byte	.LBB85
 8107 22de 0E000000 		.4byte	.LBE85-.LBB85
 8108 22e2 01       		.byte	0x1
 8109 22e3 4D06     		.2byte	0x64d
 8110 22e5 F3220000 		.4byte	0x22f3
 8111 22e9 36       		.uleb128 0x36
 8112 22ea 0D150000 		.4byte	0x150d
 8113 22ee 12170000 		.4byte	.LLST92
 8114 22f2 00       		.byte	0
 8115 22f3 31       		.uleb128 0x31
 8116 22f4 EF140000 		.4byte	0x14ef
 8117 22f8 8A010000 		.4byte	.LBB87
 8118 22fc 04000000 		.4byte	.LBE87-.LBB87
 8119 2300 01       		.byte	0x1
 8120 2301 5006     		.2byte	0x650
 8121 2303 3B       		.uleb128 0x3b
 8122 2304 53200000 		.4byte	0x2053
 8123 2308 9C010000 		.4byte	.LBB89
ARM GAS  C:\Users\kiwamu\AppData\Local\Temp\ccIx7zyv.s 			page 209


 8124 230c 54000000 		.4byte	.LBE89-.LBB89
 8125 2310 01       		.byte	0x1
 8126 2311 5706     		.2byte	0x657
 8127 2313 93230000 		.4byte	0x2393
 8128 2317 36       		.uleb128 0x36
 8129 2318 70200000 		.4byte	0x2070
 8130 231c 26170000 		.4byte	.LLST93
 8131 2320 36       		.uleb128 0x36
 8132 2321 64200000 		.4byte	0x2064
 8133 2325 7C170000 		.4byte	.LLST94
 8134 2329 2E       		.uleb128 0x2e
 8135 232a 9C010000 		.4byte	.LBB90
 8136 232e 54000000 		.4byte	.LBE90-.LBB90
 8137 2332 38       		.uleb128 0x38
 8138 2333 7C200000 		.4byte	0x207c
 8139 2337 8F170000 		.4byte	.LLST95
 8140 233b 2C       		.uleb128 0x2c
 8141 233c AA010000 		.4byte	.LVL468
 8142 2340 E5240000 		.4byte	0x24e5
 8143 2344 59230000 		.4byte	0x2359
 8144 2348 27       		.uleb128 0x27
 8145 2349 01       		.uleb128 0x1
 8146 234a 50       		.byte	0x50
 8147 234b 05       		.uleb128 0x5
 8148 234c 03       		.byte	0x3
 8149 234d 44000000 		.4byte	.LC12
 8150 2351 27       		.uleb128 0x27
 8151 2352 01       		.uleb128 0x1
 8152 2353 51       		.byte	0x51
 8153 2354 03       		.uleb128 0x3
 8154 2355 0A       		.byte	0xa
 8155 2356 F006     		.2byte	0x6f0
 8156 2358 00       		.byte	0
 8157 2359 2C       		.uleb128 0x2c
 8158 235a BA010000 		.4byte	.LVL469
 8159 235e E5240000 		.4byte	0x24e5
 8160 2362 77230000 		.4byte	0x2377
 8161 2366 27       		.uleb128 0x27
 8162 2367 01       		.uleb128 0x1
 8163 2368 50       		.byte	0x50
 8164 2369 05       		.uleb128 0x5
 8165 236a 03       		.byte	0x3
 8166 236b 44000000 		.4byte	.LC12
 8167 236f 27       		.uleb128 0x27
 8168 2370 01       		.uleb128 0x1
 8169 2371 51       		.byte	0x51
 8170 2372 03       		.uleb128 0x3
 8171 2373 0A       		.byte	0xa
 8172 2374 F406     		.2byte	0x6f4
 8173 2376 00       		.byte	0
 8174 2377 26       		.uleb128 0x26
 8175 2378 DC010000 		.4byte	.LVL474
 8176 237c E5240000 		.4byte	0x24e5
 8177 2380 27       		.uleb128 0x27
 8178 2381 01       		.uleb128 0x1
 8179 2382 50       		.byte	0x50
 8180 2383 05       		.uleb128 0x5
ARM GAS  C:\Users\kiwamu\AppData\Local\Temp\ccIx7zyv.s 			page 210


 8181 2384 03       		.byte	0x3
 8182 2385 44000000 		.4byte	.LC12
 8183 2389 27       		.uleb128 0x27
 8184 238a 01       		.uleb128 0x1
 8185 238b 51       		.byte	0x51
 8186 238c 03       		.uleb128 0x3
 8187 238d 0A       		.byte	0xa
 8188 238e F906     		.2byte	0x6f9
 8189 2390 00       		.byte	0
 8190 2391 00       		.byte	0
 8191 2392 00       		.byte	0
 8192 2393 3B       		.uleb128 0x3b
 8193 2394 89200000 		.4byte	0x2089
 8194 2398 F4010000 		.4byte	.LBB91
 8195 239c 6C000000 		.4byte	.LBE91-.LBB91
 8196 23a0 01       		.byte	0x1
 8197 23a1 5C06     		.2byte	0x65c
 8198 23a3 22240000 		.4byte	0x2422
 8199 23a7 36       		.uleb128 0x36
 8200 23a8 BA200000 		.4byte	0x20ba
 8201 23ac A2170000 		.4byte	.LLST96
 8202 23b0 36       		.uleb128 0x36
 8203 23b1 AE200000 		.4byte	0x20ae
 8204 23b5 B7170000 		.4byte	.LLST97
 8205 23b9 36       		.uleb128 0x36
 8206 23ba A2200000 		.4byte	0x20a2
 8207 23be CC170000 		.4byte	.LLST98
 8208 23c2 36       		.uleb128 0x36
 8209 23c3 96200000 		.4byte	0x2096
 8210 23c7 22180000 		.4byte	.LLST99
 8211 23cb 2C       		.uleb128 0x2c
 8212 23cc 04020000 		.4byte	.LVL479
 8213 23d0 E5240000 		.4byte	0x24e5
 8214 23d4 E9230000 		.4byte	0x23e9
 8215 23d8 27       		.uleb128 0x27
 8216 23d9 01       		.uleb128 0x1
 8217 23da 50       		.byte	0x50
 8218 23db 05       		.uleb128 0x5
 8219 23dc 03       		.byte	0x3
 8220 23dd 44000000 		.4byte	.LC12
 8221 23e1 27       		.uleb128 0x27
 8222 23e2 01       		.uleb128 0x1
 8223 23e3 51       		.byte	0x51
 8224 23e4 03       		.uleb128 0x3
 8225 23e5 0A       		.byte	0xa
 8226 23e6 4C07     		.2byte	0x74c
 8227 23e8 00       		.byte	0
 8228 23e9 2C       		.uleb128 0x2c
 8229 23ea 16020000 		.4byte	.LVL480
 8230 23ee E5240000 		.4byte	0x24e5
 8231 23f2 07240000 		.4byte	0x2407
 8232 23f6 27       		.uleb128 0x27
 8233 23f7 01       		.uleb128 0x1
 8234 23f8 50       		.byte	0x50
 8235 23f9 05       		.uleb128 0x5
 8236 23fa 03       		.byte	0x3
 8237 23fb 44000000 		.4byte	.LC12
ARM GAS  C:\Users\kiwamu\AppData\Local\Temp\ccIx7zyv.s 			page 211


 8238 23ff 27       		.uleb128 0x27
 8239 2400 01       		.uleb128 0x1
 8240 2401 51       		.byte	0x51
 8241 2402 03       		.uleb128 0x3
 8242 2403 0A       		.byte	0xa
 8243 2404 5007     		.2byte	0x750
 8244 2406 00       		.byte	0
 8245 2407 26       		.uleb128 0x26
 8246 2408 44020000 		.4byte	.LVL484
 8247 240c E5240000 		.4byte	0x24e5
 8248 2410 27       		.uleb128 0x27
 8249 2411 01       		.uleb128 0x1
 8250 2412 50       		.byte	0x50
 8251 2413 05       		.uleb128 0x5
 8252 2414 03       		.byte	0x3
 8253 2415 44000000 		.4byte	.LC12
 8254 2419 27       		.uleb128 0x27
 8255 241a 01       		.uleb128 0x1
 8256 241b 51       		.byte	0x51
 8257 241c 03       		.uleb128 0x3
 8258 241d 0A       		.byte	0xa
 8259 241e 5607     		.2byte	0x756
 8260 2420 00       		.byte	0
 8261 2421 00       		.byte	0
 8262 2422 2C       		.uleb128 0x2c
 8263 2423 36000000 		.4byte	.LVL417
 8264 2427 E5240000 		.4byte	0x24e5
 8265 242b 40240000 		.4byte	0x2440
 8266 242f 27       		.uleb128 0x27
 8267 2430 01       		.uleb128 0x1
 8268 2431 50       		.byte	0x50
 8269 2432 05       		.uleb128 0x5
 8270 2433 03       		.byte	0x3
 8271 2434 00000000 		.4byte	.LC3
 8272 2438 27       		.uleb128 0x27
 8273 2439 01       		.uleb128 0x1
 8274 243a 51       		.byte	0x51
 8275 243b 03       		.uleb128 0x3
 8276 243c 0A       		.byte	0xa
 8277 243d D005     		.2byte	0x5d0
 8278 243f 00       		.byte	0
 8279 2440 2C       		.uleb128 0x2c
 8280 2441 40000000 		.4byte	.LVL418
 8281 2445 22250000 		.4byte	0x2522
 8282 2449 5E240000 		.4byte	0x245e
 8283 244d 27       		.uleb128 0x27
 8284 244e 01       		.uleb128 0x1
 8285 244f 50       		.byte	0x50
 8286 2450 02       		.uleb128 0x2
 8287 2451 91       		.byte	0x91
 8288 2452 54       		.sleb128 -44
 8289 2453 27       		.uleb128 0x27
 8290 2454 01       		.uleb128 0x1
 8291 2455 51       		.byte	0x51
 8292 2456 01       		.uleb128 0x1
 8293 2457 30       		.byte	0x30
 8294 2458 27       		.uleb128 0x27
ARM GAS  C:\Users\kiwamu\AppData\Local\Temp\ccIx7zyv.s 			page 212


 8295 2459 01       		.uleb128 0x1
 8296 245a 52       		.byte	0x52
 8297 245b 01       		.uleb128 0x1
 8298 245c 44       		.byte	0x44
 8299 245d 00       		.byte	0
 8300 245e 2C       		.uleb128 0x2c
 8301 245f 5E000000 		.4byte	.LVL421
 8302 2463 591A0000 		.4byte	0x1a59
 8303 2467 72240000 		.4byte	0x2472
 8304 246b 27       		.uleb128 0x27
 8305 246c 01       		.uleb128 0x1
 8306 246d 50       		.byte	0x50
 8307 246e 02       		.uleb128 0x2
 8308 246f 78       		.byte	0x78
 8309 2470 00       		.sleb128 0
 8310 2471 00       		.byte	0
 8311 2472 2C       		.uleb128 0x2c
 8312 2473 64000000 		.4byte	.LVL422
 8313 2477 C0160000 		.4byte	0x16c0
 8314 247b 87240000 		.4byte	0x2487
 8315 247f 27       		.uleb128 0x27
 8316 2480 01       		.uleb128 0x1
 8317 2481 50       		.byte	0x50
 8318 2482 03       		.uleb128 0x3
 8319 2483 91       		.byte	0x91
 8320 2484 4C       		.sleb128 -52
 8321 2485 06       		.byte	0x6
 8322 2486 00       		.byte	0
 8323 2487 26       		.uleb128 0x26
 8324 2488 C6000000 		.4byte	.LVL435
 8325 248c C0160000 		.4byte	0x16c0
 8326 2490 27       		.uleb128 0x27
 8327 2491 01       		.uleb128 0x1
 8328 2492 50       		.byte	0x50
 8329 2493 02       		.uleb128 0x2
 8330 2494 74       		.byte	0x74
 8331 2495 00       		.sleb128 0
 8332 2496 00       		.byte	0
 8333 2497 00       		.byte	0
 8334 2498 2F       		.uleb128 0x2f
 8335 2499 4B0E0000 		.4byte	.LASF410
 8336 249d 01       		.byte	0x1
 8337 249e 8803     		.2byte	0x388
 8338 24a0 C3000000 		.4byte	0xc3
 8339 24a4 05       		.uleb128 0x5
 8340 24a5 03       		.byte	0x3
 8341 24a6 04000000 		.4byte	clk1Count1
 8342 24aa 2F       		.uleb128 0x2f
 8343 24ab 510D0000 		.4byte	.LASF411
 8344 24af 01       		.byte	0x1
 8345 24b0 8C03     		.2byte	0x38c
 8346 24b2 6D110000 		.4byte	0x116d
 8347 24b6 05       		.uleb128 0x5
 8348 24b7 03       		.byte	0x3
 8349 24b8 01000000 		.4byte	clkCounting
 8350 24bc 2F       		.uleb128 0x2f
 8351 24bd E00E0000 		.4byte	.LASF412
ARM GAS  C:\Users\kiwamu\AppData\Local\Temp\ccIx7zyv.s 			page 213


 8352 24c1 01       		.byte	0x1
 8353 24c2 8D03     		.2byte	0x38d
 8354 24c4 6D110000 		.4byte	0x116d
 8355 24c8 05       		.uleb128 0x5
 8356 24c9 03       		.byte	0x3
 8357 24ca 00000000 		.4byte	preventCounting
 8358 24ce 3C       		.uleb128 0x3c
 8359 24cf 21050000 		.4byte	.LASF413
 8360 24d3 21050000 		.4byte	.LASF413
 8361 24d7 0A       		.byte	0xa
 8362 24d8 87       		.byte	0x87
 8363 24d9 3D       		.uleb128 0x3d
 8364 24da B8150000 		.4byte	.LASF414
 8365 24de B8150000 		.4byte	.LASF414
 8366 24e2 08       		.byte	0x8
 8367 24e3 0203     		.2byte	0x302
 8368 24e5 3D       		.uleb128 0x3d
 8369 24e6 9D0B0000 		.4byte	.LASF415
 8370 24ea 9D0B0000 		.4byte	.LASF415
 8371 24ee 08       		.byte	0x8
 8372 24ef 0A03     		.2byte	0x30a
 8373 24f1 3D       		.uleb128 0x3d
 8374 24f2 7C0F0000 		.4byte	.LASF416
 8375 24f6 7C0F0000 		.4byte	.LASF416
 8376 24fa 0A       		.byte	0xa
 8377 24fb 7601     		.2byte	0x176
 8378 24fd 3E       		.uleb128 0x3e
 8379 24fe 6C6F6700 		.ascii	"log\000"
 8380 2502 6C6F6700 		.ascii	"log\000"
 8381 2506 0A       		.byte	0xa
 8382 2507 84       		.byte	0x84
 8383 2508 3C       		.uleb128 0x3c
 8384 2509 A9020000 		.4byte	.LASF417
 8385 250d A9020000 		.4byte	.LASF417
 8386 2511 0A       		.byte	0xa
 8387 2512 76       		.byte	0x76
 8388 2513 3F       		.uleb128 0x3f
 8389 2514 7C0F0000 		.4byte	.LASF416
 8390 2518 7E130000 		.4byte	.LASF422
 8391 251c 0B       		.byte	0xb
 8392 251d 00       		.byte	0
 8393 251e 7C0F0000 		.4byte	.LASF416
 8394 2522 40       		.uleb128 0x40
 8395 2523 540F0000 		.4byte	.LASF423
 8396 2527 540F0000 		.4byte	.LASF423
 8397 252b 00       		.byte	0
 8398              		.section	.debug_abbrev,"",%progbits
 8399              	.Ldebug_abbrev0:
 8400 0000 01       		.uleb128 0x1
 8401 0001 11       		.uleb128 0x11
 8402 0002 01       		.byte	0x1
 8403 0003 25       		.uleb128 0x25
 8404 0004 0E       		.uleb128 0xe
 8405 0005 13       		.uleb128 0x13
 8406 0006 0B       		.uleb128 0xb
 8407 0007 03       		.uleb128 0x3
 8408 0008 0E       		.uleb128 0xe
ARM GAS  C:\Users\kiwamu\AppData\Local\Temp\ccIx7zyv.s 			page 214


 8409 0009 1B       		.uleb128 0x1b
 8410 000a 0E       		.uleb128 0xe
 8411 000b 55       		.uleb128 0x55
 8412 000c 17       		.uleb128 0x17
 8413 000d 11       		.uleb128 0x11
 8414 000e 01       		.uleb128 0x1
 8415 000f 10       		.uleb128 0x10
 8416 0010 17       		.uleb128 0x17
 8417 0011 00       		.byte	0
 8418 0012 00       		.byte	0
 8419 0013 02       		.uleb128 0x2
 8420 0014 24       		.uleb128 0x24
 8421 0015 00       		.byte	0
 8422 0016 0B       		.uleb128 0xb
 8423 0017 0B       		.uleb128 0xb
 8424 0018 3E       		.uleb128 0x3e
 8425 0019 0B       		.uleb128 0xb
 8426 001a 03       		.uleb128 0x3
 8427 001b 0E       		.uleb128 0xe
 8428 001c 00       		.byte	0
 8429 001d 00       		.byte	0
 8430 001e 03       		.uleb128 0x3
 8431 001f 16       		.uleb128 0x16
 8432 0020 00       		.byte	0
 8433 0021 03       		.uleb128 0x3
 8434 0022 0E       		.uleb128 0xe
 8435 0023 3A       		.uleb128 0x3a
 8436 0024 0B       		.uleb128 0xb
 8437 0025 3B       		.uleb128 0x3b
 8438 0026 0B       		.uleb128 0xb
 8439 0027 49       		.uleb128 0x49
 8440 0028 13       		.uleb128 0x13
 8441 0029 00       		.byte	0
 8442 002a 00       		.byte	0
 8443 002b 04       		.uleb128 0x4
 8444 002c 24       		.uleb128 0x24
 8445 002d 00       		.byte	0
 8446 002e 0B       		.uleb128 0xb
 8447 002f 0B       		.uleb128 0xb
 8448 0030 3E       		.uleb128 0x3e
 8449 0031 0B       		.uleb128 0xb
 8450 0032 03       		.uleb128 0x3
 8451 0033 08       		.uleb128 0x8
 8452 0034 00       		.byte	0
 8453 0035 00       		.byte	0
 8454 0036 05       		.uleb128 0x5
 8455 0037 35       		.uleb128 0x35
 8456 0038 00       		.byte	0
 8457 0039 49       		.uleb128 0x49
 8458 003a 13       		.uleb128 0x13
 8459 003b 00       		.byte	0
 8460 003c 00       		.byte	0
 8461 003d 06       		.uleb128 0x6
 8462 003e 26       		.uleb128 0x26
 8463 003f 00       		.byte	0
 8464 0040 49       		.uleb128 0x49
 8465 0041 13       		.uleb128 0x13
ARM GAS  C:\Users\kiwamu\AppData\Local\Temp\ccIx7zyv.s 			page 215


 8466 0042 00       		.byte	0
 8467 0043 00       		.byte	0
 8468 0044 07       		.uleb128 0x7
 8469 0045 01       		.uleb128 0x1
 8470 0046 01       		.byte	0x1
 8471 0047 49       		.uleb128 0x49
 8472 0048 13       		.uleb128 0x13
 8473 0049 01       		.uleb128 0x1
 8474 004a 13       		.uleb128 0x13
 8475 004b 00       		.byte	0
 8476 004c 00       		.byte	0
 8477 004d 08       		.uleb128 0x8
 8478 004e 21       		.uleb128 0x21
 8479 004f 00       		.byte	0
 8480 0050 49       		.uleb128 0x49
 8481 0051 13       		.uleb128 0x13
 8482 0052 2F       		.uleb128 0x2f
 8483 0053 0B       		.uleb128 0xb
 8484 0054 00       		.byte	0
 8485 0055 00       		.byte	0
 8486 0056 09       		.uleb128 0x9
 8487 0057 13       		.uleb128 0x13
 8488 0058 01       		.byte	0x1
 8489 0059 0B       		.uleb128 0xb
 8490 005a 0B       		.uleb128 0xb
 8491 005b 3A       		.uleb128 0x3a
 8492 005c 0B       		.uleb128 0xb
 8493 005d 3B       		.uleb128 0x3b
 8494 005e 0B       		.uleb128 0xb
 8495 005f 01       		.uleb128 0x1
 8496 0060 13       		.uleb128 0x13
 8497 0061 00       		.byte	0
 8498 0062 00       		.byte	0
 8499 0063 0A       		.uleb128 0xa
 8500 0064 0D       		.uleb128 0xd
 8501 0065 00       		.byte	0
 8502 0066 03       		.uleb128 0x3
 8503 0067 0E       		.uleb128 0xe
 8504 0068 3A       		.uleb128 0x3a
 8505 0069 0B       		.uleb128 0xb
 8506 006a 3B       		.uleb128 0x3b
 8507 006b 0B       		.uleb128 0xb
 8508 006c 49       		.uleb128 0x49
 8509 006d 13       		.uleb128 0x13
 8510 006e 38       		.uleb128 0x38
 8511 006f 0B       		.uleb128 0xb
 8512 0070 00       		.byte	0
 8513 0071 00       		.byte	0
 8514 0072 0B       		.uleb128 0xb
 8515 0073 13       		.uleb128 0x13
 8516 0074 01       		.byte	0x1
 8517 0075 0B       		.uleb128 0xb
 8518 0076 05       		.uleb128 0x5
 8519 0077 3A       		.uleb128 0x3a
 8520 0078 0B       		.uleb128 0xb
 8521 0079 3B       		.uleb128 0x3b
 8522 007a 0B       		.uleb128 0xb
ARM GAS  C:\Users\kiwamu\AppData\Local\Temp\ccIx7zyv.s 			page 216


 8523 007b 01       		.uleb128 0x1
 8524 007c 13       		.uleb128 0x13
 8525 007d 00       		.byte	0
 8526 007e 00       		.byte	0
 8527 007f 0C       		.uleb128 0xc
 8528 0080 0D       		.uleb128 0xd
 8529 0081 00       		.byte	0
 8530 0082 03       		.uleb128 0x3
 8531 0083 08       		.uleb128 0x8
 8532 0084 3A       		.uleb128 0x3a
 8533 0085 0B       		.uleb128 0xb
 8534 0086 3B       		.uleb128 0x3b
 8535 0087 0B       		.uleb128 0xb
 8536 0088 49       		.uleb128 0x49
 8537 0089 13       		.uleb128 0x13
 8538 008a 38       		.uleb128 0x38
 8539 008b 0B       		.uleb128 0xb
 8540 008c 00       		.byte	0
 8541 008d 00       		.byte	0
 8542 008e 0D       		.uleb128 0xd
 8543 008f 0D       		.uleb128 0xd
 8544 0090 00       		.byte	0
 8545 0091 03       		.uleb128 0x3
 8546 0092 0E       		.uleb128 0xe
 8547 0093 3A       		.uleb128 0x3a
 8548 0094 0B       		.uleb128 0xb
 8549 0095 3B       		.uleb128 0x3b
 8550 0096 0B       		.uleb128 0xb
 8551 0097 49       		.uleb128 0x49
 8552 0098 13       		.uleb128 0x13
 8553 0099 38       		.uleb128 0x38
 8554 009a 05       		.uleb128 0x5
 8555 009b 00       		.byte	0
 8556 009c 00       		.byte	0
 8557 009d 0E       		.uleb128 0xe
 8558 009e 21       		.uleb128 0x21
 8559 009f 00       		.byte	0
 8560 00a0 49       		.uleb128 0x49
 8561 00a1 13       		.uleb128 0x13
 8562 00a2 2F       		.uleb128 0x2f
 8563 00a3 05       		.uleb128 0x5
 8564 00a4 00       		.byte	0
 8565 00a5 00       		.byte	0
 8566 00a6 0F       		.uleb128 0xf
 8567 00a7 16       		.uleb128 0x16
 8568 00a8 00       		.byte	0
 8569 00a9 03       		.uleb128 0x3
 8570 00aa 0E       		.uleb128 0xe
 8571 00ab 3A       		.uleb128 0x3a
 8572 00ac 0B       		.uleb128 0xb
 8573 00ad 3B       		.uleb128 0x3b
 8574 00ae 05       		.uleb128 0x5
 8575 00af 49       		.uleb128 0x49
 8576 00b0 13       		.uleb128 0x13
 8577 00b1 00       		.byte	0
 8578 00b2 00       		.byte	0
 8579 00b3 10       		.uleb128 0x10
ARM GAS  C:\Users\kiwamu\AppData\Local\Temp\ccIx7zyv.s 			page 217


 8580 00b4 04       		.uleb128 0x4
 8581 00b5 01       		.byte	0x1
 8582 00b6 0B       		.uleb128 0xb
 8583 00b7 0B       		.uleb128 0xb
 8584 00b8 49       		.uleb128 0x49
 8585 00b9 13       		.uleb128 0x13
 8586 00ba 3A       		.uleb128 0x3a
 8587 00bb 0B       		.uleb128 0xb
 8588 00bc 3B       		.uleb128 0x3b
 8589 00bd 05       		.uleb128 0x5
 8590 00be 01       		.uleb128 0x1
 8591 00bf 13       		.uleb128 0x13
 8592 00c0 00       		.byte	0
 8593 00c1 00       		.byte	0
 8594 00c2 11       		.uleb128 0x11
 8595 00c3 28       		.uleb128 0x28
 8596 00c4 00       		.byte	0
 8597 00c5 03       		.uleb128 0x3
 8598 00c6 0E       		.uleb128 0xe
 8599 00c7 1C       		.uleb128 0x1c
 8600 00c8 0B       		.uleb128 0xb
 8601 00c9 00       		.byte	0
 8602 00ca 00       		.byte	0
 8603 00cb 12       		.uleb128 0x12
 8604 00cc 28       		.uleb128 0x28
 8605 00cd 00       		.byte	0
 8606 00ce 03       		.uleb128 0x3
 8607 00cf 0E       		.uleb128 0xe
 8608 00d0 1C       		.uleb128 0x1c
 8609 00d1 06       		.uleb128 0x6
 8610 00d2 00       		.byte	0
 8611 00d3 00       		.byte	0
 8612 00d4 13       		.uleb128 0x13
 8613 00d5 13       		.uleb128 0x13
 8614 00d6 01       		.byte	0x1
 8615 00d7 0B       		.uleb128 0xb
 8616 00d8 0B       		.uleb128 0xb
 8617 00d9 3A       		.uleb128 0x3a
 8618 00da 0B       		.uleb128 0xb
 8619 00db 3B       		.uleb128 0x3b
 8620 00dc 05       		.uleb128 0x5
 8621 00dd 01       		.uleb128 0x1
 8622 00de 13       		.uleb128 0x13
 8623 00df 00       		.byte	0
 8624 00e0 00       		.byte	0
 8625 00e1 14       		.uleb128 0x14
 8626 00e2 0D       		.uleb128 0xd
 8627 00e3 00       		.byte	0
 8628 00e4 03       		.uleb128 0x3
 8629 00e5 0E       		.uleb128 0xe
 8630 00e6 3A       		.uleb128 0x3a
 8631 00e7 0B       		.uleb128 0xb
 8632 00e8 3B       		.uleb128 0x3b
 8633 00e9 05       		.uleb128 0x5
 8634 00ea 49       		.uleb128 0x49
 8635 00eb 13       		.uleb128 0x13
 8636 00ec 38       		.uleb128 0x38
ARM GAS  C:\Users\kiwamu\AppData\Local\Temp\ccIx7zyv.s 			page 218


 8637 00ed 0B       		.uleb128 0xb
 8638 00ee 00       		.byte	0
 8639 00ef 00       		.byte	0
 8640 00f0 15       		.uleb128 0x15
 8641 00f1 0F       		.uleb128 0xf
 8642 00f2 00       		.byte	0
 8643 00f3 0B       		.uleb128 0xb
 8644 00f4 0B       		.uleb128 0xb
 8645 00f5 00       		.byte	0
 8646 00f6 00       		.byte	0
 8647 00f7 16       		.uleb128 0x16
 8648 00f8 0F       		.uleb128 0xf
 8649 00f9 00       		.byte	0
 8650 00fa 0B       		.uleb128 0xb
 8651 00fb 0B       		.uleb128 0xb
 8652 00fc 49       		.uleb128 0x49
 8653 00fd 13       		.uleb128 0x13
 8654 00fe 00       		.byte	0
 8655 00ff 00       		.byte	0
 8656 0100 17       		.uleb128 0x17
 8657 0101 28       		.uleb128 0x28
 8658 0102 00       		.byte	0
 8659 0103 03       		.uleb128 0x3
 8660 0104 0E       		.uleb128 0xe
 8661 0105 1C       		.uleb128 0x1c
 8662 0106 05       		.uleb128 0x5
 8663 0107 00       		.byte	0
 8664 0108 00       		.byte	0
 8665 0109 18       		.uleb128 0x18
 8666 010a 2E       		.uleb128 0x2e
 8667 010b 00       		.byte	0
 8668 010c 03       		.uleb128 0x3
 8669 010d 0E       		.uleb128 0xe
 8670 010e 3A       		.uleb128 0x3a
 8671 010f 0B       		.uleb128 0xb
 8672 0110 3B       		.uleb128 0x3b
 8673 0111 05       		.uleb128 0x5
 8674 0112 27       		.uleb128 0x27
 8675 0113 19       		.uleb128 0x19
 8676 0114 49       		.uleb128 0x49
 8677 0115 13       		.uleb128 0x13
 8678 0116 20       		.uleb128 0x20
 8679 0117 0B       		.uleb128 0xb
 8680 0118 00       		.byte	0
 8681 0119 00       		.byte	0
 8682 011a 19       		.uleb128 0x19
 8683 011b 2E       		.uleb128 0x2e
 8684 011c 01       		.byte	0x1
 8685 011d 03       		.uleb128 0x3
 8686 011e 0E       		.uleb128 0xe
 8687 011f 3A       		.uleb128 0x3a
 8688 0120 0B       		.uleb128 0xb
 8689 0121 3B       		.uleb128 0x3b
 8690 0122 05       		.uleb128 0x5
 8691 0123 27       		.uleb128 0x27
 8692 0124 19       		.uleb128 0x19
 8693 0125 20       		.uleb128 0x20
ARM GAS  C:\Users\kiwamu\AppData\Local\Temp\ccIx7zyv.s 			page 219


 8694 0126 0B       		.uleb128 0xb
 8695 0127 01       		.uleb128 0x1
 8696 0128 13       		.uleb128 0x13
 8697 0129 00       		.byte	0
 8698 012a 00       		.byte	0
 8699 012b 1A       		.uleb128 0x1a
 8700 012c 05       		.uleb128 0x5
 8701 012d 00       		.byte	0
 8702 012e 03       		.uleb128 0x3
 8703 012f 0E       		.uleb128 0xe
 8704 0130 3A       		.uleb128 0x3a
 8705 0131 0B       		.uleb128 0xb
 8706 0132 3B       		.uleb128 0x3b
 8707 0133 05       		.uleb128 0x5
 8708 0134 49       		.uleb128 0x49
 8709 0135 13       		.uleb128 0x13
 8710 0136 00       		.byte	0
 8711 0137 00       		.byte	0
 8712 0138 1B       		.uleb128 0x1b
 8713 0139 2E       		.uleb128 0x2e
 8714 013a 01       		.byte	0x1
 8715 013b 03       		.uleb128 0x3
 8716 013c 0E       		.uleb128 0xe
 8717 013d 3A       		.uleb128 0x3a
 8718 013e 0B       		.uleb128 0xb
 8719 013f 3B       		.uleb128 0x3b
 8720 0140 05       		.uleb128 0x5
 8721 0141 27       		.uleb128 0x27
 8722 0142 19       		.uleb128 0x19
 8723 0143 49       		.uleb128 0x49
 8724 0144 13       		.uleb128 0x13
 8725 0145 20       		.uleb128 0x20
 8726 0146 0B       		.uleb128 0xb
 8727 0147 01       		.uleb128 0x1
 8728 0148 13       		.uleb128 0x13
 8729 0149 00       		.byte	0
 8730 014a 00       		.byte	0
 8731 014b 1C       		.uleb128 0x1c
 8732 014c 34       		.uleb128 0x34
 8733 014d 00       		.byte	0
 8734 014e 03       		.uleb128 0x3
 8735 014f 0E       		.uleb128 0xe
 8736 0150 3A       		.uleb128 0x3a
 8737 0151 0B       		.uleb128 0xb
 8738 0152 3B       		.uleb128 0x3b
 8739 0153 05       		.uleb128 0x5
 8740 0154 49       		.uleb128 0x49
 8741 0155 13       		.uleb128 0x13
 8742 0156 00       		.byte	0
 8743 0157 00       		.byte	0
 8744 0158 1D       		.uleb128 0x1d
 8745 0159 2E       		.uleb128 0x2e
 8746 015a 01       		.byte	0x1
 8747 015b 3F       		.uleb128 0x3f
 8748 015c 19       		.uleb128 0x19
 8749 015d 03       		.uleb128 0x3
 8750 015e 0E       		.uleb128 0xe
ARM GAS  C:\Users\kiwamu\AppData\Local\Temp\ccIx7zyv.s 			page 220


 8751 015f 3A       		.uleb128 0x3a
 8752 0160 0B       		.uleb128 0xb
 8753 0161 3B       		.uleb128 0x3b
 8754 0162 0B       		.uleb128 0xb
 8755 0163 27       		.uleb128 0x27
 8756 0164 19       		.uleb128 0x19
 8757 0165 49       		.uleb128 0x49
 8758 0166 13       		.uleb128 0x13
 8759 0167 11       		.uleb128 0x11
 8760 0168 01       		.uleb128 0x1
 8761 0169 12       		.uleb128 0x12
 8762 016a 06       		.uleb128 0x6
 8763 016b 40       		.uleb128 0x40
 8764 016c 18       		.uleb128 0x18
 8765 016d 9642     		.uleb128 0x2116
 8766 016f 19       		.uleb128 0x19
 8767 0170 01       		.uleb128 0x1
 8768 0171 13       		.uleb128 0x13
 8769 0172 00       		.byte	0
 8770 0173 00       		.byte	0
 8771 0174 1E       		.uleb128 0x1e
 8772 0175 05       		.uleb128 0x5
 8773 0176 00       		.byte	0
 8774 0177 03       		.uleb128 0x3
 8775 0178 0E       		.uleb128 0xe
 8776 0179 3A       		.uleb128 0x3a
 8777 017a 0B       		.uleb128 0xb
 8778 017b 3B       		.uleb128 0x3b
 8779 017c 0B       		.uleb128 0xb
 8780 017d 49       		.uleb128 0x49
 8781 017e 13       		.uleb128 0x13
 8782 017f 02       		.uleb128 0x2
 8783 0180 17       		.uleb128 0x17
 8784 0181 00       		.byte	0
 8785 0182 00       		.byte	0
 8786 0183 1F       		.uleb128 0x1f
 8787 0184 05       		.uleb128 0x5
 8788 0185 00       		.byte	0
 8789 0186 03       		.uleb128 0x3
 8790 0187 08       		.uleb128 0x8
 8791 0188 3A       		.uleb128 0x3a
 8792 0189 0B       		.uleb128 0xb
 8793 018a 3B       		.uleb128 0x3b
 8794 018b 0B       		.uleb128 0xb
 8795 018c 49       		.uleb128 0x49
 8796 018d 13       		.uleb128 0x13
 8797 018e 02       		.uleb128 0x2
 8798 018f 17       		.uleb128 0x17
 8799 0190 00       		.byte	0
 8800 0191 00       		.byte	0
 8801 0192 20       		.uleb128 0x20
 8802 0193 34       		.uleb128 0x34
 8803 0194 00       		.byte	0
 8804 0195 03       		.uleb128 0x3
 8805 0196 0E       		.uleb128 0xe
 8806 0197 3A       		.uleb128 0x3a
 8807 0198 0B       		.uleb128 0xb
ARM GAS  C:\Users\kiwamu\AppData\Local\Temp\ccIx7zyv.s 			page 221


 8808 0199 3B       		.uleb128 0x3b
 8809 019a 0B       		.uleb128 0xb
 8810 019b 49       		.uleb128 0x49
 8811 019c 13       		.uleb128 0x13
 8812 019d 02       		.uleb128 0x2
 8813 019e 17       		.uleb128 0x17
 8814 019f 00       		.byte	0
 8815 01a0 00       		.byte	0
 8816 01a1 21       		.uleb128 0x21
 8817 01a2 0B       		.uleb128 0xb
 8818 01a3 01       		.byte	0x1
 8819 01a4 55       		.uleb128 0x55
 8820 01a5 17       		.uleb128 0x17
 8821 01a6 00       		.byte	0
 8822 01a7 00       		.byte	0
 8823 01a8 22       		.uleb128 0x22
 8824 01a9 0B       		.uleb128 0xb
 8825 01aa 01       		.byte	0x1
 8826 01ab 11       		.uleb128 0x11
 8827 01ac 01       		.uleb128 0x1
 8828 01ad 12       		.uleb128 0x12
 8829 01ae 06       		.uleb128 0x6
 8830 01af 01       		.uleb128 0x1
 8831 01b0 13       		.uleb128 0x13
 8832 01b1 00       		.byte	0
 8833 01b2 00       		.byte	0
 8834 01b3 23       		.uleb128 0x23
 8835 01b4 34       		.uleb128 0x34
 8836 01b5 00       		.byte	0
 8837 01b6 03       		.uleb128 0x3
 8838 01b7 08       		.uleb128 0x8
 8839 01b8 3A       		.uleb128 0x3a
 8840 01b9 0B       		.uleb128 0xb
 8841 01ba 3B       		.uleb128 0x3b
 8842 01bb 0B       		.uleb128 0xb
 8843 01bc 49       		.uleb128 0x49
 8844 01bd 13       		.uleb128 0x13
 8845 01be 02       		.uleb128 0x2
 8846 01bf 17       		.uleb128 0x17
 8847 01c0 00       		.byte	0
 8848 01c1 00       		.byte	0
 8849 01c2 24       		.uleb128 0x24
 8850 01c3 898201   		.uleb128 0x4109
 8851 01c6 00       		.byte	0
 8852 01c7 11       		.uleb128 0x11
 8853 01c8 01       		.uleb128 0x1
 8854 01c9 31       		.uleb128 0x31
 8855 01ca 13       		.uleb128 0x13
 8856 01cb 00       		.byte	0
 8857 01cc 00       		.byte	0
 8858 01cd 25       		.uleb128 0x25
 8859 01ce 2E       		.uleb128 0x2e
 8860 01cf 01       		.byte	0x1
 8861 01d0 3F       		.uleb128 0x3f
 8862 01d1 19       		.uleb128 0x19
 8863 01d2 03       		.uleb128 0x3
 8864 01d3 0E       		.uleb128 0xe
ARM GAS  C:\Users\kiwamu\AppData\Local\Temp\ccIx7zyv.s 			page 222


 8865 01d4 3A       		.uleb128 0x3a
 8866 01d5 0B       		.uleb128 0xb
 8867 01d6 3B       		.uleb128 0x3b
 8868 01d7 0B       		.uleb128 0xb
 8869 01d8 27       		.uleb128 0x27
 8870 01d9 19       		.uleb128 0x19
 8871 01da 49       		.uleb128 0x49
 8872 01db 13       		.uleb128 0x13
 8873 01dc 11       		.uleb128 0x11
 8874 01dd 01       		.uleb128 0x1
 8875 01de 12       		.uleb128 0x12
 8876 01df 06       		.uleb128 0x6
 8877 01e0 40       		.uleb128 0x40
 8878 01e1 18       		.uleb128 0x18
 8879 01e2 9742     		.uleb128 0x2117
 8880 01e4 19       		.uleb128 0x19
 8881 01e5 01       		.uleb128 0x1
 8882 01e6 13       		.uleb128 0x13
 8883 01e7 00       		.byte	0
 8884 01e8 00       		.byte	0
 8885 01e9 26       		.uleb128 0x26
 8886 01ea 898201   		.uleb128 0x4109
 8887 01ed 01       		.byte	0x1
 8888 01ee 11       		.uleb128 0x11
 8889 01ef 01       		.uleb128 0x1
 8890 01f0 31       		.uleb128 0x31
 8891 01f1 13       		.uleb128 0x13
 8892 01f2 00       		.byte	0
 8893 01f3 00       		.byte	0
 8894 01f4 27       		.uleb128 0x27
 8895 01f5 8A8201   		.uleb128 0x410a
 8896 01f8 00       		.byte	0
 8897 01f9 02       		.uleb128 0x2
 8898 01fa 18       		.uleb128 0x18
 8899 01fb 9142     		.uleb128 0x2111
 8900 01fd 18       		.uleb128 0x18
 8901 01fe 00       		.byte	0
 8902 01ff 00       		.byte	0
 8903 0200 28       		.uleb128 0x28
 8904 0201 34       		.uleb128 0x34
 8905 0202 00       		.byte	0
 8906 0203 03       		.uleb128 0x3
 8907 0204 0E       		.uleb128 0xe
 8908 0205 3A       		.uleb128 0x3a
 8909 0206 0B       		.uleb128 0xb
 8910 0207 3B       		.uleb128 0x3b
 8911 0208 05       		.uleb128 0x5
 8912 0209 49       		.uleb128 0x49
 8913 020a 13       		.uleb128 0x13
 8914 020b 02       		.uleb128 0x2
 8915 020c 17       		.uleb128 0x17
 8916 020d 00       		.byte	0
 8917 020e 00       		.byte	0
 8918 020f 29       		.uleb128 0x29
 8919 0210 2E       		.uleb128 0x2e
 8920 0211 01       		.byte	0x1
 8921 0212 3F       		.uleb128 0x3f
ARM GAS  C:\Users\kiwamu\AppData\Local\Temp\ccIx7zyv.s 			page 223


 8922 0213 19       		.uleb128 0x19
 8923 0214 03       		.uleb128 0x3
 8924 0215 0E       		.uleb128 0xe
 8925 0216 3A       		.uleb128 0x3a
 8926 0217 0B       		.uleb128 0xb
 8927 0218 3B       		.uleb128 0x3b
 8928 0219 05       		.uleb128 0x5
 8929 021a 27       		.uleb128 0x27
 8930 021b 19       		.uleb128 0x19
 8931 021c 49       		.uleb128 0x49
 8932 021d 13       		.uleb128 0x13
 8933 021e 11       		.uleb128 0x11
 8934 021f 01       		.uleb128 0x1
 8935 0220 12       		.uleb128 0x12
 8936 0221 06       		.uleb128 0x6
 8937 0222 40       		.uleb128 0x40
 8938 0223 18       		.uleb128 0x18
 8939 0224 9742     		.uleb128 0x2117
 8940 0226 19       		.uleb128 0x19
 8941 0227 01       		.uleb128 0x1
 8942 0228 13       		.uleb128 0x13
 8943 0229 00       		.byte	0
 8944 022a 00       		.byte	0
 8945 022b 2A       		.uleb128 0x2a
 8946 022c 05       		.uleb128 0x5
 8947 022d 00       		.byte	0
 8948 022e 03       		.uleb128 0x3
 8949 022f 0E       		.uleb128 0xe
 8950 0230 3A       		.uleb128 0x3a
 8951 0231 0B       		.uleb128 0xb
 8952 0232 3B       		.uleb128 0x3b
 8953 0233 05       		.uleb128 0x5
 8954 0234 49       		.uleb128 0x49
 8955 0235 13       		.uleb128 0x13
 8956 0236 02       		.uleb128 0x2
 8957 0237 17       		.uleb128 0x17
 8958 0238 00       		.byte	0
 8959 0239 00       		.byte	0
 8960 023a 2B       		.uleb128 0x2b
 8961 023b 34       		.uleb128 0x34
 8962 023c 00       		.byte	0
 8963 023d 03       		.uleb128 0x3
 8964 023e 08       		.uleb128 0x8
 8965 023f 3A       		.uleb128 0x3a
 8966 0240 0B       		.uleb128 0xb
 8967 0241 3B       		.uleb128 0x3b
 8968 0242 05       		.uleb128 0x5
 8969 0243 49       		.uleb128 0x49
 8970 0244 13       		.uleb128 0x13
 8971 0245 02       		.uleb128 0x2
 8972 0246 17       		.uleb128 0x17
 8973 0247 00       		.byte	0
 8974 0248 00       		.byte	0
 8975 0249 2C       		.uleb128 0x2c
 8976 024a 898201   		.uleb128 0x4109
 8977 024d 01       		.byte	0x1
 8978 024e 11       		.uleb128 0x11
ARM GAS  C:\Users\kiwamu\AppData\Local\Temp\ccIx7zyv.s 			page 224


 8979 024f 01       		.uleb128 0x1
 8980 0250 31       		.uleb128 0x31
 8981 0251 13       		.uleb128 0x13
 8982 0252 01       		.uleb128 0x1
 8983 0253 13       		.uleb128 0x13
 8984 0254 00       		.byte	0
 8985 0255 00       		.byte	0
 8986 0256 2D       		.uleb128 0x2d
 8987 0257 2E       		.uleb128 0x2e
 8988 0258 01       		.byte	0x1
 8989 0259 3F       		.uleb128 0x3f
 8990 025a 19       		.uleb128 0x19
 8991 025b 03       		.uleb128 0x3
 8992 025c 0E       		.uleb128 0xe
 8993 025d 3A       		.uleb128 0x3a
 8994 025e 0B       		.uleb128 0xb
 8995 025f 3B       		.uleb128 0x3b
 8996 0260 05       		.uleb128 0x5
 8997 0261 27       		.uleb128 0x27
 8998 0262 19       		.uleb128 0x19
 8999 0263 49       		.uleb128 0x49
 9000 0264 13       		.uleb128 0x13
 9001 0265 11       		.uleb128 0x11
 9002 0266 01       		.uleb128 0x1
 9003 0267 12       		.uleb128 0x12
 9004 0268 06       		.uleb128 0x6
 9005 0269 40       		.uleb128 0x40
 9006 026a 18       		.uleb128 0x18
 9007 026b 9642     		.uleb128 0x2116
 9008 026d 19       		.uleb128 0x19
 9009 026e 01       		.uleb128 0x1
 9010 026f 13       		.uleb128 0x13
 9011 0270 00       		.byte	0
 9012 0271 00       		.byte	0
 9013 0272 2E       		.uleb128 0x2e
 9014 0273 0B       		.uleb128 0xb
 9015 0274 01       		.byte	0x1
 9016 0275 11       		.uleb128 0x11
 9017 0276 01       		.uleb128 0x1
 9018 0277 12       		.uleb128 0x12
 9019 0278 06       		.uleb128 0x6
 9020 0279 00       		.byte	0
 9021 027a 00       		.byte	0
 9022 027b 2F       		.uleb128 0x2f
 9023 027c 34       		.uleb128 0x34
 9024 027d 00       		.byte	0
 9025 027e 03       		.uleb128 0x3
 9026 027f 0E       		.uleb128 0xe
 9027 0280 3A       		.uleb128 0x3a
 9028 0281 0B       		.uleb128 0xb
 9029 0282 3B       		.uleb128 0x3b
 9030 0283 05       		.uleb128 0x5
 9031 0284 49       		.uleb128 0x49
 9032 0285 13       		.uleb128 0x13
 9033 0286 02       		.uleb128 0x2
 9034 0287 18       		.uleb128 0x18
 9035 0288 00       		.byte	0
ARM GAS  C:\Users\kiwamu\AppData\Local\Temp\ccIx7zyv.s 			page 225


 9036 0289 00       		.byte	0
 9037 028a 30       		.uleb128 0x30
 9038 028b 2E       		.uleb128 0x2e
 9039 028c 01       		.byte	0x1
 9040 028d 3F       		.uleb128 0x3f
 9041 028e 19       		.uleb128 0x19
 9042 028f 03       		.uleb128 0x3
 9043 0290 0E       		.uleb128 0xe
 9044 0291 3A       		.uleb128 0x3a
 9045 0292 0B       		.uleb128 0xb
 9046 0293 3B       		.uleb128 0x3b
 9047 0294 05       		.uleb128 0x5
 9048 0295 27       		.uleb128 0x27
 9049 0296 19       		.uleb128 0x19
 9050 0297 11       		.uleb128 0x11
 9051 0298 01       		.uleb128 0x1
 9052 0299 12       		.uleb128 0x12
 9053 029a 06       		.uleb128 0x6
 9054 029b 40       		.uleb128 0x40
 9055 029c 18       		.uleb128 0x18
 9056 029d 9742     		.uleb128 0x2117
 9057 029f 19       		.uleb128 0x19
 9058 02a0 01       		.uleb128 0x1
 9059 02a1 13       		.uleb128 0x13
 9060 02a2 00       		.byte	0
 9061 02a3 00       		.byte	0
 9062 02a4 31       		.uleb128 0x31
 9063 02a5 1D       		.uleb128 0x1d
 9064 02a6 00       		.byte	0
 9065 02a7 31       		.uleb128 0x31
 9066 02a8 13       		.uleb128 0x13
 9067 02a9 11       		.uleb128 0x11
 9068 02aa 01       		.uleb128 0x1
 9069 02ab 12       		.uleb128 0x12
 9070 02ac 06       		.uleb128 0x6
 9071 02ad 58       		.uleb128 0x58
 9072 02ae 0B       		.uleb128 0xb
 9073 02af 59       		.uleb128 0x59
 9074 02b0 05       		.uleb128 0x5
 9075 02b1 00       		.byte	0
 9076 02b2 00       		.byte	0
 9077 02b3 32       		.uleb128 0x32
 9078 02b4 0B       		.uleb128 0xb
 9079 02b5 01       		.byte	0x1
 9080 02b6 55       		.uleb128 0x55
 9081 02b7 17       		.uleb128 0x17
 9082 02b8 01       		.uleb128 0x1
 9083 02b9 13       		.uleb128 0x13
 9084 02ba 00       		.byte	0
 9085 02bb 00       		.byte	0
 9086 02bc 33       		.uleb128 0x33
 9087 02bd 05       		.uleb128 0x5
 9088 02be 00       		.byte	0
 9089 02bf 03       		.uleb128 0x3
 9090 02c0 0E       		.uleb128 0xe
 9091 02c1 3A       		.uleb128 0x3a
 9092 02c2 0B       		.uleb128 0xb
ARM GAS  C:\Users\kiwamu\AppData\Local\Temp\ccIx7zyv.s 			page 226


 9093 02c3 3B       		.uleb128 0x3b
 9094 02c4 05       		.uleb128 0x5
 9095 02c5 49       		.uleb128 0x49
 9096 02c6 13       		.uleb128 0x13
 9097 02c7 02       		.uleb128 0x2
 9098 02c8 18       		.uleb128 0x18
 9099 02c9 00       		.byte	0
 9100 02ca 00       		.byte	0
 9101 02cb 34       		.uleb128 0x34
 9102 02cc 34       		.uleb128 0x34
 9103 02cd 00       		.byte	0
 9104 02ce 03       		.uleb128 0x3
 9105 02cf 0E       		.uleb128 0xe
 9106 02d0 3A       		.uleb128 0x3a
 9107 02d1 0B       		.uleb128 0xb
 9108 02d2 3B       		.uleb128 0x3b
 9109 02d3 05       		.uleb128 0x5
 9110 02d4 49       		.uleb128 0x49
 9111 02d5 13       		.uleb128 0x13
 9112 02d6 1C       		.uleb128 0x1c
 9113 02d7 05       		.uleb128 0x5
 9114 02d8 00       		.byte	0
 9115 02d9 00       		.byte	0
 9116 02da 35       		.uleb128 0x35
 9117 02db 1D       		.uleb128 0x1d
 9118 02dc 01       		.byte	0x1
 9119 02dd 31       		.uleb128 0x31
 9120 02de 13       		.uleb128 0x13
 9121 02df 11       		.uleb128 0x11
 9122 02e0 01       		.uleb128 0x1
 9123 02e1 12       		.uleb128 0x12
 9124 02e2 06       		.uleb128 0x6
 9125 02e3 58       		.uleb128 0x58
 9126 02e4 0B       		.uleb128 0xb
 9127 02e5 59       		.uleb128 0x59
 9128 02e6 05       		.uleb128 0x5
 9129 02e7 00       		.byte	0
 9130 02e8 00       		.byte	0
 9131 02e9 36       		.uleb128 0x36
 9132 02ea 05       		.uleb128 0x5
 9133 02eb 00       		.byte	0
 9134 02ec 31       		.uleb128 0x31
 9135 02ed 13       		.uleb128 0x13
 9136 02ee 02       		.uleb128 0x2
 9137 02ef 17       		.uleb128 0x17
 9138 02f0 00       		.byte	0
 9139 02f1 00       		.byte	0
 9140 02f2 37       		.uleb128 0x37
 9141 02f3 1D       		.uleb128 0x1d
 9142 02f4 01       		.byte	0x1
 9143 02f5 31       		.uleb128 0x31
 9144 02f6 13       		.uleb128 0x13
 9145 02f7 52       		.uleb128 0x52
 9146 02f8 01       		.uleb128 0x1
 9147 02f9 55       		.uleb128 0x55
 9148 02fa 17       		.uleb128 0x17
 9149 02fb 58       		.uleb128 0x58
ARM GAS  C:\Users\kiwamu\AppData\Local\Temp\ccIx7zyv.s 			page 227


 9150 02fc 0B       		.uleb128 0xb
 9151 02fd 59       		.uleb128 0x59
 9152 02fe 05       		.uleb128 0x5
 9153 02ff 01       		.uleb128 0x1
 9154 0300 13       		.uleb128 0x13
 9155 0301 00       		.byte	0
 9156 0302 00       		.byte	0
 9157 0303 38       		.uleb128 0x38
 9158 0304 34       		.uleb128 0x34
 9159 0305 00       		.byte	0
 9160 0306 31       		.uleb128 0x31
 9161 0307 13       		.uleb128 0x13
 9162 0308 02       		.uleb128 0x2
 9163 0309 17       		.uleb128 0x17
 9164 030a 00       		.byte	0
 9165 030b 00       		.byte	0
 9166 030c 39       		.uleb128 0x39
 9167 030d 17       		.uleb128 0x17
 9168 030e 01       		.byte	0x1
 9169 030f 0B       		.uleb128 0xb
 9170 0310 0B       		.uleb128 0xb
 9171 0311 3A       		.uleb128 0x3a
 9172 0312 0B       		.uleb128 0xb
 9173 0313 3B       		.uleb128 0x3b
 9174 0314 05       		.uleb128 0x5
 9175 0315 01       		.uleb128 0x1
 9176 0316 13       		.uleb128 0x13
 9177 0317 00       		.byte	0
 9178 0318 00       		.byte	0
 9179 0319 3A       		.uleb128 0x3a
 9180 031a 0D       		.uleb128 0xd
 9181 031b 00       		.byte	0
 9182 031c 03       		.uleb128 0x3
 9183 031d 08       		.uleb128 0x8
 9184 031e 3A       		.uleb128 0x3a
 9185 031f 0B       		.uleb128 0xb
 9186 0320 3B       		.uleb128 0x3b
 9187 0321 05       		.uleb128 0x5
 9188 0322 49       		.uleb128 0x49
 9189 0323 13       		.uleb128 0x13
 9190 0324 00       		.byte	0
 9191 0325 00       		.byte	0
 9192 0326 3B       		.uleb128 0x3b
 9193 0327 1D       		.uleb128 0x1d
 9194 0328 01       		.byte	0x1
 9195 0329 31       		.uleb128 0x31
 9196 032a 13       		.uleb128 0x13
 9197 032b 11       		.uleb128 0x11
 9198 032c 01       		.uleb128 0x1
 9199 032d 12       		.uleb128 0x12
 9200 032e 06       		.uleb128 0x6
 9201 032f 58       		.uleb128 0x58
 9202 0330 0B       		.uleb128 0xb
 9203 0331 59       		.uleb128 0x59
 9204 0332 05       		.uleb128 0x5
 9205 0333 01       		.uleb128 0x1
 9206 0334 13       		.uleb128 0x13
ARM GAS  C:\Users\kiwamu\AppData\Local\Temp\ccIx7zyv.s 			page 228


 9207 0335 00       		.byte	0
 9208 0336 00       		.byte	0
 9209 0337 3C       		.uleb128 0x3c
 9210 0338 2E       		.uleb128 0x2e
 9211 0339 00       		.byte	0
 9212 033a 3F       		.uleb128 0x3f
 9213 033b 19       		.uleb128 0x19
 9214 033c 3C       		.uleb128 0x3c
 9215 033d 19       		.uleb128 0x19
 9216 033e 6E       		.uleb128 0x6e
 9217 033f 0E       		.uleb128 0xe
 9218 0340 03       		.uleb128 0x3
 9219 0341 0E       		.uleb128 0xe
 9220 0342 3A       		.uleb128 0x3a
 9221 0343 0B       		.uleb128 0xb
 9222 0344 3B       		.uleb128 0x3b
 9223 0345 0B       		.uleb128 0xb
 9224 0346 00       		.byte	0
 9225 0347 00       		.byte	0
 9226 0348 3D       		.uleb128 0x3d
 9227 0349 2E       		.uleb128 0x2e
 9228 034a 00       		.byte	0
 9229 034b 3F       		.uleb128 0x3f
 9230 034c 19       		.uleb128 0x19
 9231 034d 3C       		.uleb128 0x3c
 9232 034e 19       		.uleb128 0x19
 9233 034f 6E       		.uleb128 0x6e
 9234 0350 0E       		.uleb128 0xe
 9235 0351 03       		.uleb128 0x3
 9236 0352 0E       		.uleb128 0xe
 9237 0353 3A       		.uleb128 0x3a
 9238 0354 0B       		.uleb128 0xb
 9239 0355 3B       		.uleb128 0x3b
 9240 0356 05       		.uleb128 0x5
 9241 0357 00       		.byte	0
 9242 0358 00       		.byte	0
 9243 0359 3E       		.uleb128 0x3e
 9244 035a 2E       		.uleb128 0x2e
 9245 035b 00       		.byte	0
 9246 035c 3F       		.uleb128 0x3f
 9247 035d 19       		.uleb128 0x19
 9248 035e 3C       		.uleb128 0x3c
 9249 035f 19       		.uleb128 0x19
 9250 0360 6E       		.uleb128 0x6e
 9251 0361 08       		.uleb128 0x8
 9252 0362 03       		.uleb128 0x3
 9253 0363 08       		.uleb128 0x8
 9254 0364 3A       		.uleb128 0x3a
 9255 0365 0B       		.uleb128 0xb
 9256 0366 3B       		.uleb128 0x3b
 9257 0367 0B       		.uleb128 0xb
 9258 0368 00       		.byte	0
 9259 0369 00       		.byte	0
 9260 036a 3F       		.uleb128 0x3f
 9261 036b 2E       		.uleb128 0x2e
 9262 036c 00       		.byte	0
 9263 036d 3F       		.uleb128 0x3f
ARM GAS  C:\Users\kiwamu\AppData\Local\Temp\ccIx7zyv.s 			page 229


 9264 036e 19       		.uleb128 0x19
 9265 036f 3C       		.uleb128 0x3c
 9266 0370 19       		.uleb128 0x19
 9267 0371 6E       		.uleb128 0x6e
 9268 0372 0E       		.uleb128 0xe
 9269 0373 03       		.uleb128 0x3
 9270 0374 0E       		.uleb128 0xe
 9271 0375 3A       		.uleb128 0x3a
 9272 0376 0B       		.uleb128 0xb
 9273 0377 3B       		.uleb128 0x3b
 9274 0378 0B       		.uleb128 0xb
 9275 0379 6E       		.uleb128 0x6e
 9276 037a 0E       		.uleb128 0xe
 9277 037b 00       		.byte	0
 9278 037c 00       		.byte	0
 9279 037d 40       		.uleb128 0x40
 9280 037e 2E       		.uleb128 0x2e
 9281 037f 00       		.byte	0
 9282 0380 3F       		.uleb128 0x3f
 9283 0381 19       		.uleb128 0x19
 9284 0382 3C       		.uleb128 0x3c
 9285 0383 19       		.uleb128 0x19
 9286 0384 6E       		.uleb128 0x6e
 9287 0385 0E       		.uleb128 0xe
 9288 0386 03       		.uleb128 0x3
 9289 0387 0E       		.uleb128 0xe
 9290 0388 00       		.byte	0
 9291 0389 00       		.byte	0
 9292 038a 00       		.byte	0
 9293              		.section	.debug_loc,"",%progbits
 9294              	.Ldebug_loc0:
 9295              	.LLST0:
 9296 0000 00000000 		.4byte	.LVL0
 9297 0004 17000000 		.4byte	.LVL4-1
 9298 0008 0100     		.2byte	0x1
 9299 000a 50       		.byte	0x50
 9300 000b 17000000 		.4byte	.LVL4-1
 9301 000f B0010000 		.4byte	.LVL71
 9302 0013 0400     		.2byte	0x4
 9303 0015 F3       		.byte	0xf3
 9304 0016 01       		.uleb128 0x1
 9305 0017 50       		.byte	0x50
 9306 0018 9F       		.byte	0x9f
 9307 0019 B0010000 		.4byte	.LVL71
 9308 001d B2010000 		.4byte	.LVL72
 9309 0021 0100     		.2byte	0x1
 9310 0023 50       		.byte	0x50
 9311 0024 B2010000 		.4byte	.LVL72
 9312 0028 18020000 		.4byte	.LFE139
 9313 002c 0400     		.2byte	0x4
 9314 002e F3       		.byte	0xf3
 9315 002f 01       		.uleb128 0x1
 9316 0030 50       		.byte	0x50
 9317 0031 9F       		.byte	0x9f
 9318 0032 00000000 		.4byte	0
 9319 0036 00000000 		.4byte	0
 9320              	.LLST1:
ARM GAS  C:\Users\kiwamu\AppData\Local\Temp\ccIx7zyv.s 			page 230


 9321 003a 00000000 		.4byte	.LVL0
 9322 003e 17000000 		.4byte	.LVL4-1
 9323 0042 0100     		.2byte	0x1
 9324 0044 51       		.byte	0x51
 9325 0045 17000000 		.4byte	.LVL4-1
 9326 0049 66000000 		.4byte	.LVL20
 9327 004d 0100     		.2byte	0x1
 9328 004f 54       		.byte	0x54
 9329 0050 66000000 		.4byte	.LVL20
 9330 0054 B0010000 		.4byte	.LVL71
 9331 0058 0400     		.2byte	0x4
 9332 005a F3       		.byte	0xf3
 9333 005b 01       		.uleb128 0x1
 9334 005c 51       		.byte	0x51
 9335 005d 9F       		.byte	0x9f
 9336 005e B0010000 		.4byte	.LVL71
 9337 0062 B4010000 		.4byte	.LVL73
 9338 0066 0100     		.2byte	0x1
 9339 0068 51       		.byte	0x51
 9340 0069 B4010000 		.4byte	.LVL73
 9341 006d 18020000 		.4byte	.LFE139
 9342 0071 0400     		.2byte	0x4
 9343 0073 F3       		.byte	0xf3
 9344 0074 01       		.uleb128 0x1
 9345 0075 51       		.byte	0x51
 9346 0076 9F       		.byte	0x9f
 9347 0077 00000000 		.4byte	0
 9348 007b 00000000 		.4byte	0
 9349              	.LLST2:
 9350 007f 00000000 		.4byte	.LVL0
 9351 0083 0C000000 		.4byte	.LVL3
 9352 0087 0100     		.2byte	0x1
 9353 0089 52       		.byte	0x52
 9354 008a 0C000000 		.4byte	.LVL3
 9355 008e 3E000000 		.4byte	.LVL13
 9356 0092 0100     		.2byte	0x1
 9357 0094 55       		.byte	0x55
 9358 0095 3E000000 		.4byte	.LVL13
 9359 0099 B0010000 		.4byte	.LVL71
 9360 009d 0400     		.2byte	0x4
 9361 009f F3       		.byte	0xf3
 9362 00a0 01       		.uleb128 0x1
 9363 00a1 52       		.byte	0x52
 9364 00a2 9F       		.byte	0x9f
 9365 00a3 B0010000 		.4byte	.LVL71
 9366 00a7 B4010000 		.4byte	.LVL73
 9367 00ab 0100     		.2byte	0x1
 9368 00ad 55       		.byte	0x55
 9369 00ae B4010000 		.4byte	.LVL73
 9370 00b2 18020000 		.4byte	.LFE139
 9371 00b6 0400     		.2byte	0x4
 9372 00b8 F3       		.byte	0xf3
 9373 00b9 01       		.uleb128 0x1
 9374 00ba 52       		.byte	0x52
 9375 00bb 9F       		.byte	0x9f
 9376 00bc 00000000 		.4byte	0
 9377 00c0 00000000 		.4byte	0
ARM GAS  C:\Users\kiwamu\AppData\Local\Temp\ccIx7zyv.s 			page 231


 9378              	.LLST3:
 9379 00c4 00000000 		.4byte	.LVL0
 9380 00c8 0A000000 		.4byte	.LVL2
 9381 00cc 0100     		.2byte	0x1
 9382 00ce 53       		.byte	0x53
 9383 00cf 0A000000 		.4byte	.LVL2
 9384 00d3 28000000 		.4byte	.LVL9
 9385 00d7 0100     		.2byte	0x1
 9386 00d9 56       		.byte	0x56
 9387 00da 28000000 		.4byte	.LVL9
 9388 00de B0010000 		.4byte	.LVL71
 9389 00e2 0400     		.2byte	0x4
 9390 00e4 F3       		.byte	0xf3
 9391 00e5 01       		.uleb128 0x1
 9392 00e6 53       		.byte	0x53
 9393 00e7 9F       		.byte	0x9f
 9394 00e8 B0010000 		.4byte	.LVL71
 9395 00ec B4010000 		.4byte	.LVL73
 9396 00f0 0100     		.2byte	0x1
 9397 00f2 56       		.byte	0x56
 9398 00f3 B4010000 		.4byte	.LVL73
 9399 00f7 18020000 		.4byte	.LFE139
 9400 00fb 0400     		.2byte	0x4
 9401 00fd F3       		.byte	0xf3
 9402 00fe 01       		.uleb128 0x1
 9403 00ff 53       		.byte	0x53
 9404 0100 9F       		.byte	0x9f
 9405 0101 00000000 		.4byte	0
 9406 0105 00000000 		.4byte	0
 9407              	.LLST4:
 9408 0109 08000000 		.4byte	.LVL1
 9409 010d AA000000 		.4byte	.LVL32
 9410 0111 0600     		.2byte	0x6
 9411 0113 0C       		.byte	0xc
 9412 0114 03004A00 		.4byte	0x4a0003
 9413 0118 9F       		.byte	0x9f
 9414 0119 AA000000 		.4byte	.LVL32
 9415 011d AC010000 		.4byte	.LVL70
 9416 0121 0600     		.2byte	0x6
 9417 0123 0C       		.byte	0xc
 9418 0124 01004A00 		.4byte	0x4a0001
 9419 0128 9F       		.byte	0x9f
 9420 0129 AC010000 		.4byte	.LVL70
 9421 012d B0010000 		.4byte	.LVL71
 9422 0131 0200     		.2byte	0x2
 9423 0133 30       		.byte	0x30
 9424 0134 9F       		.byte	0x9f
 9425 0135 B0010000 		.4byte	.LVL71
 9426 0139 B4010000 		.4byte	.LVL73
 9427 013d 0600     		.2byte	0x6
 9428 013f 0C       		.byte	0xc
 9429 0140 03004A00 		.4byte	0x4a0003
 9430 0144 9F       		.byte	0x9f
 9431 0145 B4010000 		.4byte	.LVL73
 9432 0149 BA010000 		.4byte	.LVL74
 9433 014d 0600     		.2byte	0x6
 9434 014f 0C       		.byte	0xc
ARM GAS  C:\Users\kiwamu\AppData\Local\Temp\ccIx7zyv.s 			page 232


 9435 0150 01004A00 		.4byte	0x4a0001
 9436 0154 9F       		.byte	0x9f
 9437 0155 BA010000 		.4byte	.LVL74
 9438 0159 18020000 		.4byte	.LFE139
 9439 015d 0100     		.2byte	0x1
 9440 015f 50       		.byte	0x50
 9441 0160 00000000 		.4byte	0
 9442 0164 00000000 		.4byte	0
 9443              	.LLST5:
 9444 0168 20000000 		.4byte	.LVL6
 9445 016c 22000000 		.4byte	.LVL7
 9446 0170 0100     		.2byte	0x1
 9447 0172 50       		.byte	0x50
 9448 0173 22000000 		.4byte	.LVL7
 9449 0177 72010000 		.4byte	.LVL54
 9450 017b 0100     		.2byte	0x1
 9451 017d 57       		.byte	0x57
 9452 017e 74010000 		.4byte	.LVL55
 9453 0182 76010000 		.4byte	.LVL56
 9454 0186 0100     		.2byte	0x1
 9455 0188 57       		.byte	0x57
 9456 0189 78010000 		.4byte	.LVL57
 9457 018d 7A010000 		.4byte	.LVL58
 9458 0191 0100     		.2byte	0x1
 9459 0193 57       		.byte	0x57
 9460 0194 7C010000 		.4byte	.LVL59
 9461 0198 7E010000 		.4byte	.LVL60
 9462 019c 0100     		.2byte	0x1
 9463 019e 57       		.byte	0x57
 9464 019f B4010000 		.4byte	.LVL73
 9465 01a3 BA010000 		.4byte	.LVL74
 9466 01a7 0100     		.2byte	0x1
 9467 01a9 57       		.byte	0x57
 9468 01aa 00000000 		.4byte	0
 9469 01ae 00000000 		.4byte	0
 9470              	.LLST6:
 9471 01b2 78000000 		.4byte	.LVL23
 9472 01b6 7C000000 		.4byte	.LVL24
 9473 01ba 0100     		.2byte	0x1
 9474 01bc 50       		.byte	0x50
 9475 01bd 7C000000 		.4byte	.LVL24
 9476 01c1 3A010000 		.4byte	.LVL45
 9477 01c5 0100     		.2byte	0x1
 9478 01c7 55       		.byte	0x55
 9479 01c8 3E010000 		.4byte	.LVL46
 9480 01cc 40010000 		.4byte	.LVL47
 9481 01d0 0100     		.2byte	0x1
 9482 01d2 55       		.byte	0x55
 9483 01d3 B4010000 		.4byte	.LVL73
 9484 01d7 BA010000 		.4byte	.LVL74
 9485 01db 0100     		.2byte	0x1
 9486 01dd 55       		.byte	0x55
 9487 01de 00000000 		.4byte	0
 9488 01e2 00000000 		.4byte	0
 9489              	.LLST7:
 9490 01e6 9E000000 		.4byte	.LVL29
 9491 01ea A3000000 		.4byte	.LVL30-1
ARM GAS  C:\Users\kiwamu\AppData\Local\Temp\ccIx7zyv.s 			page 233


 9492 01ee 0100     		.2byte	0x1
 9493 01f0 50       		.byte	0x50
 9494 01f1 00000000 		.4byte	0
 9495 01f5 00000000 		.4byte	0
 9496              	.LLST8:
 9497 01f9 AA000000 		.4byte	.LVL32
 9498 01fd B0000000 		.4byte	.LVL33
 9499 0201 0100     		.2byte	0x1
 9500 0203 50       		.byte	0x50
 9501 0204 B0000000 		.4byte	.LVL33
 9502 0208 46010000 		.4byte	.LVL48
 9503 020c 0100     		.2byte	0x1
 9504 020e 54       		.byte	0x54
 9505 020f 46010000 		.4byte	.LVL48
 9506 0213 4A010000 		.4byte	.LVL49
 9507 0217 0300     		.2byte	0x3
 9508 0219 74       		.byte	0x74
 9509 021a 01       		.sleb128 1
 9510 021b 9F       		.byte	0x9f
 9511 021c B4010000 		.4byte	.LVL73
 9512 0220 BA010000 		.4byte	.LVL74
 9513 0224 0100     		.2byte	0x1
 9514 0226 54       		.byte	0x54
 9515 0227 00000000 		.4byte	0
 9516 022b 00000000 		.4byte	0
 9517              	.LLST9:
 9518 022f 1E010000 		.4byte	.LVL41
 9519 0233 A2010000 		.4byte	.LVL66
 9520 0237 0100     		.2byte	0x1
 9521 0239 56       		.byte	0x56
 9522 023a 00000000 		.4byte	0
 9523 023e 00000000 		.4byte	0
 9524              	.LLST10:
 9525 0242 40010000 		.4byte	.LVL47
 9526 0246 A8010000 		.4byte	.LVL68
 9527 024a 0100     		.2byte	0x1
 9528 024c 55       		.byte	0x55
 9529 024d 00000000 		.4byte	0
 9530 0251 00000000 		.4byte	0
 9531              	.LLST11:
 9532 0255 4C010000 		.4byte	.LVL50
 9533 0259 8A010000 		.4byte	.LVL62
 9534 025d 0100     		.2byte	0x1
 9535 025f 54       		.byte	0x54
 9536 0260 00000000 		.4byte	0
 9537 0264 00000000 		.4byte	0
 9538              	.LLST12:
 9539 0268 7E010000 		.4byte	.LVL60
 9540 026c B0010000 		.4byte	.LVL71
 9541 0270 0100     		.2byte	0x1
 9542 0272 57       		.byte	0x57
 9543 0273 00000000 		.4byte	0
 9544 0277 00000000 		.4byte	0
 9545              	.LLST13:
 9546 027b 7E010000 		.4byte	.LVL60
 9547 027f A2010000 		.4byte	.LVL66
 9548 0283 0500     		.2byte	0x5
ARM GAS  C:\Users\kiwamu\AppData\Local\Temp\ccIx7zyv.s 			page 234


 9549 0285 76       		.byte	0x76
 9550 0286 00       		.sleb128 0
 9551 0287 31       		.byte	0x31
 9552 0288 25       		.byte	0x25
 9553 0289 9F       		.byte	0x9f
 9554 028a 00000000 		.4byte	0
 9555 028e 00000000 		.4byte	0
 9556              	.LLST14:
 9557 0292 88010000 		.4byte	.LVL61
 9558 0296 92010000 		.4byte	.LVL63
 9559 029a 0100     		.2byte	0x1
 9560 029c 50       		.byte	0x50
 9561 029d 92010000 		.4byte	.LVL63
 9562 02a1 A4010000 		.4byte	.LVL67
 9563 02a5 0100     		.2byte	0x1
 9564 02a7 54       		.byte	0x54
 9565 02a8 A4010000 		.4byte	.LVL67
 9566 02ac B0010000 		.4byte	.LVL71
 9567 02b0 0100     		.2byte	0x1
 9568 02b2 56       		.byte	0x56
 9569 02b3 00000000 		.4byte	0
 9570 02b7 00000000 		.4byte	0
 9571              	.LLST15:
 9572 02bb 00000000 		.4byte	.LVL75
 9573 02bf 16000000 		.4byte	.LVL77
 9574 02c3 0100     		.2byte	0x1
 9575 02c5 50       		.byte	0x50
 9576 02c6 16000000 		.4byte	.LVL77
 9577 02ca 3E000000 		.4byte	.LVL80
 9578 02ce 0100     		.2byte	0x1
 9579 02d0 54       		.byte	0x54
 9580 02d1 3E000000 		.4byte	.LVL80
 9581 02d5 40000000 		.4byte	.LVL81
 9582 02d9 0100     		.2byte	0x1
 9583 02db 50       		.byte	0x50
 9584 02dc 40000000 		.4byte	.LVL81
 9585 02e0 44000000 		.4byte	.LVL83
 9586 02e4 0100     		.2byte	0x1
 9587 02e6 54       		.byte	0x54
 9588 02e7 00000000 		.4byte	0
 9589 02eb 00000000 		.4byte	0
 9590              	.LLST16:
 9591 02ef 04000000 		.4byte	.LVL76
 9592 02f3 44000000 		.4byte	.LVL82
 9593 02f7 0600     		.2byte	0x6
 9594 02f9 0C       		.byte	0xc
 9595 02fa 03004A00 		.4byte	0x4a0003
 9596 02fe 9F       		.byte	0x9f
 9597 02ff 44000000 		.4byte	.LVL82
 9598 0303 58000000 		.4byte	.LFE140
 9599 0307 0100     		.2byte	0x1
 9600 0309 50       		.byte	0x50
 9601 030a 00000000 		.4byte	0
 9602 030e 00000000 		.4byte	0
 9603              	.LLST17:
 9604 0312 00000000 		.4byte	.LVL84
 9605 0316 26000000 		.4byte	.LVL86
ARM GAS  C:\Users\kiwamu\AppData\Local\Temp\ccIx7zyv.s 			page 235


 9606 031a 0100     		.2byte	0x1
 9607 031c 50       		.byte	0x50
 9608 031d 26000000 		.4byte	.LVL86
 9609 0321 28000000 		.4byte	.LVL87
 9610 0325 0400     		.2byte	0x4
 9611 0327 70       		.byte	0x70
 9612 0328 B07E     		.sleb128 -208
 9613 032a 9F       		.byte	0x9f
 9614 032b 28000000 		.4byte	.LVL87
 9615 032f 30000000 		.4byte	.LVL88
 9616 0333 0400     		.2byte	0x4
 9617 0335 F3       		.byte	0xf3
 9618 0336 01       		.uleb128 0x1
 9619 0337 50       		.byte	0x50
 9620 0338 9F       		.byte	0x9f
 9621 0339 30000000 		.4byte	.LVL88
 9622 033d 36000000 		.4byte	.LVL90
 9623 0341 0100     		.2byte	0x1
 9624 0343 50       		.byte	0x50
 9625 0344 36000000 		.4byte	.LVL90
 9626 0348 38000000 		.4byte	.LVL91
 9627 034c 0400     		.2byte	0x4
 9628 034e 70       		.byte	0x70
 9629 034f B07E     		.sleb128 -208
 9630 0351 9F       		.byte	0x9f
 9631 0352 38000000 		.4byte	.LVL91
 9632 0356 40000000 		.4byte	.LVL92
 9633 035a 0400     		.2byte	0x4
 9634 035c F3       		.byte	0xf3
 9635 035d 01       		.uleb128 0x1
 9636 035e 50       		.byte	0x50
 9637 035f 9F       		.byte	0x9f
 9638 0360 40000000 		.4byte	.LVL92
 9639 0364 42000000 		.4byte	.LVL93
 9640 0368 0100     		.2byte	0x1
 9641 036a 50       		.byte	0x50
 9642 036b 42000000 		.4byte	.LVL93
 9643 036f 44000000 		.4byte	.LVL94
 9644 0373 0400     		.2byte	0x4
 9645 0375 F3       		.byte	0xf3
 9646 0376 01       		.uleb128 0x1
 9647 0377 50       		.byte	0x50
 9648 0378 9F       		.byte	0x9f
 9649 0379 44000000 		.4byte	.LVL94
 9650 037d 46000000 		.4byte	.LVL95
 9651 0381 0100     		.2byte	0x1
 9652 0383 50       		.byte	0x50
 9653 0384 46000000 		.4byte	.LVL95
 9654 0388 50000000 		.4byte	.LFE141
 9655 038c 0400     		.2byte	0x4
 9656 038e F3       		.byte	0xf3
 9657 038f 01       		.uleb128 0x1
 9658 0390 50       		.byte	0x50
 9659 0391 9F       		.byte	0x9f
 9660 0392 00000000 		.4byte	0
 9661 0396 00000000 		.4byte	0
 9662              	.LLST18:
ARM GAS  C:\Users\kiwamu\AppData\Local\Temp\ccIx7zyv.s 			page 236


 9663 039a 00000000 		.4byte	.LVL84
 9664 039e 1A000000 		.4byte	.LVL85
 9665 03a2 0100     		.2byte	0x1
 9666 03a4 51       		.byte	0x51
 9667 03a5 1A000000 		.4byte	.LVL85
 9668 03a9 30000000 		.4byte	.LVL88
 9669 03ad 0400     		.2byte	0x4
 9670 03af F3       		.byte	0xf3
 9671 03b0 01       		.uleb128 0x1
 9672 03b1 51       		.byte	0x51
 9673 03b2 9F       		.byte	0x9f
 9674 03b3 30000000 		.4byte	.LVL88
 9675 03b7 34000000 		.4byte	.LVL89
 9676 03bb 0100     		.2byte	0x1
 9677 03bd 51       		.byte	0x51
 9678 03be 34000000 		.4byte	.LVL89
 9679 03c2 40000000 		.4byte	.LVL92
 9680 03c6 0400     		.2byte	0x4
 9681 03c8 F3       		.byte	0xf3
 9682 03c9 01       		.uleb128 0x1
 9683 03ca 51       		.byte	0x51
 9684 03cb 9F       		.byte	0x9f
 9685 03cc 40000000 		.4byte	.LVL92
 9686 03d0 46000000 		.4byte	.LVL95
 9687 03d4 0100     		.2byte	0x1
 9688 03d6 51       		.byte	0x51
 9689 03d7 46000000 		.4byte	.LVL95
 9690 03db 50000000 		.4byte	.LFE141
 9691 03df 0400     		.2byte	0x4
 9692 03e1 F3       		.byte	0xf3
 9693 03e2 01       		.uleb128 0x1
 9694 03e3 51       		.byte	0x51
 9695 03e4 9F       		.byte	0x9f
 9696 03e5 00000000 		.4byte	0
 9697 03e9 00000000 		.4byte	0
 9698              	.LLST19:
 9699 03ed 00000000 		.4byte	.LVL84
 9700 03f1 46000000 		.4byte	.LVL95
 9701 03f5 0600     		.2byte	0x6
 9702 03f7 0C       		.byte	0xc
 9703 03f8 01004A00 		.4byte	0x4a0001
 9704 03fc 9F       		.byte	0x9f
 9705 03fd 46000000 		.4byte	.LVL95
 9706 0401 50000000 		.4byte	.LFE141
 9707 0405 0100     		.2byte	0x1
 9708 0407 50       		.byte	0x50
 9709 0408 00000000 		.4byte	0
 9710 040c 00000000 		.4byte	0
 9711              	.LLST20:
 9712 0410 00000000 		.4byte	.LVL96
 9713 0414 0E000000 		.4byte	.LVL97
 9714 0418 0100     		.2byte	0x1
 9715 041a 50       		.byte	0x50
 9716 041b 0E000000 		.4byte	.LVL97
 9717 041f 26000000 		.4byte	.LVL100
 9718 0423 0100     		.2byte	0x1
 9719 0425 54       		.byte	0x54
ARM GAS  C:\Users\kiwamu\AppData\Local\Temp\ccIx7zyv.s 			page 237


 9720 0426 26000000 		.4byte	.LVL100
 9721 042a 28000000 		.4byte	.LVL101
 9722 042e 0400     		.2byte	0x4
 9723 0430 74       		.byte	0x74
 9724 0431 C07E     		.sleb128 -192
 9725 0433 9F       		.byte	0x9f
 9726 0434 28000000 		.4byte	.LVL101
 9727 0438 40000000 		.4byte	.LFE142
 9728 043c 0400     		.2byte	0x4
 9729 043e F3       		.byte	0xf3
 9730 043f 01       		.uleb128 0x1
 9731 0440 50       		.byte	0x50
 9732 0441 9F       		.byte	0x9f
 9733 0442 00000000 		.4byte	0
 9734 0446 00000000 		.4byte	0
 9735              	.LLST21:
 9736 044a 20000000 		.4byte	.LVL99
 9737 044e 2C000000 		.4byte	.LVL102
 9738 0452 0100     		.2byte	0x1
 9739 0454 50       		.byte	0x50
 9740 0455 2C000000 		.4byte	.LVL102
 9741 0459 2E000000 		.4byte	.LVL103
 9742 045d 0300     		.2byte	0x3
 9743 045f 70       		.byte	0x70
 9744 0460 65       		.sleb128 -27
 9745 0461 9F       		.byte	0x9f
 9746 0462 34000000 		.4byte	.LVL104
 9747 0466 40000000 		.4byte	.LFE142
 9748 046a 0100     		.2byte	0x1
 9749 046c 50       		.byte	0x50
 9750 046d 00000000 		.4byte	0
 9751 0471 00000000 		.4byte	0
 9752              	.LLST22:
 9753 0475 00000000 		.4byte	.LVL105
 9754 0479 0C000000 		.4byte	.LVL107
 9755 047d 0100     		.2byte	0x1
 9756 047f 50       		.byte	0x50
 9757 0480 0C000000 		.4byte	.LVL107
 9758 0484 3C010000 		.4byte	.LVL129
 9759 0488 0100     		.2byte	0x1
 9760 048a 54       		.byte	0x54
 9761 048b 3C010000 		.4byte	.LVL129
 9762 048f 70010000 		.4byte	.LFE144
 9763 0493 0400     		.2byte	0x4
 9764 0495 F3       		.byte	0xf3
 9765 0496 01       		.uleb128 0x1
 9766 0497 50       		.byte	0x50
 9767 0498 9F       		.byte	0x9f
 9768 0499 00000000 		.4byte	0
 9769 049d 00000000 		.4byte	0
 9770              	.LLST23:
 9771 04a1 04000000 		.4byte	.LVL106
 9772 04a5 22000000 		.4byte	.LVL109
 9773 04a9 0200     		.2byte	0x2
 9774 04ab 30       		.byte	0x30
 9775 04ac 9F       		.byte	0x9f
 9776 04ad 22000000 		.4byte	.LVL109
ARM GAS  C:\Users\kiwamu\AppData\Local\Temp\ccIx7zyv.s 			page 238


 9777 04b1 3C010000 		.4byte	.LVL130
 9778 04b5 0100     		.2byte	0x1
 9779 04b7 55       		.byte	0x55
 9780 04b8 3C010000 		.4byte	.LVL130
 9781 04bc 70010000 		.4byte	.LFE144
 9782 04c0 0100     		.2byte	0x1
 9783 04c2 50       		.byte	0x50
 9784 04c3 00000000 		.4byte	0
 9785 04c7 00000000 		.4byte	0
 9786              	.LLST24:
 9787 04cb 40000000 		.4byte	.LVL111
 9788 04cf 52000000 		.4byte	.LVL112
 9789 04d3 0100     		.2byte	0x1
 9790 04d5 51       		.byte	0x51
 9791 04d6 52000000 		.4byte	.LVL112
 9792 04da 54000000 		.4byte	.LVL113
 9793 04de 0800     		.2byte	0x8
 9794 04e0 74       		.byte	0x74
 9795 04e1 00       		.sleb128 0
 9796 04e2 06       		.byte	0x6
 9797 04e3 3E       		.byte	0x3e
 9798 04e4 24       		.byte	0x24
 9799 04e5 3E       		.byte	0x3e
 9800 04e6 25       		.byte	0x25
 9801 04e7 9F       		.byte	0x9f
 9802 04e8 7E000000 		.4byte	.LVL116
 9803 04ec 8C000000 		.4byte	.LVL117
 9804 04f0 0100     		.2byte	0x1
 9805 04f2 51       		.byte	0x51
 9806 04f3 8C000000 		.4byte	.LVL117
 9807 04f7 8E000000 		.4byte	.LVL118
 9808 04fb 0D00     		.2byte	0xd
 9809 04fd 74       		.byte	0x74
 9810 04fe 04       		.sleb128 4
 9811 04ff 94       		.byte	0x94
 9812 0500 02       		.byte	0x2
 9813 0501 0A       		.byte	0xa
 9814 0502 FFFF     		.2byte	0xffff
 9815 0504 1A       		.byte	0x1a
 9816 0505 43       		.byte	0x43
 9817 0506 24       		.byte	0x24
 9818 0507 43       		.byte	0x43
 9819 0508 25       		.byte	0x25
 9820 0509 9F       		.byte	0x9f
 9821 050a C6000000 		.4byte	.LVL122
 9822 050e D0000000 		.4byte	.LVL123
 9823 0512 0100     		.2byte	0x1
 9824 0514 51       		.byte	0x51
 9825 0515 D0000000 		.4byte	.LVL123
 9826 0519 E6000000 		.4byte	.LVL125
 9827 051d 0100     		.2byte	0x1
 9828 051f 53       		.byte	0x53
 9829 0520 E6000000 		.4byte	.LVL125
 9830 0524 EE000000 		.4byte	.LVL126
 9831 0528 2800     		.2byte	0x28
 9832 052a 74       		.byte	0x74
 9833 052b 0B       		.sleb128 11
ARM GAS  C:\Users\kiwamu\AppData\Local\Temp\ccIx7zyv.s 			page 239


 9834 052c 94       		.byte	0x94
 9835 052d 01       		.byte	0x1
 9836 052e 08       		.byte	0x8
 9837 052f FF       		.byte	0xff
 9838 0530 1A       		.byte	0x1a
 9839 0531 34       		.byte	0x34
 9840 0532 24       		.byte	0x24
 9841 0533 08       		.byte	0x8
 9842 0534 FF       		.byte	0xff
 9843 0535 1A       		.byte	0x1a
 9844 0536 74       		.byte	0x74
 9845 0537 0C       		.sleb128 12
 9846 0538 94       		.byte	0x94
 9847 0539 02       		.byte	0x2
 9848 053a 0A       		.byte	0xa
 9849 053b FFFF     		.2byte	0xffff
 9850 053d 1A       		.byte	0x1a
 9851 053e 38       		.byte	0x38
 9852 053f 24       		.byte	0x24
 9853 0540 0C       		.byte	0xc
 9854 0541 00FF1F00 		.4byte	0x1fff00
 9855 0545 1A       		.byte	0x1a
 9856 0546 21       		.byte	0x21
 9857 0547 74       		.byte	0x74
 9858 0548 0A       		.sleb128 10
 9859 0549 94       		.byte	0x94
 9860 054a 01       		.byte	0x1
 9861 054b 3F       		.byte	0x3f
 9862 054c 1A       		.byte	0x1a
 9863 054d 08       		.byte	0x8
 9864 054e FF       		.byte	0xff
 9865 054f 1A       		.byte	0x1a
 9866 0550 21       		.byte	0x21
 9867 0551 9F       		.byte	0x9f
 9868 0552 00000000 		.4byte	0
 9869 0556 00000000 		.4byte	0
 9870              	.LLST25:
 9871 055a 00000000 		.4byte	.LVL131
 9872 055e 2A000000 		.4byte	.LVL134
 9873 0562 0100     		.2byte	0x1
 9874 0564 50       		.byte	0x50
 9875 0565 2A000000 		.4byte	.LVL134
 9876 0569 4A000000 		.4byte	.LVL139
 9877 056d 0100     		.2byte	0x1
 9878 056f 54       		.byte	0x54
 9879 0570 4A000000 		.4byte	.LVL139
 9880 0574 4C000000 		.4byte	.LVL140
 9881 0578 0100     		.2byte	0x1
 9882 057a 50       		.byte	0x50
 9883 057b 4C000000 		.4byte	.LVL140
 9884 057f 4E000000 		.4byte	.LVL141
 9885 0583 0100     		.2byte	0x1
 9886 0585 54       		.byte	0x54
 9887 0586 4E000000 		.4byte	.LVL141
 9888 058a 50000000 		.4byte	.LVL142
 9889 058e 0100     		.2byte	0x1
 9890 0590 50       		.byte	0x50
ARM GAS  C:\Users\kiwamu\AppData\Local\Temp\ccIx7zyv.s 			page 240


 9891 0591 50000000 		.4byte	.LVL142
 9892 0595 B0000000 		.4byte	.LVL149
 9893 0599 0100     		.2byte	0x1
 9894 059b 54       		.byte	0x54
 9895 059c B0000000 		.4byte	.LVL149
 9896 05a0 86010000 		.4byte	.LVL173
 9897 05a4 0200     		.2byte	0x2
 9898 05a6 7D       		.byte	0x7d
 9899 05a7 00       		.sleb128 0
 9900 05a8 86010000 		.4byte	.LVL173
 9901 05ac FA020000 		.4byte	.LVL214
 9902 05b0 0400     		.2byte	0x4
 9903 05b2 F3       		.byte	0xf3
 9904 05b3 01       		.uleb128 0x1
 9905 05b4 50       		.byte	0x50
 9906 05b5 9F       		.byte	0x9f
 9907 05b6 FA020000 		.4byte	.LVL214
 9908 05ba FC020000 		.4byte	.LVL215
 9909 05be 0100     		.2byte	0x1
 9910 05c0 54       		.byte	0x54
 9911 05c1 FC020000 		.4byte	.LVL215
 9912 05c5 12030000 		.4byte	.LVL216
 9913 05c9 0200     		.2byte	0x2
 9914 05cb 7D       		.byte	0x7d
 9915 05cc 00       		.sleb128 0
 9916 05cd 12030000 		.4byte	.LVL216
 9917 05d1 60030000 		.4byte	.LFE143
 9918 05d5 0400     		.2byte	0x4
 9919 05d7 F3       		.byte	0xf3
 9920 05d8 01       		.uleb128 0x1
 9921 05d9 50       		.byte	0x50
 9922 05da 9F       		.byte	0x9f
 9923 05db 00000000 		.4byte	0
 9924 05df 00000000 		.4byte	0
 9925              	.LLST26:
 9926 05e3 00000000 		.4byte	.LVL131
 9927 05e7 2D000000 		.4byte	.LVL135-1
 9928 05eb 0100     		.2byte	0x1
 9929 05ed 51       		.byte	0x51
 9930 05ee 2D000000 		.4byte	.LVL135-1
 9931 05f2 4A000000 		.4byte	.LVL139
 9932 05f6 0100     		.2byte	0x1
 9933 05f8 55       		.byte	0x55
 9934 05f9 4A000000 		.4byte	.LVL139
 9935 05fd 52000000 		.4byte	.LVL143
 9936 0601 0100     		.2byte	0x1
 9937 0603 51       		.byte	0x51
 9938 0604 52000000 		.4byte	.LVL143
 9939 0608 8E020000 		.4byte	.LVL196
 9940 060c 0100     		.2byte	0x1
 9941 060e 55       		.byte	0x55
 9942 060f 8E020000 		.4byte	.LVL196
 9943 0613 FA020000 		.4byte	.LVL214
 9944 0617 0400     		.2byte	0x4
 9945 0619 F3       		.byte	0xf3
 9946 061a 01       		.uleb128 0x1
 9947 061b 51       		.byte	0x51
ARM GAS  C:\Users\kiwamu\AppData\Local\Temp\ccIx7zyv.s 			page 241


 9948 061c 9F       		.byte	0x9f
 9949 061d FA020000 		.4byte	.LVL214
 9950 0621 12030000 		.4byte	.LVL216
 9951 0625 0100     		.2byte	0x1
 9952 0627 55       		.byte	0x55
 9953 0628 12030000 		.4byte	.LVL216
 9954 062c 60030000 		.4byte	.LFE143
 9955 0630 0400     		.2byte	0x4
 9956 0632 F3       		.byte	0xf3
 9957 0633 01       		.uleb128 0x1
 9958 0634 51       		.byte	0x51
 9959 0635 9F       		.byte	0x9f
 9960 0636 00000000 		.4byte	0
 9961 063a 00000000 		.4byte	0
 9962              	.LLST27:
 9963 063e 00000000 		.4byte	.LVL131
 9964 0642 18000000 		.4byte	.LVL133
 9965 0646 0100     		.2byte	0x1
 9966 0648 52       		.byte	0x52
 9967 0649 18000000 		.4byte	.LVL133
 9968 064d 60030000 		.4byte	.LFE143
 9969 0651 0400     		.2byte	0x4
 9970 0653 F3       		.byte	0xf3
 9971 0654 01       		.uleb128 0x1
 9972 0655 52       		.byte	0x52
 9973 0656 9F       		.byte	0x9f
 9974 0657 00000000 		.4byte	0
 9975 065b 00000000 		.4byte	0
 9976              	.LLST28:
 9977 065f 12000000 		.4byte	.LVL132
 9978 0663 54000000 		.4byte	.LVL144
 9979 0667 0200     		.2byte	0x2
 9980 0669 30       		.byte	0x30
 9981 066a 9F       		.byte	0x9f
 9982 066b 54000000 		.4byte	.LVL144
 9983 066f 63000000 		.4byte	.LVL145-1
 9984 0673 0100     		.2byte	0x1
 9985 0675 50       		.byte	0x50
 9986 0676 F8020000 		.4byte	.LVL213
 9987 067a 60030000 		.4byte	.LFE143
 9988 067e 0100     		.2byte	0x1
 9989 0680 50       		.byte	0x50
 9990 0681 00000000 		.4byte	0
 9991 0685 00000000 		.4byte	0
 9992              	.LLST29:
 9993 0689 70000000 		.4byte	.LVL147
 9994 068d 32020000 		.4byte	.LVL182
 9995 0691 0100     		.2byte	0x1
 9996 0693 57       		.byte	0x57
 9997 0694 32020000 		.4byte	.LVL182
 9998 0698 8E020000 		.4byte	.LVL196
 9999 069c 0500     		.2byte	0x5
 10000 069e 75       		.byte	0x75
 10001 069f 00       		.sleb128 0
 10002 06a0 31       		.byte	0x31
 10003 06a1 24       		.byte	0x24
 10004 06a2 9F       		.byte	0x9f
ARM GAS  C:\Users\kiwamu\AppData\Local\Temp\ccIx7zyv.s 			page 242


 10005 06a3 8E020000 		.4byte	.LVL196
 10006 06a7 FA020000 		.4byte	.LVL214
 10007 06ab 0600     		.2byte	0x6
 10008 06ad F3       		.byte	0xf3
 10009 06ae 01       		.uleb128 0x1
 10010 06af 51       		.byte	0x51
 10011 06b0 31       		.byte	0x31
 10012 06b1 24       		.byte	0x24
 10013 06b2 9F       		.byte	0x9f
 10014 06b3 00000000 		.4byte	0
 10015 06b7 00000000 		.4byte	0
 10016              	.LLST30:
 10017 06bb 66000000 		.4byte	.LVL146
 10018 06bf A6000000 		.4byte	.LVL148
 10019 06c3 0B00     		.2byte	0xb
 10020 06c5 70       		.byte	0x70
 10021 06c6 00       		.sleb128 0
 10022 06c7 0A       		.byte	0xa
 10023 06c8 FFFF     		.2byte	0xffff
 10024 06ca 1A       		.byte	0x1a
 10025 06cb 0A       		.byte	0xa
 10026 06cc 1101     		.2byte	0x111
 10027 06ce 29       		.byte	0x29
 10028 06cf 9F       		.byte	0x9f
 10029 06d0 A6000000 		.4byte	.LVL148
 10030 06d4 FA020000 		.4byte	.LVL214
 10031 06d8 0B00     		.2byte	0xb
 10032 06da 78       		.byte	0x78
 10033 06db 00       		.sleb128 0
 10034 06dc 0A       		.byte	0xa
 10035 06dd FFFF     		.2byte	0xffff
 10036 06df 1A       		.byte	0x1a
 10037 06e0 0A       		.byte	0xa
 10038 06e1 1101     		.2byte	0x111
 10039 06e3 29       		.byte	0x29
 10040 06e4 9F       		.byte	0x9f
 10041 06e5 00000000 		.4byte	0
 10042 06e9 00000000 		.4byte	0
 10043              	.LLST31:
 10044 06ed 56010000 		.4byte	.LVL165
 10045 06f1 58010000 		.4byte	.LVL166
 10046 06f5 0100     		.2byte	0x1
 10047 06f7 50       		.byte	0x50
 10048 06f8 58010000 		.4byte	.LVL166
 10049 06fc FA020000 		.4byte	.LVL214
 10050 0700 0300     		.2byte	0x3
 10051 0702 91       		.byte	0x91
 10052 0703 EC7E     		.sleb128 -148
 10053 0705 00000000 		.4byte	0
 10054 0709 00000000 		.4byte	0
 10055              	.LLST32:
 10056 070d 86010000 		.4byte	.LVL173
 10057 0711 92010000 		.4byte	.LVL174
 10058 0715 0100     		.2byte	0x1
 10059 0717 50       		.byte	0x50
 10060 0718 92010000 		.4byte	.LVL174
 10061 071c FA020000 		.4byte	.LVL214
ARM GAS  C:\Users\kiwamu\AppData\Local\Temp\ccIx7zyv.s 			page 243


 10062 0720 0200     		.2byte	0x2
 10063 0722 7D       		.byte	0x7d
 10064 0723 00       		.sleb128 0
 10065 0724 00000000 		.4byte	0
 10066 0728 00000000 		.4byte	0
 10067              	.LLST33:
 10068 072c 7E020000 		.4byte	.LVL192
 10069 0730 80020000 		.4byte	.LVL193
 10070 0734 0100     		.2byte	0x1
 10071 0736 50       		.byte	0x50
 10072 0737 80020000 		.4byte	.LVL193
 10073 073b FA020000 		.4byte	.LVL214
 10074 073f 0100     		.2byte	0x1
 10075 0741 56       		.byte	0x56
 10076 0742 00000000 		.4byte	0
 10077 0746 00000000 		.4byte	0
 10078              	.LLST34:
 10079 074a 8E020000 		.4byte	.LVL196
 10080 074e 92020000 		.4byte	.LVL197
 10081 0752 0100     		.2byte	0x1
 10082 0754 50       		.byte	0x50
 10083 0755 92020000 		.4byte	.LVL197
 10084 0759 FA020000 		.4byte	.LVL214
 10085 075d 0100     		.2byte	0x1
 10086 075f 55       		.byte	0x55
 10087 0760 00000000 		.4byte	0
 10088 0764 00000000 		.4byte	0
 10089              	.LLST35:
 10090 0768 9C020000 		.4byte	.LVL200
 10091 076c A1020000 		.4byte	.LVL201-1
 10092 0770 0100     		.2byte	0x1
 10093 0772 50       		.byte	0x50
 10094 0773 A1020000 		.4byte	.LVL201-1
 10095 0777 FA020000 		.4byte	.LVL214
 10096 077b 0100     		.2byte	0x1
 10097 077d 54       		.byte	0x54
 10098 077e 00000000 		.4byte	0
 10099 0782 00000000 		.4byte	0
 10100              	.LLST36:
 10101 0786 B0020000 		.4byte	.LVL204
 10102 078a BC020000 		.4byte	.LVL205
 10103 078e 0100     		.2byte	0x1
 10104 0790 50       		.byte	0x50
 10105 0791 BC020000 		.4byte	.LVL205
 10106 0795 EE020000 		.4byte	.LVL211
 10107 0799 0100     		.2byte	0x1
 10108 079b 57       		.byte	0x57
 10109 079c EE020000 		.4byte	.LVL211
 10110 07a0 F0020000 		.4byte	.LVL212
 10111 07a4 0100     		.2byte	0x1
 10112 07a6 50       		.byte	0x50
 10113 07a7 F0020000 		.4byte	.LVL212
 10114 07ab FA020000 		.4byte	.LVL214
 10115 07af 0100     		.2byte	0x1
 10116 07b1 57       		.byte	0x57
 10117 07b2 00000000 		.4byte	0
 10118 07b6 00000000 		.4byte	0
ARM GAS  C:\Users\kiwamu\AppData\Local\Temp\ccIx7zyv.s 			page 244


 10119              	.LLST37:
 10120 07ba 00000000 		.4byte	.LVL217
 10121 07be 0C000000 		.4byte	.LVL218
 10122 07c2 0100     		.2byte	0x1
 10123 07c4 50       		.byte	0x50
 10124 07c5 0C000000 		.4byte	.LVL218
 10125 07c9 68000000 		.4byte	.LVL226
 10126 07cd 0100     		.2byte	0x1
 10127 07cf 54       		.byte	0x54
 10128 07d0 68000000 		.4byte	.LVL226
 10129 07d4 7C000000 		.4byte	.LFE145
 10130 07d8 0400     		.2byte	0x4
 10131 07da F3       		.byte	0xf3
 10132 07db 01       		.uleb128 0x1
 10133 07dc 50       		.byte	0x50
 10134 07dd 9F       		.byte	0x9f
 10135 07de 00000000 		.4byte	0
 10136 07e2 00000000 		.4byte	0
 10137              	.LLST38:
 10138 07e6 18000000 		.4byte	.LVL220
 10139 07ea 20000000 		.4byte	.LVL221
 10140 07ee 0100     		.2byte	0x1
 10141 07f0 53       		.byte	0x53
 10142 07f1 2A000000 		.4byte	.LVL222
 10143 07f5 32000000 		.4byte	.LVL223
 10144 07f9 0100     		.2byte	0x1
 10145 07fb 53       		.byte	0x53
 10146 07fc 3E000000 		.4byte	.LVL224
 10147 0800 56000000 		.4byte	.LVL225
 10148 0804 0100     		.2byte	0x1
 10149 0806 53       		.byte	0x53
 10150 0807 00000000 		.4byte	0
 10151 080b 00000000 		.4byte	0
 10152              	.LLST39:
 10153 080f 00000000 		.4byte	.LVL227
 10154 0813 0C000000 		.4byte	.LVL229
 10155 0817 0100     		.2byte	0x1
 10156 0819 50       		.byte	0x50
 10157 081a 0C000000 		.4byte	.LVL229
 10158 081e 16000000 		.4byte	.LVL230
 10159 0822 0100     		.2byte	0x1
 10160 0824 55       		.byte	0x55
 10161 0825 16000000 		.4byte	.LVL230
 10162 0829 BA000000 		.4byte	.LVL236
 10163 082d 0100     		.2byte	0x1
 10164 082f 54       		.byte	0x54
 10165 0830 00000000 		.4byte	0
 10166 0834 00000000 		.4byte	0
 10167              	.LLST40:
 10168 0838 04000000 		.4byte	.LVL228
 10169 083c 0C000000 		.4byte	.LVL229
 10170 0840 0500     		.2byte	0x5
 10171 0842 70       		.byte	0x70
 10172 0843 00       		.sleb128 0
 10173 0844 30       		.byte	0x30
 10174 0845 2E       		.byte	0x2e
 10175 0846 9F       		.byte	0x9f
ARM GAS  C:\Users\kiwamu\AppData\Local\Temp\ccIx7zyv.s 			page 245


 10176 0847 0C000000 		.4byte	.LVL229
 10177 084b BA000000 		.4byte	.LVL237
 10178 084f 0500     		.2byte	0x5
 10179 0851 75       		.byte	0x75
 10180 0852 00       		.sleb128 0
 10181 0853 30       		.byte	0x30
 10182 0854 2E       		.byte	0x2e
 10183 0855 9F       		.byte	0x9f
 10184 0856 BA000000 		.4byte	.LVL237
 10185 085a CC000000 		.4byte	.LFE146
 10186 085e 0600     		.2byte	0x6
 10187 0860 F3       		.byte	0xf3
 10188 0861 01       		.uleb128 0x1
 10189 0862 50       		.byte	0x50
 10190 0863 30       		.byte	0x30
 10191 0864 2E       		.byte	0x2e
 10192 0865 9F       		.byte	0x9f
 10193 0866 00000000 		.4byte	0
 10194 086a 00000000 		.4byte	0
 10195              	.LLST41:
 10196 086e 00000000 		.4byte	.LVL238
 10197 0872 12000000 		.4byte	.LVL240
 10198 0876 0100     		.2byte	0x1
 10199 0878 50       		.byte	0x50
 10200 0879 12000000 		.4byte	.LVL240
 10201 087d 50000000 		.4byte	.LVL241
 10202 0881 0100     		.2byte	0x1
 10203 0883 53       		.byte	0x53
 10204 0884 50000000 		.4byte	.LVL241
 10205 0888 52000000 		.4byte	.LVL242
 10206 088c 0100     		.2byte	0x1
 10207 088e 50       		.byte	0x50
 10208 088f 52000000 		.4byte	.LVL242
 10209 0893 B8000000 		.4byte	.LVL245
 10210 0897 0100     		.2byte	0x1
 10211 0899 53       		.byte	0x53
 10212 089a B8000000 		.4byte	.LVL245
 10213 089e BA000000 		.4byte	.LVL246
 10214 08a2 0400     		.2byte	0x4
 10215 08a4 73       		.byte	0x73
 10216 08a5 FF7E     		.sleb128 -129
 10217 08a7 9F       		.byte	0x9f
 10218 08a8 BA000000 		.4byte	.LVL246
 10219 08ac BC000000 		.4byte	.LVL247
 10220 08b0 0400     		.2byte	0x4
 10221 08b2 73       		.byte	0x73
 10222 08b3 807D     		.sleb128 -384
 10223 08b5 9F       		.byte	0x9f
 10224 08b6 BC000000 		.4byte	.LVL247
 10225 08ba D0000000 		.4byte	.LVL249
 10226 08be 0600     		.2byte	0x6
 10227 08c0 F3       		.byte	0xf3
 10228 08c1 01       		.uleb128 0x1
 10229 08c2 50       		.byte	0x50
 10230 08c3 31       		.byte	0x31
 10231 08c4 1C       		.byte	0x1c
 10232 08c5 9F       		.byte	0x9f
ARM GAS  C:\Users\kiwamu\AppData\Local\Temp\ccIx7zyv.s 			page 246


 10233 08c6 00000000 		.4byte	0
 10234 08ca 00000000 		.4byte	0
 10235              	.LLST42:
 10236 08ce 00000000 		.4byte	.LVL238
 10237 08d2 C8000000 		.4byte	.LVL248
 10238 08d6 0100     		.2byte	0x1
 10239 08d8 51       		.byte	0x51
 10240 08d9 C8000000 		.4byte	.LVL248
 10241 08dd E4000000 		.4byte	.LFE148
 10242 08e1 0400     		.2byte	0x4
 10243 08e3 F3       		.byte	0xf3
 10244 08e4 01       		.uleb128 0x1
 10245 08e5 51       		.byte	0x51
 10246 08e6 9F       		.byte	0x9f
 10247 08e7 00000000 		.4byte	0
 10248 08eb 00000000 		.4byte	0
 10249              	.LLST43:
 10250 08ef 04000000 		.4byte	.LVL239
 10251 08f3 6A000000 		.4byte	.LVL243
 10252 08f7 0200     		.2byte	0x2
 10253 08f9 30       		.byte	0x30
 10254 08fa 9F       		.byte	0x9f
 10255 08fb 6A000000 		.4byte	.LVL243
 10256 08ff E4000000 		.4byte	.LFE148
 10257 0903 0100     		.2byte	0x1
 10258 0905 50       		.byte	0x50
 10259 0906 00000000 		.4byte	0
 10260 090a 00000000 		.4byte	0
 10261              	.LLST44:
 10262 090e 00000000 		.4byte	.LVL250
 10263 0912 4E000000 		.4byte	.LVL252
 10264 0916 0100     		.2byte	0x1
 10265 0918 50       		.byte	0x50
 10266 0919 4E000000 		.4byte	.LVL252
 10267 091d 50000000 		.4byte	.LVL253
 10268 0921 0100     		.2byte	0x1
 10269 0923 59       		.byte	0x59
 10270 0924 50000000 		.4byte	.LVL253
 10271 0928 52000000 		.4byte	.LVL254
 10272 092c 0100     		.2byte	0x1
 10273 092e 50       		.byte	0x50
 10274 092f 52000000 		.4byte	.LVL254
 10275 0933 54000000 		.4byte	.LVL255
 10276 0937 0100     		.2byte	0x1
 10277 0939 53       		.byte	0x53
 10278 093a 54000000 		.4byte	.LVL255
 10279 093e 56000000 		.4byte	.LVL256
 10280 0942 0100     		.2byte	0x1
 10281 0944 50       		.byte	0x50
 10282 0945 56000000 		.4byte	.LVL256
 10283 0949 58000000 		.4byte	.LVL257
 10284 094d 0100     		.2byte	0x1
 10285 094f 59       		.byte	0x59
 10286 0950 58000000 		.4byte	.LVL257
 10287 0954 5A000000 		.4byte	.LVL258
 10288 0958 0100     		.2byte	0x1
 10289 095a 50       		.byte	0x50
ARM GAS  C:\Users\kiwamu\AppData\Local\Temp\ccIx7zyv.s 			page 247


 10290 095b 5A000000 		.4byte	.LVL258
 10291 095f 5C000000 		.4byte	.LVL259
 10292 0963 0100     		.2byte	0x1
 10293 0965 59       		.byte	0x59
 10294 0966 5C000000 		.4byte	.LVL259
 10295 096a 5E000000 		.4byte	.LVL260
 10296 096e 0100     		.2byte	0x1
 10297 0970 50       		.byte	0x50
 10298 0971 5E000000 		.4byte	.LVL260
 10299 0975 60000000 		.4byte	.LVL261
 10300 0979 0100     		.2byte	0x1
 10301 097b 59       		.byte	0x59
 10302 097c 60000000 		.4byte	.LVL261
 10303 0980 62000000 		.4byte	.LVL262
 10304 0984 0100     		.2byte	0x1
 10305 0986 50       		.byte	0x50
 10306 0987 62000000 		.4byte	.LVL262
 10307 098b 4A010000 		.4byte	.LVL284
 10308 098f 0100     		.2byte	0x1
 10309 0991 59       		.byte	0x59
 10310 0992 4A010000 		.4byte	.LVL284
 10311 0996 84010000 		.4byte	.LFE147
 10312 099a 0400     		.2byte	0x4
 10313 099c F3       		.byte	0xf3
 10314 099d 01       		.uleb128 0x1
 10315 099e 50       		.byte	0x50
 10316 099f 9F       		.byte	0x9f
 10317 09a0 00000000 		.4byte	0
 10318 09a4 00000000 		.4byte	0
 10319              	.LLST45:
 10320 09a8 00000000 		.4byte	.LVL250
 10321 09ac 7A000000 		.4byte	.LVL263
 10322 09b0 0100     		.2byte	0x1
 10323 09b2 51       		.byte	0x51
 10324 09b3 7A000000 		.4byte	.LVL263
 10325 09b7 20010000 		.4byte	.LVL279
 10326 09bb 0100     		.2byte	0x1
 10327 09bd 57       		.byte	0x57
 10328 09be 20010000 		.4byte	.LVL279
 10329 09c2 28010000 		.4byte	.LVL280
 10330 09c6 0100     		.2byte	0x1
 10331 09c8 51       		.byte	0x51
 10332 09c9 28010000 		.4byte	.LVL280
 10333 09cd 4A010000 		.4byte	.LVL283
 10334 09d1 0100     		.2byte	0x1
 10335 09d3 57       		.byte	0x57
 10336 09d4 4A010000 		.4byte	.LVL283
 10337 09d8 84010000 		.4byte	.LFE147
 10338 09dc 0400     		.2byte	0x4
 10339 09de F3       		.byte	0xf3
 10340 09df 01       		.uleb128 0x1
 10341 09e0 51       		.byte	0x51
 10342 09e1 9F       		.byte	0x9f
 10343 09e2 00000000 		.4byte	0
 10344 09e6 00000000 		.4byte	0
 10345              	.LLST46:
 10346 09ea 12000000 		.4byte	.LVL251
ARM GAS  C:\Users\kiwamu\AppData\Local\Temp\ccIx7zyv.s 			page 248


 10347 09ee 62000000 		.4byte	.LVL262
 10348 09f2 0200     		.2byte	0x2
 10349 09f4 30       		.byte	0x30
 10350 09f5 9F       		.byte	0x9f
 10351 09f6 62000000 		.4byte	.LVL262
 10352 09fa 7A000000 		.4byte	.LVL263
 10353 09fe 0100     		.2byte	0x1
 10354 0a00 50       		.byte	0x50
 10355 0a01 20010000 		.4byte	.LVL279
 10356 0a05 28010000 		.4byte	.LVL280
 10357 0a09 0100     		.2byte	0x1
 10358 0a0b 50       		.byte	0x50
 10359 0a0c 48010000 		.4byte	.LVL282
 10360 0a10 84010000 		.4byte	.LFE147
 10361 0a14 0100     		.2byte	0x1
 10362 0a16 50       		.byte	0x50
 10363 0a17 00000000 		.4byte	0
 10364 0a1b 00000000 		.4byte	0
 10365              	.LLST47:
 10366 0a1f 8A000000 		.4byte	.LVL265
 10367 0a23 20010000 		.4byte	.LVL279
 10368 0a27 0100     		.2byte	0x1
 10369 0a29 56       		.byte	0x56
 10370 0a2a 00000000 		.4byte	0
 10371 0a2e 00000000 		.4byte	0
 10372              	.LLST48:
 10373 0a32 7A000000 		.4byte	.LVL263
 10374 0a36 7C000000 		.4byte	.LVL264
 10375 0a3a 0100     		.2byte	0x1
 10376 0a3c 53       		.byte	0x53
 10377 0a3d 7C000000 		.4byte	.LVL264
 10378 0a41 1E010000 		.4byte	.LVL278
 10379 0a45 0200     		.2byte	0x2
 10380 0a47 91       		.byte	0x91
 10381 0a48 4C       		.sleb128 -52
 10382 0a49 1E010000 		.4byte	.LVL278
 10383 0a4d 20010000 		.4byte	.LVL279
 10384 0a51 0100     		.2byte	0x1
 10385 0a53 53       		.byte	0x53
 10386 0a54 28010000 		.4byte	.LVL280
 10387 0a58 34010000 		.4byte	.LVL281
 10388 0a5c 0200     		.2byte	0x2
 10389 0a5e 91       		.byte	0x91
 10390 0a5f 4C       		.sleb128 -52
 10391 0a60 00000000 		.4byte	0
 10392 0a64 00000000 		.4byte	0
 10393              	.LLST49:
 10394 0a68 C0000000 		.4byte	.LVL268
 10395 0a6c F8000000 		.4byte	.LVL274
 10396 0a70 0100     		.2byte	0x1
 10397 0a72 54       		.byte	0x54
 10398 0a73 FA000000 		.4byte	.LVL275
 10399 0a77 02010000 		.4byte	.LVL276
 10400 0a7b 0100     		.2byte	0x1
 10401 0a7d 54       		.byte	0x54
 10402 0a7e 00000000 		.4byte	0
 10403 0a82 00000000 		.4byte	0
ARM GAS  C:\Users\kiwamu\AppData\Local\Temp\ccIx7zyv.s 			page 249


 10404              	.LLST50:
 10405 0a86 7A000000 		.4byte	.LVL263
 10406 0a8a E6000000 		.4byte	.LVL271
 10407 0a8e 0100     		.2byte	0x1
 10408 0a90 58       		.byte	0x58
 10409 0a91 E6000000 		.4byte	.LVL271
 10410 0a95 F4000000 		.4byte	.LVL272
 10411 0a99 0100     		.2byte	0x1
 10412 0a9b 50       		.byte	0x50
 10413 0a9c F4000000 		.4byte	.LVL272
 10414 0aa0 20010000 		.4byte	.LVL279
 10415 0aa4 0100     		.2byte	0x1
 10416 0aa6 58       		.byte	0x58
 10417 0aa7 28010000 		.4byte	.LVL280
 10418 0aab 34010000 		.4byte	.LVL281
 10419 0aaf 0100     		.2byte	0x1
 10420 0ab1 58       		.byte	0x58
 10421 0ab2 00000000 		.4byte	0
 10422 0ab6 00000000 		.4byte	0
 10423              	.LLST51:
 10424 0aba D0000000 		.4byte	.LVL270
 10425 0abe F8000000 		.4byte	.LVL274
 10426 0ac2 0100     		.2byte	0x1
 10427 0ac4 50       		.byte	0x50
 10428 0ac5 00000000 		.4byte	0
 10429 0ac9 00000000 		.4byte	0
 10430              	.LLST52:
 10431 0acd 00000000 		.4byte	.LVL285
 10432 0ad1 06000000 		.4byte	.LVL286
 10433 0ad5 0100     		.2byte	0x1
 10434 0ad7 50       		.byte	0x50
 10435 0ad8 06000000 		.4byte	.LVL286
 10436 0adc 08000000 		.4byte	.LVL287
 10437 0ae0 0400     		.2byte	0x4
 10438 0ae2 70       		.byte	0x70
 10439 0ae3 807F     		.sleb128 -128
 10440 0ae5 9F       		.byte	0x9f
 10441 0ae6 08000000 		.4byte	.LVL287
 10442 0aea 0A000000 		.4byte	.LVL288
 10443 0aee 0400     		.2byte	0x4
 10444 0af0 70       		.byte	0x70
 10445 0af1 817D     		.sleb128 -383
 10446 0af3 9F       		.byte	0x9f
 10447 0af4 0A000000 		.4byte	.LVL288
 10448 0af8 38000000 		.4byte	.LVL292
 10449 0afc 0400     		.2byte	0x4
 10450 0afe F3       		.byte	0xf3
 10451 0aff 01       		.uleb128 0x1
 10452 0b00 50       		.byte	0x50
 10453 0b01 9F       		.byte	0x9f
 10454 0b02 38000000 		.4byte	.LVL292
 10455 0b06 3A000000 		.4byte	.LVL293
 10456 0b0a 0100     		.2byte	0x1
 10457 0b0c 50       		.byte	0x50
 10458 0b0d 3A000000 		.4byte	.LVL293
 10459 0b11 44000000 		.4byte	.LFE149
 10460 0b15 0400     		.2byte	0x4
ARM GAS  C:\Users\kiwamu\AppData\Local\Temp\ccIx7zyv.s 			page 250


 10461 0b17 F3       		.byte	0xf3
 10462 0b18 01       		.uleb128 0x1
 10463 0b19 50       		.byte	0x50
 10464 0b1a 9F       		.byte	0x9f
 10465 0b1b 00000000 		.4byte	0
 10466 0b1f 00000000 		.4byte	0
 10467              	.LLST53:
 10468 0b23 00000000 		.4byte	.LVL285
 10469 0b27 34000000 		.4byte	.LVL291
 10470 0b2b 0600     		.2byte	0x6
 10471 0b2d 0C       		.byte	0xc
 10472 0b2e 01004A00 		.4byte	0x4a0001
 10473 0b32 9F       		.byte	0x9f
 10474 0b33 34000000 		.4byte	.LVL291
 10475 0b37 38000000 		.4byte	.LVL292
 10476 0b3b 0200     		.2byte	0x2
 10477 0b3d 30       		.byte	0x30
 10478 0b3e 9F       		.byte	0x9f
 10479 0b3f 38000000 		.4byte	.LVL292
 10480 0b43 3A000000 		.4byte	.LVL293
 10481 0b47 0600     		.2byte	0x6
 10482 0b49 0C       		.byte	0xc
 10483 0b4a 01004A00 		.4byte	0x4a0001
 10484 0b4e 9F       		.byte	0x9f
 10485 0b4f 3A000000 		.4byte	.LVL293
 10486 0b53 44000000 		.4byte	.LFE149
 10487 0b57 0100     		.2byte	0x1
 10488 0b59 50       		.byte	0x50
 10489 0b5a 00000000 		.4byte	0
 10490 0b5e 00000000 		.4byte	0
 10491              	.LLST54:
 10492 0b62 0E000000 		.4byte	.LVL289
 10493 0b66 2E000000 		.4byte	.LVL290
 10494 0b6a 0100     		.2byte	0x1
 10495 0b6c 53       		.byte	0x53
 10496 0b6d 00000000 		.4byte	0
 10497 0b71 00000000 		.4byte	0
 10498              	.LLST55:
 10499 0b75 00000000 		.4byte	.LVL294
 10500 0b79 0A000000 		.4byte	.LVL296
 10501 0b7d 0100     		.2byte	0x1
 10502 0b7f 50       		.byte	0x50
 10503 0b80 0A000000 		.4byte	.LVL296
 10504 0b84 42000000 		.4byte	.LVL300
 10505 0b88 0100     		.2byte	0x1
 10506 0b8a 55       		.byte	0x55
 10507 0b8b 42000000 		.4byte	.LVL300
 10508 0b8f 44000000 		.4byte	.LVL301
 10509 0b93 0100     		.2byte	0x1
 10510 0b95 50       		.byte	0x50
 10511 0b96 44000000 		.4byte	.LVL301
 10512 0b9a 46000000 		.4byte	.LVL302
 10513 0b9e 0400     		.2byte	0x4
 10514 0ba0 F3       		.byte	0xf3
 10515 0ba1 01       		.uleb128 0x1
 10516 0ba2 50       		.byte	0x50
 10517 0ba3 9F       		.byte	0x9f
ARM GAS  C:\Users\kiwamu\AppData\Local\Temp\ccIx7zyv.s 			page 251


 10518 0ba4 46000000 		.4byte	.LVL302
 10519 0ba8 48000000 		.4byte	.LVL303
 10520 0bac 0100     		.2byte	0x1
 10521 0bae 55       		.byte	0x55
 10522 0baf 00000000 		.4byte	0
 10523 0bb3 00000000 		.4byte	0
 10524              	.LLST56:
 10525 0bb7 00000000 		.4byte	.LVL294
 10526 0bbb 16000000 		.4byte	.LVL297
 10527 0bbf 0100     		.2byte	0x1
 10528 0bc1 51       		.byte	0x51
 10529 0bc2 16000000 		.4byte	.LVL297
 10530 0bc6 42000000 		.4byte	.LVL300
 10531 0bca 0100     		.2byte	0x1
 10532 0bcc 54       		.byte	0x54
 10533 0bcd 42000000 		.4byte	.LVL300
 10534 0bd1 46000000 		.4byte	.LVL302
 10535 0bd5 0100     		.2byte	0x1
 10536 0bd7 51       		.byte	0x51
 10537 0bd8 46000000 		.4byte	.LVL302
 10538 0bdc 48000000 		.4byte	.LVL304
 10539 0be0 0100     		.2byte	0x1
 10540 0be2 54       		.byte	0x54
 10541 0be3 00000000 		.4byte	0
 10542 0be7 00000000 		.4byte	0
 10543              	.LLST57:
 10544 0beb 04000000 		.4byte	.LVL295
 10545 0bef 48000000 		.4byte	.LVL303
 10546 0bf3 0600     		.2byte	0x6
 10547 0bf5 0C       		.byte	0xc
 10548 0bf6 01004A00 		.4byte	0x4a0001
 10549 0bfa 9F       		.byte	0x9f
 10550 0bfb 48000000 		.4byte	.LVL303
 10551 0bff 58000000 		.4byte	.LFE150
 10552 0c03 0100     		.2byte	0x1
 10553 0c05 50       		.byte	0x50
 10554 0c06 00000000 		.4byte	0
 10555 0c0a 00000000 		.4byte	0
 10556              	.LLST58:
 10557 0c0e 00000000 		.4byte	.LVL305
 10558 0c12 46000000 		.4byte	.LVL308
 10559 0c16 0100     		.2byte	0x1
 10560 0c18 50       		.byte	0x50
 10561 0c19 46000000 		.4byte	.LVL308
 10562 0c1d 58000000 		.4byte	.LVL309
 10563 0c21 0400     		.2byte	0x4
 10564 0c23 F3       		.byte	0xf3
 10565 0c24 01       		.uleb128 0x1
 10566 0c25 50       		.byte	0x50
 10567 0c26 9F       		.byte	0x9f
 10568 0c27 58000000 		.4byte	.LVL309
 10569 0c2b 6A000000 		.4byte	.LVL310
 10570 0c2f 0100     		.2byte	0x1
 10571 0c31 50       		.byte	0x50
 10572 0c32 6A000000 		.4byte	.LVL310
 10573 0c36 70000000 		.4byte	.LVL311
 10574 0c3a 0400     		.2byte	0x4
ARM GAS  C:\Users\kiwamu\AppData\Local\Temp\ccIx7zyv.s 			page 252


 10575 0c3c F3       		.byte	0xf3
 10576 0c3d 01       		.uleb128 0x1
 10577 0c3e 50       		.byte	0x50
 10578 0c3f 9F       		.byte	0x9f
 10579 0c40 70000000 		.4byte	.LVL311
 10580 0c44 9C000000 		.4byte	.LVL312
 10581 0c48 0100     		.2byte	0x1
 10582 0c4a 50       		.byte	0x50
 10583 0c4b 9C000000 		.4byte	.LVL312
 10584 0c4f A8000000 		.4byte	.LVL313
 10585 0c53 0400     		.2byte	0x4
 10586 0c55 F3       		.byte	0xf3
 10587 0c56 01       		.uleb128 0x1
 10588 0c57 50       		.byte	0x50
 10589 0c58 9F       		.byte	0x9f
 10590 0c59 A8000000 		.4byte	.LVL313
 10591 0c5d B4000000 		.4byte	.LVL314
 10592 0c61 0100     		.2byte	0x1
 10593 0c63 50       		.byte	0x50
 10594 0c64 B4000000 		.4byte	.LVL314
 10595 0c68 60010000 		.4byte	.LVL323
 10596 0c6c 0400     		.2byte	0x4
 10597 0c6e F3       		.byte	0xf3
 10598 0c6f 01       		.uleb128 0x1
 10599 0c70 50       		.byte	0x50
 10600 0c71 9F       		.byte	0x9f
 10601 0c72 60010000 		.4byte	.LVL323
 10602 0c76 62010000 		.4byte	.LVL324
 10603 0c7a 0100     		.2byte	0x1
 10604 0c7c 50       		.byte	0x50
 10605 0c7d 62010000 		.4byte	.LVL324
 10606 0c81 64010000 		.4byte	.LVL325
 10607 0c85 0400     		.2byte	0x4
 10608 0c87 F3       		.byte	0xf3
 10609 0c88 01       		.uleb128 0x1
 10610 0c89 50       		.byte	0x50
 10611 0c8a 9F       		.byte	0x9f
 10612 0c8b 64010000 		.4byte	.LVL325
 10613 0c8f 66010000 		.4byte	.LVL326
 10614 0c93 0100     		.2byte	0x1
 10615 0c95 50       		.byte	0x50
 10616 0c96 66010000 		.4byte	.LVL326
 10617 0c9a 68010000 		.4byte	.LVL327
 10618 0c9e 0400     		.2byte	0x4
 10619 0ca0 F3       		.byte	0xf3
 10620 0ca1 01       		.uleb128 0x1
 10621 0ca2 50       		.byte	0x50
 10622 0ca3 9F       		.byte	0x9f
 10623 0ca4 68010000 		.4byte	.LVL327
 10624 0ca8 6A010000 		.4byte	.LVL328
 10625 0cac 0100     		.2byte	0x1
 10626 0cae 50       		.byte	0x50
 10627 0caf 6A010000 		.4byte	.LVL328
 10628 0cb3 6C010000 		.4byte	.LVL329
 10629 0cb7 0400     		.2byte	0x4
 10630 0cb9 F3       		.byte	0xf3
 10631 0cba 01       		.uleb128 0x1
ARM GAS  C:\Users\kiwamu\AppData\Local\Temp\ccIx7zyv.s 			page 253


 10632 0cbb 50       		.byte	0x50
 10633 0cbc 9F       		.byte	0x9f
 10634 0cbd 6C010000 		.4byte	.LVL329
 10635 0cc1 6E010000 		.4byte	.LVL330
 10636 0cc5 0100     		.2byte	0x1
 10637 0cc7 50       		.byte	0x50
 10638 0cc8 6E010000 		.4byte	.LVL330
 10639 0ccc A8010000 		.4byte	.LFE151
 10640 0cd0 0400     		.2byte	0x4
 10641 0cd2 F3       		.byte	0xf3
 10642 0cd3 01       		.uleb128 0x1
 10643 0cd4 50       		.byte	0x50
 10644 0cd5 9F       		.byte	0x9f
 10645 0cd6 00000000 		.4byte	0
 10646 0cda 00000000 		.4byte	0
 10647              	.LLST59:
 10648 0cde 00000000 		.4byte	.LVL305
 10649 0ce2 D0000000 		.4byte	.LVL315
 10650 0ce6 0100     		.2byte	0x1
 10651 0ce8 52       		.byte	0x52
 10652 0ce9 D0000000 		.4byte	.LVL315
 10653 0ced EA000000 		.4byte	.LVL316
 10654 0cf1 0400     		.2byte	0x4
 10655 0cf3 F3       		.byte	0xf3
 10656 0cf4 01       		.uleb128 0x1
 10657 0cf5 52       		.byte	0x52
 10658 0cf6 9F       		.byte	0x9f
 10659 0cf7 EA000000 		.4byte	.LVL316
 10660 0cfb FC000000 		.4byte	.LVL317
 10661 0cff 0100     		.2byte	0x1
 10662 0d01 52       		.byte	0x52
 10663 0d02 FC000000 		.4byte	.LVL317
 10664 0d06 08010000 		.4byte	.LVL318
 10665 0d0a 0400     		.2byte	0x4
 10666 0d0c F3       		.byte	0xf3
 10667 0d0d 01       		.uleb128 0x1
 10668 0d0e 52       		.byte	0x52
 10669 0d0f 9F       		.byte	0x9f
 10670 0d10 08010000 		.4byte	.LVL318
 10671 0d14 2E010000 		.4byte	.LVL319
 10672 0d18 0100     		.2byte	0x1
 10673 0d1a 52       		.byte	0x52
 10674 0d1b 2E010000 		.4byte	.LVL319
 10675 0d1f 3C010000 		.4byte	.LVL320
 10676 0d23 0400     		.2byte	0x4
 10677 0d25 F3       		.byte	0xf3
 10678 0d26 01       		.uleb128 0x1
 10679 0d27 52       		.byte	0x52
 10680 0d28 9F       		.byte	0x9f
 10681 0d29 3C010000 		.4byte	.LVL320
 10682 0d2d 48010000 		.4byte	.LVL321
 10683 0d31 0100     		.2byte	0x1
 10684 0d33 52       		.byte	0x52
 10685 0d34 48010000 		.4byte	.LVL321
 10686 0d38 60010000 		.4byte	.LVL323
 10687 0d3c 0400     		.2byte	0x4
 10688 0d3e F3       		.byte	0xf3
ARM GAS  C:\Users\kiwamu\AppData\Local\Temp\ccIx7zyv.s 			page 254


 10689 0d3f 01       		.uleb128 0x1
 10690 0d40 52       		.byte	0x52
 10691 0d41 9F       		.byte	0x9f
 10692 0d42 60010000 		.4byte	.LVL323
 10693 0d46 6E010000 		.4byte	.LVL330
 10694 0d4a 0100     		.2byte	0x1
 10695 0d4c 52       		.byte	0x52
 10696 0d4d 6E010000 		.4byte	.LVL330
 10697 0d51 A8010000 		.4byte	.LFE151
 10698 0d55 0400     		.2byte	0x4
 10699 0d57 F3       		.byte	0xf3
 10700 0d58 01       		.uleb128 0x1
 10701 0d59 52       		.byte	0x52
 10702 0d5a 9F       		.byte	0x9f
 10703 0d5b 00000000 		.4byte	0
 10704 0d5f 00000000 		.4byte	0
 10705              	.LLST60:
 10706 0d63 02000000 		.4byte	.LVL306
 10707 0d67 16000000 		.4byte	.LVL307
 10708 0d6b 0600     		.2byte	0x6
 10709 0d6d 0C       		.byte	0xc
 10710 0d6e 03004A00 		.4byte	0x4a0003
 10711 0d72 9F       		.byte	0x9f
 10712 0d73 16000000 		.4byte	.LVL307
 10713 0d77 52010000 		.4byte	.LVL322
 10714 0d7b 0600     		.2byte	0x6
 10715 0d7d 0C       		.byte	0xc
 10716 0d7e 01004A00 		.4byte	0x4a0001
 10717 0d82 9F       		.byte	0x9f
 10718 0d83 52010000 		.4byte	.LVL322
 10719 0d87 60010000 		.4byte	.LVL323
 10720 0d8b 0200     		.2byte	0x2
 10721 0d8d 30       		.byte	0x30
 10722 0d8e 9F       		.byte	0x9f
 10723 0d8f 60010000 		.4byte	.LVL323
 10724 0d93 64010000 		.4byte	.LVL325
 10725 0d97 0600     		.2byte	0x6
 10726 0d99 0C       		.byte	0xc
 10727 0d9a 03004A00 		.4byte	0x4a0003
 10728 0d9e 9F       		.byte	0x9f
 10729 0d9f 64010000 		.4byte	.LVL325
 10730 0da3 6E010000 		.4byte	.LVL330
 10731 0da7 0600     		.2byte	0x6
 10732 0da9 0C       		.byte	0xc
 10733 0daa 01004A00 		.4byte	0x4a0001
 10734 0dae 9F       		.byte	0x9f
 10735 0daf 6E010000 		.4byte	.LVL330
 10736 0db3 A8010000 		.4byte	.LFE151
 10737 0db7 0100     		.2byte	0x1
 10738 0db9 50       		.byte	0x50
 10739 0dba 00000000 		.4byte	0
 10740 0dbe 00000000 		.4byte	0
 10741              	.LLST61:
 10742 0dc2 00000000 		.4byte	.LVL331
 10743 0dc6 2C000000 		.4byte	.LVL332
 10744 0dca 0100     		.2byte	0x1
 10745 0dcc 50       		.byte	0x50
ARM GAS  C:\Users\kiwamu\AppData\Local\Temp\ccIx7zyv.s 			page 255


 10746 0dcd 2C000000 		.4byte	.LVL332
 10747 0dd1 54000000 		.4byte	.LVL336
 10748 0dd5 0400     		.2byte	0x4
 10749 0dd7 F3       		.byte	0xf3
 10750 0dd8 01       		.uleb128 0x1
 10751 0dd9 50       		.byte	0x50
 10752 0dda 9F       		.byte	0x9f
 10753 0ddb 54000000 		.4byte	.LVL336
 10754 0ddf 5A000000 		.4byte	.LVL337
 10755 0de3 0100     		.2byte	0x1
 10756 0de5 50       		.byte	0x50
 10757 0de6 5A000000 		.4byte	.LVL337
 10758 0dea 88000000 		.4byte	.LFE152
 10759 0dee 0400     		.2byte	0x4
 10760 0df0 F3       		.byte	0xf3
 10761 0df1 01       		.uleb128 0x1
 10762 0df2 50       		.byte	0x50
 10763 0df3 9F       		.byte	0x9f
 10764 0df4 00000000 		.4byte	0
 10765 0df8 00000000 		.4byte	0
 10766              	.LLST62:
 10767 0dfc 00000000 		.4byte	.LVL331
 10768 0e00 32000000 		.4byte	.LVL333
 10769 0e04 0100     		.2byte	0x1
 10770 0e06 51       		.byte	0x51
 10771 0e07 32000000 		.4byte	.LVL333
 10772 0e0b 35000000 		.4byte	.LVL334-1
 10773 0e0f 0100     		.2byte	0x1
 10774 0e11 52       		.byte	0x52
 10775 0e12 35000000 		.4byte	.LVL334-1
 10776 0e16 54000000 		.4byte	.LVL336
 10777 0e1a 0400     		.2byte	0x4
 10778 0e1c F3       		.byte	0xf3
 10779 0e1d 01       		.uleb128 0x1
 10780 0e1e 51       		.byte	0x51
 10781 0e1f 9F       		.byte	0x9f
 10782 0e20 54000000 		.4byte	.LVL336
 10783 0e24 5C000000 		.4byte	.LVL338
 10784 0e28 0100     		.2byte	0x1
 10785 0e2a 51       		.byte	0x51
 10786 0e2b 5C000000 		.4byte	.LVL338
 10787 0e2f 5F000000 		.4byte	.LVL339-1
 10788 0e33 0100     		.2byte	0x1
 10789 0e35 50       		.byte	0x50
 10790 0e36 5F000000 		.4byte	.LVL339-1
 10791 0e3a 88000000 		.4byte	.LFE152
 10792 0e3e 0400     		.2byte	0x4
 10793 0e40 F3       		.byte	0xf3
 10794 0e41 01       		.uleb128 0x1
 10795 0e42 51       		.byte	0x51
 10796 0e43 9F       		.byte	0x9f
 10797 0e44 00000000 		.4byte	0
 10798 0e48 00000000 		.4byte	0
 10799              	.LLST63:
 10800 0e4c 00000000 		.4byte	.LVL341
 10801 0e50 2C000000 		.4byte	.LVL346
 10802 0e54 0100     		.2byte	0x1
ARM GAS  C:\Users\kiwamu\AppData\Local\Temp\ccIx7zyv.s 			page 256


 10803 0e56 50       		.byte	0x50
 10804 0e57 2C000000 		.4byte	.LVL346
 10805 0e5b 33000000 		.4byte	.LVL347-1
 10806 0e5f 0500     		.2byte	0x5
 10807 0e61 70       		.byte	0x70
 10808 0e62 8AFE01   		.sleb128 32522
 10809 0e65 9F       		.byte	0x9f
 10810 0e66 33000000 		.4byte	.LVL347-1
 10811 0e6a 38000000 		.4byte	.LVL349
 10812 0e6e 0400     		.2byte	0x4
 10813 0e70 F3       		.byte	0xf3
 10814 0e71 01       		.uleb128 0x1
 10815 0e72 50       		.byte	0x50
 10816 0e73 9F       		.byte	0x9f
 10817 0e74 38000000 		.4byte	.LVL349
 10818 0e78 3C000000 		.4byte	.LVL350
 10819 0e7c 0100     		.2byte	0x1
 10820 0e7e 50       		.byte	0x50
 10821 0e7f 3C000000 		.4byte	.LVL350
 10822 0e83 58000000 		.4byte	.LVL353
 10823 0e87 0400     		.2byte	0x4
 10824 0e89 F3       		.byte	0xf3
 10825 0e8a 01       		.uleb128 0x1
 10826 0e8b 50       		.byte	0x50
 10827 0e8c 9F       		.byte	0x9f
 10828 0e8d 58000000 		.4byte	.LVL353
 10829 0e91 5C000000 		.4byte	.LVL354
 10830 0e95 0100     		.2byte	0x1
 10831 0e97 50       		.byte	0x50
 10832 0e98 5C000000 		.4byte	.LVL354
 10833 0e9c 74000000 		.4byte	.LFE153
 10834 0ea0 0400     		.2byte	0x4
 10835 0ea2 F3       		.byte	0xf3
 10836 0ea3 01       		.uleb128 0x1
 10837 0ea4 50       		.byte	0x50
 10838 0ea5 9F       		.byte	0x9f
 10839 0ea6 00000000 		.4byte	0
 10840 0eaa 00000000 		.4byte	0
 10841              	.LLST64:
 10842 0eae 02000000 		.4byte	.LVL342
 10843 0eb2 36000000 		.4byte	.LVL348
 10844 0eb6 0200     		.2byte	0x2
 10845 0eb8 30       		.byte	0x30
 10846 0eb9 9F       		.byte	0x9f
 10847 0eba 36000000 		.4byte	.LVL348
 10848 0ebe 38000000 		.4byte	.LVL349
 10849 0ec2 0100     		.2byte	0x1
 10850 0ec4 50       		.byte	0x50
 10851 0ec5 38000000 		.4byte	.LVL349
 10852 0ec9 46000000 		.4byte	.LVL352
 10853 0ecd 0200     		.2byte	0x2
 10854 0ecf 30       		.byte	0x30
 10855 0ed0 9F       		.byte	0x9f
 10856 0ed1 46000000 		.4byte	.LVL352
 10857 0ed5 58000000 		.4byte	.LVL353
 10858 0ed9 0100     		.2byte	0x1
 10859 0edb 50       		.byte	0x50
ARM GAS  C:\Users\kiwamu\AppData\Local\Temp\ccIx7zyv.s 			page 257


 10860 0edc 58000000 		.4byte	.LVL353
 10861 0ee0 5C000000 		.4byte	.LVL354
 10862 0ee4 0200     		.2byte	0x2
 10863 0ee6 30       		.byte	0x30
 10864 0ee7 9F       		.byte	0x9f
 10865 0ee8 5C000000 		.4byte	.LVL354
 10866 0eec 5E000000 		.4byte	.LVL355
 10867 0ef0 0100     		.2byte	0x1
 10868 0ef2 50       		.byte	0x50
 10869 0ef3 00000000 		.4byte	0
 10870 0ef7 00000000 		.4byte	0
 10871              	.LLST65:
 10872 0efb 02000000 		.4byte	.LVL342
 10873 0eff 1E000000 		.4byte	.LVL345
 10874 0f03 0200     		.2byte	0x2
 10875 0f05 30       		.byte	0x30
 10876 0f06 9F       		.byte	0x9f
 10877 0f07 1E000000 		.4byte	.LVL345
 10878 0f0b 58000000 		.4byte	.LVL353
 10879 0f0f 0100     		.2byte	0x1
 10880 0f11 54       		.byte	0x54
 10881 0f12 58000000 		.4byte	.LVL353
 10882 0f16 5C000000 		.4byte	.LVL354
 10883 0f1a 0200     		.2byte	0x2
 10884 0f1c 30       		.byte	0x30
 10885 0f1d 9F       		.byte	0x9f
 10886 0f1e 5C000000 		.4byte	.LVL354
 10887 0f22 5E000000 		.4byte	.LVL356
 10888 0f26 0100     		.2byte	0x1
 10889 0f28 54       		.byte	0x54
 10890 0f29 00000000 		.4byte	0
 10891 0f2d 00000000 		.4byte	0
 10892              	.LLST66:
 10893 0f31 0C000000 		.4byte	.LVL343
 10894 0f35 16000000 		.4byte	.LVL344
 10895 0f39 0100     		.2byte	0x1
 10896 0f3b 53       		.byte	0x53
 10897 0f3c 16000000 		.4byte	.LVL344
 10898 0f40 2C000000 		.4byte	.LVL346
 10899 0f44 1500     		.2byte	0x15
 10900 0f46 70       		.byte	0x70
 10901 0f47 80807E   		.sleb128 -32768
 10902 0f4a 4F       		.byte	0x4f
 10903 0f4b 26       		.byte	0x26
 10904 0f4c 70       		.byte	0x70
 10905 0f4d 00       		.sleb128 0
 10906 0f4e 22       		.byte	0x22
 10907 0f4f 0A       		.byte	0xa
 10908 0f50 0080     		.2byte	0x8000
 10909 0f52 1C       		.byte	0x1c
 10910 0f53 70       		.byte	0x70
 10911 0f54 80807E   		.sleb128 -32768
 10912 0f57 4F       		.byte	0x4f
 10913 0f58 26       		.byte	0x26
 10914 0f59 27       		.byte	0x27
 10915 0f5a 9F       		.byte	0x9f
 10916 0f5b 2C000000 		.4byte	.LVL346
ARM GAS  C:\Users\kiwamu\AppData\Local\Temp\ccIx7zyv.s 			page 258


 10917 0f5f 33000000 		.4byte	.LVL347-1
 10918 0f63 1200     		.2byte	0x12
 10919 0f65 70       		.byte	0x70
 10920 0f66 8A7E     		.sleb128 -246
 10921 0f68 4F       		.byte	0x4f
 10922 0f69 26       		.byte	0x26
 10923 0f6a 70       		.byte	0x70
 10924 0f6b 00       		.sleb128 0
 10925 0f6c 22       		.byte	0x22
 10926 0f6d 08       		.byte	0x8
 10927 0f6e F6       		.byte	0xf6
 10928 0f6f 1C       		.byte	0x1c
 10929 0f70 70       		.byte	0x70
 10930 0f71 8A7E     		.sleb128 -246
 10931 0f73 4F       		.byte	0x4f
 10932 0f74 26       		.byte	0x26
 10933 0f75 27       		.byte	0x27
 10934 0f76 9F       		.byte	0x9f
 10935 0f77 33000000 		.4byte	.LVL347-1
 10936 0f7b 38000000 		.4byte	.LVL349
 10937 0f7f 1C00     		.2byte	0x1c
 10938 0f81 F3       		.byte	0xf3
 10939 0f82 01       		.uleb128 0x1
 10940 0f83 50       		.byte	0x50
 10941 0f84 0A       		.byte	0xa
 10942 0f85 0080     		.2byte	0x8000
 10943 0f87 1C       		.byte	0x1c
 10944 0f88 4F       		.byte	0x4f
 10945 0f89 26       		.byte	0x26
 10946 0f8a F3       		.byte	0xf3
 10947 0f8b 01       		.uleb128 0x1
 10948 0f8c 50       		.byte	0x50
 10949 0f8d 22       		.byte	0x22
 10950 0f8e 0A       		.byte	0xa
 10951 0f8f 0080     		.2byte	0x8000
 10952 0f91 1C       		.byte	0x1c
 10953 0f92 F3       		.byte	0xf3
 10954 0f93 01       		.uleb128 0x1
 10955 0f94 50       		.byte	0x50
 10956 0f95 0A       		.byte	0xa
 10957 0f96 0080     		.2byte	0x8000
 10958 0f98 1C       		.byte	0x1c
 10959 0f99 4F       		.byte	0x4f
 10960 0f9a 26       		.byte	0x26
 10961 0f9b 27       		.byte	0x27
 10962 0f9c 9F       		.byte	0x9f
 10963 0f9d 38000000 		.4byte	.LVL349
 10964 0fa1 3C000000 		.4byte	.LVL350
 10965 0fa5 1500     		.2byte	0x15
 10966 0fa7 70       		.byte	0x70
 10967 0fa8 80807E   		.sleb128 -32768
 10968 0fab 4F       		.byte	0x4f
 10969 0fac 26       		.byte	0x26
 10970 0fad 70       		.byte	0x70
 10971 0fae 00       		.sleb128 0
 10972 0faf 22       		.byte	0x22
 10973 0fb0 0A       		.byte	0xa
ARM GAS  C:\Users\kiwamu\AppData\Local\Temp\ccIx7zyv.s 			page 259


 10974 0fb1 0080     		.2byte	0x8000
 10975 0fb3 1C       		.byte	0x1c
 10976 0fb4 70       		.byte	0x70
 10977 0fb5 80807E   		.sleb128 -32768
 10978 0fb8 4F       		.byte	0x4f
 10979 0fb9 26       		.byte	0x26
 10980 0fba 27       		.byte	0x27
 10981 0fbb 9F       		.byte	0x9f
 10982 0fbc 3C000000 		.4byte	.LVL350
 10983 0fc0 58000000 		.4byte	.LVL353
 10984 0fc4 1C00     		.2byte	0x1c
 10985 0fc6 F3       		.byte	0xf3
 10986 0fc7 01       		.uleb128 0x1
 10987 0fc8 50       		.byte	0x50
 10988 0fc9 0A       		.byte	0xa
 10989 0fca 0080     		.2byte	0x8000
 10990 0fcc 1C       		.byte	0x1c
 10991 0fcd 4F       		.byte	0x4f
 10992 0fce 26       		.byte	0x26
 10993 0fcf F3       		.byte	0xf3
 10994 0fd0 01       		.uleb128 0x1
 10995 0fd1 50       		.byte	0x50
 10996 0fd2 22       		.byte	0x22
 10997 0fd3 0A       		.byte	0xa
 10998 0fd4 0080     		.2byte	0x8000
 10999 0fd6 1C       		.byte	0x1c
 11000 0fd7 F3       		.byte	0xf3
 11001 0fd8 01       		.uleb128 0x1
 11002 0fd9 50       		.byte	0x50
 11003 0fda 0A       		.byte	0xa
 11004 0fdb 0080     		.2byte	0x8000
 11005 0fdd 1C       		.byte	0x1c
 11006 0fde 4F       		.byte	0x4f
 11007 0fdf 26       		.byte	0x26
 11008 0fe0 27       		.byte	0x27
 11009 0fe1 9F       		.byte	0x9f
 11010 0fe2 58000000 		.4byte	.LVL353
 11011 0fe6 5C000000 		.4byte	.LVL354
 11012 0fea 0100     		.2byte	0x1
 11013 0fec 53       		.byte	0x53
 11014 0fed 5C000000 		.4byte	.LVL354
 11015 0ff1 74000000 		.4byte	.LFE153
 11016 0ff5 1C00     		.2byte	0x1c
 11017 0ff7 F3       		.byte	0xf3
 11018 0ff8 01       		.uleb128 0x1
 11019 0ff9 50       		.byte	0x50
 11020 0ffa 0A       		.byte	0xa
 11021 0ffb 0080     		.2byte	0x8000
 11022 0ffd 1C       		.byte	0x1c
 11023 0ffe 4F       		.byte	0x4f
 11024 0fff 26       		.byte	0x26
 11025 1000 F3       		.byte	0xf3
 11026 1001 01       		.uleb128 0x1
 11027 1002 50       		.byte	0x50
 11028 1003 22       		.byte	0x22
 11029 1004 0A       		.byte	0xa
 11030 1005 0080     		.2byte	0x8000
ARM GAS  C:\Users\kiwamu\AppData\Local\Temp\ccIx7zyv.s 			page 260


 11031 1007 1C       		.byte	0x1c
 11032 1008 F3       		.byte	0xf3
 11033 1009 01       		.uleb128 0x1
 11034 100a 50       		.byte	0x50
 11035 100b 0A       		.byte	0xa
 11036 100c 0080     		.2byte	0x8000
 11037 100e 1C       		.byte	0x1c
 11038 100f 4F       		.byte	0x4f
 11039 1010 26       		.byte	0x26
 11040 1011 27       		.byte	0x27
 11041 1012 9F       		.byte	0x9f
 11042 1013 00000000 		.4byte	0
 11043 1017 00000000 		.4byte	0
 11044              	.LLST67:
 11045 101b 00000000 		.4byte	.LVL357
 11046 101f 28000000 		.4byte	.LVL363
 11047 1023 0100     		.2byte	0x1
 11048 1025 50       		.byte	0x50
 11049 1026 28000000 		.4byte	.LVL363
 11050 102a 2D000000 		.4byte	.LVL364-1
 11051 102e 0500     		.2byte	0x5
 11052 1030 70       		.byte	0x70
 11053 1031 FEFF01   		.sleb128 32766
 11054 1034 9F       		.byte	0x9f
 11055 1035 2D000000 		.4byte	.LVL364-1
 11056 1039 34000000 		.4byte	.LVL366
 11057 103d 0400     		.2byte	0x4
 11058 103f F3       		.byte	0xf3
 11059 1040 01       		.uleb128 0x1
 11060 1041 50       		.byte	0x50
 11061 1042 9F       		.byte	0x9f
 11062 1043 34000000 		.4byte	.LVL366
 11063 1047 38000000 		.4byte	.LVL367
 11064 104b 0100     		.2byte	0x1
 11065 104d 50       		.byte	0x50
 11066 104e 38000000 		.4byte	.LVL367
 11067 1052 62000000 		.4byte	.LVL373
 11068 1056 0400     		.2byte	0x4
 11069 1058 F3       		.byte	0xf3
 11070 1059 01       		.uleb128 0x1
 11071 105a 50       		.byte	0x50
 11072 105b 9F       		.byte	0x9f
 11073 105c 62000000 		.4byte	.LVL373
 11074 1060 66000000 		.4byte	.LVL374
 11075 1064 0100     		.2byte	0x1
 11076 1066 50       		.byte	0x50
 11077 1067 66000000 		.4byte	.LVL374
 11078 106b 88000000 		.4byte	.LFE154
 11079 106f 0400     		.2byte	0x4
 11080 1071 F3       		.byte	0xf3
 11081 1072 01       		.uleb128 0x1
 11082 1073 50       		.byte	0x50
 11083 1074 9F       		.byte	0x9f
 11084 1075 00000000 		.4byte	0
 11085 1079 00000000 		.4byte	0
 11086              	.LLST68:
 11087 107d 02000000 		.4byte	.LVL358
ARM GAS  C:\Users\kiwamu\AppData\Local\Temp\ccIx7zyv.s 			page 261


 11088 1081 30000000 		.4byte	.LVL365
 11089 1085 0200     		.2byte	0x2
 11090 1087 30       		.byte	0x30
 11091 1088 9F       		.byte	0x9f
 11092 1089 30000000 		.4byte	.LVL365
 11093 108d 34000000 		.4byte	.LVL366
 11094 1091 0100     		.2byte	0x1
 11095 1093 50       		.byte	0x50
 11096 1094 34000000 		.4byte	.LVL366
 11097 1098 40000000 		.4byte	.LVL369
 11098 109c 0200     		.2byte	0x2
 11099 109e 30       		.byte	0x30
 11100 109f 9F       		.byte	0x9f
 11101 10a0 40000000 		.4byte	.LVL369
 11102 10a4 4A000000 		.4byte	.LVL370
 11103 10a8 0100     		.2byte	0x1
 11104 10aa 50       		.byte	0x50
 11105 10ab 4C000000 		.4byte	.LVL371
 11106 10af 62000000 		.4byte	.LVL373
 11107 10b3 0100     		.2byte	0x1
 11108 10b5 50       		.byte	0x50
 11109 10b6 62000000 		.4byte	.LVL373
 11110 10ba 66000000 		.4byte	.LVL374
 11111 10be 0200     		.2byte	0x2
 11112 10c0 30       		.byte	0x30
 11113 10c1 9F       		.byte	0x9f
 11114 10c2 66000000 		.4byte	.LVL374
 11115 10c6 68000000 		.4byte	.LVL375
 11116 10ca 0100     		.2byte	0x1
 11117 10cc 50       		.byte	0x50
 11118 10cd 00000000 		.4byte	0
 11119 10d1 00000000 		.4byte	0
 11120              	.LLST69:
 11121 10d5 02000000 		.4byte	.LVL358
 11122 10d9 1A000000 		.4byte	.LVL362
 11123 10dd 0200     		.2byte	0x2
 11124 10df 30       		.byte	0x30
 11125 10e0 9F       		.byte	0x9f
 11126 10e1 62000000 		.4byte	.LVL373
 11127 10e5 66000000 		.4byte	.LVL374
 11128 10e9 0200     		.2byte	0x2
 11129 10eb 30       		.byte	0x30
 11130 10ec 9F       		.byte	0x9f
 11131 10ed 66000000 		.4byte	.LVL374
 11132 10f1 68000000 		.4byte	.LVL376
 11133 10f5 0100     		.2byte	0x1
 11134 10f7 54       		.byte	0x54
 11135 10f8 00000000 		.4byte	0
 11136 10fc 00000000 		.4byte	0
 11137              	.LLST70:
 11138 1100 0C000000 		.4byte	.LVL359
 11139 1104 12000000 		.4byte	.LVL360
 11140 1108 0100     		.2byte	0x1
 11141 110a 53       		.byte	0x53
 11142 110b 12000000 		.4byte	.LVL360
 11143 110f 14000000 		.4byte	.LVL361
 11144 1113 0D00     		.2byte	0xd
ARM GAS  C:\Users\kiwamu\AppData\Local\Temp\ccIx7zyv.s 			page 262


 11145 1115 70       		.byte	0x70
 11146 1116 00       		.sleb128 0
 11147 1117 72       		.byte	0x72
 11148 1118 00       		.sleb128 0
 11149 1119 22       		.byte	0x22
 11150 111a 0A       		.byte	0xa
 11151 111b 0080     		.2byte	0x8000
 11152 111d 1C       		.byte	0x1c
 11153 111e 72       		.byte	0x72
 11154 111f 00       		.sleb128 0
 11155 1120 27       		.byte	0x27
 11156 1121 9F       		.byte	0x9f
 11157 1122 14000000 		.4byte	.LVL361
 11158 1126 28000000 		.4byte	.LVL363
 11159 112a 1500     		.2byte	0x15
 11160 112c 70       		.byte	0x70
 11161 112d 80807E   		.sleb128 -32768
 11162 1130 4F       		.byte	0x4f
 11163 1131 26       		.byte	0x26
 11164 1132 70       		.byte	0x70
 11165 1133 00       		.sleb128 0
 11166 1134 22       		.byte	0x22
 11167 1135 0A       		.byte	0xa
 11168 1136 0080     		.2byte	0x8000
 11169 1138 1C       		.byte	0x1c
 11170 1139 70       		.byte	0x70
 11171 113a 80807E   		.sleb128 -32768
 11172 113d 4F       		.byte	0x4f
 11173 113e 26       		.byte	0x26
 11174 113f 27       		.byte	0x27
 11175 1140 9F       		.byte	0x9f
 11176 1141 28000000 		.4byte	.LVL363
 11177 1145 2D000000 		.4byte	.LVL364-1
 11178 1149 0F00     		.2byte	0xf
 11179 114b 70       		.byte	0x70
 11180 114c 7E       		.sleb128 -2
 11181 114d 4F       		.byte	0x4f
 11182 114e 26       		.byte	0x26
 11183 114f 70       		.byte	0x70
 11184 1150 00       		.sleb128 0
 11185 1151 22       		.byte	0x22
 11186 1152 32       		.byte	0x32
 11187 1153 1C       		.byte	0x1c
 11188 1154 70       		.byte	0x70
 11189 1155 7E       		.sleb128 -2
 11190 1156 4F       		.byte	0x4f
 11191 1157 26       		.byte	0x26
 11192 1158 27       		.byte	0x27
 11193 1159 9F       		.byte	0x9f
 11194 115a 2D000000 		.4byte	.LVL364-1
 11195 115e 34000000 		.4byte	.LVL366
 11196 1162 1C00     		.2byte	0x1c
 11197 1164 F3       		.byte	0xf3
 11198 1165 01       		.uleb128 0x1
 11199 1166 50       		.byte	0x50
 11200 1167 0A       		.byte	0xa
 11201 1168 0080     		.2byte	0x8000
ARM GAS  C:\Users\kiwamu\AppData\Local\Temp\ccIx7zyv.s 			page 263


 11202 116a 1C       		.byte	0x1c
 11203 116b 4F       		.byte	0x4f
 11204 116c 26       		.byte	0x26
 11205 116d F3       		.byte	0xf3
 11206 116e 01       		.uleb128 0x1
 11207 116f 50       		.byte	0x50
 11208 1170 22       		.byte	0x22
 11209 1171 0A       		.byte	0xa
 11210 1172 0080     		.2byte	0x8000
 11211 1174 1C       		.byte	0x1c
 11212 1175 F3       		.byte	0xf3
 11213 1176 01       		.uleb128 0x1
 11214 1177 50       		.byte	0x50
 11215 1178 0A       		.byte	0xa
 11216 1179 0080     		.2byte	0x8000
 11217 117b 1C       		.byte	0x1c
 11218 117c 4F       		.byte	0x4f
 11219 117d 26       		.byte	0x26
 11220 117e 27       		.byte	0x27
 11221 117f 9F       		.byte	0x9f
 11222 1180 34000000 		.4byte	.LVL366
 11223 1184 38000000 		.4byte	.LVL367
 11224 1188 1500     		.2byte	0x15
 11225 118a 70       		.byte	0x70
 11226 118b 80807E   		.sleb128 -32768
 11227 118e 4F       		.byte	0x4f
 11228 118f 26       		.byte	0x26
 11229 1190 70       		.byte	0x70
 11230 1191 00       		.sleb128 0
 11231 1192 22       		.byte	0x22
 11232 1193 0A       		.byte	0xa
 11233 1194 0080     		.2byte	0x8000
 11234 1196 1C       		.byte	0x1c
 11235 1197 70       		.byte	0x70
 11236 1198 80807E   		.sleb128 -32768
 11237 119b 4F       		.byte	0x4f
 11238 119c 26       		.byte	0x26
 11239 119d 27       		.byte	0x27
 11240 119e 9F       		.byte	0x9f
 11241 119f 38000000 		.4byte	.LVL367
 11242 11a3 62000000 		.4byte	.LVL373
 11243 11a7 1C00     		.2byte	0x1c
 11244 11a9 F3       		.byte	0xf3
 11245 11aa 01       		.uleb128 0x1
 11246 11ab 50       		.byte	0x50
 11247 11ac 0A       		.byte	0xa
 11248 11ad 0080     		.2byte	0x8000
 11249 11af 1C       		.byte	0x1c
 11250 11b0 4F       		.byte	0x4f
 11251 11b1 26       		.byte	0x26
 11252 11b2 F3       		.byte	0xf3
 11253 11b3 01       		.uleb128 0x1
 11254 11b4 50       		.byte	0x50
 11255 11b5 22       		.byte	0x22
 11256 11b6 0A       		.byte	0xa
 11257 11b7 0080     		.2byte	0x8000
 11258 11b9 1C       		.byte	0x1c
ARM GAS  C:\Users\kiwamu\AppData\Local\Temp\ccIx7zyv.s 			page 264


 11259 11ba F3       		.byte	0xf3
 11260 11bb 01       		.uleb128 0x1
 11261 11bc 50       		.byte	0x50
 11262 11bd 0A       		.byte	0xa
 11263 11be 0080     		.2byte	0x8000
 11264 11c0 1C       		.byte	0x1c
 11265 11c1 4F       		.byte	0x4f
 11266 11c2 26       		.byte	0x26
 11267 11c3 27       		.byte	0x27
 11268 11c4 9F       		.byte	0x9f
 11269 11c5 62000000 		.4byte	.LVL373
 11270 11c9 66000000 		.4byte	.LVL374
 11271 11cd 0100     		.2byte	0x1
 11272 11cf 53       		.byte	0x53
 11273 11d0 66000000 		.4byte	.LVL374
 11274 11d4 88000000 		.4byte	.LFE154
 11275 11d8 1C00     		.2byte	0x1c
 11276 11da F3       		.byte	0xf3
 11277 11db 01       		.uleb128 0x1
 11278 11dc 50       		.byte	0x50
 11279 11dd 0A       		.byte	0xa
 11280 11de 0080     		.2byte	0x8000
 11281 11e0 1C       		.byte	0x1c
 11282 11e1 4F       		.byte	0x4f
 11283 11e2 26       		.byte	0x26
 11284 11e3 F3       		.byte	0xf3
 11285 11e4 01       		.uleb128 0x1
 11286 11e5 50       		.byte	0x50
 11287 11e6 22       		.byte	0x22
 11288 11e7 0A       		.byte	0xa
 11289 11e8 0080     		.2byte	0x8000
 11290 11ea 1C       		.byte	0x1c
 11291 11eb F3       		.byte	0xf3
 11292 11ec 01       		.uleb128 0x1
 11293 11ed 50       		.byte	0x50
 11294 11ee 0A       		.byte	0xa
 11295 11ef 0080     		.2byte	0x8000
 11296 11f1 1C       		.byte	0x1c
 11297 11f2 4F       		.byte	0x4f
 11298 11f3 26       		.byte	0x26
 11299 11f4 27       		.byte	0x27
 11300 11f5 9F       		.byte	0x9f
 11301 11f6 00000000 		.4byte	0
 11302 11fa 00000000 		.4byte	0
 11303              	.LLST71:
 11304 11fe 4E000000 		.4byte	.LVL372
 11305 1202 62000000 		.4byte	.LVL373
 11306 1206 0100     		.2byte	0x1
 11307 1208 50       		.byte	0x50
 11308 1209 00000000 		.4byte	0
 11309 120d 00000000 		.4byte	0
 11310              	.LLST72:
 11311 1211 00000000 		.4byte	.LVL377
 11312 1215 0A000000 		.4byte	.LVL379
 11313 1219 0100     		.2byte	0x1
 11314 121b 50       		.byte	0x50
 11315 121c 0A000000 		.4byte	.LVL379
ARM GAS  C:\Users\kiwamu\AppData\Local\Temp\ccIx7zyv.s 			page 265


 11316 1220 26000000 		.4byte	.LVL382
 11317 1224 0100     		.2byte	0x1
 11318 1226 54       		.byte	0x54
 11319 1227 26000000 		.4byte	.LVL382
 11320 122b 8C000000 		.4byte	.LVL388
 11321 122f 0400     		.2byte	0x4
 11322 1231 F3       		.byte	0xf3
 11323 1232 01       		.uleb128 0x1
 11324 1233 50       		.byte	0x50
 11325 1234 9F       		.byte	0x9f
 11326 1235 8C000000 		.4byte	.LVL388
 11327 1239 9A000000 		.4byte	.LVL389
 11328 123d 0100     		.2byte	0x1
 11329 123f 54       		.byte	0x54
 11330 1240 9A000000 		.4byte	.LVL389
 11331 1244 9C000000 		.4byte	.LVL390
 11332 1248 0400     		.2byte	0x4
 11333 124a F3       		.byte	0xf3
 11334 124b 01       		.uleb128 0x1
 11335 124c 50       		.byte	0x50
 11336 124d 9F       		.byte	0x9f
 11337 124e 9C000000 		.4byte	.LVL390
 11338 1252 C4000000 		.4byte	.LVL396
 11339 1256 0100     		.2byte	0x1
 11340 1258 54       		.byte	0x54
 11341 1259 C4000000 		.4byte	.LVL396
 11342 125d 4A010000 		.4byte	.LVL406
 11343 1261 0400     		.2byte	0x4
 11344 1263 F3       		.byte	0xf3
 11345 1264 01       		.uleb128 0x1
 11346 1265 50       		.byte	0x50
 11347 1266 9F       		.byte	0x9f
 11348 1267 4A010000 		.4byte	.LVL406
 11349 126b 4C010000 		.4byte	.LVL407
 11350 126f 0100     		.2byte	0x1
 11351 1271 54       		.byte	0x54
 11352 1272 4C010000 		.4byte	.LVL407
 11353 1276 64010000 		.4byte	.LVL408
 11354 127a 0400     		.2byte	0x4
 11355 127c F3       		.byte	0xf3
 11356 127d 01       		.uleb128 0x1
 11357 127e 50       		.byte	0x50
 11358 127f 9F       		.byte	0x9f
 11359 1280 64010000 		.4byte	.LVL408
 11360 1284 66010000 		.4byte	.LVL409
 11361 1288 0100     		.2byte	0x1
 11362 128a 54       		.byte	0x54
 11363 128b 66010000 		.4byte	.LVL409
 11364 128f 68010000 		.4byte	.LVL410
 11365 1293 0400     		.2byte	0x4
 11366 1295 F3       		.byte	0xf3
 11367 1296 01       		.uleb128 0x1
 11368 1297 50       		.byte	0x50
 11369 1298 9F       		.byte	0x9f
 11370 1299 68010000 		.4byte	.LVL410
 11371 129d 6A010000 		.4byte	.LVL411
 11372 12a1 0100     		.2byte	0x1
ARM GAS  C:\Users\kiwamu\AppData\Local\Temp\ccIx7zyv.s 			page 266


 11373 12a3 54       		.byte	0x54
 11374 12a4 6A010000 		.4byte	.LVL411
 11375 12a8 98010000 		.4byte	.LFE155
 11376 12ac 0400     		.2byte	0x4
 11377 12ae F3       		.byte	0xf3
 11378 12af 01       		.uleb128 0x1
 11379 12b0 50       		.byte	0x50
 11380 12b1 9F       		.byte	0x9f
 11381 12b2 00000000 		.4byte	0
 11382 12b6 00000000 		.4byte	0
 11383              	.LLST73:
 11384 12ba 04000000 		.4byte	.LVL378
 11385 12be C6000000 		.4byte	.LVL397
 11386 12c2 0200     		.2byte	0x2
 11387 12c4 30       		.byte	0x30
 11388 12c5 9F       		.byte	0x9f
 11389 12c6 C6000000 		.4byte	.LVL397
 11390 12ca 4A010000 		.4byte	.LVL406
 11391 12ce 0100     		.2byte	0x1
 11392 12d0 54       		.byte	0x54
 11393 12d1 4A010000 		.4byte	.LVL406
 11394 12d5 4C010000 		.4byte	.LVL407
 11395 12d9 0200     		.2byte	0x2
 11396 12db 30       		.byte	0x30
 11397 12dc 9F       		.byte	0x9f
 11398 12dd 4C010000 		.4byte	.LVL407
 11399 12e1 64010000 		.4byte	.LVL408
 11400 12e5 0100     		.2byte	0x1
 11401 12e7 54       		.byte	0x54
 11402 12e8 64010000 		.4byte	.LVL408
 11403 12ec 6A010000 		.4byte	.LVL411
 11404 12f0 0200     		.2byte	0x2
 11405 12f2 30       		.byte	0x30
 11406 12f3 9F       		.byte	0x9f
 11407 12f4 6A010000 		.4byte	.LVL411
 11408 12f8 6C010000 		.4byte	.LVL412
 11409 12fc 0100     		.2byte	0x1
 11410 12fe 54       		.byte	0x54
 11411 12ff 6C010000 		.4byte	.LVL412
 11412 1303 98010000 		.4byte	.LFE155
 11413 1307 0100     		.2byte	0x1
 11414 1309 50       		.byte	0x50
 11415 130a 00000000 		.4byte	0
 11416 130e 00000000 		.4byte	0
 11417              	.LLST74:
 11418 1312 24000000 		.4byte	.LVL381
 11419 1316 28000000 		.4byte	.LVL383
 11420 131a 0200     		.2byte	0x2
 11421 131c 30       		.byte	0x30
 11422 131d 9F       		.byte	0x9f
 11423 131e 28000000 		.4byte	.LVL383
 11424 1322 8A000000 		.4byte	.LVL387
 11425 1326 0100     		.2byte	0x1
 11426 1328 54       		.byte	0x54
 11427 1329 00000000 		.4byte	0
 11428 132d 00000000 		.4byte	0
 11429              	.LLST75:
ARM GAS  C:\Users\kiwamu\AppData\Local\Temp\ccIx7zyv.s 			page 267


 11430 1331 9C000000 		.4byte	.LVL390
 11431 1335 A0000000 		.4byte	.LVL392
 11432 1339 0100     		.2byte	0x1
 11433 133b 52       		.byte	0x52
 11434 133c A2000000 		.4byte	.LVL393
 11435 1340 C6000000 		.4byte	.LVL397
 11436 1344 0100     		.2byte	0x1
 11437 1346 52       		.byte	0x52
 11438 1347 4A010000 		.4byte	.LVL406
 11439 134b 4C010000 		.4byte	.LVL407
 11440 134f 0100     		.2byte	0x1
 11441 1351 52       		.byte	0x52
 11442 1352 00000000 		.4byte	0
 11443 1356 00000000 		.4byte	0
 11444              	.LLST76:
 11445 135a B2000000 		.4byte	.LVL394
 11446 135e B8000000 		.4byte	.LVL395
 11447 1362 0100     		.2byte	0x1
 11448 1364 53       		.byte	0x53
 11449 1365 00000000 		.4byte	0
 11450 1369 00000000 		.4byte	0
 11451              	.LLST77:
 11452 136d C6000000 		.4byte	.LVL397
 11453 1371 4A010000 		.4byte	.LVL406
 11454 1375 0100     		.2byte	0x1
 11455 1377 55       		.byte	0x55
 11456 1378 00000000 		.4byte	0
 11457 137c 00000000 		.4byte	0
 11458              	.LLST78:
 11459 1380 04010000 		.4byte	.LVL399
 11460 1384 42010000 		.4byte	.LVL404
 11461 1388 0100     		.2byte	0x1
 11462 138a 56       		.byte	0x56
 11463 138b 00000000 		.4byte	0
 11464 138f 00000000 		.4byte	0
 11465              	.LLST79:
 11466 1393 16010000 		.4byte	.LVL400
 11467 1397 32010000 		.4byte	.LVL402
 11468 139b 0100     		.2byte	0x1
 11469 139d 55       		.byte	0x55
 11470 139e 00000000 		.4byte	0
 11471 13a2 00000000 		.4byte	0
 11472              	.LLST80:
 11473 13a6 00000000 		.4byte	.LVL413
 11474 13aa 32000000 		.4byte	.LVL416
 11475 13ae 0100     		.2byte	0x1
 11476 13b0 50       		.byte	0x50
 11477 13b1 32000000 		.4byte	.LVL416
 11478 13b5 BC020000 		.4byte	.LFE156
 11479 13b9 0400     		.2byte	0x4
 11480 13bb F3       		.byte	0xf3
 11481 13bc 01       		.uleb128 0x1
 11482 13bd 50       		.byte	0x50
 11483 13be 9F       		.byte	0x9f
 11484 13bf 00000000 		.4byte	0
 11485 13c3 00000000 		.4byte	0
 11486              	.LLST81:
ARM GAS  C:\Users\kiwamu\AppData\Local\Temp\ccIx7zyv.s 			page 268


 11487 13c7 00000000 		.4byte	.LVL413
 11488 13cb 2E000000 		.4byte	.LVL415
 11489 13cf 0100     		.2byte	0x1
 11490 13d1 51       		.byte	0x51
 11491 13d2 2E000000 		.4byte	.LVL415
 11492 13d6 C2010000 		.4byte	.LVL470
 11493 13da 0100     		.2byte	0x1
 11494 13dc 57       		.byte	0x57
 11495 13dd C2010000 		.4byte	.LVL470
 11496 13e1 C4010000 		.4byte	.LVL471
 11497 13e5 0400     		.2byte	0x4
 11498 13e7 77       		.byte	0x77
 11499 13e8 807C     		.sleb128 -512
 11500 13ea 9F       		.byte	0x9f
 11501 13eb C4010000 		.4byte	.LVL471
 11502 13ef D0010000 		.4byte	.LVL473
 11503 13f3 0400     		.2byte	0x4
 11504 13f5 F3       		.byte	0xf3
 11505 13f6 01       		.uleb128 0x1
 11506 13f7 51       		.byte	0x51
 11507 13f8 9F       		.byte	0x9f
 11508 13f9 D0010000 		.4byte	.LVL473
 11509 13fd E4010000 		.4byte	.LVL475
 11510 1401 0100     		.2byte	0x1
 11511 1403 57       		.byte	0x57
 11512 1404 E4010000 		.4byte	.LVL475
 11513 1408 E6010000 		.4byte	.LVL476
 11514 140c 0400     		.2byte	0x4
 11515 140e 77       		.byte	0x77
 11516 140f C07B     		.sleb128 -576
 11517 1411 9F       		.byte	0x9f
 11518 1412 E6010000 		.4byte	.LVL476
 11519 1416 F4010000 		.4byte	.LVL478
 11520 141a 0400     		.2byte	0x4
 11521 141c F3       		.byte	0xf3
 11522 141d 01       		.uleb128 0x1
 11523 141e 51       		.byte	0x51
 11524 141f 9F       		.byte	0x9f
 11525 1420 F4010000 		.4byte	.LVL478
 11526 1424 20020000 		.4byte	.LVL481
 11527 1428 0100     		.2byte	0x1
 11528 142a 57       		.byte	0x57
 11529 142b 20020000 		.4byte	.LVL481
 11530 142f 22020000 		.4byte	.LVL482
 11531 1433 0400     		.2byte	0x4
 11532 1435 77       		.byte	0x77
 11533 1436 807B     		.sleb128 -640
 11534 1438 9F       		.byte	0x9f
 11535 1439 22020000 		.4byte	.LVL482
 11536 143d 38020000 		.4byte	.LVL483
 11537 1441 0400     		.2byte	0x4
 11538 1443 F3       		.byte	0xf3
 11539 1444 01       		.uleb128 0x1
 11540 1445 51       		.byte	0x51
 11541 1446 9F       		.byte	0x9f
 11542 1447 38020000 		.4byte	.LVL483
 11543 144b 4E020000 		.4byte	.LVL485
ARM GAS  C:\Users\kiwamu\AppData\Local\Temp\ccIx7zyv.s 			page 269


 11544 144f 0100     		.2byte	0x1
 11545 1451 57       		.byte	0x57
 11546 1452 4E020000 		.4byte	.LVL485
 11547 1456 50020000 		.4byte	.LVL486
 11548 145a 0400     		.2byte	0x4
 11549 145c 77       		.byte	0x77
 11550 145d C07A     		.sleb128 -704
 11551 145f 9F       		.byte	0x9f
 11552 1460 50020000 		.4byte	.LVL486
 11553 1464 86020000 		.4byte	.LVL491
 11554 1468 0400     		.2byte	0x4
 11555 146a F3       		.byte	0xf3
 11556 146b 01       		.uleb128 0x1
 11557 146c 51       		.byte	0x51
 11558 146d 9F       		.byte	0x9f
 11559 146e 86020000 		.4byte	.LVL491
 11560 1472 88020000 		.4byte	.LVL492
 11561 1476 0100     		.2byte	0x1
 11562 1478 57       		.byte	0x57
 11563 1479 88020000 		.4byte	.LVL492
 11564 147d BC020000 		.4byte	.LFE156
 11565 1481 0400     		.2byte	0x4
 11566 1483 F3       		.byte	0xf3
 11567 1484 01       		.uleb128 0x1
 11568 1485 51       		.byte	0x51
 11569 1486 9F       		.byte	0x9f
 11570 1487 00000000 		.4byte	0
 11571 148b 00000000 		.4byte	0
 11572              	.LLST82:
 11573 148f 0C000000 		.4byte	.LVL414
 11574 1493 68020000 		.4byte	.LVL488
 11575 1497 0200     		.2byte	0x2
 11576 1499 30       		.byte	0x30
 11577 149a 9F       		.byte	0x9f
 11578 149b 68020000 		.4byte	.LVL488
 11579 149f 6D020000 		.4byte	.LVL489-1
 11580 14a3 0100     		.2byte	0x1
 11581 14a5 50       		.byte	0x50
 11582 14a6 6E020000 		.4byte	.LVL489
 11583 14aa 83020000 		.4byte	.LVL490-1
 11584 14ae 0100     		.2byte	0x1
 11585 14b0 50       		.byte	0x50
 11586 14b1 84020000 		.4byte	.LVL490
 11587 14b5 86020000 		.4byte	.LVL491
 11588 14b9 0100     		.2byte	0x1
 11589 14bb 50       		.byte	0x50
 11590 14bc 86020000 		.4byte	.LVL491
 11591 14c0 88020000 		.4byte	.LVL492
 11592 14c4 0200     		.2byte	0x2
 11593 14c6 30       		.byte	0x30
 11594 14c7 9F       		.byte	0x9f
 11595 14c8 88020000 		.4byte	.LVL492
 11596 14cc BC020000 		.4byte	.LFE156
 11597 14d0 0100     		.2byte	0x1
 11598 14d2 50       		.byte	0x50
 11599 14d3 00000000 		.4byte	0
 11600 14d7 00000000 		.4byte	0
ARM GAS  C:\Users\kiwamu\AppData\Local\Temp\ccIx7zyv.s 			page 270


 11601              	.LLST83:
 11602 14db 40000000 		.4byte	.LVL418
 11603 14df 6C000000 		.4byte	.LVL424
 11604 14e3 0200     		.2byte	0x2
 11605 14e5 30       		.byte	0x30
 11606 14e6 9F       		.byte	0x9f
 11607 14e7 6C000000 		.4byte	.LVL424
 11608 14eb 7A000000 		.4byte	.LVL426
 11609 14ef 0100     		.2byte	0x1
 11610 14f1 58       		.byte	0x58
 11611 14f2 7A000000 		.4byte	.LVL426
 11612 14f6 9A000000 		.4byte	.LVL428
 11613 14fa 0200     		.2byte	0x2
 11614 14fc 30       		.byte	0x30
 11615 14fd 9F       		.byte	0x9f
 11616 14fe 9A000000 		.4byte	.LVL428
 11617 1502 C0000000 		.4byte	.LVL434
 11618 1506 0100     		.2byte	0x1
 11619 1508 58       		.byte	0x58
 11620 1509 C0000000 		.4byte	.LVL434
 11621 150d CE000000 		.4byte	.LVL437
 11622 1511 0200     		.2byte	0x2
 11623 1513 30       		.byte	0x30
 11624 1514 9F       		.byte	0x9f
 11625 1515 CE000000 		.4byte	.LVL437
 11626 1519 48010000 		.4byte	.LVL453
 11627 151d 0100     		.2byte	0x1
 11628 151f 58       		.byte	0x58
 11629 1520 6C010000 		.4byte	.LVL458
 11630 1524 74010000 		.4byte	.LVL462
 11631 1528 0100     		.2byte	0x1
 11632 152a 58       		.byte	0x58
 11633 152b 86020000 		.4byte	.LVL491
 11634 152f 88020000 		.4byte	.LVL492
 11635 1533 0100     		.2byte	0x1
 11636 1535 58       		.byte	0x58
 11637 1536 00000000 		.4byte	0
 11638 153a 00000000 		.4byte	0
 11639              	.LLST84:
 11640 153e 40000000 		.4byte	.LVL418
 11641 1542 78000000 		.4byte	.LVL425
 11642 1546 0200     		.2byte	0x2
 11643 1548 30       		.byte	0x30
 11644 1549 9F       		.byte	0x9f
 11645 154a 7A000000 		.4byte	.LVL426
 11646 154e BE000000 		.4byte	.LVL433
 11647 1552 0200     		.2byte	0x2
 11648 1554 30       		.byte	0x30
 11649 1555 9F       		.byte	0x9f
 11650 1556 C0000000 		.4byte	.LVL434
 11651 155a CE000000 		.4byte	.LVL437
 11652 155e 0200     		.2byte	0x2
 11653 1560 30       		.byte	0x30
 11654 1561 9F       		.byte	0x9f
 11655 1562 CE000000 		.4byte	.LVL437
 11656 1566 02010000 		.4byte	.LVL445
 11657 156a 0100     		.2byte	0x1
ARM GAS  C:\Users\kiwamu\AppData\Local\Temp\ccIx7zyv.s 			page 271


 11658 156c 53       		.byte	0x53
 11659 156d 2A010000 		.4byte	.LVL450
 11660 1571 3E010000 		.4byte	.LVL452
 11661 1575 0100     		.2byte	0x1
 11662 1577 53       		.byte	0x53
 11663 1578 86020000 		.4byte	.LVL491
 11664 157c 88020000 		.4byte	.LVL492
 11665 1580 0100     		.2byte	0x1
 11666 1582 53       		.byte	0x53
 11667 1583 00000000 		.4byte	0
 11668 1587 00000000 		.4byte	0
 11669              	.LLST85:
 11670 158b 66000000 		.4byte	.LVL423
 11671 158f 7A000000 		.4byte	.LVL426
 11672 1593 0100     		.2byte	0x1
 11673 1595 50       		.byte	0x50
 11674 1596 A2000000 		.4byte	.LVL430
 11675 159a AA000000 		.4byte	.LVL431
 11676 159e 0100     		.2byte	0x1
 11677 15a0 50       		.byte	0x50
 11678 15a1 AA000000 		.4byte	.LVL431
 11679 15a5 C0000000 		.4byte	.LVL434
 11680 15a9 0100     		.2byte	0x1
 11681 15ab 55       		.byte	0x55
 11682 15ac C8000000 		.4byte	.LVL436
 11683 15b0 CE000000 		.4byte	.LVL437
 11684 15b4 0100     		.2byte	0x1
 11685 15b6 50       		.byte	0x50
 11686 15b7 CE000000 		.4byte	.LVL437
 11687 15bb D4000000 		.4byte	.LVL438
 11688 15bf 0100     		.2byte	0x1
 11689 15c1 55       		.byte	0x55
 11690 15c2 DC000000 		.4byte	.LVL439
 11691 15c6 DE000000 		.4byte	.LVL440
 11692 15ca 0100     		.2byte	0x1
 11693 15cc 55       		.byte	0x55
 11694 15cd 00000000 		.4byte	0
 11695 15d1 00000000 		.4byte	0
 11696              	.LLST86:
 11697 15d5 E0000000 		.4byte	.LVL441
 11698 15d9 E4000000 		.4byte	.LVL442
 11699 15dd 0200     		.2byte	0x2
 11700 15df 30       		.byte	0x30
 11701 15e0 9F       		.byte	0x9f
 11702 15e1 E8000000 		.4byte	.LVL443
 11703 15e5 28010000 		.4byte	.LVL449
 11704 15e9 0100     		.2byte	0x1
 11705 15eb 55       		.byte	0x55
 11706 15ec 2A010000 		.4byte	.LVL450
 11707 15f0 6A010000 		.4byte	.LVL457
 11708 15f4 0100     		.2byte	0x1
 11709 15f6 55       		.byte	0x55
 11710 15f7 6C010000 		.4byte	.LVL458
 11711 15fb 6E010000 		.4byte	.LVL459
 11712 15ff 0100     		.2byte	0x1
 11713 1601 55       		.byte	0x55
 11714 1602 70010000 		.4byte	.LVL460
ARM GAS  C:\Users\kiwamu\AppData\Local\Temp\ccIx7zyv.s 			page 272


 11715 1606 72010000 		.4byte	.LVL461
 11716 160a 0100     		.2byte	0x1
 11717 160c 55       		.byte	0x55
 11718 160d 74010000 		.4byte	.LVL462
 11719 1611 76010000 		.4byte	.LVL463
 11720 1615 0100     		.2byte	0x1
 11721 1617 55       		.byte	0x55
 11722 1618 86020000 		.4byte	.LVL491
 11723 161c 88020000 		.4byte	.LVL492
 11724 1620 0100     		.2byte	0x1
 11725 1622 55       		.byte	0x55
 11726 1623 00000000 		.4byte	0
 11727 1627 00000000 		.4byte	0
 11728              	.LLST87:
 11729 162b 40000000 		.4byte	.LVL418
 11730 162f F2000000 		.4byte	.LVL444
 11731 1633 0200     		.2byte	0x2
 11732 1635 30       		.byte	0x30
 11733 1636 9F       		.byte	0x9f
 11734 1637 F2000000 		.4byte	.LVL444
 11735 163b 28010000 		.4byte	.LVL449
 11736 163f 0100     		.2byte	0x1
 11737 1641 55       		.byte	0x55
 11738 1642 28010000 		.4byte	.LVL449
 11739 1646 2A010000 		.4byte	.LVL450
 11740 164a 0100     		.2byte	0x1
 11741 164c 50       		.byte	0x50
 11742 164d 2A010000 		.4byte	.LVL450
 11743 1651 2E010000 		.4byte	.LVL451
 11744 1655 0200     		.2byte	0x2
 11745 1657 30       		.byte	0x30
 11746 1658 9F       		.byte	0x9f
 11747 1659 2E010000 		.4byte	.LVL451
 11748 165d 6A010000 		.4byte	.LVL457
 11749 1661 0100     		.2byte	0x1
 11750 1663 55       		.byte	0x55
 11751 1664 6A010000 		.4byte	.LVL457
 11752 1668 6C010000 		.4byte	.LVL458
 11753 166c 0100     		.2byte	0x1
 11754 166e 50       		.byte	0x50
 11755 166f 6C010000 		.4byte	.LVL458
 11756 1673 6E010000 		.4byte	.LVL459
 11757 1677 0100     		.2byte	0x1
 11758 1679 55       		.byte	0x55
 11759 167a 70010000 		.4byte	.LVL460
 11760 167e 72010000 		.4byte	.LVL461
 11761 1682 0100     		.2byte	0x1
 11762 1684 55       		.byte	0x55
 11763 1685 74010000 		.4byte	.LVL462
 11764 1689 86020000 		.4byte	.LVL491
 11765 168d 0100     		.2byte	0x1
 11766 168f 55       		.byte	0x55
 11767 1690 86020000 		.4byte	.LVL491
 11768 1694 88020000 		.4byte	.LVL492
 11769 1698 0200     		.2byte	0x2
 11770 169a 30       		.byte	0x30
 11771 169b 9F       		.byte	0x9f
ARM GAS  C:\Users\kiwamu\AppData\Local\Temp\ccIx7zyv.s 			page 273


 11772 169c 00000000 		.4byte	0
 11773 16a0 00000000 		.4byte	0
 11774              	.LLST88:
 11775 16a4 8A010000 		.4byte	.LVL465
 11776 16a8 A9010000 		.4byte	.LVL468-1
 11777 16ac 0100     		.2byte	0x1
 11778 16ae 52       		.byte	0x52
 11779 16af A9010000 		.4byte	.LVL468-1
 11780 16b3 F4010000 		.4byte	.LVL478
 11781 16b7 0100     		.2byte	0x1
 11782 16b9 58       		.byte	0x58
 11783 16ba F4010000 		.4byte	.LVL478
 11784 16be 03020000 		.4byte	.LVL479-1
 11785 16c2 0100     		.2byte	0x1
 11786 16c4 52       		.byte	0x52
 11787 16c5 03020000 		.4byte	.LVL479-1
 11788 16c9 86020000 		.4byte	.LVL491
 11789 16cd 0100     		.2byte	0x1
 11790 16cf 58       		.byte	0x58
 11791 16d0 00000000 		.4byte	0
 11792 16d4 00000000 		.4byte	0
 11793              	.LLST89:
 11794 16d8 92010000 		.4byte	.LVL466
 11795 16dc 86020000 		.4byte	.LVL491
 11796 16e0 0100     		.2byte	0x1
 11797 16e2 54       		.byte	0x54
 11798 16e3 00000000 		.4byte	0
 11799 16e7 00000000 		.4byte	0
 11800              	.LLST90:
 11801 16eb 46000000 		.4byte	.LVL419
 11802 16ef 52000000 		.4byte	.LVL420
 11803 16f3 0200     		.2byte	0x2
 11804 16f5 30       		.byte	0x30
 11805 16f6 9F       		.byte	0x9f
 11806 16f7 00000000 		.4byte	0
 11807 16fb 00000000 		.4byte	0
 11808              	.LLST91:
 11809 16ff A2000000 		.4byte	.LVL430
 11810 1703 BE000000 		.4byte	.LVL433
 11811 1707 0100     		.2byte	0x1
 11812 1709 54       		.byte	0x54
 11813 170a 00000000 		.4byte	0
 11814 170e 00000000 		.4byte	0
 11815              	.LLST92:
 11816 1712 76010000 		.4byte	.LVL463
 11817 1716 84010000 		.4byte	.LVL464
 11818 171a 0200     		.2byte	0x2
 11819 171c 30       		.byte	0x30
 11820 171d 9F       		.byte	0x9f
 11821 171e 00000000 		.4byte	0
 11822 1722 00000000 		.4byte	0
 11823              	.LLST93:
 11824 1726 9C010000 		.4byte	.LVL467
 11825 172a C2010000 		.4byte	.LVL470
 11826 172e 0100     		.2byte	0x1
 11827 1730 57       		.byte	0x57
 11828 1731 C2010000 		.4byte	.LVL470
ARM GAS  C:\Users\kiwamu\AppData\Local\Temp\ccIx7zyv.s 			page 274


 11829 1735 C4010000 		.4byte	.LVL471
 11830 1739 0400     		.2byte	0x4
 11831 173b 77       		.byte	0x77
 11832 173c 807C     		.sleb128 -512
 11833 173e 9F       		.byte	0x9f
 11834 173f C4010000 		.4byte	.LVL471
 11835 1743 D0010000 		.4byte	.LVL473
 11836 1747 0400     		.2byte	0x4
 11837 1749 F3       		.byte	0xf3
 11838 174a 01       		.uleb128 0x1
 11839 174b 51       		.byte	0x51
 11840 174c 9F       		.byte	0x9f
 11841 174d D0010000 		.4byte	.LVL473
 11842 1751 E4010000 		.4byte	.LVL475
 11843 1755 0100     		.2byte	0x1
 11844 1757 57       		.byte	0x57
 11845 1758 E4010000 		.4byte	.LVL475
 11846 175c E6010000 		.4byte	.LVL476
 11847 1760 0400     		.2byte	0x4
 11848 1762 77       		.byte	0x77
 11849 1763 C07B     		.sleb128 -576
 11850 1765 9F       		.byte	0x9f
 11851 1766 E6010000 		.4byte	.LVL476
 11852 176a F0010000 		.4byte	.LVL477
 11853 176e 0400     		.2byte	0x4
 11854 1770 F3       		.byte	0xf3
 11855 1771 01       		.uleb128 0x1
 11856 1772 51       		.byte	0x51
 11857 1773 9F       		.byte	0x9f
 11858 1774 00000000 		.4byte	0
 11859 1778 00000000 		.4byte	0
 11860              	.LLST94:
 11861 177c 9C010000 		.4byte	.LVL467
 11862 1780 F0010000 		.4byte	.LVL477
 11863 1784 0100     		.2byte	0x1
 11864 1786 56       		.byte	0x56
 11865 1787 00000000 		.4byte	0
 11866 178b 00000000 		.4byte	0
 11867              	.LLST95:
 11868 178f CE010000 		.4byte	.LVL472
 11869 1793 D0010000 		.4byte	.LVL473
 11870 1797 0100     		.2byte	0x1
 11871 1799 53       		.byte	0x53
 11872 179a 00000000 		.4byte	0
 11873 179e 00000000 		.4byte	0
 11874              	.LLST96:
 11875 17a2 F4010000 		.4byte	.LVL478
 11876 17a6 60020000 		.4byte	.LVL487
 11877 17aa 0300     		.2byte	0x3
 11878 17ac 91       		.byte	0x91
 11879 17ad 50       		.sleb128 -48
 11880 17ae 9F       		.byte	0x9f
 11881 17af 00000000 		.4byte	0
 11882 17b3 00000000 		.4byte	0
 11883              	.LLST97:
 11884 17b7 F4010000 		.4byte	.LVL478
 11885 17bb 60020000 		.4byte	.LVL487
ARM GAS  C:\Users\kiwamu\AppData\Local\Temp\ccIx7zyv.s 			page 275


 11886 17bf 0300     		.2byte	0x3
 11887 17c1 91       		.byte	0x91
 11888 17c2 4C       		.sleb128 -52
 11889 17c3 9F       		.byte	0x9f
 11890 17c4 00000000 		.4byte	0
 11891 17c8 00000000 		.4byte	0
 11892              	.LLST98:
 11893 17cc F4010000 		.4byte	.LVL478
 11894 17d0 20020000 		.4byte	.LVL481
 11895 17d4 0100     		.2byte	0x1
 11896 17d6 57       		.byte	0x57
 11897 17d7 20020000 		.4byte	.LVL481
 11898 17db 22020000 		.4byte	.LVL482
 11899 17df 0400     		.2byte	0x4
 11900 17e1 77       		.byte	0x77
 11901 17e2 807B     		.sleb128 -640
 11902 17e4 9F       		.byte	0x9f
 11903 17e5 22020000 		.4byte	.LVL482
 11904 17e9 38020000 		.4byte	.LVL483
 11905 17ed 0400     		.2byte	0x4
 11906 17ef F3       		.byte	0xf3
 11907 17f0 01       		.uleb128 0x1
 11908 17f1 51       		.byte	0x51
 11909 17f2 9F       		.byte	0x9f
 11910 17f3 38020000 		.4byte	.LVL483
 11911 17f7 4E020000 		.4byte	.LVL485
 11912 17fb 0100     		.2byte	0x1
 11913 17fd 57       		.byte	0x57
 11914 17fe 4E020000 		.4byte	.LVL485
 11915 1802 50020000 		.4byte	.LVL486
 11916 1806 0400     		.2byte	0x4
 11917 1808 77       		.byte	0x77
 11918 1809 C07A     		.sleb128 -704
 11919 180b 9F       		.byte	0x9f
 11920 180c 50020000 		.4byte	.LVL486
 11921 1810 60020000 		.4byte	.LVL487
 11922 1814 0400     		.2byte	0x4
 11923 1816 F3       		.byte	0xf3
 11924 1817 01       		.uleb128 0x1
 11925 1818 51       		.byte	0x51
 11926 1819 9F       		.byte	0x9f
 11927 181a 00000000 		.4byte	0
 11928 181e 00000000 		.4byte	0
 11929              	.LLST99:
 11930 1822 F4010000 		.4byte	.LVL478
 11931 1826 60020000 		.4byte	.LVL487
 11932 182a 0100     		.2byte	0x1
 11933 182c 56       		.byte	0x56
 11934 182d 00000000 		.4byte	0
 11935 1831 00000000 		.4byte	0
 11936              		.section	.debug_aranges,"",%progbits
 11937 0000 A4000000 		.4byte	0xa4
 11938 0004 0200     		.2byte	0x2
 11939 0006 00000000 		.4byte	.Ldebug_info0
 11940 000a 04       		.byte	0x4
 11941 000b 00       		.byte	0
 11942 000c 0000     		.2byte	0
ARM GAS  C:\Users\kiwamu\AppData\Local\Temp\ccIx7zyv.s 			page 276


 11943 000e 0000     		.2byte	0
 11944 0010 00000000 		.4byte	.LFB139
 11945 0014 18020000 		.4byte	.LFE139-.LFB139
 11946 0018 00000000 		.4byte	.LFB140
 11947 001c 58000000 		.4byte	.LFE140-.LFB140
 11948 0020 00000000 		.4byte	.LFB141
 11949 0024 50000000 		.4byte	.LFE141-.LFB141
 11950 0028 00000000 		.4byte	.LFB142
 11951 002c 40000000 		.4byte	.LFE142-.LFB142
 11952 0030 00000000 		.4byte	.LFB144
 11953 0034 70010000 		.4byte	.LFE144-.LFB144
 11954 0038 00000000 		.4byte	.LFB143
 11955 003c 60030000 		.4byte	.LFE143-.LFB143
 11956 0040 00000000 		.4byte	.LFB145
 11957 0044 7C000000 		.4byte	.LFE145-.LFB145
 11958 0048 00000000 		.4byte	.LFB146
 11959 004c CC000000 		.4byte	.LFE146-.LFB146
 11960 0050 00000000 		.4byte	.LFB148
 11961 0054 E4000000 		.4byte	.LFE148-.LFB148
 11962 0058 00000000 		.4byte	.LFB147
 11963 005c 84010000 		.4byte	.LFE147-.LFB147
 11964 0060 00000000 		.4byte	.LFB149
 11965 0064 44000000 		.4byte	.LFE149-.LFB149
 11966 0068 00000000 		.4byte	.LFB150
 11967 006c 58000000 		.4byte	.LFE150-.LFB150
 11968 0070 00000000 		.4byte	.LFB151
 11969 0074 A8010000 		.4byte	.LFE151-.LFB151
 11970 0078 00000000 		.4byte	.LFB152
 11971 007c 88000000 		.4byte	.LFE152-.LFB152
 11972 0080 00000000 		.4byte	.LFB153
 11973 0084 74000000 		.4byte	.LFE153-.LFB153
 11974 0088 00000000 		.4byte	.LFB154
 11975 008c 88000000 		.4byte	.LFE154-.LFB154
 11976 0090 00000000 		.4byte	.LFB155
 11977 0094 98010000 		.4byte	.LFE155-.LFB155
 11978 0098 00000000 		.4byte	.LFB156
 11979 009c BC020000 		.4byte	.LFE156-.LFB156
 11980 00a0 00000000 		.4byte	0
 11981 00a4 00000000 		.4byte	0
 11982              		.section	.debug_ranges,"",%progbits
 11983              	.Ldebug_ranges0:
 11984 0000 14000000 		.4byte	.LBB29
 11985 0004 B0010000 		.4byte	.LBE29
 11986 0008 B4010000 		.4byte	.LBB31
 11987 000c BA010000 		.4byte	.LBE31
 11988 0010 00000000 		.4byte	0
 11989 0014 00000000 		.4byte	0
 11990 0018 78000000 		.4byte	.LBB40
 11991 001c 20010000 		.4byte	.LBE40
 11992 0020 28010000 		.4byte	.LBB43
 11993 0024 34010000 		.4byte	.LBE43
 11994 0028 00000000 		.4byte	0
 11995 002c 00000000 		.4byte	0
 11996 0030 9C000000 		.4byte	.LBB50
 11997 0034 A0000000 		.4byte	.LBE50
 11998 0038 A2000000 		.4byte	.LBB62
 11999 003c 4C010000 		.4byte	.LBE62
ARM GAS  C:\Users\kiwamu\AppData\Local\Temp\ccIx7zyv.s 			page 277


 12000 0040 00000000 		.4byte	0
 12001 0044 00000000 		.4byte	0
 12002 0048 A6000000 		.4byte	.LBB51
 12003 004c B8000000 		.4byte	.LBE51
 12004 0050 00010000 		.4byte	.LBB60
 12005 0054 04010000 		.4byte	.LBE60
 12006 0058 00000000 		.4byte	0
 12007 005c 00000000 		.4byte	0
 12008 0060 C6000000 		.4byte	.LBB54
 12009 0064 00010000 		.4byte	.LBE54
 12010 0068 04010000 		.4byte	.LBB61
 12011 006c 4A010000 		.4byte	.LBE61
 12012 0070 00000000 		.4byte	0
 12013 0074 00000000 		.4byte	0
 12014 0078 00000000 		.4byte	.LFB139
 12015 007c 18020000 		.4byte	.LFE139
 12016 0080 00000000 		.4byte	.LFB140
 12017 0084 58000000 		.4byte	.LFE140
 12018 0088 00000000 		.4byte	.LFB141
 12019 008c 50000000 		.4byte	.LFE141
 12020 0090 00000000 		.4byte	.LFB142
 12021 0094 40000000 		.4byte	.LFE142
 12022 0098 00000000 		.4byte	.LFB144
 12023 009c 70010000 		.4byte	.LFE144
 12024 00a0 00000000 		.4byte	.LFB143
 12025 00a4 60030000 		.4byte	.LFE143
 12026 00a8 00000000 		.4byte	.LFB145
 12027 00ac 7C000000 		.4byte	.LFE145
 12028 00b0 00000000 		.4byte	.LFB146
 12029 00b4 CC000000 		.4byte	.LFE146
 12030 00b8 00000000 		.4byte	.LFB148
 12031 00bc E4000000 		.4byte	.LFE148
 12032 00c0 00000000 		.4byte	.LFB147
 12033 00c4 84010000 		.4byte	.LFE147
 12034 00c8 00000000 		.4byte	.LFB149
 12035 00cc 44000000 		.4byte	.LFE149
 12036 00d0 00000000 		.4byte	.LFB150
 12037 00d4 58000000 		.4byte	.LFE150
 12038 00d8 00000000 		.4byte	.LFB151
 12039 00dc A8010000 		.4byte	.LFE151
 12040 00e0 00000000 		.4byte	.LFB152
 12041 00e4 88000000 		.4byte	.LFE152
 12042 00e8 00000000 		.4byte	.LFB153
 12043 00ec 74000000 		.4byte	.LFE153
 12044 00f0 00000000 		.4byte	.LFB154
 12045 00f4 88000000 		.4byte	.LFE154
 12046 00f8 00000000 		.4byte	.LFB155
 12047 00fc 98010000 		.4byte	.LFE155
 12048 0100 00000000 		.4byte	.LFB156
 12049 0104 BC020000 		.4byte	.LFE156
 12050 0108 00000000 		.4byte	0
 12051 010c 00000000 		.4byte	0
 12052              		.section	.debug_line,"",%progbits
 12053              	.Ldebug_line0:
 12054 0000 1F090000 		.section	.debug_str,"MS",%progbits,1
 12054      0200C302 
 12054      00000201 
ARM GAS  C:\Users\kiwamu\AppData\Local\Temp\ccIx7zyv.s 			page 278


 12054      FB0E0D00 
 12054      01010101 
 12055              	.LASF21:
 12056 0000 52455345 		.ascii	"RESERVED\000"
 12056      52564544 
 12056      00
 12057              	.LASF161:
 12058 0009 434C4B5F 		.ascii	"CLK_TRIM_CCO_CTL2\000"
 12058      5452494D 
 12058      5F43434F 
 12058      5F43544C 
 12058      3200
 12059              	.LASF170:
 12060 001b 53525353 		.ascii	"SRSS_Type\000"
 12060      5F547970 
 12060      6500
 12061              	.LASF371:
 12062 0025 43795F53 		.ascii	"Cy_SysClk_PllEnable\000"
 12062      7973436C 
 12062      6B5F506C 
 12062      6C456E61 
 12062      626C6500 
 12063              	.LASF247:
 12064 0039 43595F53 		.ascii	"CY_SYSCLK_MEAS_CLK_PILO\000"
 12064      5953434C 
 12064      4B5F4D45 
 12064      41535F43 
 12064      4C4B5F50 
 12065              	.LASF323:
 12066 0051 636C6B48 		.ascii	"clkHf\000"
 12066      6600
 12067              	.LASF397:
 12068 0057 43795F53 		.ascii	"Cy_SysClk_PeriphGetFracDivider\000"
 12068      7973436C 
 12068      6B5F5065 
 12068      72697068 
 12068      47657446 
 12069              	.LASF172:
 12070 0076 63686172 		.ascii	"char\000"
 12070      00
 12071              	.LASF83:
 12072 007b 44505F53 		.ascii	"DP_STATUS\000"
 12072      54415455 
 12072      5300
 12073              	.LASF370:
 12074 0085 43795F53 		.ascii	"Cy_SysClk_PllGetConfiguration\000"
 12074      7973436C 
 12074      6B5F506C 
 12074      6C476574 
 12074      436F6E66 
 12075              	.LASF348:
 12076 00a3 72657475 		.ascii	"returnStatus\000"
 12076      726E5374 
 12076      61747573 
 12076      00
 12077              	.LASF81:
 12078 00b0 5544425F 		.ascii	"UDB_PWR_DELAY_CTL\000"
ARM GAS  C:\Users\kiwamu\AppData\Local\Temp\ccIx7zyv.s 			page 279


 12078      5057525F 
 12078      44454C41 
 12078      595F4354 
 12078      4C00
 12079              	.LASF310:
 12080 00c2 43595F53 		.ascii	"CY_SYSCLK_DIV_8_BIT\000"
 12080      5953434C 
 12080      4B5F4449 
 12080      565F385F 
 12080      42495400 
 12081              	.LASF378:
 12082 00d6 72656643 		.ascii	"refClkFreq\000"
 12082      6C6B4672 
 12082      657100
 12083              	.LASF184:
 12084 00e1 63795F65 		.ascii	"cy_en_syspm_status_t\000"
 12084      6E5F7379 
 12084      73706D5F 
 12084      73746174 
 12084      75735F74 
 12085              	.LASF342:
 12086 00f6 43795F53 		.ascii	"Cy_SysClk_ClkPathSetSource\000"
 12086      7973436C 
 12086      6B5F436C 
 12086      6B506174 
 12086      68536574 
 12087              	.LASF320:
 12088 0111 7472696D 		.ascii	"trimVal\000"
 12088      56616C00 
 12089              	.LASF25:
 12090 0119 50455249 		.ascii	"PERI_GR_Type\000"
 12090      5F47525F 
 12090      54797065 
 12090      00
 12091              	.LASF407:
 12092 0126 696E7465 		.ascii	"integer\000"
 12092      67657200 
 12093              	.LASF196:
 12094 012e 43595F53 		.ascii	"CY_SYSCLK_TIMEOUT\000"
 12094      5953434C 
 12094      4B5F5449 
 12094      4D454F55 
 12094      5400
 12095              	.LASF230:
 12096 0140 63636F5F 		.ascii	"cco_Freq\000"
 12096      46726571 
 12096      00
 12097              	.LASF124:
 12098 0149 5057525F 		.ascii	"PWR_LVD_STATUS\000"
 12098      4C56445F 
 12098      53544154 
 12098      555300
 12099              	.LASF157:
 12100 0158 5245535F 		.ascii	"RES_CAUSE2\000"
 12100      43415553 
 12100      453200
 12101              	.LASF328:
ARM GAS  C:\Users\kiwamu\AppData\Local\Temp\ccIx7zyv.s 			page 280


 12102 0163 64726976 		.ascii	"driveLevel\000"
 12102      654C6576 
 12102      656C00
 12103              	.LASF194:
 12104 016e 43595F53 		.ascii	"CY_SYSCLK_SUCCESS\000"
 12104      5953434C 
 12104      4B5F5355 
 12104      43434553 
 12104      5300
 12105              	.LASF395:
 12106 0180 64697669 		.ascii	"dividerNum\000"
 12106      6465724E 
 12106      756D00
 12107              	.LASF49:
 12108 018b 434D305F 		.ascii	"CM0_CLOCK_CTL\000"
 12108      434C4F43 
 12108      4B5F4354 
 12108      4C00
 12109              	.LASF153:
 12110 0199 53525353 		.ascii	"SRSS_INTR_MASK\000"
 12110      5F494E54 
 12110      525F4D41 
 12110      534B00
 12111              	.LASF148:
 12112 01a8 434C4B5F 		.ascii	"CLK_FLL_STATUS\000"
 12112      464C4C5F 
 12112      53544154 
 12112      555300
 12113              	.LASF93:
 12114 01b7 434D345F 		.ascii	"CM4_VECTOR_TABLE_BASE\000"
 12114      56454354 
 12114      4F525F54 
 12114      41424C45 
 12114      5F424153 
 12115              	.LASF408:
 12116 01cd 66726163 		.ascii	"frac\000"
 12116      00
 12117              	.LASF6:
 12118 01d2 5F5F696E 		.ascii	"__int32_t\000"
 12118      7433325F 
 12118      7400
 12119              	.LASF135:
 12120 01dc 434C4B5F 		.ascii	"CLK_ILO_CONFIG\000"
 12120      494C4F5F 
 12120      434F4E46 
 12120      494700
 12121              	.LASF72:
 12122 01eb 52414D32 		.ascii	"RAM2_CTL0\000"
 12122      5F43544C 
 12122      3000
 12123              	.LASF283:
 12124 01f5 43595F53 		.ascii	"CY_SYSCLK_MEAS_CLK_CLKHF13\000"
 12124      5953434C 
 12124      4B5F4D45 
 12124      41535F43 
 12124      4C4B5F43 
 12125              	.LASF225:
ARM GAS  C:\Users\kiwamu\AppData\Local\Temp\ccIx7zyv.s 			page 281


 12126 0210 6C6F636B 		.ascii	"lockTolerance\000"
 12126      546F6C65 
 12126      72616E63 
 12126      6500
 12127              	.LASF222:
 12128 021e 72656644 		.ascii	"refDiv\000"
 12128      697600
 12129              	.LASF43:
 12130 0225 5050555F 		.ascii	"PPU_PR\000"
 12130      505200
 12131              	.LASF380:
 12132 022c 696C6F46 		.ascii	"iloFreq\000"
 12132      72657100 
 12133              	.LASF208:
 12134 0234 43595F53 		.ascii	"CY_SYSCLK_CLKPATH_IN_PILO\000"
 12134      5953434C 
 12134      4B5F434C 
 12134      4B504154 
 12134      485F494E 
 12135              	.LASF382:
 12136 024e 6E657754 		.ascii	"newTrim\000"
 12136      72696D00 
 12137              	.LASF204:
 12138 0256 43595F53 		.ascii	"CY_SYSCLK_CLKPATH_IN_DSI\000"
 12138      5953434C 
 12138      4B5F434C 
 12138      4B504154 
 12138      485F494E 
 12139              	.LASF138:
 12140 026f 434C4B5F 		.ascii	"CLK_OUTPUT_SLOW\000"
 12140      4F555450 
 12140      55545F53 
 12140      4C4F5700 
 12141              	.LASF321:
 12142 027f 636C6B50 		.ascii	"clkPath\000"
 12142      61746800 
 12143              	.LASF0:
 12144 0287 73686F72 		.ascii	"short int\000"
 12144      7420696E 
 12144      7400
 12145              	.LASF133:
 12146 0291 434C4B5F 		.ascii	"CLK_SELECT\000"
 12146      53454C45 
 12146      435400
 12147              	.LASF105:
 12148 029c 5452494D 		.ascii	"TRIM_ROM_CTL\000"
 12148      5F524F4D 
 12148      5F43544C 
 12148      00
 12149              	.LASF417:
 12150 02a9 666C6F6F 		.ascii	"floor\000"
 12150      7200
 12151              	.LASF34:
 12152 02af 4449565F 		.ascii	"DIV_CMD\000"
 12152      434D4400 
 12153              	.LASF190:
 12154 02b7 6D6F6465 		.ascii	"mode\000"
ARM GAS  C:\Users\kiwamu\AppData\Local\Temp\ccIx7zyv.s 			page 282


 12154      00
 12155              	.LASF87:
 12156 02bc 44444654 		.ascii	"DDFT_CTL\000"
 12156      5F43544C 
 12156      00
 12157              	.LASF362:
 12158 02c5 43795F53 		.ascii	"Cy_SysClk_FllEnable\000"
 12158      7973436C 
 12158      6B5F466C 
 12158      6C456E61 
 12158      626C6500 
 12159              	.LASF393:
 12160 02d9 43795F53 		.ascii	"Cy_SysClk_PeriphGetDivider\000"
 12160      7973436C 
 12160      6B5F5065 
 12160      72697068 
 12160      47657444 
 12161              	.LASF159:
 12162 02f4 5057525F 		.ascii	"PWR_TRIM_BODOVP_CTL\000"
 12162      5452494D 
 12162      5F424F44 
 12162      4F56505F 
 12162      43544C00 
 12163              	.LASF221:
 12164 0308 666C6C4D 		.ascii	"fllMult\000"
 12164      756C7400 
 12165              	.LASF78:
 12166 0310 524F4D5F 		.ascii	"ROM_CTL\000"
 12166      43544C00 
 12167              	.LASF48:
 12168 0318 434D305F 		.ascii	"CM0_STATUS\000"
 12168      53544154 
 12168      555300
 12169              	.LASF309:
 12170 0323 63795F65 		.ascii	"cy_en_clkhf_dividers_t\000"
 12170      6E5F636C 
 12170      6B68665F 
 12170      64697669 
 12170      64657273 
 12171              	.LASF396:
 12172 033a 43795F53 		.ascii	"Cy_SysClk_PiloSetTrim\000"
 12172      7973436C 
 12172      6B5F5069 
 12172      6C6F5365 
 12172      74547269 
 12173              	.LASF373:
 12174 0350 636C6F63 		.ascii	"clock1\000"
 12174      6B3100
 12175              	.LASF375:
 12176 0357 636C6F63 		.ascii	"clock2\000"
 12176      6B3200
 12177              	.LASF354:
 12178 035e 6B63636F 		.ascii	"kcco\000"
 12178      00
 12179              	.LASF399:
 12180 0363 64697669 		.ascii	"dividerFracValue\000"
 12180      64657246 
ARM GAS  C:\Users\kiwamu\AppData\Local\Temp\ccIx7zyv.s 			page 283


 12180      72616356 
 12180      616C7565 
 12180      00
 12181              	.LASF361:
 12182 0374 74656D70 		.ascii	"tempReg\000"
 12182      52656700 
 12183              	.LASF286:
 12184 037c 43595F53 		.ascii	"CY_SYSCLK_MEAS_CLK_LAST_CLK\000"
 12184      5953434C 
 12184      4B5F4D45 
 12184      41535F43 
 12184      4C4B5F4C 
 12185              	.LASF119:
 12186 0398 5057525F 		.ascii	"PWR_CTL\000"
 12186      43544C00 
 12187              	.LASF162:
 12188 03a0 5057525F 		.ascii	"PWR_TRIM_WAKE_CTL\000"
 12188      5452494D 
 12188      5F57414B 
 12188      455F4354 
 12188      4C00
 12189              	.LASF125:
 12190 03b2 5057525F 		.ascii	"PWR_HIB_DATA\000"
 12190      4849425F 
 12190      44415441 
 12190      00
 12191              	.LASF372:
 12192 03bf 43795F53 		.ascii	"Cy_SysClk_StartClkMeasurementCounters\000"
 12192      7973436C 
 12192      6B5F5374 
 12192      61727443 
 12192      6C6B4D65 
 12193              	.LASF387:
 12194 03e5 43795F53 		.ascii	"Cy_SysClk_DeepSleepCallback\000"
 12194      7973436C 
 12194      6B5F4465 
 12194      6570536C 
 12194      65657043 
 12195              	.LASF402:
 12196 0401 736F7572 		.ascii	"source_freq\000"
 12196      63655F66 
 12196      72657100 
 12197              	.LASF319:
 12198 040d 43795F53 		.ascii	"Cy_SysClk_PllLocked\000"
 12198      7973436C 
 12198      6B5F506C 
 12198      6C4C6F63 
 12198      6B656400 
 12199              	.LASF336:
 12200 0421 67747269 		.ascii	"gtrim\000"
 12200      6D00
 12201              	.LASF70:
 12202 0427 52414D31 		.ascii	"RAM1_PWR_CTL\000"
 12202      5F505752 
 12202      5F43544C 
 12202      00
 12203              	.LASF409:
ARM GAS  C:\Users\kiwamu\AppData\Local\Temp\ccIx7zyv.s 			page 284


 12204 0434 636C6B64 		.ascii	"clkdiv\000"
 12204      697600
 12205              	.LASF17:
 12206 043b 75696E74 		.ascii	"uint32_t\000"
 12206      33325F74 
 12206      00
 12207              	.LASF299:
 12208 0444 43595F53 		.ascii	"CY_SYSCLK_CLKHF_IN_CLKPATH11\000"
 12208      5953434C 
 12208      4B5F434C 
 12208      4B48465F 
 12208      494E5F43 
 12209              	.LASF164:
 12210 0461 434C4B5F 		.ascii	"CLK_TRIM_ILO_CTL\000"
 12210      5452494D 
 12210      5F494C4F 
 12210      5F43544C 
 12210      00
 12211              	.LASF116:
 12212 0472 4D435744 		.ascii	"MCWDT_INTR_MASKED\000"
 12212      545F494E 
 12212      54525F4D 
 12212      41534B45 
 12212      4400
 12213              	.LASF406:
 12214 0484 636C6B48 		.ascii	"clkHf0_div\000"
 12214      66305F64 
 12214      697600
 12215              	.LASF418:
 12216 048f 474E5520 		.ascii	"GNU C11 5.4.1 20160609 (release) [ARM/embedded-5-br"
 12216      43313120 
 12216      352E342E 
 12216      31203230 
 12216      31363036 
 12217 04c2 616E6368 		.ascii	"anch revision 237715] -mcpu=cortex-m0plus -mthumb -"
 12217      20726576 
 12217      6973696F 
 12217      6E203233 
 12217      37373135 
 12218 04f5 67202D4F 		.ascii	"g -Og -ffunction-sections -ffat-lto-objects\000"
 12218      67202D66 
 12218      66756E63 
 12218      74696F6E 
 12218      2D736563 
 12219              	.LASF413:
 12220 0521 73717274 		.ascii	"sqrt\000"
 12220      00
 12221              	.LASF191:
 12222 0526 62617365 		.ascii	"base\000"
 12222      00
 12223              	.LASF280:
 12224 052b 43595F53 		.ascii	"CY_SYSCLK_MEAS_CLK_CLKHF10\000"
 12224      5953434C 
 12224      4B5F4D45 
 12224      41535F43 
 12224      4C4B5F43 
 12225              	.LASF281:
ARM GAS  C:\Users\kiwamu\AppData\Local\Temp\ccIx7zyv.s 			page 285


 12226 0546 43595F53 		.ascii	"CY_SYSCLK_MEAS_CLK_CLKHF11\000"
 12226      5953434C 
 12226      4B5F4D45 
 12226      41535F43 
 12226      4C4B5F43 
 12227              	.LASF22:
 12228 0561 534C5F43 		.ascii	"SL_CTL\000"
 12228      544C00
 12229              	.LASF369:
 12230 0568 666F7574 		.ascii	"fout\000"
 12230      00
 12231              	.LASF284:
 12232 056d 43595F53 		.ascii	"CY_SYSCLK_MEAS_CLK_CLKHF14\000"
 12232      5953434C 
 12232      4B5F4D45 
 12232      41535F43 
 12232      4C4B5F43 
 12233              	.LASF285:
 12234 0588 43595F53 		.ascii	"CY_SYSCLK_MEAS_CLK_CLKHF15\000"
 12234      5953434C 
 12234      4B5F4D45 
 12234      41535F43 
 12234      4C4B5F43 
 12235              	.LASF228:
 12236 05a3 73657474 		.ascii	"settlingCount\000"
 12236      6C696E67 
 12236      436F756E 
 12236      7400
 12237              	.LASF163:
 12238 05b1 5057525F 		.ascii	"PWR_TRIM_LVD_CTL\000"
 12238      5452494D 
 12238      5F4C5644 
 12238      5F43544C 
 12238      00
 12239              	.LASF67:
 12240 05c2 52414D30 		.ascii	"RAM0_PWR_MACRO_CTL\000"
 12240      5F505752 
 12240      5F4D4143 
 12240      524F5F43 
 12240      544C00
 12241              	.LASF12:
 12242 05d5 6C6F6E67 		.ascii	"long long unsigned int\000"
 12242      206C6F6E 
 12242      6720756E 
 12242      7369676E 
 12242      65642069 
 12243              	.LASF337:
 12244 05ec 72747269 		.ascii	"rtrim\000"
 12244      6D00
 12245              	.LASF226:
 12246 05f2 69676169 		.ascii	"igain\000"
 12246      6E00
 12247              	.LASF288:
 12248 05f8 43595F53 		.ascii	"CY_SYSCLK_CLKHF_IN_CLKPATH0\000"
 12248      5953434C 
 12248      4B5F434C 
 12248      4B48465F 
ARM GAS  C:\Users\kiwamu\AppData\Local\Temp\ccIx7zyv.s 			page 286


 12248      494E5F43 
 12249              	.LASF289:
 12250 0614 43595F53 		.ascii	"CY_SYSCLK_CLKHF_IN_CLKPATH1\000"
 12250      5953434C 
 12250      4B5F434C 
 12250      4B48465F 
 12250      494E5F43 
 12251              	.LASF290:
 12252 0630 43595F53 		.ascii	"CY_SYSCLK_CLKHF_IN_CLKPATH2\000"
 12252      5953434C 
 12252      4B5F434C 
 12252      4B48465F 
 12252      494E5F43 
 12253              	.LASF291:
 12254 064c 43595F53 		.ascii	"CY_SYSCLK_CLKHF_IN_CLKPATH3\000"
 12254      5953434C 
 12254      4B5F434C 
 12254      4B48465F 
 12254      494E5F43 
 12255              	.LASF292:
 12256 0668 43595F53 		.ascii	"CY_SYSCLK_CLKHF_IN_CLKPATH4\000"
 12256      5953434C 
 12256      4B5F434C 
 12256      4B48465F 
 12256      494E5F43 
 12257              	.LASF293:
 12258 0684 43595F53 		.ascii	"CY_SYSCLK_CLKHF_IN_CLKPATH5\000"
 12258      5953434C 
 12258      4B5F434C 
 12258      4B48465F 
 12258      494E5F43 
 12259              	.LASF294:
 12260 06a0 43595F53 		.ascii	"CY_SYSCLK_CLKHF_IN_CLKPATH6\000"
 12260      5953434C 
 12260      4B5F434C 
 12260      4B48465F 
 12260      494E5F43 
 12261              	.LASF295:
 12262 06bc 43595F53 		.ascii	"CY_SYSCLK_CLKHF_IN_CLKPATH7\000"
 12262      5953434C 
 12262      4B5F434C 
 12262      4B48465F 
 12262      494E5F43 
 12263              	.LASF296:
 12264 06d8 43595F53 		.ascii	"CY_SYSCLK_CLKHF_IN_CLKPATH8\000"
 12264      5953434C 
 12264      4B5F434C 
 12264      4B48465F 
 12264      494E5F43 
 12265              	.LASF297:
 12266 06f4 43595F53 		.ascii	"CY_SYSCLK_CLKHF_IN_CLKPATH9\000"
 12266      5953434C 
 12266      4B5F434C 
 12266      4B48465F 
 12266      494E5F43 
 12267              	.LASF420:
 12268 0710 433A5C55 		.ascii	"C:\\Users\\kiwamu\\Downloads\\CE220465\\CE220465_PS"
ARM GAS  C:\Users\kiwamu\AppData\Local\Temp\ccIx7zyv.s 			page 287


 12268      73657273 
 12268      5C6B6977 
 12268      616D755C 
 12268      446F776E 
 12269 073e 6F435F36 		.ascii	"oC_6_MCU_Cryptography_AES_Demonstration.cydsn\000"
 12269      5F4D4355 
 12269      5F437279 
 12269      70746F67 
 12269      72617068 
 12270              	.LASF4:
 12271 076c 5F5F7569 		.ascii	"__uint16_t\000"
 12271      6E743136 
 12271      5F7400
 12272              	.LASF123:
 12273 0777 5057525F 		.ascii	"PWR_BUCK_CTL2\000"
 12273      4255434B 
 12273      5F43544C 
 12273      3200
 12274              	.LASF243:
 12275 0785 43595F53 		.ascii	"CY_SYSCLK_MEAS_CLK_BAK\000"
 12275      5953434C 
 12275      4B5F4D45 
 12275      41535F43 
 12275      4C4B5F42 
 12276              	.LASF315:
 12277 079c 43795F53 		.ascii	"Cy_SysClk_FllDisable\000"
 12277      7973436C 
 12277      6B5F466C 
 12277      6C446973 
 12277      61626C65 
 12278              	.LASF173:
 12279 07b1 666C6F61 		.ascii	"float32_t\000"
 12279      7433325F 
 12279      7400
 12280              	.LASF340:
 12281 07bb 43795F53 		.ascii	"Cy_SysClk_EcoEnable\000"
 12281      7973436C 
 12281      6B5F4563 
 12281      6F456E61 
 12281      626C6500 
 12282              	.LASF357:
 12283 07cf 74747265 		.ascii	"ttref\000"
 12283      6600
 12284              	.LASF355:
 12285 07d5 6B695F70 		.ascii	"ki_p\000"
 12285      00
 12286              	.LASF151:
 12287 07da 53525353 		.ascii	"SRSS_INTR\000"
 12287      5F494E54 
 12287      5200
 12288              	.LASF144:
 12289 07e4 434C4B5F 		.ascii	"CLK_FLL_CONFIG\000"
 12289      464C4C5F 
 12289      434F4E46 
 12289      494700
 12290              	.LASF322:
 12291 07f3 43795F53 		.ascii	"Cy_SysClk_ClkHfGetSource\000"
ARM GAS  C:\Users\kiwamu\AppData\Local\Temp\ccIx7zyv.s 			page 288


 12291      7973436C 
 12291      6B5F436C 
 12291      6B486647 
 12291      6574536F 
 12292              	.LASF350:
 12293 080c 63636F46 		.ascii	"ccoFreq\000"
 12293      72657100 
 12294              	.LASF107:
 12295 0814 43505553 		.ascii	"CPUSS_Type\000"
 12295      535F5479 
 12295      706500
 12296              	.LASF142:
 12297 081f 434C4B5F 		.ascii	"CLK_ECO_STATUS\000"
 12297      45434F5F 
 12297      53544154 
 12297      555300
 12298              	.LASF179:
 12299 082e 43595F53 		.ascii	"CY_SYSPM_SUCCESS\000"
 12299      5953504D 
 12299      5F535543 
 12299      43455353 
 12299      00
 12300              	.LASF109:
 12301 083f 4D435744 		.ascii	"MCWDT_CNTHIGH\000"
 12301      545F434E 
 12301      54484947 
 12301      4800
 12302              	.LASF193:
 12303 084d 63795F73 		.ascii	"cy_stc_syspm_callback_params_t\000"
 12303      74635F73 
 12303      7973706D 
 12303      5F63616C 
 12303      6C626163 
 12304              	.LASF306:
 12305 086c 43595F53 		.ascii	"CY_SYSCLK_CLKHF_DIVIDE_BY_2\000"
 12305      5953434C 
 12305      4B5F434C 
 12305      4B48465F 
 12305      44495649 
 12306              	.LASF307:
 12307 0888 43595F53 		.ascii	"CY_SYSCLK_CLKHF_DIVIDE_BY_4\000"
 12307      5953434C 
 12307      4B5F434C 
 12307      4B48465F 
 12307      44495649 
 12308              	.LASF40:
 12309 08a4 54525F43 		.ascii	"TR_CMD\000"
 12309      4D4400
 12310              	.LASF308:
 12311 08ab 43595F53 		.ascii	"CY_SYSCLK_CLKHF_DIVIDE_BY_8\000"
 12311      5953434C 
 12311      4B5F434C 
 12311      4B48465F 
 12311      44495649 
 12312              	.LASF198:
 12313 08c7 63795F65 		.ascii	"cy_en_sysclk_status_t\000"
 12313      6E5F7379 
ARM GAS  C:\Users\kiwamu\AppData\Local\Temp\ccIx7zyv.s 			page 289


 12313      73636C6B 
 12313      5F737461 
 12313      7475735F 
 12314              	.LASF145:
 12315 08dd 434C4B5F 		.ascii	"CLK_FLL_CONFIG2\000"
 12315      464C4C5F 
 12315      434F4E46 
 12315      49473200 
 12316              	.LASF317:
 12317 08ed 43795F53 		.ascii	"Cy_SysClk_FllLocked\000"
 12317      7973436C 
 12317      6B5F466C 
 12317      6C4C6F63 
 12317      6B656400 
 12318              	.LASF147:
 12319 0901 434C4B5F 		.ascii	"CLK_FLL_CONFIG4\000"
 12319      464C4C5F 
 12319      434F4E46 
 12319      49473400 
 12320              	.LASF128:
 12321 0911 5744545F 		.ascii	"WDT_MATCH\000"
 12321      4D415443 
 12321      4800
 12322              	.LASF139:
 12323 091b 434C4B5F 		.ascii	"CLK_CAL_CNT1\000"
 12323      43414C5F 
 12323      434E5431 
 12323      00
 12324              	.LASF140:
 12325 0928 434C4B5F 		.ascii	"CLK_CAL_CNT2\000"
 12325      43414C5F 
 12325      434E5432 
 12325      00
 12326              	.LASF233:
 12327 0935 696E7075 		.ascii	"inputFreq\000"
 12327      74467265 
 12327      7100
 12328              	.LASF186:
 12329 093f 43595F53 		.ascii	"CY_SYSPM_CHECK_FAIL\000"
 12329      5953504D 
 12329      5F434845 
 12329      434B5F46 
 12329      41494C00 
 12330              	.LASF239:
 12331 0953 6F757470 		.ascii	"outputDiv\000"
 12331      75744469 
 12331      7600
 12332              	.LASF304:
 12333 095d 63795F65 		.ascii	"cy_en_clkhf_in_sources_t\000"
 12333      6E5F636C 
 12333      6B68665F 
 12333      696E5F73 
 12333      6F757263 
 12334              	.LASF231:
 12335 0976 5F426F6F 		.ascii	"_Bool\000"
 12335      6C00
 12336              	.LASF65:
ARM GAS  C:\Users\kiwamu\AppData\Local\Temp\ccIx7zyv.s 			page 290


 12337 097c 52414D30 		.ascii	"RAM0_CTL0\000"
 12337      5F43544C 
 12337      3000
 12338              	.LASF227:
 12339 0986 70676169 		.ascii	"pgain\000"
 12339      6E00
 12340              	.LASF115:
 12341 098c 4D435744 		.ascii	"MCWDT_INTR_MASK\000"
 12341      545F494E 
 12341      54525F4D 
 12341      41534B00 
 12342              	.LASF38:
 12343 099c 4449565F 		.ascii	"DIV_24_5_CTL\000"
 12343      32345F35 
 12343      5F43544C 
 12343      00
 12344              	.LASF149:
 12345 09a9 434C4B5F 		.ascii	"CLK_PLL_CONFIG\000"
 12345      504C4C5F 
 12345      434F4E46 
 12345      494700
 12346              	.LASF95:
 12347 09b8 434D305F 		.ascii	"CM0_PC0_HANDLER\000"
 12347      5043305F 
 12347      48414E44 
 12347      4C455200 
 12348              	.LASF240:
 12349 09c8 63795F73 		.ascii	"cy_stc_pll_manual_config_t\000"
 12349      74635F70 
 12349      6C6C5F6D 
 12349      616E7561 
 12349      6C5F636F 
 12350              	.LASF150:
 12351 09e3 434C4B5F 		.ascii	"CLK_PLL_STATUS\000"
 12351      504C4C5F 
 12351      53544154 
 12351      555300
 12352              	.LASF36:
 12353 09f2 4449565F 		.ascii	"DIV_16_CTL\000"
 12353      31365F43 
 12353      544C00
 12354              	.LASF214:
 12355 09fd 63795F65 		.ascii	"cy_en_fll_pll_output_mode_t\000"
 12355      6E5F666C 
 12355      6C5F706C 
 12355      6C5F6F75 
 12355      74707574 
 12356              	.LASF326:
 12357 0a19 66726571 		.ascii	"freq\000"
 12357      00
 12358              	.LASF252:
 12359 0a1e 43595F53 		.ascii	"CY_SYSCLK_MEAS_CLK_PATH_CLKS\000"
 12359      5953434C 
 12359      4B5F4D45 
 12359      41535F43 
 12359      4C4B5F50 
 12360              	.LASF155:
ARM GAS  C:\Users\kiwamu\AppData\Local\Temp\ccIx7zyv.s 			page 291


 12361 0a3b 53525353 		.ascii	"SRSS_INTR_CFG\000"
 12361      5F494E54 
 12361      525F4346 
 12361      4700
 12362              	.LASF76:
 12363 0a49 52414D5F 		.ascii	"RAM_PWR_DELAY_CTL\000"
 12363      5057525F 
 12363      44454C41 
 12363      595F4354 
 12363      4C00
 12364              	.LASF168:
 12365 0a5b 434C4B5F 		.ascii	"CLK_TRIM_PILO_CTL2\000"
 12365      5452494D 
 12365      5F50494C 
 12365      4F5F4354 
 12365      4C3200
 12366              	.LASF169:
 12367 0a6e 434C4B5F 		.ascii	"CLK_TRIM_PILO_CTL3\000"
 12367      5452494D 
 12367      5F50494C 
 12367      4F5F4354 
 12367      4C3300
 12368              	.LASF136:
 12369 0a81 434C4B5F 		.ascii	"CLK_IMO_CONFIG\000"
 12369      494D4F5F 
 12369      434F4E46 
 12369      494700
 12370              	.LASF381:
 12371 0a90 7472696D 		.ascii	"trimStep\000"
 12371      53746570 
 12371      00
 12372              	.LASF33:
 12373 0a99 50455249 		.ascii	"PERI_PPU_GR_Type\000"
 12373      5F505055 
 12373      5F47525F 
 12373      54797065 
 12373      00
 12374              	.LASF398:
 12375 0aaa 64697669 		.ascii	"dividerIntValue\000"
 12375      64657249 
 12375      6E745661 
 12375      6C756500 
 12376              	.LASF346:
 12377 0aba 43795F53 		.ascii	"Cy_SysClk_FllManualConfigure\000"
 12377      7973436C 
 12377      6B5F466C 
 12377      6C4D616E 
 12377      75616C43 
 12378              	.LASF181:
 12379 0ad7 43595F53 		.ascii	"CY_SYSPM_TIMEOUT\000"
 12379      5953504D 
 12379      5F54494D 
 12379      454F5554 
 12379      00
 12380              	.LASF245:
 12381 0ae8 43595F53 		.ascii	"CY_SYSCLK_MEAS_CLK_LFCLK\000"
 12381      5953434C 
ARM GAS  C:\Users\kiwamu\AppData\Local\Temp\ccIx7zyv.s 			page 292


 12381      4B5F4D45 
 12381      41535F43 
 12381      4C4B5F4C 
 12382              	.LASF182:
 12383 0b01 43595F53 		.ascii	"CY_SYSPM_INVALID_STATE\000"
 12383      5953504D 
 12383      5F494E56 
 12383      414C4944 
 12383      5F535441 
 12384              	.LASF37:
 12385 0b18 4449565F 		.ascii	"DIV_16_5_CTL\000"
 12385      31365F35 
 12385      5F43544C 
 12385      00
 12386              	.LASF216:
 12387 0b25 43595F53 		.ascii	"CY_SYSCLK_FLL_CCO_RANGE1\000"
 12387      5953434C 
 12387      4B5F464C 
 12387      4C5F4343 
 12387      4F5F5241 
 12388              	.LASF101:
 12389 0b3e 434D305F 		.ascii	"CM0_NMI_CTL\000"
 12389      4E4D495F 
 12389      43544C00 
 12390              	.LASF365:
 12391 0b4a 43795F53 		.ascii	"Cy_SysClk_PllConfigure\000"
 12391      7973436C 
 12391      6B5F506C 
 12391      6C436F6E 
 12391      66696775 
 12392              	.LASF219:
 12393 0b61 43595F53 		.ascii	"CY_SYSCLK_FLL_CCO_RANGE4\000"
 12393      5953434C 
 12393      4B5F464C 
 12393      4C5F4343 
 12393      4F5F5241 
 12394              	.LASF26:
 12395 0b7a 54525F4F 		.ascii	"TR_OUT_CTL\000"
 12395      55545F43 
 12395      544C00
 12396              	.LASF333:
 12397 0b85 6E416D70 		.ascii	"nAmpSections\000"
 12397      53656374 
 12397      696F6E73 
 12397      00
 12398              	.LASF42:
 12399 0b92 54525F47 		.ascii	"TR_GR\000"
 12399      5200
 12400              	.LASF403:
 12401 0b98 70617468 		.ascii	"path\000"
 12401      00
 12402              	.LASF415:
 12403 0b9d 43795F53 		.ascii	"Cy_SysLib_AssertFailed\000"
 12403      79734C69 
 12403      625F4173 
 12403      73657274 
 12403      4661696C 
ARM GAS  C:\Users\kiwamu\AppData\Local\Temp\ccIx7zyv.s 			page 293


 12404              	.LASF61:
 12405 0bb4 434D345F 		.ascii	"CM4_CLOCK_CTL\000"
 12405      434C4F43 
 12405      4B5F4354 
 12405      4C00
 12406              	.LASF419:
 12407 0bc2 47656E65 		.ascii	"Generated_Source\\PSoC6\\pdl\\drivers\\peripheral\\"
 12407      72617465 
 12407      645F536F 
 12407      75726365 
 12407      5C50536F 
 12408 0bf0 73797363 		.ascii	"sysclk\\cy_sysclk.c\000"
 12408      6C6B5C63 
 12408      795F7379 
 12408      73636C6B 
 12408      2E6300
 12409              	.LASF358:
 12410 0c03 74657374 		.ascii	"testval\000"
 12410      76616C00 
 12411              	.LASF263:
 12412 0c0b 43595F53 		.ascii	"CY_SYSCLK_MEAS_CLK_PATH10\000"
 12412      5953434C 
 12412      4B5F4D45 
 12412      41535F43 
 12412      4C4B5F50 
 12413              	.LASF394:
 12414 0c25 64697669 		.ascii	"dividerType\000"
 12414      64657254 
 12414      79706500 
 12415              	.LASF352:
 12416 0c31 7472696D 		.ascii	"trimSteps\000"
 12416      53746570 
 12416      7300
 12417              	.LASF197:
 12418 0c3b 43595F53 		.ascii	"CY_SYSCLK_INVALID_STATE\000"
 12418      5953434C 
 12418      4B5F494E 
 12418      56414C49 
 12418      445F5354 
 12419              	.LASF211:
 12420 0c53 43595F53 		.ascii	"CY_SYSCLK_FLLPLL_OUTPUT_AUTO1\000"
 12420      5953434C 
 12420      4B5F464C 
 12420      4C504C4C 
 12420      5F4F5554 
 12421              	.LASF121:
 12422 0c71 5057525F 		.ascii	"PWR_LVD_CTL\000"
 12422      4C56445F 
 12422      43544C00 
 12423              	.LASF359:
 12424 0c7d 64697676 		.ascii	"divval\000"
 12424      616C00
 12425              	.LASF224:
 12426 0c84 656E6162 		.ascii	"enableOutputDiv\000"
 12426      6C654F75 
 12426      74707574 
 12426      44697600 
ARM GAS  C:\Users\kiwamu\AppData\Local\Temp\ccIx7zyv.s 			page 294


 12427              	.LASF177:
 12428 0c94 75696E74 		.ascii	"uint16\000"
 12428      313600
 12429              	.LASF324:
 12430 0c9b 43795F53 		.ascii	"Cy_SysClk_ClkPeriGetDivider\000"
 12430      7973436C 
 12430      6B5F436C 
 12430      6B506572 
 12430      69476574 
 12431              	.LASF127:
 12432 0cb7 5744545F 		.ascii	"WDT_CNT\000"
 12432      434E5400 
 12433              	.LASF383:
 12434 0cbf 63757254 		.ascii	"curTrim\000"
 12434      72696D00 
 12435              	.LASF421:
 12436 0cc7 43795F53 		.ascii	"Cy_SysClk_FllGetConfiguration\000"
 12436      7973436C 
 12436      6B5F466C 
 12436      6C476574 
 12436      436F6E66 
 12437              	.LASF364:
 12438 0ce5 43795F53 		.ascii	"Cy_SysClk_PllManualConfigure\000"
 12438      7973436C 
 12438      6B5F506C 
 12438      6C4D616E 
 12438      75616C43 
 12439              	.LASF152:
 12440 0d02 53525353 		.ascii	"SRSS_INTR_SET\000"
 12440      5F494E54 
 12440      525F5345 
 12440      5400
 12441              	.LASF14:
 12442 0d10 75696E74 		.ascii	"uint8_t\000"
 12442      385F7400 
 12443              	.LASF134:
 12444 0d18 434C4B5F 		.ascii	"CLK_TIMER_CTL\000"
 12444      54494D45 
 12444      525F4354 
 12444      4C00
 12445              	.LASF401:
 12446 0d26 6C6F636B 		.ascii	"locked\000"
 12446      656400
 12447              	.LASF234:
 12448 0d2d 6F757470 		.ascii	"outputFreq\000"
 12448      75744672 
 12448      657100
 12449              	.LASF201:
 12450 0d38 43595F53 		.ascii	"CY_SYSCLK_CLKPATH_IN_ECO\000"
 12450      5953434C 
 12450      4B5F434C 
 12450      4B504154 
 12450      485F494E 
 12451              	.LASF411:
 12452 0d51 636C6B43 		.ascii	"clkCounting\000"
 12452      6F756E74 
 12452      696E6700 
ARM GAS  C:\Users\kiwamu\AppData\Local\Temp\ccIx7zyv.s 			page 295


 12453              	.LASF99:
 12454 0d5d 50524F54 		.ascii	"PROTECTION\000"
 12454      45435449 
 12454      4F4E00
 12455              	.LASF264:
 12456 0d68 43595F53 		.ascii	"CY_SYSCLK_MEAS_CLK_PATH11\000"
 12456      5953434C 
 12456      4B5F4D45 
 12456      41535F43 
 12456      4C4B5F50 
 12457              	.LASF265:
 12458 0d82 43595F53 		.ascii	"CY_SYSCLK_MEAS_CLK_PATH12\000"
 12458      5953434C 
 12458      4B5F4D45 
 12458      41535F43 
 12458      4C4B5F50 
 12459              	.LASF266:
 12460 0d9c 43595F53 		.ascii	"CY_SYSCLK_MEAS_CLK_PATH13\000"
 12460      5953434C 
 12460      4B5F4D45 
 12460      41535F43 
 12460      4C4B5F50 
 12461              	.LASF267:
 12462 0db6 43595F53 		.ascii	"CY_SYSCLK_MEAS_CLK_PATH14\000"
 12462      5953434C 
 12462      4B5F4D45 
 12462      41535F43 
 12462      4C4B5F50 
 12463              	.LASF268:
 12464 0dd0 43595F53 		.ascii	"CY_SYSCLK_MEAS_CLK_PATH15\000"
 12464      5953434C 
 12464      4B5F4D45 
 12464      41535F43 
 12464      4C4B5F50 
 12465              	.LASF331:
 12466 0dea 6D617841 		.ascii	"maxAmplitude\000"
 12466      6D706C69 
 12466      74756465 
 12466      00
 12467              	.LASF344:
 12468 0df7 72657476 		.ascii	"retval\000"
 12468      616C00
 12469              	.LASF108:
 12470 0dfe 4D435744 		.ascii	"MCWDT_CNTLOW\000"
 12470      545F434E 
 12470      544C4F57 
 12470      00
 12471              	.LASF229:
 12472 0e0b 6F757470 		.ascii	"outputMode\000"
 12472      75744D6F 
 12472      646500
 12473              	.LASF10:
 12474 0e16 6C6F6E67 		.ascii	"long long int\000"
 12474      206C6F6E 
 12474      6720696E 
 12474      7400
 12475              	.LASF366:
ARM GAS  C:\Users\kiwamu\AppData\Local\Temp\ccIx7zyv.s 			page 296


 12476 0e24 6D616E75 		.ascii	"manualConfig\000"
 12476      616C436F 
 12476      6E666967 
 12476      00
 12477              	.LASF141:
 12478 0e31 434C4B5F 		.ascii	"CLK_ECO_CONFIG\000"
 12478      45434F5F 
 12478      434F4E46 
 12478      494700
 12479              	.LASF113:
 12480 0e40 4D435744 		.ascii	"MCWDT_INTR\000"
 12480      545F494E 
 12480      545200
 12481              	.LASF410:
 12482 0e4b 636C6B31 		.ascii	"clk1Count1\000"
 12482      436F756E 
 12482      743100
 12483              	.LASF251:
 12484 0e56 43595F53 		.ascii	"CY_SYSCLK_MEAS_CLK_ALTHF\000"
 12484      5953434C 
 12484      4B5F4D45 
 12484      41535F43 
 12484      4C4B5F41 
 12485              	.LASF137:
 12486 0e6f 434C4B5F 		.ascii	"CLK_OUTPUT_FAST\000"
 12486      4F555450 
 12486      55545F46 
 12486      41535400 
 12487              	.LASF192:
 12488 0e7f 636F6E74 		.ascii	"context\000"
 12488      65787400 
 12489              	.LASF59:
 12490 0e87 434D345F 		.ascii	"CM4_PWR_DELAY_CTL\000"
 12490      5057525F 
 12490      44454C41 
 12490      595F4354 
 12490      4C00
 12491              	.LASF45:
 12492 0e99 5050555F 		.ascii	"PPU_GR\000"
 12492      475200
 12493              	.LASF97:
 12494 0ea0 4944454E 		.ascii	"IDENTITY\000"
 12494      54495459 
 12494      00
 12495              	.LASF388:
 12496 0ea9 63616C6C 		.ascii	"callbackParams\000"
 12496      6261636B 
 12496      50617261 
 12496      6D7300
 12497              	.LASF11:
 12498 0eb8 5F5F7569 		.ascii	"__uint64_t\000"
 12498      6E743634 
 12498      5F7400
 12499              	.LASF298:
 12500 0ec3 43595F53 		.ascii	"CY_SYSCLK_CLKHF_IN_CLKPATH10\000"
 12500      5953434C 
 12500      4B5F434C 
ARM GAS  C:\Users\kiwamu\AppData\Local\Temp\ccIx7zyv.s 			page 297


 12500      4B48465F 
 12500      494E5F43 
 12501              	.LASF412:
 12502 0ee0 70726576 		.ascii	"preventCounting\000"
 12502      656E7443 
 12502      6F756E74 
 12502      696E6700 
 12503              	.LASF300:
 12504 0ef0 43595F53 		.ascii	"CY_SYSCLK_CLKHF_IN_CLKPATH12\000"
 12504      5953434C 
 12504      4B5F434C 
 12504      4B48465F 
 12504      494E5F43 
 12505              	.LASF301:
 12506 0f0d 43595F53 		.ascii	"CY_SYSCLK_CLKHF_IN_CLKPATH13\000"
 12506      5953434C 
 12506      4B5F434C 
 12506      4B48465F 
 12506      494E5F43 
 12507              	.LASF302:
 12508 0f2a 43595F53 		.ascii	"CY_SYSCLK_CLKHF_IN_CLKPATH14\000"
 12508      5953434C 
 12508      4B5F434C 
 12508      4B48465F 
 12508      494E5F43 
 12509              	.LASF374:
 12510 0f47 636F756E 		.ascii	"count1\000"
 12510      743100
 12511              	.LASF338:
 12512 0f4e 66747269 		.ascii	"ftrim\000"
 12512      6D00
 12513              	.LASF423:
 12514 0f54 6D656D73 		.ascii	"memset\000"
 12514      657400
 12515              	.LASF175:
 12516 0f5b 666C6F61 		.ascii	"float64_t\000"
 12516      7436345F 
 12516      7400
 12517              	.LASF103:
 12518 0f65 4D424953 		.ascii	"MBIST_STAT\000"
 12518      545F5354 
 12518      415400
 12519              	.LASF63:
 12520 0f70 434D345F 		.ascii	"CM4_NMI_CTL\000"
 12520      4E4D495F 
 12520      43544C00 
 12521              	.LASF416:
 12522 0f7c 6365696C 		.ascii	"ceilf\000"
 12522      6600
 12523              	.LASF389:
 12524 0f82 6368616E 		.ascii	"changedSourcePaths\000"
 12524      67656453 
 12524      6F757263 
 12524      65506174 
 12524      687300
 12525              	.LASF120:
 12526 0f95 5057525F 		.ascii	"PWR_HIBERNATE\000"
ARM GAS  C:\Users\kiwamu\AppData\Local\Temp\ccIx7zyv.s 			page 298


 12526      48494245 
 12526      524E4154 
 12526      4500
 12527              	.LASF27:
 12528 0fa3 50455249 		.ascii	"PERI_TR_GR_Type\000"
 12528      5F54525F 
 12528      47525F54 
 12528      79706500 
 12529              	.LASF143:
 12530 0fb3 434C4B5F 		.ascii	"CLK_PILO_CONFIG\000"
 12530      50494C4F 
 12530      5F434F4E 
 12530      46494700 
 12531              	.LASF377:
 12532 0fc3 6D656173 		.ascii	"measuredClock\000"
 12532      75726564 
 12532      436C6F63 
 12532      6B00
 12533              	.LASF249:
 12534 0fd1 43595F53 		.ascii	"CY_SYSCLK_MEAS_CLK_ECO\000"
 12534      5953434C 
 12534      4B5F4D45 
 12534      41535F43 
 12534      4C4B5F45 
 12535              	.LASF158:
 12536 0fe8 5057525F 		.ascii	"PWR_TRIM_REF_CTL\000"
 12536      5452494D 
 12536      5F524546 
 12536      5F43544C 
 12536      00
 12537              	.LASF312:
 12538 0ff9 43595F53 		.ascii	"CY_SYSCLK_DIV_16_5_BIT\000"
 12538      5953434C 
 12538      4B5F4449 
 12538      565F3136 
 12538      5F355F42 
 12539              	.LASF242:
 12540 1010 43595F53 		.ascii	"CY_SYSCLK_MEAS_CLK_WCO\000"
 12540      5953434C 
 12540      4B5F4D45 
 12540      41535F43 
 12540      4C4B5F57 
 12541              	.LASF58:
 12542 1027 434D345F 		.ascii	"CM4_PWR_CTL\000"
 12542      5057525F 
 12542      43544C00 
 12543              	.LASF206:
 12544 1033 43595F53 		.ascii	"CY_SYSCLK_CLKPATH_IN_WCO\000"
 12544      5953434C 
 12544      4B5F434C 
 12544      4B504154 
 12544      485F494E 
 12545              	.LASF236:
 12546 104c 63795F73 		.ascii	"cy_stc_pll_config_t\000"
 12546      74635F70 
 12546      6C6C5F63 
 12546      6F6E6669 
ARM GAS  C:\Users\kiwamu\AppData\Local\Temp\ccIx7zyv.s 			page 299


 12546      675F7400 
 12547              	.LASF106:
 12548 1060 5452494D 		.ascii	"TRIM_RAM_CTL\000"
 12548      5F52414D 
 12548      5F43544C 
 12548      00
 12549              	.LASF117:
 12550 106d 4D435744 		.ascii	"MCWDT_LOCK\000"
 12550      545F4C4F 
 12550      434B00
 12551              	.LASF367:
 12552 1078 666F7574 		.ascii	"foutBest\000"
 12552      42657374 
 12552      00
 12553              	.LASF5:
 12554 1081 73686F72 		.ascii	"short unsigned int\000"
 12554      7420756E 
 12554      7369676E 
 12554      65642069 
 12554      6E7400
 12555              	.LASF390:
 12556 1094 666C6C70 		.ascii	"fllpll\000"
 12556      6C6C00
 12557              	.LASF178:
 12558 109b 6C6F6E67 		.ascii	"long double\000"
 12558      20646F75 
 12558      626C6500 
 12559              	.LASF379:
 12560 10a7 43795F53 		.ascii	"Cy_SysClk_IloTrim\000"
 12560      7973436C 
 12560      6B5F496C 
 12560      6F547269 
 12560      6D00
 12561              	.LASF325:
 12562 10b9 43795F53 		.ascii	"Cy_SysClk_ClkHfGetDivider\000"
 12562      7973436C 
 12562      6B5F436C 
 12562      6B486647 
 12562      65744469 
 12563              	.LASF270:
 12564 10d3 43595F53 		.ascii	"CY_SYSCLK_MEAS_CLK_CLKHF0\000"
 12564      5953434C 
 12564      4B5F4D45 
 12564      41535F43 
 12564      4C4B5F43 
 12565              	.LASF273:
 12566 10ed 43595F53 		.ascii	"CY_SYSCLK_MEAS_CLK_CLKHF3\000"
 12566      5953434C 
 12566      4B5F4D45 
 12566      41535F43 
 12566      4C4B5F43 
 12567              	.LASF275:
 12568 1107 43595F53 		.ascii	"CY_SYSCLK_MEAS_CLK_CLKHF5\000"
 12568      5953434C 
 12568      4B5F4D45 
 12568      41535F43 
 12568      4C4B5F43 
ARM GAS  C:\Users\kiwamu\AppData\Local\Temp\ccIx7zyv.s 			page 300


 12569              	.LASF278:
 12570 1121 43595F53 		.ascii	"CY_SYSCLK_MEAS_CLK_CLKHF8\000"
 12570      5953434C 
 12570      4B5F4D45 
 12570      41535F43 
 12570      4C4B5F43 
 12571              	.LASF132:
 12572 113b 434C4B5F 		.ascii	"CLK_ROOT_SELECT\000"
 12572      524F4F54 
 12572      5F53454C 
 12572      45435400 
 12573              	.LASF311:
 12574 114b 43595F53 		.ascii	"CY_SYSCLK_DIV_16_BIT\000"
 12574      5953434C 
 12574      4B5F4449 
 12574      565F3136 
 12574      5F424954 
 12575              	.LASF166:
 12576 1160 434C4B5F 		.ascii	"CLK_TRIM_ECO_CTL\000"
 12576      5452494D 
 12576      5F45434F 
 12576      5F43544C 
 12576      00
 12577              	.LASF220:
 12578 1171 63795F65 		.ascii	"cy_en_fll_cco_ranges_t\000"
 12578      6E5F666C 
 12578      6C5F6363 
 12578      6F5F7261 
 12578      6E676573 
 12579              	.LASF347:
 12580 1188 636F6E66 		.ascii	"config\000"
 12580      696700
 12581              	.LASF60:
 12582 118f 434D345F 		.ascii	"CM4_STATUS\000"
 12582      53544154 
 12582      555300
 12583              	.LASF195:
 12584 119a 43595F53 		.ascii	"CY_SYSCLK_BAD_PARAM\000"
 12584      5953434C 
 12584      4B5F4241 
 12584      445F5041 
 12584      52414D00 
 12585              	.LASF282:
 12586 11ae 43595F53 		.ascii	"CY_SYSCLK_MEAS_CLK_CLKHF12\000"
 12586      5953434C 
 12586      4B5F4D45 
 12586      41535F43 
 12586      4C4B5F43 
 12587              	.LASF24:
 12588 11c9 52455345 		.ascii	"RESERVED1\000"
 12588      52564544 
 12588      3100
 12589              	.LASF39:
 12590 11d3 52455345 		.ascii	"RESERVED2\000"
 12590      52564544 
 12590      3200
 12591              	.LASF41:
ARM GAS  C:\Users\kiwamu\AppData\Local\Temp\ccIx7zyv.s 			page 301


 12592 11dd 52455345 		.ascii	"RESERVED3\000"
 12592      52564544 
 12592      3300
 12593              	.LASF44:
 12594 11e7 52455345 		.ascii	"RESERVED4\000"
 12594      52564544 
 12594      3400
 12595              	.LASF62:
 12596 11f1 52455345 		.ascii	"RESERVED5\000"
 12596      52564544 
 12596      3500
 12597              	.LASF64:
 12598 11fb 52455345 		.ascii	"RESERVED6\000"
 12598      52564544 
 12598      3600
 12599              	.LASF66:
 12600 1205 52455345 		.ascii	"RESERVED7\000"
 12600      52564544 
 12600      3700
 12601              	.LASF69:
 12602 120f 52455345 		.ascii	"RESERVED8\000"
 12602      52564544 
 12602      3800
 12603              	.LASF71:
 12604 1219 52455345 		.ascii	"RESERVED9\000"
 12604      52564544 
 12604      3900
 12605              	.LASF189:
 12606 1223 63795F65 		.ascii	"cy_en_syspm_callback_mode_t\000"
 12606      6E5F7379 
 12606      73706D5F 
 12606      63616C6C 
 12606      6261636B 
 12607              	.LASF131:
 12608 123f 434C4B5F 		.ascii	"CLK_PATH_SELECT\000"
 12608      50415448 
 12608      5F53454C 
 12608      45435400 
 12609              	.LASF7:
 12610 124f 6C6F6E67 		.ascii	"long int\000"
 12610      20696E74 
 12610      00
 12611              	.LASF56:
 12612 1258 434D305F 		.ascii	"CM0_INT_CTL6\000"
 12612      494E545F 
 12612      43544C36 
 12612      00
 12613              	.LASF235:
 12614 1265 6C664D6F 		.ascii	"lfMode\000"
 12614      646500
 12615              	.LASF167:
 12616 126c 434C4B5F 		.ascii	"CLK_TRIM_PILO_CTL\000"
 12616      5452494D 
 12616      5F50494C 
 12616      4F5F4354 
 12616      4C00
 12617              	.LASF154:
ARM GAS  C:\Users\kiwamu\AppData\Local\Temp\ccIx7zyv.s 			page 302


 12618 127e 53525353 		.ascii	"SRSS_INTR_MASKED\000"
 12618      5F494E54 
 12618      525F4D41 
 12618      534B4544 
 12618      00
 12619              	.LASF122:
 12620 128f 5057525F 		.ascii	"PWR_BUCK_CTL\000"
 12620      4255434B 
 12620      5F43544C 
 12620      00
 12621              	.LASF213:
 12622 129c 43595F53 		.ascii	"CY_SYSCLK_FLLPLL_OUTPUT_OUTPUT\000"
 12622      5953434C 
 12622      4B5F464C 
 12622      4C504C4C 
 12622      5F4F5554 
 12623              	.LASF91:
 12624 12bb 434D305F 		.ascii	"CM0_VECTOR_TABLE_BASE\000"
 12624      56454354 
 12624      4F525F54 
 12624      41424C45 
 12624      5F424153 
 12625              	.LASF384:
 12626 12d1 64696666 		.ascii	"diff\000"
 12626      00
 12627              	.LASF199:
 12628 12d6 43595F53 		.ascii	"CY_SYSCLK_CLKPATH_IN_IMO\000"
 12628      5953434C 
 12628      4B5F434C 
 12628      4B504154 
 12628      485F494E 
 12629              	.LASF129:
 12630 12ef 4D435744 		.ascii	"MCWDT_STRUCT\000"
 12630      545F5354 
 12630      52554354 
 12630      00
 12631              	.LASF171:
 12632 12fc 63686172 		.ascii	"char_t\000"
 12632      5F7400
 12633              	.LASF223:
 12634 1303 63636F52 		.ascii	"ccoRange\000"
 12634      616E6765 
 12634      00
 12635              	.LASF202:
 12636 130c 43595F53 		.ascii	"CY_SYSCLK_CLKPATH_IN_ALTHF\000"
 12636      5953434C 
 12636      4B5F434C 
 12636      4B504154 
 12636      485F494E 
 12637              	.LASF18:
 12638 1327 75696E74 		.ascii	"uint64_t\000"
 12638      36345F74 
 12638      00
 12639              	.LASF160:
 12640 1330 434C4B5F 		.ascii	"CLK_TRIM_CCO_CTL\000"
 12640      5452494D 
 12640      5F43434F 
ARM GAS  C:\Users\kiwamu\AppData\Local\Temp\ccIx7zyv.s 			page 303


 12640      5F43544C 
 12640      00
 12641              	.LASF35:
 12642 1341 4449565F 		.ascii	"DIV_8_CTL\000"
 12642      385F4354 
 12642      4C00
 12643              	.LASF305:
 12644 134b 43595F53 		.ascii	"CY_SYSCLK_CLKHF_NO_DIVIDE\000"
 12644      5953434C 
 12644      4B5F434C 
 12644      4B48465F 
 12644      4E4F5F44 
 12645              	.LASF404:
 12646 1365 70617468 		.ascii	"path_freq\000"
 12646      5F667265 
 12646      7100
 12647              	.LASF114:
 12648 136f 4D435744 		.ascii	"MCWDT_INTR_SET\000"
 12648      545F494E 
 12648      54525F53 
 12648      455400
 12649              	.LASF422:
 12650 137e 5F5F6275 		.ascii	"__builtin_ceilf\000"
 12650      696C7469 
 12650      6E5F6365 
 12650      696C6600 
 12651              	.LASF68:
 12652 138e 52414D31 		.ascii	"RAM1_CTL0\000"
 12652      5F43544C 
 12652      3000
 12653              	.LASF345:
 12654 1398 43795F53 		.ascii	"Cy_SysClk_ClkPathGetSource\000"
 12654      7973436C 
 12654      6B5F436C 
 12654      6B506174 
 12654      68476574 
 12655              	.LASF2:
 12656 13b3 7369676E 		.ascii	"signed char\000"
 12656      65642063 
 12656      68617200 
 12657              	.LASF386:
 12658 13bf 70696C6F 		.ascii	"piloFreq\000"
 12658      46726571 
 12658      00
 12659              	.LASF47:
 12660 13c8 434D305F 		.ascii	"CM0_CTL\000"
 12660      43544C00 
 12661              	.LASF318:
 12662 13d0 43795F53 		.ascii	"Cy_SysClk_EcoGetStatus\000"
 12662      7973436C 
 12662      6B5F4563 
 12662      6F476574 
 12662      53746174 
 12663              	.LASF3:
 12664 13e7 5F5F7569 		.ascii	"__uint8_t\000"
 12664      6E74385F 
 12664      7400
ARM GAS  C:\Users\kiwamu\AppData\Local\Temp\ccIx7zyv.s 			page 304


 12665              	.LASF343:
 12666 13f1 736F7572 		.ascii	"source\000"
 12666      636500
 12667              	.LASF46:
 12668 13f8 50455249 		.ascii	"PERI_Type\000"
 12668      5F547970 
 12668      6500
 12669              	.LASF32:
 12670 1402 50455249 		.ascii	"PERI_PPU_PR_Type\000"
 12670      5F505055 
 12670      5F50525F 
 12670      54797065 
 12670      00
 12671              	.LASF203:
 12672 1413 43595F53 		.ascii	"CY_SYSCLK_CLKPATH_IN_DSIMUX\000"
 12672      5953434C 
 12672      4B5F434C 
 12672      4B504154 
 12672      485F494E 
 12673              	.LASF363:
 12674 142f 6E6F6E5A 		.ascii	"nonZeroTimeout\000"
 12674      65726F54 
 12674      696D656F 
 12674      757400
 12675              	.LASF13:
 12676 143e 756E7369 		.ascii	"unsigned int\000"
 12676      676E6564 
 12676      20696E74 
 12676      00
 12677              	.LASF330:
 12678 144b 66726571 		.ascii	"freqMHz\000"
 12678      4D487A00 
 12679              	.LASF376:
 12680 1453 43795F53 		.ascii	"Cy_SysClk_ClkMeasurementCountersGetFreq\000"
 12680      7973436C 
 12680      6B5F436C 
 12680      6B4D6561 
 12680      73757265 
 12681              	.LASF244:
 12682 147b 43595F53 		.ascii	"CY_SYSCLK_MEAS_CLK_ALTLF\000"
 12682      5953434C 
 12682      4B5F4D45 
 12682      41535F43 
 12682      4C4B5F41 
 12683              	.LASF351:
 12684 1494 77636F53 		.ascii	"wcoSource\000"
 12684      6F757263 
 12684      6500
 12685              	.LASF287:
 12686 149e 63795F65 		.ascii	"cy_en_meas_clks_t\000"
 12686      6E5F6D65 
 12686      61735F63 
 12686      6C6B735F 
 12686      7400
 12687              	.LASF241:
 12688 14b0 43595F53 		.ascii	"CY_SYSCLK_MEAS_CLK_ILO\000"
 12688      5953434C 
ARM GAS  C:\Users\kiwamu\AppData\Local\Temp\ccIx7zyv.s 			page 305


 12688      4B5F4D45 
 12688      41535F43 
 12688      4C4B5F49 
 12689              	.LASF212:
 12690 14c7 43595F53 		.ascii	"CY_SYSCLK_FLLPLL_OUTPUT_INPUT\000"
 12690      5953434C 
 12690      4B5F464C 
 12690      4C504C4C 
 12690      5F4F5554 
 12691              	.LASF19:
 12692 14e5 73697A65 		.ascii	"sizetype\000"
 12692      74797065 
 12692      00
 12693              	.LASF156:
 12694 14ee 5245535F 		.ascii	"RES_CAUSE\000"
 12694      43415553 
 12694      4500
 12695              	.LASF316:
 12696 14f8 43795F53 		.ascii	"Cy_SysClk_PiloGetTrim\000"
 12696      7973436C 
 12696      6B5F5069 
 12696      6C6F4765 
 12696      74547269 
 12697              	.LASF327:
 12698 150e 634C6F61 		.ascii	"cLoad\000"
 12698      6400
 12699              	.LASF9:
 12700 1514 6C6F6E67 		.ascii	"long unsigned int\000"
 12700      20756E73 
 12700      69676E65 
 12700      6420696E 
 12700      7400
 12701              	.LASF210:
 12702 1526 43595F53 		.ascii	"CY_SYSCLK_FLLPLL_OUTPUT_AUTO\000"
 12702      5953434C 
 12702      4B5F464C 
 12702      4C504C4C 
 12702      5F4F5554 
 12703              	.LASF329:
 12704 1543 72746E76 		.ascii	"rtnval\000"
 12704      616C00
 12705              	.LASF185:
 12706 154a 43595F53 		.ascii	"CY_SYSPM_CHECK_READY\000"
 12706      5953504D 
 12706      5F434845 
 12706      434B5F52 
 12706      45414459 
 12707              	.LASF174:
 12708 155f 666C6F61 		.ascii	"float\000"
 12708      7400
 12709              	.LASF20:
 12710 1565 434C4F43 		.ascii	"CLOCK_CTL\000"
 12710      4B5F4354 
 12710      4C00
 12711              	.LASF16:
 12712 156f 696E7433 		.ascii	"int32_t\000"
 12712      325F7400 
ARM GAS  C:\Users\kiwamu\AppData\Local\Temp\ccIx7zyv.s 			page 306


 12713              	.LASF51:
 12714 1577 434D305F 		.ascii	"CM0_INT_CTL1\000"
 12714      494E545F 
 12714      43544C31 
 12714      00
 12715              	.LASF52:
 12716 1584 434D305F 		.ascii	"CM0_INT_CTL2\000"
 12716      494E545F 
 12716      43544C32 
 12716      00
 12717              	.LASF53:
 12718 1591 434D305F 		.ascii	"CM0_INT_CTL3\000"
 12718      494E545F 
 12718      43544C33 
 12718      00
 12719              	.LASF54:
 12720 159e 434D305F 		.ascii	"CM0_INT_CTL4\000"
 12720      494E545F 
 12720      43544C34 
 12720      00
 12721              	.LASF55:
 12722 15ab 434D305F 		.ascii	"CM0_INT_CTL5\000"
 12722      494E545F 
 12722      43544C35 
 12722      00
 12723              	.LASF414:
 12724 15b8 43795F53 		.ascii	"Cy_SysLib_DelayUs\000"
 12724      79734C69 
 12724      625F4465 
 12724      6C617955 
 12724      7300
 12725              	.LASF57:
 12726 15ca 434D305F 		.ascii	"CM0_INT_CTL7\000"
 12726      494E545F 
 12726      43544C37 
 12726      00
 12727              	.LASF360:
 12728 15d7 616C7476 		.ascii	"altval\000"
 12728      616C00
 12729              	.LASF368:
 12730 15de 6676636F 		.ascii	"fvco\000"
 12730      00
 12731              	.LASF15:
 12732 15e3 75696E74 		.ascii	"uint16_t\000"
 12732      31365F74 
 12732      00
 12733              	.LASF183:
 12734 15ec 43595F53 		.ascii	"CY_SYSPM_FAIL\000"
 12734      5953504D 
 12734      5F464149 
 12734      4C00
 12735              	.LASF126:
 12736 15fa 5744545F 		.ascii	"WDT_CTL\000"
 12736      43544C00 
 12737              	.LASF1:
 12738 1602 756E7369 		.ascii	"unsigned char\000"
 12738      676E6564 
ARM GAS  C:\Users\kiwamu\AppData\Local\Temp\ccIx7zyv.s 			page 307


 12738      20636861 
 12738      7200
 12739              	.LASF8:
 12740 1610 5F5F7569 		.ascii	"__uint32_t\000"
 12740      6E743332 
 12740      5F7400
 12741              	.LASF339:
 12742 161b 43795F53 		.ascii	"Cy_SysClk_EcoConfigure\000"
 12742      7973436C 
 12742      6B5F4563 
 12742      6F436F6E 
 12742      66696775 
 12743              	.LASF246:
 12744 1632 43595F53 		.ascii	"CY_SYSCLK_MEAS_CLK_IMO\000"
 12744      5953434C 
 12744      4B5F4D45 
 12744      41535F43 
 12744      4C4B5F49 
 12745              	.LASF385:
 12746 1649 43795F53 		.ascii	"Cy_SysClk_PiloTrim\000"
 12746      7973436C 
 12746      6B5F5069 
 12746      6C6F5472 
 12746      696D00
 12747              	.LASF353:
 12748 165c 664D6172 		.ascii	"fMargin\000"
 12748      67696E00 
 12749              	.LASF391:
 12750 1664 74696D65 		.ascii	"timeout\000"
 12750      6F757400 
 12751              	.LASF313:
 12752 166c 43595F53 		.ascii	"CY_SYSCLK_DIV_24_5_BIT\000"
 12752      5953434C 
 12752      4B5F4449 
 12752      565F3234 
 12752      5F355F42 
 12753              	.LASF200:
 12754 1683 43595F53 		.ascii	"CY_SYSCLK_CLKPATH_IN_EXT\000"
 12754      5953434C 
 12754      4B5F434C 
 12754      4B504154 
 12754      485F494E 
 12755              	.LASF74:
 12756 169c 52414D32 		.ascii	"RAM2_PWR_CTL\000"
 12756      5F505752 
 12756      5F43544C 
 12756      00
 12757              	.LASF50:
 12758 16a9 434D305F 		.ascii	"CM0_INT_CTL0\000"
 12758      494E545F 
 12758      43544C30 
 12758      00
 12759              	.LASF73:
 12760 16b6 52455345 		.ascii	"RESERVED10\000"
 12760      52564544 
 12760      313000
 12761              	.LASF75:
ARM GAS  C:\Users\kiwamu\AppData\Local\Temp\ccIx7zyv.s 			page 308


 12762 16c1 52455345 		.ascii	"RESERVED11\000"
 12762      52564544 
 12762      313100
 12763              	.LASF77:
 12764 16cc 52455345 		.ascii	"RESERVED12\000"
 12764      52564544 
 12764      313200
 12765              	.LASF79:
 12766 16d7 52455345 		.ascii	"RESERVED13\000"
 12766      52564544 
 12766      313300
 12767              	.LASF82:
 12768 16e2 52455345 		.ascii	"RESERVED14\000"
 12768      52564544 
 12768      313400
 12769              	.LASF84:
 12770 16ed 52455345 		.ascii	"RESERVED15\000"
 12770      52564544 
 12770      313500
 12771              	.LASF86:
 12772 16f8 52455345 		.ascii	"RESERVED16\000"
 12772      52564544 
 12772      313600
 12773              	.LASF88:
 12774 1703 52455345 		.ascii	"RESERVED17\000"
 12774      52564544 
 12774      313700
 12775              	.LASF90:
 12776 170e 52455345 		.ascii	"RESERVED18\000"
 12776      52564544 
 12776      313800
 12777              	.LASF92:
 12778 1719 52455345 		.ascii	"RESERVED19\000"
 12778      52564544 
 12778      313900
 12779              	.LASF232:
 12780 1724 63795F73 		.ascii	"cy_stc_fll_manual_config_t\000"
 12780      74635F66 
 12780      6C6C5F6D 
 12780      616E7561 
 12780      6C5F636F 
 12781              	.LASF392:
 12782 173f 74696D6F 		.ascii	"timout\000"
 12782      757400
 12783              	.LASF314:
 12784 1746 63795F65 		.ascii	"cy_en_divider_types_t\000"
 12784      6E5F6469 
 12784      76696465 
 12784      725F7479 
 12784      7065735F 
 12785              	.LASF112:
 12786 175c 4D435744 		.ascii	"MCWDT_CTL\000"
 12786      545F4354 
 12786      4C00
 12787              	.LASF335:
 12788 1766 77647472 		.ascii	"wdtrim\000"
 12788      696D00
ARM GAS  C:\Users\kiwamu\AppData\Local\Temp\ccIx7zyv.s 			page 309


 12789              	.LASF238:
 12790 176d 72656665 		.ascii	"referenceDiv\000"
 12790      72656E63 
 12790      65446976 
 12790      00
 12791              	.LASF111:
 12792 177a 4D435744 		.ascii	"MCWDT_CONFIG\000"
 12792      545F434F 
 12792      4E464947 
 12792      00
 12793              	.LASF303:
 12794 1787 43595F53 		.ascii	"CY_SYSCLK_CLKHF_IN_CLKPATH15\000"
 12794      5953434C 
 12794      4B5F434C 
 12794      4B48465F 
 12794      494E5F43 
 12795              	.LASF146:
 12796 17a4 434C4B5F 		.ascii	"CLK_FLL_CONFIG3\000"
 12796      464C4C5F 
 12796      434F4E46 
 12796      49473300 
 12797              	.LASF334:
 12798 17b4 61747269 		.ascii	"atrim\000"
 12798      6D00
 12799              	.LASF165:
 12800 17ba 5057525F 		.ascii	"PWR_TRIM_PWRSYS_CTL\000"
 12800      5452494D 
 12800      5F505752 
 12800      5359535F 
 12800      43544C00 
 12801              	.LASF85:
 12802 17ce 42554646 		.ascii	"BUFF_CTL\000"
 12802      5F43544C 
 12802      00
 12803              	.LASF349:
 12804 17d7 43795F53 		.ascii	"Cy_SysClk_FllConfigure\000"
 12804      7973436C 
 12804      6B5F466C 
 12804      6C436F6E 
 12804      66696775 
 12805              	.LASF180:
 12806 17ee 43595F53 		.ascii	"CY_SYSPM_BAD_PARAM\000"
 12806      5953504D 
 12806      5F424144 
 12806      5F504152 
 12806      414D00
 12807              	.LASF253:
 12808 1801 43595F53 		.ascii	"CY_SYSCLK_MEAS_CLK_PATH0\000"
 12808      5953434C 
 12808      4B5F4D45 
 12808      41535F43 
 12808      4C4B5F50 
 12809              	.LASF254:
 12810 181a 43595F53 		.ascii	"CY_SYSCLK_MEAS_CLK_PATH1\000"
 12810      5953434C 
 12810      4B5F4D45 
 12810      41535F43 
ARM GAS  C:\Users\kiwamu\AppData\Local\Temp\ccIx7zyv.s 			page 310


 12810      4C4B5F50 
 12811              	.LASF255:
 12812 1833 43595F53 		.ascii	"CY_SYSCLK_MEAS_CLK_PATH2\000"
 12812      5953434C 
 12812      4B5F4D45 
 12812      41535F43 
 12812      4C4B5F50 
 12813              	.LASF256:
 12814 184c 43595F53 		.ascii	"CY_SYSCLK_MEAS_CLK_PATH3\000"
 12814      5953434C 
 12814      4B5F4D45 
 12814      41535F43 
 12814      4C4B5F50 
 12815              	.LASF257:
 12816 1865 43595F53 		.ascii	"CY_SYSCLK_MEAS_CLK_PATH4\000"
 12816      5953434C 
 12816      4B5F4D45 
 12816      41535F43 
 12816      4C4B5F50 
 12817              	.LASF258:
 12818 187e 43595F53 		.ascii	"CY_SYSCLK_MEAS_CLK_PATH5\000"
 12818      5953434C 
 12818      4B5F4D45 
 12818      41535F43 
 12818      4C4B5F50 
 12819              	.LASF259:
 12820 1897 43595F53 		.ascii	"CY_SYSCLK_MEAS_CLK_PATH6\000"
 12820      5953434C 
 12820      4B5F4D45 
 12820      41535F43 
 12820      4C4B5F50 
 12821              	.LASF260:
 12822 18b0 43595F53 		.ascii	"CY_SYSCLK_MEAS_CLK_PATH7\000"
 12822      5953434C 
 12822      4B5F4D45 
 12822      41535F43 
 12822      4C4B5F50 
 12823              	.LASF261:
 12824 18c9 43595F53 		.ascii	"CY_SYSCLK_MEAS_CLK_PATH8\000"
 12824      5953434C 
 12824      4B5F4D45 
 12824      41535F43 
 12824      4C4B5F50 
 12825              	.LASF262:
 12826 18e2 43595F53 		.ascii	"CY_SYSCLK_MEAS_CLK_PATH9\000"
 12826      5953434C 
 12826      4B5F4D45 
 12826      41535F43 
 12826      4C4B5F50 
 12827              	.LASF94:
 12828 18fb 52455345 		.ascii	"RESERVED20\000"
 12828      52564544 
 12828      323000
 12829              	.LASF96:
 12830 1906 52455345 		.ascii	"RESERVED21\000"
 12830      52564544 
 12830      323100
ARM GAS  C:\Users\kiwamu\AppData\Local\Temp\ccIx7zyv.s 			page 311


 12831              	.LASF98:
 12832 1911 52455345 		.ascii	"RESERVED22\000"
 12832      52564544 
 12832      323200
 12833              	.LASF100:
 12834 191c 52455345 		.ascii	"RESERVED23\000"
 12834      52564544 
 12834      323300
 12835              	.LASF102:
 12836 1927 52455345 		.ascii	"RESERVED24\000"
 12836      52564544 
 12836      323400
 12837              	.LASF104:
 12838 1932 52455345 		.ascii	"RESERVED25\000"
 12838      52564544 
 12838      323500
 12839              	.LASF341:
 12840 193d 74696D65 		.ascii	"timeoutus\000"
 12840      6F757475 
 12840      7300
 12841              	.LASF237:
 12842 1947 66656564 		.ascii	"feedbackDiv\000"
 12842      6261636B 
 12842      44697600 
 12843              	.LASF332:
 12844 1953 676D5F6D 		.ascii	"gm_min\000"
 12844      696E00
 12845              	.LASF28:
 12846 195a 41444452 		.ascii	"ADDR0\000"
 12846      3000
 12847              	.LASF30:
 12848 1960 41444452 		.ascii	"ADDR1\000"
 12848      3100
 12849              	.LASF80:
 12850 1966 5544425F 		.ascii	"UDB_PWR_CTL\000"
 12850      5057525F 
 12850      43544C00 
 12851              	.LASF176:
 12852 1972 646F7562 		.ascii	"double\000"
 12852      6C6500
 12853              	.LASF29:
 12854 1979 41545430 		.ascii	"ATT0\000"
 12854      00
 12855              	.LASF31:
 12856 197e 41545431 		.ascii	"ATT1\000"
 12856      00
 12857              	.LASF271:
 12858 1983 43595F53 		.ascii	"CY_SYSCLK_MEAS_CLK_CLKHF1\000"
 12858      5953434C 
 12858      4B5F4D45 
 12858      41535F43 
 12858      4C4B5F43 
 12859              	.LASF272:
 12860 199d 43595F53 		.ascii	"CY_SYSCLK_MEAS_CLK_CLKHF2\000"
 12860      5953434C 
 12860      4B5F4D45 
 12860      41535F43 
ARM GAS  C:\Users\kiwamu\AppData\Local\Temp\ccIx7zyv.s 			page 312


 12860      4C4B5F43 
 12861              	.LASF110:
 12862 19b7 4D435744 		.ascii	"MCWDT_MATCH\000"
 12862      545F4D41 
 12862      54434800 
 12863              	.LASF274:
 12864 19c3 43595F53 		.ascii	"CY_SYSCLK_MEAS_CLK_CLKHF4\000"
 12864      5953434C 
 12864      4B5F4D45 
 12864      41535F43 
 12864      4C4B5F43 
 12865              	.LASF248:
 12866 19dd 43595F53 		.ascii	"CY_SYSCLK_MEAS_CLK_FAST_CLKS\000"
 12866      5953434C 
 12866      4B5F4D45 
 12866      41535F43 
 12866      4C4B5F46 
 12867              	.LASF276:
 12868 19fa 43595F53 		.ascii	"CY_SYSCLK_MEAS_CLK_CLKHF6\000"
 12868      5953434C 
 12868      4B5F4D45 
 12868      41535F43 
 12868      4C4B5F43 
 12869              	.LASF277:
 12870 1a14 43595F53 		.ascii	"CY_SYSCLK_MEAS_CLK_CLKHF7\000"
 12870      5953434C 
 12870      4B5F4D45 
 12870      41535F43 
 12870      4C4B5F43 
 12871              	.LASF400:
 12872 1a2e 43795F53 		.ascii	"Cy_SysClk_PeriphGetFrequency\000"
 12872      7973436C 
 12872      6B5F5065 
 12872      72697068 
 12872      47657446 
 12873              	.LASF279:
 12874 1a4b 43595F53 		.ascii	"CY_SYSCLK_MEAS_CLK_CLKHF9\000"
 12874      5953434C 
 12874      4B5F4D45 
 12874      41535F43 
 12874      4C4B5F43 
 12875              	.LASF130:
 12876 1a65 434C4B5F 		.ascii	"CLK_DSI_SELECT\000"
 12876      4453495F 
 12876      53454C45 
 12876      435400
 12877              	.LASF205:
 12878 1a74 43595F53 		.ascii	"CY_SYSCLK_CLKPATH_IN_ILO\000"
 12878      5953434C 
 12878      4B5F434C 
 12878      4B504154 
 12878      485F494E 
 12879              	.LASF405:
 12880 1a8d 726F6F74 		.ascii	"root_div\000"
 12880      5F646976 
 12880      00
 12881              	.LASF23:
ARM GAS  C:\Users\kiwamu\AppData\Local\Temp\ccIx7zyv.s 			page 313


 12882 1a96 54494D45 		.ascii	"TIMEOUT_CTL\000"
 12882      4F55545F 
 12882      43544C00 
 12883              	.LASF118:
 12884 1aa2 4D435744 		.ascii	"MCWDT_STRUCT_Type\000"
 12884      545F5354 
 12884      52554354 
 12884      5F547970 
 12884      6500
 12885              	.LASF250:
 12886 1ab4 43595F53 		.ascii	"CY_SYSCLK_MEAS_CLK_EXT\000"
 12886      5953434C 
 12886      4B5F4D45 
 12886      41535F43 
 12886      4C4B5F45 
 12887              	.LASF269:
 12888 1acb 43595F53 		.ascii	"CY_SYSCLK_MEAS_CLK_CLKHFS\000"
 12888      5953434C 
 12888      4B5F4D45 
 12888      41535F43 
 12888      4C4B5F43 
 12889              	.LASF215:
 12890 1ae5 43595F53 		.ascii	"CY_SYSCLK_FLL_CCO_RANGE0\000"
 12890      5953434C 
 12890      4B5F464C 
 12890      4C5F4343 
 12890      4F5F5241 
 12891              	.LASF217:
 12892 1afe 43595F53 		.ascii	"CY_SYSCLK_FLL_CCO_RANGE2\000"
 12892      5953434C 
 12892      4B5F464C 
 12892      4C5F4343 
 12892      4F5F5241 
 12893              	.LASF218:
 12894 1b17 43595F53 		.ascii	"CY_SYSCLK_FLL_CCO_RANGE3\000"
 12894      5953434C 
 12894      4B5F464C 
 12894      4C5F4343 
 12894      4F5F5241 
 12895              	.LASF89:
 12896 1b30 53595354 		.ascii	"SYSTICK_CTL\000"
 12896      49434B5F 
 12896      43544C00 
 12897              	.LASF209:
 12898 1b3c 63795F65 		.ascii	"cy_en_clkpath_in_sources_t\000"
 12898      6E5F636C 
 12898      6B706174 
 12898      685F696E 
 12898      5F736F75 
 12899              	.LASF356:
 12900 1b57 6761696E 		.ascii	"gains\000"
 12900      7300
 12901              	.LASF187:
 12902 1b5d 43595F53 		.ascii	"CY_SYSPM_BEFORE_TRANSITION\000"
 12902      5953504D 
 12902      5F424546 
 12902      4F52455F 
ARM GAS  C:\Users\kiwamu\AppData\Local\Temp\ccIx7zyv.s 			page 314


 12902      5452414E 
 12903              	.LASF188:
 12904 1b78 43595F53 		.ascii	"CY_SYSPM_AFTER_TRANSITION\000"
 12904      5953504D 
 12904      5F414654 
 12904      45525F54 
 12904      52414E53 
 12905              	.LASF207:
 12906 1b92 43595F53 		.ascii	"CY_SYSCLK_CLKPATH_IN_ALTLF\000"
 12906      5953434C 
 12906      4B5F434C 
 12906      4B504154 
 12906      485F494E 
 12907              		.ident	"GCC: (GNU Tools for ARM Embedded Processors) 5.4.1 20160609 (release) [ARM/embedded-5-bran
