ARM GAS  C:\Users\kiwamu\AppData\Local\Temp\ccIx7zyv.s 			page 1


   1              		.syntax unified
   2              		.cpu cortex-m0plus
   3              		.fpu softvfp
   4              		.eabi_attribute 20, 1
   5              		.eabi_attribute 21, 1
   6              		.eabi_attribute 23, 3
   7              		.eabi_attribute 24, 1
   8              		.eabi_attribute 25, 1
   9              		.eabi_attribute 26, 1
  10              		.eabi_attribute 30, 1
  11              		.eabi_attribute 34, 0
  12              		.eabi_attribute 18, 4
  13              		.thumb
  14              		.syntax unified
  15              		.file	"cy_sysclk.c"
  16              		.text
  17              	.Ltext0:
  18              		.cfi_sections	.debug_frame
  19              		.global	__aeabi_ui2f
  20              		.global	__aeabi_fdiv
  21              		.global	__aeabi_fadd
  22              		.global	__aeabi_f2d
  23              		.global	__aeabi_d2f
  24              		.global	__aeabi_fmul
  25              		.global	__aeabi_f2uiz
  26              		.global	__aeabi_fcmpge
  27              		.global	__aeabi_fcmplt
  28              		.global	__aeabi_fcmpgt
  29              		.section	.text.Cy_SysClk_EcoConfigure,"ax",%progbits
  30              		.align	2
  31              		.global	Cy_SysClk_EcoConfigure
  32              		.code	16
  33              		.thumb_func
  34              		.type	Cy_SysClk_EcoConfigure, %function
  35              	Cy_SysClk_EcoConfigure:
  36              	.LFB139:
  37              		.file 1 "Generated_Source\\PSoC6\\pdl\\drivers\\peripheral\\sysclk\\cy_sysclk.c"
   1:Generated_Source\PSoC6\pdl\drivers\peripheral\sysclk/cy_sysclk.c **** /***************************************************************************//**
   2:Generated_Source\PSoC6\pdl\drivers\peripheral\sysclk/cy_sysclk.c **** * \file cy_sysclk.c
   3:Generated_Source\PSoC6\pdl\drivers\peripheral\sysclk/cy_sysclk.c **** * \version 1.10
   4:Generated_Source\PSoC6\pdl\drivers\peripheral\sysclk/cy_sysclk.c **** *
   5:Generated_Source\PSoC6\pdl\drivers\peripheral\sysclk/cy_sysclk.c **** * Provides an API implementation of the sysclk driver.
   6:Generated_Source\PSoC6\pdl\drivers\peripheral\sysclk/cy_sysclk.c **** *
   7:Generated_Source\PSoC6\pdl\drivers\peripheral\sysclk/cy_sysclk.c **** ********************************************************************************
   8:Generated_Source\PSoC6\pdl\drivers\peripheral\sysclk/cy_sysclk.c **** * \copyright
   9:Generated_Source\PSoC6\pdl\drivers\peripheral\sysclk/cy_sysclk.c **** * Copyright 2016, Cypress Semiconductor Corporation. All rights reserved.
  10:Generated_Source\PSoC6\pdl\drivers\peripheral\sysclk/cy_sysclk.c **** * You may use this file only in accordance with the license, terms, conditions,
  11:Generated_Source\PSoC6\pdl\drivers\peripheral\sysclk/cy_sysclk.c **** * disclaimers, and limitations in the end user license agreement accompanying
  12:Generated_Source\PSoC6\pdl\drivers\peripheral\sysclk/cy_sysclk.c **** * the software package with which this file was provided.
  13:Generated_Source\PSoC6\pdl\drivers\peripheral\sysclk/cy_sysclk.c **** *******************************************************************************/
  14:Generated_Source\PSoC6\pdl\drivers\peripheral\sysclk/cy_sysclk.c **** 
  15:Generated_Source\PSoC6\pdl\drivers\peripheral\sysclk/cy_sysclk.c **** 
  16:Generated_Source\PSoC6\pdl\drivers\peripheral\sysclk/cy_sysclk.c **** #include "cy_sysclk.h"
  17:Generated_Source\PSoC6\pdl\drivers\peripheral\sysclk/cy_sysclk.c **** #include "syslib/cy_syslib.h"
  18:Generated_Source\PSoC6\pdl\drivers\peripheral\sysclk/cy_sysclk.c **** #include <math.h>
  19:Generated_Source\PSoC6\pdl\drivers\peripheral\sysclk/cy_sysclk.c **** #include <stdlib.h>
  20:Generated_Source\PSoC6\pdl\drivers\peripheral\sysclk/cy_sysclk.c **** 
ARM GAS  C:\Users\kiwamu\AppData\Local\Temp\ccIx7zyv.s 			page 2


  21:Generated_Source\PSoC6\pdl\drivers\peripheral\sysclk/cy_sysclk.c **** #if defined(__cplusplus)
  22:Generated_Source\PSoC6\pdl\drivers\peripheral\sysclk/cy_sysclk.c **** extern "C" {
  23:Generated_Source\PSoC6\pdl\drivers\peripheral\sysclk/cy_sysclk.c **** #endif /* __cplusplus */
  24:Generated_Source\PSoC6\pdl\drivers\peripheral\sysclk/cy_sysclk.c **** 
  25:Generated_Source\PSoC6\pdl\drivers\peripheral\sysclk/cy_sysclk.c **** /* # of elements in an array */
  26:Generated_Source\PSoC6\pdl\drivers\peripheral\sysclk/cy_sysclk.c **** #define  CY_SYSCLK_N_ELMTS(a)  (sizeof(a) / sizeof((a)[0]))
  27:Generated_Source\PSoC6\pdl\drivers\peripheral\sysclk/cy_sysclk.c **** 
  28:Generated_Source\PSoC6\pdl\drivers\peripheral\sysclk/cy_sysclk.c **** /* ========================================================================== */
  29:Generated_Source\PSoC6\pdl\drivers\peripheral\sysclk/cy_sysclk.c **** /* ===========================    ECO SECTION    ============================ */
  30:Generated_Source\PSoC6\pdl\drivers\peripheral\sysclk/cy_sysclk.c **** /* ========================================================================== */
  31:Generated_Source\PSoC6\pdl\drivers\peripheral\sysclk/cy_sysclk.c **** /**
  32:Generated_Source\PSoC6\pdl\drivers\peripheral\sysclk/cy_sysclk.c **** * \addtogroup group_sysclk_eco_funcs
  33:Generated_Source\PSoC6\pdl\drivers\peripheral\sysclk/cy_sysclk.c **** * \{
  34:Generated_Source\PSoC6\pdl\drivers\peripheral\sysclk/cy_sysclk.c **** */
  35:Generated_Source\PSoC6\pdl\drivers\peripheral\sysclk/cy_sysclk.c **** /*******************************************************************************
  36:Generated_Source\PSoC6\pdl\drivers\peripheral\sysclk/cy_sysclk.c **** * Function Name: Cy_SysClk_EcoConfigure
  37:Generated_Source\PSoC6\pdl\drivers\peripheral\sysclk/cy_sysclk.c **** ****************************************************************************//**
  38:Generated_Source\PSoC6\pdl\drivers\peripheral\sysclk/cy_sysclk.c **** *
  39:Generated_Source\PSoC6\pdl\drivers\peripheral\sysclk/cy_sysclk.c **** * This function configures the external crystal oscillator (ECO) trim bits based
  40:Generated_Source\PSoC6\pdl\drivers\peripheral\sysclk/cy_sysclk.c **** * on crystal characteristics. This function should be called only when the ECO is
  41:Generated_Source\PSoC6\pdl\drivers\peripheral\sysclk/cy_sysclk.c **** * disabled.
  42:Generated_Source\PSoC6\pdl\drivers\peripheral\sysclk/cy_sysclk.c **** *
  43:Generated_Source\PSoC6\pdl\drivers\peripheral\sysclk/cy_sysclk.c **** * \param freq Operating frequency of the crystal in Hz.
  44:Generated_Source\PSoC6\pdl\drivers\peripheral\sysclk/cy_sysclk.c **** *
  45:Generated_Source\PSoC6\pdl\drivers\peripheral\sysclk/cy_sysclk.c **** * \param cLoad Crystal load capacitance in pF.
  46:Generated_Source\PSoC6\pdl\drivers\peripheral\sysclk/cy_sysclk.c **** *
  47:Generated_Source\PSoC6\pdl\drivers\peripheral\sysclk/cy_sysclk.c **** * \param esr Effective series resistance of the crystal in ohms.
  48:Generated_Source\PSoC6\pdl\drivers\peripheral\sysclk/cy_sysclk.c **** *
  49:Generated_Source\PSoC6\pdl\drivers\peripheral\sysclk/cy_sysclk.c **** * \param driveLevel Crystal drive level in uW.
  50:Generated_Source\PSoC6\pdl\drivers\peripheral\sysclk/cy_sysclk.c **** *
  51:Generated_Source\PSoC6\pdl\drivers\peripheral\sysclk/cy_sysclk.c **** * \return Error / status code:<br>
  52:Generated_Source\PSoC6\pdl\drivers\peripheral\sysclk/cy_sysclk.c **** * CY_SYSCLK_SUCCESS - ECO configuration completed successfully<br>
  53:Generated_Source\PSoC6\pdl\drivers\peripheral\sysclk/cy_sysclk.c **** * CY_SYSCLK_BAD_PARAM - One or more invalid parameters<br>
  54:Generated_Source\PSoC6\pdl\drivers\peripheral\sysclk/cy_sysclk.c **** * CY_SYSCLK_INVALID_STATE - ECO already enabled
  55:Generated_Source\PSoC6\pdl\drivers\peripheral\sysclk/cy_sysclk.c **** *
  56:Generated_Source\PSoC6\pdl\drivers\peripheral\sysclk/cy_sysclk.c **** * \note
  57:Generated_Source\PSoC6\pdl\drivers\peripheral\sysclk/cy_sysclk.c **** * The following calculations are implemented, generally in floating point:<br>
  58:Generated_Source\PSoC6\pdl\drivers\peripheral\sysclk/cy_sysclk.c **** *   freqMHz = freq / 1,000,000<br>
  59:Generated_Source\PSoC6\pdl\drivers\peripheral\sysclk/cy_sysclk.c **** *   max amplitude Vpp = 1,000 * sqrt(drivelevel / 2 / esr) / 3.14 / freqMHz / cLoad<br>
  60:Generated_Source\PSoC6\pdl\drivers\peripheral\sysclk/cy_sysclk.c **** *   gm_min mA/V = 5 * 4 * 3.14 * 3.14 * freqMhz^2 * cLoad^2 * 4 * esr / 1,000,000,000<br>
  61:Generated_Source\PSoC6\pdl\drivers\peripheral\sysclk/cy_sysclk.c **** *   Number of amplifier sections = INT(gm_min / 4.5)<br>
  62:Generated_Source\PSoC6\pdl\drivers\peripheral\sysclk/cy_sysclk.c **** *   As a result of the above calculations, max amplitude must be >= 0.5, and the
  63:Generated_Source\PSoC6\pdl\drivers\peripheral\sysclk/cy_sysclk.c **** *   number of amplifier sections must be <= 3, otherwise this function returns with
  64:Generated_Source\PSoC6\pdl\drivers\peripheral\sysclk/cy_sysclk.c **** *   a parameter error.<br>
  65:Generated_Source\PSoC6\pdl\drivers\peripheral\sysclk/cy_sysclk.c **** *   atrim = if max amplitude < 0.5 then error<br>
  66:Generated_Source\PSoC6\pdl\drivers\peripheral\sysclk/cy_sysclk.c **** *           else 2 * the following:<br>
  67:Generated_Source\PSoC6\pdl\drivers\peripheral\sysclk/cy_sysclk.c **** *                    max amplitude < 0.6: 0<br>
  68:Generated_Source\PSoC6\pdl\drivers\peripheral\sysclk/cy_sysclk.c **** *                    max amplitude < 0.7: 1<br>
  69:Generated_Source\PSoC6\pdl\drivers\peripheral\sysclk/cy_sysclk.c **** *                    max amplitude < 0.8: 2<br>
  70:Generated_Source\PSoC6\pdl\drivers\peripheral\sysclk/cy_sysclk.c **** *                    max amplitude < 0.9: 3<br>
  71:Generated_Source\PSoC6\pdl\drivers\peripheral\sysclk/cy_sysclk.c **** *                    max amplitude < 1.15: 5<br>
  72:Generated_Source\PSoC6\pdl\drivers\peripheral\sysclk/cy_sysclk.c **** *                    max amplitude < 1.275: 6<br>
  73:Generated_Source\PSoC6\pdl\drivers\peripheral\sysclk/cy_sysclk.c **** *                    max amplitude >= 1.275: 7<br>
  74:Generated_Source\PSoC6\pdl\drivers\peripheral\sysclk/cy_sysclk.c **** *   wdtrim = if max amplitude < 0.5 then error<br>
  75:Generated_Source\PSoC6\pdl\drivers\peripheral\sysclk/cy_sysclk.c **** *            else 2 * the following:<br>
  76:Generated_Source\PSoC6\pdl\drivers\peripheral\sysclk/cy_sysclk.c **** *                     max amplitude < 1.2: INT(5 * max amplitude) - 2<br>
  77:Generated_Source\PSoC6\pdl\drivers\peripheral\sysclk/cy_sysclk.c **** *                     max amplitude >= 1.2: 3<br>
ARM GAS  C:\Users\kiwamu\AppData\Local\Temp\ccIx7zyv.s 			page 3


  78:Generated_Source\PSoC6\pdl\drivers\peripheral\sysclk/cy_sysclk.c **** *   gtrim = if number of amplifier sections > 3 then error<br>
  79:Generated_Source\PSoC6\pdl\drivers\peripheral\sysclk/cy_sysclk.c **** *           else the following:<br>
  80:Generated_Source\PSoC6\pdl\drivers\peripheral\sysclk/cy_sysclk.c **** *                number of amplifier sections > 1: number of amplifier sections<br>
  81:Generated_Source\PSoC6\pdl\drivers\peripheral\sysclk/cy_sysclk.c **** *                number of amplifier sections = 1: 0<br>
  82:Generated_Source\PSoC6\pdl\drivers\peripheral\sysclk/cy_sysclk.c **** *                number of amplifier sections < 1: 1<br>
  83:Generated_Source\PSoC6\pdl\drivers\peripheral\sysclk/cy_sysclk.c **** *   rtrim = if gtrim = error then error<br>
  84:Generated_Source\PSoC6\pdl\drivers\peripheral\sysclk/cy_sysclk.c **** *           else the following:<br>
  85:Generated_Source\PSoC6\pdl\drivers\peripheral\sysclk/cy_sysclk.c **** *                freqMHz > 26.8: 0<br>
  86:Generated_Source\PSoC6\pdl\drivers\peripheral\sysclk/cy_sysclk.c **** *                freqMHz > 23.33: 1<br>
  87:Generated_Source\PSoC6\pdl\drivers\peripheral\sysclk/cy_sysclk.c **** *                freqMHz > 16.5: 2<br>
  88:Generated_Source\PSoC6\pdl\drivers\peripheral\sysclk/cy_sysclk.c **** *                freqMHz <= 16.5: 3<br>
  89:Generated_Source\PSoC6\pdl\drivers\peripheral\sysclk/cy_sysclk.c **** *   ftrim = if atrim = error then error<br>
  90:Generated_Source\PSoC6\pdl\drivers\peripheral\sysclk/cy_sysclk.c **** *           else INT(atrim / 2)<br>
  91:Generated_Source\PSoC6\pdl\drivers\peripheral\sysclk/cy_sysclk.c **** *
  92:Generated_Source\PSoC6\pdl\drivers\peripheral\sysclk/cy_sysclk.c **** *******************************************************************************/
  93:Generated_Source\PSoC6\pdl\drivers\peripheral\sysclk/cy_sysclk.c **** cy_en_sysclk_status_t Cy_SysClk_EcoConfigure(uint32_t freq, uint32_t cLoad, uint32_t esr, uint32_t 
  94:Generated_Source\PSoC6\pdl\drivers\peripheral\sysclk/cy_sysclk.c **** {
  38              		.loc 1 94 0
  39              		.cfi_startproc
  40              		@ args = 0, pretend = 0, frame = 0
  41              		@ frame_needed = 0, uses_anonymous_args = 0
  42              	.LVL0:
  43 0000 F8B5     		push	{r3, r4, r5, r6, r7, lr}
  44              		.cfi_def_cfa_offset 24
  45              		.cfi_offset 3, -24
  46              		.cfi_offset 4, -20
  47              		.cfi_offset 5, -16
  48              		.cfi_offset 6, -12
  49              		.cfi_offset 7, -8
  50              		.cfi_offset 14, -4
  51 0002 0C00     		movs	r4, r1
  52 0004 1500     		movs	r5, r2
  53 0006 1E00     		movs	r6, r3
  54              	.LVL1:
  95:Generated_Source\PSoC6\pdl\drivers\peripheral\sysclk/cy_sysclk.c ****     /* error if ECO is not disabled - any of the 3 enable bits are set */
  96:Generated_Source\PSoC6\pdl\drivers\peripheral\sysclk/cy_sysclk.c ****     cy_en_sysclk_status_t rtnval = CY_SYSCLK_INVALID_STATE;
  97:Generated_Source\PSoC6\pdl\drivers\peripheral\sysclk/cy_sysclk.c ****     if ((SRSS->CLK_ECO_CONFIG & 0xE0000000ul) == 0ul)
  55              		.loc 1 97 0
  56 0008 6C4B     		ldr	r3, .L32
  57              	.LVL2:
  58 000a 6D4A     		ldr	r2, .L32+4
  59              	.LVL3:
  60 000c D358     		ldr	r3, [r2, r3]
  61 000e 5B0F     		lsrs	r3, r3, #29
  62 0010 00D0     		beq	.LCB28
  63 0012 CDE0     		b	.L11	@long jump
  64              	.LCB28:
  65              	.LBB29:
  98:Generated_Source\PSoC6\pdl\drivers\peripheral\sysclk/cy_sysclk.c ****     {
  99:Generated_Source\PSoC6\pdl\drivers\peripheral\sysclk/cy_sysclk.c ****         /* calculate intemediate values */
 100:Generated_Source\PSoC6\pdl\drivers\peripheral\sysclk/cy_sysclk.c ****         float32_t freqMHz = (float32_t)freq / 1000000.0f;
  66              		.loc 1 100 0
  67 0014 FFF7FEFF 		bl	__aeabi_ui2f
  68              	.LVL4:
  69 0018 6A49     		ldr	r1, .L32+8
  70 001a FFF7FEFF 		bl	__aeabi_fdiv
  71              	.LVL5:
ARM GAS  C:\Users\kiwamu\AppData\Local\Temp\ccIx7zyv.s 			page 4


  72 001e 071C     		adds	r7, r0, #0
  73              	.LVL6:
 101:Generated_Source\PSoC6\pdl\drivers\peripheral\sysclk/cy_sysclk.c ****         float32_t maxAmplitude =
 102:Generated_Source\PSoC6\pdl\drivers\peripheral\sysclk/cy_sysclk.c ****             (1000.0f * ((float32_t)sqrt((float64_t)((float32_t)driveLevel / (2.0f * (float32_t)esr)
  74              		.loc 1 102 0
  75 0020 3000     		movs	r0, r6
  76              	.LVL7:
  77 0022 FFF7FEFF 		bl	__aeabi_ui2f
  78              	.LVL8:
  79 0026 061C     		adds	r6, r0, #0
  80              	.LVL9:
  81 0028 2800     		movs	r0, r5
  82 002a FFF7FEFF 		bl	__aeabi_ui2f
  83              	.LVL10:
  84 002e 011C     		adds	r1, r0, #0
  85 0030 FFF7FEFF 		bl	__aeabi_fadd
  86              	.LVL11:
  87 0034 011C     		adds	r1, r0, #0
  88 0036 301C     		adds	r0, r6, #0
  89 0038 FFF7FEFF 		bl	__aeabi_fdiv
  90              	.LVL12:
  91 003c 051C     		adds	r5, r0, #0
  92              	.LVL13:
  93 003e 281C     		adds	r0, r5, #0
  94 0040 FFF7FEFF 		bl	__aeabi_f2d
  95              	.LVL14:
  96 0044 FFF7FEFF 		bl	sqrt
  97              	.LVL15:
  98 0048 FFF7FEFF 		bl	__aeabi_d2f
  99              	.LVL16:
 100 004c 5E49     		ldr	r1, .L32+12
 101 004e FFF7FEFF 		bl	__aeabi_fmul
 102              	.LVL17:
 103 0052 051C     		adds	r5, r0, #0
 103:Generated_Source\PSoC6\pdl\drivers\peripheral\sysclk/cy_sysclk.c ****             (3.14f * freqMHz * (float32_t)cLoad);
 104              		.loc 1 103 0
 105 0054 5D49     		ldr	r1, .L32+16
 106 0056 381C     		adds	r0, r7, #0
 107 0058 FFF7FEFF 		bl	__aeabi_fmul
 108              	.LVL18:
 109 005c 061C     		adds	r6, r0, #0
 110 005e 2000     		movs	r0, r4
 111 0060 FFF7FEFF 		bl	__aeabi_ui2f
 112              	.LVL19:
 113 0064 041C     		adds	r4, r0, #0
 114              	.LVL20:
 115 0066 011C     		adds	r1, r0, #0
 116 0068 301C     		adds	r0, r6, #0
 117 006a FFF7FEFF 		bl	__aeabi_fmul
 118              	.LVL21:
 119 006e 011C     		adds	r1, r0, #0
 101:Generated_Source\PSoC6\pdl\drivers\peripheral\sysclk/cy_sysclk.c ****         float32_t maxAmplitude =
 120              		.loc 1 101 0
 121 0070 281C     		adds	r0, r5, #0
 122 0072 FFF7FEFF 		bl	__aeabi_fdiv
 123              	.LVL22:
 124 0076 051C     		adds	r5, r0, #0
ARM GAS  C:\Users\kiwamu\AppData\Local\Temp\ccIx7zyv.s 			page 5


 125              	.LVL23:
 104:Generated_Source\PSoC6\pdl\drivers\peripheral\sysclk/cy_sysclk.c ****         float32_t gm_min =
 105:Generated_Source\PSoC6\pdl\drivers\peripheral\sysclk/cy_sysclk.c ****             (788.8f /*5 * 4 * 3.14 * 3.14 * 4*/ * freqMHz * freqMHz * (float32_t)cLoad * (float32_t
 126              		.loc 1 105 0
 127 0078 5549     		ldr	r1, .L32+20
 128 007a 381C     		adds	r0, r7, #0
 129              	.LVL24:
 130 007c FFF7FEFF 		bl	__aeabi_fmul
 131              	.LVL25:
 132 0080 011C     		adds	r1, r0, #0
 133 0082 381C     		adds	r0, r7, #0
 134 0084 FFF7FEFF 		bl	__aeabi_fmul
 135              	.LVL26:
 136 0088 011C     		adds	r1, r0, #0
 137 008a 201C     		adds	r0, r4, #0
 138 008c FFF7FEFF 		bl	__aeabi_fmul
 139              	.LVL27:
 140 0090 011C     		adds	r1, r0, #0
 141 0092 201C     		adds	r0, r4, #0
 142 0094 FFF7FEFF 		bl	__aeabi_fmul
 143              	.LVL28:
 104:Generated_Source\PSoC6\pdl\drivers\peripheral\sysclk/cy_sysclk.c ****         float32_t gm_min =
 144              		.loc 1 104 0
 145 0098 4E49     		ldr	r1, .L32+24
 146 009a FFF7FEFF 		bl	__aeabi_fdiv
 147              	.LVL29:
 106:Generated_Source\PSoC6\pdl\drivers\peripheral\sysclk/cy_sysclk.c ****             1000000000.0f;
 107:Generated_Source\PSoC6\pdl\drivers\peripheral\sysclk/cy_sysclk.c ****         uint32_t nAmpSections = (uint32_t)(gm_min / 4.5f);
 148              		.loc 1 107 0
 149 009e 4E49     		ldr	r1, .L32+28
 150 00a0 FFF7FEFF 		bl	__aeabi_fdiv
 151              	.LVL30:
 152 00a4 FFF7FEFF 		bl	__aeabi_f2uiz
 153              	.LVL31:
 154 00a8 0400     		movs	r4, r0
 155              	.LVL32:
 108:Generated_Source\PSoC6\pdl\drivers\peripheral\sysclk/cy_sysclk.c **** 
 109:Generated_Source\PSoC6\pdl\drivers\peripheral\sysclk/cy_sysclk.c ****         /* Error if input parameters cause erroneous intermediate values. */
 110:Generated_Source\PSoC6\pdl\drivers\peripheral\sysclk/cy_sysclk.c ****         rtnval = CY_SYSCLK_BAD_PARAM;
 111:Generated_Source\PSoC6\pdl\drivers\peripheral\sysclk/cy_sysclk.c ****         if ((maxAmplitude >= 0.5f) && (nAmpSections <= 3ul))
 156              		.loc 1 111 0
 157 00aa FC21     		movs	r1, #252
 158 00ac 8905     		lsls	r1, r1, #22
 159 00ae 281C     		adds	r0, r5, #0
 160              	.LVL33:
 161 00b0 FFF7FEFF 		bl	__aeabi_fcmpge
 162              	.LVL34:
 163 00b4 0028     		cmp	r0, #0
 164 00b6 7DD0     		beq	.L28
 165              		.loc 1 111 0 is_stmt 0 discriminator 1
 166 00b8 032C     		cmp	r4, #3
 167 00ba 7DD8     		bhi	.L13
 168              	.LBB30:
 112:Generated_Source\PSoC6\pdl\drivers\peripheral\sysclk/cy_sysclk.c ****         {
 113:Generated_Source\PSoC6\pdl\drivers\peripheral\sysclk/cy_sysclk.c ****             uint32_t atrim, wdtrim, gtrim, rtrim, ftrim, reg;
 114:Generated_Source\PSoC6\pdl\drivers\peripheral\sysclk/cy_sysclk.c **** 
 115:Generated_Source\PSoC6\pdl\drivers\peripheral\sysclk/cy_sysclk.c ****             atrim = 2ul * ((maxAmplitude < 0.6f) ? 0ul :
ARM GAS  C:\Users\kiwamu\AppData\Local\Temp\ccIx7zyv.s 			page 6


 169              		.loc 1 115 0 is_stmt 1
 170 00bc 4749     		ldr	r1, .L32+32
 171 00be 281C     		adds	r0, r5, #0
 172 00c0 FFF7FEFF 		bl	__aeabi_fcmplt
 173              	.LVL35:
 174 00c4 0028     		cmp	r0, #0
 175 00c6 1FD1     		bne	.L14
 176              		.loc 1 115 0 is_stmt 0 discriminator 2
 177 00c8 4549     		ldr	r1, .L32+36
 178 00ca 281C     		adds	r0, r5, #0
 179 00cc FFF7FEFF 		bl	__aeabi_fcmplt
 180              	.LVL36:
 181 00d0 0028     		cmp	r0, #0
 182 00d2 1BD1     		bne	.L15
 183              		.loc 1 115 0 discriminator 5
 184 00d4 4349     		ldr	r1, .L32+40
 185 00d6 281C     		adds	r0, r5, #0
 186 00d8 FFF7FEFF 		bl	__aeabi_fcmplt
 187              	.LVL37:
 188 00dc 0028     		cmp	r0, #0
 189 00de 17D1     		bne	.L16
 190              		.loc 1 115 0 discriminator 8
 191 00e0 4149     		ldr	r1, .L32+44
 192 00e2 281C     		adds	r0, r5, #0
 193 00e4 FFF7FEFF 		bl	__aeabi_fcmplt
 194              	.LVL38:
 195 00e8 0028     		cmp	r0, #0
 196 00ea 13D1     		bne	.L17
 197              		.loc 1 115 0 discriminator 11
 198 00ec 3F49     		ldr	r1, .L32+48
 199 00ee 281C     		adds	r0, r5, #0
 200 00f0 FFF7FEFF 		bl	__aeabi_fcmplt
 201              	.LVL39:
 202 00f4 0028     		cmp	r0, #0
 203 00f6 0FD1     		bne	.L18
 204              		.loc 1 115 0 discriminator 14
 205 00f8 3D49     		ldr	r1, .L32+52
 206 00fa 281C     		adds	r0, r5, #0
 207 00fc FFF7FEFF 		bl	__aeabi_fcmplt
 208              	.LVL40:
 209 0100 0028     		cmp	r0, #0
 210 0102 0BD0     		beq	.L29
 211              		.loc 1 115 0
 212 0104 0C26     		movs	r6, #12
 213 0106 0AE0     		b	.L4
 214              	.L14:
 215 0108 0026     		movs	r6, #0
 216 010a 08E0     		b	.L4
 217              	.L15:
 218 010c 0226     		movs	r6, #2
 219 010e 06E0     		b	.L4
 220              	.L16:
 221 0110 0426     		movs	r6, #4
 222 0112 04E0     		b	.L4
 223              	.L17:
 224 0114 0626     		movs	r6, #6
 225 0116 02E0     		b	.L4
ARM GAS  C:\Users\kiwamu\AppData\Local\Temp\ccIx7zyv.s 			page 7


 226              	.L18:
 227 0118 0A26     		movs	r6, #10
 228 011a 00E0     		b	.L4
 229              	.L29:
 230 011c 0E26     		movs	r6, #14
 231              	.L4:
 232              	.LVL41:
 116:Generated_Source\PSoC6\pdl\drivers\peripheral\sysclk/cy_sysclk.c ****                            ((maxAmplitude < 0.7f) ? 1ul :
 117:Generated_Source\PSoC6\pdl\drivers\peripheral\sysclk/cy_sysclk.c ****                             ((maxAmplitude < 0.8f) ? 2ul :
 118:Generated_Source\PSoC6\pdl\drivers\peripheral\sysclk/cy_sysclk.c ****                              ((maxAmplitude < 0.9f) ? 3ul :
 119:Generated_Source\PSoC6\pdl\drivers\peripheral\sysclk/cy_sysclk.c ****                               ((maxAmplitude < 1.15f) ? 5ul :
 120:Generated_Source\PSoC6\pdl\drivers\peripheral\sysclk/cy_sysclk.c ****                                ((maxAmplitude < 1.275f) ? 6ul : 7ul))))));
 121:Generated_Source\PSoC6\pdl\drivers\peripheral\sysclk/cy_sysclk.c **** 
 122:Generated_Source\PSoC6\pdl\drivers\peripheral\sysclk/cy_sysclk.c ****             wdtrim = 2ul * ((maxAmplitude < 1.2f) ? (uint32_t)(5.0f * maxAmplitude) - 2ul : 3ul);
 233              		.loc 1 122 0 is_stmt 1 discriminator 24
 234 011e 3549     		ldr	r1, .L32+56
 235 0120 281C     		adds	r0, r5, #0
 236 0122 FFF7FEFF 		bl	__aeabi_fcmplt
 237              	.LVL42:
 238 0126 0028     		cmp	r0, #0
 239 0128 09D0     		beq	.L30
 240              		.loc 1 122 0 is_stmt 0 discriminator 1
 241 012a 3349     		ldr	r1, .L32+60
 242 012c 281C     		adds	r0, r5, #0
 243 012e FFF7FEFF 		bl	__aeabi_fmul
 244              	.LVL43:
 245 0132 FFF7FEFF 		bl	__aeabi_f2uiz
 246              	.LVL44:
 247 0136 314B     		ldr	r3, .L32+64
 248 0138 C518     		adds	r5, r0, r3
 249              	.LVL45:
 250 013a 6D00     		lsls	r5, r5, #1
 251 013c 00E0     		b	.L6
 252              	.LVL46:
 253              	.L30:
 254              		.loc 1 122 0
 255 013e 0625     		movs	r5, #6
 256              	.LVL47:
 257              	.L6:
 123:Generated_Source\PSoC6\pdl\drivers\peripheral\sysclk/cy_sysclk.c **** 
 124:Generated_Source\PSoC6\pdl\drivers\peripheral\sysclk/cy_sysclk.c ****             gtrim = ((nAmpSections > 1ul) ? nAmpSections :
 258              		.loc 1 124 0 is_stmt 1 discriminator 4
 259 0140 012C     		cmp	r4, #1
 260 0142 03D8     		bhi	.L8
 125:Generated_Source\PSoC6\pdl\drivers\peripheral\sysclk/cy_sysclk.c ****                      ((nAmpSections == 1ul) ? 0ul : 1ul));
 261              		.loc 1 125 0 discriminator 1
 262 0144 013C     		subs	r4, r4, #1
 263              	.LVL48:
 264 0146 631E     		subs	r3, r4, #1
 265 0148 9C41     		sbcs	r4, r4, r3
 266              	.LVL49:
 267 014a E4B2     		uxtb	r4, r4
 268              	.L8:
 269              	.LVL50:
 126:Generated_Source\PSoC6\pdl\drivers\peripheral\sysclk/cy_sysclk.c **** 
 127:Generated_Source\PSoC6\pdl\drivers\peripheral\sysclk/cy_sysclk.c ****             rtrim = ((freqMHz > 26.8f) ? 0ul :
 270              		.loc 1 127 0 discriminator 4
ARM GAS  C:\Users\kiwamu\AppData\Local\Temp\ccIx7zyv.s 			page 8


 271 014c 2C49     		ldr	r1, .L32+68
 272 014e 381C     		adds	r0, r7, #0
 273 0150 FFF7FEFF 		bl	__aeabi_fcmpgt
 274              	.LVL51:
 275 0154 0028     		cmp	r0, #0
 276 0156 0DD1     		bne	.L21
 128:Generated_Source\PSoC6\pdl\drivers\peripheral\sysclk/cy_sysclk.c ****                      ((freqMHz > 23.33f) ? 1ul :
 277              		.loc 1 128 0
 278 0158 2A49     		ldr	r1, .L32+72
 279 015a 381C     		adds	r0, r7, #0
 280 015c FFF7FEFF 		bl	__aeabi_fcmpgt
 281              	.LVL52:
 282 0160 0028     		cmp	r0, #0
 283 0162 09D1     		bne	.L22
 129:Generated_Source\PSoC6\pdl\drivers\peripheral\sysclk/cy_sysclk.c ****                       ((freqMHz > 16.5f) ? 2ul : 3ul)));
 284              		.loc 1 129 0
 285 0164 2849     		ldr	r1, .L32+76
 286 0166 381C     		adds	r0, r7, #0
 287 0168 FFF7FEFF 		bl	__aeabi_fcmpgt
 288              	.LVL53:
 289 016c 0028     		cmp	r0, #0
 290 016e 05D0     		beq	.L31
 291 0170 0227     		movs	r7, #2
 292              	.LVL54:
 293 0172 04E0     		b	.L9
 294              	.LVL55:
 295              	.L21:
 127:Generated_Source\PSoC6\pdl\drivers\peripheral\sysclk/cy_sysclk.c ****                      ((freqMHz > 23.33f) ? 1ul :
 296              		.loc 1 127 0
 297 0174 0027     		movs	r7, #0
 298              	.LVL56:
 299 0176 02E0     		b	.L9
 300              	.LVL57:
 301              	.L22:
 128:Generated_Source\PSoC6\pdl\drivers\peripheral\sysclk/cy_sysclk.c ****                      ((freqMHz > 23.33f) ? 1ul :
 302              		.loc 1 128 0
 303 0178 0127     		movs	r7, #1
 304              	.LVL58:
 305 017a 00E0     		b	.L9
 306              	.LVL59:
 307              	.L31:
 308              		.loc 1 129 0
 309 017c 0327     		movs	r7, #3
 310              	.LVL60:
 311              	.L9:
 130:Generated_Source\PSoC6\pdl\drivers\peripheral\sysclk/cy_sysclk.c **** 
 131:Generated_Source\PSoC6\pdl\drivers\peripheral\sysclk/cy_sysclk.c ****             ftrim = atrim / 2ul;
 132:Generated_Source\PSoC6\pdl\drivers\peripheral\sysclk/cy_sysclk.c **** 
 133:Generated_Source\PSoC6\pdl\drivers\peripheral\sysclk/cy_sysclk.c ****             /* update all fields of trim control register with one write, without
 134:Generated_Source\PSoC6\pdl\drivers\peripheral\sysclk/cy_sysclk.c ****                changing the ITRIM field in bits [21:16]:
 135:Generated_Source\PSoC6\pdl\drivers\peripheral\sysclk/cy_sysclk.c ****                  gtrim:  bits [13:12]
 136:Generated_Source\PSoC6\pdl\drivers\peripheral\sysclk/cy_sysclk.c ****                  rtrim:  bits [11:10]
 137:Generated_Source\PSoC6\pdl\drivers\peripheral\sysclk/cy_sysclk.c ****                  ftrim:  bits  [9:8]
 138:Generated_Source\PSoC6\pdl\drivers\peripheral\sysclk/cy_sysclk.c ****                  atrim:  bits  [7:4]
 139:Generated_Source\PSoC6\pdl\drivers\peripheral\sysclk/cy_sysclk.c ****                  wdtrim: bits  [2:0]
 140:Generated_Source\PSoC6\pdl\drivers\peripheral\sysclk/cy_sysclk.c ****             */
 141:Generated_Source\PSoC6\pdl\drivers\peripheral\sysclk/cy_sysclk.c ****             reg = (SRSS->CLK_TRIM_ECO_CTL & ~0x3FFFul);
ARM GAS  C:\Users\kiwamu\AppData\Local\Temp\ccIx7zyv.s 			page 9


 312              		.loc 1 141 0 discriminator 2
 313 017e 1049     		ldr	r1, .L32+4
 314 0180 224A     		ldr	r2, .L32+80
 315 0182 8858     		ldr	r0, [r1, r2]
 316 0184 800B     		lsrs	r0, r0, #14
 317 0186 8003     		lsls	r0, r0, #14
 318              	.LVL61:
 142:Generated_Source\PSoC6\pdl\drivers\peripheral\sysclk/cy_sysclk.c ****             reg |= (gtrim  & 3ul)    << 12;
 319              		.loc 1 142 0 discriminator 2
 320 0188 2403     		lsls	r4, r4, #12
 321              	.LVL62:
 322 018a C023     		movs	r3, #192
 323 018c 9B01     		lsls	r3, r3, #6
 324 018e 1C40     		ands	r4, r3
 325 0190 0443     		orrs	r4, r0
 326              	.LVL63:
 143:Generated_Source\PSoC6\pdl\drivers\peripheral\sysclk/cy_sysclk.c ****             reg |= (rtrim  & 3ul)    << 10;
 327              		.loc 1 143 0 discriminator 2
 328 0192 BB02     		lsls	r3, r7, #10
 329 0194 1C43     		orrs	r4, r3
 330              	.LVL64:
 144:Generated_Source\PSoC6\pdl\drivers\peripheral\sysclk/cy_sysclk.c ****             reg |= (ftrim  & 3ul)    << 8;
 331              		.loc 1 144 0 discriminator 2
 332 0196 F001     		lsls	r0, r6, #7
 333 0198 C023     		movs	r3, #192
 334 019a 9B00     		lsls	r3, r3, #2
 335 019c 0340     		ands	r3, r0
 336 019e 1C43     		orrs	r4, r3
 337              	.LVL65:
 145:Generated_Source\PSoC6\pdl\drivers\peripheral\sysclk/cy_sysclk.c ****             reg |= (atrim  & 0x0Ful) << 4;
 338              		.loc 1 145 0 discriminator 2
 339 01a0 3601     		lsls	r6, r6, #4
 340              	.LVL66:
 341 01a2 2643     		orrs	r6, r4
 342              	.LVL67:
 146:Generated_Source\PSoC6\pdl\drivers\peripheral\sysclk/cy_sysclk.c ****             reg |= (wdtrim & 7ul);
 343              		.loc 1 146 0 discriminator 2
 344 01a4 0720     		movs	r0, #7
 345 01a6 0540     		ands	r5, r0
 346              	.LVL68:
 347 01a8 2E43     		orrs	r6, r5
 348              	.LVL69:
 147:Generated_Source\PSoC6\pdl\drivers\peripheral\sysclk/cy_sysclk.c ****             SRSS->CLK_TRIM_ECO_CTL = reg;
 349              		.loc 1 147 0 discriminator 2
 350 01aa 8E50     		str	r6, [r1, r2]
 351              	.LVL70:
 148:Generated_Source\PSoC6\pdl\drivers\peripheral\sysclk/cy_sysclk.c **** 
 149:Generated_Source\PSoC6\pdl\drivers\peripheral\sysclk/cy_sysclk.c ****             rtnval = CY_SYSCLK_SUCCESS;
 352              		.loc 1 149 0 discriminator 2
 353 01ac 0020     		movs	r0, #0
 354 01ae 04E0     		b	.L2
 355              	.LVL71:
 356              	.L11:
 357              	.LBE30:
 358              	.LBE29:
  96:Generated_Source\PSoC6\pdl\drivers\peripheral\sysclk/cy_sysclk.c ****     if ((SRSS->CLK_ECO_CONFIG & 0xE0000000ul) == 0ul)
 359              		.loc 1 96 0
ARM GAS  C:\Users\kiwamu\AppData\Local\Temp\ccIx7zyv.s 			page 10


 360 01b0 1748     		ldr	r0, .L32+84
 361              	.LVL72:
 362 01b2 02E0     		b	.L2
 363              	.LVL73:
 364              	.L28:
 365              	.LBB31:
 110:Generated_Source\PSoC6\pdl\drivers\peripheral\sysclk/cy_sysclk.c ****         if ((maxAmplitude >= 0.5f) && (nAmpSections <= 3ul))
 366              		.loc 1 110 0
 367 01b4 1748     		ldr	r0, .L32+88
 368 01b6 00E0     		b	.L2
 369              	.L13:
 370 01b8 1648     		ldr	r0, .L32+88
 371              	.LVL74:
 372              	.L2:
 373              	.LBE31:
 150:Generated_Source\PSoC6\pdl\drivers\peripheral\sysclk/cy_sysclk.c ****         } /* if valid parameters */
 151:Generated_Source\PSoC6\pdl\drivers\peripheral\sysclk/cy_sysclk.c ****     } /* if ECO not enabled */
 152:Generated_Source\PSoC6\pdl\drivers\peripheral\sysclk/cy_sysclk.c **** 
 153:Generated_Source\PSoC6\pdl\drivers\peripheral\sysclk/cy_sysclk.c ****     return (rtnval);
 154:Generated_Source\PSoC6\pdl\drivers\peripheral\sysclk/cy_sysclk.c **** }
 374              		.loc 1 154 0
 375              		@ sp needed
 376 01ba F8BD     		pop	{r3, r4, r5, r6, r7, pc}
 377              	.L33:
 378              		.align	2
 379              	.L32:
 380 01bc 2C050000 		.word	1324
 381 01c0 00002640 		.word	1076232192
 382 01c4 00247449 		.word	1232348160
 383 01c8 00007A44 		.word	1148846080
 384 01cc C3F54840 		.word	1078523331
 385 01d0 33334544 		.word	1145385779
 386 01d4 286B6E4E 		.word	1315859240
 387 01d8 00009040 		.word	1083179008
 388 01dc 9A99193F 		.word	1058642330
 389 01e0 3333333F 		.word	1060320051
 390 01e4 CDCC4C3F 		.word	1061997773
 391 01e8 6666663F 		.word	1063675494
 392 01ec 3333933F 		.word	1066611507
 393 01f0 3333A33F 		.word	1067660083
 394 01f4 9A99993F 		.word	1067030938
 395 01f8 0000A040 		.word	1084227584
 396 01fc FEFFFF7F 		.word	2147483646
 397 0200 6666D641 		.word	1104569958
 398 0204 D7A3BA41 		.word	1102750679
 399 0208 00008441 		.word	1099169792
 400 020c 20FF0000 		.word	65312
 401 0210 03004A00 		.word	4849667
 402 0214 01004A00 		.word	4849665
 403              		.cfi_endproc
 404              	.LFE139:
 405              		.size	Cy_SysClk_EcoConfigure, .-Cy_SysClk_EcoConfigure
 406              		.section	.text.Cy_SysClk_EcoEnable,"ax",%progbits
 407              		.align	2
 408              		.global	Cy_SysClk_EcoEnable
 409              		.code	16
 410              		.thumb_func
ARM GAS  C:\Users\kiwamu\AppData\Local\Temp\ccIx7zyv.s 			page 11


 411              		.type	Cy_SysClk_EcoEnable, %function
 412              	Cy_SysClk_EcoEnable:
 413              	.LFB140:
 155:Generated_Source\PSoC6\pdl\drivers\peripheral\sysclk/cy_sysclk.c **** 
 156:Generated_Source\PSoC6\pdl\drivers\peripheral\sysclk/cy_sysclk.c **** /*******************************************************************************
 157:Generated_Source\PSoC6\pdl\drivers\peripheral\sysclk/cy_sysclk.c **** * Function Name: Cy_SysClk_EcoEnable
 158:Generated_Source\PSoC6\pdl\drivers\peripheral\sysclk/cy_sysclk.c **** ****************************************************************************//**
 159:Generated_Source\PSoC6\pdl\drivers\peripheral\sysclk/cy_sysclk.c **** *
 160:Generated_Source\PSoC6\pdl\drivers\peripheral\sysclk/cy_sysclk.c **** * Enables the external crystal oscillator (ECO). This function should be called
 161:Generated_Source\PSoC6\pdl\drivers\peripheral\sysclk/cy_sysclk.c **** * after \ref Cy_SysClk_EcoConfigure.
 162:Generated_Source\PSoC6\pdl\drivers\peripheral\sysclk/cy_sysclk.c **** *
 163:Generated_Source\PSoC6\pdl\drivers\peripheral\sysclk/cy_sysclk.c **** * \param timeoutus Amount of time in microseconds to wait for the ECO to lock.
 164:Generated_Source\PSoC6\pdl\drivers\peripheral\sysclk/cy_sysclk.c **** * If a lock does not occur, the ECO is stopped. To avoid waiting for a lock, set
 165:Generated_Source\PSoC6\pdl\drivers\peripheral\sysclk/cy_sysclk.c **** * this parameter to 0.
 166:Generated_Source\PSoC6\pdl\drivers\peripheral\sysclk/cy_sysclk.c **** *
 167:Generated_Source\PSoC6\pdl\drivers\peripheral\sysclk/cy_sysclk.c **** * \return Error / status code:<br>
 168:Generated_Source\PSoC6\pdl\drivers\peripheral\sysclk/cy_sysclk.c **** * CY_SYSCLK_SUCCESS - ECO locked<br>
 169:Generated_Source\PSoC6\pdl\drivers\peripheral\sysclk/cy_sysclk.c **** * CY_SYSCLK_TIMEOUT - ECO timed out and did not lock
 170:Generated_Source\PSoC6\pdl\drivers\peripheral\sysclk/cy_sysclk.c **** * CY_SYSCLK_INVALID_STATE - ECO already enabled
 171:Generated_Source\PSoC6\pdl\drivers\peripheral\sysclk/cy_sysclk.c **** *
 172:Generated_Source\PSoC6\pdl\drivers\peripheral\sysclk/cy_sysclk.c **** *******************************************************************************/
 173:Generated_Source\PSoC6\pdl\drivers\peripheral\sysclk/cy_sysclk.c **** cy_en_sysclk_status_t Cy_SysClk_EcoEnable(uint32_t timeoutus)
 174:Generated_Source\PSoC6\pdl\drivers\peripheral\sysclk/cy_sysclk.c **** {
 414              		.loc 1 174 0
 415              		.cfi_startproc
 416              		@ args = 0, pretend = 0, frame = 0
 417              		@ frame_needed = 0, uses_anonymous_args = 0
 418              	.LVL75:
 419 0000 10B5     		push	{r4, lr}
 420              		.cfi_def_cfa_offset 8
 421              		.cfi_offset 4, -8
 422              		.cfi_offset 14, -4
 423 0002 0400     		movs	r4, r0
 424              	.LVL76:
 175:Generated_Source\PSoC6\pdl\drivers\peripheral\sysclk/cy_sysclk.c ****     cy_en_sysclk_status_t rtnval = CY_SYSCLK_INVALID_STATE;
 176:Generated_Source\PSoC6\pdl\drivers\peripheral\sysclk/cy_sysclk.c **** 
 177:Generated_Source\PSoC6\pdl\drivers\peripheral\sysclk/cy_sysclk.c ****     /* invalid state error if ECO is already enabled */
 178:Generated_Source\PSoC6\pdl\drivers\peripheral\sysclk/cy_sysclk.c ****     if (_FLD2VAL(SRSS_CLK_ECO_CONFIG_ECO_EN, SRSS->CLK_ECO_CONFIG) == 0ul) /* 1 = enabled */
 425              		.loc 1 178 0
 426 0004 104B     		ldr	r3, .L41
 427 0006 114A     		ldr	r2, .L41+4
 428 0008 D358     		ldr	r3, [r2, r3]
 429 000a 002B     		cmp	r3, #0
 430 000c 17DB     		blt	.L39
 179:Generated_Source\PSoC6\pdl\drivers\peripheral\sysclk/cy_sysclk.c ****     {
 180:Generated_Source\PSoC6\pdl\drivers\peripheral\sysclk/cy_sysclk.c ****         /* first set ECO enable */
 181:Generated_Source\PSoC6\pdl\drivers\peripheral\sysclk/cy_sysclk.c ****         SRSS->CLK_ECO_CONFIG |= _VAL2FLD(SRSS_CLK_ECO_CONFIG_ECO_EN, 1ul); /* 1 = enable */
 431              		.loc 1 181 0
 432 000e 1100     		movs	r1, r2
 433 0010 0D4A     		ldr	r2, .L41
 434 0012 8B58     		ldr	r3, [r1, r2]
 435 0014 8020     		movs	r0, #128
 436              	.LVL77:
 437 0016 0006     		lsls	r0, r0, #24
 438 0018 0343     		orrs	r3, r0
 439 001a 8B50     		str	r3, [r1, r2]
 182:Generated_Source\PSoC6\pdl\drivers\peripheral\sysclk/cy_sysclk.c **** 
ARM GAS  C:\Users\kiwamu\AppData\Local\Temp\ccIx7zyv.s 			page 12


 183:Generated_Source\PSoC6\pdl\drivers\peripheral\sysclk/cy_sysclk.c ****         /* now do the timeout wait for ECO_STATUS, bit ECO_OK */
 184:Generated_Source\PSoC6\pdl\drivers\peripheral\sysclk/cy_sysclk.c ****         for (;
 440              		.loc 1 184 0
 441 001c 03E0     		b	.L36
 442              	.L38:
 185:Generated_Source\PSoC6\pdl\drivers\peripheral\sysclk/cy_sysclk.c ****              ((_FLD2VAL(SRSS_CLK_ECO_STATUS_ECO_READY, SRSS->CLK_ECO_STATUS) == 0ul)) &&(timeoutus 
 186:Generated_Source\PSoC6\pdl\drivers\peripheral\sysclk/cy_sysclk.c ****              timeoutus--)
 187:Generated_Source\PSoC6\pdl\drivers\peripheral\sysclk/cy_sysclk.c ****         {
 188:Generated_Source\PSoC6\pdl\drivers\peripheral\sysclk/cy_sysclk.c ****             Cy_SysLib_DelayUs(1u);
 443              		.loc 1 188 0
 444 001e 0120     		movs	r0, #1
 445 0020 FFF7FEFF 		bl	Cy_SysLib_DelayUs
 446              	.LVL78:
 186:Generated_Source\PSoC6\pdl\drivers\peripheral\sysclk/cy_sysclk.c ****         {
 447              		.loc 1 186 0
 448 0024 013C     		subs	r4, r4, #1
 449              	.LVL79:
 450              	.L36:
 185:Generated_Source\PSoC6\pdl\drivers\peripheral\sysclk/cy_sysclk.c ****              ((_FLD2VAL(SRSS_CLK_ECO_STATUS_ECO_READY, SRSS->CLK_ECO_STATUS) == 0ul)) &&(timeoutus 
 451              		.loc 1 185 0
 452 0026 A623     		movs	r3, #166
 453 0028 DB00     		lsls	r3, r3, #3
 454 002a 084A     		ldr	r2, .L41+4
 455 002c D358     		ldr	r3, [r2, r3]
 184:Generated_Source\PSoC6\pdl\drivers\peripheral\sysclk/cy_sysclk.c ****              ((_FLD2VAL(SRSS_CLK_ECO_STATUS_ECO_READY, SRSS->CLK_ECO_STATUS) == 0ul)) &&(timeoutus 
 456              		.loc 1 184 0
 457 002e 9B07     		lsls	r3, r3, #30
 458 0030 01D4     		bmi	.L37
 185:Generated_Source\PSoC6\pdl\drivers\peripheral\sysclk/cy_sysclk.c ****              ((_FLD2VAL(SRSS_CLK_ECO_STATUS_ECO_READY, SRSS->CLK_ECO_STATUS) == 0ul)) &&(timeoutus 
 459              		.loc 1 185 0
 460 0032 002C     		cmp	r4, #0
 461 0034 F3D1     		bne	.L38
 462              	.L37:
 189:Generated_Source\PSoC6\pdl\drivers\peripheral\sysclk/cy_sysclk.c ****         }
 190:Generated_Source\PSoC6\pdl\drivers\peripheral\sysclk/cy_sysclk.c ****         rtnval = ((timeoutus == 0ul) ? CY_SYSCLK_TIMEOUT : CY_SYSCLK_SUCCESS);
 463              		.loc 1 190 0
 464 0036 002C     		cmp	r4, #0
 465 0038 03D1     		bne	.L40
 466 003a 0548     		ldr	r0, .L41+8
 467 003c 02E0     		b	.L35
 468              	.LVL80:
 469              	.L39:
 175:Generated_Source\PSoC6\pdl\drivers\peripheral\sysclk/cy_sysclk.c **** 
 470              		.loc 1 175 0
 471 003e 0548     		ldr	r0, .L41+12
 472              	.LVL81:
 473 0040 00E0     		b	.L35
 474              	.L40:
 475              		.loc 1 190 0
 476 0042 0020     		movs	r0, #0
 477              	.L35:
 478              	.LVL82:
 191:Generated_Source\PSoC6\pdl\drivers\peripheral\sysclk/cy_sysclk.c ****     }
 192:Generated_Source\PSoC6\pdl\drivers\peripheral\sysclk/cy_sysclk.c ****     return (rtnval);
 193:Generated_Source\PSoC6\pdl\drivers\peripheral\sysclk/cy_sysclk.c **** }
 479              		.loc 1 193 0
 480              		@ sp needed
ARM GAS  C:\Users\kiwamu\AppData\Local\Temp\ccIx7zyv.s 			page 13


 481              	.LVL83:
 482 0044 10BD     		pop	{r4, pc}
 483              	.L42:
 484 0046 C046     		.align	2
 485              	.L41:
 486 0048 2C050000 		.word	1324
 487 004c 00002640 		.word	1076232192
 488 0050 02004A00 		.word	4849666
 489 0054 03004A00 		.word	4849667
 490              		.cfi_endproc
 491              	.LFE140:
 492              		.size	Cy_SysClk_EcoEnable, .-Cy_SysClk_EcoEnable
 493              		.section	.text.Cy_SysClk_ClkPathSetSource,"ax",%progbits
 494              		.align	2
 495              		.global	Cy_SysClk_ClkPathSetSource
 496              		.code	16
 497              		.thumb_func
 498              		.type	Cy_SysClk_ClkPathSetSource, %function
 499              	Cy_SysClk_ClkPathSetSource:
 500              	.LFB141:
 194:Generated_Source\PSoC6\pdl\drivers\peripheral\sysclk/cy_sysclk.c **** /** \} group_sysclk_eco_funcs */
 195:Generated_Source\PSoC6\pdl\drivers\peripheral\sysclk/cy_sysclk.c **** 
 196:Generated_Source\PSoC6\pdl\drivers\peripheral\sysclk/cy_sysclk.c **** 
 197:Generated_Source\PSoC6\pdl\drivers\peripheral\sysclk/cy_sysclk.c **** /* ========================================================================== */
 198:Generated_Source\PSoC6\pdl\drivers\peripheral\sysclk/cy_sysclk.c **** /* ====================    INPUT MULTIPLEXER SECTION    ===================== */
 199:Generated_Source\PSoC6\pdl\drivers\peripheral\sysclk/cy_sysclk.c **** /* ========================================================================== */
 200:Generated_Source\PSoC6\pdl\drivers\peripheral\sysclk/cy_sysclk.c **** /**
 201:Generated_Source\PSoC6\pdl\drivers\peripheral\sysclk/cy_sysclk.c **** * \addtogroup group_sysclk_path_src_funcs
 202:Generated_Source\PSoC6\pdl\drivers\peripheral\sysclk/cy_sysclk.c **** * \{
 203:Generated_Source\PSoC6\pdl\drivers\peripheral\sysclk/cy_sysclk.c **** */
 204:Generated_Source\PSoC6\pdl\drivers\peripheral\sysclk/cy_sysclk.c **** /*******************************************************************************
 205:Generated_Source\PSoC6\pdl\drivers\peripheral\sysclk/cy_sysclk.c **** * Function Name: Cy_SysClk_ClkPathSetSource
 206:Generated_Source\PSoC6\pdl\drivers\peripheral\sysclk/cy_sysclk.c **** ****************************************************************************//**
 207:Generated_Source\PSoC6\pdl\drivers\peripheral\sysclk/cy_sysclk.c **** *
 208:Generated_Source\PSoC6\pdl\drivers\peripheral\sysclk/cy_sysclk.c **** * Configures the source for the specified clock path.
 209:Generated_Source\PSoC6\pdl\drivers\peripheral\sysclk/cy_sysclk.c **** *
 210:Generated_Source\PSoC6\pdl\drivers\peripheral\sysclk/cy_sysclk.c **** * \param clkPath Selects which clock path to configure; 0 is the first clock
 211:Generated_Source\PSoC6\pdl\drivers\peripheral\sysclk/cy_sysclk.c **** * path, which is the FLL.
 212:Generated_Source\PSoC6\pdl\drivers\peripheral\sysclk/cy_sysclk.c **** *
 213:Generated_Source\PSoC6\pdl\drivers\peripheral\sysclk/cy_sysclk.c **** * \param source \ref cy_en_clkpath_in_sources_t
 214:Generated_Source\PSoC6\pdl\drivers\peripheral\sysclk/cy_sysclk.c **** *
 215:Generated_Source\PSoC6\pdl\drivers\peripheral\sysclk/cy_sysclk.c **** * \return \ref cy_en_sysclk_status_t
 216:Generated_Source\PSoC6\pdl\drivers\peripheral\sysclk/cy_sysclk.c **** *
 217:Generated_Source\PSoC6\pdl\drivers\peripheral\sysclk/cy_sysclk.c **** * \note
 218:Generated_Source\PSoC6\pdl\drivers\peripheral\sysclk/cy_sysclk.c **** * If calling this function changes an FLL or PLL input frequency, disable the FLL
 219:Generated_Source\PSoC6\pdl\drivers\peripheral\sysclk/cy_sysclk.c **** * or PLL before calling this function. After calling this function, call the FLL
 220:Generated_Source\PSoC6\pdl\drivers\peripheral\sysclk/cy_sysclk.c **** * or PLL configure function, for example \ref Cy_SysClk_FllConfigure().
 221:Generated_Source\PSoC6\pdl\drivers\peripheral\sysclk/cy_sysclk.c **** *******************************************************************************/
 222:Generated_Source\PSoC6\pdl\drivers\peripheral\sysclk/cy_sysclk.c **** cy_en_sysclk_status_t Cy_SysClk_ClkPathSetSource(uint32_t clkPath, cy_en_clkpath_in_sources_t sourc
 223:Generated_Source\PSoC6\pdl\drivers\peripheral\sysclk/cy_sysclk.c **** {
 501              		.loc 1 223 0
 502              		.cfi_startproc
 503              		@ args = 0, pretend = 0, frame = 0
 504              		@ frame_needed = 0, uses_anonymous_args = 0
 505              		@ link register save eliminated.
 506              	.LVL84:
 224:Generated_Source\PSoC6\pdl\drivers\peripheral\sysclk/cy_sysclk.c ****     cy_en_sysclk_status_t retval = CY_SYSCLK_BAD_PARAM;
ARM GAS  C:\Users\kiwamu\AppData\Local\Temp\ccIx7zyv.s 			page 14


 225:Generated_Source\PSoC6\pdl\drivers\peripheral\sysclk/cy_sysclk.c ****     if ((clkPath < SRSS_NUM_CLKPATH) &&
 507              		.loc 1 225 0
 508 0000 0428     		cmp	r0, #4
 509 0002 1DD8     		bhi	.L47
 510              		.loc 1 225 0 is_stmt 0 discriminator 1
 511 0004 0429     		cmp	r1, #4
 512 0006 04D9     		bls	.L45
 226:Generated_Source\PSoC6\pdl\drivers\peripheral\sysclk/cy_sysclk.c ****         ((source <= CY_SYSCLK_CLKPATH_IN_DSIMUX) ||
 227:Generated_Source\PSoC6\pdl\drivers\peripheral\sysclk/cy_sysclk.c ****          ((CY_SYSCLK_CLKPATH_IN_DSI <= source) && (source <= CY_SYSCLK_CLKPATH_IN_PILO))))
 513              		.loc 1 227 0 is_stmt 1
 514 0008 4B1E     		subs	r3, r1, #1
 515 000a FF3B     		subs	r3, r3, #255
 516 000c 9BB2     		uxth	r3, r3
 226:Generated_Source\PSoC6\pdl\drivers\peripheral\sysclk/cy_sysclk.c ****         ((source <= CY_SYSCLK_CLKPATH_IN_DSIMUX) ||
 517              		.loc 1 226 0
 518 000e 132B     		cmp	r3, #19
 519 0010 18D8     		bhi	.L48
 520              	.L45:
 228:Generated_Source\PSoC6\pdl\drivers\peripheral\sysclk/cy_sysclk.c ****     {
 229:Generated_Source\PSoC6\pdl\drivers\peripheral\sysclk/cy_sysclk.c ****         if (source >= CY_SYSCLK_CLKPATH_IN_DSI)
 521              		.loc 1 229 0
 522 0012 FF29     		cmp	r1, #255
 523 0014 0CD9     		bls	.L46
 230:Generated_Source\PSoC6\pdl\drivers\peripheral\sysclk/cy_sysclk.c ****         {
 231:Generated_Source\PSoC6\pdl\drivers\peripheral\sysclk/cy_sysclk.c ****             SRSS->CLK_DSI_SELECT[clkPath] = _VAL2FLD(SRSS_CLK_DSI_SELECT_DSI_MUX, (uint32_t)source)
 524              		.loc 1 231 0
 525 0016 1F23     		movs	r3, #31
 526 0018 1940     		ands	r1, r3
 527              	.LVL85:
 528 001a 0B4A     		ldr	r2, .L49
 529 001c 0300     		movs	r3, r0
 530 001e C033     		adds	r3, r3, #192
 531 0020 9B00     		lsls	r3, r3, #2
 532 0022 9950     		str	r1, [r3, r2]
 232:Generated_Source\PSoC6\pdl\drivers\peripheral\sysclk/cy_sysclk.c ****             SRSS->CLK_PATH_SELECT[clkPath] = _VAL2FLD(SRSS_CLK_PATH_SELECT_PATH_MUX, (uint32_t)CY_S
 533              		.loc 1 232 0
 534 0024 D030     		adds	r0, r0, #208
 535              	.LVL86:
 536 0026 8000     		lsls	r0, r0, #2
 537              	.LVL87:
 538 0028 0423     		movs	r3, #4
 539 002a 8350     		str	r3, [r0, r2]
 233:Generated_Source\PSoC6\pdl\drivers\peripheral\sysclk/cy_sysclk.c ****         }
 234:Generated_Source\PSoC6\pdl\drivers\peripheral\sysclk/cy_sysclk.c ****         else
 235:Generated_Source\PSoC6\pdl\drivers\peripheral\sysclk/cy_sysclk.c ****         {
 236:Generated_Source\PSoC6\pdl\drivers\peripheral\sysclk/cy_sysclk.c ****             SRSS->CLK_PATH_SELECT[clkPath] = _VAL2FLD(SRSS_CLK_PATH_SELECT_PATH_MUX, (uint32_t)sour
 237:Generated_Source\PSoC6\pdl\drivers\peripheral\sysclk/cy_sysclk.c ****         }
 238:Generated_Source\PSoC6\pdl\drivers\peripheral\sysclk/cy_sysclk.c ****         retval = CY_SYSCLK_SUCCESS;
 540              		.loc 1 238 0
 541 002c 0020     		movs	r0, #0
 542 002e 0AE0     		b	.L44
 543              	.LVL88:
 544              	.L46:
 236:Generated_Source\PSoC6\pdl\drivers\peripheral\sysclk/cy_sysclk.c ****         }
 545              		.loc 1 236 0
 546 0030 0723     		movs	r3, #7
 547 0032 1940     		ands	r1, r3
ARM GAS  C:\Users\kiwamu\AppData\Local\Temp\ccIx7zyv.s 			page 15


 548              	.LVL89:
 549 0034 D030     		adds	r0, r0, #208
 550              	.LVL90:
 551 0036 8000     		lsls	r0, r0, #2
 552              	.LVL91:
 553 0038 034B     		ldr	r3, .L49
 554 003a C150     		str	r1, [r0, r3]
 555              		.loc 1 238 0
 556 003c 0020     		movs	r0, #0
 557 003e 02E0     		b	.L44
 558              	.LVL92:
 559              	.L47:
 224:Generated_Source\PSoC6\pdl\drivers\peripheral\sysclk/cy_sysclk.c ****     if ((clkPath < SRSS_NUM_CLKPATH) &&
 560              		.loc 1 224 0
 561 0040 0248     		ldr	r0, .L49+4
 562              	.LVL93:
 563 0042 00E0     		b	.L44
 564              	.LVL94:
 565              	.L48:
 566 0044 0148     		ldr	r0, .L49+4
 567              	.LVL95:
 568              	.L44:
 239:Generated_Source\PSoC6\pdl\drivers\peripheral\sysclk/cy_sysclk.c ****     }
 240:Generated_Source\PSoC6\pdl\drivers\peripheral\sysclk/cy_sysclk.c ****     return (retval);
 241:Generated_Source\PSoC6\pdl\drivers\peripheral\sysclk/cy_sysclk.c **** }
 569              		.loc 1 241 0
 570              		@ sp needed
 571 0046 7047     		bx	lr
 572              	.L50:
 573              		.align	2
 574              	.L49:
 575 0048 00002640 		.word	1076232192
 576 004c 01004A00 		.word	4849665
 577              		.cfi_endproc
 578              	.LFE141:
 579              		.size	Cy_SysClk_ClkPathSetSource, .-Cy_SysClk_ClkPathSetSource
 580              		.section	.text.Cy_SysClk_ClkPathGetSource,"ax",%progbits
 581              		.align	2
 582              		.global	Cy_SysClk_ClkPathGetSource
 583              		.code	16
 584              		.thumb_func
 585              		.type	Cy_SysClk_ClkPathGetSource, %function
 586              	Cy_SysClk_ClkPathGetSource:
 587              	.LFB142:
 242:Generated_Source\PSoC6\pdl\drivers\peripheral\sysclk/cy_sysclk.c **** 
 243:Generated_Source\PSoC6\pdl\drivers\peripheral\sysclk/cy_sysclk.c **** /*******************************************************************************
 244:Generated_Source\PSoC6\pdl\drivers\peripheral\sysclk/cy_sysclk.c **** * Function Name: Cy_SysClk_ClkPathGetSource
 245:Generated_Source\PSoC6\pdl\drivers\peripheral\sysclk/cy_sysclk.c **** ****************************************************************************//**
 246:Generated_Source\PSoC6\pdl\drivers\peripheral\sysclk/cy_sysclk.c **** *
 247:Generated_Source\PSoC6\pdl\drivers\peripheral\sysclk/cy_sysclk.c **** * Reports which source is selected for the path mux.
 248:Generated_Source\PSoC6\pdl\drivers\peripheral\sysclk/cy_sysclk.c **** *
 249:Generated_Source\PSoC6\pdl\drivers\peripheral\sysclk/cy_sysclk.c **** * \param clkPath Selects which clock path to report; 0 is the first clock path,
 250:Generated_Source\PSoC6\pdl\drivers\peripheral\sysclk/cy_sysclk.c **** * which is the FLL.
 251:Generated_Source\PSoC6\pdl\drivers\peripheral\sysclk/cy_sysclk.c **** *
 252:Generated_Source\PSoC6\pdl\drivers\peripheral\sysclk/cy_sysclk.c **** * \return \ref cy_en_clkpath_in_sources_t
 253:Generated_Source\PSoC6\pdl\drivers\peripheral\sysclk/cy_sysclk.c **** *
 254:Generated_Source\PSoC6\pdl\drivers\peripheral\sysclk/cy_sysclk.c **** *******************************************************************************/
ARM GAS  C:\Users\kiwamu\AppData\Local\Temp\ccIx7zyv.s 			page 16


 255:Generated_Source\PSoC6\pdl\drivers\peripheral\sysclk/cy_sysclk.c **** cy_en_clkpath_in_sources_t Cy_SysClk_ClkPathGetSource(uint32_t clkPath)
 256:Generated_Source\PSoC6\pdl\drivers\peripheral\sysclk/cy_sysclk.c **** {
 588              		.loc 1 256 0
 589              		.cfi_startproc
 590              		@ args = 0, pretend = 0, frame = 0
 591              		@ frame_needed = 0, uses_anonymous_args = 0
 592              	.LVL96:
 593 0000 10B5     		push	{r4, lr}
 594              		.cfi_def_cfa_offset 8
 595              		.cfi_offset 4, -8
 596              		.cfi_offset 14, -4
 597 0002 0400     		movs	r4, r0
 257:Generated_Source\PSoC6\pdl\drivers\peripheral\sysclk/cy_sysclk.c ****     CY_ASSERT_L1(clkPath < SRSS_NUM_CLKPATH);
 598              		.loc 1 257 0
 599 0004 0428     		cmp	r0, #4
 600 0006 04D9     		bls	.L52
 601              		.loc 1 257 0 is_stmt 0 discriminator 1
 602 0008 0221     		movs	r1, #2
 603 000a FF31     		adds	r1, r1, #255
 604 000c 0A48     		ldr	r0, .L54
 605              	.LVL97:
 606 000e FFF7FEFF 		bl	Cy_SysLib_AssertFailed
 607              	.LVL98:
 608              	.L52:
 258:Generated_Source\PSoC6\pdl\drivers\peripheral\sysclk/cy_sysclk.c ****     cy_en_clkpath_in_sources_t rtnval =
 259:Generated_Source\PSoC6\pdl\drivers\peripheral\sysclk/cy_sysclk.c ****         (cy_en_clkpath_in_sources_t )_FLD2VAL(SRSS_CLK_PATH_SELECT_PATH_MUX, SRSS->CLK_PATH_SELECT[
 609              		.loc 1 259 0 is_stmt 1
 610 0012 2300     		movs	r3, r4
 611 0014 D033     		adds	r3, r3, #208
 612 0016 9B00     		lsls	r3, r3, #2
 613 0018 084A     		ldr	r2, .L54+4
 614 001a 9858     		ldr	r0, [r3, r2]
 258:Generated_Source\PSoC6\pdl\drivers\peripheral\sysclk/cy_sysclk.c ****     cy_en_clkpath_in_sources_t rtnval =
 615              		.loc 1 258 0
 616 001c 0723     		movs	r3, #7
 617 001e 1840     		ands	r0, r3
 618              	.LVL99:
 260:Generated_Source\PSoC6\pdl\drivers\peripheral\sysclk/cy_sysclk.c ****     if (rtnval == CY_SYSCLK_CLKPATH_IN_DSIMUX)
 619              		.loc 1 260 0
 620 0020 0428     		cmp	r0, #4
 621 0022 07D1     		bne	.L53
 261:Generated_Source\PSoC6\pdl\drivers\peripheral\sysclk/cy_sysclk.c ****     {
 262:Generated_Source\PSoC6\pdl\drivers\peripheral\sysclk/cy_sysclk.c ****         rtnval = (cy_en_clkpath_in_sources_t)(CY_SYSCLK_CLKPATH_IN_DSI |
 263:Generated_Source\PSoC6\pdl\drivers\peripheral\sysclk/cy_sysclk.c ****                     (_FLD2VAL(SRSS_CLK_DSI_SELECT_DSI_MUX, SRSS->CLK_DSI_SELECT[clkPath])));
 622              		.loc 1 263 0
 623 0024 C034     		adds	r4, r4, #192
 624              	.LVL100:
 625 0026 A400     		lsls	r4, r4, #2
 626              	.LVL101:
 627 0028 A358     		ldr	r3, [r4, r2]
 262:Generated_Source\PSoC6\pdl\drivers\peripheral\sysclk/cy_sysclk.c ****                     (_FLD2VAL(SRSS_CLK_DSI_SELECT_DSI_MUX, SRSS->CLK_DSI_SELECT[clkPath])));
 628              		.loc 1 262 0
 629 002a 1B30     		adds	r0, r0, #27
 630              	.LVL102:
 631 002c 1840     		ands	r0, r3
 632              	.LVL103:
 633 002e 8023     		movs	r3, #128
ARM GAS  C:\Users\kiwamu\AppData\Local\Temp\ccIx7zyv.s 			page 17


 634 0030 5B00     		lsls	r3, r3, #1
 635 0032 1843     		orrs	r0, r3
 636              	.LVL104:
 637              	.L53:
 264:Generated_Source\PSoC6\pdl\drivers\peripheral\sysclk/cy_sysclk.c ****     }
 265:Generated_Source\PSoC6\pdl\drivers\peripheral\sysclk/cy_sysclk.c ****     return rtnval;
 266:Generated_Source\PSoC6\pdl\drivers\peripheral\sysclk/cy_sysclk.c **** }
 638              		.loc 1 266 0
 639              		@ sp needed
 640 0034 10BD     		pop	{r4, pc}
 641              	.L55:
 642 0036 C046     		.align	2
 643              	.L54:
 644 0038 00000000 		.word	.LC3
 645 003c 00002640 		.word	1076232192
 646              		.cfi_endproc
 647              	.LFE142:
 648              		.size	Cy_SysClk_ClkPathGetSource, .-Cy_SysClk_ClkPathGetSource
 649              		.section	.text.Cy_SysClk_FllManualConfigure,"ax",%progbits
 650              		.align	2
 651              		.global	Cy_SysClk_FllManualConfigure
 652              		.code	16
 653              		.thumb_func
 654              		.type	Cy_SysClk_FllManualConfigure, %function
 655              	Cy_SysClk_FllManualConfigure:
 656              	.LFB144:
 267:Generated_Source\PSoC6\pdl\drivers\peripheral\sysclk/cy_sysclk.c **** /** \} group_sysclk_path_src_funcs */
 268:Generated_Source\PSoC6\pdl\drivers\peripheral\sysclk/cy_sysclk.c **** 
 269:Generated_Source\PSoC6\pdl\drivers\peripheral\sysclk/cy_sysclk.c **** 
 270:Generated_Source\PSoC6\pdl\drivers\peripheral\sysclk/cy_sysclk.c **** /* ========================================================================== */
 271:Generated_Source\PSoC6\pdl\drivers\peripheral\sysclk/cy_sysclk.c **** /* ===========================    FLL SECTION    ============================ */
 272:Generated_Source\PSoC6\pdl\drivers\peripheral\sysclk/cy_sysclk.c **** /* ========================================================================== */
 273:Generated_Source\PSoC6\pdl\drivers\peripheral\sysclk/cy_sysclk.c **** /* min and max FLL output frequencies, in Hz */
 274:Generated_Source\PSoC6\pdl\drivers\peripheral\sysclk/cy_sysclk.c **** #define  CY_SYSCLK_MIN_FLL_CCO_OUTPUT_FREQ  48000000ul
 275:Generated_Source\PSoC6\pdl\drivers\peripheral\sysclk/cy_sysclk.c **** #define  CY_SYSCLK_MIN_FLL_OUTPUT_FREQ     (CY_SYSCLK_MIN_FLL_CCO_OUTPUT_FREQ / 2u)
 276:Generated_Source\PSoC6\pdl\drivers\peripheral\sysclk/cy_sysclk.c **** #define  CY_SYSCLK_MAX_FLL_OUTPUT_FREQ     100000000ul
 277:Generated_Source\PSoC6\pdl\drivers\peripheral\sysclk/cy_sysclk.c **** 
 278:Generated_Source\PSoC6\pdl\drivers\peripheral\sysclk/cy_sysclk.c **** /**
 279:Generated_Source\PSoC6\pdl\drivers\peripheral\sysclk/cy_sysclk.c **** * \addtogroup group_sysclk_fll_funcs
 280:Generated_Source\PSoC6\pdl\drivers\peripheral\sysclk/cy_sysclk.c **** * \{
 281:Generated_Source\PSoC6\pdl\drivers\peripheral\sysclk/cy_sysclk.c **** */
 282:Generated_Source\PSoC6\pdl\drivers\peripheral\sysclk/cy_sysclk.c **** /*******************************************************************************
 283:Generated_Source\PSoC6\pdl\drivers\peripheral\sysclk/cy_sysclk.c **** * Function Name: Cy_SysClk_FllConfigure
 284:Generated_Source\PSoC6\pdl\drivers\peripheral\sysclk/cy_sysclk.c **** ****************************************************************************//**
 285:Generated_Source\PSoC6\pdl\drivers\peripheral\sysclk/cy_sysclk.c **** *
 286:Generated_Source\PSoC6\pdl\drivers\peripheral\sysclk/cy_sysclk.c **** * Configures the FLL, for best accuracy optimization.
 287:Generated_Source\PSoC6\pdl\drivers\peripheral\sysclk/cy_sysclk.c **** *
 288:Generated_Source\PSoC6\pdl\drivers\peripheral\sysclk/cy_sysclk.c **** * \param inputFreq frequency of input source, in Hz
 289:Generated_Source\PSoC6\pdl\drivers\peripheral\sysclk/cy_sysclk.c **** *
 290:Generated_Source\PSoC6\pdl\drivers\peripheral\sysclk/cy_sysclk.c **** * \param outputFreq Desired FLL output frequency, in Hz. Allowable range is
 291:Generated_Source\PSoC6\pdl\drivers\peripheral\sysclk/cy_sysclk.c **** * 24 MHz to 100 MHz. In all cases, FLL_OUTPUT_DIV must be set; the output divide
 292:Generated_Source\PSoC6\pdl\drivers\peripheral\sysclk/cy_sysclk.c **** * by 2 option is required.
 293:Generated_Source\PSoC6\pdl\drivers\peripheral\sysclk/cy_sysclk.c **** *
 294:Generated_Source\PSoC6\pdl\drivers\peripheral\sysclk/cy_sysclk.c **** * \param outputMode \ref cy_en_fll_pll_output_mode_t
 295:Generated_Source\PSoC6\pdl\drivers\peripheral\sysclk/cy_sysclk.c **** * If output mode is bypass, then the output frequency equals the input source
 296:Generated_Source\PSoC6\pdl\drivers\peripheral\sysclk/cy_sysclk.c **** * frequency regardless of the frequency parameter values.
 297:Generated_Source\PSoC6\pdl\drivers\peripheral\sysclk/cy_sysclk.c **** *
ARM GAS  C:\Users\kiwamu\AppData\Local\Temp\ccIx7zyv.s 			page 18


 298:Generated_Source\PSoC6\pdl\drivers\peripheral\sysclk/cy_sysclk.c **** * \return  Error / status code:<br>
 299:Generated_Source\PSoC6\pdl\drivers\peripheral\sysclk/cy_sysclk.c **** * CY_SYSCLK_SUCCESS - FLL successfully configured<br>
 300:Generated_Source\PSoC6\pdl\drivers\peripheral\sysclk/cy_sysclk.c **** * CY_SYSCLK_INVALID_STATE - FLL not configured because it is enabled<br>
 301:Generated_Source\PSoC6\pdl\drivers\peripheral\sysclk/cy_sysclk.c **** * CY_SYSCLK_BAD_PARAM - desired output frequency is out of valid range
 302:Generated_Source\PSoC6\pdl\drivers\peripheral\sysclk/cy_sysclk.c **** *
 303:Generated_Source\PSoC6\pdl\drivers\peripheral\sysclk/cy_sysclk.c **** * \note
 304:Generated_Source\PSoC6\pdl\drivers\peripheral\sysclk/cy_sysclk.c **** * Call this function after changing the FLL input frequency, for example if
 305:Generated_Source\PSoC6\pdl\drivers\peripheral\sysclk/cy_sysclk.c **** * \ref Cy_SysClk_ClkPathSetSource() is called.
 306:Generated_Source\PSoC6\pdl\drivers\peripheral\sysclk/cy_sysclk.c **** * \note
 307:Generated_Source\PSoC6\pdl\drivers\peripheral\sysclk/cy_sysclk.c **** * Do not call this function when the FLL is enabled. If it is, then this function
 308:Generated_Source\PSoC6\pdl\drivers\peripheral\sysclk/cy_sysclk.c **** * returns immediately with an error return value and no register updates.
 309:Generated_Source\PSoC6\pdl\drivers\peripheral\sysclk/cy_sysclk.c **** *******************************************************************************/
 310:Generated_Source\PSoC6\pdl\drivers\peripheral\sysclk/cy_sysclk.c **** cy_en_sysclk_status_t Cy_SysClk_FllConfigure(uint32_t inputFreq, uint32_t outputFreq, cy_en_fll_pll
 311:Generated_Source\PSoC6\pdl\drivers\peripheral\sysclk/cy_sysclk.c **** {
 312:Generated_Source\PSoC6\pdl\drivers\peripheral\sysclk/cy_sysclk.c ****     cy_en_sysclk_status_t returnStatus = CY_SYSCLK_SUCCESS;
 313:Generated_Source\PSoC6\pdl\drivers\peripheral\sysclk/cy_sysclk.c **** 
 314:Generated_Source\PSoC6\pdl\drivers\peripheral\sysclk/cy_sysclk.c ****     /* check for errors */
 315:Generated_Source\PSoC6\pdl\drivers\peripheral\sysclk/cy_sysclk.c ****     if (_FLD2VAL(SRSS_CLK_FLL_CONFIG_FLL_ENABLE, SRSS->CLK_FLL_CONFIG) != 0u) /* 1 = enabled */
 316:Generated_Source\PSoC6\pdl\drivers\peripheral\sysclk/cy_sysclk.c ****     {
 317:Generated_Source\PSoC6\pdl\drivers\peripheral\sysclk/cy_sysclk.c ****         returnStatus = CY_SYSCLK_INVALID_STATE;
 318:Generated_Source\PSoC6\pdl\drivers\peripheral\sysclk/cy_sysclk.c ****     }
 319:Generated_Source\PSoC6\pdl\drivers\peripheral\sysclk/cy_sysclk.c ****     else if ((outputFreq < CY_SYSCLK_MIN_FLL_OUTPUT_FREQ) || (CY_SYSCLK_MAX_FLL_OUTPUT_FREQ < outpu
 320:Generated_Source\PSoC6\pdl\drivers\peripheral\sysclk/cy_sysclk.c ****     {
 321:Generated_Source\PSoC6\pdl\drivers\peripheral\sysclk/cy_sysclk.c ****         returnStatus = CY_SYSCLK_BAD_PARAM;
 322:Generated_Source\PSoC6\pdl\drivers\peripheral\sysclk/cy_sysclk.c ****     }
 323:Generated_Source\PSoC6\pdl\drivers\peripheral\sysclk/cy_sysclk.c ****     else if (((float32_t)outputFreq / (float32_t)inputFreq) < 2.2f) /* check output/input frequency
 324:Generated_Source\PSoC6\pdl\drivers\peripheral\sysclk/cy_sysclk.c ****     {
 325:Generated_Source\PSoC6\pdl\drivers\peripheral\sysclk/cy_sysclk.c ****         returnStatus = CY_SYSCLK_BAD_PARAM;
 326:Generated_Source\PSoC6\pdl\drivers\peripheral\sysclk/cy_sysclk.c ****     }
 327:Generated_Source\PSoC6\pdl\drivers\peripheral\sysclk/cy_sysclk.c ****     else
 328:Generated_Source\PSoC6\pdl\drivers\peripheral\sysclk/cy_sysclk.c ****     { /* return status is OK */
 329:Generated_Source\PSoC6\pdl\drivers\peripheral\sysclk/cy_sysclk.c ****     }
 330:Generated_Source\PSoC6\pdl\drivers\peripheral\sysclk/cy_sysclk.c **** 
 331:Generated_Source\PSoC6\pdl\drivers\peripheral\sysclk/cy_sysclk.c ****     /* no error */
 332:Generated_Source\PSoC6\pdl\drivers\peripheral\sysclk/cy_sysclk.c ****     if (returnStatus == CY_SYSCLK_SUCCESS) /* no errors */
 333:Generated_Source\PSoC6\pdl\drivers\peripheral\sysclk/cy_sysclk.c ****     {
 334:Generated_Source\PSoC6\pdl\drivers\peripheral\sysclk/cy_sysclk.c ****         /* If output mode is bypass (input routed directly to output), then done.
 335:Generated_Source\PSoC6\pdl\drivers\peripheral\sysclk/cy_sysclk.c ****            The output frequency equals the input frequency regardless of the
 336:Generated_Source\PSoC6\pdl\drivers\peripheral\sysclk/cy_sysclk.c ****            frequency parameters. */
 337:Generated_Source\PSoC6\pdl\drivers\peripheral\sysclk/cy_sysclk.c ****         if (outputMode != CY_SYSCLK_FLLPLL_OUTPUT_INPUT)
 338:Generated_Source\PSoC6\pdl\drivers\peripheral\sysclk/cy_sysclk.c ****         {
 339:Generated_Source\PSoC6\pdl\drivers\peripheral\sysclk/cy_sysclk.c ****             cy_stc_fll_manual_config_t config;
 340:Generated_Source\PSoC6\pdl\drivers\peripheral\sysclk/cy_sysclk.c ****             uint32_t ccoFreq;
 341:Generated_Source\PSoC6\pdl\drivers\peripheral\sysclk/cy_sysclk.c ****             bool wcoSource = ((Cy_SysClk_ClkPathGetSource(0ul/*FLL*/) == CY_SYSCLK_CLKPATH_IN_WCO) 
 342:Generated_Source\PSoC6\pdl\drivers\peripheral\sysclk/cy_sysclk.c **** 
 343:Generated_Source\PSoC6\pdl\drivers\peripheral\sysclk/cy_sysclk.c ****             config.outputMode = outputMode;
 344:Generated_Source\PSoC6\pdl\drivers\peripheral\sysclk/cy_sysclk.c ****             /* 1. Output division by 2 is always required. */
 345:Generated_Source\PSoC6\pdl\drivers\peripheral\sysclk/cy_sysclk.c ****             config.enableOutputDiv = (bool)(1ul);
 346:Generated_Source\PSoC6\pdl\drivers\peripheral\sysclk/cy_sysclk.c ****             /* 2. Compute the target CCO frequency from the target output frequency and output divi
 347:Generated_Source\PSoC6\pdl\drivers\peripheral\sysclk/cy_sysclk.c ****             ccoFreq = outputFreq * ((uint32_t)(config.enableOutputDiv) + 1ul);
 348:Generated_Source\PSoC6\pdl\drivers\peripheral\sysclk/cy_sysclk.c ****             /* 3. Compute the CCO range value from the CCO frequency */
 349:Generated_Source\PSoC6\pdl\drivers\peripheral\sysclk/cy_sysclk.c ****             config.ccoRange = ((ccoFreq >= 150339200ul) ? CY_SYSCLK_FLL_CCO_RANGE4 :
 350:Generated_Source\PSoC6\pdl\drivers\peripheral\sysclk/cy_sysclk.c ****                                ((ccoFreq >= 113009380ul) ? CY_SYSCLK_FLL_CCO_RANGE3 :
 351:Generated_Source\PSoC6\pdl\drivers\peripheral\sysclk/cy_sysclk.c ****                                 ((ccoFreq >=  84948700ul) ? CY_SYSCLK_FLL_CCO_RANGE2 :
 352:Generated_Source\PSoC6\pdl\drivers\peripheral\sysclk/cy_sysclk.c ****                                  ((ccoFreq >=  63855600ul) ? CY_SYSCLK_FLL_CCO_RANGE1 : CY_SYSCLK_F
 353:Generated_Source\PSoC6\pdl\drivers\peripheral\sysclk/cy_sysclk.c ****             {
 354:Generated_Source\PSoC6\pdl\drivers\peripheral\sysclk/cy_sysclk.c ****                 /* constants indexed by ccoRange */
ARM GAS  C:\Users\kiwamu\AppData\Local\Temp\ccIx7zyv.s 			page 19


 355:Generated_Source\PSoC6\pdl\drivers\peripheral\sysclk/cy_sysclk.c ****                 const float32_t trimSteps[] = {0.0011034f, 0.001102f, 0.0011f, 0.0011f, 0.00117062f
 356:Generated_Source\PSoC6\pdl\drivers\peripheral\sysclk/cy_sysclk.c ****                 const float32_t fMargin[] = {43600000.0f, 58100000.0f, 77200000.0f, 103000000.0f, 1
 357:Generated_Source\PSoC6\pdl\drivers\peripheral\sysclk/cy_sysclk.c **** 
 358:Generated_Source\PSoC6\pdl\drivers\peripheral\sysclk/cy_sysclk.c ****             /* 4. Compute the FLL reference divider value.
 359:Generated_Source\PSoC6\pdl\drivers\peripheral\sysclk/cy_sysclk.c ****                   refDiv is a constant if the WCO is the FLL source, otherwise the formula is
 360:Generated_Source\PSoC6\pdl\drivers\peripheral\sysclk/cy_sysclk.c ****                   refDiv = ROUNDUP((1 / (trimStep[ccoRange] / 2)) * (inputFreq / ccoFreq)) */
 361:Generated_Source\PSoC6\pdl\drivers\peripheral\sysclk/cy_sysclk.c ****                 config.refDiv = wcoSource ? 19u : ((uint16_t)ceilf((float32_t)inputFreq /
 362:Generated_Source\PSoC6\pdl\drivers\peripheral\sysclk/cy_sysclk.c ****                                                       ((trimSteps[config.ccoRange] / 2.0f) * (float
 363:Generated_Source\PSoC6\pdl\drivers\peripheral\sysclk/cy_sysclk.c ****             /* 5. Compute the FLL multiplier value.
 364:Generated_Source\PSoC6\pdl\drivers\peripheral\sysclk/cy_sysclk.c ****                   Formula is fllMult = ccoFreq / (inputFreq / refDiv) */
 365:Generated_Source\PSoC6\pdl\drivers\peripheral\sysclk/cy_sysclk.c ****                 config.fllMult = CY_SYSCLK_DIV_ROUNDUP(ccoFreq, CY_SYSCLK_DIV_ROUND(inputFreq, conf
 366:Generated_Source\PSoC6\pdl\drivers\peripheral\sysclk/cy_sysclk.c ****             /* 6. Compute the lock tolerance.
 367:Generated_Source\PSoC6\pdl\drivers\peripheral\sysclk/cy_sysclk.c ****                   Formula is lock tolerance = 1.5 * fllMult * (((1 + CCO accuracy) / (1 - source cl
 368:Generated_Source\PSoC6\pdl\drivers\peripheral\sysclk/cy_sysclk.c ****                   We assume CCO accuracy is 0.25%.
 369:Generated_Source\PSoC6\pdl\drivers\peripheral\sysclk/cy_sysclk.c ****                   We assume the source clock accuracy = 1%. This is the accuracy of the IMO.
 370:Generated_Source\PSoC6\pdl\drivers\peripheral\sysclk/cy_sysclk.c ****                   Therefore the formula is lock tolerance = 1.5 * fllMult * 0.012626 = 0.018939 * f
 371:Generated_Source\PSoC6\pdl\drivers\peripheral\sysclk/cy_sysclk.c ****                 config.lockTolerance = (uint16_t)ceilf((float32_t)(config.fllMult) * 0.018939f);
 372:Generated_Source\PSoC6\pdl\drivers\peripheral\sysclk/cy_sysclk.c ****             /* 7. Compute the CCO igain and pgain. */
 373:Generated_Source\PSoC6\pdl\drivers\peripheral\sysclk/cy_sysclk.c ****                 {
 374:Generated_Source\PSoC6\pdl\drivers\peripheral\sysclk/cy_sysclk.c ****                     /* intermediate parameters */
 375:Generated_Source\PSoC6\pdl\drivers\peripheral\sysclk/cy_sysclk.c ****                     float32_t kcco = (trimSteps[config.ccoRange] * fMargin[config.ccoRange]) / 1000
 376:Generated_Source\PSoC6\pdl\drivers\peripheral\sysclk/cy_sysclk.c ****                     float32_t ki_p = (0.85f / (kcco * ((float32_t)(config.refDiv) / (float32_t)inpu
 377:Generated_Source\PSoC6\pdl\drivers\peripheral\sysclk/cy_sysclk.c **** 
 378:Generated_Source\PSoC6\pdl\drivers\peripheral\sysclk/cy_sysclk.c ****                     /* igain and pgain bitfield values correspond to: 1/256, 1/128, ..., 4, 8 */
 379:Generated_Source\PSoC6\pdl\drivers\peripheral\sysclk/cy_sysclk.c ****                     const float32_t gains[] = {0.00390625f, 0.0078125f, 0.015625f, 0.03125f, 0.0625
 380:Generated_Source\PSoC6\pdl\drivers\peripheral\sysclk/cy_sysclk.c ****                                                0.5f, 1.0f, 2.0f, 4.0f, 8.0f};
 381:Generated_Source\PSoC6\pdl\drivers\peripheral\sysclk/cy_sysclk.c **** 
 382:Generated_Source\PSoC6\pdl\drivers\peripheral\sysclk/cy_sysclk.c ****                     /* find the largest IGAIN value that is less than or equal to ki_p */
 383:Generated_Source\PSoC6\pdl\drivers\peripheral\sysclk/cy_sysclk.c ****                     for(config.igain = CY_SYSCLK_N_ELMTS(gains) - 1ul;
 384:Generated_Source\PSoC6\pdl\drivers\peripheral\sysclk/cy_sysclk.c ****                         (gains[config.igain] > ki_p) && (config.igain != 0ul); config.igain--){}
 385:Generated_Source\PSoC6\pdl\drivers\peripheral\sysclk/cy_sysclk.c ****                     /* decrement igain if the WCO is the FLL source */
 386:Generated_Source\PSoC6\pdl\drivers\peripheral\sysclk/cy_sysclk.c ****                     if (wcoSource && (config.igain > 0u))
 387:Generated_Source\PSoC6\pdl\drivers\peripheral\sysclk/cy_sysclk.c ****                     {
 388:Generated_Source\PSoC6\pdl\drivers\peripheral\sysclk/cy_sysclk.c ****                         config.igain--;
 389:Generated_Source\PSoC6\pdl\drivers\peripheral\sysclk/cy_sysclk.c ****                     }
 390:Generated_Source\PSoC6\pdl\drivers\peripheral\sysclk/cy_sysclk.c ****                     /* then find the largest PGAIN value that is less than or equal to ki_p - gains
 391:Generated_Source\PSoC6\pdl\drivers\peripheral\sysclk/cy_sysclk.c ****                     for(config.pgain = CY_SYSCLK_N_ELMTS(gains) - 1ul;
 392:Generated_Source\PSoC6\pdl\drivers\peripheral\sysclk/cy_sysclk.c ****                         (gains[config.pgain] > (ki_p - gains[config.igain])) && (config.pgain != 0u
 393:Generated_Source\PSoC6\pdl\drivers\peripheral\sysclk/cy_sysclk.c ****                         config.pgain--){}
 394:Generated_Source\PSoC6\pdl\drivers\peripheral\sysclk/cy_sysclk.c ****                     /* decrement pgain if the WCO is the FLL source */
 395:Generated_Source\PSoC6\pdl\drivers\peripheral\sysclk/cy_sysclk.c ****                     if (wcoSource && (config.pgain > 0u))
 396:Generated_Source\PSoC6\pdl\drivers\peripheral\sysclk/cy_sysclk.c ****                     {
 397:Generated_Source\PSoC6\pdl\drivers\peripheral\sysclk/cy_sysclk.c ****                         config.pgain--;
 398:Generated_Source\PSoC6\pdl\drivers\peripheral\sysclk/cy_sysclk.c ****                     }
 399:Generated_Source\PSoC6\pdl\drivers\peripheral\sysclk/cy_sysclk.c ****                 }
 400:Generated_Source\PSoC6\pdl\drivers\peripheral\sysclk/cy_sysclk.c ****             /* 8. Compute the CCO_FREQ bits in CLK_FLL_CONFIG4 register. */
 401:Generated_Source\PSoC6\pdl\drivers\peripheral\sysclk/cy_sysclk.c ****                 config.cco_Freq = (uint16_t)
 402:Generated_Source\PSoC6\pdl\drivers\peripheral\sysclk/cy_sysclk.c ****                     (floor(log((float32_t)ccoFreq / fMargin[config.ccoRange]) /
 403:Generated_Source\PSoC6\pdl\drivers\peripheral\sysclk/cy_sysclk.c ****                            log(1.0f + trimSteps[config.ccoRange])));
 404:Generated_Source\PSoC6\pdl\drivers\peripheral\sysclk/cy_sysclk.c ****             }
 405:Generated_Source\PSoC6\pdl\drivers\peripheral\sysclk/cy_sysclk.c ****             /* 9. Compute the settling count, using a 1-usec settling time.
 406:Generated_Source\PSoC6\pdl\drivers\peripheral\sysclk/cy_sysclk.c ****                   Use a constant if the WCO is the FLL source. */
 407:Generated_Source\PSoC6\pdl\drivers\peripheral\sysclk/cy_sysclk.c ****             {
 408:Generated_Source\PSoC6\pdl\drivers\peripheral\sysclk/cy_sysclk.c ****                 float32_t ttref   = (float32_t)config.refDiv / ((float32_t)inputFreq / 1000.0f);
 409:Generated_Source\PSoC6\pdl\drivers\peripheral\sysclk/cy_sysclk.c ****                 float32_t testval = 6000.0f / (float32_t)outputFreq;
 410:Generated_Source\PSoC6\pdl\drivers\peripheral\sysclk/cy_sysclk.c ****                 float32_t divval  = ceil((float32_t)inputFreq * 0.000001f);
 411:Generated_Source\PSoC6\pdl\drivers\peripheral\sysclk/cy_sysclk.c ****                 float32_t altval  = ceil((divval / ttref) + 1.0f);
ARM GAS  C:\Users\kiwamu\AppData\Local\Temp\ccIx7zyv.s 			page 20


 412:Generated_Source\PSoC6\pdl\drivers\peripheral\sysclk/cy_sysclk.c ****                 config.settlingCount = (uint16)(wcoSource ? 200u : 
 413:Generated_Source\PSoC6\pdl\drivers\peripheral\sysclk/cy_sysclk.c ****                                                 ((ttref > testval) ? divval :
 414:Generated_Source\PSoC6\pdl\drivers\peripheral\sysclk/cy_sysclk.c ****                                                  ((divval > altval) ? divval : altval)));
 415:Generated_Source\PSoC6\pdl\drivers\peripheral\sysclk/cy_sysclk.c ****             }
 416:Generated_Source\PSoC6\pdl\drivers\peripheral\sysclk/cy_sysclk.c ****             /* configure FLL based on calculated values */
 417:Generated_Source\PSoC6\pdl\drivers\peripheral\sysclk/cy_sysclk.c ****             returnStatus = Cy_SysClk_FllManualConfigure(&config);
 418:Generated_Source\PSoC6\pdl\drivers\peripheral\sysclk/cy_sysclk.c ****         } /* if not bypass output mode */
 419:Generated_Source\PSoC6\pdl\drivers\peripheral\sysclk/cy_sysclk.c **** 
 420:Generated_Source\PSoC6\pdl\drivers\peripheral\sysclk/cy_sysclk.c ****         else
 421:Generated_Source\PSoC6\pdl\drivers\peripheral\sysclk/cy_sysclk.c ****         { /* bypass mode */
 422:Generated_Source\PSoC6\pdl\drivers\peripheral\sysclk/cy_sysclk.c ****             /* update CLK_FLL_CONFIG3 register with divide by 2 parameter */
 423:Generated_Source\PSoC6\pdl\drivers\peripheral\sysclk/cy_sysclk.c ****             CY_SYSCLK_CLR_SET(SRSS->CLK_FLL_CONFIG3, SRSS_CLK_FLL_CONFIG3_BYPASS_SEL, (uint32_t)out
 424:Generated_Source\PSoC6\pdl\drivers\peripheral\sysclk/cy_sysclk.c ****         }
 425:Generated_Source\PSoC6\pdl\drivers\peripheral\sysclk/cy_sysclk.c ****     } /* if no error */
 426:Generated_Source\PSoC6\pdl\drivers\peripheral\sysclk/cy_sysclk.c **** 
 427:Generated_Source\PSoC6\pdl\drivers\peripheral\sysclk/cy_sysclk.c ****     return (returnStatus);
 428:Generated_Source\PSoC6\pdl\drivers\peripheral\sysclk/cy_sysclk.c **** }
 429:Generated_Source\PSoC6\pdl\drivers\peripheral\sysclk/cy_sysclk.c **** 
 430:Generated_Source\PSoC6\pdl\drivers\peripheral\sysclk/cy_sysclk.c **** /*******************************************************************************
 431:Generated_Source\PSoC6\pdl\drivers\peripheral\sysclk/cy_sysclk.c **** * Function Name: Cy_SysClk_FllManualConfigure
 432:Generated_Source\PSoC6\pdl\drivers\peripheral\sysclk/cy_sysclk.c **** ****************************************************************************//**
 433:Generated_Source\PSoC6\pdl\drivers\peripheral\sysclk/cy_sysclk.c **** *
 434:Generated_Source\PSoC6\pdl\drivers\peripheral\sysclk/cy_sysclk.c **** * Manually configures the FLL based on user inputs.
 435:Generated_Source\PSoC6\pdl\drivers\peripheral\sysclk/cy_sysclk.c **** *
 436:Generated_Source\PSoC6\pdl\drivers\peripheral\sysclk/cy_sysclk.c **** * \param config \ref cy_stc_fll_manual_config_t
 437:Generated_Source\PSoC6\pdl\drivers\peripheral\sysclk/cy_sysclk.c **** *
 438:Generated_Source\PSoC6\pdl\drivers\peripheral\sysclk/cy_sysclk.c **** * \return  Error / status code:<br>
 439:Generated_Source\PSoC6\pdl\drivers\peripheral\sysclk/cy_sysclk.c **** * CY_SYSCLK_SUCCESS - FLL successfully configured<br>
 440:Generated_Source\PSoC6\pdl\drivers\peripheral\sysclk/cy_sysclk.c **** * CY_SYSCLK_INVALID_STATE - FLL not configured because it is enabled
 441:Generated_Source\PSoC6\pdl\drivers\peripheral\sysclk/cy_sysclk.c **** *
 442:Generated_Source\PSoC6\pdl\drivers\peripheral\sysclk/cy_sysclk.c **** * \note
 443:Generated_Source\PSoC6\pdl\drivers\peripheral\sysclk/cy_sysclk.c **** * Call this function after changing the FLL input frequency, for example if
 444:Generated_Source\PSoC6\pdl\drivers\peripheral\sysclk/cy_sysclk.c **** * \ref Cy_SysClk_ClkPathSetSource() is called.
 445:Generated_Source\PSoC6\pdl\drivers\peripheral\sysclk/cy_sysclk.c **** * \note
 446:Generated_Source\PSoC6\pdl\drivers\peripheral\sysclk/cy_sysclk.c **** * Do not call this function when the FLL is enabled. If it is, then this function
 447:Generated_Source\PSoC6\pdl\drivers\peripheral\sysclk/cy_sysclk.c **** * returns immediately with an error return value and no register updates.
 448:Generated_Source\PSoC6\pdl\drivers\peripheral\sysclk/cy_sysclk.c **** *******************************************************************************/
 449:Generated_Source\PSoC6\pdl\drivers\peripheral\sysclk/cy_sysclk.c **** cy_en_sysclk_status_t Cy_SysClk_FllManualConfigure(const cy_stc_fll_manual_config_t *config)
 450:Generated_Source\PSoC6\pdl\drivers\peripheral\sysclk/cy_sysclk.c **** {
 657              		.loc 1 450 0
 658              		.cfi_startproc
 659              		@ args = 0, pretend = 0, frame = 0
 660              		@ frame_needed = 0, uses_anonymous_args = 0
 661              	.LVL105:
 662 0000 70B5     		push	{r4, r5, r6, lr}
 663              		.cfi_def_cfa_offset 16
 664              		.cfi_offset 4, -16
 665              		.cfi_offset 5, -12
 666              		.cfi_offset 6, -8
 667              		.cfi_offset 14, -4
 668 0002 041E     		subs	r4, r0, #0
 669              	.LVL106:
 451:Generated_Source\PSoC6\pdl\drivers\peripheral\sysclk/cy_sysclk.c ****     cy_en_sysclk_status_t returnStatus = CY_SYSCLK_SUCCESS;
 452:Generated_Source\PSoC6\pdl\drivers\peripheral\sysclk/cy_sysclk.c **** 
 453:Generated_Source\PSoC6\pdl\drivers\peripheral\sysclk/cy_sysclk.c ****     CY_ASSERT_L1(config != NULL);
 670              		.loc 1 453 0
 671 0004 04D1     		bne	.L57
ARM GAS  C:\Users\kiwamu\AppData\Local\Temp\ccIx7zyv.s 			page 21


 672              		.loc 1 453 0 is_stmt 0 discriminator 1
 673 0006 C621     		movs	r1, #198
 674 0008 FF31     		adds	r1, r1, #255
 675 000a 4D48     		ldr	r0, .L69
 676              	.LVL107:
 677 000c FFF7FEFF 		bl	Cy_SysLib_AssertFailed
 678              	.LVL108:
 679              	.L57:
 454:Generated_Source\PSoC6\pdl\drivers\peripheral\sysclk/cy_sysclk.c ****     /* check for errors */
 455:Generated_Source\PSoC6\pdl\drivers\peripheral\sysclk/cy_sysclk.c ****     if (_FLD2VAL(SRSS_CLK_FLL_CONFIG_FLL_ENABLE, SRSS->CLK_FLL_CONFIG) != 0u) /* 1 = enabled */
 680              		.loc 1 455 0 is_stmt 1
 681 0010 B023     		movs	r3, #176
 682 0012 DB00     		lsls	r3, r3, #3
 683 0014 4B4A     		ldr	r2, .L69+4
 684 0016 D358     		ldr	r3, [r2, r3]
 685 0018 002B     		cmp	r3, #0
 686 001a 01DB     		blt	.L68
 451:Generated_Source\PSoC6\pdl\drivers\peripheral\sysclk/cy_sysclk.c ****     cy_en_sysclk_status_t returnStatus = CY_SYSCLK_SUCCESS;
 687              		.loc 1 451 0
 688 001c 0025     		movs	r5, #0
 689 001e 00E0     		b	.L58
 690              	.L68:
 456:Generated_Source\PSoC6\pdl\drivers\peripheral\sysclk/cy_sysclk.c ****     {
 457:Generated_Source\PSoC6\pdl\drivers\peripheral\sysclk/cy_sysclk.c ****         returnStatus = CY_SYSCLK_INVALID_STATE;
 691              		.loc 1 457 0
 692 0020 494D     		ldr	r5, .L69+8
 693              	.L58:
 694              	.LVL109:
 458:Generated_Source\PSoC6\pdl\drivers\peripheral\sysclk/cy_sysclk.c ****     }
 459:Generated_Source\PSoC6\pdl\drivers\peripheral\sysclk/cy_sysclk.c ****     else
 460:Generated_Source\PSoC6\pdl\drivers\peripheral\sysclk/cy_sysclk.c ****     { /* return status is OK */
 461:Generated_Source\PSoC6\pdl\drivers\peripheral\sysclk/cy_sysclk.c ****     }
 462:Generated_Source\PSoC6\pdl\drivers\peripheral\sysclk/cy_sysclk.c **** 
 463:Generated_Source\PSoC6\pdl\drivers\peripheral\sysclk/cy_sysclk.c ****     /* no error */
 464:Generated_Source\PSoC6\pdl\drivers\peripheral\sysclk/cy_sysclk.c ****     if (returnStatus == CY_SYSCLK_SUCCESS) /* no errors */
 695              		.loc 1 464 0
 696 0022 002D     		cmp	r5, #0
 697 0024 00D0     		beq	.LCB695
 698 0026 88E0     		b	.L59	@long jump
 699              	.LCB695:
 700              	.LBB32:
 465:Generated_Source\PSoC6\pdl\drivers\peripheral\sysclk/cy_sysclk.c ****     {
 466:Generated_Source\PSoC6\pdl\drivers\peripheral\sysclk/cy_sysclk.c ****         /* update CLK_FLL_CONFIG register with 2 parameters; FLL_ENABLE is already 0 */
 467:Generated_Source\PSoC6\pdl\drivers\peripheral\sysclk/cy_sysclk.c ****         /* asserts just check for bitfield overflow */
 468:Generated_Source\PSoC6\pdl\drivers\peripheral\sysclk/cy_sysclk.c ****         CY_ASSERT_L1(config->fllMult <= (SRSS_CLK_FLL_CONFIG_FLL_MULT_Msk >> SRSS_CLK_FLL_CONFIG_FL
 701              		.loc 1 468 0
 702 0028 484B     		ldr	r3, .L69+12
 703 002a 2268     		ldr	r2, [r4]
 704 002c 9A42     		cmp	r2, r3
 705 002e 04D9     		bls	.L60
 706              		.loc 1 468 0 is_stmt 0 discriminator 1
 707 0030 EA21     		movs	r1, #234
 708 0032 4900     		lsls	r1, r1, #1
 709 0034 4248     		ldr	r0, .L69
 710 0036 FFF7FEFF 		bl	Cy_SysLib_AssertFailed
 711              	.LVL110:
 712              	.L60:
ARM GAS  C:\Users\kiwamu\AppData\Local\Temp\ccIx7zyv.s 			page 22


 469:Generated_Source\PSoC6\pdl\drivers\peripheral\sysclk/cy_sysclk.c ****         uint32_t reg = _VAL2FLD(SRSS_CLK_FLL_CONFIG_FLL_MULT, config->fllMult);
 713              		.loc 1 469 0 is_stmt 1
 714 003a 2368     		ldr	r3, [r4]
 715 003c 9B03     		lsls	r3, r3, #14
 716 003e 990B     		lsrs	r1, r3, #14
 717              	.LVL111:
 470:Generated_Source\PSoC6\pdl\drivers\peripheral\sysclk/cy_sysclk.c ****         /* no assert check for enableOutputDiv, because it's a type boolean */
 471:Generated_Source\PSoC6\pdl\drivers\peripheral\sysclk/cy_sysclk.c ****         SRSS->CLK_FLL_CONFIG = reg | _VAL2FLD(SRSS_CLK_FLL_CONFIG_FLL_OUTPUT_DIV, (uint32_t)(config
 718              		.loc 1 471 0
 719 0040 E379     		ldrb	r3, [r4, #7]
 720 0042 1B06     		lsls	r3, r3, #24
 721 0044 8022     		movs	r2, #128
 722 0046 5204     		lsls	r2, r2, #17
 723 0048 1340     		ands	r3, r2
 724 004a 0B43     		orrs	r3, r1
 725 004c B022     		movs	r2, #176
 726 004e D200     		lsls	r2, r2, #3
 727 0050 3C49     		ldr	r1, .L69+4
 728              	.LVL112:
 729 0052 8B50     		str	r3, [r1, r2]
 730              	.LVL113:
 472:Generated_Source\PSoC6\pdl\drivers\peripheral\sysclk/cy_sysclk.c **** 
 473:Generated_Source\PSoC6\pdl\drivers\peripheral\sysclk/cy_sysclk.c ****         /* update CLK_FLL_CONFIG2 register with 2 parameters */
 474:Generated_Source\PSoC6\pdl\drivers\peripheral\sysclk/cy_sysclk.c ****         /* asserts just check for bitfield overflow */
 475:Generated_Source\PSoC6\pdl\drivers\peripheral\sysclk/cy_sysclk.c ****         CY_ASSERT_L1(config->refDiv <= (SRSS_CLK_FLL_CONFIG2_FLL_REF_DIV_Msk >> SRSS_CLK_FLL_CONFIG
 731              		.loc 1 475 0
 732 0054 A288     		ldrh	r2, [r4, #4]
 733 0056 3E4B     		ldr	r3, .L69+16
 734 0058 9A42     		cmp	r2, r3
 735 005a 04D9     		bls	.L61
 736              		.loc 1 475 0 is_stmt 0 discriminator 1
 737 005c DC21     		movs	r1, #220
 738 005e FF31     		adds	r1, r1, #255
 739 0060 3748     		ldr	r0, .L69
 740 0062 FFF7FEFF 		bl	Cy_SysLib_AssertFailed
 741              	.LVL114:
 742              	.L61:
 476:Generated_Source\PSoC6\pdl\drivers\peripheral\sysclk/cy_sysclk.c ****         CY_ASSERT_L1(config->lockTolerance <= (SRSS_CLK_FLL_CONFIG2_LOCK_TOL_Msk >> SRSS_CLK_FLL_CO
 743              		.loc 1 476 0 is_stmt 1
 744 0066 2289     		ldrh	r2, [r4, #8]
 745 0068 3A4B     		ldr	r3, .L69+20
 746 006a 9A42     		cmp	r2, r3
 747 006c 04D9     		bls	.L62
 748              		.loc 1 476 0 is_stmt 0 discriminator 1
 749 006e EE21     		movs	r1, #238
 750 0070 4900     		lsls	r1, r1, #1
 751 0072 3348     		ldr	r0, .L69
 752 0074 FFF7FEFF 		bl	Cy_SysLib_AssertFailed
 753              	.LVL115:
 754              	.L62:
 477:Generated_Source\PSoC6\pdl\drivers\peripheral\sysclk/cy_sysclk.c ****         reg = _VAL2FLD(SRSS_CLK_FLL_CONFIG2_FLL_REF_DIV, config->refDiv);
 755              		.loc 1 477 0 is_stmt 1
 756 0078 A388     		ldrh	r3, [r4, #4]
 757 007a DB04     		lsls	r3, r3, #19
 758 007c D90C     		lsrs	r1, r3, #19
 759              	.LVL116:
 478:Generated_Source\PSoC6\pdl\drivers\peripheral\sysclk/cy_sysclk.c ****         SRSS->CLK_FLL_CONFIG2 = reg | _VAL2FLD(SRSS_CLK_FLL_CONFIG2_LOCK_TOL, config->lockTolerance
ARM GAS  C:\Users\kiwamu\AppData\Local\Temp\ccIx7zyv.s 			page 23


 760              		.loc 1 478 0
 761 007e 2389     		ldrh	r3, [r4, #8]
 762 0080 1B04     		lsls	r3, r3, #16
 763 0082 354A     		ldr	r2, .L69+24
 764 0084 1340     		ands	r3, r2
 765 0086 0B43     		orrs	r3, r1
 766 0088 344A     		ldr	r2, .L69+28
 767 008a 2E49     		ldr	r1, .L69+4
 768              	.LVL117:
 769 008c 8B50     		str	r3, [r1, r2]
 770              	.LVL118:
 479:Generated_Source\PSoC6\pdl\drivers\peripheral\sysclk/cy_sysclk.c **** 
 480:Generated_Source\PSoC6\pdl\drivers\peripheral\sysclk/cy_sysclk.c ****         /* update CLK_FLL_CONFIG3 register with 4 parameters */
 481:Generated_Source\PSoC6\pdl\drivers\peripheral\sysclk/cy_sysclk.c ****         /* asserts just check for bitfield overflow */
 482:Generated_Source\PSoC6\pdl\drivers\peripheral\sysclk/cy_sysclk.c ****         CY_ASSERT_L1(config->igain <= (SRSS_CLK_FLL_CONFIG3_FLL_LF_IGAIN_Msk >> SRSS_CLK_FLL_CONFIG
 771              		.loc 1 482 0
 772 008e A37A     		ldrb	r3, [r4, #10]
 773 0090 0F2B     		cmp	r3, #15
 774 0092 04D9     		bls	.L63
 775              		.loc 1 482 0 is_stmt 0 discriminator 1
 776 0094 F121     		movs	r1, #241
 777 0096 4900     		lsls	r1, r1, #1
 778 0098 2948     		ldr	r0, .L69
 779 009a FFF7FEFF 		bl	Cy_SysLib_AssertFailed
 780              	.LVL119:
 781              	.L63:
 483:Generated_Source\PSoC6\pdl\drivers\peripheral\sysclk/cy_sysclk.c ****         CY_ASSERT_L1(config->pgain <= (SRSS_CLK_FLL_CONFIG3_FLL_LF_PGAIN_Msk >> SRSS_CLK_FLL_CONFIG
 782              		.loc 1 483 0 is_stmt 1
 783 009e E37A     		ldrb	r3, [r4, #11]
 784 00a0 0F2B     		cmp	r3, #15
 785 00a2 04D9     		bls	.L64
 786              		.loc 1 483 0 is_stmt 0 discriminator 1
 787 00a4 E421     		movs	r1, #228
 788 00a6 FF31     		adds	r1, r1, #255
 789 00a8 2548     		ldr	r0, .L69
 790 00aa FFF7FEFF 		bl	Cy_SysLib_AssertFailed
 791              	.LVL120:
 792              	.L64:
 484:Generated_Source\PSoC6\pdl\drivers\peripheral\sysclk/cy_sysclk.c ****         CY_ASSERT_L1(config->settlingCount <= (SRSS_CLK_FLL_CONFIG3_SETTLING_COUNT_Msk >> SRSS_CLK_
 793              		.loc 1 484 0 is_stmt 1
 794 00ae A289     		ldrh	r2, [r4, #12]
 795 00b0 274B     		ldr	r3, .L69+16
 796 00b2 9A42     		cmp	r2, r3
 797 00b4 04D9     		bls	.L65
 798              		.loc 1 484 0 is_stmt 0 discriminator 1
 799 00b6 F221     		movs	r1, #242
 800 00b8 4900     		lsls	r1, r1, #1
 801 00ba 2148     		ldr	r0, .L69
 802 00bc FFF7FEFF 		bl	Cy_SysLib_AssertFailed
 803              	.LVL121:
 804              	.L65:
 485:Generated_Source\PSoC6\pdl\drivers\peripheral\sysclk/cy_sysclk.c ****         reg  = _VAL2FLD(SRSS_CLK_FLL_CONFIG3_FLL_LF_IGAIN, config->igain);
 805              		.loc 1 485 0 is_stmt 1
 806 00c0 A37A     		ldrb	r3, [r4, #10]
 807 00c2 0F21     		movs	r1, #15
 808 00c4 1940     		ands	r1, r3
 809              	.LVL122:
ARM GAS  C:\Users\kiwamu\AppData\Local\Temp\ccIx7zyv.s 			page 24


 486:Generated_Source\PSoC6\pdl\drivers\peripheral\sysclk/cy_sysclk.c ****         reg |= _VAL2FLD(SRSS_CLK_FLL_CONFIG3_FLL_LF_PGAIN, config->pgain);
 810              		.loc 1 486 0
 811 00c6 E27A     		ldrb	r2, [r4, #11]
 812 00c8 1201     		lsls	r2, r2, #4
 813 00ca FF23     		movs	r3, #255
 814 00cc 1340     		ands	r3, r2
 815 00ce 0B43     		orrs	r3, r1
 816              	.LVL123:
 487:Generated_Source\PSoC6\pdl\drivers\peripheral\sysclk/cy_sysclk.c ****         reg |= _VAL2FLD(SRSS_CLK_FLL_CONFIG3_SETTLING_COUNT, config->settlingCount);
 817              		.loc 1 487 0
 818 00d0 A289     		ldrh	r2, [r4, #12]
 819 00d2 1202     		lsls	r2, r2, #8
 820 00d4 2249     		ldr	r1, .L69+32
 821 00d6 0A40     		ands	r2, r1
 822 00d8 1343     		orrs	r3, r2
 823              	.LVL124:
 488:Generated_Source\PSoC6\pdl\drivers\peripheral\sysclk/cy_sysclk.c ****         SRSS->CLK_FLL_CONFIG3 = reg | _VAL2FLD(SRSS_CLK_FLL_CONFIG3_BYPASS_SEL, (uint32_t)(config->
 824              		.loc 1 488 0
 825 00da A27B     		ldrb	r2, [r4, #14]
 826 00dc 1207     		lsls	r2, r2, #28
 827 00de C021     		movs	r1, #192
 828 00e0 8905     		lsls	r1, r1, #22
 829 00e2 0A40     		ands	r2, r1
 830 00e4 1343     		orrs	r3, r2
 831              	.LVL125:
 832 00e6 B122     		movs	r2, #177
 833 00e8 D200     		lsls	r2, r2, #3
 834 00ea 1649     		ldr	r1, .L69+4
 835 00ec 8B50     		str	r3, [r1, r2]
 836              	.LVL126:
 489:Generated_Source\PSoC6\pdl\drivers\peripheral\sysclk/cy_sysclk.c **** 
 490:Generated_Source\PSoC6\pdl\drivers\peripheral\sysclk/cy_sysclk.c ****         /* update CLK_FLL_CONFIG4 register with 1 parameter; preserve other bits */
 491:Generated_Source\PSoC6\pdl\drivers\peripheral\sysclk/cy_sysclk.c ****         /* asserts just check for bitfield overflow */
 492:Generated_Source\PSoC6\pdl\drivers\peripheral\sysclk/cy_sysclk.c ****         CY_ASSERT_L1(config->ccoRange <= (SRSS_CLK_FLL_CONFIG4_CCO_RANGE_Msk >> SRSS_CLK_FLL_CONFIG
 837              		.loc 1 492 0
 838 00ee A379     		ldrb	r3, [r4, #6]
 839 00f0 072B     		cmp	r3, #7
 840 00f2 04D9     		bls	.L66
 841              		.loc 1 492 0 is_stmt 0 discriminator 1
 842 00f4 F621     		movs	r1, #246
 843 00f6 4900     		lsls	r1, r1, #1
 844 00f8 1148     		ldr	r0, .L69
 845 00fa FFF7FEFF 		bl	Cy_SysLib_AssertFailed
 846              	.LVL127:
 847              	.L66:
 493:Generated_Source\PSoC6\pdl\drivers\peripheral\sysclk/cy_sysclk.c ****         CY_ASSERT_L1(config->cco_Freq <= (SRSS_CLK_FLL_CONFIG4_CCO_FREQ_Msk >> SRSS_CLK_FLL_CONFIG4
 848              		.loc 1 493 0 is_stmt 1
 849 00fe 228A     		ldrh	r2, [r4, #16]
 850 0100 144B     		ldr	r3, .L69+20
 851 0102 9A42     		cmp	r2, r3
 852 0104 04D9     		bls	.L67
 853              		.loc 1 493 0 is_stmt 0 discriminator 1
 854 0106 EE21     		movs	r1, #238
 855 0108 FF31     		adds	r1, r1, #255
 856 010a 0D48     		ldr	r0, .L69
 857 010c FFF7FEFF 		bl	Cy_SysLib_AssertFailed
 858              	.LVL128:
ARM GAS  C:\Users\kiwamu\AppData\Local\Temp\ccIx7zyv.s 			page 25


 859              	.L67:
 494:Generated_Source\PSoC6\pdl\drivers\peripheral\sysclk/cy_sysclk.c ****         CY_SYSCLK_CLR_SET(SRSS->CLK_FLL_CONFIG4, SRSS_CLK_FLL_CONFIG4_CCO_RANGE, (uint32_t)(config-
 860              		.loc 1 494 0 is_stmt 1
 861 0110 0C48     		ldr	r0, .L69+4
 862 0112 1449     		ldr	r1, .L69+36
 863 0114 4658     		ldr	r6, [r0, r1]
 864 0116 144B     		ldr	r3, .L69+40
 865 0118 1E40     		ands	r6, r3
 866 011a A379     		ldrb	r3, [r4, #6]
 867 011c 1B02     		lsls	r3, r3, #8
 868 011e E022     		movs	r2, #224
 869 0120 D200     		lsls	r2, r2, #3
 870 0122 1340     		ands	r3, r2
 871 0124 3343     		orrs	r3, r6
 872 0126 4350     		str	r3, [r0, r1]
 495:Generated_Source\PSoC6\pdl\drivers\peripheral\sysclk/cy_sysclk.c ****         CY_SYSCLK_CLR_SET(SRSS->CLK_FLL_CONFIG4, SRSS_CLK_FLL_CONFIG4_CCO_FREQ, (uint32_t)(config->
 873              		.loc 1 495 0
 874 0128 4658     		ldr	r6, [r0, r1]
 875 012a 104B     		ldr	r3, .L69+44
 876 012c 1E40     		ands	r6, r3
 877 012e 238A     		ldrh	r3, [r4, #16]
 878 0130 1B04     		lsls	r3, r3, #16
 879 0132 094A     		ldr	r2, .L69+24
 880 0134 1340     		ands	r3, r2
 881 0136 3343     		orrs	r3, r6
 882 0138 4350     		str	r3, [r0, r1]
 883              	.L59:
 884              	.LBE32:
 496:Generated_Source\PSoC6\pdl\drivers\peripheral\sysclk/cy_sysclk.c ****     } /* if no error */
 497:Generated_Source\PSoC6\pdl\drivers\peripheral\sysclk/cy_sysclk.c **** 
 498:Generated_Source\PSoC6\pdl\drivers\peripheral\sysclk/cy_sysclk.c ****     return (returnStatus);
 499:Generated_Source\PSoC6\pdl\drivers\peripheral\sysclk/cy_sysclk.c **** }
 885              		.loc 1 499 0
 886 013a 2800     		movs	r0, r5
 887              		@ sp needed
 888              	.LVL129:
 889              	.LVL130:
 890 013c 70BD     		pop	{r4, r5, r6, pc}
 891              	.L70:
 892 013e C046     		.align	2
 893              	.L69:
 894 0140 00000000 		.word	.LC3
 895 0144 00002640 		.word	1076232192
 896 0148 03004A00 		.word	4849667
 897 014c FFFF0300 		.word	262143
 898 0150 FF1F0000 		.word	8191
 899 0154 FF010000 		.word	511
 900 0158 0000FF01 		.word	33488896
 901 015c 84050000 		.word	1412
 902 0160 00FF1F00 		.word	2096896
 903 0164 8C050000 		.word	1420
 904 0168 FFF8FFFF 		.word	-1793
 905 016c FFFF00FE 		.word	-33488897
 906              		.cfi_endproc
 907              	.LFE144:
 908              		.size	Cy_SysClk_FllManualConfigure, .-Cy_SysClk_FllManualConfigure
 909              		.global	__aeabi_uidiv
ARM GAS  C:\Users\kiwamu\AppData\Local\Temp\ccIx7zyv.s 			page 26


 910              		.global	__aeabi_fsub
 911              		.global	__aeabi_ddiv
 912              		.global	__aeabi_d2uiz
 913              		.section	.text.Cy_SysClk_FllConfigure,"ax",%progbits
 914              		.align	2
 915              		.global	Cy_SysClk_FllConfigure
 916              		.code	16
 917              		.thumb_func
 918              		.type	Cy_SysClk_FllConfigure, %function
 919              	Cy_SysClk_FllConfigure:
 920              	.LFB143:
 311:Generated_Source\PSoC6\pdl\drivers\peripheral\sysclk/cy_sysclk.c ****     cy_en_sysclk_status_t returnStatus = CY_SYSCLK_SUCCESS;
 921              		.loc 1 311 0
 922              		.cfi_startproc
 923              		@ args = 0, pretend = 0, frame = 128
 924              		@ frame_needed = 0, uses_anonymous_args = 0
 925              	.LVL131:
 926 0000 F0B5     		push	{r4, r5, r6, r7, lr}
 927              		.cfi_def_cfa_offset 20
 928              		.cfi_offset 4, -20
 929              		.cfi_offset 5, -16
 930              		.cfi_offset 6, -12
 931              		.cfi_offset 7, -8
 932              		.cfi_offset 14, -4
 933 0002 5746     		mov	r7, r10
 934 0004 4646     		mov	r6, r8
 935 0006 C0B4     		push	{r6, r7}
 936              		.cfi_def_cfa_offset 28
 937              		.cfi_offset 8, -28
 938              		.cfi_offset 10, -24
 939 0008 A1B0     		sub	sp, sp, #132
 940              		.cfi_def_cfa_offset 160
 941 000a 0400     		movs	r4, r0
 942 000c 0090     		str	r0, [sp]
 943 000e 0D00     		movs	r5, r1
 944 0010 1600     		movs	r6, r2
 945              	.LVL132:
 315:Generated_Source\PSoC6\pdl\drivers\peripheral\sysclk/cy_sysclk.c ****     {
 946              		.loc 1 315 0
 947 0012 B023     		movs	r3, #176
 948 0014 DB00     		lsls	r3, r3, #3
 949 0016 C14A     		ldr	r2, .L106
 950              	.LVL133:
 951 0018 D358     		ldr	r3, [r2, r3]
 952 001a 002B     		cmp	r3, #0
 953 001c 15DB     		blt	.L92
 319:Generated_Source\PSoC6\pdl\drivers\peripheral\sysclk/cy_sysclk.c ****     {
 954              		.loc 1 319 0
 955 001e C04A     		ldr	r2, .L106+4
 956 0020 C04B     		ldr	r3, .L106+8
 957 0022 CB18     		adds	r3, r1, r3
 958 0024 9342     		cmp	r3, r2
 959 0026 12D8     		bhi	.L93
 323:Generated_Source\PSoC6\pdl\drivers\peripheral\sysclk/cy_sysclk.c ****     {
 960              		.loc 1 323 0
 961 0028 0800     		movs	r0, r1
 962              	.LVL134:
ARM GAS  C:\Users\kiwamu\AppData\Local\Temp\ccIx7zyv.s 			page 27


 963 002a FFF7FEFF 		bl	__aeabi_ui2f
 964              	.LVL135:
 965 002e 071C     		adds	r7, r0, #0
 966 0030 2000     		movs	r0, r4
 967 0032 FFF7FEFF 		bl	__aeabi_ui2f
 968              	.LVL136:
 969 0036 011C     		adds	r1, r0, #0
 970 0038 381C     		adds	r0, r7, #0
 971 003a FFF7FEFF 		bl	__aeabi_fdiv
 972              	.LVL137:
 973 003e BA49     		ldr	r1, .L106+12
 974 0040 FFF7FEFF 		bl	__aeabi_fcmplt
 975              	.LVL138:
 976 0044 0028     		cmp	r0, #0
 977 0046 04D1     		bne	.L94
 978 0048 04E0     		b	.L72
 979              	.LVL139:
 980              	.L92:
 317:Generated_Source\PSoC6\pdl\drivers\peripheral\sysclk/cy_sysclk.c ****     }
 981              		.loc 1 317 0
 982 004a B848     		ldr	r0, .L106+16
 983              	.LVL140:
 984 004c 02E0     		b	.L72
 985              	.LVL141:
 986              	.L93:
 321:Generated_Source\PSoC6\pdl\drivers\peripheral\sysclk/cy_sysclk.c ****     }
 987              		.loc 1 321 0
 988 004e B848     		ldr	r0, .L106+20
 989              	.LVL142:
 990 0050 00E0     		b	.L72
 991              	.LVL143:
 992              	.L94:
 325:Generated_Source\PSoC6\pdl\drivers\peripheral\sysclk/cy_sysclk.c ****     }
 993              		.loc 1 325 0
 994 0052 B748     		ldr	r0, .L106+20
 995              	.L72:
 996              	.LVL144:
 332:Generated_Source\PSoC6\pdl\drivers\peripheral\sysclk/cy_sysclk.c ****     {
 997              		.loc 1 332 0
 998 0054 0028     		cmp	r0, #0
 999 0056 00D0     		beq	.LCB984
 1000 0058 5BE1     		b	.L73	@long jump
 1001              	.LCB984:
 337:Generated_Source\PSoC6\pdl\drivers\peripheral\sysclk/cy_sysclk.c ****         {
 1002              		.loc 1 337 0
 1003 005a 022E     		cmp	r6, #2
 1004 005c 00D1     		bne	.LCB986
 1005 005e 4CE1     		b	.L74	@long jump
 1006              	.LCB986:
 1007              	.LBB33:
 341:Generated_Source\PSoC6\pdl\drivers\peripheral\sysclk/cy_sysclk.c **** 
 1008              		.loc 1 341 0
 1009 0060 FFF7FEFF 		bl	Cy_SysClk_ClkPathGetSource
 1010              	.LVL145:
 1011 0064 8046     		mov	r8, r0
 1012              	.LVL146:
 343:Generated_Source\PSoC6\pdl\drivers\peripheral\sysclk/cy_sysclk.c ****             /* 1. Output division by 2 is always required. */
ARM GAS  C:\Users\kiwamu\AppData\Local\Temp\ccIx7zyv.s 			page 28


 1013              		.loc 1 343 0
 1014 0066 05AB     		add	r3, sp, #20
 1015 0068 9E73     		strb	r6, [r3, #14]
 345:Generated_Source\PSoC6\pdl\drivers\peripheral\sysclk/cy_sysclk.c ****             /* 2. Compute the target CCO frequency from the target output frequency and output divi
 1016              		.loc 1 345 0
 1017 006a 0122     		movs	r2, #1
 1018 006c DA71     		strb	r2, [r3, #7]
 347:Generated_Source\PSoC6\pdl\drivers\peripheral\sysclk/cy_sysclk.c ****             /* 3. Compute the CCO range value from the CCO frequency */
 1019              		.loc 1 347 0
 1020 006e 6F00     		lsls	r7, r5, #1
 1021              	.LVL147:
 349:Generated_Source\PSoC6\pdl\drivers\peripheral\sysclk/cy_sysclk.c ****                                ((ccoFreq >= 113009380ul) ? CY_SYSCLK_FLL_CCO_RANGE3 :
 1022              		.loc 1 349 0
 1023 0070 B04B     		ldr	r3, .L106+24
 1024 0072 9F42     		cmp	r7, r3
 1025 0074 0BD8     		bhi	.L95
 349:Generated_Source\PSoC6\pdl\drivers\peripheral\sysclk/cy_sysclk.c ****                                ((ccoFreq >= 113009380ul) ? CY_SYSCLK_FLL_CCO_RANGE3 :
 1026              		.loc 1 349 0 is_stmt 0 discriminator 1
 1027 0076 B04B     		ldr	r3, .L106+28
 1028 0078 9F42     		cmp	r7, r3
 1029 007a 0BD8     		bhi	.L96
 349:Generated_Source\PSoC6\pdl\drivers\peripheral\sysclk/cy_sysclk.c ****                                ((ccoFreq >= 113009380ul) ? CY_SYSCLK_FLL_CCO_RANGE3 :
 1030              		.loc 1 349 0 discriminator 3
 1031 007c AF4B     		ldr	r3, .L106+32
 1032 007e 9F42     		cmp	r7, r3
 1033 0080 0BD8     		bhi	.L97
 352:Generated_Source\PSoC6\pdl\drivers\peripheral\sysclk/cy_sysclk.c ****             {
 1034              		.loc 1 352 0 is_stmt 1 discriminator 5
 1035 0082 AF4B     		ldr	r3, .L106+36
 1036 0084 BB42     		cmp	r3, r7
 1037 0086 9B41     		sbcs	r3, r3, r3
 1038 0088 5B42     		rsbs	r3, r3, #0
 1039 008a 9A46     		mov	r10, r3
 1040 008c 07E0     		b	.L75
 1041              	.L95:
 349:Generated_Source\PSoC6\pdl\drivers\peripheral\sysclk/cy_sysclk.c ****                                ((ccoFreq >= 113009380ul) ? CY_SYSCLK_FLL_CCO_RANGE3 :
 1042              		.loc 1 349 0
 1043 008e 0423     		movs	r3, #4
 1044 0090 9A46     		mov	r10, r3
 1045 0092 04E0     		b	.L75
 1046              	.L96:
 1047 0094 0323     		movs	r3, #3
 1048 0096 9A46     		mov	r10, r3
 1049 0098 01E0     		b	.L75
 1050              	.L97:
 1051 009a 0223     		movs	r3, #2
 1052 009c 9A46     		mov	r10, r3
 1053              	.L75:
 349:Generated_Source\PSoC6\pdl\drivers\peripheral\sysclk/cy_sysclk.c ****                                ((ccoFreq >= 113009380ul) ? CY_SYSCLK_FLL_CCO_RANGE3 :
 1054              		.loc 1 349 0 is_stmt 0 discriminator 12
 1055 009e 05AB     		add	r3, sp, #20
 1056 00a0 5246     		mov	r2, r10
 1057 00a2 9A71     		strb	r2, [r3, #6]
 1058              	.LBB34:
 355:Generated_Source\PSoC6\pdl\drivers\peripheral\sysclk/cy_sysclk.c ****                 const float32_t fMargin[] = {43600000.0f, 58100000.0f, 77200000.0f, 103000000.0f, 1
 1059              		.loc 1 355 0 is_stmt 1 discriminator 12
 1060 00a4 0AA8     		add	r0, sp, #40
ARM GAS  C:\Users\kiwamu\AppData\Local\Temp\ccIx7zyv.s 			page 29


 1061              	.LVL148:
 1062 00a6 A74B     		ldr	r3, .L106+40
 1063 00a8 0200     		movs	r2, r0
 1064 00aa 1900     		movs	r1, r3
 1065 00ac 51C9     		ldmia	r1!, {r0, r4, r6}
 1066 00ae 51C2     		stmia	r2!, {r0, r4, r6}
 1067              	.LVL149:
 1068 00b0 11C9     		ldmia	r1!, {r0, r4}
 1069 00b2 11C2     		stmia	r2!, {r0, r4}
 356:Generated_Source\PSoC6\pdl\drivers\peripheral\sysclk/cy_sysclk.c **** 
 1070              		.loc 1 356 0 discriminator 12
 1071 00b4 0FA9     		add	r1, sp, #60
 1072 00b6 1433     		adds	r3, r3, #20
 1073 00b8 0A00     		movs	r2, r1
 1074 00ba 13CB     		ldmia	r3!, {r0, r1, r4}
 1075 00bc 13C2     		stmia	r2!, {r0, r1, r4}
 1076 00be 03CB     		ldmia	r3!, {r0, r1}
 1077 00c0 03C2     		stmia	r2!, {r0, r1}
 361:Generated_Source\PSoC6\pdl\drivers\peripheral\sysclk/cy_sysclk.c ****                                                       ((trimSteps[config.ccoRange] / 2.0f) * (float
 1078              		.loc 1 361 0 discriminator 12
 1079 00c2 1223     		movs	r3, #18
 1080 00c4 FF33     		adds	r3, r3, #255
 1081 00c6 9845     		cmp	r8, r3
 1082 00c8 1DD0     		beq	.L98
 361:Generated_Source\PSoC6\pdl\drivers\peripheral\sysclk/cy_sysclk.c ****                                                       ((trimSteps[config.ccoRange] / 2.0f) * (float
 1083              		.loc 1 361 0 is_stmt 0 discriminator 2
 1084 00ca 0098     		ldr	r0, [sp]
 1085 00cc FFF7FEFF 		bl	__aeabi_ui2f
 1086              	.LVL150:
 1087 00d0 061C     		adds	r6, r0, #0
 362:Generated_Source\PSoC6\pdl\drivers\peripheral\sysclk/cy_sysclk.c ****             /* 5. Compute the FLL multiplier value.
 1088              		.loc 1 362 0 is_stmt 1 discriminator 2
 1089 00d2 5346     		mov	r3, r10
 1090 00d4 9B00     		lsls	r3, r3, #2
 1091 00d6 0AAA     		add	r2, sp, #40
 1092 00d8 9858     		ldr	r0, [r3, r2]
 1093 00da FC21     		movs	r1, #252
 1094 00dc 8905     		lsls	r1, r1, #22
 1095 00de FFF7FEFF 		bl	__aeabi_fmul
 1096              	.LVL151:
 1097 00e2 041C     		adds	r4, r0, #0
 1098 00e4 3800     		movs	r0, r7
 1099 00e6 FFF7FEFF 		bl	__aeabi_ui2f
 1100              	.LVL152:
 1101 00ea 011C     		adds	r1, r0, #0
 1102 00ec 201C     		adds	r0, r4, #0
 1103 00ee FFF7FEFF 		bl	__aeabi_fmul
 1104              	.LVL153:
 1105 00f2 011C     		adds	r1, r0, #0
 361:Generated_Source\PSoC6\pdl\drivers\peripheral\sysclk/cy_sysclk.c ****                                                       ((trimSteps[config.ccoRange] / 2.0f) * (float
 1106              		.loc 1 361 0 discriminator 2
 1107 00f4 301C     		adds	r0, r6, #0
 1108 00f6 FFF7FEFF 		bl	__aeabi_fdiv
 1109              	.LVL154:
 1110 00fa FFF7FEFF 		bl	ceilf
 1111              	.LVL155:
 1112 00fe FFF7FEFF 		bl	__aeabi_f2uiz
ARM GAS  C:\Users\kiwamu\AppData\Local\Temp\ccIx7zyv.s 			page 30


 1113              	.LVL156:
 1114 0102 84B2     		uxth	r4, r0
 1115 0104 00E0     		b	.L76
 1116              	.L98:
 361:Generated_Source\PSoC6\pdl\drivers\peripheral\sysclk/cy_sysclk.c ****                                                       ((trimSteps[config.ccoRange] / 2.0f) * (float
 1117              		.loc 1 361 0 is_stmt 0
 1118 0106 1324     		movs	r4, #19
 1119              	.L76:
 361:Generated_Source\PSoC6\pdl\drivers\peripheral\sysclk/cy_sysclk.c ****                                                       ((trimSteps[config.ccoRange] / 2.0f) * (float
 1120              		.loc 1 361 0 discriminator 4
 1121 0108 05AE     		add	r6, sp, #20
 1122 010a B480     		strh	r4, [r6, #4]
 365:Generated_Source\PSoC6\pdl\drivers\peripheral\sysclk/cy_sysclk.c ****             /* 6. Compute the lock tolerance.
 1123              		.loc 1 365 0 is_stmt 1 discriminator 4
 1124 010c 6008     		lsrs	r0, r4, #1
 1125 010e 009B     		ldr	r3, [sp]
 1126 0110 9C46     		mov	ip, r3
 1127 0112 6044     		add	r0, r0, ip
 1128 0114 2100     		movs	r1, r4
 1129 0116 FFF7FEFF 		bl	__aeabi_uidiv
 1130              	.LVL157:
 1131 011a 0100     		movs	r1, r0
 1132 011c 781E     		subs	r0, r7, #1
 1133 011e FFF7FEFF 		bl	__aeabi_uidiv
 1134              	.LVL158:
 1135 0122 0130     		adds	r0, r0, #1
 1136 0124 0590     		str	r0, [sp, #20]
 371:Generated_Source\PSoC6\pdl\drivers\peripheral\sysclk/cy_sysclk.c ****             /* 7. Compute the CCO igain and pgain. */
 1137              		.loc 1 371 0 discriminator 4
 1138 0126 FFF7FEFF 		bl	__aeabi_ui2f
 1139              	.LVL159:
 1140 012a 8749     		ldr	r1, .L106+44
 1141 012c FFF7FEFF 		bl	__aeabi_fmul
 1142              	.LVL160:
 1143 0130 FFF7FEFF 		bl	ceilf
 1144              	.LVL161:
 1145 0134 FFF7FEFF 		bl	__aeabi_f2uiz
 1146              	.LVL162:
 1147 0138 3081     		strh	r0, [r6, #8]
 1148              	.LBB35:
 375:Generated_Source\PSoC6\pdl\drivers\peripheral\sysclk/cy_sysclk.c ****                     float32_t ki_p = (0.85f / (kcco * ((float32_t)(config.refDiv) / (float32_t)inpu
 1149              		.loc 1 375 0 discriminator 4
 1150 013a 5246     		mov	r2, r10
 1151 013c 9300     		lsls	r3, r2, #2
 1152 013e 0AAA     		add	r2, sp, #40
 1153 0140 9858     		ldr	r0, [r3, r2]
 1154 0142 0FAA     		add	r2, sp, #60
 1155 0144 9A58     		ldr	r2, [r3, r2]
 1156 0146 0192     		str	r2, [sp, #4]
 1157 0148 111C     		adds	r1, r2, #0
 1158 014a FFF7FEFF 		bl	__aeabi_fmul
 1159              	.LVL163:
 1160 014e 7F49     		ldr	r1, .L106+48
 1161 0150 FFF7FEFF 		bl	__aeabi_fdiv
 1162              	.LVL164:
 1163 0154 0390     		str	r0, [sp, #12]
 1164              	.LVL165:
ARM GAS  C:\Users\kiwamu\AppData\Local\Temp\ccIx7zyv.s 			page 31


 376:Generated_Source\PSoC6\pdl\drivers\peripheral\sysclk/cy_sysclk.c **** 
 1165              		.loc 1 376 0 discriminator 4
 1166 0156 2000     		movs	r0, r4
 1167              	.LVL166:
 1168 0158 FFF7FEFF 		bl	__aeabi_ui2f
 1169              	.LVL167:
 1170 015c 041C     		adds	r4, r0, #0
 1171 015e 0098     		ldr	r0, [sp]
 1172 0160 FFF7FEFF 		bl	__aeabi_ui2f
 1173              	.LVL168:
 1174 0164 011C     		adds	r1, r0, #0
 1175 0166 0290     		str	r0, [sp, #8]
 1176 0168 201C     		adds	r0, r4, #0
 1177 016a FFF7FEFF 		bl	__aeabi_fdiv
 1178              	.LVL169:
 1179 016e 011C     		adds	r1, r0, #0
 1180 0170 0398     		ldr	r0, [sp, #12]
 1181 0172 FFF7FEFF 		bl	__aeabi_fmul
 1182              	.LVL170:
 1183 0176 011C     		adds	r1, r0, #0
 1184 0178 7548     		ldr	r0, .L106+52
 1185 017a FFF7FEFF 		bl	__aeabi_fdiv
 1186              	.LVL171:
 1187 017e 7349     		ldr	r1, .L106+48
 1188 0180 FFF7FEFF 		bl	__aeabi_fdiv
 1189              	.LVL172:
 1190 0184 0090     		str	r0, [sp]
 1191              	.LVL173:
 379:Generated_Source\PSoC6\pdl\drivers\peripheral\sysclk/cy_sysclk.c ****                                                0.5f, 1.0f, 2.0f, 4.0f, 8.0f};
 1192              		.loc 1 379 0 discriminator 4
 1193 0186 14A9     		add	r1, sp, #80
 1194 0188 6E4B     		ldr	r3, .L106+40
 1195 018a 2833     		adds	r3, r3, #40
 1196 018c 0A00     		movs	r2, r1
 1197 018e 13CB     		ldmia	r3!, {r0, r1, r4}
 1198 0190 13C2     		stmia	r2!, {r0, r1, r4}
 1199              	.LVL174:
 1200 0192 13CB     		ldmia	r3!, {r0, r1, r4}
 1201 0194 13C2     		stmia	r2!, {r0, r1, r4}
 1202 0196 13CB     		ldmia	r3!, {r0, r1, r4}
 1203 0198 13C2     		stmia	r2!, {r0, r1, r4}
 1204 019a 13CB     		ldmia	r3!, {r0, r1, r4}
 1205 019c 13C2     		stmia	r2!, {r0, r1, r4}
 383:Generated_Source\PSoC6\pdl\drivers\peripheral\sysclk/cy_sysclk.c ****                         (gains[config.igain] > ki_p) && (config.igain != 0ul); config.igain--){}
 1206              		.loc 1 383 0 discriminator 4
 1207 019e 0B23     		movs	r3, #11
 1208 01a0 B372     		strb	r3, [r6, #10]
 1209 01a2 02E0     		b	.L77
 1210              	.L80:
 384:Generated_Source\PSoC6\pdl\drivers\peripheral\sysclk/cy_sysclk.c ****                     /* decrement igain if the WCO is the FLL source */
 1211              		.loc 1 384 0 discriminator 1
 1212 01a4 013E     		subs	r6, r6, #1
 1213 01a6 05AB     		add	r3, sp, #20
 1214 01a8 9E72     		strb	r6, [r3, #10]
 1215              	.L77:
 1216 01aa 05AB     		add	r3, sp, #20
 1217 01ac 9E7A     		ldrb	r6, [r3, #10]
ARM GAS  C:\Users\kiwamu\AppData\Local\Temp\ccIx7zyv.s 			page 32


 1218 01ae B200     		lsls	r2, r6, #2
 1219 01b0 14AB     		add	r3, sp, #80
 1220 01b2 D158     		ldr	r1, [r2, r3]
 383:Generated_Source\PSoC6\pdl\drivers\peripheral\sysclk/cy_sysclk.c ****                         (gains[config.igain] > ki_p) && (config.igain != 0ul); config.igain--){}
 1221              		.loc 1 383 0 discriminator 1
 1222 01b4 0098     		ldr	r0, [sp]
 1223 01b6 FFF7FEFF 		bl	__aeabi_fcmplt
 1224              	.LVL175:
 1225 01ba 0028     		cmp	r0, #0
 1226 01bc 01D0     		beq	.L78
 384:Generated_Source\PSoC6\pdl\drivers\peripheral\sysclk/cy_sysclk.c ****                     /* decrement igain if the WCO is the FLL source */
 1227              		.loc 1 384 0 discriminator 2
 1228 01be 002E     		cmp	r6, #0
 1229 01c0 F0D1     		bne	.L80
 1230              	.L78:
 386:Generated_Source\PSoC6\pdl\drivers\peripheral\sysclk/cy_sysclk.c ****                     {
 1231              		.loc 1 386 0
 1232 01c2 1223     		movs	r3, #18
 1233 01c4 FF33     		adds	r3, r3, #255
 1234 01c6 9845     		cmp	r8, r3
 1235 01c8 04D1     		bne	.L81
 386:Generated_Source\PSoC6\pdl\drivers\peripheral\sysclk/cy_sysclk.c ****                     {
 1236              		.loc 1 386 0 is_stmt 0 discriminator 1
 1237 01ca 002E     		cmp	r6, #0
 1238 01cc 02D0     		beq	.L81
 388:Generated_Source\PSoC6\pdl\drivers\peripheral\sysclk/cy_sysclk.c ****                     }
 1239              		.loc 1 388 0 is_stmt 1
 1240 01ce 013E     		subs	r6, r6, #1
 1241 01d0 05AB     		add	r3, sp, #20
 1242 01d2 9E72     		strb	r6, [r3, #10]
 1243              	.L81:
 391:Generated_Source\PSoC6\pdl\drivers\peripheral\sysclk/cy_sysclk.c ****                         (gains[config.pgain] > (ki_p - gains[config.igain])) && (config.pgain != 0u
 1244              		.loc 1 391 0
 1245 01d4 0B22     		movs	r2, #11
 1246 01d6 05AB     		add	r3, sp, #20
 1247 01d8 DA72     		strb	r2, [r3, #11]
 1248 01da 02E0     		b	.L82
 1249              	.L85:
 393:Generated_Source\PSoC6\pdl\drivers\peripheral\sysclk/cy_sysclk.c ****                     /* decrement pgain if the WCO is the FLL source */
 1250              		.loc 1 393 0
 1251 01dc 013E     		subs	r6, r6, #1
 1252 01de 05AB     		add	r3, sp, #20
 1253 01e0 DE72     		strb	r6, [r3, #11]
 1254              	.L82:
 392:Generated_Source\PSoC6\pdl\drivers\peripheral\sysclk/cy_sysclk.c ****                         config.pgain--){}
 1255              		.loc 1 392 0 discriminator 1
 1256 01e2 05AB     		add	r3, sp, #20
 1257 01e4 DE7A     		ldrb	r6, [r3, #11]
 1258 01e6 14AA     		add	r2, sp, #80
 1259 01e8 B100     		lsls	r1, r6, #2
 1260 01ea 8C58     		ldr	r4, [r1, r2]
 1261 01ec 9B7A     		ldrb	r3, [r3, #10]
 1262 01ee 9B00     		lsls	r3, r3, #2
 1263 01f0 9958     		ldr	r1, [r3, r2]
 1264 01f2 0098     		ldr	r0, [sp]
 1265 01f4 FFF7FEFF 		bl	__aeabi_fsub
 1266              	.LVL176:
ARM GAS  C:\Users\kiwamu\AppData\Local\Temp\ccIx7zyv.s 			page 33


 1267 01f8 011C     		adds	r1, r0, #0
 391:Generated_Source\PSoC6\pdl\drivers\peripheral\sysclk/cy_sysclk.c ****                         (gains[config.pgain] > (ki_p - gains[config.igain])) && (config.pgain != 0u
 1268              		.loc 1 391 0 discriminator 1
 1269 01fa 201C     		adds	r0, r4, #0
 1270 01fc FFF7FEFF 		bl	__aeabi_fcmpgt
 1271              	.LVL177:
 1272 0200 0028     		cmp	r0, #0
 1273 0202 01D0     		beq	.L83
 392:Generated_Source\PSoC6\pdl\drivers\peripheral\sysclk/cy_sysclk.c ****                         config.pgain--){}
 1274              		.loc 1 392 0
 1275 0204 002E     		cmp	r6, #0
 1276 0206 E9D1     		bne	.L85
 1277              	.L83:
 395:Generated_Source\PSoC6\pdl\drivers\peripheral\sysclk/cy_sysclk.c ****                     {
 1278              		.loc 1 395 0
 1279 0208 1223     		movs	r3, #18
 1280 020a FF33     		adds	r3, r3, #255
 1281 020c 9845     		cmp	r8, r3
 1282 020e 04D1     		bne	.L86
 395:Generated_Source\PSoC6\pdl\drivers\peripheral\sysclk/cy_sysclk.c ****                     {
 1283              		.loc 1 395 0 is_stmt 0 discriminator 1
 1284 0210 002E     		cmp	r6, #0
 1285 0212 02D0     		beq	.L86
 397:Generated_Source\PSoC6\pdl\drivers\peripheral\sysclk/cy_sysclk.c ****                     }
 1286              		.loc 1 397 0 is_stmt 1
 1287 0214 013E     		subs	r6, r6, #1
 1288 0216 05AB     		add	r3, sp, #20
 1289 0218 DE72     		strb	r6, [r3, #11]
 1290              	.L86:
 1291              	.LBE35:
 402:Generated_Source\PSoC6\pdl\drivers\peripheral\sysclk/cy_sysclk.c ****                            log(1.0f + trimSteps[config.ccoRange])));
 1292              		.loc 1 402 0
 1293 021a 3800     		movs	r0, r7
 1294 021c FFF7FEFF 		bl	__aeabi_ui2f
 1295              	.LVL178:
 1296 0220 0199     		ldr	r1, [sp, #4]
 1297 0222 FFF7FEFF 		bl	__aeabi_fdiv
 1298              	.LVL179:
 1299 0226 FFF7FEFF 		bl	__aeabi_f2d
 1300              	.LVL180:
 1301 022a FFF7FEFF 		bl	log
 1302              	.LVL181:
 1303 022e 0600     		movs	r6, r0
 1304 0230 0F00     		movs	r7, r1
 1305              	.LVL182:
 403:Generated_Source\PSoC6\pdl\drivers\peripheral\sysclk/cy_sysclk.c ****             }
 1306              		.loc 1 403 0
 1307 0232 05AC     		add	r4, sp, #20
 1308 0234 A379     		ldrb	r3, [r4, #6]
 1309 0236 9B00     		lsls	r3, r3, #2
 1310 0238 0AAA     		add	r2, sp, #40
 1311 023a 9858     		ldr	r0, [r3, r2]
 1312 023c FE21     		movs	r1, #254
 1313 023e 8905     		lsls	r1, r1, #22
 1314 0240 FFF7FEFF 		bl	__aeabi_fadd
 1315              	.LVL183:
 1316 0244 FFF7FEFF 		bl	__aeabi_f2d
ARM GAS  C:\Users\kiwamu\AppData\Local\Temp\ccIx7zyv.s 			page 34


 1317              	.LVL184:
 1318 0248 FFF7FEFF 		bl	log
 1319              	.LVL185:
 1320 024c 0200     		movs	r2, r0
 1321 024e 0B00     		movs	r3, r1
 402:Generated_Source\PSoC6\pdl\drivers\peripheral\sysclk/cy_sysclk.c ****                            log(1.0f + trimSteps[config.ccoRange])));
 1322              		.loc 1 402 0
 1323 0250 3000     		movs	r0, r6
 1324 0252 3900     		movs	r1, r7
 1325 0254 FFF7FEFF 		bl	__aeabi_ddiv
 1326              	.LVL186:
 1327 0258 FFF7FEFF 		bl	floor
 1328              	.LVL187:
 401:Generated_Source\PSoC6\pdl\drivers\peripheral\sysclk/cy_sysclk.c ****                     (floor(log((float32_t)ccoFreq / fMargin[config.ccoRange]) /
 1329              		.loc 1 401 0
 1330 025c FFF7FEFF 		bl	__aeabi_d2uiz
 1331              	.LVL188:
 1332 0260 2082     		strh	r0, [r4, #16]
 1333              	.LBE34:
 1334              	.LBB36:
 408:Generated_Source\PSoC6\pdl\drivers\peripheral\sysclk/cy_sysclk.c ****                 float32_t testval = 6000.0f / (float32_t)outputFreq;
 1335              		.loc 1 408 0
 1336 0262 A088     		ldrh	r0, [r4, #4]
 1337 0264 FFF7FEFF 		bl	__aeabi_ui2f
 1338              	.LVL189:
 1339 0268 041C     		adds	r4, r0, #0
 1340 026a 3849     		ldr	r1, .L106+48
 1341 026c 029F     		ldr	r7, [sp, #8]
 1342 026e 381C     		adds	r0, r7, #0
 1343 0270 FFF7FEFF 		bl	__aeabi_fdiv
 1344              	.LVL190:
 1345 0274 011C     		adds	r1, r0, #0
 1346 0276 201C     		adds	r0, r4, #0
 1347 0278 FFF7FEFF 		bl	__aeabi_fdiv
 1348              	.LVL191:
 1349 027c 061C     		adds	r6, r0, #0
 1350              	.LVL192:
 409:Generated_Source\PSoC6\pdl\drivers\peripheral\sysclk/cy_sysclk.c ****                 float32_t divval  = ceil((float32_t)inputFreq * 0.000001f);
 1351              		.loc 1 409 0
 1352 027e 2800     		movs	r0, r5
 1353              	.LVL193:
 1354 0280 FFF7FEFF 		bl	__aeabi_ui2f
 1355              	.LVL194:
 1356 0284 011C     		adds	r1, r0, #0
 1357 0286 3348     		ldr	r0, .L106+56
 1358 0288 FFF7FEFF 		bl	__aeabi_fdiv
 1359              	.LVL195:
 1360 028c 051C     		adds	r5, r0, #0
 1361              	.LVL196:
 410:Generated_Source\PSoC6\pdl\drivers\peripheral\sysclk/cy_sysclk.c ****                 float32_t altval  = ceil((divval / ttref) + 1.0f);
 1362              		.loc 1 410 0
 1363 028e 3249     		ldr	r1, .L106+60
 1364 0290 381C     		adds	r0, r7, #0
 1365              	.LVL197:
 1366 0292 FFF7FEFF 		bl	__aeabi_fmul
 1367              	.LVL198:
 1368 0296 FFF7FEFF 		bl	ceilf
ARM GAS  C:\Users\kiwamu\AppData\Local\Temp\ccIx7zyv.s 			page 35


 1369              	.LVL199:
 1370 029a 041C     		adds	r4, r0, #0
 1371              	.LVL200:
 411:Generated_Source\PSoC6\pdl\drivers\peripheral\sysclk/cy_sysclk.c ****                 config.settlingCount = (uint16)(wcoSource ? 200u : 
 1372              		.loc 1 411 0
 1373 029c 311C     		adds	r1, r6, #0
 1374 029e FFF7FEFF 		bl	__aeabi_fdiv
 1375              	.LVL201:
 1376 02a2 FE21     		movs	r1, #254
 1377 02a4 8905     		lsls	r1, r1, #22
 1378 02a6 FFF7FEFF 		bl	__aeabi_fadd
 1379              	.LVL202:
 1380 02aa FFF7FEFF 		bl	ceilf
 1381              	.LVL203:
 1382 02ae 071C     		adds	r7, r0, #0
 1383              	.LVL204:
 412:Generated_Source\PSoC6\pdl\drivers\peripheral\sysclk/cy_sysclk.c ****                                                 ((ttref > testval) ? divval :
 1384              		.loc 1 412 0
 1385 02b0 1223     		movs	r3, #18
 1386 02b2 FF33     		adds	r3, r3, #255
 1387 02b4 9845     		cmp	r8, r3
 1388 02b6 1AD0     		beq	.L99
 412:Generated_Source\PSoC6\pdl\drivers\peripheral\sysclk/cy_sysclk.c ****                                                 ((ttref > testval) ? divval :
 1389              		.loc 1 412 0 is_stmt 0 discriminator 1
 1390 02b8 291C     		adds	r1, r5, #0
 1391 02ba 301C     		adds	r0, r6, #0
 1392              	.LVL205:
 1393 02bc FFF7FEFF 		bl	__aeabi_fcmpgt
 1394              	.LVL206:
 1395 02c0 0028     		cmp	r0, #0
 1396 02c2 04D0     		beq	.L104
 412:Generated_Source\PSoC6\pdl\drivers\peripheral\sysclk/cy_sysclk.c ****                                                 ((ttref > testval) ? divval :
 1397              		.loc 1 412 0 discriminator 3
 1398 02c4 201C     		adds	r0, r4, #0
 1399 02c6 FFF7FEFF 		bl	__aeabi_f2uiz
 1400              	.LVL207:
 1401 02ca 83B2     		uxth	r3, r0
 1402 02cc 10E0     		b	.L87
 1403              	.L104:
 412:Generated_Source\PSoC6\pdl\drivers\peripheral\sysclk/cy_sysclk.c ****                                                 ((ttref > testval) ? divval :
 1404              		.loc 1 412 0 discriminator 4
 1405 02ce 391C     		adds	r1, r7, #0
 1406 02d0 201C     		adds	r0, r4, #0
 1407 02d2 FFF7FEFF 		bl	__aeabi_fcmpgt
 1408              	.LVL208:
 1409 02d6 0028     		cmp	r0, #0
 1410 02d8 04D0     		beq	.L105
 412:Generated_Source\PSoC6\pdl\drivers\peripheral\sysclk/cy_sysclk.c ****                                                 ((ttref > testval) ? divval :
 1411              		.loc 1 412 0 discriminator 6
 1412 02da 201C     		adds	r0, r4, #0
 1413 02dc FFF7FEFF 		bl	__aeabi_f2uiz
 1414              	.LVL209:
 1415 02e0 83B2     		uxth	r3, r0
 1416 02e2 05E0     		b	.L87
 1417              	.L105:
 412:Generated_Source\PSoC6\pdl\drivers\peripheral\sysclk/cy_sysclk.c ****                                                 ((ttref > testval) ? divval :
 1418              		.loc 1 412 0 discriminator 7
ARM GAS  C:\Users\kiwamu\AppData\Local\Temp\ccIx7zyv.s 			page 36


 1419 02e4 381C     		adds	r0, r7, #0
 1420 02e6 FFF7FEFF 		bl	__aeabi_f2uiz
 1421              	.LVL210:
 1422 02ea 83B2     		uxth	r3, r0
 1423 02ec 00E0     		b	.L87
 1424              	.LVL211:
 1425              	.L99:
 412:Generated_Source\PSoC6\pdl\drivers\peripheral\sysclk/cy_sysclk.c ****                                                 ((ttref > testval) ? divval :
 1426              		.loc 1 412 0
 1427 02ee C823     		movs	r3, #200
 1428              	.LVL212:
 1429              	.L87:
 412:Generated_Source\PSoC6\pdl\drivers\peripheral\sysclk/cy_sysclk.c ****                                                 ((ttref > testval) ? divval :
 1430              		.loc 1 412 0 discriminator 12
 1431 02f0 05A8     		add	r0, sp, #20
 1432 02f2 8381     		strh	r3, [r0, #12]
 1433              	.LBE36:
 417:Generated_Source\PSoC6\pdl\drivers\peripheral\sysclk/cy_sysclk.c ****         } /* if not bypass output mode */
 1434              		.loc 1 417 0 is_stmt 1 discriminator 12
 1435 02f4 FFF7FEFF 		bl	Cy_SysClk_FllManualConfigure
 1436              	.LVL213:
 1437              	.LBE33:
 1438 02f8 0BE0     		b	.L73
 1439              	.LVL214:
 1440              	.L74:
 423:Generated_Source\PSoC6\pdl\drivers\peripheral\sysclk/cy_sysclk.c ****         }
 1441              		.loc 1 423 0
 1442 02fa 084C     		ldr	r4, .L106
 1443              	.LVL215:
 1444 02fc B121     		movs	r1, #177
 1445 02fe C900     		lsls	r1, r1, #3
 1446 0300 6258     		ldr	r2, [r4, r1]
 1447 0302 164B     		ldr	r3, .L106+64
 1448 0304 1A40     		ands	r2, r3
 1449 0306 3607     		lsls	r6, r6, #28
 1450 0308 C023     		movs	r3, #192
 1451 030a 9B05     		lsls	r3, r3, #22
 1452 030c 1E40     		ands	r6, r3
 1453 030e 1643     		orrs	r6, r2
 1454 0310 6650     		str	r6, [r4, r1]
 1455              	.LVL216:
 1456              	.L73:
 428:Generated_Source\PSoC6\pdl\drivers\peripheral\sysclk/cy_sysclk.c **** 
 1457              		.loc 1 428 0
 1458 0312 21B0     		add	sp, sp, #132
 1459              		@ sp needed
 1460 0314 0CBC     		pop	{r2, r3}
 1461 0316 9046     		mov	r8, r2
 1462 0318 9A46     		mov	r10, r3
 1463 031a F0BD     		pop	{r4, r5, r6, r7, pc}
 1464              	.L107:
 1465              		.align	2
 1466              	.L106:
 1467 031c 00002640 		.word	1076232192
 1468 0320 00AB8704 		.word	76000000
 1469 0324 00CA91FE 		.word	-24000000
 1470 0328 CDCC0C40 		.word	1074580685
ARM GAS  C:\Users\kiwamu\AppData\Local\Temp\ccIx7zyv.s 			page 37


 1471 032c 03004A00 		.word	4849667
 1472 0330 01004A00 		.word	4849665
 1473 0334 7FFEF508 		.word	150339199
 1474 0338 E362BC06 		.word	113009379
 1475 033c DB361005 		.word	84948699
 1476 0340 EF5BCE03 		.word	63855599
 1477 0344 00000000 		.word	.LANCHOR0
 1478 0348 F6259B3C 		.word	1016800758
 1479 034c 00007A44 		.word	1148846080
 1480 0350 9A99593F 		.word	1062836634
 1481 0354 0080BB45 		.word	1169915904
 1482 0358 BD378635 		.word	897988541
 1483 035c FFFFFFCF 		.word	-805306369
 1484              		.cfi_endproc
 1485              	.LFE143:
 1486              		.size	Cy_SysClk_FllConfigure, .-Cy_SysClk_FllConfigure
 1487              		.section	.text.Cy_SysClk_FllGetConfiguration,"ax",%progbits
 1488              		.align	2
 1489              		.global	Cy_SysClk_FllGetConfiguration
 1490              		.code	16
 1491              		.thumb_func
 1492              		.type	Cy_SysClk_FllGetConfiguration, %function
 1493              	Cy_SysClk_FllGetConfiguration:
 1494              	.LFB145:
 500:Generated_Source\PSoC6\pdl\drivers\peripheral\sysclk/cy_sysclk.c **** 
 501:Generated_Source\PSoC6\pdl\drivers\peripheral\sysclk/cy_sysclk.c **** /*******************************************************************************
 502:Generated_Source\PSoC6\pdl\drivers\peripheral\sysclk/cy_sysclk.c **** * Function Name: Cy_SysClk_FllGetConfiguration
 503:Generated_Source\PSoC6\pdl\drivers\peripheral\sysclk/cy_sysclk.c **** ****************************************************************************//**
 504:Generated_Source\PSoC6\pdl\drivers\peripheral\sysclk/cy_sysclk.c **** *
 505:Generated_Source\PSoC6\pdl\drivers\peripheral\sysclk/cy_sysclk.c **** * Reports the FLL configuration settings.
 506:Generated_Source\PSoC6\pdl\drivers\peripheral\sysclk/cy_sysclk.c **** *
 507:Generated_Source\PSoC6\pdl\drivers\peripheral\sysclk/cy_sysclk.c **** * \param config \ref cy_stc_fll_manual_config_t
 508:Generated_Source\PSoC6\pdl\drivers\peripheral\sysclk/cy_sysclk.c **** *
 509:Generated_Source\PSoC6\pdl\drivers\peripheral\sysclk/cy_sysclk.c **** *******************************************************************************/
 510:Generated_Source\PSoC6\pdl\drivers\peripheral\sysclk/cy_sysclk.c **** void Cy_SysClk_FllGetConfiguration(cy_stc_fll_manual_config_t *config)
 511:Generated_Source\PSoC6\pdl\drivers\peripheral\sysclk/cy_sysclk.c **** {
 1495              		.loc 1 511 0
 1496              		.cfi_startproc
 1497              		@ args = 0, pretend = 0, frame = 0
 1498              		@ frame_needed = 0, uses_anonymous_args = 0
 1499              	.LVL217:
 1500 0000 10B5     		push	{r4, lr}
 1501              		.cfi_def_cfa_offset 8
 1502              		.cfi_offset 4, -8
 1503              		.cfi_offset 14, -4
 1504 0002 041E     		subs	r4, r0, #0
 512:Generated_Source\PSoC6\pdl\drivers\peripheral\sysclk/cy_sysclk.c ****     CY_ASSERT_L1(config != NULL);
 1505              		.loc 1 512 0
 1506 0004 04D1     		bne	.L109
 1507              		.loc 1 512 0 is_stmt 0 discriminator 1
 1508 0006 8021     		movs	r1, #128
 1509 0008 8900     		lsls	r1, r1, #2
 1510 000a 1848     		ldr	r0, .L110
 1511              	.LVL218:
 1512 000c FFF7FEFF 		bl	Cy_SysLib_AssertFailed
 1513              	.LVL219:
 1514              	.L109:
ARM GAS  C:\Users\kiwamu\AppData\Local\Temp\ccIx7zyv.s 			page 38


 513:Generated_Source\PSoC6\pdl\drivers\peripheral\sysclk/cy_sysclk.c ****     /* read 2 parameters from CLK_FLL_CONFIG register */
 514:Generated_Source\PSoC6\pdl\drivers\peripheral\sysclk/cy_sysclk.c ****     uint32_t tempReg = SRSS->CLK_FLL_CONFIG;
 1515              		.loc 1 514 0 is_stmt 1
 1516 0010 1749     		ldr	r1, .L110+4
 1517 0012 B023     		movs	r3, #176
 1518 0014 DB00     		lsls	r3, r3, #3
 1519 0016 CB58     		ldr	r3, [r1, r3]
 1520              	.LVL220:
 515:Generated_Source\PSoC6\pdl\drivers\peripheral\sysclk/cy_sysclk.c ****     config->fllMult         = _FLD2VAL(SRSS_CLK_FLL_CONFIG_FLL_MULT, tempReg);
 1521              		.loc 1 515 0
 1522 0018 9A03     		lsls	r2, r3, #14
 1523 001a 920B     		lsrs	r2, r2, #14
 1524 001c 2260     		str	r2, [r4]
 516:Generated_Source\PSoC6\pdl\drivers\peripheral\sysclk/cy_sysclk.c ****     config->enableOutputDiv = (bool)_FLD2VAL(SRSS_CLK_FLL_CONFIG_FLL_OUTPUT_DIV, tempReg);
 1525              		.loc 1 516 0
 1526 001e 1B0E     		lsrs	r3, r3, #24
 1527              	.LVL221:
 1528 0020 0122     		movs	r2, #1
 1529 0022 1340     		ands	r3, r2
 1530 0024 E371     		strb	r3, [r4, #7]
 517:Generated_Source\PSoC6\pdl\drivers\peripheral\sysclk/cy_sysclk.c ****     /* read 2 parameters from CLK_FLL_CONFIG2 register */
 518:Generated_Source\PSoC6\pdl\drivers\peripheral\sysclk/cy_sysclk.c ****     tempReg = SRSS->CLK_FLL_CONFIG2;
 1531              		.loc 1 518 0
 1532 0026 134B     		ldr	r3, .L110+8
 1533 0028 CB58     		ldr	r3, [r1, r3]
 1534              	.LVL222:
 519:Generated_Source\PSoC6\pdl\drivers\peripheral\sysclk/cy_sysclk.c ****     config->refDiv          = _FLD2VAL(SRSS_CLK_FLL_CONFIG2_FLL_REF_DIV, tempReg);
 1535              		.loc 1 519 0
 1536 002a DA04     		lsls	r2, r3, #19
 1537 002c D20C     		lsrs	r2, r2, #19
 1538 002e A280     		strh	r2, [r4, #4]
 520:Generated_Source\PSoC6\pdl\drivers\peripheral\sysclk/cy_sysclk.c ****     config->lockTolerance   = _FLD2VAL(SRSS_CLK_FLL_CONFIG2_LOCK_TOL, tempReg);
 1539              		.loc 1 520 0
 1540 0030 1B0C     		lsrs	r3, r3, #16
 1541              	.LVL223:
 1542 0032 DB05     		lsls	r3, r3, #23
 1543 0034 DB0D     		lsrs	r3, r3, #23
 1544 0036 2381     		strh	r3, [r4, #8]
 521:Generated_Source\PSoC6\pdl\drivers\peripheral\sysclk/cy_sysclk.c ****     /* read 4 parameters from CLK_FLL_CONFIG3 register */
 522:Generated_Source\PSoC6\pdl\drivers\peripheral\sysclk/cy_sysclk.c ****     tempReg = SRSS->CLK_FLL_CONFIG3;
 1545              		.loc 1 522 0
 1546 0038 B123     		movs	r3, #177
 1547 003a DB00     		lsls	r3, r3, #3
 1548 003c CB58     		ldr	r3, [r1, r3]
 1549              	.LVL224:
 523:Generated_Source\PSoC6\pdl\drivers\peripheral\sysclk/cy_sysclk.c ****     config->igain           = _FLD2VAL(SRSS_CLK_FLL_CONFIG3_FLL_LF_IGAIN, tempReg);
 1550              		.loc 1 523 0
 1551 003e 0F20     		movs	r0, #15
 1552 0040 0200     		movs	r2, r0
 1553 0042 1A40     		ands	r2, r3
 1554 0044 A272     		strb	r2, [r4, #10]
 524:Generated_Source\PSoC6\pdl\drivers\peripheral\sysclk/cy_sysclk.c ****     config->pgain           = _FLD2VAL(SRSS_CLK_FLL_CONFIG3_FLL_LF_PGAIN, tempReg);
 1555              		.loc 1 524 0
 1556 0046 1A09     		lsrs	r2, r3, #4
 1557 0048 0240     		ands	r2, r0
 1558 004a E272     		strb	r2, [r4, #11]
 525:Generated_Source\PSoC6\pdl\drivers\peripheral\sysclk/cy_sysclk.c ****     config->settlingCount   = _FLD2VAL(SRSS_CLK_FLL_CONFIG3_SETTLING_COUNT, tempReg);
ARM GAS  C:\Users\kiwamu\AppData\Local\Temp\ccIx7zyv.s 			page 39


 1559              		.loc 1 525 0
 1560 004c 1A0A     		lsrs	r2, r3, #8
 1561 004e D204     		lsls	r2, r2, #19
 1562 0050 D20C     		lsrs	r2, r2, #19
 1563 0052 A281     		strh	r2, [r4, #12]
 526:Generated_Source\PSoC6\pdl\drivers\peripheral\sysclk/cy_sysclk.c ****     config->outputMode      = (cy_en_fll_pll_output_mode_t)_FLD2VAL(SRSS_CLK_FLL_CONFIG3_BYPASS_SEL
 1564              		.loc 1 526 0
 1565 0054 1B0F     		lsrs	r3, r3, #28
 1566              	.LVL225:
 1567 0056 0322     		movs	r2, #3
 1568 0058 1340     		ands	r3, r2
 1569 005a A373     		strb	r3, [r4, #14]
 527:Generated_Source\PSoC6\pdl\drivers\peripheral\sysclk/cy_sysclk.c ****     /* read 1 parameter from CLK_FLL_CONFIG4 register */
 528:Generated_Source\PSoC6\pdl\drivers\peripheral\sysclk/cy_sysclk.c ****     config->ccoRange        = (cy_en_fll_cco_ranges_t)_FLD2VAL(SRSS_CLK_FLL_CONFIG4_CCO_RANGE, SRSS
 1570              		.loc 1 528 0
 1571 005c 064B     		ldr	r3, .L110+12
 1572 005e CB58     		ldr	r3, [r1, r3]
 1573 0060 1B0A     		lsrs	r3, r3, #8
 1574 0062 0432     		adds	r2, r2, #4
 1575 0064 1340     		ands	r3, r2
 1576 0066 A371     		strb	r3, [r4, #6]
 529:Generated_Source\PSoC6\pdl\drivers\peripheral\sysclk/cy_sysclk.c **** }
 1577              		.loc 1 529 0
 1578              		@ sp needed
 1579              	.LVL226:
 1580 0068 10BD     		pop	{r4, pc}
 1581              	.L111:
 1582 006a C046     		.align	2
 1583              	.L110:
 1584 006c 00000000 		.word	.LC3
 1585 0070 00002640 		.word	1076232192
 1586 0074 84050000 		.word	1412
 1587 0078 8C050000 		.word	1420
 1588              		.cfi_endproc
 1589              	.LFE145:
 1590              		.size	Cy_SysClk_FllGetConfiguration, .-Cy_SysClk_FllGetConfiguration
 1591              		.section	.text.Cy_SysClk_FllEnable,"ax",%progbits
 1592              		.align	2
 1593              		.global	Cy_SysClk_FllEnable
 1594              		.code	16
 1595              		.thumb_func
 1596              		.type	Cy_SysClk_FllEnable, %function
 1597              	Cy_SysClk_FllEnable:
 1598              	.LFB146:
 530:Generated_Source\PSoC6\pdl\drivers\peripheral\sysclk/cy_sysclk.c **** 
 531:Generated_Source\PSoC6\pdl\drivers\peripheral\sysclk/cy_sysclk.c **** /*******************************************************************************
 532:Generated_Source\PSoC6\pdl\drivers\peripheral\sysclk/cy_sysclk.c **** * Function Name: Cy_SysClk_FllEnable
 533:Generated_Source\PSoC6\pdl\drivers\peripheral\sysclk/cy_sysclk.c **** ****************************************************************************//**
 534:Generated_Source\PSoC6\pdl\drivers\peripheral\sysclk/cy_sysclk.c **** *
 535:Generated_Source\PSoC6\pdl\drivers\peripheral\sysclk/cy_sysclk.c **** * Enables the FLL. The FLL should be configured before calling this function.
 536:Generated_Source\PSoC6\pdl\drivers\peripheral\sysclk/cy_sysclk.c **** *
 537:Generated_Source\PSoC6\pdl\drivers\peripheral\sysclk/cy_sysclk.c **** * \param timeoutus amount of time in micro seconds to wait for FLL to lock.
 538:Generated_Source\PSoC6\pdl\drivers\peripheral\sysclk/cy_sysclk.c **** * If lock doesn't occur, FLL is stopped. To avoid waiting for lock set this to 0,
 539:Generated_Source\PSoC6\pdl\drivers\peripheral\sysclk/cy_sysclk.c **** * and manually check for lock using \ref Cy_SysClk_FllLocked.
 540:Generated_Source\PSoC6\pdl\drivers\peripheral\sysclk/cy_sysclk.c **** *
 541:Generated_Source\PSoC6\pdl\drivers\peripheral\sysclk/cy_sysclk.c **** * \return Error / status code:<br>
 542:Generated_Source\PSoC6\pdl\drivers\peripheral\sysclk/cy_sysclk.c **** * CY_SYSCLK_SUCCESS - FLL successfully enabled<br>
ARM GAS  C:\Users\kiwamu\AppData\Local\Temp\ccIx7zyv.s 			page 40


 543:Generated_Source\PSoC6\pdl\drivers\peripheral\sysclk/cy_sysclk.c **** * CY_SYSCLK_TIMEOUT - Timeout waiting for FLL lock
 544:Generated_Source\PSoC6\pdl\drivers\peripheral\sysclk/cy_sysclk.c **** *
 545:Generated_Source\PSoC6\pdl\drivers\peripheral\sysclk/cy_sysclk.c **** * \note
 546:Generated_Source\PSoC6\pdl\drivers\peripheral\sysclk/cy_sysclk.c **** * While waiting for the FLL to lock, the FLL bypass mode is set to \ref CY_SYSCLK_FLLPLL_OUTPUT_INP
 547:Generated_Source\PSoC6\pdl\drivers\peripheral\sysclk/cy_sysclk.c **** * After the FLL is locked, the FLL bypass mdoe is then set to \ref CY_SYSCLK_FLLPLL_OUTPUT_OUTPUT.
 548:Generated_Source\PSoC6\pdl\drivers\peripheral\sysclk/cy_sysclk.c **** *******************************************************************************/
 549:Generated_Source\PSoC6\pdl\drivers\peripheral\sysclk/cy_sysclk.c **** cy_en_sysclk_status_t Cy_SysClk_FllEnable(uint32_t timeoutus)
 550:Generated_Source\PSoC6\pdl\drivers\peripheral\sysclk/cy_sysclk.c **** {
 1599              		.loc 1 550 0
 1600              		.cfi_startproc
 1601              		@ args = 0, pretend = 0, frame = 0
 1602              		@ frame_needed = 0, uses_anonymous_args = 0
 1603              	.LVL227:
 1604 0000 70B5     		push	{r4, r5, r6, lr}
 1605              		.cfi_def_cfa_offset 16
 1606              		.cfi_offset 4, -16
 1607              		.cfi_offset 5, -12
 1608              		.cfi_offset 6, -8
 1609              		.cfi_offset 14, -4
 1610 0002 0500     		movs	r5, r0
 1611              	.LVL228:
 551:Generated_Source\PSoC6\pdl\drivers\peripheral\sysclk/cy_sysclk.c ****     cy_en_sysclk_status_t rtnval;
 552:Generated_Source\PSoC6\pdl\drivers\peripheral\sysclk/cy_sysclk.c ****     bool nonZeroTimeout = (timeoutus != 0ul);
 553:Generated_Source\PSoC6\pdl\drivers\peripheral\sysclk/cy_sysclk.c **** 
 554:Generated_Source\PSoC6\pdl\drivers\peripheral\sysclk/cy_sysclk.c ****     /* first set the CCO enable bit */
 555:Generated_Source\PSoC6\pdl\drivers\peripheral\sysclk/cy_sysclk.c ****     SRSS->CLK_FLL_CONFIG4 |= _VAL2FLD(SRSS_CLK_FLL_CONFIG4_CCO_ENABLE, 1ul); /* 1 = enable */
 1612              		.loc 1 555 0
 1613 0004 2D49     		ldr	r1, .L125
 1614 0006 2E4A     		ldr	r2, .L125+4
 1615 0008 8B58     		ldr	r3, [r1, r2]
 1616 000a 8020     		movs	r0, #128
 1617              	.LVL229:
 1618 000c 0006     		lsls	r0, r0, #24
 1619 000e 0343     		orrs	r3, r0
 1620 0010 8B50     		str	r3, [r1, r2]
 556:Generated_Source\PSoC6\pdl\drivers\peripheral\sysclk/cy_sysclk.c **** 
 557:Generated_Source\PSoC6\pdl\drivers\peripheral\sysclk/cy_sysclk.c ****     /* Wait until CCO is ready */
 558:Generated_Source\PSoC6\pdl\drivers\peripheral\sysclk/cy_sysclk.c ****     for (; (_FLD2VAL(SRSS_CLK_FLL_STATUS_CCO_READY, SRSS->CLK_FLL_STATUS) == 0ul) &&
 1621              		.loc 1 558 0
 1622 0012 2C00     		movs	r4, r5
 1623 0014 03E0     		b	.L113
 1624              	.LVL230:
 1625              	.L115:
 559:Generated_Source\PSoC6\pdl\drivers\peripheral\sysclk/cy_sysclk.c ****            (timeoutus != 0ul);
 560:Generated_Source\PSoC6\pdl\drivers\peripheral\sysclk/cy_sysclk.c ****          timeoutus--)
 561:Generated_Source\PSoC6\pdl\drivers\peripheral\sysclk/cy_sysclk.c ****     {
 562:Generated_Source\PSoC6\pdl\drivers\peripheral\sysclk/cy_sysclk.c ****         Cy_SysLib_DelayUs(1u);
 1626              		.loc 1 562 0
 1627 0016 0120     		movs	r0, #1
 1628 0018 FFF7FEFF 		bl	Cy_SysLib_DelayUs
 1629              	.LVL231:
 560:Generated_Source\PSoC6\pdl\drivers\peripheral\sysclk/cy_sysclk.c ****     {
 1630              		.loc 1 560 0
 1631 001c 013C     		subs	r4, r4, #1
 1632              	.LVL232:
 1633              	.L113:
 558:Generated_Source\PSoC6\pdl\drivers\peripheral\sysclk/cy_sysclk.c ****            (timeoutus != 0ul);
ARM GAS  C:\Users\kiwamu\AppData\Local\Temp\ccIx7zyv.s 			page 41


 1634              		.loc 1 558 0
 1635 001e B223     		movs	r3, #178
 1636 0020 DB00     		lsls	r3, r3, #3
 1637 0022 264A     		ldr	r2, .L125
 1638 0024 D358     		ldr	r3, [r2, r3]
 1639 0026 5B07     		lsls	r3, r3, #29
 1640 0028 01D4     		bmi	.L114
 558:Generated_Source\PSoC6\pdl\drivers\peripheral\sysclk/cy_sysclk.c ****            (timeoutus != 0ul);
 1641              		.loc 1 558 0 is_stmt 0 discriminator 1
 1642 002a 002C     		cmp	r4, #0
 1643 002c F3D1     		bne	.L115
 1644              	.L114:
 563:Generated_Source\PSoC6\pdl\drivers\peripheral\sysclk/cy_sysclk.c ****     }
 564:Generated_Source\PSoC6\pdl\drivers\peripheral\sysclk/cy_sysclk.c **** 
 565:Generated_Source\PSoC6\pdl\drivers\peripheral\sysclk/cy_sysclk.c ****     /* Set the FLL bypass mode to 2 */
 566:Generated_Source\PSoC6\pdl\drivers\peripheral\sysclk/cy_sysclk.c ****     CY_SYSCLK_CLR_SET(SRSS->CLK_FLL_CONFIG3, SRSS_CLK_FLL_CONFIG3_BYPASS_SEL, (uint32_t)CY_SYSCLK_F
 1645              		.loc 1 566 0 is_stmt 1
 1646 002e 2349     		ldr	r1, .L125
 1647 0030 B122     		movs	r2, #177
 1648 0032 D200     		lsls	r2, r2, #3
 1649 0034 8858     		ldr	r0, [r1, r2]
 1650 0036 234B     		ldr	r3, .L125+8
 1651 0038 0340     		ands	r3, r0
 1652 003a 8020     		movs	r0, #128
 1653 003c 8005     		lsls	r0, r0, #22
 1654 003e 0343     		orrs	r3, r0
 1655 0040 8B50     		str	r3, [r1, r2]
 567:Generated_Source\PSoC6\pdl\drivers\peripheral\sysclk/cy_sysclk.c **** 
 568:Generated_Source\PSoC6\pdl\drivers\peripheral\sysclk/cy_sysclk.c ****     /* Set the FLL enable bit, if CCO is ready */
 569:Generated_Source\PSoC6\pdl\drivers\peripheral\sysclk/cy_sysclk.c ****     if ((!nonZeroTimeout) || (nonZeroTimeout && (timeoutus != 0ul)))
 1656              		.loc 1 569 0
 1657 0042 002D     		cmp	r5, #0
 1658 0044 02D0     		beq	.L116
 1659              		.loc 1 569 0 is_stmt 0 discriminator 1
 1660 0046 0ED0     		beq	.L118
 1661              		.loc 1 569 0 discriminator 2
 1662 0048 002C     		cmp	r4, #0
 1663 004a 0CD0     		beq	.L118
 1664              	.L116:
 570:Generated_Source\PSoC6\pdl\drivers\peripheral\sysclk/cy_sysclk.c ****     {
 571:Generated_Source\PSoC6\pdl\drivers\peripheral\sysclk/cy_sysclk.c ****         SRSS->CLK_FLL_CONFIG |= _VAL2FLD(SRSS_CLK_FLL_CONFIG_FLL_ENABLE, 1ul); /* 1 = enable */
 1665              		.loc 1 571 0 is_stmt 1
 1666 004c 1B49     		ldr	r1, .L125
 1667 004e B022     		movs	r2, #176
 1668 0050 D200     		lsls	r2, r2, #3
 1669 0052 8B58     		ldr	r3, [r1, r2]
 1670 0054 8020     		movs	r0, #128
 1671 0056 0006     		lsls	r0, r0, #24
 1672 0058 0343     		orrs	r3, r0
 1673 005a 8B50     		str	r3, [r1, r2]
 1674 005c 03E0     		b	.L118
 1675              	.L120:
 572:Generated_Source\PSoC6\pdl\drivers\peripheral\sysclk/cy_sysclk.c ****     }
 573:Generated_Source\PSoC6\pdl\drivers\peripheral\sysclk/cy_sysclk.c **** 
 574:Generated_Source\PSoC6\pdl\drivers\peripheral\sysclk/cy_sysclk.c ****     /* now do the timeout wait for FLL_STATUS, bit LOCKED */
 575:Generated_Source\PSoC6\pdl\drivers\peripheral\sysclk/cy_sysclk.c ****     for (; (_FLD2VAL(SRSS_CLK_FLL_STATUS_LOCKED, SRSS->CLK_FLL_STATUS) == 0ul) &&
 576:Generated_Source\PSoC6\pdl\drivers\peripheral\sysclk/cy_sysclk.c ****            (timeoutus != 0ul);
ARM GAS  C:\Users\kiwamu\AppData\Local\Temp\ccIx7zyv.s 			page 42


 577:Generated_Source\PSoC6\pdl\drivers\peripheral\sysclk/cy_sysclk.c ****          timeoutus--)
 578:Generated_Source\PSoC6\pdl\drivers\peripheral\sysclk/cy_sysclk.c ****     {
 579:Generated_Source\PSoC6\pdl\drivers\peripheral\sysclk/cy_sysclk.c ****         Cy_SysLib_DelayUs(1u);
 1676              		.loc 1 579 0
 1677 005e 0120     		movs	r0, #1
 1678 0060 FFF7FEFF 		bl	Cy_SysLib_DelayUs
 1679              	.LVL233:
 577:Generated_Source\PSoC6\pdl\drivers\peripheral\sysclk/cy_sysclk.c ****     {
 1680              		.loc 1 577 0
 1681 0064 013C     		subs	r4, r4, #1
 1682              	.LVL234:
 1683              	.L118:
 575:Generated_Source\PSoC6\pdl\drivers\peripheral\sysclk/cy_sysclk.c ****            (timeoutus != 0ul);
 1684              		.loc 1 575 0
 1685 0066 B223     		movs	r3, #178
 1686 0068 DB00     		lsls	r3, r3, #3
 1687 006a 144A     		ldr	r2, .L125
 1688 006c D358     		ldr	r3, [r2, r3]
 1689 006e DB07     		lsls	r3, r3, #31
 1690 0070 01D4     		bmi	.L119
 575:Generated_Source\PSoC6\pdl\drivers\peripheral\sysclk/cy_sysclk.c ****            (timeoutus != 0ul);
 1691              		.loc 1 575 0 is_stmt 0 discriminator 1
 1692 0072 002C     		cmp	r4, #0
 1693 0074 F3D1     		bne	.L120
 1694              	.L119:
 580:Generated_Source\PSoC6\pdl\drivers\peripheral\sysclk/cy_sysclk.c ****     }
 581:Generated_Source\PSoC6\pdl\drivers\peripheral\sysclk/cy_sysclk.c **** 
 582:Generated_Source\PSoC6\pdl\drivers\peripheral\sysclk/cy_sysclk.c ****     /* If lock doesn't occur, FLL is stopped. */
 583:Generated_Source\PSoC6\pdl\drivers\peripheral\sysclk/cy_sysclk.c ****     if (nonZeroTimeout && (timeoutus == 0ul))
 1695              		.loc 1 583 0 is_stmt 1
 1696 0076 002D     		cmp	r5, #0
 1697 0078 0ED0     		beq	.L121
 1698              		.loc 1 583 0 is_stmt 0 discriminator 1
 1699 007a 002C     		cmp	r4, #0
 1700 007c 0CD1     		bne	.L121
 1701              	.LBB37:
 1702              	.LBB38:
 1703              		.file 2 "Generated_Source\\PSoC6\\pdl\\drivers\\peripheral\\sysclk\\cy_sysclk.h"
   1:Generated_Source\PSoC6\pdl\drivers\peripheral\sysclk/cy_sysclk.h **** /***************************************************************************//**
   2:Generated_Source\PSoC6\pdl\drivers\peripheral\sysclk/cy_sysclk.h **** * \file cy_sysclk.h
   3:Generated_Source\PSoC6\pdl\drivers\peripheral\sysclk/cy_sysclk.h **** * \version 1.10
   4:Generated_Source\PSoC6\pdl\drivers\peripheral\sysclk/cy_sysclk.h **** *
   5:Generated_Source\PSoC6\pdl\drivers\peripheral\sysclk/cy_sysclk.h **** * Provides an API declaration of the sysclk driver.
   6:Generated_Source\PSoC6\pdl\drivers\peripheral\sysclk/cy_sysclk.h **** *
   7:Generated_Source\PSoC6\pdl\drivers\peripheral\sysclk/cy_sysclk.h **** ********************************************************************************
   8:Generated_Source\PSoC6\pdl\drivers\peripheral\sysclk/cy_sysclk.h **** * \copyright
   9:Generated_Source\PSoC6\pdl\drivers\peripheral\sysclk/cy_sysclk.h **** * Copyright 2016-2017, Cypress Semiconductor Corporation. All rights reserved.
  10:Generated_Source\PSoC6\pdl\drivers\peripheral\sysclk/cy_sysclk.h **** * You may use this file only in accordance with the license, terms, conditions,
  11:Generated_Source\PSoC6\pdl\drivers\peripheral\sysclk/cy_sysclk.h **** * disclaimers, and limitations in the end user license agreement accompanying
  12:Generated_Source\PSoC6\pdl\drivers\peripheral\sysclk/cy_sysclk.h **** * the software package with which this file was provided.
  13:Generated_Source\PSoC6\pdl\drivers\peripheral\sysclk/cy_sysclk.h **** *******************************************************************************/
  14:Generated_Source\PSoC6\pdl\drivers\peripheral\sysclk/cy_sysclk.h **** 
  15:Generated_Source\PSoC6\pdl\drivers\peripheral\sysclk/cy_sysclk.h **** /**
  16:Generated_Source\PSoC6\pdl\drivers\peripheral\sysclk/cy_sysclk.h **** * \defgroup group_sysclk System Clock (SysClk)
  17:Generated_Source\PSoC6\pdl\drivers\peripheral\sysclk/cy_sysclk.h **** * \{
  18:Generated_Source\PSoC6\pdl\drivers\peripheral\sysclk/cy_sysclk.h **** * The System Clock (SysClk) driver contains the API for configuring system and
  19:Generated_Source\PSoC6\pdl\drivers\peripheral\sysclk/cy_sysclk.h **** * peripheral clocks. Firmware uses the API to configure , enable, or disable
ARM GAS  C:\Users\kiwamu\AppData\Local\Temp\ccIx7zyv.s 			page 43


  20:Generated_Source\PSoC6\pdl\drivers\peripheral\sysclk/cy_sysclk.h **** * a clock.
  21:Generated_Source\PSoC6\pdl\drivers\peripheral\sysclk/cy_sysclk.h **** * 
  22:Generated_Source\PSoC6\pdl\drivers\peripheral\sysclk/cy_sysclk.h **** * The PSoC 6 clock system includes a variety of resources that can vary per
  23:Generated_Source\PSoC6\pdl\drivers\peripheral\sysclk/cy_sysclk.h **** * device, including:
  24:Generated_Source\PSoC6\pdl\drivers\peripheral\sysclk/cy_sysclk.h **** * - Internal clock sources such as internal oscillators
  25:Generated_Source\PSoC6\pdl\drivers\peripheral\sysclk/cy_sysclk.h **** * - External clock sources such as crystal oscillators or a signal on an I/O pin
  26:Generated_Source\PSoC6\pdl\drivers\peripheral\sysclk/cy_sysclk.h **** * - Generated clocks such as an FLL, a PLL, and peripheral clocks
  27:Generated_Source\PSoC6\pdl\drivers\peripheral\sysclk/cy_sysclk.h **** *
  28:Generated_Source\PSoC6\pdl\drivers\peripheral\sysclk/cy_sysclk.h **** * Consult the Technical Reference Manual for your device for details of the 
  29:Generated_Source\PSoC6\pdl\drivers\peripheral\sysclk/cy_sysclk.h **** * clock system.
  30:Generated_Source\PSoC6\pdl\drivers\peripheral\sysclk/cy_sysclk.h **** *
  31:Generated_Source\PSoC6\pdl\drivers\peripheral\sysclk/cy_sysclk.h **** * The PDL defines clock system capabilities in:\n
  32:Generated_Source\PSoC6\pdl\drivers\peripheral\sysclk/cy_sysclk.h **** * devices\<family\>/<series\>/include\<series\>_config.h. For example\n
  33:Generated_Source\PSoC6\pdl\drivers\peripheral\sysclk/cy_sysclk.h **** * devices/psoc6/psoc63/include/psoc63_config.h. User-configurable clock speeds 
  34:Generated_Source\PSoC6\pdl\drivers\peripheral\sysclk/cy_sysclk.h **** * are defined in the file system_<series>.h.
  35:Generated_Source\PSoC6\pdl\drivers\peripheral\sysclk/cy_sysclk.h **** *
  36:Generated_Source\PSoC6\pdl\drivers\peripheral\sysclk/cy_sysclk.h **** * This diagram represents the PSoC 63 series clock tree. The actual tree
  37:Generated_Source\PSoC6\pdl\drivers\peripheral\sysclk/cy_sysclk.h **** * may vary based on series.
  38:Generated_Source\PSoC6\pdl\drivers\peripheral\sysclk/cy_sysclk.h **** * ![](sysclk_tree.png)
  39:Generated_Source\PSoC6\pdl\drivers\peripheral\sysclk/cy_sysclk.h **** *
  40:Generated_Source\PSoC6\pdl\drivers\peripheral\sysclk/cy_sysclk.h **** * In addition to the clocks shown on the diagram, this driver also supports
  41:Generated_Source\PSoC6\pdl\drivers\peripheral\sysclk/cy_sysclk.h **** * multiple peripheral clocks, as well as the fast clock, slow clock, backup
  42:Generated_Source\PSoC6\pdl\drivers\peripheral\sysclk/cy_sysclk.h **** * domain clock, timer clock, and pump clock. There are also functions for 
  43:Generated_Source\PSoC6\pdl\drivers\peripheral\sysclk/cy_sysclk.h **** * clock measurement and trimming.
  44:Generated_Source\PSoC6\pdl\drivers\peripheral\sysclk/cy_sysclk.h **** *
  45:Generated_Source\PSoC6\pdl\drivers\peripheral\sysclk/cy_sysclk.h **** * The API for any given clock contains the functions to manage that clock. These
  46:Generated_Source\PSoC6\pdl\drivers\peripheral\sysclk/cy_sysclk.h **** * functions may include:
  47:Generated_Source\PSoC6\pdl\drivers\peripheral\sysclk/cy_sysclk.h **** * - Enable or Disable
  48:Generated_Source\PSoC6\pdl\drivers\peripheral\sysclk/cy_sysclk.h **** * - Get or Set Source
  49:Generated_Source\PSoC6\pdl\drivers\peripheral\sysclk/cy_sysclk.h **** * - Get or Set Divider
  50:Generated_Source\PSoC6\pdl\drivers\peripheral\sysclk/cy_sysclk.h **** * - Configure
  51:Generated_Source\PSoC6\pdl\drivers\peripheral\sysclk/cy_sysclk.h **** *
  52:Generated_Source\PSoC6\pdl\drivers\peripheral\sysclk/cy_sysclk.h **** * In the API reference for this driver, most clocks have
  53:Generated_Source\PSoC6\pdl\drivers\peripheral\sysclk/cy_sysclk.h **** * a dedicated section, so the information to manage that clock is in one
  54:Generated_Source\PSoC6\pdl\drivers\peripheral\sysclk/cy_sysclk.h **** * place. Use the left navigation menu to locate the desired information.
  55:Generated_Source\PSoC6\pdl\drivers\peripheral\sysclk/cy_sysclk.h **** *
  56:Generated_Source\PSoC6\pdl\drivers\peripheral\sysclk/cy_sysclk.h **** * \section group_sysclk_configuration Configuration Considerations
  57:Generated_Source\PSoC6\pdl\drivers\peripheral\sysclk/cy_sysclk.h **** * There are no general SysClk configuration concerns. 
  58:Generated_Source\PSoC6\pdl\drivers\peripheral\sysclk/cy_sysclk.h **** * Some clocks (for example the PLL) require configuration. For such a clock the
  59:Generated_Source\PSoC6\pdl\drivers\peripheral\sysclk/cy_sysclk.h **** * API typically provides a Configure function to set up the clock. See notes on
  60:Generated_Source\PSoC6\pdl\drivers\peripheral\sysclk/cy_sysclk.h **** * individual function definitions.
  61:Generated_Source\PSoC6\pdl\drivers\peripheral\sysclk/cy_sysclk.h **** * \warning When the device is in the Ultra-Low Power (ULP) mode, the maximum
  62:Generated_Source\PSoC6\pdl\drivers\peripheral\sysclk/cy_sysclk.h **** * frequency of some clocks is reduced. See the device datasheet for details.
  63:Generated_Source\PSoC6\pdl\drivers\peripheral\sysclk/cy_sysclk.h **** *
  64:Generated_Source\PSoC6\pdl\drivers\peripheral\sysclk/cy_sysclk.h **** *
  65:Generated_Source\PSoC6\pdl\drivers\peripheral\sysclk/cy_sysclk.h **** * \section group_sysclk_more_information More Information
  66:Generated_Source\PSoC6\pdl\drivers\peripheral\sysclk/cy_sysclk.h **** * See the Clock Component datasheet. See also the Clocking System chapter of
  67:Generated_Source\PSoC6\pdl\drivers\peripheral\sysclk/cy_sysclk.h **** * the device technical reference manual (TRM).
  68:Generated_Source\PSoC6\pdl\drivers\peripheral\sysclk/cy_sysclk.h **** *
  69:Generated_Source\PSoC6\pdl\drivers\peripheral\sysclk/cy_sysclk.h **** * \section group_sysclk_MISRA MISRA-C Compliance
  70:Generated_Source\PSoC6\pdl\drivers\peripheral\sysclk/cy_sysclk.h **** * <table class="doxtable">
  71:Generated_Source\PSoC6\pdl\drivers\peripheral\sysclk/cy_sysclk.h **** *   <tr>
  72:Generated_Source\PSoC6\pdl\drivers\peripheral\sysclk/cy_sysclk.h **** *     <th>MISRA Rule</th>
  73:Generated_Source\PSoC6\pdl\drivers\peripheral\sysclk/cy_sysclk.h **** *     <th>Rule Class (Required/Advisory)</th>
  74:Generated_Source\PSoC6\pdl\drivers\peripheral\sysclk/cy_sysclk.h **** *     <th>Rule Description</th>
  75:Generated_Source\PSoC6\pdl\drivers\peripheral\sysclk/cy_sysclk.h **** *     <th>Description of Deviation(s)</th>
  76:Generated_Source\PSoC6\pdl\drivers\peripheral\sysclk/cy_sysclk.h **** *   </tr>
ARM GAS  C:\Users\kiwamu\AppData\Local\Temp\ccIx7zyv.s 			page 44


  77:Generated_Source\PSoC6\pdl\drivers\peripheral\sysclk/cy_sysclk.h **** *   <tr>
  78:Generated_Source\PSoC6\pdl\drivers\peripheral\sysclk/cy_sysclk.h **** *     <td>1.2</td>
  79:Generated_Source\PSoC6\pdl\drivers\peripheral\sysclk/cy_sysclk.h **** *     <td>R</td>
  80:Generated_Source\PSoC6\pdl\drivers\peripheral\sysclk/cy_sysclk.h **** *     <td>No reliance on undefined behavior.</td>
  81:Generated_Source\PSoC6\pdl\drivers\peripheral\sysclk/cy_sysclk.h **** *     <td>Calculation of an absolute value in the FLL and PLL configuration.</td>
  82:Generated_Source\PSoC6\pdl\drivers\peripheral\sysclk/cy_sysclk.h **** *   </tr>
  83:Generated_Source\PSoC6\pdl\drivers\peripheral\sysclk/cy_sysclk.h **** *   <tr>
  84:Generated_Source\PSoC6\pdl\drivers\peripheral\sysclk/cy_sysclk.h **** *     <td>5.6</td>
  85:Generated_Source\PSoC6\pdl\drivers\peripheral\sysclk/cy_sysclk.h **** *     <td>R</td>
  86:Generated_Source\PSoC6\pdl\drivers\peripheral\sysclk/cy_sysclk.h **** *     <td>No identifier in one name space should have the same spelling as an identifier in another
  87:Generated_Source\PSoC6\pdl\drivers\peripheral\sysclk/cy_sysclk.h **** *         exception of structure member and union member names.</td>
  88:Generated_Source\PSoC6\pdl\drivers\peripheral\sysclk/cy_sysclk.h **** *     <td>The "mode" and "retval" are used as a structure/union member they are a label, tag or ord
  89:Generated_Source\PSoC6\pdl\drivers\peripheral\sysclk/cy_sysclk.h **** *         identifier.</td>
  90:Generated_Source\PSoC6\pdl\drivers\peripheral\sysclk/cy_sysclk.h **** *   </tr>
  91:Generated_Source\PSoC6\pdl\drivers\peripheral\sysclk/cy_sysclk.h **** *   <tr>
  92:Generated_Source\PSoC6\pdl\drivers\peripheral\sysclk/cy_sysclk.h **** *     <td>10.1</td>
  93:Generated_Source\PSoC6\pdl\drivers\peripheral\sysclk/cy_sysclk.h **** *     <td>R</td>
  94:Generated_Source\PSoC6\pdl\drivers\peripheral\sysclk/cy_sysclk.h **** *     <td>The value of an expression of integer type shall not be implicitly converted to a differe
  95:Generated_Source\PSoC6\pdl\drivers\peripheral\sysclk/cy_sysclk.h **** *         if the expression is complex.</td>
  96:Generated_Source\PSoC6\pdl\drivers\peripheral\sysclk/cy_sysclk.h **** *     <td>Use of a Cypress defined macro to access memory mapped objects.
  97:Generated_Source\PSoC6\pdl\drivers\peripheral\sysclk/cy_sysclk.h **** *         Use of a Cypress defined macro to divide with rounding.</td>
  98:Generated_Source\PSoC6\pdl\drivers\peripheral\sysclk/cy_sysclk.h **** *   </tr>
  99:Generated_Source\PSoC6\pdl\drivers\peripheral\sysclk/cy_sysclk.h **** *   <tr>
 100:Generated_Source\PSoC6\pdl\drivers\peripheral\sysclk/cy_sysclk.h **** *     <td>10.2</td>
 101:Generated_Source\PSoC6\pdl\drivers\peripheral\sysclk/cy_sysclk.h **** *     <td>R</td>
 102:Generated_Source\PSoC6\pdl\drivers\peripheral\sysclk/cy_sysclk.h **** *     <td>The value of an expression of floating type shall not be implicitly converted to a differ
 103:Generated_Source\PSoC6\pdl\drivers\peripheral\sysclk/cy_sysclk.h **** *         a) it is not a conversion to a wider floating type, or
 104:Generated_Source\PSoC6\pdl\drivers\peripheral\sysclk/cy_sysclk.h **** *         b) the expression is complex, or
 105:Generated_Source\PSoC6\pdl\drivers\peripheral\sysclk/cy_sysclk.h **** *         c) the expression is a function argument, or
 106:Generated_Source\PSoC6\pdl\drivers\peripheral\sysclk/cy_sysclk.h **** *         d) the expression is a return expression.</td>
 107:Generated_Source\PSoC6\pdl\drivers\peripheral\sysclk/cy_sysclk.h **** *     <td>The operands of this relational operator are expressions of different "essential type" ca
 108:Generated_Source\PSoC6\pdl\drivers\peripheral\sysclk/cy_sysclk.h **** *         (enum and unsigned).</td>
 109:Generated_Source\PSoC6\pdl\drivers\peripheral\sysclk/cy_sysclk.h **** *   </tr>
 110:Generated_Source\PSoC6\pdl\drivers\peripheral\sysclk/cy_sysclk.h **** *   <tr>
 111:Generated_Source\PSoC6\pdl\drivers\peripheral\sysclk/cy_sysclk.h **** *     <td>10.3</td>
 112:Generated_Source\PSoC6\pdl\drivers\peripheral\sysclk/cy_sysclk.h **** *     <td>R</td>
 113:Generated_Source\PSoC6\pdl\drivers\peripheral\sysclk/cy_sysclk.h **** *     <td>A composite integer expression is being cast to a wider type.</td>
 114:Generated_Source\PSoC6\pdl\drivers\peripheral\sysclk/cy_sysclk.h **** *     <td>Use of a Cypress defined macro to access memory-mapped objects. Calculating the clock par
 115:Generated_Source\PSoC6\pdl\drivers\peripheral\sysclk/cy_sysclk.h **** *   </tr>
 116:Generated_Source\PSoC6\pdl\drivers\peripheral\sysclk/cy_sysclk.h **** *   <tr>
 117:Generated_Source\PSoC6\pdl\drivers\peripheral\sysclk/cy_sysclk.h **** *     <td>10.4</td>
 118:Generated_Source\PSoC6\pdl\drivers\peripheral\sysclk/cy_sysclk.h **** *     <td>R</td>
 119:Generated_Source\PSoC6\pdl\drivers\peripheral\sysclk/cy_sysclk.h **** *     <td>A composite floating point expression is being cast to double, or unsigned.</td>
 120:Generated_Source\PSoC6\pdl\drivers\peripheral\sysclk/cy_sysclk.h **** *     <td>Use of the C library sqrt() function. Casting a floating-point calculation result to an i
 121:Generated_Source\PSoC6\pdl\drivers\peripheral\sysclk/cy_sysclk.h **** *   </tr>
 122:Generated_Source\PSoC6\pdl\drivers\peripheral\sysclk/cy_sysclk.h **** *   <tr>
 123:Generated_Source\PSoC6\pdl\drivers\peripheral\sysclk/cy_sysclk.h **** *     <td>10.5</td>
 124:Generated_Source\PSoC6\pdl\drivers\peripheral\sysclk/cy_sysclk.h **** *     <td>R</td>
 125:Generated_Source\PSoC6\pdl\drivers\peripheral\sysclk/cy_sysclk.h **** *     <td>The value of an expression of integer type shall not be implicitly converted to a differe
 126:Generated_Source\PSoC6\pdl\drivers\peripheral\sysclk/cy_sysclk.h **** *         if the expression is complex.</td>
 127:Generated_Source\PSoC6\pdl\drivers\peripheral\sysclk/cy_sysclk.h **** *     <td>Use of a Cypress defined macro to access memory-mapped objects.</td>
 128:Generated_Source\PSoC6\pdl\drivers\peripheral\sysclk/cy_sysclk.h **** *   </tr>
 129:Generated_Source\PSoC6\pdl\drivers\peripheral\sysclk/cy_sysclk.h **** *   <tr>
 130:Generated_Source\PSoC6\pdl\drivers\peripheral\sysclk/cy_sysclk.h **** *     <td>12.1</td>
 131:Generated_Source\PSoC6\pdl\drivers\peripheral\sysclk/cy_sysclk.h **** *     <td>A</td>
 132:Generated_Source\PSoC6\pdl\drivers\peripheral\sysclk/cy_sysclk.h **** *     <td>Extra parentheses recommended.</td>
 133:Generated_Source\PSoC6\pdl\drivers\peripheral\sysclk/cy_sysclk.h **** *     <td>Ternary operator uses constants; extra parentheses not needed.</td>
ARM GAS  C:\Users\kiwamu\AppData\Local\Temp\ccIx7zyv.s 			page 45


 134:Generated_Source\PSoC6\pdl\drivers\peripheral\sysclk/cy_sysclk.h **** *   </tr>
 135:Generated_Source\PSoC6\pdl\drivers\peripheral\sysclk/cy_sysclk.h **** *   <tr>
 136:Generated_Source\PSoC6\pdl\drivers\peripheral\sysclk/cy_sysclk.h **** *     <td>12.2</td>
 137:Generated_Source\PSoC6\pdl\drivers\peripheral\sysclk/cy_sysclk.h **** *     <td>A</td>
 138:Generated_Source\PSoC6\pdl\drivers\peripheral\sysclk/cy_sysclk.h **** *     <td>The value of an expression must be the same under any order of evaluation that the standa
 139:Generated_Source\PSoC6\pdl\drivers\peripheral\sysclk/cy_sysclk.h **** *     <td>The "rtnval" is modified more than once between the sequence points - the evaluation orde
 140:Generated_Source\PSoC6\pdl\drivers\peripheral\sysclk/cy_sysclk.h **** *   </tr>
 141:Generated_Source\PSoC6\pdl\drivers\peripheral\sysclk/cy_sysclk.h **** *   <tr>
 142:Generated_Source\PSoC6\pdl\drivers\peripheral\sysclk/cy_sysclk.h **** *     <td>12.4</td>
 143:Generated_Source\PSoC6\pdl\drivers\peripheral\sysclk/cy_sysclk.h **** *     <td>A</td>
 144:Generated_Source\PSoC6\pdl\drivers\peripheral\sysclk/cy_sysclk.h **** *     <td>The right hand operand of a logical && or || operator shall not contain side effects.</td
 145:Generated_Source\PSoC6\pdl\drivers\peripheral\sysclk/cy_sysclk.h **** *     <td>No side effect in this case.</td>
 146:Generated_Source\PSoC6\pdl\drivers\peripheral\sysclk/cy_sysclk.h **** *   </tr>
 147:Generated_Source\PSoC6\pdl\drivers\peripheral\sysclk/cy_sysclk.h **** *   <tr>
 148:Generated_Source\PSoC6\pdl\drivers\peripheral\sysclk/cy_sysclk.h **** *     <td>13.4</td>
 149:Generated_Source\PSoC6\pdl\drivers\peripheral\sysclk/cy_sysclk.h **** *     <td>R</td>
 150:Generated_Source\PSoC6\pdl\drivers\peripheral\sysclk/cy_sysclk.h **** *     <td>The controlling expression of a for statement shall not contain any objects of floating t
 151:Generated_Source\PSoC6\pdl\drivers\peripheral\sysclk/cy_sysclk.h **** *     <td>Scanning through a list of floating point values.</td>
 152:Generated_Source\PSoC6\pdl\drivers\peripheral\sysclk/cy_sysclk.h **** *   </tr>
 153:Generated_Source\PSoC6\pdl\drivers\peripheral\sysclk/cy_sysclk.h **** *   <tr>
 154:Generated_Source\PSoC6\pdl\drivers\peripheral\sysclk/cy_sysclk.h **** *     <td>16.7</td>
 155:Generated_Source\PSoC6\pdl\drivers\peripheral\sysclk/cy_sysclk.h **** *     <td>R</td>
 156:Generated_Source\PSoC6\pdl\drivers\peripheral\sysclk/cy_sysclk.h **** *     <td>The object addressed by the pointer parameter is not modified and so the pointer could be
 157:Generated_Source\PSoC6\pdl\drivers\peripheral\sysclk/cy_sysclk.h **** *         type 'pointer to const'.</td>
 158:Generated_Source\PSoC6\pdl\drivers\peripheral\sysclk/cy_sysclk.h **** *     <td>The callback function for system power management (SysPm) must be of generic callback typ
 159:Generated_Source\PSoC6\pdl\drivers\peripheral\sysclk/cy_sysclk.h **** *         contains non-const pointer parameter.</td>
 160:Generated_Source\PSoC6\pdl\drivers\peripheral\sysclk/cy_sysclk.h **** *   </tr>
 161:Generated_Source\PSoC6\pdl\drivers\peripheral\sysclk/cy_sysclk.h **** *   <tr>
 162:Generated_Source\PSoC6\pdl\drivers\peripheral\sysclk/cy_sysclk.h **** *     <td>18.4</td>
 163:Generated_Source\PSoC6\pdl\drivers\peripheral\sysclk/cy_sysclk.h **** *     <td>R</td>
 164:Generated_Source\PSoC6\pdl\drivers\peripheral\sysclk/cy_sysclk.h **** *     <td>Unions shall not be used.</td>
 165:Generated_Source\PSoC6\pdl\drivers\peripheral\sysclk/cy_sysclk.h **** *     <td>The clock path in \ref Cy_SysClk_PeriphGetFrequency() uses either FLL or PLL.</td>
 166:Generated_Source\PSoC6\pdl\drivers\peripheral\sysclk/cy_sysclk.h **** *   </tr>
 167:Generated_Source\PSoC6\pdl\drivers\peripheral\sysclk/cy_sysclk.h **** *   <tr>
 168:Generated_Source\PSoC6\pdl\drivers\peripheral\sysclk/cy_sysclk.h **** *     <td>19.4</td>
 169:Generated_Source\PSoC6\pdl\drivers\peripheral\sysclk/cy_sysclk.h **** *     <td>R</td>
 170:Generated_Source\PSoC6\pdl\drivers\peripheral\sysclk/cy_sysclk.h **** *     <td>Macros shall only expand to a limited set of constructs.</td>
 171:Generated_Source\PSoC6\pdl\drivers\peripheral\sysclk/cy_sysclk.h **** *     <td>The macro CY_SYSCLK_CLR_SET uses a concatenate operation,
 172:Generated_Source\PSoC6\pdl\drivers\peripheral\sysclk/cy_sysclk.h **** *         so one of the macro parameters cannot be enclosed in parentheses.</td>
 173:Generated_Source\PSoC6\pdl\drivers\peripheral\sysclk/cy_sysclk.h **** *   </tr>
 174:Generated_Source\PSoC6\pdl\drivers\peripheral\sysclk/cy_sysclk.h **** * </table>
 175:Generated_Source\PSoC6\pdl\drivers\peripheral\sysclk/cy_sysclk.h **** *
 176:Generated_Source\PSoC6\pdl\drivers\peripheral\sysclk/cy_sysclk.h **** *
 177:Generated_Source\PSoC6\pdl\drivers\peripheral\sysclk/cy_sysclk.h **** * \section group_sysclk_changelog Changelog
 178:Generated_Source\PSoC6\pdl\drivers\peripheral\sysclk/cy_sysclk.h **** * <table class="doxtable">
 179:Generated_Source\PSoC6\pdl\drivers\peripheral\sysclk/cy_sysclk.h **** *   <tr><th>Version</th><th>Changes</th><th>Reason for Change</th></tr>
 180:Generated_Source\PSoC6\pdl\drivers\peripheral\sysclk/cy_sysclk.h **** *   <tr>
 181:Generated_Source\PSoC6\pdl\drivers\peripheral\sysclk/cy_sysclk.h **** *     <td>1.0</td>
 182:Generated_Source\PSoC6\pdl\drivers\peripheral\sysclk/cy_sysclk.h **** *     <td>Initial version</td>
 183:Generated_Source\PSoC6\pdl\drivers\peripheral\sysclk/cy_sysclk.h **** *     <td></td>
 184:Generated_Source\PSoC6\pdl\drivers\peripheral\sysclk/cy_sysclk.h **** *   </tr>
 185:Generated_Source\PSoC6\pdl\drivers\peripheral\sysclk/cy_sysclk.h **** * </table>
 186:Generated_Source\PSoC6\pdl\drivers\peripheral\sysclk/cy_sysclk.h **** *
 187:Generated_Source\PSoC6\pdl\drivers\peripheral\sysclk/cy_sysclk.h **** * \defgroup group_sysclk_macros           Macros
 188:Generated_Source\PSoC6\pdl\drivers\peripheral\sysclk/cy_sysclk.h **** * \{
 189:Generated_Source\PSoC6\pdl\drivers\peripheral\sysclk/cy_sysclk.h **** * \}
 190:Generated_Source\PSoC6\pdl\drivers\peripheral\sysclk/cy_sysclk.h **** * \defgroup group_sysclk_enums           General Enumerated Types
ARM GAS  C:\Users\kiwamu\AppData\Local\Temp\ccIx7zyv.s 			page 46


 191:Generated_Source\PSoC6\pdl\drivers\peripheral\sysclk/cy_sysclk.h **** * \{
 192:Generated_Source\PSoC6\pdl\drivers\peripheral\sysclk/cy_sysclk.h **** *   \defgroup group_sysclk_returns         Function return values
 193:Generated_Source\PSoC6\pdl\drivers\peripheral\sysclk/cy_sysclk.h **** * \}
 194:Generated_Source\PSoC6\pdl\drivers\peripheral\sysclk/cy_sysclk.h **** * \defgroup group_sysclk_eco             External Crystal Oscillator (ECO)
 195:Generated_Source\PSoC6\pdl\drivers\peripheral\sysclk/cy_sysclk.h **** * \{
 196:Generated_Source\PSoC6\pdl\drivers\peripheral\sysclk/cy_sysclk.h **** *   <p>The PSoC 6 BLE device contains an oscillator to drive an external 
 197:Generated_Source\PSoC6\pdl\drivers\peripheral\sysclk/cy_sysclk.h **** *   crystal. This clock source is built using an oscillator circuit
 198:Generated_Source\PSoC6\pdl\drivers\peripheral\sysclk/cy_sysclk.h **** *   in PSoC. The circuit employs an external crystal that must be populated on
 199:Generated_Source\PSoC6\pdl\drivers\peripheral\sysclk/cy_sysclk.h **** *   the external crystal pins of the PSoC. The ECO can be the source clock for
 200:Generated_Source\PSoC6\pdl\drivers\peripheral\sysclk/cy_sysclk.h **** *   any of the clock paths. See \ref group_sysclk_path_src.</p>
 201:Generated_Source\PSoC6\pdl\drivers\peripheral\sysclk/cy_sysclk.h **** *
 202:Generated_Source\PSoC6\pdl\drivers\peripheral\sysclk/cy_sysclk.h **** *   Use Cy_SysClk_EcoConfigure() to configure the ECO. Pass in the required
 203:Generated_Source\PSoC6\pdl\drivers\peripheral\sysclk/cy_sysclk.h **** *   parameters, there is no configuration structure. Use Cy_SysClk_ClkPathSetSource()
 204:Generated_Source\PSoC6\pdl\drivers\peripheral\sysclk/cy_sysclk.h **** *   to specify the clock path source as \ref CY_SYSCLK_CLKPATH_IN_ECO
 205:Generated_Source\PSoC6\pdl\drivers\peripheral\sysclk/cy_sysclk.h **** *
 206:Generated_Source\PSoC6\pdl\drivers\peripheral\sysclk/cy_sysclk.h **** *   \defgroup group_sysclk_eco_funcs       Functions
 207:Generated_Source\PSoC6\pdl\drivers\peripheral\sysclk/cy_sysclk.h **** * \}
 208:Generated_Source\PSoC6\pdl\drivers\peripheral\sysclk/cy_sysclk.h **** * \defgroup group_sysclk_path_src           Clock Path Source
 209:Generated_Source\PSoC6\pdl\drivers\peripheral\sysclk/cy_sysclk.h **** * \{
 210:Generated_Source\PSoC6\pdl\drivers\peripheral\sysclk/cy_sysclk.h **** *   <p>Use these functions to set or get the source clock for a clock path. A clock
 211:Generated_Source\PSoC6\pdl\drivers\peripheral\sysclk/cy_sysclk.h **** *   path can use the same or a different source clock as any other path. API
 212:Generated_Source\PSoC6\pdl\drivers\peripheral\sysclk/cy_sysclk.h **** *   functions set or get the source.</p>
 213:Generated_Source\PSoC6\pdl\drivers\peripheral\sysclk/cy_sysclk.h **** *
 214:Generated_Source\PSoC6\pdl\drivers\peripheral\sysclk/cy_sysclk.h **** *   <b>Clock path</b>: Path 0 is the FLL; path 1 is the PLL, path 2 is direct
 215:Generated_Source\PSoC6\pdl\drivers\peripheral\sysclk/cy_sysclk.h **** *   to the high-frequency clocks.
 216:Generated_Source\PSoC6\pdl\drivers\peripheral\sysclk/cy_sysclk.h **** *
 217:Generated_Source\PSoC6\pdl\drivers\peripheral\sysclk/cy_sysclk.h **** *   <b>Clock source</b>: Use constants enumerated in \ref cy_en_clkpath_in_sources_t
 218:Generated_Source\PSoC6\pdl\drivers\peripheral\sysclk/cy_sysclk.h **** *   to identify the source clock. The actual available clock paths and sources may 
 219:Generated_Source\PSoC6\pdl\drivers\peripheral\sysclk/cy_sysclk.h **** *   vary from the diagram.
 220:Generated_Source\PSoC6\pdl\drivers\peripheral\sysclk/cy_sysclk.h **** *   ![](sysclk_path_source.png)
 221:Generated_Source\PSoC6\pdl\drivers\peripheral\sysclk/cy_sysclk.h **** *
 222:Generated_Source\PSoC6\pdl\drivers\peripheral\sysclk/cy_sysclk.h **** *   \note The PDL driver cannot configure a clock path to use Digital Signal
 223:Generated_Source\PSoC6\pdl\drivers\peripheral\sysclk/cy_sysclk.h **** *   Interconnect (DSI) outputs as sources. This must be done through DSI
 224:Generated_Source\PSoC6\pdl\drivers\peripheral\sysclk/cy_sysclk.h **** *   configuration in PSoC Creator.
 225:Generated_Source\PSoC6\pdl\drivers\peripheral\sysclk/cy_sysclk.h **** *
 226:Generated_Source\PSoC6\pdl\drivers\peripheral\sysclk/cy_sysclk.h **** *   \defgroup group_sysclk_path_src_funcs     Functions
 227:Generated_Source\PSoC6\pdl\drivers\peripheral\sysclk/cy_sysclk.h **** *   \defgroup group_sysclk_path_src_enums     Enumerated Types
 228:Generated_Source\PSoC6\pdl\drivers\peripheral\sysclk/cy_sysclk.h **** * \}
 229:Generated_Source\PSoC6\pdl\drivers\peripheral\sysclk/cy_sysclk.h **** * \defgroup group_sysclk_fll             Frequency Locked Loop (FLL)
 230:Generated_Source\PSoC6\pdl\drivers\peripheral\sysclk/cy_sysclk.h **** * \{
 231:Generated_Source\PSoC6\pdl\drivers\peripheral\sysclk/cy_sysclk.h **** *   <p>The FLL generates a clock output based on the input frequency. Consult 
 232:Generated_Source\PSoC6\pdl\drivers\peripheral\sysclk/cy_sysclk.h **** *   device-specific documentation for the frequency ranges for your device. 
 233:Generated_Source\PSoC6\pdl\drivers\peripheral\sysclk/cy_sysclk.h **** *   The design makes it possible to use a lower
 234:Generated_Source\PSoC6\pdl\drivers\peripheral\sysclk/cy_sysclk.h **** *   frequency source, such as IMO, to generate higher clock frequencies
 235:Generated_Source\PSoC6\pdl\drivers\peripheral\sysclk/cy_sysclk.h **** *   for the rest of the system.</p>
 236:Generated_Source\PSoC6\pdl\drivers\peripheral\sysclk/cy_sysclk.h **** *
 237:Generated_Source\PSoC6\pdl\drivers\peripheral\sysclk/cy_sysclk.h **** *   The FLL is similar in purpose to a PLL but is not equivalent.
 238:Generated_Source\PSoC6\pdl\drivers\peripheral\sysclk/cy_sysclk.h **** *   - They may have different frequency ranges.
 239:Generated_Source\PSoC6\pdl\drivers\peripheral\sysclk/cy_sysclk.h **** *   - The FLL starts up (locks) faster and consumes less current than the PLL.
 240:Generated_Source\PSoC6\pdl\drivers\peripheral\sysclk/cy_sysclk.h **** *   - The FLL accepts a source clock with lower frequency than PLL, such as the WCO (32 KHz). 
 241:Generated_Source\PSoC6\pdl\drivers\peripheral\sysclk/cy_sysclk.h **** *   - The FLL does not lock phase. It is essentially a counter with a
 242:Generated_Source\PSoC6\pdl\drivers\peripheral\sysclk/cy_sysclk.h **** *   current-controlled oscillator (CCO). The counter counts the number of output
 243:Generated_Source\PSoC6\pdl\drivers\peripheral\sysclk/cy_sysclk.h **** *   clock edges in a reference clock period and adjusts the CCO until the
 244:Generated_Source\PSoC6\pdl\drivers\peripheral\sysclk/cy_sysclk.h **** *   expected ratio is achieved (locked). After initial lock, the CCO is
 245:Generated_Source\PSoC6\pdl\drivers\peripheral\sysclk/cy_sysclk.h **** *   adjusted dynamically to keep the ratio within tolerance. The lock tolerance
 246:Generated_Source\PSoC6\pdl\drivers\peripheral\sysclk/cy_sysclk.h **** *   is user-adjustable.
 247:Generated_Source\PSoC6\pdl\drivers\peripheral\sysclk/cy_sysclk.h **** *   ![](sysclk_fll.png)
ARM GAS  C:\Users\kiwamu\AppData\Local\Temp\ccIx7zyv.s 			page 47


 248:Generated_Source\PSoC6\pdl\drivers\peripheral\sysclk/cy_sysclk.h **** *
 249:Generated_Source\PSoC6\pdl\drivers\peripheral\sysclk/cy_sysclk.h **** *   Firmware configures the FLL using Cy_SysClk_FllConfigure(). Specify the input
 250:Generated_Source\PSoC6\pdl\drivers\peripheral\sysclk/cy_sysclk.h **** *   and output frequencies, and the output mode. See \ref cy_en_fll_pll_output_mode_t
 251:Generated_Source\PSoC6\pdl\drivers\peripheral\sysclk/cy_sysclk.h **** *   for output choices.
 252:Generated_Source\PSoC6\pdl\drivers\peripheral\sysclk/cy_sysclk.h **** *
 253:Generated_Source\PSoC6\pdl\drivers\peripheral\sysclk/cy_sysclk.h **** *   Alternatively, firmware can fill in values for the
 254:Generated_Source\PSoC6\pdl\drivers\peripheral\sysclk/cy_sysclk.h **** *   \ref cy_stc_fll_manual_config_t structure, and call Cy_SysClk_FllManualConfigure().
 255:Generated_Source\PSoC6\pdl\drivers\peripheral\sysclk/cy_sysclk.h **** *   This call provides precise control over the FLL configuration, such as the
 256:Generated_Source\PSoC6\pdl\drivers\peripheral\sysclk/cy_sysclk.h **** *   lock tolerance.
 257:Generated_Source\PSoC6\pdl\drivers\peripheral\sysclk/cy_sysclk.h **** *
 258:Generated_Source\PSoC6\pdl\drivers\peripheral\sysclk/cy_sysclk.h **** * See the Clocking System chapter of the device technical reference manual (TRM).
 259:Generated_Source\PSoC6\pdl\drivers\peripheral\sysclk/cy_sysclk.h **** *
 260:Generated_Source\PSoC6\pdl\drivers\peripheral\sysclk/cy_sysclk.h **** *   \defgroup group_sysclk_fll_funcs       Functions
 261:Generated_Source\PSoC6\pdl\drivers\peripheral\sysclk/cy_sysclk.h **** *   \defgroup group_sysclk_fll_structs     Data Structures
 262:Generated_Source\PSoC6\pdl\drivers\peripheral\sysclk/cy_sysclk.h **** *   \defgroup group_sysclk_fll_enums       Enumerated Types
 263:Generated_Source\PSoC6\pdl\drivers\peripheral\sysclk/cy_sysclk.h **** * \}
 264:Generated_Source\PSoC6\pdl\drivers\peripheral\sysclk/cy_sysclk.h **** * \defgroup group_sysclk_pll             Phase Locked Loop (PLL)
 265:Generated_Source\PSoC6\pdl\drivers\peripheral\sysclk/cy_sysclk.h **** * \{
 266:Generated_Source\PSoC6\pdl\drivers\peripheral\sysclk/cy_sysclk.h **** *   <p>The PLL generates a clock output based on the input frequency. Consult 
 267:Generated_Source\PSoC6\pdl\drivers\peripheral\sysclk/cy_sysclk.h **** *   device-specific documentation for the frequency ranges for your device. The 
 268:Generated_Source\PSoC6\pdl\drivers\peripheral\sysclk/cy_sysclk.h **** *   design makes it possible to use a lower frequency source, such as IMO, to 
 269:Generated_Source\PSoC6\pdl\drivers\peripheral\sysclk/cy_sysclk.h **** *   generate higher clock frequencies for the rest of the system. </p>
 270:Generated_Source\PSoC6\pdl\drivers\peripheral\sysclk/cy_sysclk.h **** *
 271:Generated_Source\PSoC6\pdl\drivers\peripheral\sysclk/cy_sysclk.h **** *   The PLL is similar in purpose to the FLL but is not equivalent.
 272:Generated_Source\PSoC6\pdl\drivers\peripheral\sysclk/cy_sysclk.h **** *   - They may have different frequency ranges.
 273:Generated_Source\PSoC6\pdl\drivers\peripheral\sysclk/cy_sysclk.h **** *   - The PLL starts up more slowly and consumes more current than the FLL.
 274:Generated_Source\PSoC6\pdl\drivers\peripheral\sysclk/cy_sysclk.h **** *   - The PLL requires a higher frequency source clock than PLL. 
 275:Generated_Source\PSoC6\pdl\drivers\peripheral\sysclk/cy_sysclk.h **** *   ![](sysclk_pll.png)
 276:Generated_Source\PSoC6\pdl\drivers\peripheral\sysclk/cy_sysclk.h **** *
 277:Generated_Source\PSoC6\pdl\drivers\peripheral\sysclk/cy_sysclk.h **** *   Firmware can configure the PLL using Cy_SysClk_PllConfigure(). Provide
 278:Generated_Source\PSoC6\pdl\drivers\peripheral\sysclk/cy_sysclk.h **** *   configuration values in a filled \ref cy_stc_pll_config_t structure. See
 279:Generated_Source\PSoC6\pdl\drivers\peripheral\sysclk/cy_sysclk.h **** *   \ref cy_en_fll_pll_output_mode_t for output choices.
 280:Generated_Source\PSoC6\pdl\drivers\peripheral\sysclk/cy_sysclk.h **** *
 281:Generated_Source\PSoC6\pdl\drivers\peripheral\sysclk/cy_sysclk.h **** *   Alternatively, firmware can fill in values for the \ref cy_stc_pll_manual_config_t
 282:Generated_Source\PSoC6\pdl\drivers\peripheral\sysclk/cy_sysclk.h **** *   structure, and call Cy_SysClk_PllManualConfigure().
 283:Generated_Source\PSoC6\pdl\drivers\peripheral\sysclk/cy_sysclk.h **** * 
 284:Generated_Source\PSoC6\pdl\drivers\peripheral\sysclk/cy_sysclk.h **** *   See the Clocking System chapter of the device technical reference manual (TRM).
 285:Generated_Source\PSoC6\pdl\drivers\peripheral\sysclk/cy_sysclk.h **** *
 286:Generated_Source\PSoC6\pdl\drivers\peripheral\sysclk/cy_sysclk.h **** *   \defgroup group_sysclk_pll_funcs       Functions
 287:Generated_Source\PSoC6\pdl\drivers\peripheral\sysclk/cy_sysclk.h **** *   \defgroup group_sysclk_pll_structs     Data Structures
 288:Generated_Source\PSoC6\pdl\drivers\peripheral\sysclk/cy_sysclk.h **** * \}
 289:Generated_Source\PSoC6\pdl\drivers\peripheral\sysclk/cy_sysclk.h **** * \defgroup group_sysclk_ilo             Internal Low-Speed Oscillator (ILO)
 290:Generated_Source\PSoC6\pdl\drivers\peripheral\sysclk/cy_sysclk.h **** * \{
 291:Generated_Source\PSoC6\pdl\drivers\peripheral\sysclk/cy_sysclk.h **** *   <p>The ILO operates with no external components and outputs a stable clock at
 292:Generated_Source\PSoC6\pdl\drivers\peripheral\sysclk/cy_sysclk.h **** *   32.768 kHz nominal. The ILO is relatively low power and low
 293:Generated_Source\PSoC6\pdl\drivers\peripheral\sysclk/cy_sysclk.h **** *   accuracy. The ILO is in the backup domain. It is available in all
 294:Generated_Source\PSoC6\pdl\drivers\peripheral\sysclk/cy_sysclk.h **** *   power modes. The ILO can be used as a source for the \ref group_sysclk_clk_lf.</p>
 295:Generated_Source\PSoC6\pdl\drivers\peripheral\sysclk/cy_sysclk.h **** *   ![](sysclk_backup.png)
 296:Generated_Source\PSoC6\pdl\drivers\peripheral\sysclk/cy_sysclk.h **** *
 297:Generated_Source\PSoC6\pdl\drivers\peripheral\sysclk/cy_sysclk.h **** *   The ILO is always the source clock for the \ref group_wdt. Therefore:
 298:Generated_Source\PSoC6\pdl\drivers\peripheral\sysclk/cy_sysclk.h **** *   - The WDT must be unlocked when making an ILO function call in the PDL
 299:Generated_Source\PSoC6\pdl\drivers\peripheral\sysclk/cy_sysclk.h **** *   - It is recommended to always have the ILO enabled
 300:Generated_Source\PSoC6\pdl\drivers\peripheral\sysclk/cy_sysclk.h **** *
 301:Generated_Source\PSoC6\pdl\drivers\peripheral\sysclk/cy_sysclk.h **** *   API functions enable or disable the clock. To ensure the ILO remains active
 302:Generated_Source\PSoC6\pdl\drivers\peripheral\sysclk/cy_sysclk.h **** *   in Hibernate mode, and across power-on-reset (POR) or brown out detect (BOD),
 303:Generated_Source\PSoC6\pdl\drivers\peripheral\sysclk/cy_sysclk.h **** *   firmware must call Cy_SysClk_IloHibernateOn() and pass in a Boolean TRUE. 
 304:Generated_Source\PSoC6\pdl\drivers\peripheral\sysclk/cy_sysclk.h **** *
ARM GAS  C:\Users\kiwamu\AppData\Local\Temp\ccIx7zyv.s 			page 48


 305:Generated_Source\PSoC6\pdl\drivers\peripheral\sysclk/cy_sysclk.h **** *   This clock can be trimmed. Firmware uses functions described in
 306:Generated_Source\PSoC6\pdl\drivers\peripheral\sysclk/cy_sysclk.h **** *   \ref group_sysclk_calclk to get the current clock frequency before trimming.
 307:Generated_Source\PSoC6\pdl\drivers\peripheral\sysclk/cy_sysclk.h **** *   Then call Cy_SysClk_IloTrim().
 308:Generated_Source\PSoC6\pdl\drivers\peripheral\sysclk/cy_sysclk.h **** *
 309:Generated_Source\PSoC6\pdl\drivers\peripheral\sysclk/cy_sysclk.h **** *   See the Clocking System chapter of the device technical reference manual (TRM).
 310:Generated_Source\PSoC6\pdl\drivers\peripheral\sysclk/cy_sysclk.h **** *
 311:Generated_Source\PSoC6\pdl\drivers\peripheral\sysclk/cy_sysclk.h **** *   \defgroup group_sysclk_ilo_funcs       Functions
 312:Generated_Source\PSoC6\pdl\drivers\peripheral\sysclk/cy_sysclk.h **** * \}
 313:Generated_Source\PSoC6\pdl\drivers\peripheral\sysclk/cy_sysclk.h **** * \defgroup group_sysclk_pilo            Precision Internal Low-Speed Oscillator (PILO)
 314:Generated_Source\PSoC6\pdl\drivers\peripheral\sysclk/cy_sysclk.h **** * \{
 315:Generated_Source\PSoC6\pdl\drivers\peripheral\sysclk/cy_sysclk.h **** *   <p>PILO provides a more accurate 32.768-kHz clock than \ref group_sysclk_ilo "ILO", when 
 316:Generated_Source\PSoC6\pdl\drivers\peripheral\sysclk/cy_sysclk.h **** *   periodically calibrated using a high-accuracy clock such as the
 317:Generated_Source\PSoC6\pdl\drivers\peripheral\sysclk/cy_sysclk.h **** *   \ref group_sysclk_eco "ECO". PILO works in Deep-Sleep and higher power
 318:Generated_Source\PSoC6\pdl\drivers\peripheral\sysclk/cy_sysclk.h **** *   modes. It is not available in Hibernate mode.</p>
 319:Generated_Source\PSoC6\pdl\drivers\peripheral\sysclk/cy_sysclk.h **** *
 320:Generated_Source\PSoC6\pdl\drivers\peripheral\sysclk/cy_sysclk.h **** *   The PILO can be used as a source for the \ref group_sysclk_clk_lf. However,
 321:Generated_Source\PSoC6\pdl\drivers\peripheral\sysclk/cy_sysclk.h **** *   because PILO is disabled in Hibernate mode, RTC timers and counters can be
 322:Generated_Source\PSoC6\pdl\drivers\peripheral\sysclk/cy_sysclk.h **** *   corrupted. If this is unacceptable, use \ref group_sysclk_ilo "ILO" or
 323:Generated_Source\PSoC6\pdl\drivers\peripheral\sysclk/cy_sysclk.h **** *   \ref group_sysclk_wco "WCO" as the source clock for
 324:Generated_Source\PSoC6\pdl\drivers\peripheral\sysclk/cy_sysclk.h **** *   the low-frequency clock. 
 325:Generated_Source\PSoC6\pdl\drivers\peripheral\sysclk/cy_sysclk.h **** *
 326:Generated_Source\PSoC6\pdl\drivers\peripheral\sysclk/cy_sysclk.h **** *   ![](sysclk_backup.png)
 327:Generated_Source\PSoC6\pdl\drivers\peripheral\sysclk/cy_sysclk.h **** *
 328:Generated_Source\PSoC6\pdl\drivers\peripheral\sysclk/cy_sysclk.h **** *   Periodic calibration to a high-accuracy clock (such as ECO) is required to
 329:Generated_Source\PSoC6\pdl\drivers\peripheral\sysclk/cy_sysclk.h **** *   maintain accuracy. Firmware uses functions described in Clock Measurement
 330:Generated_Source\PSoC6\pdl\drivers\peripheral\sysclk/cy_sysclk.h **** *   to get the current PILO frequency before trimming. Then use Cy_SysClk_PiloTrim().
 331:Generated_Source\PSoC6\pdl\drivers\peripheral\sysclk/cy_sysclk.h **** *
 332:Generated_Source\PSoC6\pdl\drivers\peripheral\sysclk/cy_sysclk.h **** *   See the Clocking System chapter of the device technical reference manual (TRM).
 333:Generated_Source\PSoC6\pdl\drivers\peripheral\sysclk/cy_sysclk.h **** *
 334:Generated_Source\PSoC6\pdl\drivers\peripheral\sysclk/cy_sysclk.h **** *   \defgroup group_sysclk_pilo_funcs      Functions
 335:Generated_Source\PSoC6\pdl\drivers\peripheral\sysclk/cy_sysclk.h **** * \}
 336:Generated_Source\PSoC6\pdl\drivers\peripheral\sysclk/cy_sysclk.h **** * \defgroup group_sysclk_calclk          Clock Measurement
 337:Generated_Source\PSoC6\pdl\drivers\peripheral\sysclk/cy_sysclk.h **** * \{
 338:Generated_Source\PSoC6\pdl\drivers\peripheral\sysclk/cy_sysclk.h **** *   <p>These functions measure the frequency of a specified clock relative to a
 339:Generated_Source\PSoC6\pdl\drivers\peripheral\sysclk/cy_sysclk.h **** *   reference clock. They are typically called in the following order:</p>
 340:Generated_Source\PSoC6\pdl\drivers\peripheral\sysclk/cy_sysclk.h **** *   1. Specify the measured clock, the count, and the reference clock; then start the counters:
 341:Generated_Source\PSoC6\pdl\drivers\peripheral\sysclk/cy_sysclk.h **** *   Cy_SysClk_StartClkMeasurementCounters();
 342:Generated_Source\PSoC6\pdl\drivers\peripheral\sysclk/cy_sysclk.h **** *   2. Wait for the measurement counter to finish counting:
 343:Generated_Source\PSoC6\pdl\drivers\peripheral\sysclk/cy_sysclk.h **** *   while(Cy_SysClk_ClkMeasurementCountersDone() != CY_RET_FINISHED);
 344:Generated_Source\PSoC6\pdl\drivers\peripheral\sysclk/cy_sysclk.h **** *   3. Get the measured frequency:<br>
 345:Generated_Source\PSoC6\pdl\drivers\peripheral\sysclk/cy_sysclk.h **** *   freq_measure = Cy_SysClk_ClkMeasurementCountersGetFreq();
 346:Generated_Source\PSoC6\pdl\drivers\peripheral\sysclk/cy_sysclk.h **** *
 347:Generated_Source\PSoC6\pdl\drivers\peripheral\sysclk/cy_sysclk.h **** *   \note These functions may also be used as part of a clock trimming
 348:Generated_Source\PSoC6\pdl\drivers\peripheral\sysclk/cy_sysclk.h **** *   process - see the \ref group_sysclk_trim "Clock Trim" section.
 349:Generated_Source\PSoC6\pdl\drivers\peripheral\sysclk/cy_sysclk.h **** *
 350:Generated_Source\PSoC6\pdl\drivers\peripheral\sysclk/cy_sysclk.h **** *   See the Clocking System chapter of the device technical reference manual (TRM).
 351:Generated_Source\PSoC6\pdl\drivers\peripheral\sysclk/cy_sysclk.h **** *
 352:Generated_Source\PSoC6\pdl\drivers\peripheral\sysclk/cy_sysclk.h **** *   \defgroup group_sysclk_calclk_funcs    Functions
 353:Generated_Source\PSoC6\pdl\drivers\peripheral\sysclk/cy_sysclk.h **** *   \defgroup group_sysclk_calclk_enums    Enumerated Types
 354:Generated_Source\PSoC6\pdl\drivers\peripheral\sysclk/cy_sysclk.h **** * \}
 355:Generated_Source\PSoC6\pdl\drivers\peripheral\sysclk/cy_sysclk.h **** * \defgroup group_sysclk_trim            Clock Trim (ILO, PILO)
 356:Generated_Source\PSoC6\pdl\drivers\peripheral\sysclk/cy_sysclk.h **** * \{
 357:Generated_Source\PSoC6\pdl\drivers\peripheral\sysclk/cy_sysclk.h **** *   <p>These functions perform a single trim operation on the ILO or PILO. Each
 358:Generated_Source\PSoC6\pdl\drivers\peripheral\sysclk/cy_sysclk.h **** *   function's parameter is the actual frequency of the clock. To measure the
 359:Generated_Source\PSoC6\pdl\drivers\peripheral\sysclk/cy_sysclk.h **** *   frequency, use the functions described in the \ref group_sysclk_calclk section.</p>
 360:Generated_Source\PSoC6\pdl\drivers\peripheral\sysclk/cy_sysclk.h **** *
 361:Generated_Source\PSoC6\pdl\drivers\peripheral\sysclk/cy_sysclk.h **** *   To trim the clock as close as possible to the target frequency, multiple
ARM GAS  C:\Users\kiwamu\AppData\Local\Temp\ccIx7zyv.s 			page 49


 362:Generated_Source\PSoC6\pdl\drivers\peripheral\sysclk/cy_sysclk.h **** *   calls to the trim function may be needed. A typical usage example is to:
 363:Generated_Source\PSoC6\pdl\drivers\peripheral\sysclk/cy_sysclk.h **** *   1. Call the clock measurement functions to get the actual frequency of the clock
 364:Generated_Source\PSoC6\pdl\drivers\peripheral\sysclk/cy_sysclk.h **** *   2. Call the trim function, passing in the measured frequency:
 365:Generated_Source\PSoC6\pdl\drivers\peripheral\sysclk/cy_sysclk.h **** *   Cy_SysClk_IloTrim() or Cy_SysClk_PiloTrim()
 366:Generated_Source\PSoC6\pdl\drivers\peripheral\sysclk/cy_sysclk.h **** *   3. Repeat the above until the trim function reports trimming is done.
 367:Generated_Source\PSoC6\pdl\drivers\peripheral\sysclk/cy_sysclk.h **** *
 368:Generated_Source\PSoC6\pdl\drivers\peripheral\sysclk/cy_sysclk.h **** *   See the Clocking System chapter of the device technical reference manual (TRM).
 369:Generated_Source\PSoC6\pdl\drivers\peripheral\sysclk/cy_sysclk.h **** *
 370:Generated_Source\PSoC6\pdl\drivers\peripheral\sysclk/cy_sysclk.h **** *   \defgroup group_sysclk_trim_funcs      Functions
 371:Generated_Source\PSoC6\pdl\drivers\peripheral\sysclk/cy_sysclk.h **** * \}
 372:Generated_Source\PSoC6\pdl\drivers\peripheral\sysclk/cy_sysclk.h **** * \defgroup group_sysclk_pm              Power Management
 373:Generated_Source\PSoC6\pdl\drivers\peripheral\sysclk/cy_sysclk.h **** * \{
 374:Generated_Source\PSoC6\pdl\drivers\peripheral\sysclk/cy_sysclk.h **** *   The PDL provides a callback function that firmware can use to handle
 375:Generated_Source\PSoC6\pdl\drivers\peripheral\sysclk/cy_sysclk.h **** *   transition to DeepSleep mode: Cy_SysClk_DeepSleepCallback().
 376:Generated_Source\PSoC6\pdl\drivers\peripheral\sysclk/cy_sysclk.h **** *   
 377:Generated_Source\PSoC6\pdl\drivers\peripheral\sysclk/cy_sysclk.h **** *   Firmware can configure the system to call this function during execution of
 378:Generated_Source\PSoC6\pdl\drivers\peripheral\sysclk/cy_sysclk.h **** *   Cy_SysPm_DeepSleep(). To do so, register this function as a callback before
 379:Generated_Source\PSoC6\pdl\drivers\peripheral\sysclk/cy_sysclk.h **** *   calling Cy_SysPm_DeepSleep(). Specify \ref CY_SYSPM_DEEPSLEEP as the callback type,
 380:Generated_Source\PSoC6\pdl\drivers\peripheral\sysclk/cy_sysclk.h **** *   and call Cy_SysPm_RegisterCallback().
 381:Generated_Source\PSoC6\pdl\drivers\peripheral\sysclk/cy_sysclk.h **** *   
 382:Generated_Source\PSoC6\pdl\drivers\peripheral\sysclk/cy_sysclk.h **** *   \note If the FLL or PLL source is the ECO, this function must be registered,
 383:Generated_Source\PSoC6\pdl\drivers\peripheral\sysclk/cy_sysclk.h **** *   and it must be the last callback function that is registered.
 384:Generated_Source\PSoC6\pdl\drivers\peripheral\sysclk/cy_sysclk.h **** *   
 385:Generated_Source\PSoC6\pdl\drivers\peripheral\sysclk/cy_sysclk.h **** *   See the Clocking System chapter of the device technical reference manual (TRM).
 386:Generated_Source\PSoC6\pdl\drivers\peripheral\sysclk/cy_sysclk.h **** *
 387:Generated_Source\PSoC6\pdl\drivers\peripheral\sysclk/cy_sysclk.h **** *   \defgroup group_sysclk_pm_funcs        Functions
 388:Generated_Source\PSoC6\pdl\drivers\peripheral\sysclk/cy_sysclk.h **** * \}
 389:Generated_Source\PSoC6\pdl\drivers\peripheral\sysclk/cy_sysclk.h **** * \defgroup group_sysclk_wco             Watch Crystal Oscillator (WCO)
 390:Generated_Source\PSoC6\pdl\drivers\peripheral\sysclk/cy_sysclk.h **** * \{
 391:Generated_Source\PSoC6\pdl\drivers\peripheral\sysclk/cy_sysclk.h **** *   <p>The WCO is a highly accurate 32.768-kHz clock source. It is the primary
 392:Generated_Source\PSoC6\pdl\drivers\peripheral\sysclk/cy_sysclk.h **** *   clock source for the real-time clock (RTC). The WCO can be used as a
 393:Generated_Source\PSoC6\pdl\drivers\peripheral\sysclk/cy_sysclk.h **** *   source for the low-frequency clock. A design can bypass the WCO. If so,
 394:Generated_Source\PSoC6\pdl\drivers\peripheral\sysclk/cy_sysclk.h **** *   an external 32 KHz clock must be provided on the WCO_OUT pin.</p>
 395:Generated_Source\PSoC6\pdl\drivers\peripheral\sysclk/cy_sysclk.h **** *
 396:Generated_Source\PSoC6\pdl\drivers\peripheral\sysclk/cy_sysclk.h **** *   ![](sysclk_backup.png)
 397:Generated_Source\PSoC6\pdl\drivers\peripheral\sysclk/cy_sysclk.h **** *
 398:Generated_Source\PSoC6\pdl\drivers\peripheral\sysclk/cy_sysclk.h **** *   The WCO has a built-in clock supervisor (CSV). The supervisor detects if
 399:Generated_Source\PSoC6\pdl\drivers\peripheral\sysclk/cy_sysclk.h **** *   the WCO has been lost; that is, the WCO is no longer producing clock
 400:Generated_Source\PSoC6\pdl\drivers\peripheral\sysclk/cy_sysclk.h **** *   pulses. The CSV does this by checking to ensure there is at least one WCO
 401:Generated_Source\PSoC6\pdl\drivers\peripheral\sysclk/cy_sysclk.h **** *   clock pulse within a certain time window. The ILO or PILO can be the
 402:Generated_Source\PSoC6\pdl\drivers\peripheral\sysclk/cy_sysclk.h **** *   supervising clock. Firmware can configure the CSV to trigger a fault,
 403:Generated_Source\PSoC6\pdl\drivers\peripheral\sysclk/cy_sysclk.h **** *   a reset, or a fault after four cycles of the supervising clock.
 404:Generated_Source\PSoC6\pdl\drivers\peripheral\sysclk/cy_sysclk.h **** *
 405:Generated_Source\PSoC6\pdl\drivers\peripheral\sysclk/cy_sysclk.h **** *   To configure the CSV, fill in the values of a \ref cy_stc_wco_csv_config_t
 406:Generated_Source\PSoC6\pdl\drivers\peripheral\sysclk/cy_sysclk.h **** *   structure and call Cy_SysClk_WcoConfigureCsv(). This structure specifies
 407:Generated_Source\PSoC6\pdl\drivers\peripheral\sysclk/cy_sysclk.h **** *   the supervising clock, that the CSV is enabled, the time window, and the
 408:Generated_Source\PSoC6\pdl\drivers\peripheral\sysclk/cy_sysclk.h **** *   action on error.
 409:Generated_Source\PSoC6\pdl\drivers\peripheral\sysclk/cy_sysclk.h **** *
 410:Generated_Source\PSoC6\pdl\drivers\peripheral\sysclk/cy_sysclk.h **** *   See the Clocking System chapter of the device technical reference manual (TRM).
 411:Generated_Source\PSoC6\pdl\drivers\peripheral\sysclk/cy_sysclk.h **** *
 412:Generated_Source\PSoC6\pdl\drivers\peripheral\sysclk/cy_sysclk.h **** *   \defgroup group_sysclk_wco_funcs       Functions
 413:Generated_Source\PSoC6\pdl\drivers\peripheral\sysclk/cy_sysclk.h **** *   \defgroup group_sysclk_wco_structs     Data Structures
 414:Generated_Source\PSoC6\pdl\drivers\peripheral\sysclk/cy_sysclk.h **** *   \defgroup group_sysclk_wco_enums       Enumerated Types
 415:Generated_Source\PSoC6\pdl\drivers\peripheral\sysclk/cy_sysclk.h **** * \}
 416:Generated_Source\PSoC6\pdl\drivers\peripheral\sysclk/cy_sysclk.h **** * \defgroup group_sysclk_clk_hf          High-Frequency Clocks
 417:Generated_Source\PSoC6\pdl\drivers\peripheral\sysclk/cy_sysclk.h **** * \{
 418:Generated_Source\PSoC6\pdl\drivers\peripheral\sysclk/cy_sysclk.h **** *   <p>PSoC 6 has five high-frequency root clocks. Each CLK_HF has a particular
ARM GAS  C:\Users\kiwamu\AppData\Local\Temp\ccIx7zyv.s 			page 50


 419:Generated_Source\PSoC6\pdl\drivers\peripheral\sysclk/cy_sysclk.h **** *   destination on the device.</p>
 420:Generated_Source\PSoC6\pdl\drivers\peripheral\sysclk/cy_sysclk.h **** *
 421:Generated_Source\PSoC6\pdl\drivers\peripheral\sysclk/cy_sysclk.h **** *   |Name     |Description                                             |
 422:Generated_Source\PSoC6\pdl\drivers\peripheral\sysclk/cy_sysclk.h **** *   |:--------|:-------------------------------------------------------|
 423:Generated_Source\PSoC6\pdl\drivers\peripheral\sysclk/cy_sysclk.h **** *   |CLK_HF[0]| Root clock for both CPUs, PERI, and AHB infrastructure |
 424:Generated_Source\PSoC6\pdl\drivers\peripheral\sysclk/cy_sysclk.h **** *   |CLK_HF[1]| Root clock for the PDM/PCM and I2S audio subsystem     |
 425:Generated_Source\PSoC6\pdl\drivers\peripheral\sysclk/cy_sysclk.h **** *   |CLK_HF[2]| Root clock for the Serial Memory Interface subsystem   |
 426:Generated_Source\PSoC6\pdl\drivers\peripheral\sysclk/cy_sysclk.h **** *   |CLK_HF[3]| Root clock for USB communications                      |
 427:Generated_Source\PSoC6\pdl\drivers\peripheral\sysclk/cy_sysclk.h **** *   |CLK_HF[4]| Clock output on clk_ext pin (when used as an output)   |
 428:Generated_Source\PSoC6\pdl\drivers\peripheral\sysclk/cy_sysclk.h **** *
 429:Generated_Source\PSoC6\pdl\drivers\peripheral\sysclk/cy_sysclk.h **** *   ![](sysclk_hf.png)
 430:Generated_Source\PSoC6\pdl\drivers\peripheral\sysclk/cy_sysclk.h **** *
 431:Generated_Source\PSoC6\pdl\drivers\peripheral\sysclk/cy_sysclk.h **** *   Each root clock has a clock supervisor (CSV) that can detect frequency loss,
 432:Generated_Source\PSoC6\pdl\drivers\peripheral\sysclk/cy_sysclk.h **** *   or monitor that the clock frequency stays within a specified range. The
 433:Generated_Source\PSoC6\pdl\drivers\peripheral\sysclk/cy_sysclk.h **** *   possible supervising clocks are IMO, the external clock, or ALTHF. Loss
 434:Generated_Source\PSoC6\pdl\drivers\peripheral\sysclk/cy_sysclk.h **** *   detection and frequency monitoring can be enabled or disabled
 435:Generated_Source\PSoC6\pdl\drivers\peripheral\sysclk/cy_sysclk.h **** *   independently. Each has its own programmable action that occurs on
 436:Generated_Source\PSoC6\pdl\drivers\peripheral\sysclk/cy_sysclk.h **** *   detection of an error.
 437:Generated_Source\PSoC6\pdl\drivers\peripheral\sysclk/cy_sysclk.h **** *   
 438:Generated_Source\PSoC6\pdl\drivers\peripheral\sysclk/cy_sysclk.h **** *   To configure the CSV, fill in the values of a \ref cy_stc_clkhf_csv_config_t
 439:Generated_Source\PSoC6\pdl\drivers\peripheral\sysclk/cy_sysclk.h **** *   structure and call Cy_SysClk_ClkHfConfigureCsv(). This structure specifies
 440:Generated_Source\PSoC6\pdl\drivers\peripheral\sysclk/cy_sysclk.h **** *   the supervising clock, the action on error, the frequency range to
 441:Generated_Source\PSoC6\pdl\drivers\peripheral\sysclk/cy_sysclk.h **** *   monitor, and other configuration options.
 442:Generated_Source\PSoC6\pdl\drivers\peripheral\sysclk/cy_sysclk.h **** *   
 443:Generated_Source\PSoC6\pdl\drivers\peripheral\sysclk/cy_sysclk.h **** *   API functions enable or disable, set or get the clock source, set or get the
 444:Generated_Source\PSoC6\pdl\drivers\peripheral\sysclk/cy_sysclk.h **** *   clock divider. 
 445:Generated_Source\PSoC6\pdl\drivers\peripheral\sysclk/cy_sysclk.h **** *   
 446:Generated_Source\PSoC6\pdl\drivers\peripheral\sysclk/cy_sysclk.h **** *   Note that CLK_HF[0] cannot be disabled. This divided clock drives the CM4,
 447:Generated_Source\PSoC6\pdl\drivers\peripheral\sysclk/cy_sysclk.h **** *   the CM0+, and the peripherals in the system.
 448:Generated_Source\PSoC6\pdl\drivers\peripheral\sysclk/cy_sysclk.h **** *
 449:Generated_Source\PSoC6\pdl\drivers\peripheral\sysclk/cy_sysclk.h **** *   ![](sysclk_hf_dist.png)
 450:Generated_Source\PSoC6\pdl\drivers\peripheral\sysclk/cy_sysclk.h **** *
 451:Generated_Source\PSoC6\pdl\drivers\peripheral\sysclk/cy_sysclk.h **** *   See the Clocking System chapter of the device technical reference manual (TRM).
 452:Generated_Source\PSoC6\pdl\drivers\peripheral\sysclk/cy_sysclk.h **** *
 453:Generated_Source\PSoC6\pdl\drivers\peripheral\sysclk/cy_sysclk.h **** *   \defgroup group_sysclk_clk_hf_funcs    Functions
 454:Generated_Source\PSoC6\pdl\drivers\peripheral\sysclk/cy_sysclk.h **** *   \defgroup group_sysclk_clk_hf_structs  Data Structures
 455:Generated_Source\PSoC6\pdl\drivers\peripheral\sysclk/cy_sysclk.h **** *   \defgroup group_sysclk_clk_hf_enums    Enumerated Types
 456:Generated_Source\PSoC6\pdl\drivers\peripheral\sysclk/cy_sysclk.h **** * \}
 457:Generated_Source\PSoC6\pdl\drivers\peripheral\sysclk/cy_sysclk.h **** * \defgroup group_sysclk_clk_fast        Fast Clock
 458:Generated_Source\PSoC6\pdl\drivers\peripheral\sysclk/cy_sysclk.h **** * \{
 459:Generated_Source\PSoC6\pdl\drivers\peripheral\sysclk/cy_sysclk.h **** *   <p>The fast clock drives the Cortex-M4 processor. This clock is a divided
 460:Generated_Source\PSoC6\pdl\drivers\peripheral\sysclk/cy_sysclk.h **** *   version of CLK_HF[0]. See \ref group_sysclk_clk_hf "HF Clocks".
 461:Generated_Source\PSoC6\pdl\drivers\peripheral\sysclk/cy_sysclk.h **** *
 462:Generated_Source\PSoC6\pdl\drivers\peripheral\sysclk/cy_sysclk.h **** *   The API functions for this clock set or get the divider.
 463:Generated_Source\PSoC6\pdl\drivers\peripheral\sysclk/cy_sysclk.h **** *
 464:Generated_Source\PSoC6\pdl\drivers\peripheral\sysclk/cy_sysclk.h **** *   ![](sysclk_fast.png)
 465:Generated_Source\PSoC6\pdl\drivers\peripheral\sysclk/cy_sysclk.h **** *
 466:Generated_Source\PSoC6\pdl\drivers\peripheral\sysclk/cy_sysclk.h **** *   See the Clocking System chapter of the device technical reference manual (TRM).
 467:Generated_Source\PSoC6\pdl\drivers\peripheral\sysclk/cy_sysclk.h **** *
 468:Generated_Source\PSoC6\pdl\drivers\peripheral\sysclk/cy_sysclk.h **** *   \defgroup group_sysclk_clk_fast_funcs  Functions
 469:Generated_Source\PSoC6\pdl\drivers\peripheral\sysclk/cy_sysclk.h **** * \}
 470:Generated_Source\PSoC6\pdl\drivers\peripheral\sysclk/cy_sysclk.h **** * \defgroup group_sysclk_clk_peri        Peripheral Clock
 471:Generated_Source\PSoC6\pdl\drivers\peripheral\sysclk/cy_sysclk.h **** * \{
 472:Generated_Source\PSoC6\pdl\drivers\peripheral\sysclk/cy_sysclk.h **** *   <p>The peripheral clock is a divided clock of CLK_HF0. See
 473:Generated_Source\PSoC6\pdl\drivers\peripheral\sysclk/cy_sysclk.h **** *   \ref group_sysclk_clk_hf "HF Clocks". It is the source clock for the
 474:Generated_Source\PSoC6\pdl\drivers\peripheral\sysclk/cy_sysclk.h **** *   \ref group_sysclk_clk_slow, and multiple peripheral clocks. See
 475:Generated_Source\PSoC6\pdl\drivers\peripheral\sysclk/cy_sysclk.h **** *   \ref group_sysclk_clk_peripheral.</p>
ARM GAS  C:\Users\kiwamu\AppData\Local\Temp\ccIx7zyv.s 			page 51


 476:Generated_Source\PSoC6\pdl\drivers\peripheral\sysclk/cy_sysclk.h **** *
 477:Generated_Source\PSoC6\pdl\drivers\peripheral\sysclk/cy_sysclk.h **** *   The API functions for this clock set or get the divider. 
 478:Generated_Source\PSoC6\pdl\drivers\peripheral\sysclk/cy_sysclk.h **** *
 479:Generated_Source\PSoC6\pdl\drivers\peripheral\sysclk/cy_sysclk.h **** *   ![](sysclk_peri.png)
 480:Generated_Source\PSoC6\pdl\drivers\peripheral\sysclk/cy_sysclk.h **** *
 481:Generated_Source\PSoC6\pdl\drivers\peripheral\sysclk/cy_sysclk.h **** *   See the Clocking System chapter of the device technical reference manual (TRM).
 482:Generated_Source\PSoC6\pdl\drivers\peripheral\sysclk/cy_sysclk.h **** *
 483:Generated_Source\PSoC6\pdl\drivers\peripheral\sysclk/cy_sysclk.h **** *   \defgroup group_sysclk_clk_peri_funcs  Functions
 484:Generated_Source\PSoC6\pdl\drivers\peripheral\sysclk/cy_sysclk.h **** * \}
 485:Generated_Source\PSoC6\pdl\drivers\peripheral\sysclk/cy_sysclk.h **** * \defgroup group_sysclk_clk_peripheral  Peripherals Clock Dividers
 486:Generated_Source\PSoC6\pdl\drivers\peripheral\sysclk/cy_sysclk.h **** * \{
 487:Generated_Source\PSoC6\pdl\drivers\peripheral\sysclk/cy_sysclk.h **** *   <p>There are multiple peripheral clock dividers that, in effect, create 
 488:Generated_Source\PSoC6\pdl\drivers\peripheral\sysclk/cy_sysclk.h **** *   multiple separate peripheral clocks. The available dividers vary per device 
 489:Generated_Source\PSoC6\pdl\drivers\peripheral\sysclk/cy_sysclk.h **** *   series. As an example, for the PSoC 63 series there are 29 dividers:</p>
 490:Generated_Source\PSoC6\pdl\drivers\peripheral\sysclk/cy_sysclk.h **** *   - eight 8-bit dividers
 491:Generated_Source\PSoC6\pdl\drivers\peripheral\sysclk/cy_sysclk.h **** *   - sixteen 16-bit dividers
 492:Generated_Source\PSoC6\pdl\drivers\peripheral\sysclk/cy_sysclk.h **** *   - four fractional 16.5-bit dividers (16 integer bits, 5 fractional bits)
 493:Generated_Source\PSoC6\pdl\drivers\peripheral\sysclk/cy_sysclk.h **** *   - one fractional 24.5-bit divider (24 integer bits, 5 fractional bits)
 494:Generated_Source\PSoC6\pdl\drivers\peripheral\sysclk/cy_sysclk.h **** *
 495:Generated_Source\PSoC6\pdl\drivers\peripheral\sysclk/cy_sysclk.h **** *   The five fractional bits supports further precision in 1/32nd increments. For
 496:Generated_Source\PSoC6\pdl\drivers\peripheral\sysclk/cy_sysclk.h **** *   example, a divider with an integer value of 3 and a fractional value of
 497:Generated_Source\PSoC6\pdl\drivers\peripheral\sysclk/cy_sysclk.h **** *   4 (4/32) results in a divider of 3.125. Fractional dividers are useful when
 498:Generated_Source\PSoC6\pdl\drivers\peripheral\sysclk/cy_sysclk.h **** *   a high-precision clock is required, for example, for a UART/SPI serial
 499:Generated_Source\PSoC6\pdl\drivers\peripheral\sysclk/cy_sysclk.h **** *   interface.
 500:Generated_Source\PSoC6\pdl\drivers\peripheral\sysclk/cy_sysclk.h **** *
 501:Generated_Source\PSoC6\pdl\drivers\peripheral\sysclk/cy_sysclk.h **** *   ![](sysclk_peri_divs.png)
 502:Generated_Source\PSoC6\pdl\drivers\peripheral\sysclk/cy_sysclk.h **** *
 503:Generated_Source\PSoC6\pdl\drivers\peripheral\sysclk/cy_sysclk.h **** *   Each peripheral can connect to any one of the programmable dividers. A
 504:Generated_Source\PSoC6\pdl\drivers\peripheral\sysclk/cy_sysclk.h **** *   particular peripheral clock divider can drive multiple peripherals.
 505:Generated_Source\PSoC6\pdl\drivers\peripheral\sysclk/cy_sysclk.h **** *   
 506:Generated_Source\PSoC6\pdl\drivers\peripheral\sysclk/cy_sysclk.h **** *   API functions set (Cy_SysClk_PeriphAssignDivider()) or get
 507:Generated_Source\PSoC6\pdl\drivers\peripheral\sysclk/cy_sysclk.h **** *   (Cy_SysClk_PeriphGetAssignedDivider()) the divider assigned to a peripheral. 
 508:Generated_Source\PSoC6\pdl\drivers\peripheral\sysclk/cy_sysclk.h **** *   
 509:Generated_Source\PSoC6\pdl\drivers\peripheral\sysclk/cy_sysclk.h **** *   Other API functions set or get the actual divider value, set or get a
 510:Generated_Source\PSoC6\pdl\drivers\peripheral\sysclk/cy_sysclk.h **** *   fractional divider, and enable or disable a divider.
 511:Generated_Source\PSoC6\pdl\drivers\peripheral\sysclk/cy_sysclk.h **** *   
 512:Generated_Source\PSoC6\pdl\drivers\peripheral\sysclk/cy_sysclk.h **** *   The driver supports phase aligning two peripheral clock dividers with
 513:Generated_Source\PSoC6\pdl\drivers\peripheral\sysclk/cy_sysclk.h **** *   Cy_SysClk_PeriphEnablePhaseAlignDivider(). Alignment works for both integer
 514:Generated_Source\PSoC6\pdl\drivers\peripheral\sysclk/cy_sysclk.h **** *   and fractional dividers. The divider to which a second divider is aligned
 515:Generated_Source\PSoC6\pdl\drivers\peripheral\sysclk/cy_sysclk.h **** *   must already be enabled.
 516:Generated_Source\PSoC6\pdl\drivers\peripheral\sysclk/cy_sysclk.h **** *   
 517:Generated_Source\PSoC6\pdl\drivers\peripheral\sysclk/cy_sysclk.h **** *   See the Clocking System chapter of the device technical reference manual (TRM).
 518:Generated_Source\PSoC6\pdl\drivers\peripheral\sysclk/cy_sysclk.h **** *
 519:Generated_Source\PSoC6\pdl\drivers\peripheral\sysclk/cy_sysclk.h **** *   \defgroup group_sysclk_clk_peripheral_funcs Functions
 520:Generated_Source\PSoC6\pdl\drivers\peripheral\sysclk/cy_sysclk.h **** *   \defgroup group_sysclk_clk_peripheral_enums Enumerated Types
 521:Generated_Source\PSoC6\pdl\drivers\peripheral\sysclk/cy_sysclk.h **** * \}
 522:Generated_Source\PSoC6\pdl\drivers\peripheral\sysclk/cy_sysclk.h **** * \defgroup group_sysclk_clk_slow        Slow Clock
 523:Generated_Source\PSoC6\pdl\drivers\peripheral\sysclk/cy_sysclk.h **** * \{
 524:Generated_Source\PSoC6\pdl\drivers\peripheral\sysclk/cy_sysclk.h **** *   <p>The slow clock is the source clock for the Cortex-M0+. This clock is a
 525:Generated_Source\PSoC6\pdl\drivers\peripheral\sysclk/cy_sysclk.h **** *   divided version of the \ref group_sysclk_clk_peri, which in turn is a divided version
 526:Generated_Source\PSoC6\pdl\drivers\peripheral\sysclk/cy_sysclk.h **** *   of CLK_HF[0]. See \ref group_sysclk_clk_hf "HF Clocks".</p>
 527:Generated_Source\PSoC6\pdl\drivers\peripheral\sysclk/cy_sysclk.h **** *
 528:Generated_Source\PSoC6\pdl\drivers\peripheral\sysclk/cy_sysclk.h **** *   The API functions for this clock set or get the divider.
 529:Generated_Source\PSoC6\pdl\drivers\peripheral\sysclk/cy_sysclk.h **** *
 530:Generated_Source\PSoC6\pdl\drivers\peripheral\sysclk/cy_sysclk.h **** *   ![](sysclk_slow.png)
 531:Generated_Source\PSoC6\pdl\drivers\peripheral\sysclk/cy_sysclk.h **** *
 532:Generated_Source\PSoC6\pdl\drivers\peripheral\sysclk/cy_sysclk.h **** *   See the Clocking System chapter of the device technical reference manual (TRM).
ARM GAS  C:\Users\kiwamu\AppData\Local\Temp\ccIx7zyv.s 			page 52


 533:Generated_Source\PSoC6\pdl\drivers\peripheral\sysclk/cy_sysclk.h **** *
 534:Generated_Source\PSoC6\pdl\drivers\peripheral\sysclk/cy_sysclk.h **** *   \defgroup group_sysclk_clk_slow_funcs  Functions
 535:Generated_Source\PSoC6\pdl\drivers\peripheral\sysclk/cy_sysclk.h **** * \}
 536:Generated_Source\PSoC6\pdl\drivers\peripheral\sysclk/cy_sysclk.h **** * \defgroup group_sysclk_clk_lf          Low-Frequency Clock
 537:Generated_Source\PSoC6\pdl\drivers\peripheral\sysclk/cy_sysclk.h **** * \{
 538:Generated_Source\PSoC6\pdl\drivers\peripheral\sysclk/cy_sysclk.h **** *   <p>The low-frequency clock is the source clock for the \ref group_mcwdt
 539:Generated_Source\PSoC6\pdl\drivers\peripheral\sysclk/cy_sysclk.h **** *   and can be the source clock for \ref group_sysclk_clk_bak, which drives the
 540:Generated_Source\PSoC6\pdl\drivers\peripheral\sysclk/cy_sysclk.h **** *   \ref group_rtc.</p>
 541:Generated_Source\PSoC6\pdl\drivers\peripheral\sysclk/cy_sysclk.h **** *   
 542:Generated_Source\PSoC6\pdl\drivers\peripheral\sysclk/cy_sysclk.h **** *   The low-frequency clock has three possible source clocks:
 543:Generated_Source\PSoC6\pdl\drivers\peripheral\sysclk/cy_sysclk.h **** *   \ref group_sysclk_ilo "ILO", \ref group_sysclk_pilo "PILO", and
 544:Generated_Source\PSoC6\pdl\drivers\peripheral\sysclk/cy_sysclk.h **** *   \ref group_sysclk_wco "WCO".
 545:Generated_Source\PSoC6\pdl\drivers\peripheral\sysclk/cy_sysclk.h **** *   
 546:Generated_Source\PSoC6\pdl\drivers\peripheral\sysclk/cy_sysclk.h **** *   The API functions for this clock set or get the source clock.
 547:Generated_Source\PSoC6\pdl\drivers\peripheral\sysclk/cy_sysclk.h **** *
 548:Generated_Source\PSoC6\pdl\drivers\peripheral\sysclk/cy_sysclk.h **** *   ![](sysclk_lf.png)
 549:Generated_Source\PSoC6\pdl\drivers\peripheral\sysclk/cy_sysclk.h **** *
 550:Generated_Source\PSoC6\pdl\drivers\peripheral\sysclk/cy_sysclk.h **** *   See the Clocking System chapter of the device technical reference manual (TRM).
 551:Generated_Source\PSoC6\pdl\drivers\peripheral\sysclk/cy_sysclk.h **** *
 552:Generated_Source\PSoC6\pdl\drivers\peripheral\sysclk/cy_sysclk.h **** *   \defgroup group_sysclk_clk_lf_funcs    Functions
 553:Generated_Source\PSoC6\pdl\drivers\peripheral\sysclk/cy_sysclk.h **** *   \defgroup group_sysclk_clk_lf_enums    Enumerated Types
 554:Generated_Source\PSoC6\pdl\drivers\peripheral\sysclk/cy_sysclk.h **** * \}
 555:Generated_Source\PSoC6\pdl\drivers\peripheral\sysclk/cy_sysclk.h **** * \defgroup group_sysclk_clk_timer       Timer Clock
 556:Generated_Source\PSoC6\pdl\drivers\peripheral\sysclk/cy_sysclk.h **** * \{
 557:Generated_Source\PSoC6\pdl\drivers\peripheral\sysclk/cy_sysclk.h **** *   <p>The timer clock can be the source clock for the \ref group_arm_system_timer
 558:Generated_Source\PSoC6\pdl\drivers\peripheral\sysclk/cy_sysclk.h **** *   (Cy_SysTick_SetClockSource()). It can also be used as a reference clock for
 559:Generated_Source\PSoC6\pdl\drivers\peripheral\sysclk/cy_sysclk.h **** *   a counter in the \ref group_energy_profiler "Profile" (Cy_Profile_ConfigureCounter()).</p>
 560:Generated_Source\PSoC6\pdl\drivers\peripheral\sysclk/cy_sysclk.h **** *   
 561:Generated_Source\PSoC6\pdl\drivers\peripheral\sysclk/cy_sysclk.h **** *   The timer clock is a divided clock of either IMO or CLK_HF[0]. See
 562:Generated_Source\PSoC6\pdl\drivers\peripheral\sysclk/cy_sysclk.h **** *   \ref group_sysclk_clk_hf "HF Clocks".
 563:Generated_Source\PSoC6\pdl\drivers\peripheral\sysclk/cy_sysclk.h **** *   
 564:Generated_Source\PSoC6\pdl\drivers\peripheral\sysclk/cy_sysclk.h **** *   API functions for this clock set or get the source, set or get the divider,
 565:Generated_Source\PSoC6\pdl\drivers\peripheral\sysclk/cy_sysclk.h **** *   and enable or disable the clock.
 566:Generated_Source\PSoC6\pdl\drivers\peripheral\sysclk/cy_sysclk.h **** *   
 567:Generated_Source\PSoC6\pdl\drivers\peripheral\sysclk/cy_sysclk.h **** *   See the Clocking System chapter of the device technical reference manual (TRM).
 568:Generated_Source\PSoC6\pdl\drivers\peripheral\sysclk/cy_sysclk.h **** *
 569:Generated_Source\PSoC6\pdl\drivers\peripheral\sysclk/cy_sysclk.h **** *   \defgroup group_sysclk_clk_timer_funcs Functions
 570:Generated_Source\PSoC6\pdl\drivers\peripheral\sysclk/cy_sysclk.h **** *   \defgroup group_sysclk_clk_timer_enums Enumerated Types
 571:Generated_Source\PSoC6\pdl\drivers\peripheral\sysclk/cy_sysclk.h **** * \}
 572:Generated_Source\PSoC6\pdl\drivers\peripheral\sysclk/cy_sysclk.h **** * \defgroup group_sysclk_clk_pump        Pump Clock
 573:Generated_Source\PSoC6\pdl\drivers\peripheral\sysclk/cy_sysclk.h **** * \{
 574:Generated_Source\PSoC6\pdl\drivers\peripheral\sysclk/cy_sysclk.h **** *   The pump clock may be required to drive the internal voltage pump for the
 575:Generated_Source\PSoC6\pdl\drivers\peripheral\sysclk/cy_sysclk.h **** *   Continuous Time Block mini (CTBm) in the analog subsystem.
 576:Generated_Source\PSoC6\pdl\drivers\peripheral\sysclk/cy_sysclk.h **** *   
 577:Generated_Source\PSoC6\pdl\drivers\peripheral\sysclk/cy_sysclk.h **** *   The pump clock is a divided clock of one of the clock paths. See
 578:Generated_Source\PSoC6\pdl\drivers\peripheral\sysclk/cy_sysclk.h **** *   \ref group_sysclk_path_src.
 579:Generated_Source\PSoC6\pdl\drivers\peripheral\sysclk/cy_sysclk.h **** *   
 580:Generated_Source\PSoC6\pdl\drivers\peripheral\sysclk/cy_sysclk.h **** *   API functions for this clock set or get the source, set or get the divider,
 581:Generated_Source\PSoC6\pdl\drivers\peripheral\sysclk/cy_sysclk.h **** *   and enable or disable the clock.
 582:Generated_Source\PSoC6\pdl\drivers\peripheral\sysclk/cy_sysclk.h **** *   
 583:Generated_Source\PSoC6\pdl\drivers\peripheral\sysclk/cy_sysclk.h **** *   See the Clocking System chapter of the device technical reference manual
 584:Generated_Source\PSoC6\pdl\drivers\peripheral\sysclk/cy_sysclk.h **** *   (TRM) and the Continuous Time Block mini chapter of the TRM.
 585:Generated_Source\PSoC6\pdl\drivers\peripheral\sysclk/cy_sysclk.h **** *
 586:Generated_Source\PSoC6\pdl\drivers\peripheral\sysclk/cy_sysclk.h **** *   \defgroup group_sysclk_clk_pump_funcs  Functions
 587:Generated_Source\PSoC6\pdl\drivers\peripheral\sysclk/cy_sysclk.h **** *   \defgroup group_sysclk_clk_pump_enums  Enumerated Types
 588:Generated_Source\PSoC6\pdl\drivers\peripheral\sysclk/cy_sysclk.h **** * \}
 589:Generated_Source\PSoC6\pdl\drivers\peripheral\sysclk/cy_sysclk.h **** * \defgroup group_sysclk_clk_bak         Backup Domain Clock
ARM GAS  C:\Users\kiwamu\AppData\Local\Temp\ccIx7zyv.s 			page 53


 590:Generated_Source\PSoC6\pdl\drivers\peripheral\sysclk/cy_sysclk.h **** * \{
 591:Generated_Source\PSoC6\pdl\drivers\peripheral\sysclk/cy_sysclk.h **** *   The backup domain clock drives the \ref group_rtc. 
 592:Generated_Source\PSoC6\pdl\drivers\peripheral\sysclk/cy_sysclk.h **** *   
 593:Generated_Source\PSoC6\pdl\drivers\peripheral\sysclk/cy_sysclk.h **** *   The backup domain clock has two possible source clocks: \ref group_sysclk_wco "WCO"
 594:Generated_Source\PSoC6\pdl\drivers\peripheral\sysclk/cy_sysclk.h **** *   or the \ref group_sysclk_clk_lf. In turn the low frequency clock is sourced by
 595:Generated_Source\PSoC6\pdl\drivers\peripheral\sysclk/cy_sysclk.h **** *   \ref group_sysclk_ilo "ILO", \ref group_sysclk_pilo "PILO", or
 596:Generated_Source\PSoC6\pdl\drivers\peripheral\sysclk/cy_sysclk.h **** *   \ref group_sysclk_wco "WCO". Typically ILO is not suitable as an RTC source,
 597:Generated_Source\PSoC6\pdl\drivers\peripheral\sysclk/cy_sysclk.h **** *   because of its low accuracy.
 598:Generated_Source\PSoC6\pdl\drivers\peripheral\sysclk/cy_sysclk.h **** *   
 599:Generated_Source\PSoC6\pdl\drivers\peripheral\sysclk/cy_sysclk.h **** *   The API functions for this clock set or get the source clock. 
 600:Generated_Source\PSoC6\pdl\drivers\peripheral\sysclk/cy_sysclk.h **** *   
 601:Generated_Source\PSoC6\pdl\drivers\peripheral\sysclk/cy_sysclk.h **** *   See the Clocking System chapter of the device technical reference manual (TRM).
 602:Generated_Source\PSoC6\pdl\drivers\peripheral\sysclk/cy_sysclk.h **** *
 603:Generated_Source\PSoC6\pdl\drivers\peripheral\sysclk/cy_sysclk.h **** *   \defgroup group_sysclk_clk_bak_funcs   Functions
 604:Generated_Source\PSoC6\pdl\drivers\peripheral\sysclk/cy_sysclk.h **** *   \defgroup group_sysclk_clk_bak_enums   Enumerated Types
 605:Generated_Source\PSoC6\pdl\drivers\peripheral\sysclk/cy_sysclk.h **** * \}
 606:Generated_Source\PSoC6\pdl\drivers\peripheral\sysclk/cy_sysclk.h **** */
 607:Generated_Source\PSoC6\pdl\drivers\peripheral\sysclk/cy_sysclk.h **** 
 608:Generated_Source\PSoC6\pdl\drivers\peripheral\sysclk/cy_sysclk.h **** #if !defined(__CY_SYSCLK_H__)
 609:Generated_Source\PSoC6\pdl\drivers\peripheral\sysclk/cy_sysclk.h **** #define __CY_SYSCLK_H__
 610:Generated_Source\PSoC6\pdl\drivers\peripheral\sysclk/cy_sysclk.h **** 
 611:Generated_Source\PSoC6\pdl\drivers\peripheral\sysclk/cy_sysclk.h **** #include "cy_device_headers.h"
 612:Generated_Source\PSoC6\pdl\drivers\peripheral\sysclk/cy_sysclk.h **** #include "syslib/cy_syslib.h"
 613:Generated_Source\PSoC6\pdl\drivers\peripheral\sysclk/cy_sysclk.h **** #include "syspm/cy_syspm.h"
 614:Generated_Source\PSoC6\pdl\drivers\peripheral\sysclk/cy_sysclk.h **** #include <stdbool.h>
 615:Generated_Source\PSoC6\pdl\drivers\peripheral\sysclk/cy_sysclk.h **** 
 616:Generated_Source\PSoC6\pdl\drivers\peripheral\sysclk/cy_sysclk.h **** #if defined(__cplusplus)
 617:Generated_Source\PSoC6\pdl\drivers\peripheral\sysclk/cy_sysclk.h **** extern "C" {
 618:Generated_Source\PSoC6\pdl\drivers\peripheral\sysclk/cy_sysclk.h **** #endif /* __cplusplus */
 619:Generated_Source\PSoC6\pdl\drivers\peripheral\sysclk/cy_sysclk.h **** 
 620:Generated_Source\PSoC6\pdl\drivers\peripheral\sysclk/cy_sysclk.h **** /**
 621:Generated_Source\PSoC6\pdl\drivers\peripheral\sysclk/cy_sysclk.h **** * \addtogroup group_sysclk_macros
 622:Generated_Source\PSoC6\pdl\drivers\peripheral\sysclk/cy_sysclk.h **** * \{
 623:Generated_Source\PSoC6\pdl\drivers\peripheral\sysclk/cy_sysclk.h **** */
 624:Generated_Source\PSoC6\pdl\drivers\peripheral\sysclk/cy_sysclk.h **** /** Driver major version */
 625:Generated_Source\PSoC6\pdl\drivers\peripheral\sysclk/cy_sysclk.h **** #define  CY_SYSCLK_DRV_VERSION_MAJOR   1
 626:Generated_Source\PSoC6\pdl\drivers\peripheral\sysclk/cy_sysclk.h **** /** Driver minor version */
 627:Generated_Source\PSoC6\pdl\drivers\peripheral\sysclk/cy_sysclk.h **** #define  CY_SYSCLK_DRV_VERSION_MINOR   10
 628:Generated_Source\PSoC6\pdl\drivers\peripheral\sysclk/cy_sysclk.h **** /** Sysclk driver identifier */
 629:Generated_Source\PSoC6\pdl\drivers\peripheral\sysclk/cy_sysclk.h **** #define CY_SYSCLK_ID   CY_PDL_DRV_ID(0x12U)
 630:Generated_Source\PSoC6\pdl\drivers\peripheral\sysclk/cy_sysclk.h **** 
 631:Generated_Source\PSoC6\pdl\drivers\peripheral\sysclk/cy_sysclk.h **** /** \} group_sysclk_macros */
 632:Generated_Source\PSoC6\pdl\drivers\peripheral\sysclk/cy_sysclk.h **** 
 633:Generated_Source\PSoC6\pdl\drivers\peripheral\sysclk/cy_sysclk.h **** /**
 634:Generated_Source\PSoC6\pdl\drivers\peripheral\sysclk/cy_sysclk.h **** * \addtogroup group_sysclk_returns
 635:Generated_Source\PSoC6\pdl\drivers\peripheral\sysclk/cy_sysclk.h **** * \{
 636:Generated_Source\PSoC6\pdl\drivers\peripheral\sysclk/cy_sysclk.h **** */
 637:Generated_Source\PSoC6\pdl\drivers\peripheral\sysclk/cy_sysclk.h **** /** Defines general-purpose function return values. */
 638:Generated_Source\PSoC6\pdl\drivers\peripheral\sysclk/cy_sysclk.h **** typedef enum
 639:Generated_Source\PSoC6\pdl\drivers\peripheral\sysclk/cy_sysclk.h **** {
 640:Generated_Source\PSoC6\pdl\drivers\peripheral\sysclk/cy_sysclk.h ****     CY_SYSCLK_SUCCESS       = 0u, /**< Command completed with no errors */
 641:Generated_Source\PSoC6\pdl\drivers\peripheral\sysclk/cy_sysclk.h ****     CY_SYSCLK_BAD_PARAM     = (CY_SYSCLK_ID | CY_PDL_STATUS_ERROR | 1u), /**< Invalid function inpu
 642:Generated_Source\PSoC6\pdl\drivers\peripheral\sysclk/cy_sysclk.h ****     CY_SYSCLK_TIMEOUT       = (CY_SYSCLK_ID | CY_PDL_STATUS_ERROR | 2u), /**< Timeout occurred */
 643:Generated_Source\PSoC6\pdl\drivers\peripheral\sysclk/cy_sysclk.h ****     CY_SYSCLK_INVALID_STATE = (CY_SYSCLK_ID | CY_PDL_STATUS_ERROR | 3u)  /**< Clock is in an invali
 644:Generated_Source\PSoC6\pdl\drivers\peripheral\sysclk/cy_sysclk.h **** } cy_en_sysclk_status_t;
 645:Generated_Source\PSoC6\pdl\drivers\peripheral\sysclk/cy_sysclk.h **** /** \} group_sysclk_returns */
 646:Generated_Source\PSoC6\pdl\drivers\peripheral\sysclk/cy_sysclk.h **** 
ARM GAS  C:\Users\kiwamu\AppData\Local\Temp\ccIx7zyv.s 			page 54


 647:Generated_Source\PSoC6\pdl\drivers\peripheral\sysclk/cy_sysclk.h **** /** \cond INTERNAL */
 648:Generated_Source\PSoC6\pdl\drivers\peripheral\sysclk/cy_sysclk.h **** /* Generates shorter code for setting register bitfields */
 649:Generated_Source\PSoC6\pdl\drivers\peripheral\sysclk/cy_sysclk.h **** #define CY_SYSCLK_CLR_SET(reg, field, value) (reg) = _CLR_SET_FLD32U((reg), field, (value))
 650:Generated_Source\PSoC6\pdl\drivers\peripheral\sysclk/cy_sysclk.h **** /* Calculate a / b with rounding to the nearest integer. a and b must have the same sign. */
 651:Generated_Source\PSoC6\pdl\drivers\peripheral\sysclk/cy_sysclk.h **** #define CY_SYSCLK_DIV_ROUND(a, b) (((a) + ((b) / 2u)) / (b))
 652:Generated_Source\PSoC6\pdl\drivers\peripheral\sysclk/cy_sysclk.h **** /* Calculate a / b with rounding up if remainder != 0. a and b must both be positive. */
 653:Generated_Source\PSoC6\pdl\drivers\peripheral\sysclk/cy_sysclk.h **** #define CY_SYSCLK_DIV_ROUNDUP(a, b) ((((a) - 1u) / (b)) + 1u)
 654:Generated_Source\PSoC6\pdl\drivers\peripheral\sysclk/cy_sysclk.h **** /** \endcond */
 655:Generated_Source\PSoC6\pdl\drivers\peripheral\sysclk/cy_sysclk.h **** 
 656:Generated_Source\PSoC6\pdl\drivers\peripheral\sysclk/cy_sysclk.h **** 
 657:Generated_Source\PSoC6\pdl\drivers\peripheral\sysclk/cy_sysclk.h **** /* ========================================================================== */
 658:Generated_Source\PSoC6\pdl\drivers\peripheral\sysclk/cy_sysclk.h **** /* ===========================    ECO SECTION    ============================ */
 659:Generated_Source\PSoC6\pdl\drivers\peripheral\sysclk/cy_sysclk.h **** /* ========================================================================== */
 660:Generated_Source\PSoC6\pdl\drivers\peripheral\sysclk/cy_sysclk.h **** /**
 661:Generated_Source\PSoC6\pdl\drivers\peripheral\sysclk/cy_sysclk.h **** * \addtogroup group_sysclk_eco_funcs
 662:Generated_Source\PSoC6\pdl\drivers\peripheral\sysclk/cy_sysclk.h **** * \{
 663:Generated_Source\PSoC6\pdl\drivers\peripheral\sysclk/cy_sysclk.h **** */
 664:Generated_Source\PSoC6\pdl\drivers\peripheral\sysclk/cy_sysclk.h **** cy_en_sysclk_status_t Cy_SysClk_EcoConfigure(uint32_t freq, uint32_t cLoad, uint32_t esr, uint32_t 
 665:Generated_Source\PSoC6\pdl\drivers\peripheral\sysclk/cy_sysclk.h **** cy_en_sysclk_status_t Cy_SysClk_EcoEnable(uint32_t timeoutus);
 666:Generated_Source\PSoC6\pdl\drivers\peripheral\sysclk/cy_sysclk.h **** __STATIC_INLINE void Cy_SysClk_EcoDisable(void);
 667:Generated_Source\PSoC6\pdl\drivers\peripheral\sysclk/cy_sysclk.h **** __STATIC_INLINE uint32_t Cy_SysClk_EcoGetStatus(void);
 668:Generated_Source\PSoC6\pdl\drivers\peripheral\sysclk/cy_sysclk.h **** 
 669:Generated_Source\PSoC6\pdl\drivers\peripheral\sysclk/cy_sysclk.h **** /*******************************************************************************
 670:Generated_Source\PSoC6\pdl\drivers\peripheral\sysclk/cy_sysclk.h **** * Function Name: Cy_SysClk_EcoDisable
 671:Generated_Source\PSoC6\pdl\drivers\peripheral\sysclk/cy_sysclk.h **** ****************************************************************************//**
 672:Generated_Source\PSoC6\pdl\drivers\peripheral\sysclk/cy_sysclk.h **** *
 673:Generated_Source\PSoC6\pdl\drivers\peripheral\sysclk/cy_sysclk.h **** * Disables the external crystal oscillator (ECO). This function should not be
 674:Generated_Source\PSoC6\pdl\drivers\peripheral\sysclk/cy_sysclk.h **** * called if the ECO is sourcing clkHf[0].
 675:Generated_Source\PSoC6\pdl\drivers\peripheral\sysclk/cy_sysclk.h **** *
 676:Generated_Source\PSoC6\pdl\drivers\peripheral\sysclk/cy_sysclk.h **** *******************************************************************************/
 677:Generated_Source\PSoC6\pdl\drivers\peripheral\sysclk/cy_sysclk.h **** __STATIC_INLINE void Cy_SysClk_EcoDisable(void)
 678:Generated_Source\PSoC6\pdl\drivers\peripheral\sysclk/cy_sysclk.h **** {
 679:Generated_Source\PSoC6\pdl\drivers\peripheral\sysclk/cy_sysclk.h ****     SRSS->CLK_ECO_CONFIG &= ~_VAL2FLD(SRSS_CLK_ECO_CONFIG_ECO_EN, 1u); /* 0 = disable */
 680:Generated_Source\PSoC6\pdl\drivers\peripheral\sysclk/cy_sysclk.h **** }
 681:Generated_Source\PSoC6\pdl\drivers\peripheral\sysclk/cy_sysclk.h **** 
 682:Generated_Source\PSoC6\pdl\drivers\peripheral\sysclk/cy_sysclk.h **** /*******************************************************************************
 683:Generated_Source\PSoC6\pdl\drivers\peripheral\sysclk/cy_sysclk.h **** * Function Name: Cy_SysClk_EcoGetStatus
 684:Generated_Source\PSoC6\pdl\drivers\peripheral\sysclk/cy_sysclk.h **** ****************************************************************************//**
 685:Generated_Source\PSoC6\pdl\drivers\peripheral\sysclk/cy_sysclk.h **** *
 686:Generated_Source\PSoC6\pdl\drivers\peripheral\sysclk/cy_sysclk.h **** * Reports the current status of the external crystal oscillator (ECO).
 687:Generated_Source\PSoC6\pdl\drivers\peripheral\sysclk/cy_sysclk.h **** *
 688:Generated_Source\PSoC6\pdl\drivers\peripheral\sysclk/cy_sysclk.h **** * \return
 689:Generated_Source\PSoC6\pdl\drivers\peripheral\sysclk/cy_sysclk.h **** * 0 = ECO does not have sufficient amplitude<br>
 690:Generated_Source\PSoC6\pdl\drivers\peripheral\sysclk/cy_sysclk.h **** * 1 = ECO has sufficient amplitude but may not be meeting accuracy and duty cycle specifications<br
 691:Generated_Source\PSoC6\pdl\drivers\peripheral\sysclk/cy_sysclk.h **** * 2 = ECO has fully stabilized
 692:Generated_Source\PSoC6\pdl\drivers\peripheral\sysclk/cy_sysclk.h **** *
 693:Generated_Source\PSoC6\pdl\drivers\peripheral\sysclk/cy_sysclk.h **** *******************************************************************************/
 694:Generated_Source\PSoC6\pdl\drivers\peripheral\sysclk/cy_sysclk.h **** __STATIC_INLINE uint32_t Cy_SysClk_EcoGetStatus(void)
 695:Generated_Source\PSoC6\pdl\drivers\peripheral\sysclk/cy_sysclk.h **** {
 696:Generated_Source\PSoC6\pdl\drivers\peripheral\sysclk/cy_sysclk.h ****     uint32_t retval = (SRSS->CLK_ECO_STATUS & 3ul); /* bit 0 = ECO_OK, bit 1 = ECO_READY */
 697:Generated_Source\PSoC6\pdl\drivers\peripheral\sysclk/cy_sysclk.h ****     /* if ECO is not ready, just report the ECO_OK bit. Otherwise report 2 = ECO ready */
 698:Generated_Source\PSoC6\pdl\drivers\peripheral\sysclk/cy_sysclk.h ****     return (((retval & 2ul) == 0) ? retval : 2ul);
 699:Generated_Source\PSoC6\pdl\drivers\peripheral\sysclk/cy_sysclk.h **** }
 700:Generated_Source\PSoC6\pdl\drivers\peripheral\sysclk/cy_sysclk.h **** /** \} group_sysclk_eco_funcs */
 701:Generated_Source\PSoC6\pdl\drivers\peripheral\sysclk/cy_sysclk.h **** 
 702:Generated_Source\PSoC6\pdl\drivers\peripheral\sysclk/cy_sysclk.h **** 
 703:Generated_Source\PSoC6\pdl\drivers\peripheral\sysclk/cy_sysclk.h **** /* ========================================================================== */
ARM GAS  C:\Users\kiwamu\AppData\Local\Temp\ccIx7zyv.s 			page 55


 704:Generated_Source\PSoC6\pdl\drivers\peripheral\sysclk/cy_sysclk.h **** /* ====================    INPUT MULTIPLEXER SECTION    ===================== */
 705:Generated_Source\PSoC6\pdl\drivers\peripheral\sysclk/cy_sysclk.h **** /* ========================================================================== */
 706:Generated_Source\PSoC6\pdl\drivers\peripheral\sysclk/cy_sysclk.h **** /**
 707:Generated_Source\PSoC6\pdl\drivers\peripheral\sysclk/cy_sysclk.h **** * \addtogroup group_sysclk_path_src_enums
 708:Generated_Source\PSoC6\pdl\drivers\peripheral\sysclk/cy_sysclk.h **** * \{
 709:Generated_Source\PSoC6\pdl\drivers\peripheral\sysclk/cy_sysclk.h **** */
 710:Generated_Source\PSoC6\pdl\drivers\peripheral\sysclk/cy_sysclk.h **** /**
 711:Generated_Source\PSoC6\pdl\drivers\peripheral\sysclk/cy_sysclk.h **** *   Input multiplexer clock sources
 712:Generated_Source\PSoC6\pdl\drivers\peripheral\sysclk/cy_sysclk.h **** */
 713:Generated_Source\PSoC6\pdl\drivers\peripheral\sysclk/cy_sysclk.h **** typedef enum
 714:Generated_Source\PSoC6\pdl\drivers\peripheral\sysclk/cy_sysclk.h **** {
 715:Generated_Source\PSoC6\pdl\drivers\peripheral\sysclk/cy_sysclk.h ****     CY_SYSCLK_CLKPATH_IN_IMO    =     0u, /**< Select the IMO as the output of the path mux */
 716:Generated_Source\PSoC6\pdl\drivers\peripheral\sysclk/cy_sysclk.h ****     CY_SYSCLK_CLKPATH_IN_EXT    =     1u, /**< Select the EXT as the output of the path mux */
 717:Generated_Source\PSoC6\pdl\drivers\peripheral\sysclk/cy_sysclk.h ****     CY_SYSCLK_CLKPATH_IN_ECO    =     2u, /**< Select the ECO as the output of the path mux */
 718:Generated_Source\PSoC6\pdl\drivers\peripheral\sysclk/cy_sysclk.h ****     CY_SYSCLK_CLKPATH_IN_ALTHF  =     3u, /**< Select the ALTHF as the output of the path mux */
 719:Generated_Source\PSoC6\pdl\drivers\peripheral\sysclk/cy_sysclk.h ****     CY_SYSCLK_CLKPATH_IN_DSIMUX =     4u, /**< Select the DSI MUX output as the output of the path 
 720:Generated_Source\PSoC6\pdl\drivers\peripheral\sysclk/cy_sysclk.h ****     CY_SYSCLK_CLKPATH_IN_DSI    = 0x100u, /**< Select a DSI signal (0 - 15) as the output of the DS
 721:Generated_Source\PSoC6\pdl\drivers\peripheral\sysclk/cy_sysclk.h ****     CY_SYSCLK_CLKPATH_IN_ILO    = 0x110u, /**< Select the ILO (16) as the output of the DSI mux and
 722:Generated_Source\PSoC6\pdl\drivers\peripheral\sysclk/cy_sysclk.h ****     CY_SYSCLK_CLKPATH_IN_WCO    = 0x111u, /**< Select the WCO (17) as the output of the DSI mux and
 723:Generated_Source\PSoC6\pdl\drivers\peripheral\sysclk/cy_sysclk.h ****     CY_SYSCLK_CLKPATH_IN_ALTLF  = 0x112u, /**< Select the ALTLF (18) as the output of the DSI mux a
 724:Generated_Source\PSoC6\pdl\drivers\peripheral\sysclk/cy_sysclk.h ****     CY_SYSCLK_CLKPATH_IN_PILO   = 0x113u  /**< Select the PILO (19) as the output of the DSI mux an
 725:Generated_Source\PSoC6\pdl\drivers\peripheral\sysclk/cy_sysclk.h **** } cy_en_clkpath_in_sources_t;
 726:Generated_Source\PSoC6\pdl\drivers\peripheral\sysclk/cy_sysclk.h **** /** \} group_sysclk_path_src_enums */
 727:Generated_Source\PSoC6\pdl\drivers\peripheral\sysclk/cy_sysclk.h **** 
 728:Generated_Source\PSoC6\pdl\drivers\peripheral\sysclk/cy_sysclk.h **** /**
 729:Generated_Source\PSoC6\pdl\drivers\peripheral\sysclk/cy_sysclk.h **** * \addtogroup group_sysclk_path_src_funcs
 730:Generated_Source\PSoC6\pdl\drivers\peripheral\sysclk/cy_sysclk.h **** * \{
 731:Generated_Source\PSoC6\pdl\drivers\peripheral\sysclk/cy_sysclk.h **** */
 732:Generated_Source\PSoC6\pdl\drivers\peripheral\sysclk/cy_sysclk.h **** cy_en_sysclk_status_t Cy_SysClk_ClkPathSetSource(uint32_t clkPath, cy_en_clkpath_in_sources_t sourc
 733:Generated_Source\PSoC6\pdl\drivers\peripheral\sysclk/cy_sysclk.h **** cy_en_clkpath_in_sources_t Cy_SysClk_ClkPathGetSource(uint32_t clkPath);
 734:Generated_Source\PSoC6\pdl\drivers\peripheral\sysclk/cy_sysclk.h **** /** \} group_sysclk_path_src_funcs */
 735:Generated_Source\PSoC6\pdl\drivers\peripheral\sysclk/cy_sysclk.h **** 
 736:Generated_Source\PSoC6\pdl\drivers\peripheral\sysclk/cy_sysclk.h **** 
 737:Generated_Source\PSoC6\pdl\drivers\peripheral\sysclk/cy_sysclk.h **** /* ========================================================================== */
 738:Generated_Source\PSoC6\pdl\drivers\peripheral\sysclk/cy_sysclk.h **** /* ===========================    FLL SECTION    ============================ */
 739:Generated_Source\PSoC6\pdl\drivers\peripheral\sysclk/cy_sysclk.h **** /* ========================================================================== */
 740:Generated_Source\PSoC6\pdl\drivers\peripheral\sysclk/cy_sysclk.h **** /**
 741:Generated_Source\PSoC6\pdl\drivers\peripheral\sysclk/cy_sysclk.h **** * \addtogroup group_sysclk_fll_enums
 742:Generated_Source\PSoC6\pdl\drivers\peripheral\sysclk/cy_sysclk.h **** * \{
 743:Generated_Source\PSoC6\pdl\drivers\peripheral\sysclk/cy_sysclk.h **** */
 744:Generated_Source\PSoC6\pdl\drivers\peripheral\sysclk/cy_sysclk.h **** /** FLL and PLL output mode.
 745:Generated_Source\PSoC6\pdl\drivers\peripheral\sysclk/cy_sysclk.h **** * See registers CLK_FLL_CONFIG3 and CLK_PLL_CONFIG0, bits BYPASS_SEL.
 746:Generated_Source\PSoC6\pdl\drivers\peripheral\sysclk/cy_sysclk.h **** */
 747:Generated_Source\PSoC6\pdl\drivers\peripheral\sysclk/cy_sysclk.h **** typedef enum
 748:Generated_Source\PSoC6\pdl\drivers\peripheral\sysclk/cy_sysclk.h **** {
 749:Generated_Source\PSoC6\pdl\drivers\peripheral\sysclk/cy_sysclk.h ****     CY_SYSCLK_FLLPLL_OUTPUT_AUTO   = 0u, /**< Output FLL/PLL input source when not locked, and FLL/
 750:Generated_Source\PSoC6\pdl\drivers\peripheral\sysclk/cy_sysclk.h ****     CY_SYSCLK_FLLPLL_OUTPUT_AUTO1  = 1u, /**< Same as AUTO */
 751:Generated_Source\PSoC6\pdl\drivers\peripheral\sysclk/cy_sysclk.h ****     CY_SYSCLK_FLLPLL_OUTPUT_INPUT  = 2u, /**< Output FLL/PLL input source regardless of lock status
 752:Generated_Source\PSoC6\pdl\drivers\peripheral\sysclk/cy_sysclk.h ****     CY_SYSCLK_FLLPLL_OUTPUT_OUTPUT = 3u  /**< Output FLL/PLL output regardless of lock status. This
 753:Generated_Source\PSoC6\pdl\drivers\peripheral\sysclk/cy_sysclk.h **** } cy_en_fll_pll_output_mode_t;
 754:Generated_Source\PSoC6\pdl\drivers\peripheral\sysclk/cy_sysclk.h **** 
 755:Generated_Source\PSoC6\pdl\drivers\peripheral\sysclk/cy_sysclk.h **** /** FLL current-controlled oscillator (CCO) frequency ranges.
 756:Generated_Source\PSoC6\pdl\drivers\peripheral\sysclk/cy_sysclk.h **** * See register CLK_FLL_CONFIG4, bits CCO_RANGE.
 757:Generated_Source\PSoC6\pdl\drivers\peripheral\sysclk/cy_sysclk.h **** */
 758:Generated_Source\PSoC6\pdl\drivers\peripheral\sysclk/cy_sysclk.h **** typedef enum
 759:Generated_Source\PSoC6\pdl\drivers\peripheral\sysclk/cy_sysclk.h **** {
 760:Generated_Source\PSoC6\pdl\drivers\peripheral\sysclk/cy_sysclk.h ****     CY_SYSCLK_FLL_CCO_RANGE0, /**< Target frequency is in range  48 -  64 MHz. */
ARM GAS  C:\Users\kiwamu\AppData\Local\Temp\ccIx7zyv.s 			page 56


 761:Generated_Source\PSoC6\pdl\drivers\peripheral\sysclk/cy_sysclk.h ****     CY_SYSCLK_FLL_CCO_RANGE1, /**< Target frequency is in range  64 -  85 MHz. */
 762:Generated_Source\PSoC6\pdl\drivers\peripheral\sysclk/cy_sysclk.h ****     CY_SYSCLK_FLL_CCO_RANGE2, /**< Target frequency is in range  85 - 113 MHz. */
 763:Generated_Source\PSoC6\pdl\drivers\peripheral\sysclk/cy_sysclk.h ****     CY_SYSCLK_FLL_CCO_RANGE3, /**< Target frequency is in range 113 - 150 MHz. */
 764:Generated_Source\PSoC6\pdl\drivers\peripheral\sysclk/cy_sysclk.h ****     CY_SYSCLK_FLL_CCO_RANGE4  /**< Target frequency is in range 150 - 200 MHz. */
 765:Generated_Source\PSoC6\pdl\drivers\peripheral\sysclk/cy_sysclk.h **** } cy_en_fll_cco_ranges_t;
 766:Generated_Source\PSoC6\pdl\drivers\peripheral\sysclk/cy_sysclk.h **** /** \} group_sysclk_fll_enums */
 767:Generated_Source\PSoC6\pdl\drivers\peripheral\sysclk/cy_sysclk.h **** 
 768:Generated_Source\PSoC6\pdl\drivers\peripheral\sysclk/cy_sysclk.h **** /**
 769:Generated_Source\PSoC6\pdl\drivers\peripheral\sysclk/cy_sysclk.h **** * \addtogroup group_sysclk_fll_structs
 770:Generated_Source\PSoC6\pdl\drivers\peripheral\sysclk/cy_sysclk.h **** * \{
 771:Generated_Source\PSoC6\pdl\drivers\peripheral\sysclk/cy_sysclk.h **** */
 772:Generated_Source\PSoC6\pdl\drivers\peripheral\sysclk/cy_sysclk.h **** /** Structure containing information for manual configuration of FLL.
 773:Generated_Source\PSoC6\pdl\drivers\peripheral\sysclk/cy_sysclk.h **** */
 774:Generated_Source\PSoC6\pdl\drivers\peripheral\sysclk/cy_sysclk.h **** typedef struct
 775:Generated_Source\PSoC6\pdl\drivers\peripheral\sysclk/cy_sysclk.h **** {
 776:Generated_Source\PSoC6\pdl\drivers\peripheral\sysclk/cy_sysclk.h ****     uint32_t                    fllMult;         /**< CLK_FLL_CONFIG  register, FLL_MULT bits */
 777:Generated_Source\PSoC6\pdl\drivers\peripheral\sysclk/cy_sysclk.h ****     uint16_t                    refDiv;          /**< CLK_FLL_CONFIG2 register, FLL_REF_DIV bits */
 778:Generated_Source\PSoC6\pdl\drivers\peripheral\sysclk/cy_sysclk.h ****     cy_en_fll_cco_ranges_t      ccoRange;        /**< CLK_FLL_CONFIG4 register, CCO_RANGE bits */
 779:Generated_Source\PSoC6\pdl\drivers\peripheral\sysclk/cy_sysclk.h ****     bool                        enableOutputDiv; /**< CLK_FLL_CONFIG  register, FLL_OUTPUT_DIV bit 
 780:Generated_Source\PSoC6\pdl\drivers\peripheral\sysclk/cy_sysclk.h ****     uint16_t                    lockTolerance;   /**< CLK_FLL_CONFIG2 register, LOCK_TOL bits */
 781:Generated_Source\PSoC6\pdl\drivers\peripheral\sysclk/cy_sysclk.h ****     uint8_t                     igain;           /**< CLK_FLL_CONFIG3 register, FLL_LF_IGAIN bits *
 782:Generated_Source\PSoC6\pdl\drivers\peripheral\sysclk/cy_sysclk.h ****     uint8_t                     pgain;           /**< CLK_FLL_CONFIG3 register, FLL_LF_PGAIN bits *
 783:Generated_Source\PSoC6\pdl\drivers\peripheral\sysclk/cy_sysclk.h ****     uint16_t                    settlingCount;   /**< CLK_FLL_CONFIG3 register, SETTLING_COUNT bits
 784:Generated_Source\PSoC6\pdl\drivers\peripheral\sysclk/cy_sysclk.h ****     cy_en_fll_pll_output_mode_t outputMode;      /**< CLK_FLL_CONFIG3 register, BYPASS_SEL bits */
 785:Generated_Source\PSoC6\pdl\drivers\peripheral\sysclk/cy_sysclk.h ****     uint16_t                    cco_Freq;        /**< CLK_FLL_CONFIG4 register, CCO_FREQ bits */
 786:Generated_Source\PSoC6\pdl\drivers\peripheral\sysclk/cy_sysclk.h **** } cy_stc_fll_manual_config_t;
 787:Generated_Source\PSoC6\pdl\drivers\peripheral\sysclk/cy_sysclk.h **** /** \} group_sysclk_fll_structs */
 788:Generated_Source\PSoC6\pdl\drivers\peripheral\sysclk/cy_sysclk.h **** 
 789:Generated_Source\PSoC6\pdl\drivers\peripheral\sysclk/cy_sysclk.h **** /**
 790:Generated_Source\PSoC6\pdl\drivers\peripheral\sysclk/cy_sysclk.h **** * \addtogroup group_sysclk_fll_funcs
 791:Generated_Source\PSoC6\pdl\drivers\peripheral\sysclk/cy_sysclk.h **** * \{
 792:Generated_Source\PSoC6\pdl\drivers\peripheral\sysclk/cy_sysclk.h **** */
 793:Generated_Source\PSoC6\pdl\drivers\peripheral\sysclk/cy_sysclk.h **** cy_en_sysclk_status_t Cy_SysClk_FllConfigure(uint32_t inputFreq, uint32_t outputFreq, cy_en_fll_pll
 794:Generated_Source\PSoC6\pdl\drivers\peripheral\sysclk/cy_sysclk.h **** cy_en_sysclk_status_t Cy_SysClk_FllManualConfigure(const cy_stc_fll_manual_config_t *config);
 795:Generated_Source\PSoC6\pdl\drivers\peripheral\sysclk/cy_sysclk.h **** void Cy_SysClk_FllGetConfiguration(cy_stc_fll_manual_config_t *config);
 796:Generated_Source\PSoC6\pdl\drivers\peripheral\sysclk/cy_sysclk.h **** cy_en_sysclk_status_t Cy_SysClk_FllEnable(uint32_t timeoutus);
 797:Generated_Source\PSoC6\pdl\drivers\peripheral\sysclk/cy_sysclk.h **** __STATIC_INLINE bool Cy_SysClk_FllLocked(void);
 798:Generated_Source\PSoC6\pdl\drivers\peripheral\sysclk/cy_sysclk.h **** __STATIC_INLINE bool Cy_SysClk_FllLostLock(void);
 799:Generated_Source\PSoC6\pdl\drivers\peripheral\sysclk/cy_sysclk.h **** __STATIC_INLINE cy_en_sysclk_status_t Cy_SysClk_FllDisable(void);
 800:Generated_Source\PSoC6\pdl\drivers\peripheral\sysclk/cy_sysclk.h **** 
 801:Generated_Source\PSoC6\pdl\drivers\peripheral\sysclk/cy_sysclk.h **** /*******************************************************************************
 802:Generated_Source\PSoC6\pdl\drivers\peripheral\sysclk/cy_sysclk.h **** * Function Name: Cy_SysClk_FllLocked
 803:Generated_Source\PSoC6\pdl\drivers\peripheral\sysclk/cy_sysclk.h **** ****************************************************************************//**
 804:Generated_Source\PSoC6\pdl\drivers\peripheral\sysclk/cy_sysclk.h **** *
 805:Generated_Source\PSoC6\pdl\drivers\peripheral\sysclk/cy_sysclk.h **** * Reports whether or not the FLL is locked.
 806:Generated_Source\PSoC6\pdl\drivers\peripheral\sysclk/cy_sysclk.h **** *
 807:Generated_Source\PSoC6\pdl\drivers\peripheral\sysclk/cy_sysclk.h **** * \return false = not locked, true = locked
 808:Generated_Source\PSoC6\pdl\drivers\peripheral\sysclk/cy_sysclk.h **** *
 809:Generated_Source\PSoC6\pdl\drivers\peripheral\sysclk/cy_sysclk.h **** *******************************************************************************/
 810:Generated_Source\PSoC6\pdl\drivers\peripheral\sysclk/cy_sysclk.h **** __STATIC_INLINE bool Cy_SysClk_FllLocked(void)
 811:Generated_Source\PSoC6\pdl\drivers\peripheral\sysclk/cy_sysclk.h **** {
 812:Generated_Source\PSoC6\pdl\drivers\peripheral\sysclk/cy_sysclk.h ****     return (bool)(_FLD2VAL(SRSS_CLK_FLL_STATUS_LOCKED, SRSS->CLK_FLL_STATUS));
 813:Generated_Source\PSoC6\pdl\drivers\peripheral\sysclk/cy_sysclk.h **** }
 814:Generated_Source\PSoC6\pdl\drivers\peripheral\sysclk/cy_sysclk.h **** 
 815:Generated_Source\PSoC6\pdl\drivers\peripheral\sysclk/cy_sysclk.h **** /*******************************************************************************
 816:Generated_Source\PSoC6\pdl\drivers\peripheral\sysclk/cy_sysclk.h **** * Function Name: Cy_SysClk_FllLostLock
 817:Generated_Source\PSoC6\pdl\drivers\peripheral\sysclk/cy_sysclk.h **** ****************************************************************************//**
ARM GAS  C:\Users\kiwamu\AppData\Local\Temp\ccIx7zyv.s 			page 57


 818:Generated_Source\PSoC6\pdl\drivers\peripheral\sysclk/cy_sysclk.h **** *
 819:Generated_Source\PSoC6\pdl\drivers\peripheral\sysclk/cy_sysclk.h **** * Reports whether or not the FLL lost its lock since the last time this function
 820:Generated_Source\PSoC6\pdl\drivers\peripheral\sysclk/cy_sysclk.h **** * was called. Clears the lost lock indicator.
 821:Generated_Source\PSoC6\pdl\drivers\peripheral\sysclk/cy_sysclk.h **** *
 822:Generated_Source\PSoC6\pdl\drivers\peripheral\sysclk/cy_sysclk.h **** * \return false = didn't lose lock, true = lost lock
 823:Generated_Source\PSoC6\pdl\drivers\peripheral\sysclk/cy_sysclk.h **** *
 824:Generated_Source\PSoC6\pdl\drivers\peripheral\sysclk/cy_sysclk.h **** *******************************************************************************/
 825:Generated_Source\PSoC6\pdl\drivers\peripheral\sysclk/cy_sysclk.h **** __STATIC_INLINE bool Cy_SysClk_FllLostLock(void)
 826:Generated_Source\PSoC6\pdl\drivers\peripheral\sysclk/cy_sysclk.h **** {
 827:Generated_Source\PSoC6\pdl\drivers\peripheral\sysclk/cy_sysclk.h ****     uint32_t retval = _FLD2VAL(SRSS_CLK_FLL_STATUS_UNLOCK_OCCURRED, SRSS->CLK_FLL_STATUS);
 828:Generated_Source\PSoC6\pdl\drivers\peripheral\sysclk/cy_sysclk.h ****     /* write a 1 to clear the unlock occurred bit */
 829:Generated_Source\PSoC6\pdl\drivers\peripheral\sysclk/cy_sysclk.h ****     SRSS->CLK_FLL_STATUS = _VAL2FLD(SRSS_CLK_FLL_STATUS_UNLOCK_OCCURRED, 1u);
 830:Generated_Source\PSoC6\pdl\drivers\peripheral\sysclk/cy_sysclk.h ****     return ((bool)retval);
 831:Generated_Source\PSoC6\pdl\drivers\peripheral\sysclk/cy_sysclk.h **** }
 832:Generated_Source\PSoC6\pdl\drivers\peripheral\sysclk/cy_sysclk.h **** 
 833:Generated_Source\PSoC6\pdl\drivers\peripheral\sysclk/cy_sysclk.h **** /*******************************************************************************
 834:Generated_Source\PSoC6\pdl\drivers\peripheral\sysclk/cy_sysclk.h **** * Function Name: Cy_SysClk_FllDisable
 835:Generated_Source\PSoC6\pdl\drivers\peripheral\sysclk/cy_sysclk.h **** ****************************************************************************//**
 836:Generated_Source\PSoC6\pdl\drivers\peripheral\sysclk/cy_sysclk.h **** *
 837:Generated_Source\PSoC6\pdl\drivers\peripheral\sysclk/cy_sysclk.h **** * Disables the FLL and the CCO.
 838:Generated_Source\PSoC6\pdl\drivers\peripheral\sysclk/cy_sysclk.h **** *
 839:Generated_Source\PSoC6\pdl\drivers\peripheral\sysclk/cy_sysclk.h **** * \return \ref cy_en_sysclk_status_t
 840:Generated_Source\PSoC6\pdl\drivers\peripheral\sysclk/cy_sysclk.h **** *
 841:Generated_Source\PSoC6\pdl\drivers\peripheral\sysclk/cy_sysclk.h **** *******************************************************************************/
