ARM GAS  C:\Users\kiwamu\AppData\Local\Temp\ccfghKh9.s 			page 1


   1              		.syntax unified
   2              		.cpu cortex-m0plus
   3              		.fpu softvfp
   4              		.eabi_attribute 20, 1
   5              		.eabi_attribute 21, 1
   6              		.eabi_attribute 23, 3
   7              		.eabi_attribute 24, 1
   8              		.eabi_attribute 25, 1
   9              		.eabi_attribute 26, 1
  10              		.eabi_attribute 30, 1
  11              		.eabi_attribute 34, 0
  12              		.eabi_attribute 18, 4
  13              		.thumb
  14              		.syntax unified
  15              		.file	"system_psoc63_cm0plus.c"
  16              		.text
  17              	.Ltext0:
  18              		.cfi_sections	.debug_frame
  19              		.section	.text.Cy_SystemInit,"ax",%progbits
  20              		.align	2
  21              		.weak	Cy_SystemInit
  22              		.code	16
  23              		.thumb_func
  24              		.type	Cy_SystemInit, %function
  25              	Cy_SystemInit:
  26              	.LFB56:
  27              		.file 1 "system_psoc63_cm0plus.c"
   1:system_psoc63_cm0plus.c **** /***************************************************************************//**
   2:system_psoc63_cm0plus.c **** * \file system_psoc63_cm0plus.c
   3:system_psoc63_cm0plus.c **** * \version 2.0
   4:system_psoc63_cm0plus.c **** *
   5:system_psoc63_cm0plus.c **** * The device system-source file.
   6:system_psoc63_cm0plus.c **** *
   7:system_psoc63_cm0plus.c **** ********************************************************************************
   8:system_psoc63_cm0plus.c **** * \copyright
   9:system_psoc63_cm0plus.c **** * Copyright 2016-2017, Cypress Semiconductor Corporation.  All rights reserved.
  10:system_psoc63_cm0plus.c **** * You may use this file only in accordance with the license, terms, conditions,
  11:system_psoc63_cm0plus.c **** * disclaimers, and limitations in the end user license agreement accompanying
  12:system_psoc63_cm0plus.c **** * the software package with which this file was provided.
  13:system_psoc63_cm0plus.c **** *******************************************************************************/
  14:system_psoc63_cm0plus.c **** 
  15:system_psoc63_cm0plus.c **** #include <stdint.h>
  16:system_psoc63_cm0plus.c **** #include <stdbool.h>
  17:system_psoc63_cm0plus.c **** #include "system_psoc63.h"
  18:system_psoc63_cm0plus.c **** #include "cy_device_headers.h"
  19:system_psoc63_cm0plus.c **** 
  20:system_psoc63_cm0plus.c **** #if !defined(CY_IPC_DEFAULT_CFG_DISABLE)
  21:system_psoc63_cm0plus.c ****     #include "ipc/cy_ipc_pipe.h"
  22:system_psoc63_cm0plus.c ****     #include "ipc/cy_ipc_sema.h"
  23:system_psoc63_cm0plus.c **** #endif /* CY_IPC_DEFAULT_CFG_DISABLE */
  24:system_psoc63_cm0plus.c **** 
  25:system_psoc63_cm0plus.c **** 
  26:system_psoc63_cm0plus.c **** /*******************************************************************************
  27:system_psoc63_cm0plus.c **** * SystemCoreClockUpdate()
  28:system_psoc63_cm0plus.c **** *******************************************************************************/
  29:system_psoc63_cm0plus.c **** 
  30:system_psoc63_cm0plus.c **** /** Default HFClk frequency in Hz */
ARM GAS  C:\Users\kiwamu\AppData\Local\Temp\ccfghKh9.s 			page 2


  31:system_psoc63_cm0plus.c **** #define CY_CLK_HFCLK0_FREQ_HZ_DEFAULT       ( 8000000UL)
  32:system_psoc63_cm0plus.c **** 
  33:system_psoc63_cm0plus.c **** /** Default PeriClk frequency in Hz */
  34:system_psoc63_cm0plus.c **** #define CY_CLK_PERICLK_FREQ_HZ_DEFAULT      (4000000UL)
  35:system_psoc63_cm0plus.c **** 
  36:system_psoc63_cm0plus.c **** /** Default SlowClk system core frequency in Hz */
  37:system_psoc63_cm0plus.c **** #define CY_CLK_SYSTEM_FREQ_HZ_DEFAULT       (4000000UL)
  38:system_psoc63_cm0plus.c **** 
  39:system_psoc63_cm0plus.c **** /** IMO frequency in Hz */
  40:system_psoc63_cm0plus.c **** #define CY_CLK_IMO_FREQ_HZ                  (8000000UL)
  41:system_psoc63_cm0plus.c **** 
  42:system_psoc63_cm0plus.c **** /** HVILO frequency in Hz */
  43:system_psoc63_cm0plus.c **** #define CY_CLK_HVILO_FREQ_HZ                  (32000UL)
  44:system_psoc63_cm0plus.c **** 
  45:system_psoc63_cm0plus.c **** #if (SRSS_PILO_PRESENT == 1U) || defined(CY_DOXYGEN)
  46:system_psoc63_cm0plus.c ****     /** PILO frequency in Hz */
  47:system_psoc63_cm0plus.c ****     #define CY_CLK_PILO_FREQ_HZ              (32768UL)
  48:system_psoc63_cm0plus.c **** #endif /* (SRSS_PILO_PRESENT == 1U) || defined(CY_DOXYGEN) */
  49:system_psoc63_cm0plus.c **** 
  50:system_psoc63_cm0plus.c **** /** WCO frequency in Hz */
  51:system_psoc63_cm0plus.c **** #define CY_CLK_WCO_FREQ_HZ                   (32768UL)
  52:system_psoc63_cm0plus.c **** 
  53:system_psoc63_cm0plus.c **** #if (SRSS_ALTLF_PRESENT == 1U) || defined(CY_DOXYGEN)
  54:system_psoc63_cm0plus.c ****     /** ALTLF frequency in Hz */
  55:system_psoc63_cm0plus.c ****     #define CY_CLK_ALTLF_FREQ_HZ             (32768UL)
  56:system_psoc63_cm0plus.c **** #endif /* (SRSS_ALTLF_PRESENT == 1U) || defined(CY_DOXYGEN) */
  57:system_psoc63_cm0plus.c **** 
  58:system_psoc63_cm0plus.c **** 
  59:system_psoc63_cm0plus.c **** /** Holds the SlowClk system core clock, which is the system clock frequency supplied to the SysTic
  60:system_psoc63_cm0plus.c **** * processor core clock. This variable can be used by debuggers to query the frequency of the debug 
  61:system_psoc63_cm0plus.c **** * the trace clock speed.
  62:system_psoc63_cm0plus.c **** *
  63:system_psoc63_cm0plus.c **** * \attention Compilers must be configured to avoid removing this variable in case the application p
  64:system_psoc63_cm0plus.c **** * it. Debugging systems require the variable to be physically present in memory so that it can be e
  65:system_psoc63_cm0plus.c **** * the debugger. */
  66:system_psoc63_cm0plus.c **** uint32_t SystemCoreClock = CY_CLK_SYSTEM_FREQ_HZ_DEFAULT;
  67:system_psoc63_cm0plus.c **** 
  68:system_psoc63_cm0plus.c **** /** Holds the HFClk0 clock frequency. Updated by \ref SystemCoreClockUpdate(). */
  69:system_psoc63_cm0plus.c **** uint32_t cy_Hfclk0FreqHz  = CY_CLK_HFCLK0_FREQ_HZ_DEFAULT;
  70:system_psoc63_cm0plus.c **** 
  71:system_psoc63_cm0plus.c **** /** Holds the PeriClk clock frequency. Updated by \ref SystemCoreClockUpdate(). */
  72:system_psoc63_cm0plus.c **** uint32_t cy_PeriClkFreqHz = CY_CLK_PERICLK_FREQ_HZ_DEFAULT;
  73:system_psoc63_cm0plus.c **** 
  74:system_psoc63_cm0plus.c **** /** Holds the Alternate high frequency clock in Hz. Updated by \ref SystemCoreClockUpdate(). */
  75:system_psoc63_cm0plus.c **** #if defined (CY_IP_MXBLESS) && (CY_IP_MXBLESS == 1UL)
  76:system_psoc63_cm0plus.c ****     uint32_t cy_BleEcoClockFreqHz = CY_CLK_ALTHF_FREQ_HZ;
  77:system_psoc63_cm0plus.c **** #endif /* defined (CY_IP_MXBLESS) && (CY_IP_MXBLESS == 1UL) */
  78:system_psoc63_cm0plus.c **** 
  79:system_psoc63_cm0plus.c **** 
  80:system_psoc63_cm0plus.c **** /*******************************************************************************
  81:system_psoc63_cm0plus.c **** * SystemInit()
  82:system_psoc63_cm0plus.c **** *******************************************************************************/
  83:system_psoc63_cm0plus.c **** /* WDT lock bits */
  84:system_psoc63_cm0plus.c **** #define CY_WDT_LOCK_BIT0                ((uint32_t)0x01u << 30u)
  85:system_psoc63_cm0plus.c **** #define CY_WDT_LOCK_BIT1                ((uint32_t)0x01u << 31u)
  86:system_psoc63_cm0plus.c **** 
  87:system_psoc63_cm0plus.c **** /* CLK_FLL_CONFIG default values */
ARM GAS  C:\Users\kiwamu\AppData\Local\Temp\ccfghKh9.s 			page 3


  88:system_psoc63_cm0plus.c **** #define CY_FB_CLK_FLL_CONFIG_VALUE      (0x01000000u)
  89:system_psoc63_cm0plus.c **** #define CY_FB_CLK_FLL_CONFIG2_VALUE     (0x00020001u)
  90:system_psoc63_cm0plus.c **** #define CY_FB_CLK_FLL_CONFIG3_VALUE     (0x00002800u)
  91:system_psoc63_cm0plus.c **** #define CY_FB_CLK_FLL_CONFIG4_VALUE     (0x000000FFu)
  92:system_psoc63_cm0plus.c **** 
  93:system_psoc63_cm0plus.c **** 
  94:system_psoc63_cm0plus.c **** /*******************************************************************************
  95:system_psoc63_cm0plus.c **** * SystemCoreClockUpdate (void)
  96:system_psoc63_cm0plus.c **** *******************************************************************************/
  97:system_psoc63_cm0plus.c **** /* Do not use these definitions directly in your application */
  98:system_psoc63_cm0plus.c **** #define CY_DELAY_MS_OVERFLOW_THRESHOLD  (0x8000u)
  99:system_psoc63_cm0plus.c **** #define CY_DELAY_1K_THRESHOLD           (1000u)
 100:system_psoc63_cm0plus.c **** #define CY_DELAY_1K_MINUS_1_THRESHOLD   (CY_DELAY_1K_THRESHOLD - 1u)
 101:system_psoc63_cm0plus.c **** #define CY_DELAY_1M_THRESHOLD           (1000000u)
 102:system_psoc63_cm0plus.c **** #define CY_DELAY_1M_MINUS_1_THRESHOLD   (CY_DELAY_1M_THRESHOLD - 1u)
 103:system_psoc63_cm0plus.c **** uint32_t cy_delayFreqHz   = CY_CLK_SYSTEM_FREQ_HZ_DEFAULT;
 104:system_psoc63_cm0plus.c **** 
 105:system_psoc63_cm0plus.c **** uint32_t cy_delayFreqKhz  = (CY_CLK_SYSTEM_FREQ_HZ_DEFAULT + CY_DELAY_1K_MINUS_1_THRESHOLD) /
 106:system_psoc63_cm0plus.c ****                             CY_DELAY_1K_THRESHOLD;
 107:system_psoc63_cm0plus.c **** 
 108:system_psoc63_cm0plus.c **** uint8_t cy_delayFreqMhz  = (uint8_t)((CY_CLK_SYSTEM_FREQ_HZ_DEFAULT + CY_DELAY_1M_MINUS_1_THRESHOLD
 109:system_psoc63_cm0plus.c ****                             CY_DELAY_1M_THRESHOLD);
 110:system_psoc63_cm0plus.c **** 
 111:system_psoc63_cm0plus.c **** uint32_t cy_delay32kMs    = CY_DELAY_MS_OVERFLOW_THRESHOLD *
 112:system_psoc63_cm0plus.c ****                             ((CY_CLK_SYSTEM_FREQ_HZ_DEFAULT + CY_DELAY_1K_MINUS_1_THRESHOLD) / CY_D
 113:system_psoc63_cm0plus.c **** 
 114:system_psoc63_cm0plus.c **** #define CY_ROOT_PATH_SRC_IMO                (0UL)
 115:system_psoc63_cm0plus.c **** #define CY_ROOT_PATH_SRC_EXT                (1UL)
 116:system_psoc63_cm0plus.c **** #if (SRSS_ECO_PRESENT == 1U)
 117:system_psoc63_cm0plus.c ****     #define CY_ROOT_PATH_SRC_ECO            (2UL)
 118:system_psoc63_cm0plus.c **** #endif /* (SRSS_ECO_PRESENT == 1U) */
 119:system_psoc63_cm0plus.c **** #if (SRSS_ALTHF_PRESENT == 1U)
 120:system_psoc63_cm0plus.c ****     #define CY_ROOT_PATH_SRC_ALTHF          (3UL)
 121:system_psoc63_cm0plus.c **** #endif /* (SRSS_ALTHF_PRESENT == 1U) */
 122:system_psoc63_cm0plus.c **** #define CY_ROOT_PATH_SRC_DSI_MUX            (4UL)
 123:system_psoc63_cm0plus.c **** #define CY_ROOT_PATH_SRC_DSI_MUX_HVILO      (16UL)
 124:system_psoc63_cm0plus.c **** #define CY_ROOT_PATH_SRC_DSI_MUX_WCO        (17UL)
 125:system_psoc63_cm0plus.c **** #if (SRSS_ALTLF_PRESENT == 1U)
 126:system_psoc63_cm0plus.c ****     #define CY_ROOT_PATH_SRC_DSI_MUX_ALTLF  (18UL)
 127:system_psoc63_cm0plus.c **** #endif /* (SRSS_ALTLF_PRESENT == 1U) */
 128:system_psoc63_cm0plus.c **** #if (SRSS_PILO_PRESENT == 1U)
 129:system_psoc63_cm0plus.c ****     #define CY_ROOT_PATH_SRC_DSI_MUX_PILO   (19UL)
 130:system_psoc63_cm0plus.c **** #endif /* (SRSS_PILO_PRESENT == 1U) */
 131:system_psoc63_cm0plus.c **** 
 132:system_psoc63_cm0plus.c **** 
 133:system_psoc63_cm0plus.c **** /*******************************************************************************
 134:system_psoc63_cm0plus.c **** * Cy_SysEnableCM4(), Cy_SysRetainCM4(), and Cy_SysResetCM4()
 135:system_psoc63_cm0plus.c **** *******************************************************************************/
 136:system_psoc63_cm0plus.c **** #define CY_SYS_CM4_PWR_CTL_KEY_OPEN  (0x05FAUL)
 137:system_psoc63_cm0plus.c **** #define CY_SYS_CM4_PWR_CTL_KEY_CLOSE (0xFA05UL)
 138:system_psoc63_cm0plus.c **** 
 139:system_psoc63_cm0plus.c **** 
 140:system_psoc63_cm0plus.c **** /*******************************************************************************
 141:system_psoc63_cm0plus.c **** * Function Name: SystemInit
 142:system_psoc63_cm0plus.c **** ****************************************************************************//**
 143:system_psoc63_cm0plus.c **** *
 144:system_psoc63_cm0plus.c **** * Initializes the system:
ARM GAS  C:\Users\kiwamu\AppData\Local\Temp\ccfghKh9.s 			page 4


 145:system_psoc63_cm0plus.c **** * - Restores FLL registers to the default state.
 146:system_psoc63_cm0plus.c **** * - Unlocks and disables WDT.
 147:system_psoc63_cm0plus.c **** * - Calls the Cy_SystemInit() function, if compiled from PSoC Creator.
 148:system_psoc63_cm0plus.c **** * - Calls \ref SystemCoreClockUpdate().
 149:system_psoc63_cm0plus.c **** *
 150:system_psoc63_cm0plus.c **** *******************************************************************************/
 151:system_psoc63_cm0plus.c **** void SystemInit(void)
 152:system_psoc63_cm0plus.c **** {
 153:system_psoc63_cm0plus.c ****     /* Restore FLL registers to the default state as they are not restored by the ROM code */
 154:system_psoc63_cm0plus.c ****     uint32_t copy = SRSS->CLK_FLL_CONFIG;
 155:system_psoc63_cm0plus.c ****     copy &= ~SRSS_CLK_FLL_CONFIG_FLL_ENABLE_Msk;
 156:system_psoc63_cm0plus.c ****     SRSS->CLK_FLL_CONFIG = copy;
 157:system_psoc63_cm0plus.c **** 
 158:system_psoc63_cm0plus.c ****     copy = SRSS->CLK_ROOT_SELECT[0u];
 159:system_psoc63_cm0plus.c ****     copy &= ~SRSS_CLK_ROOT_SELECT_ROOT_DIV_Msk; /* Set ROOT_DIV = 0*/
 160:system_psoc63_cm0plus.c ****     SRSS->CLK_ROOT_SELECT[0u] = copy;
 161:system_psoc63_cm0plus.c **** 
 162:system_psoc63_cm0plus.c ****     SRSS->CLK_FLL_CONFIG  = CY_FB_CLK_FLL_CONFIG_VALUE;
 163:system_psoc63_cm0plus.c ****     SRSS->CLK_FLL_CONFIG2 = CY_FB_CLK_FLL_CONFIG2_VALUE;
 164:system_psoc63_cm0plus.c ****     SRSS->CLK_FLL_CONFIG3 = CY_FB_CLK_FLL_CONFIG3_VALUE;
 165:system_psoc63_cm0plus.c ****     SRSS->CLK_FLL_CONFIG4 = CY_FB_CLK_FLL_CONFIG4_VALUE;
 166:system_psoc63_cm0plus.c **** 
 167:system_psoc63_cm0plus.c **** 
 168:system_psoc63_cm0plus.c ****     /* Unlock and disable WDT */
 169:system_psoc63_cm0plus.c ****     SRSS->WDT_CTL = ((SRSS->WDT_CTL & (uint32_t)(~SRSS_WDT_CTL_WDT_LOCK_Msk)) | CY_WDT_LOCK_BIT0);
 170:system_psoc63_cm0plus.c ****     SRSS->WDT_CTL = (SRSS->WDT_CTL | CY_WDT_LOCK_BIT1);
 171:system_psoc63_cm0plus.c ****     SRSS->WDT_CTL &= (~ (uint32_t) SRSS_WDT_CTL_WDT_EN_Msk);
 172:system_psoc63_cm0plus.c **** 
 173:system_psoc63_cm0plus.c **** 
 174:system_psoc63_cm0plus.c ****     Cy_SystemInit();
 175:system_psoc63_cm0plus.c ****     SystemCoreClockUpdate();
 176:system_psoc63_cm0plus.c ****     
 177:system_psoc63_cm0plus.c **** #if !defined(CY_IPC_DEFAULT_CFG_DISABLE)
 178:system_psoc63_cm0plus.c ****     /* Allocate and initialize semaphores for the system operations. */
 179:system_psoc63_cm0plus.c ****     Cy_IPC_SystemSemaInit();
 180:system_psoc63_cm0plus.c ****     Cy_IPC_SystemPipeInit();
 181:system_psoc63_cm0plus.c **** #endif /* CY_IPC_DEFAULT_CFG_DISABLE */
 182:system_psoc63_cm0plus.c ****     
 183:system_psoc63_cm0plus.c ****     /* Clear data register of IPC structure #7, reserved for the Deep Sleep operations. */
 184:system_psoc63_cm0plus.c ****     IPC_STRUCT7->DATA = 0UL;
 185:system_psoc63_cm0plus.c ****     /* Release IPC structure #7 to avoid deadlocks in case of SW or WDT reset during Deep Sleep ent
 186:system_psoc63_cm0plus.c ****     IPC_STRUCT7->RELEASE = 0UL;
 187:system_psoc63_cm0plus.c **** }
 188:system_psoc63_cm0plus.c **** 
 189:system_psoc63_cm0plus.c **** 
 190:system_psoc63_cm0plus.c **** /*******************************************************************************
 191:system_psoc63_cm0plus.c **** * Function Name: Cy_SystemInit
 192:system_psoc63_cm0plus.c **** ****************************************************************************//**
 193:system_psoc63_cm0plus.c **** *
 194:system_psoc63_cm0plus.c **** * The function is called during device startup. Once project compiled as part of
 195:system_psoc63_cm0plus.c **** * the PSoC Creator project, the Cy_SystemInit() function is generated by the
 196:system_psoc63_cm0plus.c **** * PSoC Creator.
 197:system_psoc63_cm0plus.c **** *
 198:system_psoc63_cm0plus.c **** * The function generated by PSoC Creator performs all of the necessary device
 199:system_psoc63_cm0plus.c **** * configuration based on the design settings.  This includes settings from the
 200:system_psoc63_cm0plus.c **** * Design Wide Resources (DWR) such as Clocks and Pins as well as any component
 201:system_psoc63_cm0plus.c **** * configuration that is necessary.
ARM GAS  C:\Users\kiwamu\AppData\Local\Temp\ccfghKh9.s 			page 5


 202:system_psoc63_cm0plus.c **** *
 203:system_psoc63_cm0plus.c **** *******************************************************************************/
 204:system_psoc63_cm0plus.c **** __WEAK void Cy_SystemInit(void)
 205:system_psoc63_cm0plus.c **** {
  28              		.loc 1 205 0
  29              		.cfi_startproc
  30              		@ args = 0, pretend = 0, frame = 0
  31              		@ frame_needed = 0, uses_anonymous_args = 0
  32              		@ link register save eliminated.
 206:system_psoc63_cm0plus.c ****      /* Empty weak function. The actual implementation to be in the PSoC Creator
 207:system_psoc63_cm0plus.c ****       * generated strong function.
 208:system_psoc63_cm0plus.c ****      */
 209:system_psoc63_cm0plus.c **** }
  33              		.loc 1 209 0
  34              		@ sp needed
  35 0000 7047     		bx	lr
  36              		.cfi_endproc
  37              	.LFE56:
  38              		.size	Cy_SystemInit, .-Cy_SystemInit
  39              		.global	__aeabi_uidiv
  40 0002 C046     		.section	.text.SystemCoreClockUpdate,"ax",%progbits
  41              		.align	2
  42              		.global	SystemCoreClockUpdate
  43              		.code	16
  44              		.thumb_func
  45              		.type	SystemCoreClockUpdate, %function
  46              	SystemCoreClockUpdate:
  47              	.LFB57:
 210:system_psoc63_cm0plus.c **** 
 211:system_psoc63_cm0plus.c **** 
 212:system_psoc63_cm0plus.c **** /*******************************************************************************
 213:system_psoc63_cm0plus.c **** * Function Name: SystemCoreClockUpdate
 214:system_psoc63_cm0plus.c **** ****************************************************************************//**
 215:system_psoc63_cm0plus.c **** *
 216:system_psoc63_cm0plus.c **** * Gets core clock frequency and updates \ref SystemCoreClock, \ref
 217:system_psoc63_cm0plus.c **** * cy_Hfclk0FreqHz, and \ref cy_PeriClkFreqHz.
 218:system_psoc63_cm0plus.c **** *
 219:system_psoc63_cm0plus.c **** * Updates global variables used by the \ref Cy_SysLib_Delay(), \ref
 220:system_psoc63_cm0plus.c **** * Cy_SysLib_DelayUs(), and \ref Cy_SysLib_DelayCycles().
 221:system_psoc63_cm0plus.c **** *
 222:system_psoc63_cm0plus.c **** *******************************************************************************/
 223:system_psoc63_cm0plus.c **** void SystemCoreClockUpdate (void)
 224:system_psoc63_cm0plus.c **** {
  48              		.loc 1 224 0
  49              		.cfi_startproc
  50              		@ args = 0, pretend = 0, frame = 0
  51              		@ frame_needed = 0, uses_anonymous_args = 0
  52 0000 70B5     		push	{r4, r5, r6, lr}
  53              		.cfi_def_cfa_offset 16
  54              		.cfi_offset 4, -16
  55              		.cfi_offset 5, -12
  56              		.cfi_offset 6, -8
  57              		.cfi_offset 14, -4
 225:system_psoc63_cm0plus.c ****     uint32_t srcFreqHz;
 226:system_psoc63_cm0plus.c ****     uint32_t pathFreqHz;
 227:system_psoc63_cm0plus.c ****     uint32_t slowClkDiv;
 228:system_psoc63_cm0plus.c ****     uint32_t periClkDiv;
ARM GAS  C:\Users\kiwamu\AppData\Local\Temp\ccfghKh9.s 			page 6


 229:system_psoc63_cm0plus.c ****     uint32_t rootPath;
 230:system_psoc63_cm0plus.c ****     uint32_t srcClk;
 231:system_psoc63_cm0plus.c **** 
 232:system_psoc63_cm0plus.c ****     /* Get root path clock for the high-frequency clock # 0 */
 233:system_psoc63_cm0plus.c ****     rootPath = _FLD2VAL(SRSS_CLK_ROOT_SELECT_ROOT_MUX, SRSS->CLK_ROOT_SELECT[0u]);
  58              		.loc 1 233 0
  59 0002 6249     		ldr	r1, .L23
  60 0004 E023     		movs	r3, #224
  61 0006 9B00     		lsls	r3, r3, #2
  62 0008 CB58     		ldr	r3, [r1, r3]
  63 000a 0F22     		movs	r2, #15
  64 000c 1340     		ands	r3, r2
  65              	.LVL0:
 234:system_psoc63_cm0plus.c **** 
 235:system_psoc63_cm0plus.c ****     /* Get source of the root path clock */
 236:system_psoc63_cm0plus.c ****     srcClk = _FLD2VAL(SRSS_CLK_PATH_SELECT_PATH_MUX, SRSS->CLK_PATH_SELECT[rootPath]);
  66              		.loc 1 236 0
  67 000e 1A00     		movs	r2, r3
  68 0010 D032     		adds	r2, r2, #208
  69 0012 9200     		lsls	r2, r2, #2
  70 0014 5258     		ldr	r2, [r2, r1]
  71 0016 0721     		movs	r1, #7
  72 0018 0A40     		ands	r2, r1
  73              	.LVL1:
 237:system_psoc63_cm0plus.c **** 
 238:system_psoc63_cm0plus.c ****     /* Get frequency of the source */
 239:system_psoc63_cm0plus.c ****     switch (srcClk)
  74              		.loc 1 239 0
  75 001a 032A     		cmp	r2, #3
  76 001c 05D0     		beq	.L4
  77 001e 042A     		cmp	r2, #4
  78 0020 06D0     		beq	.L5
  79 0022 002A     		cmp	r2, #0
  80 0024 12D1     		bne	.L22
 240:system_psoc63_cm0plus.c ****     {
 241:system_psoc63_cm0plus.c ****     case CY_ROOT_PATH_SRC_IMO:
 242:system_psoc63_cm0plus.c ****         srcFreqHz = CY_CLK_IMO_FREQ_HZ;
  81              		.loc 1 242 0
  82 0026 5A48     		ldr	r0, .L23+4
  83 0028 14E0     		b	.L3
  84              	.L4:
 243:system_psoc63_cm0plus.c ****     break;
 244:system_psoc63_cm0plus.c **** 
 245:system_psoc63_cm0plus.c ****     case CY_ROOT_PATH_SRC_EXT:
 246:system_psoc63_cm0plus.c ****         srcFreqHz = CY_CLK_EXT_FREQ_HZ;
 247:system_psoc63_cm0plus.c ****     break;
 248:system_psoc63_cm0plus.c **** 
 249:system_psoc63_cm0plus.c ****     #if (SRSS_ECO_PRESENT == 1U)
 250:system_psoc63_cm0plus.c ****         case CY_ROOT_PATH_SRC_ECO:
 251:system_psoc63_cm0plus.c ****             srcFreqHz = CY_CLK_ECO_FREQ_HZ;
 252:system_psoc63_cm0plus.c ****         break;
 253:system_psoc63_cm0plus.c ****     #endif /* (SRSS_ECO_PRESENT == 1U) */
 254:system_psoc63_cm0plus.c **** 
 255:system_psoc63_cm0plus.c **** #if defined (CY_IP_MXBLESS) && (CY_IP_MXBLESS == 1UL) && (SRSS_ALTHF_PRESENT == 1U)
 256:system_psoc63_cm0plus.c ****     case CY_ROOT_PATH_SRC_ALTHF:
 257:system_psoc63_cm0plus.c ****         srcFreqHz = cy_BleEcoClockFreqHz;
  85              		.loc 1 257 0
ARM GAS  C:\Users\kiwamu\AppData\Local\Temp\ccfghKh9.s 			page 7


  86 002a 5A4A     		ldr	r2, .L23+8
  87              	.LVL2:
  88 002c 1068     		ldr	r0, [r2]
  89              	.LVL3:
 258:system_psoc63_cm0plus.c ****     break;
  90              		.loc 1 258 0
  91 002e 11E0     		b	.L3
  92              	.LVL4:
  93              	.L5:
  94              	.LBB2:
 259:system_psoc63_cm0plus.c **** #endif /* defined (CY_IP_MXBLESS) && (CY_IP_MXBLESS == 1UL) && (SRSS_ALTHF_PRESENT == 1U) */
 260:system_psoc63_cm0plus.c **** 
 261:system_psoc63_cm0plus.c ****     case CY_ROOT_PATH_SRC_DSI_MUX:
 262:system_psoc63_cm0plus.c ****     {
 263:system_psoc63_cm0plus.c ****         uint32_t dsi_src;
 264:system_psoc63_cm0plus.c ****         dsi_src = _FLD2VAL(SRSS_CLK_DSI_SELECT_DSI_MUX,  SRSS->CLK_DSI_SELECT[rootPath]);
  95              		.loc 1 264 0
  96 0030 1A00     		movs	r2, r3
  97              	.LVL5:
  98 0032 C032     		adds	r2, r2, #192
  99 0034 9200     		lsls	r2, r2, #2
 100 0036 5549     		ldr	r1, .L23
 101 0038 5258     		ldr	r2, [r2, r1]
 102 003a 1F21     		movs	r1, #31
 103 003c 0A40     		ands	r2, r1
 104              	.LVL6:
 265:system_psoc63_cm0plus.c ****         switch (dsi_src)
 105              		.loc 1 265 0
 106 003e 112A     		cmp	r2, #17
 107 0040 06D0     		beq	.L17
 108 0042 132A     		cmp	r2, #19
 109 0044 04D0     		beq	.L17
 266:system_psoc63_cm0plus.c ****         {
 267:system_psoc63_cm0plus.c ****         case CY_ROOT_PATH_SRC_DSI_MUX_HVILO:
 268:system_psoc63_cm0plus.c ****             srcFreqHz = CY_CLK_HVILO_FREQ_HZ;
 110              		.loc 1 268 0
 111 0046 FA20     		movs	r0, #250
 112 0048 C001     		lsls	r0, r0, #7
 113 004a 03E0     		b	.L3
 114              	.LVL7:
 115              	.L22:
 116              	.LBE2:
 246:system_psoc63_cm0plus.c ****     break;
 117              		.loc 1 246 0
 118 004c 5248     		ldr	r0, .L23+12
 119 004e 01E0     		b	.L3
 120              	.LVL8:
 121              	.L17:
 122              	.LBB3:
 269:system_psoc63_cm0plus.c ****         break;
 270:system_psoc63_cm0plus.c **** 
 271:system_psoc63_cm0plus.c ****         case CY_ROOT_PATH_SRC_DSI_MUX_WCO:
 272:system_psoc63_cm0plus.c ****             srcFreqHz = CY_CLK_WCO_FREQ_HZ;
 123              		.loc 1 272 0
 124 0050 8020     		movs	r0, #128
 125 0052 0002     		lsls	r0, r0, #8
 126              	.LVL9:
ARM GAS  C:\Users\kiwamu\AppData\Local\Temp\ccfghKh9.s 			page 8


 127              	.L3:
 128              	.LBE3:
 273:system_psoc63_cm0plus.c ****         break;
 274:system_psoc63_cm0plus.c **** 
 275:system_psoc63_cm0plus.c ****         #if (SRSS_ALTLF_PRESENT == 1U)
 276:system_psoc63_cm0plus.c ****             case CY_ROOT_PATH_SRC_DSI_MUX_ALTLF:
 277:system_psoc63_cm0plus.c ****                 srcFreqHz = CY_CLK_ALTLF_FREQ_HZ;
 278:system_psoc63_cm0plus.c ****             break;
 279:system_psoc63_cm0plus.c ****         #endif /* (SRSS_ALTLF_PRESENT == 1U) */
 280:system_psoc63_cm0plus.c **** 
 281:system_psoc63_cm0plus.c ****         #if (SRSS_PILO_PRESENT == 1U)
 282:system_psoc63_cm0plus.c ****             case CY_ROOT_PATH_SRC_DSI_MUX_PILO:
 283:system_psoc63_cm0plus.c ****                 srcFreqHz = CY_CLK_PILO_FREQ_HZ;
 284:system_psoc63_cm0plus.c ****             break;
 285:system_psoc63_cm0plus.c ****         #endif /* (SRSS_PILO_PRESENT == 1U) */
 286:system_psoc63_cm0plus.c **** 
 287:system_psoc63_cm0plus.c ****         default:
 288:system_psoc63_cm0plus.c ****             srcFreqHz = CY_CLK_HVILO_FREQ_HZ;
 289:system_psoc63_cm0plus.c ****         break;
 290:system_psoc63_cm0plus.c ****         }
 291:system_psoc63_cm0plus.c ****     }
 292:system_psoc63_cm0plus.c ****     break;
 293:system_psoc63_cm0plus.c **** 
 294:system_psoc63_cm0plus.c ****     default:
 295:system_psoc63_cm0plus.c ****         srcFreqHz = CY_CLK_EXT_FREQ_HZ;
 296:system_psoc63_cm0plus.c ****     break;
 297:system_psoc63_cm0plus.c ****     }
 298:system_psoc63_cm0plus.c **** 
 299:system_psoc63_cm0plus.c ****     if (rootPath == 0UL)
 129              		.loc 1 299 0
 130 0054 002B     		cmp	r3, #0
 131 0056 36D1     		bne	.L8
 132              	.LBB4:
 300:system_psoc63_cm0plus.c ****     {
 301:system_psoc63_cm0plus.c ****         /* FLL */
 302:system_psoc63_cm0plus.c ****         bool fllLocked       = ( 0UL != _FLD2VAL(SRSS_CLK_FLL_STATUS_LOCKED, SRSS->CLK_FLL_STATUS))
 133              		.loc 1 302 0
 134 0058 4C4B     		ldr	r3, .L23
 135              	.LVL10:
 136 005a B222     		movs	r2, #178
 137 005c D200     		lsls	r2, r2, #3
 138 005e 9A58     		ldr	r2, [r3, r2]
 139 0060 0121     		movs	r1, #1
 140 0062 1140     		ands	r1, r2
 141              	.LVL11:
 303:system_psoc63_cm0plus.c ****         bool fllOutputOutput = ( 3UL == _FLD2VAL(SRSS_CLK_FLL_CONFIG3_BYPASS_SEL, SRSS->CLK_FLL_CON
 142              		.loc 1 303 0
 143 0064 B125     		movs	r5, #177
 144 0066 ED00     		lsls	r5, r5, #3
 145 0068 5A59     		ldr	r2, [r3, r5]
 146 006a 120F     		lsrs	r2, r2, #28
 147 006c 0324     		movs	r4, #3
 148 006e 2240     		ands	r2, r4
 149              	.LVL12:
 304:system_psoc63_cm0plus.c ****         bool fllOutputAuto   = ((0UL == _FLD2VAL(SRSS_CLK_FLL_CONFIG3_BYPASS_SEL, SRSS->CLK_FLL_CON
 150              		.loc 1 304 0
 151 0070 5B59     		ldr	r3, [r3, r5]
ARM GAS  C:\Users\kiwamu\AppData\Local\Temp\ccfghKh9.s 			page 9


 152 0072 1B0F     		lsrs	r3, r3, #28
 153 0074 1C42     		tst	r4, r3
 154 0076 07D0     		beq	.L18
 305:system_psoc63_cm0plus.c ****                                 (1UL == _FLD2VAL(SRSS_CLK_FLL_CONFIG3_BYPASS_SEL, SRSS->CLK_FLL_CON
 155              		.loc 1 305 0 discriminator 2
 156 0078 444C     		ldr	r4, .L23
 157 007a 6359     		ldr	r3, [r4, r5]
 158 007c 1B0F     		lsrs	r3, r3, #28
 159 007e 0324     		movs	r4, #3
 160 0080 2340     		ands	r3, r4
 304:system_psoc63_cm0plus.c ****         bool fllOutputAuto   = ((0UL == _FLD2VAL(SRSS_CLK_FLL_CONFIG3_BYPASS_SEL, SRSS->CLK_FLL_CON
 161              		.loc 1 304 0 discriminator 2
 162 0082 012B     		cmp	r3, #1
 163 0084 02D1     		bne	.L19
 164 0086 02E0     		b	.L9
 165              	.L18:
 304:system_psoc63_cm0plus.c ****         bool fllOutputAuto   = ((0UL == _FLD2VAL(SRSS_CLK_FLL_CONFIG3_BYPASS_SEL, SRSS->CLK_FLL_CON
 166              		.loc 1 304 0 is_stmt 0
 167 0088 0123     		movs	r3, #1
 168 008a 00E0     		b	.L9
 169              	.L19:
 170 008c 0023     		movs	r3, #0
 171              	.L9:
 172              	.LVL13:
 306:system_psoc63_cm0plus.c ****         if ((fllOutputAuto && fllLocked) || fllOutputOutput)
 173              		.loc 1 306 0 is_stmt 1 discriminator 6
 174 008e 002B     		cmp	r3, #0
 175 0090 01D0     		beq	.L10
 176              		.loc 1 306 0 is_stmt 0 discriminator 1
 177 0092 0029     		cmp	r1, #0
 178 0094 01D1     		bne	.L11
 179              	.L10:
 180              		.loc 1 306 0 discriminator 3
 181 0096 032A     		cmp	r2, #3
 182 0098 4BD1     		bne	.L12
 183              	.L11:
 184              	.LBB5:
 307:system_psoc63_cm0plus.c ****         {
 308:system_psoc63_cm0plus.c ****             uint32_t fllMult;
 309:system_psoc63_cm0plus.c ****             uint32_t refDiv;
 310:system_psoc63_cm0plus.c ****             uint32_t outputDiv;
 311:system_psoc63_cm0plus.c **** 
 312:system_psoc63_cm0plus.c ****             fllMult = _FLD2VAL(SRSS_CLK_FLL_CONFIG_FLL_MULT, SRSS->CLK_FLL_CONFIG);
 185              		.loc 1 312 0 is_stmt 1
 186 009a 3C4B     		ldr	r3, .L23
 187              	.LVL14:
 188 009c B022     		movs	r2, #176
 189              	.LVL15:
 190 009e D200     		lsls	r2, r2, #3
 191 00a0 9D58     		ldr	r5, [r3, r2]
 192 00a2 AD03     		lsls	r5, r5, #14
 193 00a4 AD0B     		lsrs	r5, r5, #14
 194              	.LVL16:
 313:system_psoc63_cm0plus.c ****             refDiv  = _FLD2VAL(SRSS_CLK_FLL_CONFIG2_FLL_REF_DIV, SRSS->CLK_FLL_CONFIG2);
 195              		.loc 1 313 0
 196 00a6 3D49     		ldr	r1, .L23+16
 197              	.LVL17:
ARM GAS  C:\Users\kiwamu\AppData\Local\Temp\ccfghKh9.s 			page 10


 198 00a8 5958     		ldr	r1, [r3, r1]
 199 00aa C904     		lsls	r1, r1, #19
 200 00ac C90C     		lsrs	r1, r1, #19
 201              	.LVL18:
 314:system_psoc63_cm0plus.c ****             outputDiv = _FLD2VAL(SRSS_CLK_FLL_CONFIG_FLL_OUTPUT_DIV, SRSS->CLK_FLL_CONFIG) + 1UL;
 202              		.loc 1 314 0
 203 00ae 9C58     		ldr	r4, [r3, r2]
 204 00b0 240E     		lsrs	r4, r4, #24
 205 00b2 0123     		movs	r3, #1
 206 00b4 1C40     		ands	r4, r3
 207 00b6 0134     		adds	r4, r4, #1
 208              	.LVL19:
 315:system_psoc63_cm0plus.c **** 
 316:system_psoc63_cm0plus.c ****             pathFreqHz = ((srcFreqHz / refDiv) * fllMult) / outputDiv;
 209              		.loc 1 316 0
 210 00b8 FFF7FEFF 		bl	__aeabi_uidiv
 211              	.LVL20:
 212 00bc 6843     		muls	r0, r5
 213 00be 2100     		movs	r1, r4
 214 00c0 FFF7FEFF 		bl	__aeabi_uidiv
 215              	.LVL21:
 216              	.LBE5:
 307:system_psoc63_cm0plus.c ****             uint32_t fllMult;
 217              		.loc 1 307 0
 218 00c4 35E0     		b	.L12
 219              	.LVL22:
 220              	.L8:
 221              	.LBE4:
 317:system_psoc63_cm0plus.c ****         }
 318:system_psoc63_cm0plus.c ****         else
 319:system_psoc63_cm0plus.c ****         {
 320:system_psoc63_cm0plus.c ****             pathFreqHz = srcFreqHz;
 321:system_psoc63_cm0plus.c ****         }
 322:system_psoc63_cm0plus.c ****     }
 323:system_psoc63_cm0plus.c ****     else if (rootPath == 1UL)
 222              		.loc 1 323 0
 223 00c6 012B     		cmp	r3, #1
 224 00c8 33D1     		bne	.L12
 225              	.LBB6:
 324:system_psoc63_cm0plus.c ****     {
 325:system_psoc63_cm0plus.c ****         /* PLL */
 326:system_psoc63_cm0plus.c ****         bool pllLocked       = ( 0UL != _FLD2VAL(SRSS_CLK_PLL_STATUS_LOCKED,     SRSS->CLK_PLL_STAT
 226              		.loc 1 326 0
 227 00ca 304B     		ldr	r3, .L23
 228              	.LVL23:
 229 00cc C822     		movs	r2, #200
 230 00ce D200     		lsls	r2, r2, #3
 231 00d0 9A58     		ldr	r2, [r3, r2]
 232 00d2 0125     		movs	r5, #1
 233 00d4 1540     		ands	r5, r2
 234              	.LVL24:
 327:system_psoc63_cm0plus.c ****         bool pllOutputOutput = ( 3UL == _FLD2VAL(SRSS_CLK_PLL_CONFIG_BYPASS_SEL, SRSS->CLK_PLL_CONF
 235              		.loc 1 327 0
 236 00d6 C024     		movs	r4, #192
 237 00d8 E400     		lsls	r4, r4, #3
 238 00da 1A59     		ldr	r2, [r3, r4]
 239 00dc 120F     		lsrs	r2, r2, #28
ARM GAS  C:\Users\kiwamu\AppData\Local\Temp\ccfghKh9.s 			page 11


 240 00de 0321     		movs	r1, #3
 241 00e0 0A40     		ands	r2, r1
 242              	.LVL25:
 328:system_psoc63_cm0plus.c ****         bool pllOutputAuto   = ((0UL == _FLD2VAL(SRSS_CLK_PLL_CONFIG_BYPASS_SEL, SRSS->CLK_PLL_CONF
 243              		.loc 1 328 0
 244 00e2 1B59     		ldr	r3, [r3, r4]
 245 00e4 1B0F     		lsrs	r3, r3, #28
 246 00e6 1942     		tst	r1, r3
 247 00e8 07D0     		beq	.L20
 329:system_psoc63_cm0plus.c ****                                 (1UL == _FLD2VAL(SRSS_CLK_PLL_CONFIG_BYPASS_SEL, SRSS->CLK_PLL_CONF
 248              		.loc 1 329 0 discriminator 2
 249 00ea 2849     		ldr	r1, .L23
 250 00ec 0B59     		ldr	r3, [r1, r4]
 251 00ee 1B0F     		lsrs	r3, r3, #28
 252 00f0 0321     		movs	r1, #3
 253 00f2 0B40     		ands	r3, r1
 328:system_psoc63_cm0plus.c ****         bool pllOutputAuto   = ((0UL == _FLD2VAL(SRSS_CLK_PLL_CONFIG_BYPASS_SEL, SRSS->CLK_PLL_CONF
 254              		.loc 1 328 0 discriminator 2
 255 00f4 012B     		cmp	r3, #1
 256 00f6 02D1     		bne	.L21
 257 00f8 02E0     		b	.L13
 258              	.L20:
 328:system_psoc63_cm0plus.c ****         bool pllOutputAuto   = ((0UL == _FLD2VAL(SRSS_CLK_PLL_CONFIG_BYPASS_SEL, SRSS->CLK_PLL_CONF
 259              		.loc 1 328 0 is_stmt 0
 260 00fa 0123     		movs	r3, #1
 261 00fc 00E0     		b	.L13
 262              	.L21:
 263 00fe 0023     		movs	r3, #0
 264              	.L13:
 265              	.LVL26:
 330:system_psoc63_cm0plus.c ****         if ((pllOutputAuto && pllLocked) || pllOutputOutput)
 266              		.loc 1 330 0 is_stmt 1 discriminator 6
 267 0100 002B     		cmp	r3, #0
 268 0102 01D0     		beq	.L14
 269              		.loc 1 330 0 is_stmt 0 discriminator 1
 270 0104 002D     		cmp	r5, #0
 271 0106 01D1     		bne	.L15
 272              	.L14:
 273              		.loc 1 330 0 discriminator 3
 274 0108 032A     		cmp	r2, #3
 275 010a 12D1     		bne	.L12
 276              	.L15:
 277              	.LBB7:
 331:system_psoc63_cm0plus.c ****         {
 332:system_psoc63_cm0plus.c ****             uint32_t feedbackDiv;
 333:system_psoc63_cm0plus.c ****             uint32_t referenceDiv;
 334:system_psoc63_cm0plus.c ****             uint32_t outputDiv;
 335:system_psoc63_cm0plus.c **** 
 336:system_psoc63_cm0plus.c ****             feedbackDiv  = _FLD2VAL(SRSS_CLK_PLL_CONFIG_FEEDBACK_DIV,  SRSS->CLK_PLL_CONFIG[0UL]);
 278              		.loc 1 336 0 is_stmt 1
 279 010c 1F4D     		ldr	r5, .L23
 280              	.LVL27:
 281 010e C022     		movs	r2, #192
 282              	.LVL28:
 283 0110 D200     		lsls	r2, r2, #3
 284 0112 AB58     		ldr	r3, [r5, r2]
 285              	.LVL29:
ARM GAS  C:\Users\kiwamu\AppData\Local\Temp\ccfghKh9.s 			page 12


 286 0114 7F21     		movs	r1, #127
 287 0116 0B40     		ands	r3, r1
 288              	.LVL30:
 337:system_psoc63_cm0plus.c ****             referenceDiv = _FLD2VAL(SRSS_CLK_PLL_CONFIG_REFERENCE_DIV, SRSS->CLK_PLL_CONFIG[0UL]);
 289              		.loc 1 337 0
 290 0118 A958     		ldr	r1, [r5, r2]
 291 011a 090A     		lsrs	r1, r1, #8
 292 011c 1F26     		movs	r6, #31
 293 011e 3140     		ands	r1, r6
 294              	.LVL31:
 338:system_psoc63_cm0plus.c ****             outputDiv    = _FLD2VAL(SRSS_CLK_PLL_CONFIG_OUTPUT_DIV,    SRSS->CLK_PLL_CONFIG[0UL]);
 295              		.loc 1 338 0
 296 0120 AC58     		ldr	r4, [r5, r2]
 297 0122 240C     		lsrs	r4, r4, #16
 298 0124 3440     		ands	r4, r6
 299              	.LVL32:
 339:system_psoc63_cm0plus.c **** 
 340:system_psoc63_cm0plus.c ****             pathFreqHz = ((srcFreqHz * feedbackDiv) / referenceDiv) / outputDiv;
 300              		.loc 1 340 0
 301 0126 5843     		muls	r0, r3
 302              	.LVL33:
 303 0128 FFF7FEFF 		bl	__aeabi_uidiv
 304              	.LVL34:
 305 012c 2100     		movs	r1, r4
 306 012e FFF7FEFF 		bl	__aeabi_uidiv
 307              	.LVL35:
 308              	.L12:
 309              	.LBE7:
 310              	.LBE6:
 341:system_psoc63_cm0plus.c **** 
 342:system_psoc63_cm0plus.c ****         }
 343:system_psoc63_cm0plus.c ****         else
 344:system_psoc63_cm0plus.c ****         {
 345:system_psoc63_cm0plus.c ****             pathFreqHz = srcFreqHz;
 346:system_psoc63_cm0plus.c ****         }
 347:system_psoc63_cm0plus.c ****     }
 348:system_psoc63_cm0plus.c ****     else
 349:system_psoc63_cm0plus.c ****     {
 350:system_psoc63_cm0plus.c ****         /* Direct */
 351:system_psoc63_cm0plus.c ****         pathFreqHz = srcFreqHz;
 352:system_psoc63_cm0plus.c ****     }
 353:system_psoc63_cm0plus.c **** 
 354:system_psoc63_cm0plus.c ****     /* Get frequency after hf_clk pre-divider */
 355:system_psoc63_cm0plus.c ****     pathFreqHz = pathFreqHz >> _FLD2VAL(SRSS_CLK_ROOT_SELECT_ROOT_DIV, SRSS->CLK_ROOT_SELECT[0u]);
 311              		.loc 1 355 0
 312 0132 E023     		movs	r3, #224
 313 0134 9B00     		lsls	r3, r3, #2
 314 0136 154A     		ldr	r2, .L23
 315 0138 D358     		ldr	r3, [r2, r3]
 316 013a 1B09     		lsrs	r3, r3, #4
 317 013c 0322     		movs	r2, #3
 318 013e 1340     		ands	r3, r2
 319 0140 D840     		lsrs	r0, r0, r3
 320              	.LVL36:
 356:system_psoc63_cm0plus.c ****     cy_Hfclk0FreqHz = pathFreqHz;
 321              		.loc 1 356 0
 322 0142 144C     		ldr	r4, .L23+8
ARM GAS  C:\Users\kiwamu\AppData\Local\Temp\ccfghKh9.s 			page 13


 323 0144 6060     		str	r0, [r4, #4]
 357:system_psoc63_cm0plus.c **** 
 358:system_psoc63_cm0plus.c ****     /* Slow Clock Divider */
 359:system_psoc63_cm0plus.c ****     slowClkDiv = 1u + _FLD2VAL(CPUSS_CM0_CLOCK_CTL_SLOW_INT_DIV, CPUSS->CM0_CLOCK_CTL);
 324              		.loc 1 359 0
 325 0146 164B     		ldr	r3, .L23+20
 326 0148 1D69     		ldr	r5, [r3, #16]
 327 014a 2D0A     		lsrs	r5, r5, #8
 328 014c FC32     		adds	r2, r2, #252
 329 014e 1540     		ands	r5, r2
 330 0150 0135     		adds	r5, r5, #1
 331              	.LVL37:
 360:system_psoc63_cm0plus.c **** 
 361:system_psoc63_cm0plus.c ****     /* Peripheral Clock Divider */
 362:system_psoc63_cm0plus.c ****     periClkDiv = 1u + _FLD2VAL(CPUSS_CM0_CLOCK_CTL_PERI_INT_DIV, CPUSS->CM0_CLOCK_CTL);
 332              		.loc 1 362 0
 333 0152 1969     		ldr	r1, [r3, #16]
 334 0154 090E     		lsrs	r1, r1, #24
 335 0156 0131     		adds	r1, r1, #1
 336              	.LVL38:
 363:system_psoc63_cm0plus.c **** 
 364:system_psoc63_cm0plus.c ****     pathFreqHz = pathFreqHz / periClkDiv;
 337              		.loc 1 364 0
 338 0158 FFF7FEFF 		bl	__aeabi_uidiv
 339              	.LVL39:
 365:system_psoc63_cm0plus.c ****     cy_PeriClkFreqHz = pathFreqHz;
 340              		.loc 1 365 0
 341 015c A060     		str	r0, [r4, #8]
 366:system_psoc63_cm0plus.c ****     pathFreqHz = pathFreqHz / slowClkDiv;
 342              		.loc 1 366 0
 343 015e 2900     		movs	r1, r5
 344 0160 FFF7FEFF 		bl	__aeabi_uidiv
 345              	.LVL40:
 346 0164 0500     		movs	r5, r0
 347              	.LVL41:
 367:system_psoc63_cm0plus.c ****     SystemCoreClock = pathFreqHz;
 348              		.loc 1 367 0
 349 0166 E060     		str	r0, [r4, #12]
 368:system_psoc63_cm0plus.c **** 
 369:system_psoc63_cm0plus.c ****     /* Sets clock frequency for Delay API */
 370:system_psoc63_cm0plus.c ****     cy_delayFreqHz = SystemCoreClock;
 350              		.loc 1 370 0
 351 0168 2061     		str	r0, [r4, #16]
 371:system_psoc63_cm0plus.c ****     cy_delayFreqMhz = (uint8_t)((cy_delayFreqHz + CY_DELAY_1M_MINUS_1_THRESHOLD) / CY_DELAY_1M_THRE
 352              		.loc 1 371 0
 353 016a 0E4B     		ldr	r3, .L23+24
 354 016c C018     		adds	r0, r0, r3
 355              	.LVL42:
 356 016e 0E49     		ldr	r1, .L23+28
 357 0170 FFF7FEFF 		bl	__aeabi_uidiv
 358              	.LVL43:
 359 0174 2075     		strb	r0, [r4, #20]
 372:system_psoc63_cm0plus.c ****     cy_delayFreqKhz = (cy_delayFreqHz + CY_DELAY_1K_MINUS_1_THRESHOLD) / CY_DELAY_1K_THRESHOLD;
 360              		.loc 1 372 0
 361 0176 0D4B     		ldr	r3, .L23+32
 362 0178 E818     		adds	r0, r5, r3
 363 017a FA21     		movs	r1, #250
ARM GAS  C:\Users\kiwamu\AppData\Local\Temp\ccfghKh9.s 			page 14


 364 017c 8900     		lsls	r1, r1, #2
 365 017e FFF7FEFF 		bl	__aeabi_uidiv
 366              	.LVL44:
 367 0182 A061     		str	r0, [r4, #24]
 373:system_psoc63_cm0plus.c ****     cy_delay32kMs   = CY_DELAY_MS_OVERFLOW_THRESHOLD * cy_delayFreqKhz;
 368              		.loc 1 373 0
 369 0184 C003     		lsls	r0, r0, #15
 370 0186 E061     		str	r0, [r4, #28]
 374:system_psoc63_cm0plus.c **** }
 371              		.loc 1 374 0
 372              		@ sp needed
 373              	.LVL45:
 374 0188 70BD     		pop	{r4, r5, r6, pc}
 375              	.L24:
 376 018a C046     		.align	2
 377              	.L23:
 378 018c 00002640 		.word	1076232192
 379 0190 00127A00 		.word	8000000
 380 0194 00000000 		.word	.LANCHOR0
 381 0198 00366E01 		.word	24000000
 382 019c 84050000 		.word	1412
 383 01a0 00002140 		.word	1075904512
 384 01a4 3F420F00 		.word	999999
 385 01a8 40420F00 		.word	1000000
 386 01ac E7030000 		.word	999
 387              		.cfi_endproc
 388              	.LFE57:
 389              		.size	SystemCoreClockUpdate, .-SystemCoreClockUpdate
 390              		.section	.text.SystemInit,"ax",%progbits
 391              		.align	2
 392              		.global	SystemInit
 393              		.code	16
 394              		.thumb_func
 395              		.type	SystemInit, %function
 396              	SystemInit:
 397              	.LFB55:
 152:system_psoc63_cm0plus.c ****     /* Restore FLL registers to the default state as they are not restored by the ROM code */
 398              		.loc 1 152 0
 399              		.cfi_startproc
 400              		@ args = 0, pretend = 0, frame = 0
 401              		@ frame_needed = 0, uses_anonymous_args = 0
 402 0000 10B5     		push	{r4, lr}
 403              		.cfi_def_cfa_offset 8
 404              		.cfi_offset 4, -8
 405              		.cfi_offset 14, -4
 154:system_psoc63_cm0plus.c ****     copy &= ~SRSS_CLK_FLL_CONFIG_FLL_ENABLE_Msk;
 406              		.loc 1 154 0
 407 0002 1C4B     		ldr	r3, .L26
 408 0004 B021     		movs	r1, #176
 409 0006 C900     		lsls	r1, r1, #3
 410 0008 5A58     		ldr	r2, [r3, r1]
 411              	.LVL46:
 155:system_psoc63_cm0plus.c ****     SRSS->CLK_FLL_CONFIG = copy;
 412              		.loc 1 155 0
 413 000a 5200     		lsls	r2, r2, #1
 414              	.LVL47:
 415 000c 5208     		lsrs	r2, r2, #1
ARM GAS  C:\Users\kiwamu\AppData\Local\Temp\ccfghKh9.s 			page 15


 416              	.LVL48:
 156:system_psoc63_cm0plus.c **** 
 417              		.loc 1 156 0
 418 000e 5A50     		str	r2, [r3, r1]
 158:system_psoc63_cm0plus.c ****     copy &= ~SRSS_CLK_ROOT_SELECT_ROOT_DIV_Msk; /* Set ROOT_DIV = 0*/
 419              		.loc 1 158 0
 420 0010 E020     		movs	r0, #224
 421 0012 8000     		lsls	r0, r0, #2
 422 0014 1A58     		ldr	r2, [r3, r0]
 423              	.LVL49:
 159:system_psoc63_cm0plus.c ****     SRSS->CLK_ROOT_SELECT[0u] = copy;
 424              		.loc 1 159 0
 425 0016 3024     		movs	r4, #48
 426 0018 A243     		bics	r2, r4
 427              	.LVL50:
 160:system_psoc63_cm0plus.c **** 
 428              		.loc 1 160 0
 429 001a 1A50     		str	r2, [r3, r0]
 162:system_psoc63_cm0plus.c ****     SRSS->CLK_FLL_CONFIG2 = CY_FB_CLK_FLL_CONFIG2_VALUE;
 430              		.loc 1 162 0
 431 001c 8022     		movs	r2, #128
 432              	.LVL51:
 433 001e 5204     		lsls	r2, r2, #17
 434 0020 5A50     		str	r2, [r3, r1]
 435              	.LVL52:
 163:system_psoc63_cm0plus.c ****     SRSS->CLK_FLL_CONFIG3 = CY_FB_CLK_FLL_CONFIG3_VALUE;
 436              		.loc 1 163 0
 437 0022 1549     		ldr	r1, .L26+4
 438 0024 154A     		ldr	r2, .L26+8
 439 0026 9950     		str	r1, [r3, r2]
 164:system_psoc63_cm0plus.c ****     SRSS->CLK_FLL_CONFIG4 = CY_FB_CLK_FLL_CONFIG4_VALUE;
 440              		.loc 1 164 0
 441 0028 A021     		movs	r1, #160
 442 002a 8901     		lsls	r1, r1, #6
 443 002c 0432     		adds	r2, r2, #4
 444 002e 9950     		str	r1, [r3, r2]
 165:system_psoc63_cm0plus.c **** 
 445              		.loc 1 165 0
 446 0030 FF21     		movs	r1, #255
 447 0032 134A     		ldr	r2, .L26+12
 448 0034 9950     		str	r1, [r3, r2]
 169:system_psoc63_cm0plus.c ****     SRSS->WDT_CTL = (SRSS->WDT_CTL | CY_WDT_LOCK_BIT1);
 449              		.loc 1 169 0
 450 0036 8131     		adds	r1, r1, #129
 451 0038 5A58     		ldr	r2, [r3, r1]
 452 003a 9200     		lsls	r2, r2, #2
 453 003c 9208     		lsrs	r2, r2, #2
 454 003e 8020     		movs	r0, #128
 455 0040 C005     		lsls	r0, r0, #23
 456 0042 0243     		orrs	r2, r0
 457 0044 5A50     		str	r2, [r3, r1]
 170:system_psoc63_cm0plus.c ****     SRSS->WDT_CTL &= (~ (uint32_t) SRSS_WDT_CTL_WDT_EN_Msk);
 458              		.loc 1 170 0
 459 0046 5A58     		ldr	r2, [r3, r1]
 460 0048 8020     		movs	r0, #128
 461 004a 0006     		lsls	r0, r0, #24
 462 004c 0243     		orrs	r2, r0
ARM GAS  C:\Users\kiwamu\AppData\Local\Temp\ccfghKh9.s 			page 16


 463 004e 5A50     		str	r2, [r3, r1]
 171:system_psoc63_cm0plus.c **** 
 464              		.loc 1 171 0
 465 0050 5A58     		ldr	r2, [r3, r1]
 466 0052 0120     		movs	r0, #1
 467 0054 8243     		bics	r2, r0
 468 0056 5A50     		str	r2, [r3, r1]
 174:system_psoc63_cm0plus.c ****     SystemCoreClockUpdate();
 469              		.loc 1 174 0
 470 0058 FFF7FEFF 		bl	Cy_SystemInit
 471              	.LVL53:
 175:system_psoc63_cm0plus.c ****     
 472              		.loc 1 175 0
 473 005c FFF7FEFF 		bl	SystemCoreClockUpdate
 474              	.LVL54:
 179:system_psoc63_cm0plus.c ****     Cy_IPC_SystemPipeInit();
 475              		.loc 1 179 0
 476 0060 FFF7FEFF 		bl	Cy_IPC_SystemSemaInit
 477              	.LVL55:
 180:system_psoc63_cm0plus.c **** #endif /* CY_IPC_DEFAULT_CFG_DISABLE */
 478              		.loc 1 180 0
 479 0064 FFF7FEFF 		bl	Cy_IPC_SystemPipeInit
 480              	.LVL56:
 184:system_psoc63_cm0plus.c ****     /* Release IPC structure #7 to avoid deadlocks in case of SW or WDT reset during Deep Sleep ent
 481              		.loc 1 184 0
 482 0068 064B     		ldr	r3, .L26+16
 483 006a 0022     		movs	r2, #0
 484 006c DA60     		str	r2, [r3, #12]
 186:system_psoc63_cm0plus.c **** }
 485              		.loc 1 186 0
 486 006e 5A60     		str	r2, [r3, #4]
 187:system_psoc63_cm0plus.c **** 
 487              		.loc 1 187 0
 488              		@ sp needed
 489 0070 10BD     		pop	{r4, pc}
 490              	.L27:
 491 0072 C046     		.align	2
 492              	.L26:
 493 0074 00002640 		.word	1076232192
 494 0078 01000200 		.word	131073
 495 007c 84050000 		.word	1412
 496 0080 8C050000 		.word	1420
 497 0084 E0002340 		.word	1076035808
 498              		.cfi_endproc
 499              	.LFE55:
 500              		.size	SystemInit, .-SystemInit
 501              		.section	.text.Cy_SysGetCM4Status,"ax",%progbits
 502              		.align	2
 503              		.global	Cy_SysGetCM4Status
 504              		.code	16
 505              		.thumb_func
 506              		.type	Cy_SysGetCM4Status, %function
 507              	Cy_SysGetCM4Status:
 508              	.LFB58:
 375:system_psoc63_cm0plus.c **** 
 376:system_psoc63_cm0plus.c **** 
 377:system_psoc63_cm0plus.c **** #if (CY_SYSTEM_CPU_CM0P == 1UL) || defined(CY_DOXYGEN)
ARM GAS  C:\Users\kiwamu\AppData\Local\Temp\ccfghKh9.s 			page 17


 378:system_psoc63_cm0plus.c **** /*******************************************************************************
 379:system_psoc63_cm0plus.c **** * Function Name: Cy_SysGetCM4Status
 380:system_psoc63_cm0plus.c **** ****************************************************************************//**
 381:system_psoc63_cm0plus.c **** *
 382:system_psoc63_cm0plus.c **** * Returns the Cortex-M4 core power mode.
 383:system_psoc63_cm0plus.c **** *
 384:system_psoc63_cm0plus.c **** * \return \ref group_system_config_cm4_status_macro
 385:system_psoc63_cm0plus.c **** *
 386:system_psoc63_cm0plus.c **** *******************************************************************************/
 387:system_psoc63_cm0plus.c **** uint32_t Cy_SysGetCM4Status(void)
 388:system_psoc63_cm0plus.c **** {
 509              		.loc 1 388 0
 510              		.cfi_startproc
 511              		@ args = 0, pretend = 0, frame = 0
 512              		@ frame_needed = 0, uses_anonymous_args = 0
 513              		@ link register save eliminated.
 389:system_psoc63_cm0plus.c ****     uint32_t regValue;
 390:system_psoc63_cm0plus.c **** 
 391:system_psoc63_cm0plus.c ****     /* Get current power mode */
 392:system_psoc63_cm0plus.c ****     regValue = CPUSS->CM4_PWR_CTL & CPUSS_CM4_PWR_CTL_PWR_MODE_Msk;
 514              		.loc 1 392 0
 515 0000 8023     		movs	r3, #128
 516 0002 024A     		ldr	r2, .L29
 517 0004 D358     		ldr	r3, [r2, r3]
 518 0006 0320     		movs	r0, #3
 519 0008 1840     		ands	r0, r3
 520              	.LVL57:
 393:system_psoc63_cm0plus.c **** 
 394:system_psoc63_cm0plus.c ****     return (regValue);
 395:system_psoc63_cm0plus.c **** }
 521              		.loc 1 395 0
 522              		@ sp needed
 523 000a 7047     		bx	lr
 524              	.L30:
 525              		.align	2
 526              	.L29:
 527 000c 00002140 		.word	1075904512
 528              		.cfi_endproc
 529              	.LFE58:
 530              		.size	Cy_SysGetCM4Status, .-Cy_SysGetCM4Status
 531              		.section	.text.Cy_SysDisableCM4,"ax",%progbits
 532              		.align	2
 533              		.global	Cy_SysDisableCM4
 534              		.code	16
 535              		.thumb_func
 536              		.type	Cy_SysDisableCM4, %function
 537              	Cy_SysDisableCM4:
 538              	.LFB60:
 396:system_psoc63_cm0plus.c **** 
 397:system_psoc63_cm0plus.c **** 
 398:system_psoc63_cm0plus.c **** /*******************************************************************************
 399:system_psoc63_cm0plus.c **** * Function Name: Cy_SysEnableCM4
 400:system_psoc63_cm0plus.c **** ****************************************************************************//**
 401:system_psoc63_cm0plus.c **** *
 402:system_psoc63_cm0plus.c **** * Sets vector table base address and enables the Cortex-M4 core.
 403:system_psoc63_cm0plus.c **** *
 404:system_psoc63_cm0plus.c **** * \note If the CPU is already enabled, it is reset and then enabled.
ARM GAS  C:\Users\kiwamu\AppData\Local\Temp\ccfghKh9.s 			page 18


 405:system_psoc63_cm0plus.c **** *
 406:system_psoc63_cm0plus.c **** * \param vectorTableOffset The offset of the vector table base address from
 407:system_psoc63_cm0plus.c **** * memory address 0x00000000. The offset should be multiple to 1024 bytes.
 408:system_psoc63_cm0plus.c **** *
 409:system_psoc63_cm0plus.c **** *******************************************************************************/
 410:system_psoc63_cm0plus.c **** void Cy_SysEnableCM4(uint32_t vectorTableOffset)
 411:system_psoc63_cm0plus.c **** {
 412:system_psoc63_cm0plus.c ****     uint32_t regValue;
 413:system_psoc63_cm0plus.c ****     uint32_t interruptState;
 414:system_psoc63_cm0plus.c ****     uint32_t cpuState;
 415:system_psoc63_cm0plus.c **** 
 416:system_psoc63_cm0plus.c ****     interruptState = Cy_SaveIRQ();
 417:system_psoc63_cm0plus.c **** 
 418:system_psoc63_cm0plus.c ****     cpuState = Cy_SysGetCM4Status();
 419:system_psoc63_cm0plus.c ****     if (CY_SYS_CM4_STATUS_ENABLED == cpuState)
 420:system_psoc63_cm0plus.c ****     {
 421:system_psoc63_cm0plus.c ****         Cy_SysResetCM4();
 422:system_psoc63_cm0plus.c ****     }
 423:system_psoc63_cm0plus.c **** 
 424:system_psoc63_cm0plus.c ****     CPUSS->CM4_VECTOR_TABLE_BASE = vectorTableOffset;
 425:system_psoc63_cm0plus.c **** 
 426:system_psoc63_cm0plus.c ****     regValue = CPUSS->CM4_PWR_CTL & ~(CPUSS_CM4_PWR_CTL_VECTKEYSTAT_Msk | CPUSS_CM4_PWR_CTL_PWR_MOD
 427:system_psoc63_cm0plus.c ****     regValue |= _VAL2FLD(CPUSS_CM4_PWR_CTL_VECTKEYSTAT, CY_SYS_CM4_PWR_CTL_KEY_OPEN);
 428:system_psoc63_cm0plus.c ****     regValue |= CY_SYS_CM4_STATUS_ENABLED;
 429:system_psoc63_cm0plus.c ****     CPUSS->CM4_PWR_CTL = regValue;
 430:system_psoc63_cm0plus.c **** 
 431:system_psoc63_cm0plus.c ****     while((CPUSS->CM4_STATUS & CPUSS_CM4_STATUS_PWR_DONE_Msk) == 0UL)
 432:system_psoc63_cm0plus.c ****     {
 433:system_psoc63_cm0plus.c ****         /* Wait for the power mode to take effect */
 434:system_psoc63_cm0plus.c ****     }
 435:system_psoc63_cm0plus.c **** 
 436:system_psoc63_cm0plus.c ****     Cy_RestoreIRQ(interruptState);
 437:system_psoc63_cm0plus.c **** }
 438:system_psoc63_cm0plus.c **** 
 439:system_psoc63_cm0plus.c **** 
 440:system_psoc63_cm0plus.c **** /*******************************************************************************
 441:system_psoc63_cm0plus.c **** * Function Name: Cy_SysDisableCM4
 442:system_psoc63_cm0plus.c **** ****************************************************************************//**
 443:system_psoc63_cm0plus.c **** *
 444:system_psoc63_cm0plus.c **** * Disables the Cortex-M4 core and waits for the mode to take the effect.
 445:system_psoc63_cm0plus.c **** *
 446:system_psoc63_cm0plus.c **** * \warning Do not call the function while the Cortex-M4 is executing because
 447:system_psoc63_cm0plus.c **** * such a call may corrupt/abort a pending bus-transaction by the CPU and cause
 448:system_psoc63_cm0plus.c **** * unexpected behavior in the system including a deadlock. Call the function
 449:system_psoc63_cm0plus.c **** * while the Cortex-M4 core is in the Sleep or Deep Sleep low-power mode. Use
 450:system_psoc63_cm0plus.c **** * the \ref group_syspm Power Management (syspm) API to put the CPU into the
 451:system_psoc63_cm0plus.c **** * low-power modes. Use the \ref Cy_SysPm_ReadStatus() to get a status of the
 452:system_psoc63_cm0plus.c **** * CPU.
 453:system_psoc63_cm0plus.c **** *
 454:system_psoc63_cm0plus.c **** *******************************************************************************/
 455:system_psoc63_cm0plus.c **** void Cy_SysDisableCM4(void)
 456:system_psoc63_cm0plus.c **** {
 539              		.loc 1 456 0
 540              		.cfi_startproc
 541              		@ args = 0, pretend = 0, frame = 0
 542              		@ frame_needed = 0, uses_anonymous_args = 0
 543 0000 10B5     		push	{r4, lr}
ARM GAS  C:\Users\kiwamu\AppData\Local\Temp\ccfghKh9.s 			page 19


 544              		.cfi_def_cfa_offset 8
 545              		.cfi_offset 4, -8
 546              		.cfi_offset 14, -4
 457:system_psoc63_cm0plus.c ****     uint32_t interruptState;
 458:system_psoc63_cm0plus.c ****     uint32_t regValue;
 459:system_psoc63_cm0plus.c **** 
 460:system_psoc63_cm0plus.c ****     interruptState = Cy_SaveIRQ();
 547              		.loc 1 460 0
 548 0002 FFF7FEFF 		bl	Cy_SaveIRQ
 549              	.LVL58:
 461:system_psoc63_cm0plus.c **** 
 462:system_psoc63_cm0plus.c ****     regValue = CPUSS->CM4_PWR_CTL & ~(CPUSS_CM4_PWR_CTL_VECTKEYSTAT_Msk | CPUSS_CM4_PWR_CTL_PWR_MOD
 550              		.loc 1 462 0
 551 0006 0849     		ldr	r1, .L33
 552 0008 8022     		movs	r2, #128
 553 000a 8C58     		ldr	r4, [r1, r2]
 554 000c 074B     		ldr	r3, .L33+4
 555 000e 2340     		ands	r3, r4
 556              	.LVL59:
 463:system_psoc63_cm0plus.c ****     regValue |= _VAL2FLD(CPUSS_CM4_PWR_CTL_VECTKEYSTAT, CY_SYS_CM4_PWR_CTL_KEY_OPEN);
 557              		.loc 1 463 0
 558 0010 074C     		ldr	r4, .L33+8
 559 0012 2343     		orrs	r3, r4
 560              	.LVL60:
 464:system_psoc63_cm0plus.c ****     regValue |= CY_SYS_CM4_STATUS_DISABLED;
 465:system_psoc63_cm0plus.c ****     CPUSS->CM4_PWR_CTL = regValue;
 561              		.loc 1 465 0
 562 0014 8B50     		str	r3, [r1, r2]
 563              	.LVL61:
 564              	.L32:
 466:system_psoc63_cm0plus.c **** 
 467:system_psoc63_cm0plus.c ****     while((CPUSS->CM4_STATUS & CPUSS_CM4_STATUS_PWR_DONE_Msk) == 0UL)
 565              		.loc 1 467 0 discriminator 1
 566 0016 8823     		movs	r3, #136
 567 0018 034A     		ldr	r2, .L33
 568 001a D358     		ldr	r3, [r2, r3]
 569 001c DB06     		lsls	r3, r3, #27
 570 001e FAD5     		bpl	.L32
 468:system_psoc63_cm0plus.c ****     {
 469:system_psoc63_cm0plus.c ****         /* Wait for the power mode to take effect */
 470:system_psoc63_cm0plus.c ****     }
 471:system_psoc63_cm0plus.c **** 
 472:system_psoc63_cm0plus.c ****     Cy_RestoreIRQ(interruptState);
 571              		.loc 1 472 0
 572 0020 FFF7FEFF 		bl	Cy_RestoreIRQ
 573              	.LVL62:
 473:system_psoc63_cm0plus.c **** }
 574              		.loc 1 473 0
 575              		@ sp needed
 576 0024 10BD     		pop	{r4, pc}
 577              	.L34:
 578 0026 C046     		.align	2
 579              	.L33:
 580 0028 00002140 		.word	1075904512
 581 002c FCFF0000 		.word	65532
 582 0030 0000FA05 		.word	100270080
 583              		.cfi_endproc
ARM GAS  C:\Users\kiwamu\AppData\Local\Temp\ccfghKh9.s 			page 20


 584              	.LFE60:
 585              		.size	Cy_SysDisableCM4, .-Cy_SysDisableCM4
 586              		.section	.text.Cy_SysRetainCM4,"ax",%progbits
 587              		.align	2
 588              		.global	Cy_SysRetainCM4
 589              		.code	16
 590              		.thumb_func
 591              		.type	Cy_SysRetainCM4, %function
 592              	Cy_SysRetainCM4:
 593              	.LFB61:
 474:system_psoc63_cm0plus.c **** 
 475:system_psoc63_cm0plus.c **** 
 476:system_psoc63_cm0plus.c **** /*******************************************************************************
 477:system_psoc63_cm0plus.c **** * Function Name: Cy_SysRetainCM4
 478:system_psoc63_cm0plus.c **** ****************************************************************************//**
 479:system_psoc63_cm0plus.c **** *
 480:system_psoc63_cm0plus.c **** * Retains the Cortex-M4 core and exists without waiting for the mode to take
 481:system_psoc63_cm0plus.c **** * effect.
 482:system_psoc63_cm0plus.c **** *
 483:system_psoc63_cm0plus.c **** * \note The retained mode can be entered only from the enabled mode.
 484:system_psoc63_cm0plus.c **** *
 485:system_psoc63_cm0plus.c **** * \warning Do not call the function while the Cortex-M4 is executing because
 486:system_psoc63_cm0plus.c **** * such a call may corrupt/abort a pending bus-transaction by the CPU and cause
 487:system_psoc63_cm0plus.c **** * unexpected behavior in the system including a deadlock. Call the function
 488:system_psoc63_cm0plus.c **** * while the Cortex-M4 core is in the Sleep or Deep Sleep low-power mode. Use
 489:system_psoc63_cm0plus.c **** * the \ref group_syspm Power Management (syspm) API to put the CPU into the
 490:system_psoc63_cm0plus.c **** * low-power modes. Use the \ref Cy_SysPm_ReadStatus() to get a status of the CPU.
 491:system_psoc63_cm0plus.c **** *
 492:system_psoc63_cm0plus.c **** *******************************************************************************/
 493:system_psoc63_cm0plus.c **** void Cy_SysRetainCM4(void)
 494:system_psoc63_cm0plus.c **** {
 594              		.loc 1 494 0
 595              		.cfi_startproc
 596              		@ args = 0, pretend = 0, frame = 0
 597              		@ frame_needed = 0, uses_anonymous_args = 0
 598 0000 10B5     		push	{r4, lr}
 599              		.cfi_def_cfa_offset 8
 600              		.cfi_offset 4, -8
 601              		.cfi_offset 14, -4
 495:system_psoc63_cm0plus.c ****     uint32_t interruptState;
 496:system_psoc63_cm0plus.c ****     uint32_t regValue;
 497:system_psoc63_cm0plus.c **** 
 498:system_psoc63_cm0plus.c ****     interruptState = Cy_SaveIRQ();
 602              		.loc 1 498 0
 603 0002 FFF7FEFF 		bl	Cy_SaveIRQ
 604              	.LVL63:
 499:system_psoc63_cm0plus.c **** 
 500:system_psoc63_cm0plus.c ****     regValue = CPUSS->CM4_PWR_CTL & ~(CPUSS_CM4_PWR_CTL_VECTKEYSTAT_Msk | CPUSS_CM4_PWR_CTL_PWR_MOD
 605              		.loc 1 500 0
 606 0006 0549     		ldr	r1, .L36
 607 0008 8022     		movs	r2, #128
 608 000a 8C58     		ldr	r4, [r1, r2]
 609 000c 044B     		ldr	r3, .L36+4
 610 000e 2340     		ands	r3, r4
 611              	.LVL64:
 501:system_psoc63_cm0plus.c ****     regValue |= _VAL2FLD(CPUSS_CM4_PWR_CTL_VECTKEYSTAT, CY_SYS_CM4_PWR_CTL_KEY_OPEN);
 502:system_psoc63_cm0plus.c ****     regValue |= CY_SYS_CM4_STATUS_RETAINED;
ARM GAS  C:\Users\kiwamu\AppData\Local\Temp\ccfghKh9.s 			page 21


 612              		.loc 1 502 0
 613 0010 044C     		ldr	r4, .L36+8
 614 0012 2343     		orrs	r3, r4
 615              	.LVL65:
 503:system_psoc63_cm0plus.c ****     CPUSS->CM4_PWR_CTL = regValue;
 616              		.loc 1 503 0
 617 0014 8B50     		str	r3, [r1, r2]
 504:system_psoc63_cm0plus.c **** 
 505:system_psoc63_cm0plus.c ****     Cy_RestoreIRQ(interruptState);
 618              		.loc 1 505 0
 619 0016 FFF7FEFF 		bl	Cy_RestoreIRQ
 620              	.LVL66:
 506:system_psoc63_cm0plus.c **** }
 621              		.loc 1 506 0
 622              		@ sp needed
 623 001a 10BD     		pop	{r4, pc}
 624              	.L37:
 625              		.align	2
 626              	.L36:
 627 001c 00002140 		.word	1075904512
 628 0020 FCFF0000 		.word	65532
 629 0024 0200FA05 		.word	100270082
 630              		.cfi_endproc
 631              	.LFE61:
 632              		.size	Cy_SysRetainCM4, .-Cy_SysRetainCM4
 633              		.section	.text.Cy_SysResetCM4,"ax",%progbits
 634              		.align	2
 635              		.global	Cy_SysResetCM4
 636              		.code	16
 637              		.thumb_func
 638              		.type	Cy_SysResetCM4, %function
 639              	Cy_SysResetCM4:
 640              	.LFB62:
 507:system_psoc63_cm0plus.c **** 
 508:system_psoc63_cm0plus.c **** 
 509:system_psoc63_cm0plus.c **** /*******************************************************************************
 510:system_psoc63_cm0plus.c **** * Function Name: Cy_SysResetCM4
 511:system_psoc63_cm0plus.c **** ****************************************************************************//**
 512:system_psoc63_cm0plus.c **** *
 513:system_psoc63_cm0plus.c **** * Resets the Cortex-M4 core and waits for the mode to take the effect.
 514:system_psoc63_cm0plus.c **** *
 515:system_psoc63_cm0plus.c **** * \note The reset mode can not be entered from the retained mode.
 516:system_psoc63_cm0plus.c **** *
 517:system_psoc63_cm0plus.c **** * \warning Do not call the function while the Cortex-M4 is executing because
 518:system_psoc63_cm0plus.c **** * such a call may corrupt/abort a pending bus-transaction by the CPU and cause
 519:system_psoc63_cm0plus.c **** * unexpected behavior in the system including a deadlock. Call the function
 520:system_psoc63_cm0plus.c **** * while the Cortex-M4 core is in the Sleep or Deep Sleep low-power mode. Use
 521:system_psoc63_cm0plus.c **** * the \ref group_syspm Power Management (syspm) API to put the CPU into the
 522:system_psoc63_cm0plus.c **** * low-power modes. Use the \ref Cy_SysPm_ReadStatus() to get a status of the CPU.
 523:system_psoc63_cm0plus.c **** *
 524:system_psoc63_cm0plus.c **** *******************************************************************************/
 525:system_psoc63_cm0plus.c **** void Cy_SysResetCM4(void)
 526:system_psoc63_cm0plus.c **** {
 641              		.loc 1 526 0
 642              		.cfi_startproc
 643              		@ args = 0, pretend = 0, frame = 0
 644              		@ frame_needed = 0, uses_anonymous_args = 0
ARM GAS  C:\Users\kiwamu\AppData\Local\Temp\ccfghKh9.s 			page 22


 645 0000 10B5     		push	{r4, lr}
 646              		.cfi_def_cfa_offset 8
 647              		.cfi_offset 4, -8
 648              		.cfi_offset 14, -4
 527:system_psoc63_cm0plus.c ****     uint32_t interruptState;
 528:system_psoc63_cm0plus.c ****     uint32_t regValue;
 529:system_psoc63_cm0plus.c **** 
 530:system_psoc63_cm0plus.c ****     interruptState = Cy_SaveIRQ();
 649              		.loc 1 530 0
 650 0002 FFF7FEFF 		bl	Cy_SaveIRQ
 651              	.LVL67:
 531:system_psoc63_cm0plus.c **** 
 532:system_psoc63_cm0plus.c ****     regValue = CPUSS->CM4_PWR_CTL & ~(CPUSS_CM4_PWR_CTL_VECTKEYSTAT_Msk | CPUSS_CM4_PWR_CTL_PWR_MOD
 652              		.loc 1 532 0
 653 0006 0849     		ldr	r1, .L40
 654 0008 8022     		movs	r2, #128
 655 000a 8C58     		ldr	r4, [r1, r2]
 656 000c 074B     		ldr	r3, .L40+4
 657 000e 2340     		ands	r3, r4
 658              	.LVL68:
 533:system_psoc63_cm0plus.c ****     regValue |= _VAL2FLD(CPUSS_CM4_PWR_CTL_VECTKEYSTAT, CY_SYS_CM4_PWR_CTL_KEY_OPEN);
 534:system_psoc63_cm0plus.c ****     regValue |= CY_SYS_CM4_STATUS_RESET;
 659              		.loc 1 534 0
 660 0010 074C     		ldr	r4, .L40+8
 661 0012 2343     		orrs	r3, r4
 662              	.LVL69:
 535:system_psoc63_cm0plus.c ****     CPUSS->CM4_PWR_CTL = regValue;
 663              		.loc 1 535 0
 664 0014 8B50     		str	r3, [r1, r2]
 665              	.LVL70:
 666              	.L39:
 536:system_psoc63_cm0plus.c **** 
 537:system_psoc63_cm0plus.c ****     while((CPUSS->CM4_STATUS & CPUSS_CM4_STATUS_PWR_DONE_Msk) == 0UL)
 667              		.loc 1 537 0 discriminator 1
 668 0016 8823     		movs	r3, #136
 669 0018 034A     		ldr	r2, .L40
 670 001a D358     		ldr	r3, [r2, r3]
 671 001c DB06     		lsls	r3, r3, #27
 672 001e FAD5     		bpl	.L39
 538:system_psoc63_cm0plus.c ****     {
 539:system_psoc63_cm0plus.c ****         /* Wait for the power mode to take effect */
 540:system_psoc63_cm0plus.c ****     }
 541:system_psoc63_cm0plus.c **** 
 542:system_psoc63_cm0plus.c ****     Cy_RestoreIRQ(interruptState);
 673              		.loc 1 542 0
 674 0020 FFF7FEFF 		bl	Cy_RestoreIRQ
 675              	.LVL71:
 543:system_psoc63_cm0plus.c **** }
 676              		.loc 1 543 0
 677              		@ sp needed
 678 0024 10BD     		pop	{r4, pc}
 679              	.L41:
 680 0026 C046     		.align	2
 681              	.L40:
 682 0028 00002140 		.word	1075904512
 683 002c FCFF0000 		.word	65532
 684 0030 0100FA05 		.word	100270081
ARM GAS  C:\Users\kiwamu\AppData\Local\Temp\ccfghKh9.s 			page 23


 685              		.cfi_endproc
 686              	.LFE62:
 687              		.size	Cy_SysResetCM4, .-Cy_SysResetCM4
 688              		.section	.text.Cy_SysEnableCM4,"ax",%progbits
 689              		.align	2
 690              		.global	Cy_SysEnableCM4
 691              		.code	16
 692              		.thumb_func
 693              		.type	Cy_SysEnableCM4, %function
 694              	Cy_SysEnableCM4:
 695              	.LFB59:
 411:system_psoc63_cm0plus.c ****     uint32_t regValue;
 696              		.loc 1 411 0
 697              		.cfi_startproc
 698              		@ args = 0, pretend = 0, frame = 0
 699              		@ frame_needed = 0, uses_anonymous_args = 0
 700              	.LVL72:
 701 0000 70B5     		push	{r4, r5, r6, lr}
 702              		.cfi_def_cfa_offset 16
 703              		.cfi_offset 4, -16
 704              		.cfi_offset 5, -12
 705              		.cfi_offset 6, -8
 706              		.cfi_offset 14, -4
 707 0002 0500     		movs	r5, r0
 416:system_psoc63_cm0plus.c **** 
 708              		.loc 1 416 0
 709 0004 FFF7FEFF 		bl	Cy_SaveIRQ
 710              	.LVL73:
 711 0008 0400     		movs	r4, r0
 712              	.LVL74:
 418:system_psoc63_cm0plus.c ****     if (CY_SYS_CM4_STATUS_ENABLED == cpuState)
 713              		.loc 1 418 0
 714 000a FFF7FEFF 		bl	Cy_SysGetCM4Status
 715              	.LVL75:
 419:system_psoc63_cm0plus.c ****     {
 716              		.loc 1 419 0
 717 000e 0328     		cmp	r0, #3
 718 0010 01D1     		bne	.L43
 421:system_psoc63_cm0plus.c ****     }
 719              		.loc 1 421 0
 720 0012 FFF7FEFF 		bl	Cy_SysResetCM4
 721              	.LVL76:
 722              	.L43:
 424:system_psoc63_cm0plus.c **** 
 723              		.loc 1 424 0
 724 0016 0A4A     		ldr	r2, .L45
 725 0018 B023     		movs	r3, #176
 726 001a 9B00     		lsls	r3, r3, #2
 727 001c D550     		str	r5, [r2, r3]
 426:system_psoc63_cm0plus.c ****     regValue |= _VAL2FLD(CPUSS_CM4_PWR_CTL_VECTKEYSTAT, CY_SYS_CM4_PWR_CTL_KEY_OPEN);
 728              		.loc 1 426 0
 729 001e 8021     		movs	r1, #128
 730 0020 5058     		ldr	r0, [r2, r1]
 731 0022 084B     		ldr	r3, .L45+4
 732 0024 0340     		ands	r3, r0
 733              	.LVL77:
 428:system_psoc63_cm0plus.c ****     CPUSS->CM4_PWR_CTL = regValue;
ARM GAS  C:\Users\kiwamu\AppData\Local\Temp\ccfghKh9.s 			page 24


 734              		.loc 1 428 0
 735 0026 0848     		ldr	r0, .L45+8
 736 0028 0343     		orrs	r3, r0
 737              	.LVL78:
 429:system_psoc63_cm0plus.c **** 
 738              		.loc 1 429 0
 739 002a 5350     		str	r3, [r2, r1]
 740              	.LVL79:
 741              	.L44:
 431:system_psoc63_cm0plus.c ****     {
 742              		.loc 1 431 0 discriminator 1
 743 002c 8823     		movs	r3, #136
 744 002e 044A     		ldr	r2, .L45
 745 0030 D358     		ldr	r3, [r2, r3]
 746 0032 DB06     		lsls	r3, r3, #27
 747 0034 FAD5     		bpl	.L44
 436:system_psoc63_cm0plus.c **** }
 748              		.loc 1 436 0
 749 0036 2000     		movs	r0, r4
 750 0038 FFF7FEFF 		bl	Cy_RestoreIRQ
 751              	.LVL80:
 437:system_psoc63_cm0plus.c **** 
 752              		.loc 1 437 0
 753              		@ sp needed
 754              	.LVL81:
 755              	.LVL82:
 756 003c 70BD     		pop	{r4, r5, r6, pc}
 757              	.L46:
 758 003e C046     		.align	2
 759              	.L45:
 760 0040 00002140 		.word	1075904512
 761 0044 FCFF0000 		.word	65532
 762 0048 0300FA05 		.word	100270083
 763              		.cfi_endproc
 764              	.LFE59:
 765              		.size	Cy_SysEnableCM4, .-Cy_SysEnableCM4
 766              		.global	cy_delay32kMs
 767              		.global	cy_delayFreqMhz
 768              		.global	cy_delayFreqKhz
 769              		.global	cy_delayFreqHz
 770              		.global	cy_BleEcoClockFreqHz
 771              		.global	cy_PeriClkFreqHz
 772              		.global	cy_Hfclk0FreqHz
 773              		.global	SystemCoreClock
 774              		.data
 775              		.align	2
 776              		.set	.LANCHOR0,. + 0
 777              		.type	cy_BleEcoClockFreqHz, %object
 778              		.size	cy_BleEcoClockFreqHz, 4
 779              	cy_BleEcoClockFreqHz:
 780 0000 0048E801 		.word	32000000
 781              		.type	cy_Hfclk0FreqHz, %object
 782              		.size	cy_Hfclk0FreqHz, 4
 783              	cy_Hfclk0FreqHz:
 784 0004 00127A00 		.word	8000000
 785              		.type	cy_PeriClkFreqHz, %object
 786              		.size	cy_PeriClkFreqHz, 4
ARM GAS  C:\Users\kiwamu\AppData\Local\Temp\ccfghKh9.s 			page 25


 787              	cy_PeriClkFreqHz:
 788 0008 00093D00 		.word	4000000
 789              		.type	SystemCoreClock, %object
 790              		.size	SystemCoreClock, 4
 791              	SystemCoreClock:
 792 000c 00093D00 		.word	4000000
 793              		.type	cy_delayFreqHz, %object
 794              		.size	cy_delayFreqHz, 4
 795              	cy_delayFreqHz:
 796 0010 00093D00 		.word	4000000
 797              		.type	cy_delayFreqMhz, %object
 798              		.size	cy_delayFreqMhz, 1
 799              	cy_delayFreqMhz:
 800 0014 04       		.byte	4
 801 0015 000000   		.space	3
 802              		.type	cy_delayFreqKhz, %object
 803              		.size	cy_delayFreqKhz, 4
 804              	cy_delayFreqKhz:
 805 0018 A00F0000 		.word	4000
 806              		.type	cy_delay32kMs, %object
 807              		.size	cy_delay32kMs, 4
 808              	cy_delay32kMs:
 809 001c 0000D007 		.word	131072000
 810              		.text
 811              	.Letext0:
 812              		.file 2 "c:\\program files (x86)\\cypress\\psoc creator\\4.2\\psoc creator\\import\\gnu\\arm\\5.4.
 813              		.file 3 "c:\\program files (x86)\\cypress\\psoc creator\\4.2\\psoc creator\\import\\gnu\\arm\\5.4.
 814              		.file 4 "Generated_Source\\PSoC6\\pdl\\devices/psoc6/ip/cyip_cpuss.h"
 815              		.file 5 "Generated_Source\\PSoC6\\pdl\\devices/psoc6/ip/cyip_ipc.h"
 816              		.file 6 "Generated_Source\\PSoC6\\pdl\\devices/psoc6/ip/cyip_srss.h"
 817              		.file 7 "./cy_ipc_config.h"
 818              		.file 8 "system_psoc63.h"