ARM GAS  C:\Users\kiwamu\AppData\Local\Temp\ccJm7GL2.s 			page 1


   1              		.syntax unified
   2              		.cpu cortex-m4
   3              		.eabi_attribute 27, 1
   4              		.fpu fpv4-sp-d16
   5              		.eabi_attribute 20, 1
   6              		.eabi_attribute 21, 1
   7              		.eabi_attribute 23, 3
   8              		.eabi_attribute 24, 1
   9              		.eabi_attribute 25, 1
  10              		.eabi_attribute 26, 1
  11              		.eabi_attribute 30, 1
  12              		.eabi_attribute 34, 1
  13              		.eabi_attribute 18, 4
  14              		.thumb
  15              		.syntax unified
  16              		.file	"cy_ble_clk.c"
  17              		.text
  18              	.Ltext0:
  19              		.cfi_sections	.debug_frame
  20              		.section	.text.Cy_BLE_HalRcbRegRead,"ax",%progbits
  21              		.align	2
  22              		.thumb
  23              		.thumb_func
  24              		.type	Cy_BLE_HalRcbRegRead, %function
  25              	Cy_BLE_HalRcbRegRead:
  26              	.LFB271:
  27              		.file 1 "Generated_Source\\PSoC6\\pdl\\middleware\\ble\\cy_ble_clk.c"
   1:Generated_Source\PSoC6\pdl\middleware\ble/cy_ble_clk.c **** /***************************************************************************//**
   2:Generated_Source\PSoC6\pdl\middleware\ble/cy_ble_clk.c **** * \file cy_ble_clk.c
   3:Generated_Source\PSoC6\pdl\middleware\ble/cy_ble_clk.c **** * \version 2.0
   4:Generated_Source\PSoC6\pdl\middleware\ble/cy_ble_clk.c **** *
   5:Generated_Source\PSoC6\pdl\middleware\ble/cy_ble_clk.c **** * \brief
   6:Generated_Source\PSoC6\pdl\middleware\ble/cy_ble_clk.c **** *  Contains the source code for the BLE ECO clock.
   7:Generated_Source\PSoC6\pdl\middleware\ble/cy_ble_clk.c **** *
   8:Generated_Source\PSoC6\pdl\middleware\ble/cy_ble_clk.c **** ********************************************************************************
   9:Generated_Source\PSoC6\pdl\middleware\ble/cy_ble_clk.c **** * \copyright
  10:Generated_Source\PSoC6\pdl\middleware\ble/cy_ble_clk.c **** * Copyright 2017, Cypress Semiconductor Corporation.  All rights reserved.
  11:Generated_Source\PSoC6\pdl\middleware\ble/cy_ble_clk.c **** * You may use this file only in accordance with the license, terms, conditions,
  12:Generated_Source\PSoC6\pdl\middleware\ble/cy_ble_clk.c **** * disclaimers, and limitations in the end user license agreement accompanying
  13:Generated_Source\PSoC6\pdl\middleware\ble/cy_ble_clk.c **** * the software package with which this file was provided.
  14:Generated_Source\PSoC6\pdl\middleware\ble/cy_ble_clk.c **** *******************************************************************************/
  15:Generated_Source\PSoC6\pdl\middleware\ble/cy_ble_clk.c **** 
  16:Generated_Source\PSoC6\pdl\middleware\ble/cy_ble_clk.c **** #include "cy_ble_clk.h"
  17:Generated_Source\PSoC6\pdl\middleware\ble/cy_ble_clk.c **** #include "syslib/cy_syslib.h"
  18:Generated_Source\PSoC6\pdl\middleware\ble/cy_ble_clk.c **** #include "sysclk/cy_sysclk.h"
  19:Generated_Source\PSoC6\pdl\middleware\ble/cy_ble_clk.c **** #include "syspm/cy_syspm.h"
  20:Generated_Source\PSoC6\pdl\middleware\ble/cy_ble_clk.c **** 
  21:Generated_Source\PSoC6\pdl\middleware\ble/cy_ble_clk.c **** /* C binding of definitions if building with C++ compiler */
  22:Generated_Source\PSoC6\pdl\middleware\ble/cy_ble_clk.c **** #ifdef __cplusplus
  23:Generated_Source\PSoC6\pdl\middleware\ble/cy_ble_clk.c **** extern "C" {
  24:Generated_Source\PSoC6\pdl\middleware\ble/cy_ble_clk.c **** #endif /* __cplusplus */
  25:Generated_Source\PSoC6\pdl\middleware\ble/cy_ble_clk.c **** 
  26:Generated_Source\PSoC6\pdl\middleware\ble/cy_ble_clk.c **** 
  27:Generated_Source\PSoC6\pdl\middleware\ble/cy_ble_clk.c **** static cy_en_ble_eco_status_t Cy_BLE_HalRcbRegRead(uint16_t addr, uint16_t *data);
  28:Generated_Source\PSoC6\pdl\middleware\ble/cy_ble_clk.c **** static cy_en_ble_eco_status_t Cy_BLE_HalRcbRegWrite(uint16_t addr, uint16_t data);
  29:Generated_Source\PSoC6\pdl\middleware\ble/cy_ble_clk.c **** static cy_en_ble_eco_status_t Cy_BLE_HalEcoSetTrim(uint8_t trim);
  30:Generated_Source\PSoC6\pdl\middleware\ble/cy_ble_clk.c **** static cy_en_ble_eco_status_t Cy_BLE_HalMxdRadioEnableClocks(const cy_stc_ble_bless_eco_cfg_params_
ARM GAS  C:\Users\kiwamu\AppData\Local\Temp\ccJm7GL2.s 			page 2


  31:Generated_Source\PSoC6\pdl\middleware\ble/cy_ble_clk.c **** 
  32:Generated_Source\PSoC6\pdl\middleware\ble/cy_ble_clk.c **** 
  33:Generated_Source\PSoC6\pdl\middleware\ble/cy_ble_clk.c **** /*******************************************************************************
  34:Generated_Source\PSoC6\pdl\middleware\ble/cy_ble_clk.c **** * Function Name: Cy_BLE_HAL_IsEcoCpuClockSrc
  35:Generated_Source\PSoC6\pdl\middleware\ble/cy_ble_clk.c **** ****************************************************************************//**
  36:Generated_Source\PSoC6\pdl\middleware\ble/cy_ble_clk.c **** *
  37:Generated_Source\PSoC6\pdl\middleware\ble/cy_ble_clk.c **** *  If ECO from BLESS in CLK_PATH_SELECT register is selected return 1.
  38:Generated_Source\PSoC6\pdl\middleware\ble/cy_ble_clk.c **** *
  39:Generated_Source\PSoC6\pdl\middleware\ble/cy_ble_clk.c **** *  \return
  40:Generated_Source\PSoC6\pdl\middleware\ble/cy_ble_clk.c **** *  uint8_t: 0 - ECO from BLESS is not used in DWR
  41:Generated_Source\PSoC6\pdl\middleware\ble/cy_ble_clk.c **** *           1 - ECO from BLESS is selected in CLK_PATH_SELECT register
  42:Generated_Source\PSoC6\pdl\middleware\ble/cy_ble_clk.c **** *
  43:Generated_Source\PSoC6\pdl\middleware\ble/cy_ble_clk.c **** *******************************************************************************/
  44:Generated_Source\PSoC6\pdl\middleware\ble/cy_ble_clk.c **** uint8_t Cy_BLE_HAL_IsEcoCpuClockSrc(void)
  45:Generated_Source\PSoC6\pdl\middleware\ble/cy_ble_clk.c **** {
  46:Generated_Source\PSoC6\pdl\middleware\ble/cy_ble_clk.c ****     uint8_t returnVal = 0u;
  47:Generated_Source\PSoC6\pdl\middleware\ble/cy_ble_clk.c ****     uint32_t i;
  48:Generated_Source\PSoC6\pdl\middleware\ble/cy_ble_clk.c **** 
  49:Generated_Source\PSoC6\pdl\middleware\ble/cy_ble_clk.c ****     for(i = 0u; i < SRSS_NUM_CLKPATH; i++)
  50:Generated_Source\PSoC6\pdl\middleware\ble/cy_ble_clk.c ****     {
  51:Generated_Source\PSoC6\pdl\middleware\ble/cy_ble_clk.c ****         if(Cy_SysClk_ClkPathGetSource(i) == CY_SYSCLK_CLKPATH_IN_ALTHF)
  52:Generated_Source\PSoC6\pdl\middleware\ble/cy_ble_clk.c ****         {
  53:Generated_Source\PSoC6\pdl\middleware\ble/cy_ble_clk.c ****             returnVal = 1u;
  54:Generated_Source\PSoC6\pdl\middleware\ble/cy_ble_clk.c ****             break;
  55:Generated_Source\PSoC6\pdl\middleware\ble/cy_ble_clk.c ****         }
  56:Generated_Source\PSoC6\pdl\middleware\ble/cy_ble_clk.c ****     }
  57:Generated_Source\PSoC6\pdl\middleware\ble/cy_ble_clk.c **** 
  58:Generated_Source\PSoC6\pdl\middleware\ble/cy_ble_clk.c ****     return(returnVal);
  59:Generated_Source\PSoC6\pdl\middleware\ble/cy_ble_clk.c **** }
  60:Generated_Source\PSoC6\pdl\middleware\ble/cy_ble_clk.c **** 
  61:Generated_Source\PSoC6\pdl\middleware\ble/cy_ble_clk.c **** 
  62:Generated_Source\PSoC6\pdl\middleware\ble/cy_ble_clk.c **** /*******************************************************************************
  63:Generated_Source\PSoC6\pdl\middleware\ble/cy_ble_clk.c **** * Function Name: Cy_BLE_HAL_IsWcoLfclkSrc
  64:Generated_Source\PSoC6\pdl\middleware\ble/cy_ble_clk.c **** ****************************************************************************//**
  65:Generated_Source\PSoC6\pdl\middleware\ble/cy_ble_clk.c **** *
  66:Generated_Source\PSoC6\pdl\middleware\ble/cy_ble_clk.c **** *  In CLK_SELECT register if WCO or PILO return 1
  67:Generated_Source\PSoC6\pdl\middleware\ble/cy_ble_clk.c **** *
  68:Generated_Source\PSoC6\pdl\middleware\ble/cy_ble_clk.c **** *  \return
  69:Generated_Source\PSoC6\pdl\middleware\ble/cy_ble_clk.c **** *  uint8_t: 0 - WCO or PILO are not used in DWR
  70:Generated_Source\PSoC6\pdl\middleware\ble/cy_ble_clk.c **** *           1 - WCO is selected in CLK_SELECT register
  71:Generated_Source\PSoC6\pdl\middleware\ble/cy_ble_clk.c **** *
  72:Generated_Source\PSoC6\pdl\middleware\ble/cy_ble_clk.c **** *******************************************************************************/
  73:Generated_Source\PSoC6\pdl\middleware\ble/cy_ble_clk.c **** uint8_t Cy_BLE_HAL_IsWcoLfclkSrc(void)
  74:Generated_Source\PSoC6\pdl\middleware\ble/cy_ble_clk.c **** {
  75:Generated_Source\PSoC6\pdl\middleware\ble/cy_ble_clk.c ****     cy_en_clklf_in_sources_t lfclkSrs;
  76:Generated_Source\PSoC6\pdl\middleware\ble/cy_ble_clk.c **** 
  77:Generated_Source\PSoC6\pdl\middleware\ble/cy_ble_clk.c ****     lfclkSrs = Cy_SysClk_ClkLfGetSource();
  78:Generated_Source\PSoC6\pdl\middleware\ble/cy_ble_clk.c **** 
  79:Generated_Source\PSoC6\pdl\middleware\ble/cy_ble_clk.c ****     return(((lfclkSrs == CY_SYSCLK_CLKLF_IN_WCO) || (lfclkSrs == CY_SYSCLK_CLKLF_IN_PILO)) ? 1u : 0
  80:Generated_Source\PSoC6\pdl\middleware\ble/cy_ble_clk.c **** }
  81:Generated_Source\PSoC6\pdl\middleware\ble/cy_ble_clk.c **** 
  82:Generated_Source\PSoC6\pdl\middleware\ble/cy_ble_clk.c **** 
  83:Generated_Source\PSoC6\pdl\middleware\ble/cy_ble_clk.c **** /*******************************************************************************
  84:Generated_Source\PSoC6\pdl\middleware\ble/cy_ble_clk.c **** * Function Name: Cy_BLE_HAL_Init
  85:Generated_Source\PSoC6\pdl\middleware\ble/cy_ble_clk.c **** ****************************************************************************//**
  86:Generated_Source\PSoC6\pdl\middleware\ble/cy_ble_clk.c **** *
  87:Generated_Source\PSoC6\pdl\middleware\ble/cy_ble_clk.c **** *  Initializes the BLESS port.
ARM GAS  C:\Users\kiwamu\AppData\Local\Temp\ccJm7GL2.s 			page 3


  88:Generated_Source\PSoC6\pdl\middleware\ble/cy_ble_clk.c **** *
  89:Generated_Source\PSoC6\pdl\middleware\ble/cy_ble_clk.c **** * \return
  90:Generated_Source\PSoC6\pdl\middleware\ble/cy_ble_clk.c **** *  None
  91:Generated_Source\PSoC6\pdl\middleware\ble/cy_ble_clk.c **** *
  92:Generated_Source\PSoC6\pdl\middleware\ble/cy_ble_clk.c **** *******************************************************************************/
  93:Generated_Source\PSoC6\pdl\middleware\ble/cy_ble_clk.c **** void Cy_BLE_HAL_Init(void)
  94:Generated_Source\PSoC6\pdl\middleware\ble/cy_ble_clk.c **** {
  95:Generated_Source\PSoC6\pdl\middleware\ble/cy_ble_clk.c ****     /* Configures pins for BLESS */
  96:Generated_Source\PSoC6\pdl\middleware\ble/cy_ble_clk.c ****     const cy_stc_gpio_prt_config_t port2_cfg =
  97:Generated_Source\PSoC6\pdl\middleware\ble/cy_ble_clk.c ****     {
  98:Generated_Source\PSoC6\pdl\middleware\ble/cy_ble_clk.c ****         .cfg        = CY_BLE_PORT2_CFG_VAL,
  99:Generated_Source\PSoC6\pdl\middleware\ble/cy_ble_clk.c ****         .cfgOut     = CY_BLE_PORT_CFG_OUT_VAL,
 100:Generated_Source\PSoC6\pdl\middleware\ble/cy_ble_clk.c ****         .sel0Active = CY_BLE_PORT2_HSIOM_SEL0,
 101:Generated_Source\PSoC6\pdl\middleware\ble/cy_ble_clk.c ****         .sel1Active = CY_BLE_PORT2_HSIOM_SEL1
 102:Generated_Source\PSoC6\pdl\middleware\ble/cy_ble_clk.c ****     };
 103:Generated_Source\PSoC6\pdl\middleware\ble/cy_ble_clk.c ****     const cy_stc_gpio_prt_config_t port3_cfg =
 104:Generated_Source\PSoC6\pdl\middleware\ble/cy_ble_clk.c ****     {
 105:Generated_Source\PSoC6\pdl\middleware\ble/cy_ble_clk.c ****         .cfg        = CY_BLE_PORT3_CFG_VAL,
 106:Generated_Source\PSoC6\pdl\middleware\ble/cy_ble_clk.c ****         .cfgOut     = CY_BLE_PORT_CFG_OUT_VAL,
 107:Generated_Source\PSoC6\pdl\middleware\ble/cy_ble_clk.c ****         .sel0Active = CY_BLE_PORT3_HSIOM_SEL0,
 108:Generated_Source\PSoC6\pdl\middleware\ble/cy_ble_clk.c ****         .sel1Active = CY_BLE_PORT3_HSIOM_SEL1
 109:Generated_Source\PSoC6\pdl\middleware\ble/cy_ble_clk.c ****     };
 110:Generated_Source\PSoC6\pdl\middleware\ble/cy_ble_clk.c ****     const cy_stc_gpio_prt_config_t port4_cfg =
 111:Generated_Source\PSoC6\pdl\middleware\ble/cy_ble_clk.c ****     {
 112:Generated_Source\PSoC6\pdl\middleware\ble/cy_ble_clk.c ****         .cfg        = CY_BLE_PORT4_CFG_VAL,
 113:Generated_Source\PSoC6\pdl\middleware\ble/cy_ble_clk.c ****         .cfgOut     = CY_BLE_PORT_CFG_OUT_VAL,
 114:Generated_Source\PSoC6\pdl\middleware\ble/cy_ble_clk.c ****         .sel0Active = CY_BLE_PORT4_HSIOM_SEL0,
 115:Generated_Source\PSoC6\pdl\middleware\ble/cy_ble_clk.c ****         .sel1Active = CY_BLE_PORT4_HSIOM_SEL1
 116:Generated_Source\PSoC6\pdl\middleware\ble/cy_ble_clk.c ****     };
 117:Generated_Source\PSoC6\pdl\middleware\ble/cy_ble_clk.c **** 
 118:Generated_Source\PSoC6\pdl\middleware\ble/cy_ble_clk.c ****     (void)Cy_GPIO_Port_Init(GPIO_PRT2, &port2_cfg);
 119:Generated_Source\PSoC6\pdl\middleware\ble/cy_ble_clk.c ****     (void)Cy_GPIO_Port_Init(GPIO_PRT3, &port3_cfg);
 120:Generated_Source\PSoC6\pdl\middleware\ble/cy_ble_clk.c ****     (void)Cy_GPIO_Port_Init(GPIO_PRT4, &port4_cfg);
 121:Generated_Source\PSoC6\pdl\middleware\ble/cy_ble_clk.c **** }
 122:Generated_Source\PSoC6\pdl\middleware\ble/cy_ble_clk.c **** 
 123:Generated_Source\PSoC6\pdl\middleware\ble/cy_ble_clk.c **** 
 124:Generated_Source\PSoC6\pdl\middleware\ble/cy_ble_clk.c **** /*******************************************************************************
 125:Generated_Source\PSoC6\pdl\middleware\ble/cy_ble_clk.c **** * Function Name: Cy_BLE_HalRcbRegRead
 126:Generated_Source\PSoC6\pdl\middleware\ble/cy_ble_clk.c **** ****************************************************************************//**
 127:Generated_Source\PSoC6\pdl\middleware\ble/cy_ble_clk.c **** *
 128:Generated_Source\PSoC6\pdl\middleware\ble/cy_ble_clk.c **** *  Reads Radio register.
 129:Generated_Source\PSoC6\pdl\middleware\ble/cy_ble_clk.c **** *
 130:Generated_Source\PSoC6\pdl\middleware\ble/cy_ble_clk.c **** *  \param addr: Register address.
 131:Generated_Source\PSoC6\pdl\middleware\ble/cy_ble_clk.c **** *  \param *data: Register data (output parameter).
 132:Generated_Source\PSoC6\pdl\middleware\ble/cy_ble_clk.c **** *
 133:Generated_Source\PSoC6\pdl\middleware\ble/cy_ble_clk.c **** *  \return
 134:Generated_Source\PSoC6\pdl\middleware\ble/cy_ble_clk.c **** *   CY_BLE_ECO_SUCCESS - On successful operation.
 135:Generated_Source\PSoC6\pdl\middleware\ble/cy_ble_clk.c **** *   CY_BLE_ECO_HARDWARE_ERROR - If RCB operation failed
 136:Generated_Source\PSoC6\pdl\middleware\ble/cy_ble_clk.c **** *
 137:Generated_Source\PSoC6\pdl\middleware\ble/cy_ble_clk.c **** *******************************************************************************/
 138:Generated_Source\PSoC6\pdl\middleware\ble/cy_ble_clk.c **** static cy_en_ble_eco_status_t Cy_BLE_HalRcbRegRead(uint16_t addr, uint16_t *data)
 139:Generated_Source\PSoC6\pdl\middleware\ble/cy_ble_clk.c **** {
  28              		.loc 1 139 0
  29              		.cfi_startproc
  30              		@ args = 0, pretend = 0, frame = 0
  31              		@ frame_needed = 0, uses_anonymous_args = 0
  32              	.LVL0:
ARM GAS  C:\Users\kiwamu\AppData\Local\Temp\ccJm7GL2.s 			page 4


  33 0000 38B5     		push	{r3, r4, r5, lr}
  34              		.cfi_def_cfa_offset 16
  35              		.cfi_offset 3, -16
  36              		.cfi_offset 4, -12
  37              		.cfi_offset 5, -8
  38              		.cfi_offset 14, -4
  39 0002 0D46     		mov	r5, r1
  40              	.LVL1:
 140:Generated_Source\PSoC6\pdl\middleware\ble/cy_ble_clk.c ****     cy_en_ble_eco_status_t status = CY_BLE_ECO_SUCCESS;
 141:Generated_Source\PSoC6\pdl\middleware\ble/cy_ble_clk.c ****     uint32_t timeout = CY_BLE_RCB_TIMEOUT;
 142:Generated_Source\PSoC6\pdl\middleware\ble/cy_ble_clk.c ****     uint32_t temp = (uint32_t)((0x8000UL | addr) << 16u);
  41              		.loc 1 142 0
  42 0004 40F40040 		orr	r0, r0, #32768
  43              	.LVL2:
  44 0008 0004     		lsls	r0, r0, #16
  45              	.LVL3:
 143:Generated_Source\PSoC6\pdl\middleware\ble/cy_ble_clk.c **** 
 144:Generated_Source\PSoC6\pdl\middleware\ble/cy_ble_clk.c ****     /* Write Address to the RCB */
 145:Generated_Source\PSoC6\pdl\middleware\ble/cy_ble_clk.c ****     BLE->RCB.TX_FIFO_WR = temp;
  46              		.loc 1 145 0
  47 000a 0E4B     		ldr	r3, .L8
  48 000c D861     		str	r0, [r3, #28]
 141:Generated_Source\PSoC6\pdl\middleware\ble/cy_ble_clk.c ****     uint32_t temp = (uint32_t)((0x8000UL | addr) << 16u);
  49              		.loc 1 141 0
  50 000e 4FF47A74 		mov	r4, #1000
 146:Generated_Source\PSoC6\pdl\middleware\ble/cy_ble_clk.c **** 
 147:Generated_Source\PSoC6\pdl\middleware\ble/cy_ble_clk.c ****     /* Wait for Data. */
 148:Generated_Source\PSoC6\pdl\middleware\ble/cy_ble_clk.c ****     while(((BLE->RCB.INTR & BLE_RCB_INTR_RCB_DONE_Msk) == 0u) && (timeout > 0u))
  51              		.loc 1 148 0
  52 0012 03E0     		b	.L2
  53              	.LVL4:
  54              	.L4:
 149:Generated_Source\PSoC6\pdl\middleware\ble/cy_ble_clk.c ****     {
 150:Generated_Source\PSoC6\pdl\middleware\ble/cy_ble_clk.c ****         timeout--;
  55              		.loc 1 150 0
  56 0014 013C     		subs	r4, r4, #1
  57              	.LVL5:
 151:Generated_Source\PSoC6\pdl\middleware\ble/cy_ble_clk.c ****         Cy_SysLib_DelayUs(CY_BLE_DELAY_TIME);
  58              		.loc 1 151 0
  59 0016 0120     		movs	r0, #1
  60 0018 FFF7FEFF 		bl	Cy_SysLib_DelayUs
  61              	.LVL6:
  62              	.L2:
 148:Generated_Source\PSoC6\pdl\middleware\ble/cy_ble_clk.c ****     {
  63              		.loc 1 148 0
  64 001c 094B     		ldr	r3, .L8
  65 001e 1B6C     		ldr	r3, [r3, #64]
  66 0020 13F0010F 		tst	r3, #1
  67 0024 01D1     		bne	.L3
 148:Generated_Source\PSoC6\pdl\middleware\ble/cy_ble_clk.c ****     {
  68              		.loc 1 148 0 is_stmt 0 discriminator 1
  69 0026 002C     		cmp	r4, #0
  70 0028 F4D1     		bne	.L4
  71              	.L3:
 152:Generated_Source\PSoC6\pdl\middleware\ble/cy_ble_clk.c ****     }
 153:Generated_Source\PSoC6\pdl\middleware\ble/cy_ble_clk.c **** 
 154:Generated_Source\PSoC6\pdl\middleware\ble/cy_ble_clk.c ****     if(timeout > 0u)
ARM GAS  C:\Users\kiwamu\AppData\Local\Temp\ccJm7GL2.s 			page 5


  72              		.loc 1 154 0 is_stmt 1
  73 002a 44B1     		cbz	r4, .L6
 155:Generated_Source\PSoC6\pdl\middleware\ble/cy_ble_clk.c ****     {
 156:Generated_Source\PSoC6\pdl\middleware\ble/cy_ble_clk.c ****         BLE->RCB.INTR |= BLE_RCB_INTR_RCB_DONE_Msk;
  74              		.loc 1 156 0
  75 002c 054B     		ldr	r3, .L8
  76 002e 1A6C     		ldr	r2, [r3, #64]
  77 0030 42F00102 		orr	r2, r2, #1
  78 0034 1A64     		str	r2, [r3, #64]
 157:Generated_Source\PSoC6\pdl\middleware\ble/cy_ble_clk.c ****         *data = (uint16_t)BLE->RCB.RX_FIFO_RD;
  79              		.loc 1 157 0
  80 0036 DB6A     		ldr	r3, [r3, #44]
  81 0038 2B80     		strh	r3, [r5]	@ movhi
 140:Generated_Source\PSoC6\pdl\middleware\ble/cy_ble_clk.c ****     uint32_t timeout = CY_BLE_RCB_TIMEOUT;
  82              		.loc 1 140 0
  83 003a 0020     		movs	r0, #0
  84 003c 38BD     		pop	{r3, r4, r5, pc}
  85              	.LVL7:
  86              	.L6:
 158:Generated_Source\PSoC6\pdl\middleware\ble/cy_ble_clk.c ****     }
 159:Generated_Source\PSoC6\pdl\middleware\ble/cy_ble_clk.c ****     else
 160:Generated_Source\PSoC6\pdl\middleware\ble/cy_ble_clk.c ****     {
 161:Generated_Source\PSoC6\pdl\middleware\ble/cy_ble_clk.c ****         status = CY_BLE_ECO_HARDWARE_ERROR;
  87              		.loc 1 161 0
  88 003e 0248     		ldr	r0, .L8+4
  89              	.LVL8:
 162:Generated_Source\PSoC6\pdl\middleware\ble/cy_ble_clk.c ****     }
 163:Generated_Source\PSoC6\pdl\middleware\ble/cy_ble_clk.c **** 
 164:Generated_Source\PSoC6\pdl\middleware\ble/cy_ble_clk.c ****     return(status);
 165:Generated_Source\PSoC6\pdl\middleware\ble/cy_ble_clk.c **** }
  90              		.loc 1 165 0
  91 0040 38BD     		pop	{r3, r4, r5, pc}
  92              	.LVL9:
  93              	.L9:
  94 0042 00BF     		.align	2
  95              	.L8:
  96 0044 00003C40 		.word	1077673984
  97 0048 04001600 		.word	1441796
  98              		.cfi_endproc
  99              	.LFE271:
 100              		.size	Cy_BLE_HalRcbRegRead, .-Cy_BLE_HalRcbRegRead
 101              		.section	.text.Cy_BLE_HalRcbRegWrite,"ax",%progbits
 102              		.align	2
 103              		.thumb
 104              		.thumb_func
 105              		.type	Cy_BLE_HalRcbRegWrite, %function
 106              	Cy_BLE_HalRcbRegWrite:
 107              	.LFB272:
 166:Generated_Source\PSoC6\pdl\middleware\ble/cy_ble_clk.c **** 
 167:Generated_Source\PSoC6\pdl\middleware\ble/cy_ble_clk.c **** 
 168:Generated_Source\PSoC6\pdl\middleware\ble/cy_ble_clk.c **** /*******************************************************************************
 169:Generated_Source\PSoC6\pdl\middleware\ble/cy_ble_clk.c **** * Function Name: Cy_BLE_HalRcbRegWrite
 170:Generated_Source\PSoC6\pdl\middleware\ble/cy_ble_clk.c **** ****************************************************************************//**
 171:Generated_Source\PSoC6\pdl\middleware\ble/cy_ble_clk.c **** *
 172:Generated_Source\PSoC6\pdl\middleware\ble/cy_ble_clk.c **** *  Writes Radio register.
 173:Generated_Source\PSoC6\pdl\middleware\ble/cy_ble_clk.c **** *
 174:Generated_Source\PSoC6\pdl\middleware\ble/cy_ble_clk.c **** *  \param addr: Register address.
ARM GAS  C:\Users\kiwamu\AppData\Local\Temp\ccJm7GL2.s 			page 6


 175:Generated_Source\PSoC6\pdl\middleware\ble/cy_ble_clk.c **** *  \param data: Register data.
 176:Generated_Source\PSoC6\pdl\middleware\ble/cy_ble_clk.c **** *
 177:Generated_Source\PSoC6\pdl\middleware\ble/cy_ble_clk.c **** *  \return
 178:Generated_Source\PSoC6\pdl\middleware\ble/cy_ble_clk.c **** *   CY_BLE_ECO_SUCCESS - On successful operation.
 179:Generated_Source\PSoC6\pdl\middleware\ble/cy_ble_clk.c **** *   CY_BLE_ECO_HARDWARE_ERROR - If RCB operation failed
 180:Generated_Source\PSoC6\pdl\middleware\ble/cy_ble_clk.c **** *
 181:Generated_Source\PSoC6\pdl\middleware\ble/cy_ble_clk.c **** *******************************************************************************/
 182:Generated_Source\PSoC6\pdl\middleware\ble/cy_ble_clk.c **** static cy_en_ble_eco_status_t Cy_BLE_HalRcbRegWrite(uint16_t addr, uint16_t data)
 183:Generated_Source\PSoC6\pdl\middleware\ble/cy_ble_clk.c **** {
 108              		.loc 1 183 0
 109              		.cfi_startproc
 110              		@ args = 0, pretend = 0, frame = 0
 111              		@ frame_needed = 0, uses_anonymous_args = 0
 112              	.LVL10:
 113 0000 10B5     		push	{r4, lr}
 114              		.cfi_def_cfa_offset 8
 115              		.cfi_offset 4, -8
 116              		.cfi_offset 14, -4
 117              	.LVL11:
 184:Generated_Source\PSoC6\pdl\middleware\ble/cy_ble_clk.c ****     cy_en_ble_eco_status_t status = CY_BLE_ECO_SUCCESS;
 185:Generated_Source\PSoC6\pdl\middleware\ble/cy_ble_clk.c ****     uint32_t timeout = CY_BLE_RCB_TIMEOUT;
 186:Generated_Source\PSoC6\pdl\middleware\ble/cy_ble_clk.c ****     uint32_t temp = ((uint32_t)((0x7FFFUL & addr) << 16u)) | data;
 118              		.loc 1 186 0
 119 0002 0F4B     		ldr	r3, .L17
 120 0004 03EA0040 		and	r0, r3, r0, lsl #16
 121              	.LVL12:
 122 0008 0143     		orrs	r1, r1, r0
 123              	.LVL13:
 187:Generated_Source\PSoC6\pdl\middleware\ble/cy_ble_clk.c **** 
 188:Generated_Source\PSoC6\pdl\middleware\ble/cy_ble_clk.c ****     BLE->RCB.TX_FIFO_WR = temp;
 124              		.loc 1 188 0
 125 000a 0E4A     		ldr	r2, .L17+4
 126 000c D161     		str	r1, [r2, #28]
 185:Generated_Source\PSoC6\pdl\middleware\ble/cy_ble_clk.c ****     uint32_t temp = ((uint32_t)((0x7FFFUL & addr) << 16u)) | data;
 127              		.loc 1 185 0
 128 000e 4FF47A74 		mov	r4, #1000
 189:Generated_Source\PSoC6\pdl\middleware\ble/cy_ble_clk.c **** 
 190:Generated_Source\PSoC6\pdl\middleware\ble/cy_ble_clk.c ****     /* Wait for RCB done. */
 191:Generated_Source\PSoC6\pdl\middleware\ble/cy_ble_clk.c ****     while(((BLE->RCB.INTR & BLE_RCB_INTR_RCB_DONE_Msk) == 0u) && (timeout > 0u))
 129              		.loc 1 191 0
 130 0012 03E0     		b	.L11
 131              	.LVL14:
 132              	.L13:
 192:Generated_Source\PSoC6\pdl\middleware\ble/cy_ble_clk.c ****     {
 193:Generated_Source\PSoC6\pdl\middleware\ble/cy_ble_clk.c ****         timeout--;
 133              		.loc 1 193 0
 134 0014 013C     		subs	r4, r4, #1
 135              	.LVL15:
 194:Generated_Source\PSoC6\pdl\middleware\ble/cy_ble_clk.c ****         Cy_SysLib_DelayUs(CY_BLE_DELAY_TIME);
 136              		.loc 1 194 0
 137 0016 0120     		movs	r0, #1
 138 0018 FFF7FEFF 		bl	Cy_SysLib_DelayUs
 139              	.LVL16:
 140              	.L11:
 191:Generated_Source\PSoC6\pdl\middleware\ble/cy_ble_clk.c ****     {
 141              		.loc 1 191 0
 142 001c 094B     		ldr	r3, .L17+4
ARM GAS  C:\Users\kiwamu\AppData\Local\Temp\ccJm7GL2.s 			page 7


 143 001e 1B6C     		ldr	r3, [r3, #64]
 144 0020 13F0010F 		tst	r3, #1
 145 0024 01D1     		bne	.L12
 191:Generated_Source\PSoC6\pdl\middleware\ble/cy_ble_clk.c ****     {
 146              		.loc 1 191 0 is_stmt 0 discriminator 1
 147 0026 002C     		cmp	r4, #0
 148 0028 F4D1     		bne	.L13
 149              	.L12:
 195:Generated_Source\PSoC6\pdl\middleware\ble/cy_ble_clk.c ****     }
 196:Generated_Source\PSoC6\pdl\middleware\ble/cy_ble_clk.c **** 
 197:Generated_Source\PSoC6\pdl\middleware\ble/cy_ble_clk.c ****     if(timeout > 0u)
 150              		.loc 1 197 0 is_stmt 1
 151 002a 34B1     		cbz	r4, .L15
 198:Generated_Source\PSoC6\pdl\middleware\ble/cy_ble_clk.c ****     {
 199:Generated_Source\PSoC6\pdl\middleware\ble/cy_ble_clk.c ****         BLE->RCB.INTR |= BLE_RCB_INTR_RCB_DONE_Msk;
 152              		.loc 1 199 0
 153 002c 054A     		ldr	r2, .L17+4
 154 002e 136C     		ldr	r3, [r2, #64]
 155 0030 43F00103 		orr	r3, r3, #1
 156 0034 1364     		str	r3, [r2, #64]
 184:Generated_Source\PSoC6\pdl\middleware\ble/cy_ble_clk.c ****     uint32_t timeout = CY_BLE_RCB_TIMEOUT;
 157              		.loc 1 184 0
 158 0036 0020     		movs	r0, #0
 159 0038 10BD     		pop	{r4, pc}
 160              	.LVL17:
 161              	.L15:
 200:Generated_Source\PSoC6\pdl\middleware\ble/cy_ble_clk.c ****     }
 201:Generated_Source\PSoC6\pdl\middleware\ble/cy_ble_clk.c ****     else
 202:Generated_Source\PSoC6\pdl\middleware\ble/cy_ble_clk.c ****     {
 203:Generated_Source\PSoC6\pdl\middleware\ble/cy_ble_clk.c ****         status = CY_BLE_ECO_HARDWARE_ERROR;
 162              		.loc 1 203 0
 163 003a 0348     		ldr	r0, .L17+8
 164              	.LVL18:
 204:Generated_Source\PSoC6\pdl\middleware\ble/cy_ble_clk.c ****     }
 205:Generated_Source\PSoC6\pdl\middleware\ble/cy_ble_clk.c ****     
 206:Generated_Source\PSoC6\pdl\middleware\ble/cy_ble_clk.c ****     return(status);
 207:Generated_Source\PSoC6\pdl\middleware\ble/cy_ble_clk.c **** }
 165              		.loc 1 207 0
 166 003c 10BD     		pop	{r4, pc}
 167              	.LVL19:
 168              	.L18:
 169 003e 00BF     		.align	2
 170              	.L17:
 171 0040 0000FF7F 		.word	2147418112
 172 0044 00003C40 		.word	1077673984
 173 0048 04001600 		.word	1441796
 174              		.cfi_endproc
 175              	.LFE272:
 176              		.size	Cy_BLE_HalRcbRegWrite, .-Cy_BLE_HalRcbRegWrite
 177              		.section	.text.Cy_BLE_HalMxdRadioEnableClocks,"ax",%progbits
 178              		.align	2
 179              		.thumb
 180              		.thumb_func
 181              		.type	Cy_BLE_HalMxdRadioEnableClocks, %function
 182              	Cy_BLE_HalMxdRadioEnableClocks:
 183              	.LFB274:
 208:Generated_Source\PSoC6\pdl\middleware\ble/cy_ble_clk.c **** 
ARM GAS  C:\Users\kiwamu\AppData\Local\Temp\ccJm7GL2.s 			page 8


 209:Generated_Source\PSoC6\pdl\middleware\ble/cy_ble_clk.c **** 
 210:Generated_Source\PSoC6\pdl\middleware\ble/cy_ble_clk.c **** /*******************************************************************************
 211:Generated_Source\PSoC6\pdl\middleware\ble/cy_ble_clk.c **** * Function Name: Cy_BLE_HalEcoSetTrim
 212:Generated_Source\PSoC6\pdl\middleware\ble/cy_ble_clk.c **** ****************************************************************************//**
 213:Generated_Source\PSoC6\pdl\middleware\ble/cy_ble_clk.c **** *
 214:Generated_Source\PSoC6\pdl\middleware\ble/cy_ble_clk.c **** *  Sets ECO trim value.
 215:Generated_Source\PSoC6\pdl\middleware\ble/cy_ble_clk.c **** *
 216:Generated_Source\PSoC6\pdl\middleware\ble/cy_ble_clk.c **** *  \param trim: Trim value.
 217:Generated_Source\PSoC6\pdl\middleware\ble/cy_ble_clk.c **** *
 218:Generated_Source\PSoC6\pdl\middleware\ble/cy_ble_clk.c **** *  \return
 219:Generated_Source\PSoC6\pdl\middleware\ble/cy_ble_clk.c **** *   CY_BLE_ECO_SUCCESS - On successful operation.
 220:Generated_Source\PSoC6\pdl\middleware\ble/cy_ble_clk.c **** *   CY_BLE_ECO_HARDWARE_ERROR - If RCB operation failed
 221:Generated_Source\PSoC6\pdl\middleware\ble/cy_ble_clk.c **** *
 222:Generated_Source\PSoC6\pdl\middleware\ble/cy_ble_clk.c **** *******************************************************************************/
 223:Generated_Source\PSoC6\pdl\middleware\ble/cy_ble_clk.c **** static cy_en_ble_eco_status_t Cy_BLE_HalEcoSetTrim(uint8_t trim)
 224:Generated_Source\PSoC6\pdl\middleware\ble/cy_ble_clk.c **** {
 225:Generated_Source\PSoC6\pdl\middleware\ble/cy_ble_clk.c ****     uint16_t reg = CY_BLE_RF_DCXO_CFG_REG_VALUE;
 226:Generated_Source\PSoC6\pdl\middleware\ble/cy_ble_clk.c ****     cy_en_ble_eco_status_t status;
 227:Generated_Source\PSoC6\pdl\middleware\ble/cy_ble_clk.c ****     
 228:Generated_Source\PSoC6\pdl\middleware\ble/cy_ble_clk.c ****     /* Load the new CAP TRIM value */
 229:Generated_Source\PSoC6\pdl\middleware\ble/cy_ble_clk.c ****     reg |= (uint16_t)((uint16_t)trim << CY_BLE_RF_DCXO_CFG_REG_DCXO_CAP_SHIFT);
 230:Generated_Source\PSoC6\pdl\middleware\ble/cy_ble_clk.c **** 
 231:Generated_Source\PSoC6\pdl\middleware\ble/cy_ble_clk.c ****     /* Write the new value to the register */
 232:Generated_Source\PSoC6\pdl\middleware\ble/cy_ble_clk.c ****     status = Cy_BLE_HalRcbRegWrite(CY_BLE_RF_DCXO_CFG_REG, reg);
 233:Generated_Source\PSoC6\pdl\middleware\ble/cy_ble_clk.c ****         
 234:Generated_Source\PSoC6\pdl\middleware\ble/cy_ble_clk.c ****     if(status == CY_BLE_ECO_SUCCESS)
 235:Generated_Source\PSoC6\pdl\middleware\ble/cy_ble_clk.c ****     {
 236:Generated_Source\PSoC6\pdl\middleware\ble/cy_ble_clk.c ****         /* Write the new value to the CFG2 register */
 237:Generated_Source\PSoC6\pdl\middleware\ble/cy_ble_clk.c ****         status = Cy_BLE_HalRcbRegWrite(CY_BLE_RF_DCXO_CFG2_REG, CY_BLE_RF_DCXO_CFG2_REG_VALUE);
 238:Generated_Source\PSoC6\pdl\middleware\ble/cy_ble_clk.c ****     }
 239:Generated_Source\PSoC6\pdl\middleware\ble/cy_ble_clk.c ****     
 240:Generated_Source\PSoC6\pdl\middleware\ble/cy_ble_clk.c ****     Cy_SysLib_DelayUs(500u);    
 241:Generated_Source\PSoC6\pdl\middleware\ble/cy_ble_clk.c ****     
 242:Generated_Source\PSoC6\pdl\middleware\ble/cy_ble_clk.c ****     return(status);
 243:Generated_Source\PSoC6\pdl\middleware\ble/cy_ble_clk.c **** }
 244:Generated_Source\PSoC6\pdl\middleware\ble/cy_ble_clk.c **** 
 245:Generated_Source\PSoC6\pdl\middleware\ble/cy_ble_clk.c **** 
 246:Generated_Source\PSoC6\pdl\middleware\ble/cy_ble_clk.c **** /*******************************************************************************
 247:Generated_Source\PSoC6\pdl\middleware\ble/cy_ble_clk.c **** * Function Name: Cy_BLE_HalMxdRadioEnableClocks
 248:Generated_Source\PSoC6\pdl\middleware\ble/cy_ble_clk.c **** ****************************************************************************//**
 249:Generated_Source\PSoC6\pdl\middleware\ble/cy_ble_clk.c **** *
 250:Generated_Source\PSoC6\pdl\middleware\ble/cy_ble_clk.c **** *  Enables and configures radio clock.
 251:Generated_Source\PSoC6\pdl\middleware\ble/cy_ble_clk.c **** *
 252:Generated_Source\PSoC6\pdl\middleware\ble/cy_ble_clk.c **** *  \param ecoConfig: Clock configuration of type 'cy_stc_ble_bless_eco_cfg_params_t'.
 253:Generated_Source\PSoC6\pdl\middleware\ble/cy_ble_clk.c **** *
 254:Generated_Source\PSoC6\pdl\middleware\ble/cy_ble_clk.c **** *  \return
 255:Generated_Source\PSoC6\pdl\middleware\ble/cy_ble_clk.c **** *   CY_BLE_ECO_SUCCESS - On successful operation.
 256:Generated_Source\PSoC6\pdl\middleware\ble/cy_ble_clk.c **** *   CY_BLE_ECO_HARDWARE_ERROR - If RCB operation failed
 257:Generated_Source\PSoC6\pdl\middleware\ble/cy_ble_clk.c **** *
 258:Generated_Source\PSoC6\pdl\middleware\ble/cy_ble_clk.c **** *******************************************************************************/
 259:Generated_Source\PSoC6\pdl\middleware\ble/cy_ble_clk.c **** static cy_en_ble_eco_status_t Cy_BLE_HalMxdRadioEnableClocks(const cy_stc_ble_bless_eco_cfg_params_
 260:Generated_Source\PSoC6\pdl\middleware\ble/cy_ble_clk.c **** {
 184              		.loc 1 260 0
 185              		.cfi_startproc
 186              		@ args = 0, pretend = 0, frame = 8
 187              		@ frame_needed = 0, uses_anonymous_args = 0
 188              	.LVL20:
ARM GAS  C:\Users\kiwamu\AppData\Local\Temp\ccJm7GL2.s 			page 9


 189 0000 70B5     		push	{r4, r5, r6, lr}
 190              		.cfi_def_cfa_offset 16
 191              		.cfi_offset 4, -16
 192              		.cfi_offset 5, -12
 193              		.cfi_offset 6, -8
 194              		.cfi_offset 14, -4
 195 0002 82B0     		sub	sp, sp, #8
 196              		.cfi_def_cfa_offset 24
 197 0004 0546     		mov	r5, r0
 198              	.LVL21:
 261:Generated_Source\PSoC6\pdl\middleware\ble/cy_ble_clk.c ****     uint16_t temp;
 262:Generated_Source\PSoC6\pdl\middleware\ble/cy_ble_clk.c ****     uint16_t blerdDivider;
 263:Generated_Source\PSoC6\pdl\middleware\ble/cy_ble_clk.c ****     uint16_t ecoSysDivider;
 264:Generated_Source\PSoC6\pdl\middleware\ble/cy_ble_clk.c ****     uint16_t blellDivider = 0u;
 265:Generated_Source\PSoC6\pdl\middleware\ble/cy_ble_clk.c ****     uint32_t retries = CY_BLE_RCB_RETRIES;
 199              		.loc 1 265 0
 200 0006 0A24     		movs	r4, #10
 201              	.LVL22:
 202              	.L23:
 266:Generated_Source\PSoC6\pdl\middleware\ble/cy_ble_clk.c ****     cy_en_ble_eco_status_t status;
 267:Generated_Source\PSoC6\pdl\middleware\ble/cy_ble_clk.c **** 
 268:Generated_Source\PSoC6\pdl\middleware\ble/cy_ble_clk.c ****     /* Deassert active domain reset and enable clock buffer in MXD Radio */
 269:Generated_Source\PSoC6\pdl\middleware\ble/cy_ble_clk.c ****     do
 270:Generated_Source\PSoC6\pdl\middleware\ble/cy_ble_clk.c ****     {
 271:Generated_Source\PSoC6\pdl\middleware\ble/cy_ble_clk.c ****         status = Cy_BLE_HalRcbRegWrite(CY_BLE_PMU_MODE_TRANSITION_REG, CY_BLE_MXD_RADIO_CLK_BUF_EN_
 203              		.loc 1 271 0
 204 0008 4FF4C051 		mov	r1, #6144
 205 000c 41F60260 		movw	r0, #7682
 206 0010 FFF7FEFF 		bl	Cy_BLE_HalRcbRegWrite
 207              	.LVL23:
 272:Generated_Source\PSoC6\pdl\middleware\ble/cy_ble_clk.c ****         if(status == CY_BLE_ECO_SUCCESS)
 208              		.loc 1 272 0
 209 0014 0346     		mov	r3, r0
 210 0016 30B9     		cbnz	r0, .L20
 273:Generated_Source\PSoC6\pdl\middleware\ble/cy_ble_clk.c ****         {
 274:Generated_Source\PSoC6\pdl\middleware\ble/cy_ble_clk.c ****             status = Cy_BLE_HalRcbRegRead(CY_BLE_PMU_MODE_TRANSITION_REG, &temp);
 211              		.loc 1 274 0
 212 0018 0DF10601 		add	r1, sp, #6
 213 001c 41F60260 		movw	r0, #7682
 214              	.LVL24:
 215 0020 FFF7FEFF 		bl	Cy_BLE_HalRcbRegRead
 216              	.LVL25:
 217 0024 0346     		mov	r3, r0
 218              	.LVL26:
 219              	.L20:
 275:Generated_Source\PSoC6\pdl\middleware\ble/cy_ble_clk.c ****         }
 276:Generated_Source\PSoC6\pdl\middleware\ble/cy_ble_clk.c ****         if(retries > 0u)
 220              		.loc 1 276 0
 221 0026 0CB1     		cbz	r4, .L34
 277:Generated_Source\PSoC6\pdl\middleware\ble/cy_ble_clk.c ****         {
 278:Generated_Source\PSoC6\pdl\middleware\ble/cy_ble_clk.c ****             retries--;
 222              		.loc 1 278 0
 223 0028 013C     		subs	r4, r4, #1
 224              	.LVL27:
 225 002a 00E0     		b	.L21
 226              	.L34:
 279:Generated_Source\PSoC6\pdl\middleware\ble/cy_ble_clk.c ****         }
ARM GAS  C:\Users\kiwamu\AppData\Local\Temp\ccJm7GL2.s 			page 10


 280:Generated_Source\PSoC6\pdl\middleware\ble/cy_ble_clk.c ****         else
 281:Generated_Source\PSoC6\pdl\middleware\ble/cy_ble_clk.c ****         {
 282:Generated_Source\PSoC6\pdl\middleware\ble/cy_ble_clk.c ****             status = CY_BLE_ECO_HARDWARE_ERROR;
 227              		.loc 1 282 0
 228 002c 3F4B     		ldr	r3, .L39
 229              	.L21:
 230              	.LVL28:
 283:Generated_Source\PSoC6\pdl\middleware\ble/cy_ble_clk.c ****         }
 284:Generated_Source\PSoC6\pdl\middleware\ble/cy_ble_clk.c ****     }
 285:Generated_Source\PSoC6\pdl\middleware\ble/cy_ble_clk.c ****     while((status == CY_BLE_ECO_SUCCESS) && (temp != CY_BLE_MXD_RADIO_CLK_BUF_EN_VAL));
 231              		.loc 1 285 0
 232 002e 23B9     		cbnz	r3, .L22
 233              		.loc 1 285 0 is_stmt 0 discriminator 1
 234 0030 BDF80620 		ldrh	r2, [sp, #6]
 235 0034 B2F5C05F 		cmp	r2, #6144
 236 0038 E6D1     		bne	.L23
 237              	.L22:
 286:Generated_Source\PSoC6\pdl\middleware\ble/cy_ble_clk.c **** 
 287:Generated_Source\PSoC6\pdl\middleware\ble/cy_ble_clk.c ****     /* Check if ECO clock output is enabled
 288:Generated_Source\PSoC6\pdl\middleware\ble/cy_ble_clk.c ****      * In MXD_VER2, ECO clock is stopped on overwriting this bit */
 289:Generated_Source\PSoC6\pdl\middleware\ble/cy_ble_clk.c ****     if(status == CY_BLE_ECO_SUCCESS)
 238              		.loc 1 289 0 is_stmt 1
 239 003a 3BBB     		cbnz	r3, .L24
 240              	.LVL29:
 290:Generated_Source\PSoC6\pdl\middleware\ble/cy_ble_clk.c ****     {
 291:Generated_Source\PSoC6\pdl\middleware\ble/cy_ble_clk.c ****         retries = CY_BLE_RCB_RETRIES;
 292:Generated_Source\PSoC6\pdl\middleware\ble/cy_ble_clk.c ****         status = Cy_BLE_HalRcbRegRead(CY_BLE_PMU_PMU_CTRL_REG, &temp);
 241              		.loc 1 292 0
 242 003c 0DF10601 		add	r1, sp, #6
 243 0040 41F60360 		movw	r0, #7683
 244 0044 FFF7FEFF 		bl	Cy_BLE_HalRcbRegRead
 245              	.LVL30:
 293:Generated_Source\PSoC6\pdl\middleware\ble/cy_ble_clk.c ****         if((status == CY_BLE_ECO_SUCCESS) && ((temp & CY_BLE_MXD_RADIO_DIG_CLK_OUT_EN_VAL) == 0u)) 
 246              		.loc 1 293 0
 247 0048 0346     		mov	r3, r0
 248 004a F8B9     		cbnz	r0, .L24
 249              		.loc 1 293 0 is_stmt 0 discriminator 1
 250 004c BDF80620 		ldrh	r2, [sp, #6]
 251 0050 02F48062 		and	r2, r2, #1024
 252 0054 92B2     		uxth	r2, r2
 253 0056 CAB9     		cbnz	r2, .L24
 254 0058 0A24     		movs	r4, #10
 255              	.LVL31:
 256              	.L27:
 294:Generated_Source\PSoC6\pdl\middleware\ble/cy_ble_clk.c ****         {
 295:Generated_Source\PSoC6\pdl\middleware\ble/cy_ble_clk.c ****             /* Enable digital ECO clock output from MXD Radio to BLESS */
 296:Generated_Source\PSoC6\pdl\middleware\ble/cy_ble_clk.c ****             do
 297:Generated_Source\PSoC6\pdl\middleware\ble/cy_ble_clk.c ****             {
 298:Generated_Source\PSoC6\pdl\middleware\ble/cy_ble_clk.c ****                 status = Cy_BLE_HalRcbRegWrite(CY_BLE_PMU_PMU_CTRL_REG, CY_BLE_MXD_RADIO_DIG_CLK_OU
 257              		.loc 1 298 0 is_stmt 1
 258 005a 4FF48061 		mov	r1, #1024
 259 005e 41F60360 		movw	r0, #7683
 260 0062 FFF7FEFF 		bl	Cy_BLE_HalRcbRegWrite
 261              	.LVL32:
 299:Generated_Source\PSoC6\pdl\middleware\ble/cy_ble_clk.c ****                 if(status == CY_BLE_ECO_SUCCESS)
 262              		.loc 1 299 0
 263 0066 0346     		mov	r3, r0
ARM GAS  C:\Users\kiwamu\AppData\Local\Temp\ccJm7GL2.s 			page 11


 264 0068 30B9     		cbnz	r0, .L25
 300:Generated_Source\PSoC6\pdl\middleware\ble/cy_ble_clk.c ****                 {
 301:Generated_Source\PSoC6\pdl\middleware\ble/cy_ble_clk.c ****                     status = Cy_BLE_HalRcbRegRead(CY_BLE_PMU_PMU_CTRL_REG, &temp);
 265              		.loc 1 301 0
 266 006a 0DF10601 		add	r1, sp, #6
 267 006e 41F60360 		movw	r0, #7683
 268              	.LVL33:
 269 0072 FFF7FEFF 		bl	Cy_BLE_HalRcbRegRead
 270              	.LVL34:
 271 0076 0346     		mov	r3, r0
 272              	.LVL35:
 273              	.L25:
 302:Generated_Source\PSoC6\pdl\middleware\ble/cy_ble_clk.c ****                 }
 303:Generated_Source\PSoC6\pdl\middleware\ble/cy_ble_clk.c ****                 if(retries > 0u)
 274              		.loc 1 303 0
 275 0078 0CB1     		cbz	r4, .L35
 304:Generated_Source\PSoC6\pdl\middleware\ble/cy_ble_clk.c ****                 {
 305:Generated_Source\PSoC6\pdl\middleware\ble/cy_ble_clk.c ****                     retries--;
 276              		.loc 1 305 0
 277 007a 013C     		subs	r4, r4, #1
 278              	.LVL36:
 279 007c 00E0     		b	.L26
 280              	.L35:
 306:Generated_Source\PSoC6\pdl\middleware\ble/cy_ble_clk.c ****                 }
 307:Generated_Source\PSoC6\pdl\middleware\ble/cy_ble_clk.c ****                 else
 308:Generated_Source\PSoC6\pdl\middleware\ble/cy_ble_clk.c ****                 {
 309:Generated_Source\PSoC6\pdl\middleware\ble/cy_ble_clk.c ****                     status = CY_BLE_ECO_HARDWARE_ERROR;
 281              		.loc 1 309 0
 282 007e 2B4B     		ldr	r3, .L39
 283              	.L26:
 284              	.LVL37:
 310:Generated_Source\PSoC6\pdl\middleware\ble/cy_ble_clk.c ****                 }
 311:Generated_Source\PSoC6\pdl\middleware\ble/cy_ble_clk.c ****             }
 312:Generated_Source\PSoC6\pdl\middleware\ble/cy_ble_clk.c ****             while((status == CY_BLE_ECO_SUCCESS) && (temp != CY_BLE_MXD_RADIO_DIG_CLK_OUT_EN_VAL));
 285              		.loc 1 312 0
 286 0080 23B9     		cbnz	r3, .L24
 287              		.loc 1 312 0 is_stmt 0 discriminator 1
 288 0082 BDF80620 		ldrh	r2, [sp, #6]
 289 0086 B2F5806F 		cmp	r2, #1024
 290 008a E6D1     		bne	.L27
 291              	.LVL38:
 292              	.L24:
 313:Generated_Source\PSoC6\pdl\middleware\ble/cy_ble_clk.c ****         }
 314:Generated_Source\PSoC6\pdl\middleware\ble/cy_ble_clk.c ****     }
 315:Generated_Source\PSoC6\pdl\middleware\ble/cy_ble_clk.c **** 
 316:Generated_Source\PSoC6\pdl\middleware\ble/cy_ble_clk.c ****     /* Configure ECO clock frequency and clock divider in MXD Radio */
 317:Generated_Source\PSoC6\pdl\middleware\ble/cy_ble_clk.c ****     if(status == CY_BLE_ECO_SUCCESS)
 293              		.loc 1 317 0 is_stmt 1
 294 008c 33B9     		cbnz	r3, .L28
 318:Generated_Source\PSoC6\pdl\middleware\ble/cy_ble_clk.c ****     {
 319:Generated_Source\PSoC6\pdl\middleware\ble/cy_ble_clk.c ****         /* Read the MXD Radio register */
 320:Generated_Source\PSoC6\pdl\middleware\ble/cy_ble_clk.c ****         status = Cy_BLE_HalRcbRegRead(CY_BLE_RF_DCXO_BUF_CFG_REG, &temp);
 295              		.loc 1 320 0
 296 008e 0DF10601 		add	r1, sp, #6
 297 0092 41F60960 		movw	r0, #7689
 298 0096 FFF7FEFF 		bl	Cy_BLE_HalRcbRegRead
 299              	.LVL39:
ARM GAS  C:\Users\kiwamu\AppData\Local\Temp\ccJm7GL2.s 			page 12


 300 009a 0346     		mov	r3, r0
 301              	.LVL40:
 302              	.L28:
 321:Generated_Source\PSoC6\pdl\middleware\ble/cy_ble_clk.c ****     }
 322:Generated_Source\PSoC6\pdl\middleware\ble/cy_ble_clk.c ****     if(status == CY_BLE_ECO_SUCCESS)
 303              		.loc 1 322 0
 304 009c 002B     		cmp	r3, #0
 305 009e 41D1     		bne	.L29
 323:Generated_Source\PSoC6\pdl\middleware\ble/cy_ble_clk.c ****     {
 324:Generated_Source\PSoC6\pdl\middleware\ble/cy_ble_clk.c ****         /* Clear clock divider and select amp buffer output bits */
 325:Generated_Source\PSoC6\pdl\middleware\ble/cy_ble_clk.c ****         temp &= CY_LO16(~((CY_BLE_RF_DCXO_BUF_CFG_REG_CLK_DIV_MASK << CY_BLE_RF_DCXO_BUF_CFG_REG_CL
 306              		.loc 1 325 0
 307 00a0 BDF80630 		ldrh	r3, [sp, #6]
 308              	.LVL41:
 309 00a4 23F03F03 		bic	r3, r3, #63
 310 00a8 9BB2     		uxth	r3, r3
 326:Generated_Source\PSoC6\pdl\middleware\ble/cy_ble_clk.c ****                           (CY_BLE_RF_DCXO_BUF_CFG_REG_BUF_AMP_SEL_MASK << CY_BLE_RF_DCXO_BUF_CFG_RE
 327:Generated_Source\PSoC6\pdl\middleware\ble/cy_ble_clk.c **** 
 328:Generated_Source\PSoC6\pdl\middleware\ble/cy_ble_clk.c ****         /* Total ECO divider consist of divider located on BLERD and BLESS divider
 329:Generated_Source\PSoC6\pdl\middleware\ble/cy_ble_clk.c ****          * Set BLERD divider to maximum value taking in to account that 8 Mhz is required for BLELL
 330:Generated_Source\PSoC6\pdl\middleware\ble/cy_ble_clk.c ****          * BLELL clock frequency is set to 8Mhz irrespective of the crystal value.
 331:Generated_Source\PSoC6\pdl\middleware\ble/cy_ble_clk.c ****          */
 332:Generated_Source\PSoC6\pdl\middleware\ble/cy_ble_clk.c ****         if(ecoConfig->ecoFreq == CY_BLE_BLESS_ECO_FREQ_32MHZ)
 311              		.loc 1 332 0
 312 00aa AA78     		ldrb	r2, [r5, #2]	@ zero_extendqisi2
 313 00ac 012A     		cmp	r2, #1
 314 00ae 12D1     		bne	.L30
 333:Generated_Source\PSoC6\pdl\middleware\ble/cy_ble_clk.c ****         {
 334:Generated_Source\PSoC6\pdl\middleware\ble/cy_ble_clk.c ****             if(ecoConfig->ecoSysDiv >= CY_BLE_SYS_ECO_CLK_DIV_4)
 315              		.loc 1 334 0
 316 00b0 EA78     		ldrb	r2, [r5, #3]	@ zero_extendqisi2
 317 00b2 012A     		cmp	r2, #1
 318 00b4 04D8     		bhi	.L36
 335:Generated_Source\PSoC6\pdl\middleware\ble/cy_ble_clk.c ****             {
 336:Generated_Source\PSoC6\pdl\middleware\ble/cy_ble_clk.c ****                 blerdDivider = (uint16_t)CY_BLE_MXD_RADIO_CLK_DIV_4;
 337:Generated_Source\PSoC6\pdl\middleware\ble/cy_ble_clk.c ****             }
 338:Generated_Source\PSoC6\pdl\middleware\ble/cy_ble_clk.c ****             else
 339:Generated_Source\PSoC6\pdl\middleware\ble/cy_ble_clk.c ****             {
 340:Generated_Source\PSoC6\pdl\middleware\ble/cy_ble_clk.c ****                 blerdDivider = (uint16_t)ecoConfig->ecoSysDiv;
 319              		.loc 1 340 0
 320 00b6 96B2     		uxth	r6, r2
 321              	.LVL42:
 341:Generated_Source\PSoC6\pdl\middleware\ble/cy_ble_clk.c ****                 blellDivider = (uint16_t)CY_BLE_MXD_RADIO_CLK_DIV_4 - blerdDivider;
 322              		.loc 1 341 0
 323 00b8 C6F10204 		rsb	r4, r6, #2
 324 00bc A4B2     		uxth	r4, r4
 325              	.LVL43:
 326 00be 01E0     		b	.L31
 327              	.LVL44:
 328              	.L36:
 264:Generated_Source\PSoC6\pdl\middleware\ble/cy_ble_clk.c ****     uint32_t retries = CY_BLE_RCB_RETRIES;
 329              		.loc 1 264 0
 330 00c0 0024     		movs	r4, #0
 336:Generated_Source\PSoC6\pdl\middleware\ble/cy_ble_clk.c ****             }
 331              		.loc 1 336 0
 332 00c2 0226     		movs	r6, #2
 333              	.LVL45:
ARM GAS  C:\Users\kiwamu\AppData\Local\Temp\ccJm7GL2.s 			page 13


 334              	.L31:
 342:Generated_Source\PSoC6\pdl\middleware\ble/cy_ble_clk.c ****             }
 343:Generated_Source\PSoC6\pdl\middleware\ble/cy_ble_clk.c ****             temp |= CY_BLE_RF_DCXO_BUF_CFG_REG_XTAL_32M_SEL_BIT;
 344:Generated_Source\PSoC6\pdl\middleware\ble/cy_ble_clk.c ****             temp |= (uint16_t)(CY_BLE_MXD_RADIO_CLK_BUF_AMP_32M_LARGE << CY_BLE_RF_DCXO_BUF_CFG_REG
 335              		.loc 1 344 0
 336 00c4 43F07003 		orr	r3, r3, #112
 337 00c8 ADF80630 		strh	r3, [sp, #6]	@ movhi
 345:Generated_Source\PSoC6\pdl\middleware\ble/cy_ble_clk.c **** 
 346:Generated_Source\PSoC6\pdl\middleware\ble/cy_ble_clk.c ****             /* Update cy_BleEcoClockFreqHz for the proper Cy_SysLib_Delay functionality */
 347:Generated_Source\PSoC6\pdl\middleware\ble/cy_ble_clk.c ****             cy_BleEcoClockFreqHz = CY_BLE_DEFAULT_ECO_CLK_FREQ_32MHZ / (1UL << (uint16_t)ecoConfig-
 338              		.loc 1 347 0
 339 00cc 184B     		ldr	r3, .L39+4
 340 00ce D340     		lsrs	r3, r3, r2
 341 00d0 184A     		ldr	r2, .L39+8
 342 00d2 1360     		str	r3, [r2]
 343 00d4 12E0     		b	.L32
 344              	.LVL46:
 345              	.L30:
 348:Generated_Source\PSoC6\pdl\middleware\ble/cy_ble_clk.c ****         }
 349:Generated_Source\PSoC6\pdl\middleware\ble/cy_ble_clk.c ****         else
 350:Generated_Source\PSoC6\pdl\middleware\ble/cy_ble_clk.c ****         {
 351:Generated_Source\PSoC6\pdl\middleware\ble/cy_ble_clk.c ****             if(ecoConfig->ecoSysDiv >= CY_BLE_SYS_ECO_CLK_DIV_2)
 346              		.loc 1 351 0
 347 00d6 EA78     		ldrb	r2, [r5, #3]	@ zero_extendqisi2
 348 00d8 22B9     		cbnz	r2, .L37
 352:Generated_Source\PSoC6\pdl\middleware\ble/cy_ble_clk.c ****             {
 353:Generated_Source\PSoC6\pdl\middleware\ble/cy_ble_clk.c ****                 blerdDivider = (uint16_t)CY_BLE_MXD_RADIO_CLK_DIV_2;
 354:Generated_Source\PSoC6\pdl\middleware\ble/cy_ble_clk.c ****             }
 355:Generated_Source\PSoC6\pdl\middleware\ble/cy_ble_clk.c ****             else
 356:Generated_Source\PSoC6\pdl\middleware\ble/cy_ble_clk.c ****             {
 357:Generated_Source\PSoC6\pdl\middleware\ble/cy_ble_clk.c ****                 blerdDivider = (uint16_t)ecoConfig->ecoSysDiv;
 349              		.loc 1 357 0
 350 00da 96B2     		uxth	r6, r2
 351              	.LVL47:
 358:Generated_Source\PSoC6\pdl\middleware\ble/cy_ble_clk.c ****                 blellDivider = (uint16_t)CY_BLE_MXD_RADIO_CLK_DIV_2 - blerdDivider;
 352              		.loc 1 358 0
 353 00dc C6F10104 		rsb	r4, r6, #1
 354 00e0 A4B2     		uxth	r4, r4
 355              	.LVL48:
 356 00e2 01E0     		b	.L33
 357              	.LVL49:
 358              	.L37:
 264:Generated_Source\PSoC6\pdl\middleware\ble/cy_ble_clk.c ****     uint32_t retries = CY_BLE_RCB_RETRIES;
 359              		.loc 1 264 0
 360 00e4 0024     		movs	r4, #0
 353:Generated_Source\PSoC6\pdl\middleware\ble/cy_ble_clk.c ****             }
 361              		.loc 1 353 0
 362 00e6 0126     		movs	r6, #1
 363              	.LVL50:
 364              	.L33:
 359:Generated_Source\PSoC6\pdl\middleware\ble/cy_ble_clk.c ****             }
 360:Generated_Source\PSoC6\pdl\middleware\ble/cy_ble_clk.c ****             temp &= (uint16_t) ~CY_BLE_RF_DCXO_BUF_CFG_REG_XTAL_32M_SEL_BIT;
 365              		.loc 1 360 0
 366 00e8 23F04003 		bic	r3, r3, #64
 361:Generated_Source\PSoC6\pdl\middleware\ble/cy_ble_clk.c ****             temp |= (uint16_t)(CY_BLE_MXD_RADIO_CLK_BUF_AMP_16M_LARGE << CY_BLE_RF_DCXO_BUF_CFG_REG
 367              		.loc 1 361 0
 368 00ec 43F01003 		orr	r3, r3, #16
ARM GAS  C:\Users\kiwamu\AppData\Local\Temp\ccJm7GL2.s 			page 14


 369 00f0 ADF80630 		strh	r3, [sp, #6]	@ movhi
 362:Generated_Source\PSoC6\pdl\middleware\ble/cy_ble_clk.c **** 
 363:Generated_Source\PSoC6\pdl\middleware\ble/cy_ble_clk.c ****             /* Update cy_BleEcoClockFreqHz for the proper Cy_SysLib_Delay functionality */
 364:Generated_Source\PSoC6\pdl\middleware\ble/cy_ble_clk.c ****             cy_BleEcoClockFreqHz = CY_BLE_DEFAULT_ECO_CLK_FREQ_16MHZ / (1UL << (uint16_t)ecoConfig-
 370              		.loc 1 364 0
 371 00f4 104B     		ldr	r3, .L39+12
 372 00f6 D340     		lsrs	r3, r3, r2
 373 00f8 0E4A     		ldr	r2, .L39+8
 374 00fa 1360     		str	r3, [r2]
 375              	.L32:
 365:Generated_Source\PSoC6\pdl\middleware\ble/cy_ble_clk.c ****         }
 366:Generated_Source\PSoC6\pdl\middleware\ble/cy_ble_clk.c **** 
 367:Generated_Source\PSoC6\pdl\middleware\ble/cy_ble_clk.c ****         temp |= (uint16_t)(blerdDivider << CY_BLE_RF_DCXO_BUF_CFG_REG_CLK_DIV_SHIFT);
 376              		.loc 1 367 0
 377 00fc BDF80610 		ldrh	r1, [sp, #6]
 378 0100 3143     		orrs	r1, r1, r6
 379 0102 89B2     		uxth	r1, r1
 380 0104 ADF80610 		strh	r1, [sp, #6]	@ movhi
 368:Generated_Source\PSoC6\pdl\middleware\ble/cy_ble_clk.c ****         
 369:Generated_Source\PSoC6\pdl\middleware\ble/cy_ble_clk.c ****         /* Write the MXD Radio register */
 370:Generated_Source\PSoC6\pdl\middleware\ble/cy_ble_clk.c ****         status = Cy_BLE_HalRcbRegWrite(CY_BLE_RF_DCXO_BUF_CFG_REG, temp);
 381              		.loc 1 370 0
 382 0108 41F60960 		movw	r0, #7689
 383 010c FFF7FEFF 		bl	Cy_BLE_HalRcbRegWrite
 384              	.LVL51:
 385 0110 0346     		mov	r3, r0
 386              	.LVL52:
 371:Generated_Source\PSoC6\pdl\middleware\ble/cy_ble_clk.c ****         
 372:Generated_Source\PSoC6\pdl\middleware\ble/cy_ble_clk.c ****         /* Reduce BLESS divider by BLERD divider value */
 373:Generated_Source\PSoC6\pdl\middleware\ble/cy_ble_clk.c ****         ecoSysDivider = (uint16_t)ecoConfig->ecoSysDiv - blerdDivider;
 387              		.loc 1 373 0
 388 0112 EA78     		ldrb	r2, [r5, #3]	@ zero_extendqisi2
 389 0114 921B     		subs	r2, r2, r6
 390              	.LVL53:
 374:Generated_Source\PSoC6\pdl\middleware\ble/cy_ble_clk.c ****         temp = (uint16_t)(ecoSysDivider & BLE_BLESS_XTAL_CLK_DIV_CONFIG_SYSCLK_DIV_Msk);
 391              		.loc 1 374 0
 392 0116 02F00302 		and	r2, r2, #3
 393              	.LVL54:
 375:Generated_Source\PSoC6\pdl\middleware\ble/cy_ble_clk.c ****         temp |= (uint16_t)(blellDivider << BLE_BLESS_XTAL_CLK_DIV_CONFIG_LLCLK_DIV_Pos);
 394              		.loc 1 375 0
 395 011a A400     		lsls	r4, r4, #2
 396              	.LVL55:
 397 011c A4B2     		uxth	r4, r4
 398 011e 2243     		orrs	r2, r2, r4
 399              	.LVL56:
 376:Generated_Source\PSoC6\pdl\middleware\ble/cy_ble_clk.c **** 
 377:Generated_Source\PSoC6\pdl\middleware\ble/cy_ble_clk.c ****         /* Set clock divider */
 378:Generated_Source\PSoC6\pdl\middleware\ble/cy_ble_clk.c ****         BLE->BLESS.XTAL_CLK_DIV_CONFIG = temp;
 400              		.loc 1 378 0
 401 0120 0649     		ldr	r1, .L39+16
 402 0122 4A66     		str	r2, [r1, #100]
 403              	.LVL57:
 404              	.L29:
 379:Generated_Source\PSoC6\pdl\middleware\ble/cy_ble_clk.c ****     }
 380:Generated_Source\PSoC6\pdl\middleware\ble/cy_ble_clk.c ****     
 381:Generated_Source\PSoC6\pdl\middleware\ble/cy_ble_clk.c ****     return(status);
 382:Generated_Source\PSoC6\pdl\middleware\ble/cy_ble_clk.c **** }
ARM GAS  C:\Users\kiwamu\AppData\Local\Temp\ccJm7GL2.s 			page 15


 405              		.loc 1 382 0
 406 0124 1846     		mov	r0, r3
 407 0126 02B0     		add	sp, sp, #8
 408              		.cfi_def_cfa_offset 16
 409              		@ sp needed
 410 0128 70BD     		pop	{r4, r5, r6, pc}
 411              	.LVL58:
 412              	.L40:
 413 012a 00BF     		.align	2
 414              	.L39:
 415 012c 04001600 		.word	1441796
 416 0130 0048E801 		.word	32000000
 417 0134 00000000 		.word	cy_BleEcoClockFreqHz
 418 0138 0024F400 		.word	16000000
 419 013c 00F03D40 		.word	1077800960
 420              		.cfi_endproc
 421              	.LFE274:
 422              		.size	Cy_BLE_HalMxdRadioEnableClocks, .-Cy_BLE_HalMxdRadioEnableClocks
 423              		.section	.text.Cy_BLE_HalEcoSetTrim,"ax",%progbits
 424              		.align	2
 425              		.thumb
 426              		.thumb_func
 427              		.type	Cy_BLE_HalEcoSetTrim, %function
 428              	Cy_BLE_HalEcoSetTrim:
 429              	.LFB273:
 224:Generated_Source\PSoC6\pdl\middleware\ble/cy_ble_clk.c ****     uint16_t reg = CY_BLE_RF_DCXO_CFG_REG_VALUE;
 430              		.loc 1 224 0
 431              		.cfi_startproc
 432              		@ args = 0, pretend = 0, frame = 0
 433              		@ frame_needed = 0, uses_anonymous_args = 0
 434              	.LVL59:
 435 0000 10B5     		push	{r4, lr}
 436              		.cfi_def_cfa_offset 8
 437              		.cfi_offset 4, -8
 438              		.cfi_offset 14, -4
 439              	.LVL60:
 232:Generated_Source\PSoC6\pdl\middleware\ble/cy_ble_clk.c ****         
 440              		.loc 1 232 0
 441 0002 41F20101 		movw	r1, #4097
 442 0006 41EA4001 		orr	r1, r1, r0, lsl #1
 443 000a 41F60860 		movw	r0, #7688
 444              	.LVL61:
 445 000e FFF7FEFF 		bl	Cy_BLE_HalRcbRegWrite
 446              	.LVL62:
 234:Generated_Source\PSoC6\pdl\middleware\ble/cy_ble_clk.c ****     {
 447              		.loc 1 234 0
 448 0012 0446     		mov	r4, r0
 449 0014 30B9     		cbnz	r0, .L42
 237:Generated_Source\PSoC6\pdl\middleware\ble/cy_ble_clk.c ****     }
 450              		.loc 1 237 0
 451 0016 46F63701 		movw	r1, #26679
 452 001a 41F60F60 		movw	r0, #7695
 453              	.LVL63:
 454 001e FFF7FEFF 		bl	Cy_BLE_HalRcbRegWrite
 455              	.LVL64:
 456 0022 0446     		mov	r4, r0
 457              	.LVL65:
ARM GAS  C:\Users\kiwamu\AppData\Local\Temp\ccJm7GL2.s 			page 16


 458              	.L42:
 240:Generated_Source\PSoC6\pdl\middleware\ble/cy_ble_clk.c ****     
 459              		.loc 1 240 0
 460 0024 4FF4FA70 		mov	r0, #500
 461              	.LVL66:
 462 0028 FFF7FEFF 		bl	Cy_SysLib_DelayUs
 463              	.LVL67:
 243:Generated_Source\PSoC6\pdl\middleware\ble/cy_ble_clk.c **** 
 464              		.loc 1 243 0
 465 002c 2046     		mov	r0, r4
 466 002e 10BD     		pop	{r4, pc}
 467              		.cfi_endproc
 468              	.LFE273:
 469              		.size	Cy_BLE_HalEcoSetTrim, .-Cy_BLE_HalEcoSetTrim
 470              		.section	.text.Cy_BLE_HAL_IsEcoCpuClockSrc,"ax",%progbits
 471              		.align	2
 472              		.global	Cy_BLE_HAL_IsEcoCpuClockSrc
 473              		.thumb
 474              		.thumb_func
 475              		.type	Cy_BLE_HAL_IsEcoCpuClockSrc, %function
 476              	Cy_BLE_HAL_IsEcoCpuClockSrc:
 477              	.LFB268:
  45:Generated_Source\PSoC6\pdl\middleware\ble/cy_ble_clk.c ****     uint8_t returnVal = 0u;
 478              		.loc 1 45 0
 479              		.cfi_startproc
 480              		@ args = 0, pretend = 0, frame = 0
 481              		@ frame_needed = 0, uses_anonymous_args = 0
 482 0000 10B5     		push	{r4, lr}
 483              		.cfi_def_cfa_offset 8
 484              		.cfi_offset 4, -8
 485              		.cfi_offset 14, -4
 486              	.LVL68:
  49:Generated_Source\PSoC6\pdl\middleware\ble/cy_ble_clk.c ****     {
 487              		.loc 1 49 0
 488 0002 0024     		movs	r4, #0
 489 0004 05E0     		b	.L45
 490              	.LVL69:
 491              	.L47:
  51:Generated_Source\PSoC6\pdl\middleware\ble/cy_ble_clk.c ****         {
 492              		.loc 1 51 0
 493 0006 2046     		mov	r0, r4
 494 0008 FFF7FEFF 		bl	Cy_SysClk_ClkPathGetSource
 495              	.LVL70:
 496 000c 0328     		cmp	r0, #3
 497 000e 04D0     		beq	.L48
  49:Generated_Source\PSoC6\pdl\middleware\ble/cy_ble_clk.c ****     {
 498              		.loc 1 49 0 discriminator 2
 499 0010 0134     		adds	r4, r4, #1
 500              	.LVL71:
 501              	.L45:
  49:Generated_Source\PSoC6\pdl\middleware\ble/cy_ble_clk.c ****     {
 502              		.loc 1 49 0 is_stmt 0 discriminator 1
 503 0012 042C     		cmp	r4, #4
 504 0014 F7D9     		bls	.L47
  46:Generated_Source\PSoC6\pdl\middleware\ble/cy_ble_clk.c ****     uint32_t i;
 505              		.loc 1 46 0 is_stmt 1
 506 0016 0020     		movs	r0, #0
ARM GAS  C:\Users\kiwamu\AppData\Local\Temp\ccJm7GL2.s 			page 17


 507 0018 10BD     		pop	{r4, pc}
 508              	.LVL72:
 509              	.L48:
  53:Generated_Source\PSoC6\pdl\middleware\ble/cy_ble_clk.c ****             break;
 510              		.loc 1 53 0
 511 001a 0120     		movs	r0, #1
 512              	.LVL73:
  59:Generated_Source\PSoC6\pdl\middleware\ble/cy_ble_clk.c **** 
 513              		.loc 1 59 0
 514 001c 10BD     		pop	{r4, pc}
 515              		.cfi_endproc
 516              	.LFE268:
 517              		.size	Cy_BLE_HAL_IsEcoCpuClockSrc, .-Cy_BLE_HAL_IsEcoCpuClockSrc
 518 001e 00BF     		.section	.text.Cy_BLE_HAL_IsWcoLfclkSrc,"ax",%progbits
 519              		.align	2
 520              		.global	Cy_BLE_HAL_IsWcoLfclkSrc
 521              		.thumb
 522              		.thumb_func
 523              		.type	Cy_BLE_HAL_IsWcoLfclkSrc, %function
 524              	Cy_BLE_HAL_IsWcoLfclkSrc:
 525              	.LFB269:
  74:Generated_Source\PSoC6\pdl\middleware\ble/cy_ble_clk.c ****     cy_en_clklf_in_sources_t lfclkSrs;
 526              		.loc 1 74 0
 527              		.cfi_startproc
 528              		@ args = 0, pretend = 0, frame = 0
 529              		@ frame_needed = 0, uses_anonymous_args = 0
 530              		@ link register save eliminated.
 531              	.LBB17:
 532              	.LBB18:
 533              		.file 2 "Generated_Source\\PSoC6\\pdl\\drivers/peripheral/sysclk/cy_sysclk.h"
   1:Generated_Source\PSoC6\pdl\drivers/peripheral/sysclk/cy_sysclk.h **** /***************************************************************************//**
   2:Generated_Source\PSoC6\pdl\drivers/peripheral/sysclk/cy_sysclk.h **** * \file cy_sysclk.h
   3:Generated_Source\PSoC6\pdl\drivers/peripheral/sysclk/cy_sysclk.h **** * \version 1.10
   4:Generated_Source\PSoC6\pdl\drivers/peripheral/sysclk/cy_sysclk.h **** *
   5:Generated_Source\PSoC6\pdl\drivers/peripheral/sysclk/cy_sysclk.h **** * Provides an API declaration of the sysclk driver.
   6:Generated_Source\PSoC6\pdl\drivers/peripheral/sysclk/cy_sysclk.h **** *
   7:Generated_Source\PSoC6\pdl\drivers/peripheral/sysclk/cy_sysclk.h **** ********************************************************************************
   8:Generated_Source\PSoC6\pdl\drivers/peripheral/sysclk/cy_sysclk.h **** * \copyright
   9:Generated_Source\PSoC6\pdl\drivers/peripheral/sysclk/cy_sysclk.h **** * Copyright 2016-2017, Cypress Semiconductor Corporation. All rights reserved.
  10:Generated_Source\PSoC6\pdl\drivers/peripheral/sysclk/cy_sysclk.h **** * You may use this file only in accordance with the license, terms, conditions,
  11:Generated_Source\PSoC6\pdl\drivers/peripheral/sysclk/cy_sysclk.h **** * disclaimers, and limitations in the end user license agreement accompanying
  12:Generated_Source\PSoC6\pdl\drivers/peripheral/sysclk/cy_sysclk.h **** * the software package with which this file was provided.
  13:Generated_Source\PSoC6\pdl\drivers/peripheral/sysclk/cy_sysclk.h **** *******************************************************************************/
  14:Generated_Source\PSoC6\pdl\drivers/peripheral/sysclk/cy_sysclk.h **** 
  15:Generated_Source\PSoC6\pdl\drivers/peripheral/sysclk/cy_sysclk.h **** /**
  16:Generated_Source\PSoC6\pdl\drivers/peripheral/sysclk/cy_sysclk.h **** * \defgroup group_sysclk System Clock (SysClk)
  17:Generated_Source\PSoC6\pdl\drivers/peripheral/sysclk/cy_sysclk.h **** * \{
  18:Generated_Source\PSoC6\pdl\drivers/peripheral/sysclk/cy_sysclk.h **** * The System Clock (SysClk) driver contains the API for configuring system and
  19:Generated_Source\PSoC6\pdl\drivers/peripheral/sysclk/cy_sysclk.h **** * peripheral clocks. Firmware uses the API to configure , enable, or disable
  20:Generated_Source\PSoC6\pdl\drivers/peripheral/sysclk/cy_sysclk.h **** * a clock.
  21:Generated_Source\PSoC6\pdl\drivers/peripheral/sysclk/cy_sysclk.h **** * 
  22:Generated_Source\PSoC6\pdl\drivers/peripheral/sysclk/cy_sysclk.h **** * The PSoC 6 clock system includes a variety of resources that can vary per
  23:Generated_Source\PSoC6\pdl\drivers/peripheral/sysclk/cy_sysclk.h **** * device, including:
  24:Generated_Source\PSoC6\pdl\drivers/peripheral/sysclk/cy_sysclk.h **** * - Internal clock sources such as internal oscillators
  25:Generated_Source\PSoC6\pdl\drivers/peripheral/sysclk/cy_sysclk.h **** * - External clock sources such as crystal oscillators or a signal on an I/O pin
  26:Generated_Source\PSoC6\pdl\drivers/peripheral/sysclk/cy_sysclk.h **** * - Generated clocks such as an FLL, a PLL, and peripheral clocks
  27:Generated_Source\PSoC6\pdl\drivers/peripheral/sysclk/cy_sysclk.h **** *
ARM GAS  C:\Users\kiwamu\AppData\Local\Temp\ccJm7GL2.s 			page 18


  28:Generated_Source\PSoC6\pdl\drivers/peripheral/sysclk/cy_sysclk.h **** * Consult the Technical Reference Manual for your device for details of the 
  29:Generated_Source\PSoC6\pdl\drivers/peripheral/sysclk/cy_sysclk.h **** * clock system.
  30:Generated_Source\PSoC6\pdl\drivers/peripheral/sysclk/cy_sysclk.h **** *
  31:Generated_Source\PSoC6\pdl\drivers/peripheral/sysclk/cy_sysclk.h **** * The PDL defines clock system capabilities in:\n
  32:Generated_Source\PSoC6\pdl\drivers/peripheral/sysclk/cy_sysclk.h **** * devices\<family\>/<series\>/include\<series\>_config.h. For example\n
  33:Generated_Source\PSoC6\pdl\drivers/peripheral/sysclk/cy_sysclk.h **** * devices/psoc6/psoc63/include/psoc63_config.h. User-configurable clock speeds 
  34:Generated_Source\PSoC6\pdl\drivers/peripheral/sysclk/cy_sysclk.h **** * are defined in the file system_<series>.h.
  35:Generated_Source\PSoC6\pdl\drivers/peripheral/sysclk/cy_sysclk.h **** *
  36:Generated_Source\PSoC6\pdl\drivers/peripheral/sysclk/cy_sysclk.h **** * This diagram represents the PSoC 63 series clock tree. The actual tree
  37:Generated_Source\PSoC6\pdl\drivers/peripheral/sysclk/cy_sysclk.h **** * may vary based on series.
  38:Generated_Source\PSoC6\pdl\drivers/peripheral/sysclk/cy_sysclk.h **** * ![](sysclk_tree.png)
  39:Generated_Source\PSoC6\pdl\drivers/peripheral/sysclk/cy_sysclk.h **** *
  40:Generated_Source\PSoC6\pdl\drivers/peripheral/sysclk/cy_sysclk.h **** * In addition to the clocks shown on the diagram, this driver also supports
  41:Generated_Source\PSoC6\pdl\drivers/peripheral/sysclk/cy_sysclk.h **** * multiple peripheral clocks, as well as the fast clock, slow clock, backup
  42:Generated_Source\PSoC6\pdl\drivers/peripheral/sysclk/cy_sysclk.h **** * domain clock, timer clock, and pump clock. There are also functions for 
  43:Generated_Source\PSoC6\pdl\drivers/peripheral/sysclk/cy_sysclk.h **** * clock measurement and trimming.
  44:Generated_Source\PSoC6\pdl\drivers/peripheral/sysclk/cy_sysclk.h **** *
  45:Generated_Source\PSoC6\pdl\drivers/peripheral/sysclk/cy_sysclk.h **** * The API for any given clock contains the functions to manage that clock. These
  46:Generated_Source\PSoC6\pdl\drivers/peripheral/sysclk/cy_sysclk.h **** * functions may include:
  47:Generated_Source\PSoC6\pdl\drivers/peripheral/sysclk/cy_sysclk.h **** * - Enable or Disable
  48:Generated_Source\PSoC6\pdl\drivers/peripheral/sysclk/cy_sysclk.h **** * - Get or Set Source
  49:Generated_Source\PSoC6\pdl\drivers/peripheral/sysclk/cy_sysclk.h **** * - Get or Set Divider
  50:Generated_Source\PSoC6\pdl\drivers/peripheral/sysclk/cy_sysclk.h **** * - Configure
  51:Generated_Source\PSoC6\pdl\drivers/peripheral/sysclk/cy_sysclk.h **** *
  52:Generated_Source\PSoC6\pdl\drivers/peripheral/sysclk/cy_sysclk.h **** * In the API reference for this driver, most clocks have
  53:Generated_Source\PSoC6\pdl\drivers/peripheral/sysclk/cy_sysclk.h **** * a dedicated section, so the information to manage that clock is in one
  54:Generated_Source\PSoC6\pdl\drivers/peripheral/sysclk/cy_sysclk.h **** * place. Use the left navigation menu to locate the desired information.
  55:Generated_Source\PSoC6\pdl\drivers/peripheral/sysclk/cy_sysclk.h **** *
  56:Generated_Source\PSoC6\pdl\drivers/peripheral/sysclk/cy_sysclk.h **** * \section group_sysclk_configuration Configuration Considerations
  57:Generated_Source\PSoC6\pdl\drivers/peripheral/sysclk/cy_sysclk.h **** * There are no general SysClk configuration concerns. 
  58:Generated_Source\PSoC6\pdl\drivers/peripheral/sysclk/cy_sysclk.h **** * Some clocks (for example the PLL) require configuration. For such a clock the
  59:Generated_Source\PSoC6\pdl\drivers/peripheral/sysclk/cy_sysclk.h **** * API typically provides a Configure function to set up the clock. See notes on
  60:Generated_Source\PSoC6\pdl\drivers/peripheral/sysclk/cy_sysclk.h **** * individual function definitions.
  61:Generated_Source\PSoC6\pdl\drivers/peripheral/sysclk/cy_sysclk.h **** * \warning When the device is in the Ultra-Low Power (ULP) mode, the maximum
  62:Generated_Source\PSoC6\pdl\drivers/peripheral/sysclk/cy_sysclk.h **** * frequency of some clocks is reduced. See the device datasheet for details.
  63:Generated_Source\PSoC6\pdl\drivers/peripheral/sysclk/cy_sysclk.h **** *
  64:Generated_Source\PSoC6\pdl\drivers/peripheral/sysclk/cy_sysclk.h **** *
  65:Generated_Source\PSoC6\pdl\drivers/peripheral/sysclk/cy_sysclk.h **** * \section group_sysclk_more_information More Information
  66:Generated_Source\PSoC6\pdl\drivers/peripheral/sysclk/cy_sysclk.h **** * See the Clock Component datasheet. See also the Clocking System chapter of
  67:Generated_Source\PSoC6\pdl\drivers/peripheral/sysclk/cy_sysclk.h **** * the device technical reference manual (TRM).
  68:Generated_Source\PSoC6\pdl\drivers/peripheral/sysclk/cy_sysclk.h **** *
  69:Generated_Source\PSoC6\pdl\drivers/peripheral/sysclk/cy_sysclk.h **** * \section group_sysclk_MISRA MISRA-C Compliance
  70:Generated_Source\PSoC6\pdl\drivers/peripheral/sysclk/cy_sysclk.h **** * <table class="doxtable">
  71:Generated_Source\PSoC6\pdl\drivers/peripheral/sysclk/cy_sysclk.h **** *   <tr>
  72:Generated_Source\PSoC6\pdl\drivers/peripheral/sysclk/cy_sysclk.h **** *     <th>MISRA Rule</th>
  73:Generated_Source\PSoC6\pdl\drivers/peripheral/sysclk/cy_sysclk.h **** *     <th>Rule Class (Required/Advisory)</th>
  74:Generated_Source\PSoC6\pdl\drivers/peripheral/sysclk/cy_sysclk.h **** *     <th>Rule Description</th>
  75:Generated_Source\PSoC6\pdl\drivers/peripheral/sysclk/cy_sysclk.h **** *     <th>Description of Deviation(s)</th>
  76:Generated_Source\PSoC6\pdl\drivers/peripheral/sysclk/cy_sysclk.h **** *   </tr>
  77:Generated_Source\PSoC6\pdl\drivers/peripheral/sysclk/cy_sysclk.h **** *   <tr>
  78:Generated_Source\PSoC6\pdl\drivers/peripheral/sysclk/cy_sysclk.h **** *     <td>1.2</td>
  79:Generated_Source\PSoC6\pdl\drivers/peripheral/sysclk/cy_sysclk.h **** *     <td>R</td>
  80:Generated_Source\PSoC6\pdl\drivers/peripheral/sysclk/cy_sysclk.h **** *     <td>No reliance on undefined behavior.</td>
  81:Generated_Source\PSoC6\pdl\drivers/peripheral/sysclk/cy_sysclk.h **** *     <td>Calculation of an absolute value in the FLL and PLL configuration.</td>
  82:Generated_Source\PSoC6\pdl\drivers/peripheral/sysclk/cy_sysclk.h **** *   </tr>
  83:Generated_Source\PSoC6\pdl\drivers/peripheral/sysclk/cy_sysclk.h **** *   <tr>
  84:Generated_Source\PSoC6\pdl\drivers/peripheral/sysclk/cy_sysclk.h **** *     <td>5.6</td>
ARM GAS  C:\Users\kiwamu\AppData\Local\Temp\ccJm7GL2.s 			page 19


  85:Generated_Source\PSoC6\pdl\drivers/peripheral/sysclk/cy_sysclk.h **** *     <td>R</td>
  86:Generated_Source\PSoC6\pdl\drivers/peripheral/sysclk/cy_sysclk.h **** *     <td>No identifier in one name space should have the same spelling as an identifier in another
  87:Generated_Source\PSoC6\pdl\drivers/peripheral/sysclk/cy_sysclk.h **** *         exception of structure member and union member names.</td>
  88:Generated_Source\PSoC6\pdl\drivers/peripheral/sysclk/cy_sysclk.h **** *     <td>The "mode" and "retval" are used as a structure/union member they are a label, tag or ord
  89:Generated_Source\PSoC6\pdl\drivers/peripheral/sysclk/cy_sysclk.h **** *         identifier.</td>
  90:Generated_Source\PSoC6\pdl\drivers/peripheral/sysclk/cy_sysclk.h **** *   </tr>
  91:Generated_Source\PSoC6\pdl\drivers/peripheral/sysclk/cy_sysclk.h **** *   <tr>
  92:Generated_Source\PSoC6\pdl\drivers/peripheral/sysclk/cy_sysclk.h **** *     <td>10.1</td>
  93:Generated_Source\PSoC6\pdl\drivers/peripheral/sysclk/cy_sysclk.h **** *     <td>R</td>
  94:Generated_Source\PSoC6\pdl\drivers/peripheral/sysclk/cy_sysclk.h **** *     <td>The value of an expression of integer type shall not be implicitly converted to a differe
  95:Generated_Source\PSoC6\pdl\drivers/peripheral/sysclk/cy_sysclk.h **** *         if the expression is complex.</td>
  96:Generated_Source\PSoC6\pdl\drivers/peripheral/sysclk/cy_sysclk.h **** *     <td>Use of a Cypress defined macro to access memory mapped objects.
  97:Generated_Source\PSoC6\pdl\drivers/peripheral/sysclk/cy_sysclk.h **** *         Use of a Cypress defined macro to divide with rounding.</td>
  98:Generated_Source\PSoC6\pdl\drivers/peripheral/sysclk/cy_sysclk.h **** *   </tr>
  99:Generated_Source\PSoC6\pdl\drivers/peripheral/sysclk/cy_sysclk.h **** *   <tr>
 100:Generated_Source\PSoC6\pdl\drivers/peripheral/sysclk/cy_sysclk.h **** *     <td>10.2</td>
 101:Generated_Source\PSoC6\pdl\drivers/peripheral/sysclk/cy_sysclk.h **** *     <td>R</td>
 102:Generated_Source\PSoC6\pdl\drivers/peripheral/sysclk/cy_sysclk.h **** *     <td>The value of an expression of floating type shall not be implicitly converted to a differ
 103:Generated_Source\PSoC6\pdl\drivers/peripheral/sysclk/cy_sysclk.h **** *         a) it is not a conversion to a wider floating type, or
 104:Generated_Source\PSoC6\pdl\drivers/peripheral/sysclk/cy_sysclk.h **** *         b) the expression is complex, or
 105:Generated_Source\PSoC6\pdl\drivers/peripheral/sysclk/cy_sysclk.h **** *         c) the expression is a function argument, or
 106:Generated_Source\PSoC6\pdl\drivers/peripheral/sysclk/cy_sysclk.h **** *         d) the expression is a return expression.</td>
 107:Generated_Source\PSoC6\pdl\drivers/peripheral/sysclk/cy_sysclk.h **** *     <td>The operands of this relational operator are expressions of different "essential type" ca
 108:Generated_Source\PSoC6\pdl\drivers/peripheral/sysclk/cy_sysclk.h **** *         (enum and unsigned).</td>
 109:Generated_Source\PSoC6\pdl\drivers/peripheral/sysclk/cy_sysclk.h **** *   </tr>
 110:Generated_Source\PSoC6\pdl\drivers/peripheral/sysclk/cy_sysclk.h **** *   <tr>
 111:Generated_Source\PSoC6\pdl\drivers/peripheral/sysclk/cy_sysclk.h **** *     <td>10.3</td>
 112:Generated_Source\PSoC6\pdl\drivers/peripheral/sysclk/cy_sysclk.h **** *     <td>R</td>
 113:Generated_Source\PSoC6\pdl\drivers/peripheral/sysclk/cy_sysclk.h **** *     <td>A composite integer expression is being cast to a wider type.</td>
 114:Generated_Source\PSoC6\pdl\drivers/peripheral/sysclk/cy_sysclk.h **** *     <td>Use of a Cypress defined macro to access memory-mapped objects. Calculating the clock par
 115:Generated_Source\PSoC6\pdl\drivers/peripheral/sysclk/cy_sysclk.h **** *   </tr>
 116:Generated_Source\PSoC6\pdl\drivers/peripheral/sysclk/cy_sysclk.h **** *   <tr>
 117:Generated_Source\PSoC6\pdl\drivers/peripheral/sysclk/cy_sysclk.h **** *     <td>10.4</td>
 118:Generated_Source\PSoC6\pdl\drivers/peripheral/sysclk/cy_sysclk.h **** *     <td>R</td>
 119:Generated_Source\PSoC6\pdl\drivers/peripheral/sysclk/cy_sysclk.h **** *     <td>A composite floating point expression is being cast to double, or unsigned.</td>
 120:Generated_Source\PSoC6\pdl\drivers/peripheral/sysclk/cy_sysclk.h **** *     <td>Use of the C library sqrt() function. Casting a floating-point calculation result to an i
 121:Generated_Source\PSoC6\pdl\drivers/peripheral/sysclk/cy_sysclk.h **** *   </tr>
 122:Generated_Source\PSoC6\pdl\drivers/peripheral/sysclk/cy_sysclk.h **** *   <tr>
 123:Generated_Source\PSoC6\pdl\drivers/peripheral/sysclk/cy_sysclk.h **** *     <td>10.5</td>
 124:Generated_Source\PSoC6\pdl\drivers/peripheral/sysclk/cy_sysclk.h **** *     <td>R</td>
 125:Generated_Source\PSoC6\pdl\drivers/peripheral/sysclk/cy_sysclk.h **** *     <td>The value of an expression of integer type shall not be implicitly converted to a differe
 126:Generated_Source\PSoC6\pdl\drivers/peripheral/sysclk/cy_sysclk.h **** *         if the expression is complex.</td>
 127:Generated_Source\PSoC6\pdl\drivers/peripheral/sysclk/cy_sysclk.h **** *     <td>Use of a Cypress defined macro to access memory-mapped objects.</td>
 128:Generated_Source\PSoC6\pdl\drivers/peripheral/sysclk/cy_sysclk.h **** *   </tr>
 129:Generated_Source\PSoC6\pdl\drivers/peripheral/sysclk/cy_sysclk.h **** *   <tr>
 130:Generated_Source\PSoC6\pdl\drivers/peripheral/sysclk/cy_sysclk.h **** *     <td>12.1</td>
 131:Generated_Source\PSoC6\pdl\drivers/peripheral/sysclk/cy_sysclk.h **** *     <td>A</td>
 132:Generated_Source\PSoC6\pdl\drivers/peripheral/sysclk/cy_sysclk.h **** *     <td>Extra parentheses recommended.</td>
 133:Generated_Source\PSoC6\pdl\drivers/peripheral/sysclk/cy_sysclk.h **** *     <td>Ternary operator uses constants; extra parentheses not needed.</td>
 134:Generated_Source\PSoC6\pdl\drivers/peripheral/sysclk/cy_sysclk.h **** *   </tr>
 135:Generated_Source\PSoC6\pdl\drivers/peripheral/sysclk/cy_sysclk.h **** *   <tr>
 136:Generated_Source\PSoC6\pdl\drivers/peripheral/sysclk/cy_sysclk.h **** *     <td>12.2</td>
 137:Generated_Source\PSoC6\pdl\drivers/peripheral/sysclk/cy_sysclk.h **** *     <td>A</td>
 138:Generated_Source\PSoC6\pdl\drivers/peripheral/sysclk/cy_sysclk.h **** *     <td>The value of an expression must be the same under any order of evaluation that the standa
 139:Generated_Source\PSoC6\pdl\drivers/peripheral/sysclk/cy_sysclk.h **** *     <td>The "rtnval" is modified more than once between the sequence points - the evaluation orde
 140:Generated_Source\PSoC6\pdl\drivers/peripheral/sysclk/cy_sysclk.h **** *   </tr>
 141:Generated_Source\PSoC6\pdl\drivers/peripheral/sysclk/cy_sysclk.h **** *   <tr>
ARM GAS  C:\Users\kiwamu\AppData\Local\Temp\ccJm7GL2.s 			page 20


 142:Generated_Source\PSoC6\pdl\drivers/peripheral/sysclk/cy_sysclk.h **** *     <td>12.4</td>
 143:Generated_Source\PSoC6\pdl\drivers/peripheral/sysclk/cy_sysclk.h **** *     <td>A</td>
 144:Generated_Source\PSoC6\pdl\drivers/peripheral/sysclk/cy_sysclk.h **** *     <td>The right hand operand of a logical && or || operator shall not contain side effects.</td
 145:Generated_Source\PSoC6\pdl\drivers/peripheral/sysclk/cy_sysclk.h **** *     <td>No side effect in this case.</td>
 146:Generated_Source\PSoC6\pdl\drivers/peripheral/sysclk/cy_sysclk.h **** *   </tr>
 147:Generated_Source\PSoC6\pdl\drivers/peripheral/sysclk/cy_sysclk.h **** *   <tr>
 148:Generated_Source\PSoC6\pdl\drivers/peripheral/sysclk/cy_sysclk.h **** *     <td>13.4</td>
 149:Generated_Source\PSoC6\pdl\drivers/peripheral/sysclk/cy_sysclk.h **** *     <td>R</td>
 150:Generated_Source\PSoC6\pdl\drivers/peripheral/sysclk/cy_sysclk.h **** *     <td>The controlling expression of a for statement shall not contain any objects of floating t
 151:Generated_Source\PSoC6\pdl\drivers/peripheral/sysclk/cy_sysclk.h **** *     <td>Scanning through a list of floating point values.</td>
 152:Generated_Source\PSoC6\pdl\drivers/peripheral/sysclk/cy_sysclk.h **** *   </tr>
 153:Generated_Source\PSoC6\pdl\drivers/peripheral/sysclk/cy_sysclk.h **** *   <tr>
 154:Generated_Source\PSoC6\pdl\drivers/peripheral/sysclk/cy_sysclk.h **** *     <td>16.7</td>
 155:Generated_Source\PSoC6\pdl\drivers/peripheral/sysclk/cy_sysclk.h **** *     <td>R</td>
 156:Generated_Source\PSoC6\pdl\drivers/peripheral/sysclk/cy_sysclk.h **** *     <td>The object addressed by the pointer parameter is not modified and so the pointer could be
 157:Generated_Source\PSoC6\pdl\drivers/peripheral/sysclk/cy_sysclk.h **** *         type 'pointer to const'.</td>
 158:Generated_Source\PSoC6\pdl\drivers/peripheral/sysclk/cy_sysclk.h **** *     <td>The callback function for system power management (SysPm) must be of generic callback typ
 159:Generated_Source\PSoC6\pdl\drivers/peripheral/sysclk/cy_sysclk.h **** *         contains non-const pointer parameter.</td>
 160:Generated_Source\PSoC6\pdl\drivers/peripheral/sysclk/cy_sysclk.h **** *   </tr>
 161:Generated_Source\PSoC6\pdl\drivers/peripheral/sysclk/cy_sysclk.h **** *   <tr>
 162:Generated_Source\PSoC6\pdl\drivers/peripheral/sysclk/cy_sysclk.h **** *     <td>18.4</td>
 163:Generated_Source\PSoC6\pdl\drivers/peripheral/sysclk/cy_sysclk.h **** *     <td>R</td>
 164:Generated_Source\PSoC6\pdl\drivers/peripheral/sysclk/cy_sysclk.h **** *     <td>Unions shall not be used.</td>
 165:Generated_Source\PSoC6\pdl\drivers/peripheral/sysclk/cy_sysclk.h **** *     <td>The clock path in \ref Cy_SysClk_PeriphGetFrequency() uses either FLL or PLL.</td>
 166:Generated_Source\PSoC6\pdl\drivers/peripheral/sysclk/cy_sysclk.h **** *   </tr>
 167:Generated_Source\PSoC6\pdl\drivers/peripheral/sysclk/cy_sysclk.h **** *   <tr>
 168:Generated_Source\PSoC6\pdl\drivers/peripheral/sysclk/cy_sysclk.h **** *     <td>19.4</td>
 169:Generated_Source\PSoC6\pdl\drivers/peripheral/sysclk/cy_sysclk.h **** *     <td>R</td>
 170:Generated_Source\PSoC6\pdl\drivers/peripheral/sysclk/cy_sysclk.h **** *     <td>Macros shall only expand to a limited set of constructs.</td>
 171:Generated_Source\PSoC6\pdl\drivers/peripheral/sysclk/cy_sysclk.h **** *     <td>The macro CY_SYSCLK_CLR_SET uses a concatenate operation,
 172:Generated_Source\PSoC6\pdl\drivers/peripheral/sysclk/cy_sysclk.h **** *         so one of the macro parameters cannot be enclosed in parentheses.</td>
 173:Generated_Source\PSoC6\pdl\drivers/peripheral/sysclk/cy_sysclk.h **** *   </tr>
 174:Generated_Source\PSoC6\pdl\drivers/peripheral/sysclk/cy_sysclk.h **** * </table>
 175:Generated_Source\PSoC6\pdl\drivers/peripheral/sysclk/cy_sysclk.h **** *
 176:Generated_Source\PSoC6\pdl\drivers/peripheral/sysclk/cy_sysclk.h **** *
 177:Generated_Source\PSoC6\pdl\drivers/peripheral/sysclk/cy_sysclk.h **** * \section group_sysclk_changelog Changelog
 178:Generated_Source\PSoC6\pdl\drivers/peripheral/sysclk/cy_sysclk.h **** * <table class="doxtable">
 179:Generated_Source\PSoC6\pdl\drivers/peripheral/sysclk/cy_sysclk.h **** *   <tr><th>Version</th><th>Changes</th><th>Reason for Change</th></tr>
 180:Generated_Source\PSoC6\pdl\drivers/peripheral/sysclk/cy_sysclk.h **** *   <tr>
 181:Generated_Source\PSoC6\pdl\drivers/peripheral/sysclk/cy_sysclk.h **** *     <td>1.0</td>
 182:Generated_Source\PSoC6\pdl\drivers/peripheral/sysclk/cy_sysclk.h **** *     <td>Initial version</td>
 183:Generated_Source\PSoC6\pdl\drivers/peripheral/sysclk/cy_sysclk.h **** *     <td></td>
 184:Generated_Source\PSoC6\pdl\drivers/peripheral/sysclk/cy_sysclk.h **** *   </tr>
 185:Generated_Source\PSoC6\pdl\drivers/peripheral/sysclk/cy_sysclk.h **** * </table>
 186:Generated_Source\PSoC6\pdl\drivers/peripheral/sysclk/cy_sysclk.h **** *
 187:Generated_Source\PSoC6\pdl\drivers/peripheral/sysclk/cy_sysclk.h **** * \defgroup group_sysclk_macros           Macros
 188:Generated_Source\PSoC6\pdl\drivers/peripheral/sysclk/cy_sysclk.h **** * \{
 189:Generated_Source\PSoC6\pdl\drivers/peripheral/sysclk/cy_sysclk.h **** * \}
 190:Generated_Source\PSoC6\pdl\drivers/peripheral/sysclk/cy_sysclk.h **** * \defgroup group_sysclk_enums           General Enumerated Types
 191:Generated_Source\PSoC6\pdl\drivers/peripheral/sysclk/cy_sysclk.h **** * \{
 192:Generated_Source\PSoC6\pdl\drivers/peripheral/sysclk/cy_sysclk.h **** *   \defgroup group_sysclk_returns         Function return values
 193:Generated_Source\PSoC6\pdl\drivers/peripheral/sysclk/cy_sysclk.h **** * \}
 194:Generated_Source\PSoC6\pdl\drivers/peripheral/sysclk/cy_sysclk.h **** * \defgroup group_sysclk_eco             External Crystal Oscillator (ECO)
 195:Generated_Source\PSoC6\pdl\drivers/peripheral/sysclk/cy_sysclk.h **** * \{
 196:Generated_Source\PSoC6\pdl\drivers/peripheral/sysclk/cy_sysclk.h **** *   <p>The PSoC 6 BLE device contains an oscillator to drive an external 
 197:Generated_Source\PSoC6\pdl\drivers/peripheral/sysclk/cy_sysclk.h **** *   crystal. This clock source is built using an oscillator circuit
 198:Generated_Source\PSoC6\pdl\drivers/peripheral/sysclk/cy_sysclk.h **** *   in PSoC. The circuit employs an external crystal that must be populated on
ARM GAS  C:\Users\kiwamu\AppData\Local\Temp\ccJm7GL2.s 			page 21


 199:Generated_Source\PSoC6\pdl\drivers/peripheral/sysclk/cy_sysclk.h **** *   the external crystal pins of the PSoC. The ECO can be the source clock for
 200:Generated_Source\PSoC6\pdl\drivers/peripheral/sysclk/cy_sysclk.h **** *   any of the clock paths. See \ref group_sysclk_path_src.</p>
 201:Generated_Source\PSoC6\pdl\drivers/peripheral/sysclk/cy_sysclk.h **** *
 202:Generated_Source\PSoC6\pdl\drivers/peripheral/sysclk/cy_sysclk.h **** *   Use Cy_SysClk_EcoConfigure() to configure the ECO. Pass in the required
 203:Generated_Source\PSoC6\pdl\drivers/peripheral/sysclk/cy_sysclk.h **** *   parameters, there is no configuration structure. Use Cy_SysClk_ClkPathSetSource()
 204:Generated_Source\PSoC6\pdl\drivers/peripheral/sysclk/cy_sysclk.h **** *   to specify the clock path source as \ref CY_SYSCLK_CLKPATH_IN_ECO
 205:Generated_Source\PSoC6\pdl\drivers/peripheral/sysclk/cy_sysclk.h **** *
 206:Generated_Source\PSoC6\pdl\drivers/peripheral/sysclk/cy_sysclk.h **** *   \defgroup group_sysclk_eco_funcs       Functions
 207:Generated_Source\PSoC6\pdl\drivers/peripheral/sysclk/cy_sysclk.h **** * \}
 208:Generated_Source\PSoC6\pdl\drivers/peripheral/sysclk/cy_sysclk.h **** * \defgroup group_sysclk_path_src           Clock Path Source
 209:Generated_Source\PSoC6\pdl\drivers/peripheral/sysclk/cy_sysclk.h **** * \{
 210:Generated_Source\PSoC6\pdl\drivers/peripheral/sysclk/cy_sysclk.h **** *   <p>Use these functions to set or get the source clock for a clock path. A clock
 211:Generated_Source\PSoC6\pdl\drivers/peripheral/sysclk/cy_sysclk.h **** *   path can use the same or a different source clock as any other path. API
 212:Generated_Source\PSoC6\pdl\drivers/peripheral/sysclk/cy_sysclk.h **** *   functions set or get the source.</p>
 213:Generated_Source\PSoC6\pdl\drivers/peripheral/sysclk/cy_sysclk.h **** *
 214:Generated_Source\PSoC6\pdl\drivers/peripheral/sysclk/cy_sysclk.h **** *   <b>Clock path</b>: Path 0 is the FLL; path 1 is the PLL, path 2 is direct
 215:Generated_Source\PSoC6\pdl\drivers/peripheral/sysclk/cy_sysclk.h **** *   to the high-frequency clocks.
 216:Generated_Source\PSoC6\pdl\drivers/peripheral/sysclk/cy_sysclk.h **** *
 217:Generated_Source\PSoC6\pdl\drivers/peripheral/sysclk/cy_sysclk.h **** *   <b>Clock source</b>: Use constants enumerated in \ref cy_en_clkpath_in_sources_t
 218:Generated_Source\PSoC6\pdl\drivers/peripheral/sysclk/cy_sysclk.h **** *   to identify the source clock. The actual available clock paths and sources may 
 219:Generated_Source\PSoC6\pdl\drivers/peripheral/sysclk/cy_sysclk.h **** *   vary from the diagram.
 220:Generated_Source\PSoC6\pdl\drivers/peripheral/sysclk/cy_sysclk.h **** *   ![](sysclk_path_source.png)
 221:Generated_Source\PSoC6\pdl\drivers/peripheral/sysclk/cy_sysclk.h **** *
 222:Generated_Source\PSoC6\pdl\drivers/peripheral/sysclk/cy_sysclk.h **** *   \note The PDL driver cannot configure a clock path to use Digital Signal
 223:Generated_Source\PSoC6\pdl\drivers/peripheral/sysclk/cy_sysclk.h **** *   Interconnect (DSI) outputs as sources. This must be done through DSI
 224:Generated_Source\PSoC6\pdl\drivers/peripheral/sysclk/cy_sysclk.h **** *   configuration in PSoC Creator.
 225:Generated_Source\PSoC6\pdl\drivers/peripheral/sysclk/cy_sysclk.h **** *
 226:Generated_Source\PSoC6\pdl\drivers/peripheral/sysclk/cy_sysclk.h **** *   \defgroup group_sysclk_path_src_funcs     Functions
 227:Generated_Source\PSoC6\pdl\drivers/peripheral/sysclk/cy_sysclk.h **** *   \defgroup group_sysclk_path_src_enums     Enumerated Types
 228:Generated_Source\PSoC6\pdl\drivers/peripheral/sysclk/cy_sysclk.h **** * \}
 229:Generated_Source\PSoC6\pdl\drivers/peripheral/sysclk/cy_sysclk.h **** * \defgroup group_sysclk_fll             Frequency Locked Loop (FLL)
 230:Generated_Source\PSoC6\pdl\drivers/peripheral/sysclk/cy_sysclk.h **** * \{
 231:Generated_Source\PSoC6\pdl\drivers/peripheral/sysclk/cy_sysclk.h **** *   <p>The FLL generates a clock output based on the input frequency. Consult 
 232:Generated_Source\PSoC6\pdl\drivers/peripheral/sysclk/cy_sysclk.h **** *   device-specific documentation for the frequency ranges for your device. 
 233:Generated_Source\PSoC6\pdl\drivers/peripheral/sysclk/cy_sysclk.h **** *   The design makes it possible to use a lower
 234:Generated_Source\PSoC6\pdl\drivers/peripheral/sysclk/cy_sysclk.h **** *   frequency source, such as IMO, to generate higher clock frequencies
 235:Generated_Source\PSoC6\pdl\drivers/peripheral/sysclk/cy_sysclk.h **** *   for the rest of the system.</p>
 236:Generated_Source\PSoC6\pdl\drivers/peripheral/sysclk/cy_sysclk.h **** *
 237:Generated_Source\PSoC6\pdl\drivers/peripheral/sysclk/cy_sysclk.h **** *   The FLL is similar in purpose to a PLL but is not equivalent.
 238:Generated_Source\PSoC6\pdl\drivers/peripheral/sysclk/cy_sysclk.h **** *   - They may have different frequency ranges.
 239:Generated_Source\PSoC6\pdl\drivers/peripheral/sysclk/cy_sysclk.h **** *   - The FLL starts up (locks) faster and consumes less current than the PLL.
 240:Generated_Source\PSoC6\pdl\drivers/peripheral/sysclk/cy_sysclk.h **** *   - The FLL accepts a source clock with lower frequency than PLL, such as the WCO (32 KHz). 
 241:Generated_Source\PSoC6\pdl\drivers/peripheral/sysclk/cy_sysclk.h **** *   - The FLL does not lock phase. It is essentially a counter with a
 242:Generated_Source\PSoC6\pdl\drivers/peripheral/sysclk/cy_sysclk.h **** *   current-controlled oscillator (CCO). The counter counts the number of output
 243:Generated_Source\PSoC6\pdl\drivers/peripheral/sysclk/cy_sysclk.h **** *   clock edges in a reference clock period and adjusts the CCO until the
 244:Generated_Source\PSoC6\pdl\drivers/peripheral/sysclk/cy_sysclk.h **** *   expected ratio is achieved (locked). After initial lock, the CCO is
 245:Generated_Source\PSoC6\pdl\drivers/peripheral/sysclk/cy_sysclk.h **** *   adjusted dynamically to keep the ratio within tolerance. The lock tolerance
 246:Generated_Source\PSoC6\pdl\drivers/peripheral/sysclk/cy_sysclk.h **** *   is user-adjustable.
 247:Generated_Source\PSoC6\pdl\drivers/peripheral/sysclk/cy_sysclk.h **** *   ![](sysclk_fll.png)
 248:Generated_Source\PSoC6\pdl\drivers/peripheral/sysclk/cy_sysclk.h **** *
 249:Generated_Source\PSoC6\pdl\drivers/peripheral/sysclk/cy_sysclk.h **** *   Firmware configures the FLL using Cy_SysClk_FllConfigure(). Specify the input
 250:Generated_Source\PSoC6\pdl\drivers/peripheral/sysclk/cy_sysclk.h **** *   and output frequencies, and the output mode. See \ref cy_en_fll_pll_output_mode_t
 251:Generated_Source\PSoC6\pdl\drivers/peripheral/sysclk/cy_sysclk.h **** *   for output choices.
 252:Generated_Source\PSoC6\pdl\drivers/peripheral/sysclk/cy_sysclk.h **** *
 253:Generated_Source\PSoC6\pdl\drivers/peripheral/sysclk/cy_sysclk.h **** *   Alternatively, firmware can fill in values for the
 254:Generated_Source\PSoC6\pdl\drivers/peripheral/sysclk/cy_sysclk.h **** *   \ref cy_stc_fll_manual_config_t structure, and call Cy_SysClk_FllManualConfigure().
 255:Generated_Source\PSoC6\pdl\drivers/peripheral/sysclk/cy_sysclk.h **** *   This call provides precise control over the FLL configuration, such as the
ARM GAS  C:\Users\kiwamu\AppData\Local\Temp\ccJm7GL2.s 			page 22


 256:Generated_Source\PSoC6\pdl\drivers/peripheral/sysclk/cy_sysclk.h **** *   lock tolerance.
 257:Generated_Source\PSoC6\pdl\drivers/peripheral/sysclk/cy_sysclk.h **** *
 258:Generated_Source\PSoC6\pdl\drivers/peripheral/sysclk/cy_sysclk.h **** * See the Clocking System chapter of the device technical reference manual (TRM).
 259:Generated_Source\PSoC6\pdl\drivers/peripheral/sysclk/cy_sysclk.h **** *
 260:Generated_Source\PSoC6\pdl\drivers/peripheral/sysclk/cy_sysclk.h **** *   \defgroup group_sysclk_fll_funcs       Functions
 261:Generated_Source\PSoC6\pdl\drivers/peripheral/sysclk/cy_sysclk.h **** *   \defgroup group_sysclk_fll_structs     Data Structures
 262:Generated_Source\PSoC6\pdl\drivers/peripheral/sysclk/cy_sysclk.h **** *   \defgroup group_sysclk_fll_enums       Enumerated Types
 263:Generated_Source\PSoC6\pdl\drivers/peripheral/sysclk/cy_sysclk.h **** * \}
 264:Generated_Source\PSoC6\pdl\drivers/peripheral/sysclk/cy_sysclk.h **** * \defgroup group_sysclk_pll             Phase Locked Loop (PLL)
 265:Generated_Source\PSoC6\pdl\drivers/peripheral/sysclk/cy_sysclk.h **** * \{
 266:Generated_Source\PSoC6\pdl\drivers/peripheral/sysclk/cy_sysclk.h **** *   <p>The PLL generates a clock output based on the input frequency. Consult 
 267:Generated_Source\PSoC6\pdl\drivers/peripheral/sysclk/cy_sysclk.h **** *   device-specific documentation for the frequency ranges for your device. The 
 268:Generated_Source\PSoC6\pdl\drivers/peripheral/sysclk/cy_sysclk.h **** *   design makes it possible to use a lower frequency source, such as IMO, to 
 269:Generated_Source\PSoC6\pdl\drivers/peripheral/sysclk/cy_sysclk.h **** *   generate higher clock frequencies for the rest of the system. </p>
 270:Generated_Source\PSoC6\pdl\drivers/peripheral/sysclk/cy_sysclk.h **** *
 271:Generated_Source\PSoC6\pdl\drivers/peripheral/sysclk/cy_sysclk.h **** *   The PLL is similar in purpose to the FLL but is not equivalent.
 272:Generated_Source\PSoC6\pdl\drivers/peripheral/sysclk/cy_sysclk.h **** *   - They may have different frequency ranges.
 273:Generated_Source\PSoC6\pdl\drivers/peripheral/sysclk/cy_sysclk.h **** *   - The PLL starts up more slowly and consumes more current than the FLL.
 274:Generated_Source\PSoC6\pdl\drivers/peripheral/sysclk/cy_sysclk.h **** *   - The PLL requires a higher frequency source clock than PLL. 
 275:Generated_Source\PSoC6\pdl\drivers/peripheral/sysclk/cy_sysclk.h **** *   ![](sysclk_pll.png)
 276:Generated_Source\PSoC6\pdl\drivers/peripheral/sysclk/cy_sysclk.h **** *
 277:Generated_Source\PSoC6\pdl\drivers/peripheral/sysclk/cy_sysclk.h **** *   Firmware can configure the PLL using Cy_SysClk_PllConfigure(). Provide
 278:Generated_Source\PSoC6\pdl\drivers/peripheral/sysclk/cy_sysclk.h **** *   configuration values in a filled \ref cy_stc_pll_config_t structure. See
 279:Generated_Source\PSoC6\pdl\drivers/peripheral/sysclk/cy_sysclk.h **** *   \ref cy_en_fll_pll_output_mode_t for output choices.
 280:Generated_Source\PSoC6\pdl\drivers/peripheral/sysclk/cy_sysclk.h **** *
 281:Generated_Source\PSoC6\pdl\drivers/peripheral/sysclk/cy_sysclk.h **** *   Alternatively, firmware can fill in values for the \ref cy_stc_pll_manual_config_t
 282:Generated_Source\PSoC6\pdl\drivers/peripheral/sysclk/cy_sysclk.h **** *   structure, and call Cy_SysClk_PllManualConfigure().
 283:Generated_Source\PSoC6\pdl\drivers/peripheral/sysclk/cy_sysclk.h **** * 
 284:Generated_Source\PSoC6\pdl\drivers/peripheral/sysclk/cy_sysclk.h **** *   See the Clocking System chapter of the device technical reference manual (TRM).
 285:Generated_Source\PSoC6\pdl\drivers/peripheral/sysclk/cy_sysclk.h **** *
 286:Generated_Source\PSoC6\pdl\drivers/peripheral/sysclk/cy_sysclk.h **** *   \defgroup group_sysclk_pll_funcs       Functions
 287:Generated_Source\PSoC6\pdl\drivers/peripheral/sysclk/cy_sysclk.h **** *   \defgroup group_sysclk_pll_structs     Data Structures
 288:Generated_Source\PSoC6\pdl\drivers/peripheral/sysclk/cy_sysclk.h **** * \}
 289:Generated_Source\PSoC6\pdl\drivers/peripheral/sysclk/cy_sysclk.h **** * \defgroup group_sysclk_ilo             Internal Low-Speed Oscillator (ILO)
 290:Generated_Source\PSoC6\pdl\drivers/peripheral/sysclk/cy_sysclk.h **** * \{
 291:Generated_Source\PSoC6\pdl\drivers/peripheral/sysclk/cy_sysclk.h **** *   <p>The ILO operates with no external components and outputs a stable clock at
 292:Generated_Source\PSoC6\pdl\drivers/peripheral/sysclk/cy_sysclk.h **** *   32.768 kHz nominal. The ILO is relatively low power and low
 293:Generated_Source\PSoC6\pdl\drivers/peripheral/sysclk/cy_sysclk.h **** *   accuracy. The ILO is in the backup domain. It is available in all
 294:Generated_Source\PSoC6\pdl\drivers/peripheral/sysclk/cy_sysclk.h **** *   power modes. The ILO can be used as a source for the \ref group_sysclk_clk_lf.</p>
 295:Generated_Source\PSoC6\pdl\drivers/peripheral/sysclk/cy_sysclk.h **** *   ![](sysclk_backup.png)
 296:Generated_Source\PSoC6\pdl\drivers/peripheral/sysclk/cy_sysclk.h **** *
 297:Generated_Source\PSoC6\pdl\drivers/peripheral/sysclk/cy_sysclk.h **** *   The ILO is always the source clock for the \ref group_wdt. Therefore:
 298:Generated_Source\PSoC6\pdl\drivers/peripheral/sysclk/cy_sysclk.h **** *   - The WDT must be unlocked when making an ILO function call in the PDL
 299:Generated_Source\PSoC6\pdl\drivers/peripheral/sysclk/cy_sysclk.h **** *   - It is recommended to always have the ILO enabled
 300:Generated_Source\PSoC6\pdl\drivers/peripheral/sysclk/cy_sysclk.h **** *
 301:Generated_Source\PSoC6\pdl\drivers/peripheral/sysclk/cy_sysclk.h **** *   API functions enable or disable the clock. To ensure the ILO remains active
 302:Generated_Source\PSoC6\pdl\drivers/peripheral/sysclk/cy_sysclk.h **** *   in Hibernate mode, and across power-on-reset (POR) or brown out detect (BOD),
 303:Generated_Source\PSoC6\pdl\drivers/peripheral/sysclk/cy_sysclk.h **** *   firmware must call Cy_SysClk_IloHibernateOn() and pass in a Boolean TRUE. 
 304:Generated_Source\PSoC6\pdl\drivers/peripheral/sysclk/cy_sysclk.h **** *
 305:Generated_Source\PSoC6\pdl\drivers/peripheral/sysclk/cy_sysclk.h **** *   This clock can be trimmed. Firmware uses functions described in
 306:Generated_Source\PSoC6\pdl\drivers/peripheral/sysclk/cy_sysclk.h **** *   \ref group_sysclk_calclk to get the current clock frequency before trimming.
 307:Generated_Source\PSoC6\pdl\drivers/peripheral/sysclk/cy_sysclk.h **** *   Then call Cy_SysClk_IloTrim().
 308:Generated_Source\PSoC6\pdl\drivers/peripheral/sysclk/cy_sysclk.h **** *
 309:Generated_Source\PSoC6\pdl\drivers/peripheral/sysclk/cy_sysclk.h **** *   See the Clocking System chapter of the device technical reference manual (TRM).
 310:Generated_Source\PSoC6\pdl\drivers/peripheral/sysclk/cy_sysclk.h **** *
 311:Generated_Source\PSoC6\pdl\drivers/peripheral/sysclk/cy_sysclk.h **** *   \defgroup group_sysclk_ilo_funcs       Functions
 312:Generated_Source\PSoC6\pdl\drivers/peripheral/sysclk/cy_sysclk.h **** * \}
ARM GAS  C:\Users\kiwamu\AppData\Local\Temp\ccJm7GL2.s 			page 23


 313:Generated_Source\PSoC6\pdl\drivers/peripheral/sysclk/cy_sysclk.h **** * \defgroup group_sysclk_pilo            Precision Internal Low-Speed Oscillator (PILO)
 314:Generated_Source\PSoC6\pdl\drivers/peripheral/sysclk/cy_sysclk.h **** * \{
 315:Generated_Source\PSoC6\pdl\drivers/peripheral/sysclk/cy_sysclk.h **** *   <p>PILO provides a more accurate 32.768-kHz clock than \ref group_sysclk_ilo "ILO", when 
 316:Generated_Source\PSoC6\pdl\drivers/peripheral/sysclk/cy_sysclk.h **** *   periodically calibrated using a high-accuracy clock such as the
 317:Generated_Source\PSoC6\pdl\drivers/peripheral/sysclk/cy_sysclk.h **** *   \ref group_sysclk_eco "ECO". PILO works in Deep-Sleep and higher power
 318:Generated_Source\PSoC6\pdl\drivers/peripheral/sysclk/cy_sysclk.h **** *   modes. It is not available in Hibernate mode.</p>
 319:Generated_Source\PSoC6\pdl\drivers/peripheral/sysclk/cy_sysclk.h **** *
 320:Generated_Source\PSoC6\pdl\drivers/peripheral/sysclk/cy_sysclk.h **** *   The PILO can be used as a source for the \ref group_sysclk_clk_lf. However,
 321:Generated_Source\PSoC6\pdl\drivers/peripheral/sysclk/cy_sysclk.h **** *   because PILO is disabled in Hibernate mode, RTC timers and counters can be
 322:Generated_Source\PSoC6\pdl\drivers/peripheral/sysclk/cy_sysclk.h **** *   corrupted. If this is unacceptable, use \ref group_sysclk_ilo "ILO" or
 323:Generated_Source\PSoC6\pdl\drivers/peripheral/sysclk/cy_sysclk.h **** *   \ref group_sysclk_wco "WCO" as the source clock for
 324:Generated_Source\PSoC6\pdl\drivers/peripheral/sysclk/cy_sysclk.h **** *   the low-frequency clock. 
 325:Generated_Source\PSoC6\pdl\drivers/peripheral/sysclk/cy_sysclk.h **** *
 326:Generated_Source\PSoC6\pdl\drivers/peripheral/sysclk/cy_sysclk.h **** *   ![](sysclk_backup.png)
 327:Generated_Source\PSoC6\pdl\drivers/peripheral/sysclk/cy_sysclk.h **** *
 328:Generated_Source\PSoC6\pdl\drivers/peripheral/sysclk/cy_sysclk.h **** *   Periodic calibration to a high-accuracy clock (such as ECO) is required to
 329:Generated_Source\PSoC6\pdl\drivers/peripheral/sysclk/cy_sysclk.h **** *   maintain accuracy. Firmware uses functions described in Clock Measurement
 330:Generated_Source\PSoC6\pdl\drivers/peripheral/sysclk/cy_sysclk.h **** *   to get the current PILO frequency before trimming. Then use Cy_SysClk_PiloTrim().
 331:Generated_Source\PSoC6\pdl\drivers/peripheral/sysclk/cy_sysclk.h **** *
 332:Generated_Source\PSoC6\pdl\drivers/peripheral/sysclk/cy_sysclk.h **** *   See the Clocking System chapter of the device technical reference manual (TRM).
 333:Generated_Source\PSoC6\pdl\drivers/peripheral/sysclk/cy_sysclk.h **** *
 334:Generated_Source\PSoC6\pdl\drivers/peripheral/sysclk/cy_sysclk.h **** *   \defgroup group_sysclk_pilo_funcs      Functions
 335:Generated_Source\PSoC6\pdl\drivers/peripheral/sysclk/cy_sysclk.h **** * \}
 336:Generated_Source\PSoC6\pdl\drivers/peripheral/sysclk/cy_sysclk.h **** * \defgroup group_sysclk_calclk          Clock Measurement
 337:Generated_Source\PSoC6\pdl\drivers/peripheral/sysclk/cy_sysclk.h **** * \{
 338:Generated_Source\PSoC6\pdl\drivers/peripheral/sysclk/cy_sysclk.h **** *   <p>These functions measure the frequency of a specified clock relative to a
 339:Generated_Source\PSoC6\pdl\drivers/peripheral/sysclk/cy_sysclk.h **** *   reference clock. They are typically called in the following order:</p>
 340:Generated_Source\PSoC6\pdl\drivers/peripheral/sysclk/cy_sysclk.h **** *   1. Specify the measured clock, the count, and the reference clock; then start the counters:
 341:Generated_Source\PSoC6\pdl\drivers/peripheral/sysclk/cy_sysclk.h **** *   Cy_SysClk_StartClkMeasurementCounters();
 342:Generated_Source\PSoC6\pdl\drivers/peripheral/sysclk/cy_sysclk.h **** *   2. Wait for the measurement counter to finish counting:
 343:Generated_Source\PSoC6\pdl\drivers/peripheral/sysclk/cy_sysclk.h **** *   while(Cy_SysClk_ClkMeasurementCountersDone() != CY_RET_FINISHED);
 344:Generated_Source\PSoC6\pdl\drivers/peripheral/sysclk/cy_sysclk.h **** *   3. Get the measured frequency:<br>
 345:Generated_Source\PSoC6\pdl\drivers/peripheral/sysclk/cy_sysclk.h **** *   freq_measure = Cy_SysClk_ClkMeasurementCountersGetFreq();
 346:Generated_Source\PSoC6\pdl\drivers/peripheral/sysclk/cy_sysclk.h **** *
 347:Generated_Source\PSoC6\pdl\drivers/peripheral/sysclk/cy_sysclk.h **** *   \note These functions may also be used as part of a clock trimming
 348:Generated_Source\PSoC6\pdl\drivers/peripheral/sysclk/cy_sysclk.h **** *   process - see the \ref group_sysclk_trim "Clock Trim" section.
 349:Generated_Source\PSoC6\pdl\drivers/peripheral/sysclk/cy_sysclk.h **** *
 350:Generated_Source\PSoC6\pdl\drivers/peripheral/sysclk/cy_sysclk.h **** *   See the Clocking System chapter of the device technical reference manual (TRM).
 351:Generated_Source\PSoC6\pdl\drivers/peripheral/sysclk/cy_sysclk.h **** *
 352:Generated_Source\PSoC6\pdl\drivers/peripheral/sysclk/cy_sysclk.h **** *   \defgroup group_sysclk_calclk_funcs    Functions
 353:Generated_Source\PSoC6\pdl\drivers/peripheral/sysclk/cy_sysclk.h **** *   \defgroup group_sysclk_calclk_enums    Enumerated Types
 354:Generated_Source\PSoC6\pdl\drivers/peripheral/sysclk/cy_sysclk.h **** * \}
 355:Generated_Source\PSoC6\pdl\drivers/peripheral/sysclk/cy_sysclk.h **** * \defgroup group_sysclk_trim            Clock Trim (ILO, PILO)
 356:Generated_Source\PSoC6\pdl\drivers/peripheral/sysclk/cy_sysclk.h **** * \{
 357:Generated_Source\PSoC6\pdl\drivers/peripheral/sysclk/cy_sysclk.h **** *   <p>These functions perform a single trim operation on the ILO or PILO. Each
 358:Generated_Source\PSoC6\pdl\drivers/peripheral/sysclk/cy_sysclk.h **** *   function's parameter is the actual frequency of the clock. To measure the
 359:Generated_Source\PSoC6\pdl\drivers/peripheral/sysclk/cy_sysclk.h **** *   frequency, use the functions described in the \ref group_sysclk_calclk section.</p>
 360:Generated_Source\PSoC6\pdl\drivers/peripheral/sysclk/cy_sysclk.h **** *
 361:Generated_Source\PSoC6\pdl\drivers/peripheral/sysclk/cy_sysclk.h **** *   To trim the clock as close as possible to the target frequency, multiple
 362:Generated_Source\PSoC6\pdl\drivers/peripheral/sysclk/cy_sysclk.h **** *   calls to the trim function may be needed. A typical usage example is to:
 363:Generated_Source\PSoC6\pdl\drivers/peripheral/sysclk/cy_sysclk.h **** *   1. Call the clock measurement functions to get the actual frequency of the clock
 364:Generated_Source\PSoC6\pdl\drivers/peripheral/sysclk/cy_sysclk.h **** *   2. Call the trim function, passing in the measured frequency:
 365:Generated_Source\PSoC6\pdl\drivers/peripheral/sysclk/cy_sysclk.h **** *   Cy_SysClk_IloTrim() or Cy_SysClk_PiloTrim()
 366:Generated_Source\PSoC6\pdl\drivers/peripheral/sysclk/cy_sysclk.h **** *   3. Repeat the above until the trim function reports trimming is done.
 367:Generated_Source\PSoC6\pdl\drivers/peripheral/sysclk/cy_sysclk.h **** *
 368:Generated_Source\PSoC6\pdl\drivers/peripheral/sysclk/cy_sysclk.h **** *   See the Clocking System chapter of the device technical reference manual (TRM).
 369:Generated_Source\PSoC6\pdl\drivers/peripheral/sysclk/cy_sysclk.h **** *
ARM GAS  C:\Users\kiwamu\AppData\Local\Temp\ccJm7GL2.s 			page 24


 370:Generated_Source\PSoC6\pdl\drivers/peripheral/sysclk/cy_sysclk.h **** *   \defgroup group_sysclk_trim_funcs      Functions
 371:Generated_Source\PSoC6\pdl\drivers/peripheral/sysclk/cy_sysclk.h **** * \}
 372:Generated_Source\PSoC6\pdl\drivers/peripheral/sysclk/cy_sysclk.h **** * \defgroup group_sysclk_pm              Power Management
 373:Generated_Source\PSoC6\pdl\drivers/peripheral/sysclk/cy_sysclk.h **** * \{
 374:Generated_Source\PSoC6\pdl\drivers/peripheral/sysclk/cy_sysclk.h **** *   The PDL provides a callback function that firmware can use to handle
 375:Generated_Source\PSoC6\pdl\drivers/peripheral/sysclk/cy_sysclk.h **** *   transition to DeepSleep mode: Cy_SysClk_DeepSleepCallback().
 376:Generated_Source\PSoC6\pdl\drivers/peripheral/sysclk/cy_sysclk.h **** *   
 377:Generated_Source\PSoC6\pdl\drivers/peripheral/sysclk/cy_sysclk.h **** *   Firmware can configure the system to call this function during execution of
 378:Generated_Source\PSoC6\pdl\drivers/peripheral/sysclk/cy_sysclk.h **** *   Cy_SysPm_DeepSleep(). To do so, register this function as a callback before
 379:Generated_Source\PSoC6\pdl\drivers/peripheral/sysclk/cy_sysclk.h **** *   calling Cy_SysPm_DeepSleep(). Specify \ref CY_SYSPM_DEEPSLEEP as the callback type,
 380:Generated_Source\PSoC6\pdl\drivers/peripheral/sysclk/cy_sysclk.h **** *   and call Cy_SysPm_RegisterCallback().
 381:Generated_Source\PSoC6\pdl\drivers/peripheral/sysclk/cy_sysclk.h **** *   
 382:Generated_Source\PSoC6\pdl\drivers/peripheral/sysclk/cy_sysclk.h **** *   \note If the FLL or PLL source is the ECO, this function must be registered,
 383:Generated_Source\PSoC6\pdl\drivers/peripheral/sysclk/cy_sysclk.h **** *   and it must be the last callback function that is registered.
 384:Generated_Source\PSoC6\pdl\drivers/peripheral/sysclk/cy_sysclk.h **** *   
 385:Generated_Source\PSoC6\pdl\drivers/peripheral/sysclk/cy_sysclk.h **** *   See the Clocking System chapter of the device technical reference manual (TRM).
 386:Generated_Source\PSoC6\pdl\drivers/peripheral/sysclk/cy_sysclk.h **** *
 387:Generated_Source\PSoC6\pdl\drivers/peripheral/sysclk/cy_sysclk.h **** *   \defgroup group_sysclk_pm_funcs        Functions
 388:Generated_Source\PSoC6\pdl\drivers/peripheral/sysclk/cy_sysclk.h **** * \}
 389:Generated_Source\PSoC6\pdl\drivers/peripheral/sysclk/cy_sysclk.h **** * \defgroup group_sysclk_wco             Watch Crystal Oscillator (WCO)
 390:Generated_Source\PSoC6\pdl\drivers/peripheral/sysclk/cy_sysclk.h **** * \{
 391:Generated_Source\PSoC6\pdl\drivers/peripheral/sysclk/cy_sysclk.h **** *   <p>The WCO is a highly accurate 32.768-kHz clock source. It is the primary
 392:Generated_Source\PSoC6\pdl\drivers/peripheral/sysclk/cy_sysclk.h **** *   clock source for the real-time clock (RTC). The WCO can be used as a
 393:Generated_Source\PSoC6\pdl\drivers/peripheral/sysclk/cy_sysclk.h **** *   source for the low-frequency clock. A design can bypass the WCO. If so,
 394:Generated_Source\PSoC6\pdl\drivers/peripheral/sysclk/cy_sysclk.h **** *   an external 32 KHz clock must be provided on the WCO_OUT pin.</p>
 395:Generated_Source\PSoC6\pdl\drivers/peripheral/sysclk/cy_sysclk.h **** *
 396:Generated_Source\PSoC6\pdl\drivers/peripheral/sysclk/cy_sysclk.h **** *   ![](sysclk_backup.png)
 397:Generated_Source\PSoC6\pdl\drivers/peripheral/sysclk/cy_sysclk.h **** *
 398:Generated_Source\PSoC6\pdl\drivers/peripheral/sysclk/cy_sysclk.h **** *   The WCO has a built-in clock supervisor (CSV). The supervisor detects if
 399:Generated_Source\PSoC6\pdl\drivers/peripheral/sysclk/cy_sysclk.h **** *   the WCO has been lost; that is, the WCO is no longer producing clock
 400:Generated_Source\PSoC6\pdl\drivers/peripheral/sysclk/cy_sysclk.h **** *   pulses. The CSV does this by checking to ensure there is at least one WCO
 401:Generated_Source\PSoC6\pdl\drivers/peripheral/sysclk/cy_sysclk.h **** *   clock pulse within a certain time window. The ILO or PILO can be the
 402:Generated_Source\PSoC6\pdl\drivers/peripheral/sysclk/cy_sysclk.h **** *   supervising clock. Firmware can configure the CSV to trigger a fault,
 403:Generated_Source\PSoC6\pdl\drivers/peripheral/sysclk/cy_sysclk.h **** *   a reset, or a fault after four cycles of the supervising clock.
 404:Generated_Source\PSoC6\pdl\drivers/peripheral/sysclk/cy_sysclk.h **** *
 405:Generated_Source\PSoC6\pdl\drivers/peripheral/sysclk/cy_sysclk.h **** *   To configure the CSV, fill in the values of a \ref cy_stc_wco_csv_config_t
 406:Generated_Source\PSoC6\pdl\drivers/peripheral/sysclk/cy_sysclk.h **** *   structure and call Cy_SysClk_WcoConfigureCsv(). This structure specifies
 407:Generated_Source\PSoC6\pdl\drivers/peripheral/sysclk/cy_sysclk.h **** *   the supervising clock, that the CSV is enabled, the time window, and the
 408:Generated_Source\PSoC6\pdl\drivers/peripheral/sysclk/cy_sysclk.h **** *   action on error.
 409:Generated_Source\PSoC6\pdl\drivers/peripheral/sysclk/cy_sysclk.h **** *
 410:Generated_Source\PSoC6\pdl\drivers/peripheral/sysclk/cy_sysclk.h **** *   See the Clocking System chapter of the device technical reference manual (TRM).
 411:Generated_Source\PSoC6\pdl\drivers/peripheral/sysclk/cy_sysclk.h **** *
 412:Generated_Source\PSoC6\pdl\drivers/peripheral/sysclk/cy_sysclk.h **** *   \defgroup group_sysclk_wco_funcs       Functions
 413:Generated_Source\PSoC6\pdl\drivers/peripheral/sysclk/cy_sysclk.h **** *   \defgroup group_sysclk_wco_structs     Data Structures
 414:Generated_Source\PSoC6\pdl\drivers/peripheral/sysclk/cy_sysclk.h **** *   \defgroup group_sysclk_wco_enums       Enumerated Types
 415:Generated_Source\PSoC6\pdl\drivers/peripheral/sysclk/cy_sysclk.h **** * \}
 416:Generated_Source\PSoC6\pdl\drivers/peripheral/sysclk/cy_sysclk.h **** * \defgroup group_sysclk_clk_hf          High-Frequency Clocks
 417:Generated_Source\PSoC6\pdl\drivers/peripheral/sysclk/cy_sysclk.h **** * \{
 418:Generated_Source\PSoC6\pdl\drivers/peripheral/sysclk/cy_sysclk.h **** *   <p>PSoC 6 has five high-frequency root clocks. Each CLK_HF has a particular
 419:Generated_Source\PSoC6\pdl\drivers/peripheral/sysclk/cy_sysclk.h **** *   destination on the device.</p>
 420:Generated_Source\PSoC6\pdl\drivers/peripheral/sysclk/cy_sysclk.h **** *
 421:Generated_Source\PSoC6\pdl\drivers/peripheral/sysclk/cy_sysclk.h **** *   |Name     |Description                                             |
 422:Generated_Source\PSoC6\pdl\drivers/peripheral/sysclk/cy_sysclk.h **** *   |:--------|:-------------------------------------------------------|
 423:Generated_Source\PSoC6\pdl\drivers/peripheral/sysclk/cy_sysclk.h **** *   |CLK_HF[0]| Root clock for both CPUs, PERI, and AHB infrastructure |
 424:Generated_Source\PSoC6\pdl\drivers/peripheral/sysclk/cy_sysclk.h **** *   |CLK_HF[1]| Root clock for the PDM/PCM and I2S audio subsystem     |
 425:Generated_Source\PSoC6\pdl\drivers/peripheral/sysclk/cy_sysclk.h **** *   |CLK_HF[2]| Root clock for the Serial Memory Interface subsystem   |
 426:Generated_Source\PSoC6\pdl\drivers/peripheral/sysclk/cy_sysclk.h **** *   |CLK_HF[3]| Root clock for USB communications                      |
ARM GAS  C:\Users\kiwamu\AppData\Local\Temp\ccJm7GL2.s 			page 25


 427:Generated_Source\PSoC6\pdl\drivers/peripheral/sysclk/cy_sysclk.h **** *   |CLK_HF[4]| Clock output on clk_ext pin (when used as an output)   |
 428:Generated_Source\PSoC6\pdl\drivers/peripheral/sysclk/cy_sysclk.h **** *
 429:Generated_Source\PSoC6\pdl\drivers/peripheral/sysclk/cy_sysclk.h **** *   ![](sysclk_hf.png)
 430:Generated_Source\PSoC6\pdl\drivers/peripheral/sysclk/cy_sysclk.h **** *
 431:Generated_Source\PSoC6\pdl\drivers/peripheral/sysclk/cy_sysclk.h **** *   Each root clock has a clock supervisor (CSV) that can detect frequency loss,
 432:Generated_Source\PSoC6\pdl\drivers/peripheral/sysclk/cy_sysclk.h **** *   or monitor that the clock frequency stays within a specified range. The
 433:Generated_Source\PSoC6\pdl\drivers/peripheral/sysclk/cy_sysclk.h **** *   possible supervising clocks are IMO, the external clock, or ALTHF. Loss
 434:Generated_Source\PSoC6\pdl\drivers/peripheral/sysclk/cy_sysclk.h **** *   detection and frequency monitoring can be enabled or disabled
 435:Generated_Source\PSoC6\pdl\drivers/peripheral/sysclk/cy_sysclk.h **** *   independently. Each has its own programmable action that occurs on
 436:Generated_Source\PSoC6\pdl\drivers/peripheral/sysclk/cy_sysclk.h **** *   detection of an error.
 437:Generated_Source\PSoC6\pdl\drivers/peripheral/sysclk/cy_sysclk.h **** *   
 438:Generated_Source\PSoC6\pdl\drivers/peripheral/sysclk/cy_sysclk.h **** *   To configure the CSV, fill in the values of a \ref cy_stc_clkhf_csv_config_t
 439:Generated_Source\PSoC6\pdl\drivers/peripheral/sysclk/cy_sysclk.h **** *   structure and call Cy_SysClk_ClkHfConfigureCsv(). This structure specifies
 440:Generated_Source\PSoC6\pdl\drivers/peripheral/sysclk/cy_sysclk.h **** *   the supervising clock, the action on error, the frequency range to
 441:Generated_Source\PSoC6\pdl\drivers/peripheral/sysclk/cy_sysclk.h **** *   monitor, and other configuration options.
 442:Generated_Source\PSoC6\pdl\drivers/peripheral/sysclk/cy_sysclk.h **** *   
 443:Generated_Source\PSoC6\pdl\drivers/peripheral/sysclk/cy_sysclk.h **** *   API functions enable or disable, set or get the clock source, set or get the
 444:Generated_Source\PSoC6\pdl\drivers/peripheral/sysclk/cy_sysclk.h **** *   clock divider. 
 445:Generated_Source\PSoC6\pdl\drivers/peripheral/sysclk/cy_sysclk.h **** *   
 446:Generated_Source\PSoC6\pdl\drivers/peripheral/sysclk/cy_sysclk.h **** *   Note that CLK_HF[0] cannot be disabled. This divided clock drives the CM4,
 447:Generated_Source\PSoC6\pdl\drivers/peripheral/sysclk/cy_sysclk.h **** *   the CM0+, and the peripherals in the system.
 448:Generated_Source\PSoC6\pdl\drivers/peripheral/sysclk/cy_sysclk.h **** *
 449:Generated_Source\PSoC6\pdl\drivers/peripheral/sysclk/cy_sysclk.h **** *   ![](sysclk_hf_dist.png)
 450:Generated_Source\PSoC6\pdl\drivers/peripheral/sysclk/cy_sysclk.h **** *
 451:Generated_Source\PSoC6\pdl\drivers/peripheral/sysclk/cy_sysclk.h **** *   See the Clocking System chapter of the device technical reference manual (TRM).
 452:Generated_Source\PSoC6\pdl\drivers/peripheral/sysclk/cy_sysclk.h **** *
 453:Generated_Source\PSoC6\pdl\drivers/peripheral/sysclk/cy_sysclk.h **** *   \defgroup group_sysclk_clk_hf_funcs    Functions
 454:Generated_Source\PSoC6\pdl\drivers/peripheral/sysclk/cy_sysclk.h **** *   \defgroup group_sysclk_clk_hf_structs  Data Structures
 455:Generated_Source\PSoC6\pdl\drivers/peripheral/sysclk/cy_sysclk.h **** *   \defgroup group_sysclk_clk_hf_enums    Enumerated Types
 456:Generated_Source\PSoC6\pdl\drivers/peripheral/sysclk/cy_sysclk.h **** * \}
 457:Generated_Source\PSoC6\pdl\drivers/peripheral/sysclk/cy_sysclk.h **** * \defgroup group_sysclk_clk_fast        Fast Clock
 458:Generated_Source\PSoC6\pdl\drivers/peripheral/sysclk/cy_sysclk.h **** * \{
 459:Generated_Source\PSoC6\pdl\drivers/peripheral/sysclk/cy_sysclk.h **** *   <p>The fast clock drives the Cortex-M4 processor. This clock is a divided
 460:Generated_Source\PSoC6\pdl\drivers/peripheral/sysclk/cy_sysclk.h **** *   version of CLK_HF[0]. See \ref group_sysclk_clk_hf "HF Clocks".
 461:Generated_Source\PSoC6\pdl\drivers/peripheral/sysclk/cy_sysclk.h **** *
 462:Generated_Source\PSoC6\pdl\drivers/peripheral/sysclk/cy_sysclk.h **** *   The API functions for this clock set or get the divider.
 463:Generated_Source\PSoC6\pdl\drivers/peripheral/sysclk/cy_sysclk.h **** *
 464:Generated_Source\PSoC6\pdl\drivers/peripheral/sysclk/cy_sysclk.h **** *   ![](sysclk_fast.png)
 465:Generated_Source\PSoC6\pdl\drivers/peripheral/sysclk/cy_sysclk.h **** *
 466:Generated_Source\PSoC6\pdl\drivers/peripheral/sysclk/cy_sysclk.h **** *   See the Clocking System chapter of the device technical reference manual (TRM).
 467:Generated_Source\PSoC6\pdl\drivers/peripheral/sysclk/cy_sysclk.h **** *
 468:Generated_Source\PSoC6\pdl\drivers/peripheral/sysclk/cy_sysclk.h **** *   \defgroup group_sysclk_clk_fast_funcs  Functions
 469:Generated_Source\PSoC6\pdl\drivers/peripheral/sysclk/cy_sysclk.h **** * \}
 470:Generated_Source\PSoC6\pdl\drivers/peripheral/sysclk/cy_sysclk.h **** * \defgroup group_sysclk_clk_peri        Peripheral Clock
 471:Generated_Source\PSoC6\pdl\drivers/peripheral/sysclk/cy_sysclk.h **** * \{
 472:Generated_Source\PSoC6\pdl\drivers/peripheral/sysclk/cy_sysclk.h **** *   <p>The peripheral clock is a divided clock of CLK_HF0. See
 473:Generated_Source\PSoC6\pdl\drivers/peripheral/sysclk/cy_sysclk.h **** *   \ref group_sysclk_clk_hf "HF Clocks". It is the source clock for the
 474:Generated_Source\PSoC6\pdl\drivers/peripheral/sysclk/cy_sysclk.h **** *   \ref group_sysclk_clk_slow, and multiple peripheral clocks. See
 475:Generated_Source\PSoC6\pdl\drivers/peripheral/sysclk/cy_sysclk.h **** *   \ref group_sysclk_clk_peripheral.</p>
 476:Generated_Source\PSoC6\pdl\drivers/peripheral/sysclk/cy_sysclk.h **** *
 477:Generated_Source\PSoC6\pdl\drivers/peripheral/sysclk/cy_sysclk.h **** *   The API functions for this clock set or get the divider. 
 478:Generated_Source\PSoC6\pdl\drivers/peripheral/sysclk/cy_sysclk.h **** *
 479:Generated_Source\PSoC6\pdl\drivers/peripheral/sysclk/cy_sysclk.h **** *   ![](sysclk_peri.png)
 480:Generated_Source\PSoC6\pdl\drivers/peripheral/sysclk/cy_sysclk.h **** *
 481:Generated_Source\PSoC6\pdl\drivers/peripheral/sysclk/cy_sysclk.h **** *   See the Clocking System chapter of the device technical reference manual (TRM).
 482:Generated_Source\PSoC6\pdl\drivers/peripheral/sysclk/cy_sysclk.h **** *
 483:Generated_Source\PSoC6\pdl\drivers/peripheral/sysclk/cy_sysclk.h **** *   \defgroup group_sysclk_clk_peri_funcs  Functions
ARM GAS  C:\Users\kiwamu\AppData\Local\Temp\ccJm7GL2.s 			page 26


 484:Generated_Source\PSoC6\pdl\drivers/peripheral/sysclk/cy_sysclk.h **** * \}
 485:Generated_Source\PSoC6\pdl\drivers/peripheral/sysclk/cy_sysclk.h **** * \defgroup group_sysclk_clk_peripheral  Peripherals Clock Dividers
 486:Generated_Source\PSoC6\pdl\drivers/peripheral/sysclk/cy_sysclk.h **** * \{
 487:Generated_Source\PSoC6\pdl\drivers/peripheral/sysclk/cy_sysclk.h **** *   <p>There are multiple peripheral clock dividers that, in effect, create 
 488:Generated_Source\PSoC6\pdl\drivers/peripheral/sysclk/cy_sysclk.h **** *   multiple separate peripheral clocks. The available dividers vary per device 
 489:Generated_Source\PSoC6\pdl\drivers/peripheral/sysclk/cy_sysclk.h **** *   series. As an example, for the PSoC 63 series there are 29 dividers:</p>
 490:Generated_Source\PSoC6\pdl\drivers/peripheral/sysclk/cy_sysclk.h **** *   - eight 8-bit dividers
 491:Generated_Source\PSoC6\pdl\drivers/peripheral/sysclk/cy_sysclk.h **** *   - sixteen 16-bit dividers
 492:Generated_Source\PSoC6\pdl\drivers/peripheral/sysclk/cy_sysclk.h **** *   - four fractional 16.5-bit dividers (16 integer bits, 5 fractional bits)
 493:Generated_Source\PSoC6\pdl\drivers/peripheral/sysclk/cy_sysclk.h **** *   - one fractional 24.5-bit divider (24 integer bits, 5 fractional bits)
 494:Generated_Source\PSoC6\pdl\drivers/peripheral/sysclk/cy_sysclk.h **** *
 495:Generated_Source\PSoC6\pdl\drivers/peripheral/sysclk/cy_sysclk.h **** *   The five fractional bits supports further precision in 1/32nd increments. For
 496:Generated_Source\PSoC6\pdl\drivers/peripheral/sysclk/cy_sysclk.h **** *   example, a divider with an integer value of 3 and a fractional value of
 497:Generated_Source\PSoC6\pdl\drivers/peripheral/sysclk/cy_sysclk.h **** *   4 (4/32) results in a divider of 3.125. Fractional dividers are useful when
 498:Generated_Source\PSoC6\pdl\drivers/peripheral/sysclk/cy_sysclk.h **** *   a high-precision clock is required, for example, for a UART/SPI serial
 499:Generated_Source\PSoC6\pdl\drivers/peripheral/sysclk/cy_sysclk.h **** *   interface.
 500:Generated_Source\PSoC6\pdl\drivers/peripheral/sysclk/cy_sysclk.h **** *
 501:Generated_Source\PSoC6\pdl\drivers/peripheral/sysclk/cy_sysclk.h **** *   ![](sysclk_peri_divs.png)
 502:Generated_Source\PSoC6\pdl\drivers/peripheral/sysclk/cy_sysclk.h **** *
 503:Generated_Source\PSoC6\pdl\drivers/peripheral/sysclk/cy_sysclk.h **** *   Each peripheral can connect to any one of the programmable dividers. A
 504:Generated_Source\PSoC6\pdl\drivers/peripheral/sysclk/cy_sysclk.h **** *   particular peripheral clock divider can drive multiple peripherals.
 505:Generated_Source\PSoC6\pdl\drivers/peripheral/sysclk/cy_sysclk.h **** *   
 506:Generated_Source\PSoC6\pdl\drivers/peripheral/sysclk/cy_sysclk.h **** *   API functions set (Cy_SysClk_PeriphAssignDivider()) or get
 507:Generated_Source\PSoC6\pdl\drivers/peripheral/sysclk/cy_sysclk.h **** *   (Cy_SysClk_PeriphGetAssignedDivider()) the divider assigned to a peripheral. 
 508:Generated_Source\PSoC6\pdl\drivers/peripheral/sysclk/cy_sysclk.h **** *   
 509:Generated_Source\PSoC6\pdl\drivers/peripheral/sysclk/cy_sysclk.h **** *   Other API functions set or get the actual divider value, set or get a
 510:Generated_Source\PSoC6\pdl\drivers/peripheral/sysclk/cy_sysclk.h **** *   fractional divider, and enable or disable a divider.
 511:Generated_Source\PSoC6\pdl\drivers/peripheral/sysclk/cy_sysclk.h **** *   
 512:Generated_Source\PSoC6\pdl\drivers/peripheral/sysclk/cy_sysclk.h **** *   The driver supports phase aligning two peripheral clock dividers with
 513:Generated_Source\PSoC6\pdl\drivers/peripheral/sysclk/cy_sysclk.h **** *   Cy_SysClk_PeriphEnablePhaseAlignDivider(). Alignment works for both integer
 514:Generated_Source\PSoC6\pdl\drivers/peripheral/sysclk/cy_sysclk.h **** *   and fractional dividers. The divider to which a second divider is aligned
 515:Generated_Source\PSoC6\pdl\drivers/peripheral/sysclk/cy_sysclk.h **** *   must already be enabled.
 516:Generated_Source\PSoC6\pdl\drivers/peripheral/sysclk/cy_sysclk.h **** *   
 517:Generated_Source\PSoC6\pdl\drivers/peripheral/sysclk/cy_sysclk.h **** *   See the Clocking System chapter of the device technical reference manual (TRM).
 518:Generated_Source\PSoC6\pdl\drivers/peripheral/sysclk/cy_sysclk.h **** *
 519:Generated_Source\PSoC6\pdl\drivers/peripheral/sysclk/cy_sysclk.h **** *   \defgroup group_sysclk_clk_peripheral_funcs Functions
 520:Generated_Source\PSoC6\pdl\drivers/peripheral/sysclk/cy_sysclk.h **** *   \defgroup group_sysclk_clk_peripheral_enums Enumerated Types
 521:Generated_Source\PSoC6\pdl\drivers/peripheral/sysclk/cy_sysclk.h **** * \}
 522:Generated_Source\PSoC6\pdl\drivers/peripheral/sysclk/cy_sysclk.h **** * \defgroup group_sysclk_clk_slow        Slow Clock
 523:Generated_Source\PSoC6\pdl\drivers/peripheral/sysclk/cy_sysclk.h **** * \{
 524:Generated_Source\PSoC6\pdl\drivers/peripheral/sysclk/cy_sysclk.h **** *   <p>The slow clock is the source clock for the Cortex-M0+. This clock is a
 525:Generated_Source\PSoC6\pdl\drivers/peripheral/sysclk/cy_sysclk.h **** *   divided version of the \ref group_sysclk_clk_peri, which in turn is a divided version
 526:Generated_Source\PSoC6\pdl\drivers/peripheral/sysclk/cy_sysclk.h **** *   of CLK_HF[0]. See \ref group_sysclk_clk_hf "HF Clocks".</p>
 527:Generated_Source\PSoC6\pdl\drivers/peripheral/sysclk/cy_sysclk.h **** *
 528:Generated_Source\PSoC6\pdl\drivers/peripheral/sysclk/cy_sysclk.h **** *   The API functions for this clock set or get the divider.
 529:Generated_Source\PSoC6\pdl\drivers/peripheral/sysclk/cy_sysclk.h **** *
 530:Generated_Source\PSoC6\pdl\drivers/peripheral/sysclk/cy_sysclk.h **** *   ![](sysclk_slow.png)
 531:Generated_Source\PSoC6\pdl\drivers/peripheral/sysclk/cy_sysclk.h **** *
 532:Generated_Source\PSoC6\pdl\drivers/peripheral/sysclk/cy_sysclk.h **** *   See the Clocking System chapter of the device technical reference manual (TRM).
 533:Generated_Source\PSoC6\pdl\drivers/peripheral/sysclk/cy_sysclk.h **** *
 534:Generated_Source\PSoC6\pdl\drivers/peripheral/sysclk/cy_sysclk.h **** *   \defgroup group_sysclk_clk_slow_funcs  Functions
 535:Generated_Source\PSoC6\pdl\drivers/peripheral/sysclk/cy_sysclk.h **** * \}
 536:Generated_Source\PSoC6\pdl\drivers/peripheral/sysclk/cy_sysclk.h **** * \defgroup group_sysclk_clk_lf          Low-Frequency Clock
 537:Generated_Source\PSoC6\pdl\drivers/peripheral/sysclk/cy_sysclk.h **** * \{
 538:Generated_Source\PSoC6\pdl\drivers/peripheral/sysclk/cy_sysclk.h **** *   <p>The low-frequency clock is the source clock for the \ref group_mcwdt
 539:Generated_Source\PSoC6\pdl\drivers/peripheral/sysclk/cy_sysclk.h **** *   and can be the source clock for \ref group_sysclk_clk_bak, which drives the
 540:Generated_Source\PSoC6\pdl\drivers/peripheral/sysclk/cy_sysclk.h **** *   \ref group_rtc.</p>
ARM GAS  C:\Users\kiwamu\AppData\Local\Temp\ccJm7GL2.s 			page 27


 541:Generated_Source\PSoC6\pdl\drivers/peripheral/sysclk/cy_sysclk.h **** *   
 542:Generated_Source\PSoC6\pdl\drivers/peripheral/sysclk/cy_sysclk.h **** *   The low-frequency clock has three possible source clocks:
 543:Generated_Source\PSoC6\pdl\drivers/peripheral/sysclk/cy_sysclk.h **** *   \ref group_sysclk_ilo "ILO", \ref group_sysclk_pilo "PILO", and
 544:Generated_Source\PSoC6\pdl\drivers/peripheral/sysclk/cy_sysclk.h **** *   \ref group_sysclk_wco "WCO".
 545:Generated_Source\PSoC6\pdl\drivers/peripheral/sysclk/cy_sysclk.h **** *   
 546:Generated_Source\PSoC6\pdl\drivers/peripheral/sysclk/cy_sysclk.h **** *   The API functions for this clock set or get the source clock.
 547:Generated_Source\PSoC6\pdl\drivers/peripheral/sysclk/cy_sysclk.h **** *
 548:Generated_Source\PSoC6\pdl\drivers/peripheral/sysclk/cy_sysclk.h **** *   ![](sysclk_lf.png)
 549:Generated_Source\PSoC6\pdl\drivers/peripheral/sysclk/cy_sysclk.h **** *
 550:Generated_Source\PSoC6\pdl\drivers/peripheral/sysclk/cy_sysclk.h **** *   See the Clocking System chapter of the device technical reference manual (TRM).
 551:Generated_Source\PSoC6\pdl\drivers/peripheral/sysclk/cy_sysclk.h **** *
 552:Generated_Source\PSoC6\pdl\drivers/peripheral/sysclk/cy_sysclk.h **** *   \defgroup group_sysclk_clk_lf_funcs    Functions
 553:Generated_Source\PSoC6\pdl\drivers/peripheral/sysclk/cy_sysclk.h **** *   \defgroup group_sysclk_clk_lf_enums    Enumerated Types
 554:Generated_Source\PSoC6\pdl\drivers/peripheral/sysclk/cy_sysclk.h **** * \}
 555:Generated_Source\PSoC6\pdl\drivers/peripheral/sysclk/cy_sysclk.h **** * \defgroup group_sysclk_clk_timer       Timer Clock
 556:Generated_Source\PSoC6\pdl\drivers/peripheral/sysclk/cy_sysclk.h **** * \{
 557:Generated_Source\PSoC6\pdl\drivers/peripheral/sysclk/cy_sysclk.h **** *   <p>The timer clock can be the source clock for the \ref group_arm_system_timer
 558:Generated_Source\PSoC6\pdl\drivers/peripheral/sysclk/cy_sysclk.h **** *   (Cy_SysTick_SetClockSource()). It can also be used as a reference clock for
 559:Generated_Source\PSoC6\pdl\drivers/peripheral/sysclk/cy_sysclk.h **** *   a counter in the \ref group_energy_profiler "Profile" (Cy_Profile_ConfigureCounter()).</p>
 560:Generated_Source\PSoC6\pdl\drivers/peripheral/sysclk/cy_sysclk.h **** *   
 561:Generated_Source\PSoC6\pdl\drivers/peripheral/sysclk/cy_sysclk.h **** *   The timer clock is a divided clock of either IMO or CLK_HF[0]. See
 562:Generated_Source\PSoC6\pdl\drivers/peripheral/sysclk/cy_sysclk.h **** *   \ref group_sysclk_clk_hf "HF Clocks".
 563:Generated_Source\PSoC6\pdl\drivers/peripheral/sysclk/cy_sysclk.h **** *   
 564:Generated_Source\PSoC6\pdl\drivers/peripheral/sysclk/cy_sysclk.h **** *   API functions for this clock set or get the source, set or get the divider,
 565:Generated_Source\PSoC6\pdl\drivers/peripheral/sysclk/cy_sysclk.h **** *   and enable or disable the clock.
 566:Generated_Source\PSoC6\pdl\drivers/peripheral/sysclk/cy_sysclk.h **** *   
 567:Generated_Source\PSoC6\pdl\drivers/peripheral/sysclk/cy_sysclk.h **** *   See the Clocking System chapter of the device technical reference manual (TRM).
 568:Generated_Source\PSoC6\pdl\drivers/peripheral/sysclk/cy_sysclk.h **** *
 569:Generated_Source\PSoC6\pdl\drivers/peripheral/sysclk/cy_sysclk.h **** *   \defgroup group_sysclk_clk_timer_funcs Functions
 570:Generated_Source\PSoC6\pdl\drivers/peripheral/sysclk/cy_sysclk.h **** *   \defgroup group_sysclk_clk_timer_enums Enumerated Types
 571:Generated_Source\PSoC6\pdl\drivers/peripheral/sysclk/cy_sysclk.h **** * \}
 572:Generated_Source\PSoC6\pdl\drivers/peripheral/sysclk/cy_sysclk.h **** * \defgroup group_sysclk_clk_pump        Pump Clock
 573:Generated_Source\PSoC6\pdl\drivers/peripheral/sysclk/cy_sysclk.h **** * \{
 574:Generated_Source\PSoC6\pdl\drivers/peripheral/sysclk/cy_sysclk.h **** *   The pump clock may be required to drive the internal voltage pump for the
 575:Generated_Source\PSoC6\pdl\drivers/peripheral/sysclk/cy_sysclk.h **** *   Continuous Time Block mini (CTBm) in the analog subsystem.
 576:Generated_Source\PSoC6\pdl\drivers/peripheral/sysclk/cy_sysclk.h **** *   
 577:Generated_Source\PSoC6\pdl\drivers/peripheral/sysclk/cy_sysclk.h **** *   The pump clock is a divided clock of one of the clock paths. See
 578:Generated_Source\PSoC6\pdl\drivers/peripheral/sysclk/cy_sysclk.h **** *   \ref group_sysclk_path_src.
 579:Generated_Source\PSoC6\pdl\drivers/peripheral/sysclk/cy_sysclk.h **** *   
 580:Generated_Source\PSoC6\pdl\drivers/peripheral/sysclk/cy_sysclk.h **** *   API functions for this clock set or get the source, set or get the divider,
 581:Generated_Source\PSoC6\pdl\drivers/peripheral/sysclk/cy_sysclk.h **** *   and enable or disable the clock.
 582:Generated_Source\PSoC6\pdl\drivers/peripheral/sysclk/cy_sysclk.h **** *   
 583:Generated_Source\PSoC6\pdl\drivers/peripheral/sysclk/cy_sysclk.h **** *   See the Clocking System chapter of the device technical reference manual
 584:Generated_Source\PSoC6\pdl\drivers/peripheral/sysclk/cy_sysclk.h **** *   (TRM) and the Continuous Time Block mini chapter of the TRM.
 585:Generated_Source\PSoC6\pdl\drivers/peripheral/sysclk/cy_sysclk.h **** *
 586:Generated_Source\PSoC6\pdl\drivers/peripheral/sysclk/cy_sysclk.h **** *   \defgroup group_sysclk_clk_pump_funcs  Functions
 587:Generated_Source\PSoC6\pdl\drivers/peripheral/sysclk/cy_sysclk.h **** *   \defgroup group_sysclk_clk_pump_enums  Enumerated Types
 588:Generated_Source\PSoC6\pdl\drivers/peripheral/sysclk/cy_sysclk.h **** * \}
 589:Generated_Source\PSoC6\pdl\drivers/peripheral/sysclk/cy_sysclk.h **** * \defgroup group_sysclk_clk_bak         Backup Domain Clock
 590:Generated_Source\PSoC6\pdl\drivers/peripheral/sysclk/cy_sysclk.h **** * \{
 591:Generated_Source\PSoC6\pdl\drivers/peripheral/sysclk/cy_sysclk.h **** *   The backup domain clock drives the \ref group_rtc. 
 592:Generated_Source\PSoC6\pdl\drivers/peripheral/sysclk/cy_sysclk.h **** *   
 593:Generated_Source\PSoC6\pdl\drivers/peripheral/sysclk/cy_sysclk.h **** *   The backup domain clock has two possible source clocks: \ref group_sysclk_wco "WCO"
 594:Generated_Source\PSoC6\pdl\drivers/peripheral/sysclk/cy_sysclk.h **** *   or the \ref group_sysclk_clk_lf. In turn the low frequency clock is sourced by
 595:Generated_Source\PSoC6\pdl\drivers/peripheral/sysclk/cy_sysclk.h **** *   \ref group_sysclk_ilo "ILO", \ref group_sysclk_pilo "PILO", or
 596:Generated_Source\PSoC6\pdl\drivers/peripheral/sysclk/cy_sysclk.h **** *   \ref group_sysclk_wco "WCO". Typically ILO is not suitable as an RTC source,
 597:Generated_Source\PSoC6\pdl\drivers/peripheral/sysclk/cy_sysclk.h **** *   because of its low accuracy.
ARM GAS  C:\Users\kiwamu\AppData\Local\Temp\ccJm7GL2.s 			page 28


 598:Generated_Source\PSoC6\pdl\drivers/peripheral/sysclk/cy_sysclk.h **** *   
 599:Generated_Source\PSoC6\pdl\drivers/peripheral/sysclk/cy_sysclk.h **** *   The API functions for this clock set or get the source clock. 
 600:Generated_Source\PSoC6\pdl\drivers/peripheral/sysclk/cy_sysclk.h **** *   
 601:Generated_Source\PSoC6\pdl\drivers/peripheral/sysclk/cy_sysclk.h **** *   See the Clocking System chapter of the device technical reference manual (TRM).
 602:Generated_Source\PSoC6\pdl\drivers/peripheral/sysclk/cy_sysclk.h **** *
 603:Generated_Source\PSoC6\pdl\drivers/peripheral/sysclk/cy_sysclk.h **** *   \defgroup group_sysclk_clk_bak_funcs   Functions
 604:Generated_Source\PSoC6\pdl\drivers/peripheral/sysclk/cy_sysclk.h **** *   \defgroup group_sysclk_clk_bak_enums   Enumerated Types
 605:Generated_Source\PSoC6\pdl\drivers/peripheral/sysclk/cy_sysclk.h **** * \}
 606:Generated_Source\PSoC6\pdl\drivers/peripheral/sysclk/cy_sysclk.h **** */
 607:Generated_Source\PSoC6\pdl\drivers/peripheral/sysclk/cy_sysclk.h **** 
 608:Generated_Source\PSoC6\pdl\drivers/peripheral/sysclk/cy_sysclk.h **** #if !defined(__CY_SYSCLK_H__)
 609:Generated_Source\PSoC6\pdl\drivers/peripheral/sysclk/cy_sysclk.h **** #define __CY_SYSCLK_H__
 610:Generated_Source\PSoC6\pdl\drivers/peripheral/sysclk/cy_sysclk.h **** 
 611:Generated_Source\PSoC6\pdl\drivers/peripheral/sysclk/cy_sysclk.h **** #include "cy_device_headers.h"
 612:Generated_Source\PSoC6\pdl\drivers/peripheral/sysclk/cy_sysclk.h **** #include "syslib/cy_syslib.h"
 613:Generated_Source\PSoC6\pdl\drivers/peripheral/sysclk/cy_sysclk.h **** #include "syspm/cy_syspm.h"
 614:Generated_Source\PSoC6\pdl\drivers/peripheral/sysclk/cy_sysclk.h **** #include <stdbool.h>
 615:Generated_Source\PSoC6\pdl\drivers/peripheral/sysclk/cy_sysclk.h **** 
 616:Generated_Source\PSoC6\pdl\drivers/peripheral/sysclk/cy_sysclk.h **** #if defined(__cplusplus)
 617:Generated_Source\PSoC6\pdl\drivers/peripheral/sysclk/cy_sysclk.h **** extern "C" {
 618:Generated_Source\PSoC6\pdl\drivers/peripheral/sysclk/cy_sysclk.h **** #endif /* __cplusplus */
 619:Generated_Source\PSoC6\pdl\drivers/peripheral/sysclk/cy_sysclk.h **** 
 620:Generated_Source\PSoC6\pdl\drivers/peripheral/sysclk/cy_sysclk.h **** /**
 621:Generated_Source\PSoC6\pdl\drivers/peripheral/sysclk/cy_sysclk.h **** * \addtogroup group_sysclk_macros
 622:Generated_Source\PSoC6\pdl\drivers/peripheral/sysclk/cy_sysclk.h **** * \{
 623:Generated_Source\PSoC6\pdl\drivers/peripheral/sysclk/cy_sysclk.h **** */
 624:Generated_Source\PSoC6\pdl\drivers/peripheral/sysclk/cy_sysclk.h **** /** Driver major version */
 625:Generated_Source\PSoC6\pdl\drivers/peripheral/sysclk/cy_sysclk.h **** #define  CY_SYSCLK_DRV_VERSION_MAJOR   1
 626:Generated_Source\PSoC6\pdl\drivers/peripheral/sysclk/cy_sysclk.h **** /** Driver minor version */
 627:Generated_Source\PSoC6\pdl\drivers/peripheral/sysclk/cy_sysclk.h **** #define  CY_SYSCLK_DRV_VERSION_MINOR   10
 628:Generated_Source\PSoC6\pdl\drivers/peripheral/sysclk/cy_sysclk.h **** /** Sysclk driver identifier */
 629:Generated_Source\PSoC6\pdl\drivers/peripheral/sysclk/cy_sysclk.h **** #define CY_SYSCLK_ID   CY_PDL_DRV_ID(0x12U)
 630:Generated_Source\PSoC6\pdl\drivers/peripheral/sysclk/cy_sysclk.h **** 
 631:Generated_Source\PSoC6\pdl\drivers/peripheral/sysclk/cy_sysclk.h **** /** \} group_sysclk_macros */
 632:Generated_Source\PSoC6\pdl\drivers/peripheral/sysclk/cy_sysclk.h **** 
 633:Generated_Source\PSoC6\pdl\drivers/peripheral/sysclk/cy_sysclk.h **** /**
 634:Generated_Source\PSoC6\pdl\drivers/peripheral/sysclk/cy_sysclk.h **** * \addtogroup group_sysclk_returns
 635:Generated_Source\PSoC6\pdl\drivers/peripheral/sysclk/cy_sysclk.h **** * \{
 636:Generated_Source\PSoC6\pdl\drivers/peripheral/sysclk/cy_sysclk.h **** */
 637:Generated_Source\PSoC6\pdl\drivers/peripheral/sysclk/cy_sysclk.h **** /** Defines general-purpose function return values. */
 638:Generated_Source\PSoC6\pdl\drivers/peripheral/sysclk/cy_sysclk.h **** typedef enum
 639:Generated_Source\PSoC6\pdl\drivers/peripheral/sysclk/cy_sysclk.h **** {
 640:Generated_Source\PSoC6\pdl\drivers/peripheral/sysclk/cy_sysclk.h ****     CY_SYSCLK_SUCCESS       = 0u, /**< Command completed with no errors */
 641:Generated_Source\PSoC6\pdl\drivers/peripheral/sysclk/cy_sysclk.h ****     CY_SYSCLK_BAD_PARAM     = (CY_SYSCLK_ID | CY_PDL_STATUS_ERROR | 1u), /**< Invalid function inpu
 642:Generated_Source\PSoC6\pdl\drivers/peripheral/sysclk/cy_sysclk.h ****     CY_SYSCLK_TIMEOUT       = (CY_SYSCLK_ID | CY_PDL_STATUS_ERROR | 2u), /**< Timeout occurred */
 643:Generated_Source\PSoC6\pdl\drivers/peripheral/sysclk/cy_sysclk.h ****     CY_SYSCLK_INVALID_STATE = (CY_SYSCLK_ID | CY_PDL_STATUS_ERROR | 3u)  /**< Clock is in an invali
 644:Generated_Source\PSoC6\pdl\drivers/peripheral/sysclk/cy_sysclk.h **** } cy_en_sysclk_status_t;
 645:Generated_Source\PSoC6\pdl\drivers/peripheral/sysclk/cy_sysclk.h **** /** \} group_sysclk_returns */
 646:Generated_Source\PSoC6\pdl\drivers/peripheral/sysclk/cy_sysclk.h **** 
 647:Generated_Source\PSoC6\pdl\drivers/peripheral/sysclk/cy_sysclk.h **** /** \cond INTERNAL */
 648:Generated_Source\PSoC6\pdl\drivers/peripheral/sysclk/cy_sysclk.h **** /* Generates shorter code for setting register bitfields */
 649:Generated_Source\PSoC6\pdl\drivers/peripheral/sysclk/cy_sysclk.h **** #define CY_SYSCLK_CLR_SET(reg, field, value) (reg) = _CLR_SET_FLD32U((reg), field, (value))
 650:Generated_Source\PSoC6\pdl\drivers/peripheral/sysclk/cy_sysclk.h **** /* Calculate a / b with rounding to the nearest integer. a and b must have the same sign. */
 651:Generated_Source\PSoC6\pdl\drivers/peripheral/sysclk/cy_sysclk.h **** #define CY_SYSCLK_DIV_ROUND(a, b) (((a) + ((b) / 2u)) / (b))
 652:Generated_Source\PSoC6\pdl\drivers/peripheral/sysclk/cy_sysclk.h **** /* Calculate a / b with rounding up if remainder != 0. a and b must both be positive. */
 653:Generated_Source\PSoC6\pdl\drivers/peripheral/sysclk/cy_sysclk.h **** #define CY_SYSCLK_DIV_ROUNDUP(a, b) ((((a) - 1u) / (b)) + 1u)
 654:Generated_Source\PSoC6\pdl\drivers/peripheral/sysclk/cy_sysclk.h **** /** \endcond */
ARM GAS  C:\Users\kiwamu\AppData\Local\Temp\ccJm7GL2.s 			page 29


 655:Generated_Source\PSoC6\pdl\drivers/peripheral/sysclk/cy_sysclk.h **** 
 656:Generated_Source\PSoC6\pdl\drivers/peripheral/sysclk/cy_sysclk.h **** 
 657:Generated_Source\PSoC6\pdl\drivers/peripheral/sysclk/cy_sysclk.h **** /* ========================================================================== */
 658:Generated_Source\PSoC6\pdl\drivers/peripheral/sysclk/cy_sysclk.h **** /* ===========================    ECO SECTION    ============================ */
 659:Generated_Source\PSoC6\pdl\drivers/peripheral/sysclk/cy_sysclk.h **** /* ========================================================================== */
 660:Generated_Source\PSoC6\pdl\drivers/peripheral/sysclk/cy_sysclk.h **** /**
 661:Generated_Source\PSoC6\pdl\drivers/peripheral/sysclk/cy_sysclk.h **** * \addtogroup group_sysclk_eco_funcs
 662:Generated_Source\PSoC6\pdl\drivers/peripheral/sysclk/cy_sysclk.h **** * \{
 663:Generated_Source\PSoC6\pdl\drivers/peripheral/sysclk/cy_sysclk.h **** */
 664:Generated_Source\PSoC6\pdl\drivers/peripheral/sysclk/cy_sysclk.h **** cy_en_sysclk_status_t Cy_SysClk_EcoConfigure(uint32_t freq, uint32_t cLoad, uint32_t esr, uint32_t 
 665:Generated_Source\PSoC6\pdl\drivers/peripheral/sysclk/cy_sysclk.h **** cy_en_sysclk_status_t Cy_SysClk_EcoEnable(uint32_t timeoutus);
 666:Generated_Source\PSoC6\pdl\drivers/peripheral/sysclk/cy_sysclk.h **** __STATIC_INLINE void Cy_SysClk_EcoDisable(void);
 667:Generated_Source\PSoC6\pdl\drivers/peripheral/sysclk/cy_sysclk.h **** __STATIC_INLINE uint32_t Cy_SysClk_EcoGetStatus(void);
 668:Generated_Source\PSoC6\pdl\drivers/peripheral/sysclk/cy_sysclk.h **** 
 669:Generated_Source\PSoC6\pdl\drivers/peripheral/sysclk/cy_sysclk.h **** /*******************************************************************************
 670:Generated_Source\PSoC6\pdl\drivers/peripheral/sysclk/cy_sysclk.h **** * Function Name: Cy_SysClk_EcoDisable
 671:Generated_Source\PSoC6\pdl\drivers/peripheral/sysclk/cy_sysclk.h **** ****************************************************************************//**
 672:Generated_Source\PSoC6\pdl\drivers/peripheral/sysclk/cy_sysclk.h **** *
 673:Generated_Source\PSoC6\pdl\drivers/peripheral/sysclk/cy_sysclk.h **** * Disables the external crystal oscillator (ECO). This function should not be
 674:Generated_Source\PSoC6\pdl\drivers/peripheral/sysclk/cy_sysclk.h **** * called if the ECO is sourcing clkHf[0].
 675:Generated_Source\PSoC6\pdl\drivers/peripheral/sysclk/cy_sysclk.h **** *
 676:Generated_Source\PSoC6\pdl\drivers/peripheral/sysclk/cy_sysclk.h **** *******************************************************************************/
 677:Generated_Source\PSoC6\pdl\drivers/peripheral/sysclk/cy_sysclk.h **** __STATIC_INLINE void Cy_SysClk_EcoDisable(void)
 678:Generated_Source\PSoC6\pdl\drivers/peripheral/sysclk/cy_sysclk.h **** {
 679:Generated_Source\PSoC6\pdl\drivers/peripheral/sysclk/cy_sysclk.h ****     SRSS->CLK_ECO_CONFIG &= ~_VAL2FLD(SRSS_CLK_ECO_CONFIG_ECO_EN, 1u); /* 0 = disable */
 680:Generated_Source\PSoC6\pdl\drivers/peripheral/sysclk/cy_sysclk.h **** }
 681:Generated_Source\PSoC6\pdl\drivers/peripheral/sysclk/cy_sysclk.h **** 
 682:Generated_Source\PSoC6\pdl\drivers/peripheral/sysclk/cy_sysclk.h **** /*******************************************************************************
 683:Generated_Source\PSoC6\pdl\drivers/peripheral/sysclk/cy_sysclk.h **** * Function Name: Cy_SysClk_EcoGetStatus
 684:Generated_Source\PSoC6\pdl\drivers/peripheral/sysclk/cy_sysclk.h **** ****************************************************************************//**
 685:Generated_Source\PSoC6\pdl\drivers/peripheral/sysclk/cy_sysclk.h **** *
 686:Generated_Source\PSoC6\pdl\drivers/peripheral/sysclk/cy_sysclk.h **** * Reports the current status of the external crystal oscillator (ECO).
 687:Generated_Source\PSoC6\pdl\drivers/peripheral/sysclk/cy_sysclk.h **** *
 688:Generated_Source\PSoC6\pdl\drivers/peripheral/sysclk/cy_sysclk.h **** * \return
 689:Generated_Source\PSoC6\pdl\drivers/peripheral/sysclk/cy_sysclk.h **** * 0 = ECO does not have sufficient amplitude<br>
 690:Generated_Source\PSoC6\pdl\drivers/peripheral/sysclk/cy_sysclk.h **** * 1 = ECO has sufficient amplitude but may not be meeting accuracy and duty cycle specifications<br
 691:Generated_Source\PSoC6\pdl\drivers/peripheral/sysclk/cy_sysclk.h **** * 2 = ECO has fully stabilized
 692:Generated_Source\PSoC6\pdl\drivers/peripheral/sysclk/cy_sysclk.h **** *
 693:Generated_Source\PSoC6\pdl\drivers/peripheral/sysclk/cy_sysclk.h **** *******************************************************************************/
 694:Generated_Source\PSoC6\pdl\drivers/peripheral/sysclk/cy_sysclk.h **** __STATIC_INLINE uint32_t Cy_SysClk_EcoGetStatus(void)
 695:Generated_Source\PSoC6\pdl\drivers/peripheral/sysclk/cy_sysclk.h **** {
 696:Generated_Source\PSoC6\pdl\drivers/peripheral/sysclk/cy_sysclk.h ****     uint32_t retval = (SRSS->CLK_ECO_STATUS & 3ul); /* bit 0 = ECO_OK, bit 1 = ECO_READY */
 697:Generated_Source\PSoC6\pdl\drivers/peripheral/sysclk/cy_sysclk.h ****     /* if ECO is not ready, just report the ECO_OK bit. Otherwise report 2 = ECO ready */
 698:Generated_Source\PSoC6\pdl\drivers/peripheral/sysclk/cy_sysclk.h ****     return (((retval & 2ul) == 0) ? retval : 2ul);
 699:Generated_Source\PSoC6\pdl\drivers/peripheral/sysclk/cy_sysclk.h **** }
 700:Generated_Source\PSoC6\pdl\drivers/peripheral/sysclk/cy_sysclk.h **** /** \} group_sysclk_eco_funcs */
 701:Generated_Source\PSoC6\pdl\drivers/peripheral/sysclk/cy_sysclk.h **** 
 702:Generated_Source\PSoC6\pdl\drivers/peripheral/sysclk/cy_sysclk.h **** 
 703:Generated_Source\PSoC6\pdl\drivers/peripheral/sysclk/cy_sysclk.h **** /* ========================================================================== */
 704:Generated_Source\PSoC6\pdl\drivers/peripheral/sysclk/cy_sysclk.h **** /* ====================    INPUT MULTIPLEXER SECTION    ===================== */
 705:Generated_Source\PSoC6\pdl\drivers/peripheral/sysclk/cy_sysclk.h **** /* ========================================================================== */
 706:Generated_Source\PSoC6\pdl\drivers/peripheral/sysclk/cy_sysclk.h **** /**
 707:Generated_Source\PSoC6\pdl\drivers/peripheral/sysclk/cy_sysclk.h **** * \addtogroup group_sysclk_path_src_enums
 708:Generated_Source\PSoC6\pdl\drivers/peripheral/sysclk/cy_sysclk.h **** * \{
 709:Generated_Source\PSoC6\pdl\drivers/peripheral/sysclk/cy_sysclk.h **** */
 710:Generated_Source\PSoC6\pdl\drivers/peripheral/sysclk/cy_sysclk.h **** /**
 711:Generated_Source\PSoC6\pdl\drivers/peripheral/sysclk/cy_sysclk.h **** *   Input multiplexer clock sources
ARM GAS  C:\Users\kiwamu\AppData\Local\Temp\ccJm7GL2.s 			page 30


 712:Generated_Source\PSoC6\pdl\drivers/peripheral/sysclk/cy_sysclk.h **** */
 713:Generated_Source\PSoC6\pdl\drivers/peripheral/sysclk/cy_sysclk.h **** typedef enum
 714:Generated_Source\PSoC6\pdl\drivers/peripheral/sysclk/cy_sysclk.h **** {
 715:Generated_Source\PSoC6\pdl\drivers/peripheral/sysclk/cy_sysclk.h ****     CY_SYSCLK_CLKPATH_IN_IMO    =     0u, /**< Select the IMO as the output of the path mux */
 716:Generated_Source\PSoC6\pdl\drivers/peripheral/sysclk/cy_sysclk.h ****     CY_SYSCLK_CLKPATH_IN_EXT    =     1u, /**< Select the EXT as the output of the path mux */
 717:Generated_Source\PSoC6\pdl\drivers/peripheral/sysclk/cy_sysclk.h ****     CY_SYSCLK_CLKPATH_IN_ECO    =     2u, /**< Select the ECO as the output of the path mux */
 718:Generated_Source\PSoC6\pdl\drivers/peripheral/sysclk/cy_sysclk.h ****     CY_SYSCLK_CLKPATH_IN_ALTHF  =     3u, /**< Select the ALTHF as the output of the path mux */
 719:Generated_Source\PSoC6\pdl\drivers/peripheral/sysclk/cy_sysclk.h ****     CY_SYSCLK_CLKPATH_IN_DSIMUX =     4u, /**< Select the DSI MUX output as the output of the path 
 720:Generated_Source\PSoC6\pdl\drivers/peripheral/sysclk/cy_sysclk.h ****     CY_SYSCLK_CLKPATH_IN_DSI    = 0x100u, /**< Select a DSI signal (0 - 15) as the output of the DS
 721:Generated_Source\PSoC6\pdl\drivers/peripheral/sysclk/cy_sysclk.h ****     CY_SYSCLK_CLKPATH_IN_ILO    = 0x110u, /**< Select the ILO (16) as the output of the DSI mux and
 722:Generated_Source\PSoC6\pdl\drivers/peripheral/sysclk/cy_sysclk.h ****     CY_SYSCLK_CLKPATH_IN_WCO    = 0x111u, /**< Select the WCO (17) as the output of the DSI mux and
 723:Generated_Source\PSoC6\pdl\drivers/peripheral/sysclk/cy_sysclk.h ****     CY_SYSCLK_CLKPATH_IN_ALTLF  = 0x112u, /**< Select the ALTLF (18) as the output of the DSI mux a
 724:Generated_Source\PSoC6\pdl\drivers/peripheral/sysclk/cy_sysclk.h ****     CY_SYSCLK_CLKPATH_IN_PILO   = 0x113u  /**< Select the PILO (19) as the output of the DSI mux an
 725:Generated_Source\PSoC6\pdl\drivers/peripheral/sysclk/cy_sysclk.h **** } cy_en_clkpath_in_sources_t;
 726:Generated_Source\PSoC6\pdl\drivers/peripheral/sysclk/cy_sysclk.h **** /** \} group_sysclk_path_src_enums */
 727:Generated_Source\PSoC6\pdl\drivers/peripheral/sysclk/cy_sysclk.h **** 
 728:Generated_Source\PSoC6\pdl\drivers/peripheral/sysclk/cy_sysclk.h **** /**
 729:Generated_Source\PSoC6\pdl\drivers/peripheral/sysclk/cy_sysclk.h **** * \addtogroup group_sysclk_path_src_funcs
 730:Generated_Source\PSoC6\pdl\drivers/peripheral/sysclk/cy_sysclk.h **** * \{
 731:Generated_Source\PSoC6\pdl\drivers/peripheral/sysclk/cy_sysclk.h **** */
 732:Generated_Source\PSoC6\pdl\drivers/peripheral/sysclk/cy_sysclk.h **** cy_en_sysclk_status_t Cy_SysClk_ClkPathSetSource(uint32_t clkPath, cy_en_clkpath_in_sources_t sourc
 733:Generated_Source\PSoC6\pdl\drivers/peripheral/sysclk/cy_sysclk.h **** cy_en_clkpath_in_sources_t Cy_SysClk_ClkPathGetSource(uint32_t clkPath);
 734:Generated_Source\PSoC6\pdl\drivers/peripheral/sysclk/cy_sysclk.h **** /** \} group_sysclk_path_src_funcs */
 735:Generated_Source\PSoC6\pdl\drivers/peripheral/sysclk/cy_sysclk.h **** 
 736:Generated_Source\PSoC6\pdl\drivers/peripheral/sysclk/cy_sysclk.h **** 
 737:Generated_Source\PSoC6\pdl\drivers/peripheral/sysclk/cy_sysclk.h **** /* ========================================================================== */
 738:Generated_Source\PSoC6\pdl\drivers/peripheral/sysclk/cy_sysclk.h **** /* ===========================    FLL SECTION    ============================ */
 739:Generated_Source\PSoC6\pdl\drivers/peripheral/sysclk/cy_sysclk.h **** /* ========================================================================== */
 740:Generated_Source\PSoC6\pdl\drivers/peripheral/sysclk/cy_sysclk.h **** /**
 741:Generated_Source\PSoC6\pdl\drivers/peripheral/sysclk/cy_sysclk.h **** * \addtogroup group_sysclk_fll_enums
 742:Generated_Source\PSoC6\pdl\drivers/peripheral/sysclk/cy_sysclk.h **** * \{
 743:Generated_Source\PSoC6\pdl\drivers/peripheral/sysclk/cy_sysclk.h **** */
 744:Generated_Source\PSoC6\pdl\drivers/peripheral/sysclk/cy_sysclk.h **** /** FLL and PLL output mode.
 745:Generated_Source\PSoC6\pdl\drivers/peripheral/sysclk/cy_sysclk.h **** * See registers CLK_FLL_CONFIG3 and CLK_PLL_CONFIG0, bits BYPASS_SEL.
 746:Generated_Source\PSoC6\pdl\drivers/peripheral/sysclk/cy_sysclk.h **** */
 747:Generated_Source\PSoC6\pdl\drivers/peripheral/sysclk/cy_sysclk.h **** typedef enum
 748:Generated_Source\PSoC6\pdl\drivers/peripheral/sysclk/cy_sysclk.h **** {
 749:Generated_Source\PSoC6\pdl\drivers/peripheral/sysclk/cy_sysclk.h ****     CY_SYSCLK_FLLPLL_OUTPUT_AUTO   = 0u, /**< Output FLL/PLL input source when not locked, and FLL/
 750:Generated_Source\PSoC6\pdl\drivers/peripheral/sysclk/cy_sysclk.h ****     CY_SYSCLK_FLLPLL_OUTPUT_AUTO1  = 1u, /**< Same as AUTO */
 751:Generated_Source\PSoC6\pdl\drivers/peripheral/sysclk/cy_sysclk.h ****     CY_SYSCLK_FLLPLL_OUTPUT_INPUT  = 2u, /**< Output FLL/PLL input source regardless of lock status
 752:Generated_Source\PSoC6\pdl\drivers/peripheral/sysclk/cy_sysclk.h ****     CY_SYSCLK_FLLPLL_OUTPUT_OUTPUT = 3u  /**< Output FLL/PLL output regardless of lock status. This
 753:Generated_Source\PSoC6\pdl\drivers/peripheral/sysclk/cy_sysclk.h **** } cy_en_fll_pll_output_mode_t;
 754:Generated_Source\PSoC6\pdl\drivers/peripheral/sysclk/cy_sysclk.h **** 
 755:Generated_Source\PSoC6\pdl\drivers/peripheral/sysclk/cy_sysclk.h **** /** FLL current-controlled oscillator (CCO) frequency ranges.
 756:Generated_Source\PSoC6\pdl\drivers/peripheral/sysclk/cy_sysclk.h **** * See register CLK_FLL_CONFIG4, bits CCO_RANGE.
 757:Generated_Source\PSoC6\pdl\drivers/peripheral/sysclk/cy_sysclk.h **** */
 758:Generated_Source\PSoC6\pdl\drivers/peripheral/sysclk/cy_sysclk.h **** typedef enum
 759:Generated_Source\PSoC6\pdl\drivers/peripheral/sysclk/cy_sysclk.h **** {
 760:Generated_Source\PSoC6\pdl\drivers/peripheral/sysclk/cy_sysclk.h ****     CY_SYSCLK_FLL_CCO_RANGE0, /**< Target frequency is in range  48 -  64 MHz. */
 761:Generated_Source\PSoC6\pdl\drivers/peripheral/sysclk/cy_sysclk.h ****     CY_SYSCLK_FLL_CCO_RANGE1, /**< Target frequency is in range  64 -  85 MHz. */
 762:Generated_Source\PSoC6\pdl\drivers/peripheral/sysclk/cy_sysclk.h ****     CY_SYSCLK_FLL_CCO_RANGE2, /**< Target frequency is in range  85 - 113 MHz. */
 763:Generated_Source\PSoC6\pdl\drivers/peripheral/sysclk/cy_sysclk.h ****     CY_SYSCLK_FLL_CCO_RANGE3, /**< Target frequency is in range 113 - 150 MHz. */
 764:Generated_Source\PSoC6\pdl\drivers/peripheral/sysclk/cy_sysclk.h ****     CY_SYSCLK_FLL_CCO_RANGE4  /**< Target frequency is in range 150 - 200 MHz. */
 765:Generated_Source\PSoC6\pdl\drivers/peripheral/sysclk/cy_sysclk.h **** } cy_en_fll_cco_ranges_t;
 766:Generated_Source\PSoC6\pdl\drivers/peripheral/sysclk/cy_sysclk.h **** /** \} group_sysclk_fll_enums */
 767:Generated_Source\PSoC6\pdl\drivers/peripheral/sysclk/cy_sysclk.h **** 
 768:Generated_Source\PSoC6\pdl\drivers/peripheral/sysclk/cy_sysclk.h **** /**
ARM GAS  C:\Users\kiwamu\AppData\Local\Temp\ccJm7GL2.s 			page 31


 769:Generated_Source\PSoC6\pdl\drivers/peripheral/sysclk/cy_sysclk.h **** * \addtogroup group_sysclk_fll_structs
 770:Generated_Source\PSoC6\pdl\drivers/peripheral/sysclk/cy_sysclk.h **** * \{
 771:Generated_Source\PSoC6\pdl\drivers/peripheral/sysclk/cy_sysclk.h **** */
 772:Generated_Source\PSoC6\pdl\drivers/peripheral/sysclk/cy_sysclk.h **** /** Structure containing information for manual configuration of FLL.
 773:Generated_Source\PSoC6\pdl\drivers/peripheral/sysclk/cy_sysclk.h **** */
 774:Generated_Source\PSoC6\pdl\drivers/peripheral/sysclk/cy_sysclk.h **** typedef struct
 775:Generated_Source\PSoC6\pdl\drivers/peripheral/sysclk/cy_sysclk.h **** {
 776:Generated_Source\PSoC6\pdl\drivers/peripheral/sysclk/cy_sysclk.h ****     uint32_t                    fllMult;         /**< CLK_FLL_CONFIG  register, FLL_MULT bits */
 777:Generated_Source\PSoC6\pdl\drivers/peripheral/sysclk/cy_sysclk.h ****     uint16_t                    refDiv;          /**< CLK_FLL_CONFIG2 register, FLL_REF_DIV bits */
 778:Generated_Source\PSoC6\pdl\drivers/peripheral/sysclk/cy_sysclk.h ****     cy_en_fll_cco_ranges_t      ccoRange;        /**< CLK_FLL_CONFIG4 register, CCO_RANGE bits */
 779:Generated_Source\PSoC6\pdl\drivers/peripheral/sysclk/cy_sysclk.h ****     bool                        enableOutputDiv; /**< CLK_FLL_CONFIG  register, FLL_OUTPUT_DIV bit 
 780:Generated_Source\PSoC6\pdl\drivers/peripheral/sysclk/cy_sysclk.h ****     uint16_t                    lockTolerance;   /**< CLK_FLL_CONFIG2 register, LOCK_TOL bits */
 781:Generated_Source\PSoC6\pdl\drivers/peripheral/sysclk/cy_sysclk.h ****     uint8_t                     igain;           /**< CLK_FLL_CONFIG3 register, FLL_LF_IGAIN bits *
 782:Generated_Source\PSoC6\pdl\drivers/peripheral/sysclk/cy_sysclk.h ****     uint8_t                     pgain;           /**< CLK_FLL_CONFIG3 register, FLL_LF_PGAIN bits *
 783:Generated_Source\PSoC6\pdl\drivers/peripheral/sysclk/cy_sysclk.h ****     uint16_t                    settlingCount;   /**< CLK_FLL_CONFIG3 register, SETTLING_COUNT bits
 784:Generated_Source\PSoC6\pdl\drivers/peripheral/sysclk/cy_sysclk.h ****     cy_en_fll_pll_output_mode_t outputMode;      /**< CLK_FLL_CONFIG3 register, BYPASS_SEL bits */
 785:Generated_Source\PSoC6\pdl\drivers/peripheral/sysclk/cy_sysclk.h ****     uint16_t                    cco_Freq;        /**< CLK_FLL_CONFIG4 register, CCO_FREQ bits */
 786:Generated_Source\PSoC6\pdl\drivers/peripheral/sysclk/cy_sysclk.h **** } cy_stc_fll_manual_config_t;
 787:Generated_Source\PSoC6\pdl\drivers/peripheral/sysclk/cy_sysclk.h **** /** \} group_sysclk_fll_structs */
 788:Generated_Source\PSoC6\pdl\drivers/peripheral/sysclk/cy_sysclk.h **** 
 789:Generated_Source\PSoC6\pdl\drivers/peripheral/sysclk/cy_sysclk.h **** /**
 790:Generated_Source\PSoC6\pdl\drivers/peripheral/sysclk/cy_sysclk.h **** * \addtogroup group_sysclk_fll_funcs
 791:Generated_Source\PSoC6\pdl\drivers/peripheral/sysclk/cy_sysclk.h **** * \{
 792:Generated_Source\PSoC6\pdl\drivers/peripheral/sysclk/cy_sysclk.h **** */
 793:Generated_Source\PSoC6\pdl\drivers/peripheral/sysclk/cy_sysclk.h **** cy_en_sysclk_status_t Cy_SysClk_FllConfigure(uint32_t inputFreq, uint32_t outputFreq, cy_en_fll_pll
 794:Generated_Source\PSoC6\pdl\drivers/peripheral/sysclk/cy_sysclk.h **** cy_en_sysclk_status_t Cy_SysClk_FllManualConfigure(const cy_stc_fll_manual_config_t *config);
 795:Generated_Source\PSoC6\pdl\drivers/peripheral/sysclk/cy_sysclk.h **** void Cy_SysClk_FllGetConfiguration(cy_stc_fll_manual_config_t *config);
 796:Generated_Source\PSoC6\pdl\drivers/peripheral/sysclk/cy_sysclk.h **** cy_en_sysclk_status_t Cy_SysClk_FllEnable(uint32_t timeoutus);
 797:Generated_Source\PSoC6\pdl\drivers/peripheral/sysclk/cy_sysclk.h **** __STATIC_INLINE bool Cy_SysClk_FllLocked(void);
 798:Generated_Source\PSoC6\pdl\drivers/peripheral/sysclk/cy_sysclk.h **** __STATIC_INLINE bool Cy_SysClk_FllLostLock(void);
 799:Generated_Source\PSoC6\pdl\drivers/peripheral/sysclk/cy_sysclk.h **** __STATIC_INLINE cy_en_sysclk_status_t Cy_SysClk_FllDisable(void);
 800:Generated_Source\PSoC6\pdl\drivers/peripheral/sysclk/cy_sysclk.h **** 
 801:Generated_Source\PSoC6\pdl\drivers/peripheral/sysclk/cy_sysclk.h **** /*******************************************************************************
 802:Generated_Source\PSoC6\pdl\drivers/peripheral/sysclk/cy_sysclk.h **** * Function Name: Cy_SysClk_FllLocked
 803:Generated_Source\PSoC6\pdl\drivers/peripheral/sysclk/cy_sysclk.h **** ****************************************************************************//**
 804:Generated_Source\PSoC6\pdl\drivers/peripheral/sysclk/cy_sysclk.h **** *
 805:Generated_Source\PSoC6\pdl\drivers/peripheral/sysclk/cy_sysclk.h **** * Reports whether or not the FLL is locked.
 806:Generated_Source\PSoC6\pdl\drivers/peripheral/sysclk/cy_sysclk.h **** *
 807:Generated_Source\PSoC6\pdl\drivers/peripheral/sysclk/cy_sysclk.h **** * \return false = not locked, true = locked
 808:Generated_Source\PSoC6\pdl\drivers/peripheral/sysclk/cy_sysclk.h **** *
 809:Generated_Source\PSoC6\pdl\drivers/peripheral/sysclk/cy_sysclk.h **** *******************************************************************************/
 810:Generated_Source\PSoC6\pdl\drivers/peripheral/sysclk/cy_sysclk.h **** __STATIC_INLINE bool Cy_SysClk_FllLocked(void)
 811:Generated_Source\PSoC6\pdl\drivers/peripheral/sysclk/cy_sysclk.h **** {
 812:Generated_Source\PSoC6\pdl\drivers/peripheral/sysclk/cy_sysclk.h ****     return (bool)(_FLD2VAL(SRSS_CLK_FLL_STATUS_LOCKED, SRSS->CLK_FLL_STATUS));
 813:Generated_Source\PSoC6\pdl\drivers/peripheral/sysclk/cy_sysclk.h **** }
 814:Generated_Source\PSoC6\pdl\drivers/peripheral/sysclk/cy_sysclk.h **** 
 815:Generated_Source\PSoC6\pdl\drivers/peripheral/sysclk/cy_sysclk.h **** /*******************************************************************************
 816:Generated_Source\PSoC6\pdl\drivers/peripheral/sysclk/cy_sysclk.h **** * Function Name: Cy_SysClk_FllLostLock
 817:Generated_Source\PSoC6\pdl\drivers/peripheral/sysclk/cy_sysclk.h **** ****************************************************************************//**
 818:Generated_Source\PSoC6\pdl\drivers/peripheral/sysclk/cy_sysclk.h **** *
 819:Generated_Source\PSoC6\pdl\drivers/peripheral/sysclk/cy_sysclk.h **** * Reports whether or not the FLL lost its lock since the last time this function
 820:Generated_Source\PSoC6\pdl\drivers/peripheral/sysclk/cy_sysclk.h **** * was called. Clears the lost lock indicator.
 821:Generated_Source\PSoC6\pdl\drivers/peripheral/sysclk/cy_sysclk.h **** *
 822:Generated_Source\PSoC6\pdl\drivers/peripheral/sysclk/cy_sysclk.h **** * \return false = didn't lose lock, true = lost lock
 823:Generated_Source\PSoC6\pdl\drivers/peripheral/sysclk/cy_sysclk.h **** *
 824:Generated_Source\PSoC6\pdl\drivers/peripheral/sysclk/cy_sysclk.h **** *******************************************************************************/
 825:Generated_Source\PSoC6\pdl\drivers/peripheral/sysclk/cy_sysclk.h **** __STATIC_INLINE bool Cy_SysClk_FllLostLock(void)
ARM GAS  C:\Users\kiwamu\AppData\Local\Temp\ccJm7GL2.s 			page 32


 826:Generated_Source\PSoC6\pdl\drivers/peripheral/sysclk/cy_sysclk.h **** {
 827:Generated_Source\PSoC6\pdl\drivers/peripheral/sysclk/cy_sysclk.h ****     uint32_t retval = _FLD2VAL(SRSS_CLK_FLL_STATUS_UNLOCK_OCCURRED, SRSS->CLK_FLL_STATUS);
 828:Generated_Source\PSoC6\pdl\drivers/peripheral/sysclk/cy_sysclk.h ****     /* write a 1 to clear the unlock occurred bit */
 829:Generated_Source\PSoC6\pdl\drivers/peripheral/sysclk/cy_sysclk.h ****     SRSS->CLK_FLL_STATUS = _VAL2FLD(SRSS_CLK_FLL_STATUS_UNLOCK_OCCURRED, 1u);
 830:Generated_Source\PSoC6\pdl\drivers/peripheral/sysclk/cy_sysclk.h ****     return ((bool)retval);
 831:Generated_Source\PSoC6\pdl\drivers/peripheral/sysclk/cy_sysclk.h **** }
 832:Generated_Source\PSoC6\pdl\drivers/peripheral/sysclk/cy_sysclk.h **** 
 833:Generated_Source\PSoC6\pdl\drivers/peripheral/sysclk/cy_sysclk.h **** /*******************************************************************************
 834:Generated_Source\PSoC6\pdl\drivers/peripheral/sysclk/cy_sysclk.h **** * Function Name: Cy_SysClk_FllDisable
 835:Generated_Source\PSoC6\pdl\drivers/peripheral/sysclk/cy_sysclk.h **** ****************************************************************************//**
 836:Generated_Source\PSoC6\pdl\drivers/peripheral/sysclk/cy_sysclk.h **** *
 837:Generated_Source\PSoC6\pdl\drivers/peripheral/sysclk/cy_sysclk.h **** * Disables the FLL and the CCO.
 838:Generated_Source\PSoC6\pdl\drivers/peripheral/sysclk/cy_sysclk.h **** *
 839:Generated_Source\PSoC6\pdl\drivers/peripheral/sysclk/cy_sysclk.h **** * \return \ref cy_en_sysclk_status_t
 840:Generated_Source\PSoC6\pdl\drivers/peripheral/sysclk/cy_sysclk.h **** *
 841:Generated_Source\PSoC6\pdl\drivers/peripheral/sysclk/cy_sysclk.h **** *******************************************************************************/
 842:Generated_Source\PSoC6\pdl\drivers/peripheral/sysclk/cy_sysclk.h **** __STATIC_INLINE cy_en_sysclk_status_t Cy_SysClk_FllDisable(void)
 843:Generated_Source\PSoC6\pdl\drivers/peripheral/sysclk/cy_sysclk.h **** {
 844:Generated_Source\PSoC6\pdl\drivers/peripheral/sysclk/cy_sysclk.h ****     SRSS->CLK_FLL_CONFIG  &= ~_VAL2FLD(SRSS_CLK_FLL_CONFIG_FLL_ENABLE,  1u); /* 0 = disable */
 845:Generated_Source\PSoC6\pdl\drivers/peripheral/sysclk/cy_sysclk.h ****     SRSS->CLK_FLL_CONFIG4 &= ~_VAL2FLD(SRSS_CLK_FLL_CONFIG4_CCO_ENABLE, 1u); /* 0 = disable */
 846:Generated_Source\PSoC6\pdl\drivers/peripheral/sysclk/cy_sysclk.h ****     return CY_SYSCLK_SUCCESS; /* placeholder */
 847:Generated_Source\PSoC6\pdl\drivers/peripheral/sysclk/cy_sysclk.h **** }
 848:Generated_Source\PSoC6\pdl\drivers/peripheral/sysclk/cy_sysclk.h **** /** \} group_sysclk_fll_funcs */
 849:Generated_Source\PSoC6\pdl\drivers/peripheral/sysclk/cy_sysclk.h **** 
 850:Generated_Source\PSoC6\pdl\drivers/peripheral/sysclk/cy_sysclk.h **** 
 851:Generated_Source\PSoC6\pdl\drivers/peripheral/sysclk/cy_sysclk.h **** /* ========================================================================== */
 852:Generated_Source\PSoC6\pdl\drivers/peripheral/sysclk/cy_sysclk.h **** /* ===========================    PLL SECTION    ============================ */
 853:Generated_Source\PSoC6\pdl\drivers/peripheral/sysclk/cy_sysclk.h **** /* ========================================================================== */
 854:Generated_Source\PSoC6\pdl\drivers/peripheral/sysclk/cy_sysclk.h **** /**
 855:Generated_Source\PSoC6\pdl\drivers/peripheral/sysclk/cy_sysclk.h **** * \addtogroup group_sysclk_pll_structs
 856:Generated_Source\PSoC6\pdl\drivers/peripheral/sysclk/cy_sysclk.h **** * \{
 857:Generated_Source\PSoC6\pdl\drivers/peripheral/sysclk/cy_sysclk.h **** */
 858:Generated_Source\PSoC6\pdl\drivers/peripheral/sysclk/cy_sysclk.h **** /** Structure containing information for configuration of a PLL.
 859:Generated_Source\PSoC6\pdl\drivers/peripheral/sysclk/cy_sysclk.h **** */
 860:Generated_Source\PSoC6\pdl\drivers/peripheral/sysclk/cy_sysclk.h **** typedef struct
 861:Generated_Source\PSoC6\pdl\drivers/peripheral/sysclk/cy_sysclk.h **** {
 862:Generated_Source\PSoC6\pdl\drivers/peripheral/sysclk/cy_sysclk.h ****     uint32_t                    inputFreq;  /**< frequency of PLL source, in Hz */
 863:Generated_Source\PSoC6\pdl\drivers/peripheral/sysclk/cy_sysclk.h ****     uint32_t                    outputFreq; /**< frequency of PLL output, in Hz */
 864:Generated_Source\PSoC6\pdl\drivers/peripheral/sysclk/cy_sysclk.h ****     bool                        lfMode;     /**< CLK_PLL_CONFIG register, PLL_LF_MODE bit */
 865:Generated_Source\PSoC6\pdl\drivers/peripheral/sysclk/cy_sysclk.h ****     cy_en_fll_pll_output_mode_t outputMode; /**< CLK_PLL_CONFIG register, BYPASS_SEL bits */
 866:Generated_Source\PSoC6\pdl\drivers/peripheral/sysclk/cy_sysclk.h **** } cy_stc_pll_config_t;
 867:Generated_Source\PSoC6\pdl\drivers/peripheral/sysclk/cy_sysclk.h **** 
 868:Generated_Source\PSoC6\pdl\drivers/peripheral/sysclk/cy_sysclk.h **** /** Structure containing information for manual configuration of a PLL.
 869:Generated_Source\PSoC6\pdl\drivers/peripheral/sysclk/cy_sysclk.h **** */
 870:Generated_Source\PSoC6\pdl\drivers/peripheral/sysclk/cy_sysclk.h **** typedef struct
 871:Generated_Source\PSoC6\pdl\drivers/peripheral/sysclk/cy_sysclk.h **** {
 872:Generated_Source\PSoC6\pdl\drivers/peripheral/sysclk/cy_sysclk.h ****     uint8_t                     feedbackDiv;  /**< CLK_PLL_CONFIG register, FEEDBACK_DIV (P) bits *
 873:Generated_Source\PSoC6\pdl\drivers/peripheral/sysclk/cy_sysclk.h ****     uint8_t                     referenceDiv; /**< CLK_PLL_CONFIG register, REFERENCE_DIV (Q) bits 
 874:Generated_Source\PSoC6\pdl\drivers/peripheral/sysclk/cy_sysclk.h ****     uint8_t                     outputDiv;    /**< CLK_PLL_CONFIG register, OUTPUT_DIV bits */
 875:Generated_Source\PSoC6\pdl\drivers/peripheral/sysclk/cy_sysclk.h ****     bool                        lfMode;       /**< CLK_PLL_CONFIG register, PLL_LF_MODE bit */
 876:Generated_Source\PSoC6\pdl\drivers/peripheral/sysclk/cy_sysclk.h ****     cy_en_fll_pll_output_mode_t outputMode;   /**< CLK_PLL_CONFIG register, BYPASS_SEL bits */
 877:Generated_Source\PSoC6\pdl\drivers/peripheral/sysclk/cy_sysclk.h **** } cy_stc_pll_manual_config_t;
 878:Generated_Source\PSoC6\pdl\drivers/peripheral/sysclk/cy_sysclk.h **** /** \} group_sysclk_pll_structs */
 879:Generated_Source\PSoC6\pdl\drivers/peripheral/sysclk/cy_sysclk.h **** 
 880:Generated_Source\PSoC6\pdl\drivers/peripheral/sysclk/cy_sysclk.h **** /**
 881:Generated_Source\PSoC6\pdl\drivers/peripheral/sysclk/cy_sysclk.h **** * \addtogroup group_sysclk_pll_funcs
 882:Generated_Source\PSoC6\pdl\drivers/peripheral/sysclk/cy_sysclk.h **** * \{
ARM GAS  C:\Users\kiwamu\AppData\Local\Temp\ccJm7GL2.s 			page 33


 883:Generated_Source\PSoC6\pdl\drivers/peripheral/sysclk/cy_sysclk.h **** */
 884:Generated_Source\PSoC6\pdl\drivers/peripheral/sysclk/cy_sysclk.h **** cy_en_sysclk_status_t Cy_SysClk_PllConfigure(uint32_t clkPath, const cy_stc_pll_config_t *config);
 885:Generated_Source\PSoC6\pdl\drivers/peripheral/sysclk/cy_sysclk.h **** cy_en_sysclk_status_t Cy_SysClk_PllManualConfigure(uint32_t clkPath, const cy_stc_pll_manual_config
 886:Generated_Source\PSoC6\pdl\drivers/peripheral/sysclk/cy_sysclk.h **** cy_en_sysclk_status_t Cy_SysClk_PllGetConfiguration(uint32_t clkPath, cy_stc_pll_manual_config_t *c
 887:Generated_Source\PSoC6\pdl\drivers/peripheral/sysclk/cy_sysclk.h **** cy_en_sysclk_status_t Cy_SysClk_PllEnable(uint32_t clkPath, uint32_t timeoutus);
 888:Generated_Source\PSoC6\pdl\drivers/peripheral/sysclk/cy_sysclk.h **** __STATIC_INLINE bool Cy_SysClk_PllLocked(uint32_t clkPath);
 889:Generated_Source\PSoC6\pdl\drivers/peripheral/sysclk/cy_sysclk.h **** __STATIC_INLINE bool Cy_SysClk_PllLostLock(uint32_t clkPath);
 890:Generated_Source\PSoC6\pdl\drivers/peripheral/sysclk/cy_sysclk.h **** __STATIC_INLINE cy_en_sysclk_status_t Cy_SysClk_PllDisable(uint32_t clkPath);
 891:Generated_Source\PSoC6\pdl\drivers/peripheral/sysclk/cy_sysclk.h **** 
 892:Generated_Source\PSoC6\pdl\drivers/peripheral/sysclk/cy_sysclk.h **** /*******************************************************************************
 893:Generated_Source\PSoC6\pdl\drivers/peripheral/sysclk/cy_sysclk.h **** * Function Name: Cy_SysClk_PllLocked
 894:Generated_Source\PSoC6\pdl\drivers/peripheral/sysclk/cy_sysclk.h **** ****************************************************************************//**
 895:Generated_Source\PSoC6\pdl\drivers/peripheral/sysclk/cy_sysclk.h **** *
 896:Generated_Source\PSoC6\pdl\drivers/peripheral/sysclk/cy_sysclk.h **** * Reports whether or not the selected PLL is locked.
 897:Generated_Source\PSoC6\pdl\drivers/peripheral/sysclk/cy_sysclk.h **** *
 898:Generated_Source\PSoC6\pdl\drivers/peripheral/sysclk/cy_sysclk.h **** * \param clkPath Selects which PLL to check. 1 is the first PLL; 0 is invalid.
 899:Generated_Source\PSoC6\pdl\drivers/peripheral/sysclk/cy_sysclk.h **** *
 900:Generated_Source\PSoC6\pdl\drivers/peripheral/sysclk/cy_sysclk.h **** * \return false = not locked, true = locked
 901:Generated_Source\PSoC6\pdl\drivers/peripheral/sysclk/cy_sysclk.h **** *
 902:Generated_Source\PSoC6\pdl\drivers/peripheral/sysclk/cy_sysclk.h **** *******************************************************************************/
 903:Generated_Source\PSoC6\pdl\drivers/peripheral/sysclk/cy_sysclk.h **** __STATIC_INLINE bool Cy_SysClk_PllLocked(uint32_t clkPath)
 904:Generated_Source\PSoC6\pdl\drivers/peripheral/sysclk/cy_sysclk.h **** {
 905:Generated_Source\PSoC6\pdl\drivers/peripheral/sysclk/cy_sysclk.h ****     CY_ASSERT_L1((clkPath != 0ul) && (clkPath <= SRSS_NUM_PLL));
 906:Generated_Source\PSoC6\pdl\drivers/peripheral/sysclk/cy_sysclk.h ****     return (bool)(_FLD2VAL(SRSS_CLK_PLL_STATUS_LOCKED, SRSS->CLK_PLL_STATUS[clkPath - 1ul]));
 907:Generated_Source\PSoC6\pdl\drivers/peripheral/sysclk/cy_sysclk.h **** }
 908:Generated_Source\PSoC6\pdl\drivers/peripheral/sysclk/cy_sysclk.h **** 
 909:Generated_Source\PSoC6\pdl\drivers/peripheral/sysclk/cy_sysclk.h **** /*******************************************************************************
 910:Generated_Source\PSoC6\pdl\drivers/peripheral/sysclk/cy_sysclk.h **** * Function Name: Cy_SysClk_PllLostLock
 911:Generated_Source\PSoC6\pdl\drivers/peripheral/sysclk/cy_sysclk.h **** ****************************************************************************//**
 912:Generated_Source\PSoC6\pdl\drivers/peripheral/sysclk/cy_sysclk.h **** *
 913:Generated_Source\PSoC6\pdl\drivers/peripheral/sysclk/cy_sysclk.h **** * Reports whether or not the selected PLL lost its lock since the last time this
 914:Generated_Source\PSoC6\pdl\drivers/peripheral/sysclk/cy_sysclk.h **** * function was called. Clears the lost lock indicator.
 915:Generated_Source\PSoC6\pdl\drivers/peripheral/sysclk/cy_sysclk.h **** *
 916:Generated_Source\PSoC6\pdl\drivers/peripheral/sysclk/cy_sysclk.h **** * \param clkPath Selects which PLL to check. 1 is the first PLL; 0 is invalid.
 917:Generated_Source\PSoC6\pdl\drivers/peripheral/sysclk/cy_sysclk.h **** *
 918:Generated_Source\PSoC6\pdl\drivers/peripheral/sysclk/cy_sysclk.h **** * \return 0 = didn't lose lock, 1 = lost lock
 919:Generated_Source\PSoC6\pdl\drivers/peripheral/sysclk/cy_sysclk.h **** *
 920:Generated_Source\PSoC6\pdl\drivers/peripheral/sysclk/cy_sysclk.h **** *******************************************************************************/
 921:Generated_Source\PSoC6\pdl\drivers/peripheral/sysclk/cy_sysclk.h **** __STATIC_INLINE bool Cy_SysClk_PllLostLock(uint32_t clkPath)
 922:Generated_Source\PSoC6\pdl\drivers/peripheral/sysclk/cy_sysclk.h **** {
 923:Generated_Source\PSoC6\pdl\drivers/peripheral/sysclk/cy_sysclk.h ****     uint32_t retval = 0ul;
 924:Generated_Source\PSoC6\pdl\drivers/peripheral/sysclk/cy_sysclk.h **** 
 925:Generated_Source\PSoC6\pdl\drivers/peripheral/sysclk/cy_sysclk.h ****     CY_ASSERT_L1((clkPath != 0ul) && (clkPath <= SRSS_NUM_PLL));
 926:Generated_Source\PSoC6\pdl\drivers/peripheral/sysclk/cy_sysclk.h **** 
 927:Generated_Source\PSoC6\pdl\drivers/peripheral/sysclk/cy_sysclk.h ****     retval = _FLD2VAL(SRSS_CLK_PLL_STATUS_UNLOCK_OCCURRED, SRSS->CLK_PLL_STATUS[clkPath - 1ul]);
 928:Generated_Source\PSoC6\pdl\drivers/peripheral/sysclk/cy_sysclk.h ****     /* write a 1 to clear the unlock occurred bit */
 929:Generated_Source\PSoC6\pdl\drivers/peripheral/sysclk/cy_sysclk.h ****     SRSS->CLK_PLL_STATUS[clkPath - 1ul] = _VAL2FLD(SRSS_CLK_PLL_STATUS_UNLOCK_OCCURRED, 1u);
 930:Generated_Source\PSoC6\pdl\drivers/peripheral/sysclk/cy_sysclk.h ****     return ((bool)retval);
 931:Generated_Source\PSoC6\pdl\drivers/peripheral/sysclk/cy_sysclk.h **** }
 932:Generated_Source\PSoC6\pdl\drivers/peripheral/sysclk/cy_sysclk.h **** 
 933:Generated_Source\PSoC6\pdl\drivers/peripheral/sysclk/cy_sysclk.h **** /*******************************************************************************
 934:Generated_Source\PSoC6\pdl\drivers/peripheral/sysclk/cy_sysclk.h **** * Function Name: Cy_SysClk_PllDisable
 935:Generated_Source\PSoC6\pdl\drivers/peripheral/sysclk/cy_sysclk.h **** ****************************************************************************//**
 936:Generated_Source\PSoC6\pdl\drivers/peripheral/sysclk/cy_sysclk.h **** *
 937:Generated_Source\PSoC6\pdl\drivers/peripheral/sysclk/cy_sysclk.h **** * Disables the selected PLL.
 938:Generated_Source\PSoC6\pdl\drivers/peripheral/sysclk/cy_sysclk.h **** *
 939:Generated_Source\PSoC6\pdl\drivers/peripheral/sysclk/cy_sysclk.h **** * \param clkPath Selects which PLL to disable. 1 is the first PLL; 0 is invalid.
ARM GAS  C:\Users\kiwamu\AppData\Local\Temp\ccJm7GL2.s 			page 34


 940:Generated_Source\PSoC6\pdl\drivers/peripheral/sysclk/cy_sysclk.h **** *
 941:Generated_Source\PSoC6\pdl\drivers/peripheral/sysclk/cy_sysclk.h **** * \return Error / status code:<br>
 942:Generated_Source\PSoC6\pdl\drivers/peripheral/sysclk/cy_sysclk.h **** * CY_SYSCLK_SUCCESS - PLL successfully disabled<br>
 943:Generated_Source\PSoC6\pdl\drivers/peripheral/sysclk/cy_sysclk.h **** * CY_SYSCLK_BAD_PARAM - invalid clock path number
 944:Generated_Source\PSoC6\pdl\drivers/peripheral/sysclk/cy_sysclk.h **** *
 945:Generated_Source\PSoC6\pdl\drivers/peripheral/sysclk/cy_sysclk.h **** *******************************************************************************/
 946:Generated_Source\PSoC6\pdl\drivers/peripheral/sysclk/cy_sysclk.h **** __STATIC_INLINE cy_en_sysclk_status_t Cy_SysClk_PllDisable(uint32_t clkPath)
 947:Generated_Source\PSoC6\pdl\drivers/peripheral/sysclk/cy_sysclk.h **** {
 948:Generated_Source\PSoC6\pdl\drivers/peripheral/sysclk/cy_sysclk.h ****     cy_en_sysclk_status_t retval = CY_SYSCLK_BAD_PARAM;
 949:Generated_Source\PSoC6\pdl\drivers/peripheral/sysclk/cy_sysclk.h ****     if ((clkPath != 0ul) && (clkPath <= SRSS_NUM_PLL))
 950:Generated_Source\PSoC6\pdl\drivers/peripheral/sysclk/cy_sysclk.h ****     {
 951:Generated_Source\PSoC6\pdl\drivers/peripheral/sysclk/cy_sysclk.h ****         SRSS->CLK_PLL_CONFIG[clkPath - 1ul] &= ~_VAL2FLD(SRSS_CLK_PLL_CONFIG_ENABLE, 1u); /* 0 = di
 952:Generated_Source\PSoC6\pdl\drivers/peripheral/sysclk/cy_sysclk.h ****         retval = CY_SYSCLK_SUCCESS;
 953:Generated_Source\PSoC6\pdl\drivers/peripheral/sysclk/cy_sysclk.h ****     }
 954:Generated_Source\PSoC6\pdl\drivers/peripheral/sysclk/cy_sysclk.h ****     return (retval);
 955:Generated_Source\PSoC6\pdl\drivers/peripheral/sysclk/cy_sysclk.h **** }
 956:Generated_Source\PSoC6\pdl\drivers/peripheral/sysclk/cy_sysclk.h **** /** \} group_sysclk_pll_funcs */
 957:Generated_Source\PSoC6\pdl\drivers/peripheral/sysclk/cy_sysclk.h **** 
 958:Generated_Source\PSoC6\pdl\drivers/peripheral/sysclk/cy_sysclk.h **** 
 959:Generated_Source\PSoC6\pdl\drivers/peripheral/sysclk/cy_sysclk.h **** /* ========================================================================== */
 960:Generated_Source\PSoC6\pdl\drivers/peripheral/sysclk/cy_sysclk.h **** /* ===========================    ILO SECTION    ============================ */
 961:Generated_Source\PSoC6\pdl\drivers/peripheral/sysclk/cy_sysclk.h **** /* ========================================================================== */
 962:Generated_Source\PSoC6\pdl\drivers/peripheral/sysclk/cy_sysclk.h **** /**
 963:Generated_Source\PSoC6\pdl\drivers/peripheral/sysclk/cy_sysclk.h **** * \addtogroup group_sysclk_ilo_funcs
 964:Generated_Source\PSoC6\pdl\drivers/peripheral/sysclk/cy_sysclk.h **** * \{
 965:Generated_Source\PSoC6\pdl\drivers/peripheral/sysclk/cy_sysclk.h **** */
 966:Generated_Source\PSoC6\pdl\drivers/peripheral/sysclk/cy_sysclk.h **** __STATIC_INLINE void Cy_SysClk_IloEnable(void);
 967:Generated_Source\PSoC6\pdl\drivers/peripheral/sysclk/cy_sysclk.h **** __STATIC_INLINE cy_en_sysclk_status_t Cy_SysClk_IloDisable(void);
 968:Generated_Source\PSoC6\pdl\drivers/peripheral/sysclk/cy_sysclk.h **** __STATIC_INLINE void Cy_SysClk_IloHibernateOn(bool on);
 969:Generated_Source\PSoC6\pdl\drivers/peripheral/sysclk/cy_sysclk.h **** 
 970:Generated_Source\PSoC6\pdl\drivers/peripheral/sysclk/cy_sysclk.h **** /*******************************************************************************
 971:Generated_Source\PSoC6\pdl\drivers/peripheral/sysclk/cy_sysclk.h **** * Function Name: Cy_SysClk_IloEnable
 972:Generated_Source\PSoC6\pdl\drivers/peripheral/sysclk/cy_sysclk.h **** ****************************************************************************//**
 973:Generated_Source\PSoC6\pdl\drivers/peripheral/sysclk/cy_sysclk.h **** *
 974:Generated_Source\PSoC6\pdl\drivers/peripheral/sysclk/cy_sysclk.h **** * Enables the ILO.
 975:Generated_Source\PSoC6\pdl\drivers/peripheral/sysclk/cy_sysclk.h **** *
 976:Generated_Source\PSoC6\pdl\drivers/peripheral/sysclk/cy_sysclk.h **** * \note The watchdog timer (WDT) must be unlocked before calling this function.
 977:Generated_Source\PSoC6\pdl\drivers/peripheral/sysclk/cy_sysclk.h **** *******************************************************************************/
 978:Generated_Source\PSoC6\pdl\drivers/peripheral/sysclk/cy_sysclk.h **** __STATIC_INLINE void Cy_SysClk_IloEnable(void)
 979:Generated_Source\PSoC6\pdl\drivers/peripheral/sysclk/cy_sysclk.h **** {
 980:Generated_Source\PSoC6\pdl\drivers/peripheral/sysclk/cy_sysclk.h ****     SRSS->CLK_ILO_CONFIG |= _VAL2FLD(SRSS_CLK_ILO_CONFIG_ENABLE, 1u); /* 1 = enable */
 981:Generated_Source\PSoC6\pdl\drivers/peripheral/sysclk/cy_sysclk.h **** }
 982:Generated_Source\PSoC6\pdl\drivers/peripheral/sysclk/cy_sysclk.h **** 
 983:Generated_Source\PSoC6\pdl\drivers/peripheral/sysclk/cy_sysclk.h **** /*******************************************************************************
 984:Generated_Source\PSoC6\pdl\drivers/peripheral/sysclk/cy_sysclk.h **** * Function Name: Cy_SysClk_IloDisable
 985:Generated_Source\PSoC6\pdl\drivers/peripheral/sysclk/cy_sysclk.h **** ****************************************************************************//**
 986:Generated_Source\PSoC6\pdl\drivers/peripheral/sysclk/cy_sysclk.h **** *
 987:Generated_Source\PSoC6\pdl\drivers/peripheral/sysclk/cy_sysclk.h **** * Disables the ILO. ILO can't be disabled if WDT is enabled.
 988:Generated_Source\PSoC6\pdl\drivers/peripheral/sysclk/cy_sysclk.h **** *
 989:Generated_Source\PSoC6\pdl\drivers/peripheral/sysclk/cy_sysclk.h **** * \return Error / status code:<br>
 990:Generated_Source\PSoC6\pdl\drivers/peripheral/sysclk/cy_sysclk.h **** * CY_SYSCLK_SUCCESS - ILO successfully disabled<br>
 991:Generated_Source\PSoC6\pdl\drivers/peripheral/sysclk/cy_sysclk.h **** * CY_SYSCLK_INVALID_STATE - Cannot disable the ILO if the WDT is enabled.
 992:Generated_Source\PSoC6\pdl\drivers/peripheral/sysclk/cy_sysclk.h **** *
 993:Generated_Source\PSoC6\pdl\drivers/peripheral/sysclk/cy_sysclk.h **** * \note The watchdog timer (WDT) must be unlocked before calling this function.
 994:Generated_Source\PSoC6\pdl\drivers/peripheral/sysclk/cy_sysclk.h **** * Do not call this function if the WDT is enabled, because the WDT is clocked by
 995:Generated_Source\PSoC6\pdl\drivers/peripheral/sysclk/cy_sysclk.h **** * the ILO.
 996:Generated_Source\PSoC6\pdl\drivers/peripheral/sysclk/cy_sysclk.h **** *******************************************************************************/
ARM GAS  C:\Users\kiwamu\AppData\Local\Temp\ccJm7GL2.s 			page 35


 997:Generated_Source\PSoC6\pdl\drivers/peripheral/sysclk/cy_sysclk.h **** __STATIC_INLINE cy_en_sysclk_status_t Cy_SysClk_IloDisable(void)
 998:Generated_Source\PSoC6\pdl\drivers/peripheral/sysclk/cy_sysclk.h **** {
 999:Generated_Source\PSoC6\pdl\drivers/peripheral/sysclk/cy_sysclk.h ****     cy_en_sysclk_status_t retval = CY_SYSCLK_INVALID_STATE;
1000:Generated_Source\PSoC6\pdl\drivers/peripheral/sysclk/cy_sysclk.h ****     if (_FLD2VAL(SRSS_WDT_CTL_WDT_EN, SRSS->WDT_CTL) == 0ul) /* 0 = disabled */
1001:Generated_Source\PSoC6\pdl\drivers/peripheral/sysclk/cy_sysclk.h ****     {
1002:Generated_Source\PSoC6\pdl\drivers/peripheral/sysclk/cy_sysclk.h ****         SRSS->CLK_ILO_CONFIG &= ~_VAL2FLD(SRSS_CLK_ILO_CONFIG_ENABLE, 1u); /* 0 = disable */
1003:Generated_Source\PSoC6\pdl\drivers/peripheral/sysclk/cy_sysclk.h ****         retval = CY_SYSCLK_SUCCESS;
1004:Generated_Source\PSoC6\pdl\drivers/peripheral/sysclk/cy_sysclk.h ****     }
1005:Generated_Source\PSoC6\pdl\drivers/peripheral/sysclk/cy_sysclk.h ****     return retval;
1006:Generated_Source\PSoC6\pdl\drivers/peripheral/sysclk/cy_sysclk.h **** }
1007:Generated_Source\PSoC6\pdl\drivers/peripheral/sysclk/cy_sysclk.h **** 
1008:Generated_Source\PSoC6\pdl\drivers/peripheral/sysclk/cy_sysclk.h **** /*******************************************************************************
1009:Generated_Source\PSoC6\pdl\drivers/peripheral/sysclk/cy_sysclk.h **** * Function Name: Cy_SysClk_IloHibernateOn
1010:Generated_Source\PSoC6\pdl\drivers/peripheral/sysclk/cy_sysclk.h **** ****************************************************************************//**
1011:Generated_Source\PSoC6\pdl\drivers/peripheral/sysclk/cy_sysclk.h **** *
1012:Generated_Source\PSoC6\pdl\drivers/peripheral/sysclk/cy_sysclk.h **** * Controls whether the ILO stays on during a hibernate, or through an XRES or
1013:Generated_Source\PSoC6\pdl\drivers/peripheral/sysclk/cy_sysclk.h **** * brown-out detect (BOD) event.
1014:Generated_Source\PSoC6\pdl\drivers/peripheral/sysclk/cy_sysclk.h **** *
1015:Generated_Source\PSoC6\pdl\drivers/peripheral/sysclk/cy_sysclk.h **** * \param on
1016:Generated_Source\PSoC6\pdl\drivers/peripheral/sysclk/cy_sysclk.h **** * 1 = ILO stays on during hibernate or across XRES/BOD. 0 = ILO turns off for
1017:Generated_Source\PSoC6\pdl\drivers/peripheral/sysclk/cy_sysclk.h **** * hibernate or XRES/BOD.
1018:Generated_Source\PSoC6\pdl\drivers/peripheral/sysclk/cy_sysclk.h **** *
1019:Generated_Source\PSoC6\pdl\drivers/peripheral/sysclk/cy_sysclk.h **** * \note Writes to the register/bit are ignored if the watchdog (WDT) is locked.
1020:Generated_Source\PSoC6\pdl\drivers/peripheral/sysclk/cy_sysclk.h **** *******************************************************************************/
1021:Generated_Source\PSoC6\pdl\drivers/peripheral/sysclk/cy_sysclk.h **** __STATIC_INLINE void Cy_SysClk_IloHibernateOn(bool on)
1022:Generated_Source\PSoC6\pdl\drivers/peripheral/sysclk/cy_sysclk.h **** {
1023:Generated_Source\PSoC6\pdl\drivers/peripheral/sysclk/cy_sysclk.h ****     CY_SYSCLK_CLR_SET(SRSS->CLK_ILO_CONFIG, SRSS_CLK_ILO_CONFIG_ILO_BACKUP, (uint32_t)on);
1024:Generated_Source\PSoC6\pdl\drivers/peripheral/sysclk/cy_sysclk.h **** }
1025:Generated_Source\PSoC6\pdl\drivers/peripheral/sysclk/cy_sysclk.h **** /** \} group_sysclk_ilo_funcs */
1026:Generated_Source\PSoC6\pdl\drivers/peripheral/sysclk/cy_sysclk.h **** 
1027:Generated_Source\PSoC6\pdl\drivers/peripheral/sysclk/cy_sysclk.h **** 
1028:Generated_Source\PSoC6\pdl\drivers/peripheral/sysclk/cy_sysclk.h **** /* ========================================================================== */
1029:Generated_Source\PSoC6\pdl\drivers/peripheral/sysclk/cy_sysclk.h **** /* ===========================    PILO SECTION    =========================== */
1030:Generated_Source\PSoC6\pdl\drivers/peripheral/sysclk/cy_sysclk.h **** /* ========================================================================== */
1031:Generated_Source\PSoC6\pdl\drivers/peripheral/sysclk/cy_sysclk.h **** /**
1032:Generated_Source\PSoC6\pdl\drivers/peripheral/sysclk/cy_sysclk.h **** * \addtogroup group_sysclk_pilo_funcs
1033:Generated_Source\PSoC6\pdl\drivers/peripheral/sysclk/cy_sysclk.h **** * \{
1034:Generated_Source\PSoC6\pdl\drivers/peripheral/sysclk/cy_sysclk.h **** */
1035:Generated_Source\PSoC6\pdl\drivers/peripheral/sysclk/cy_sysclk.h **** __STATIC_INLINE void Cy_SysClk_PiloEnable(void);
1036:Generated_Source\PSoC6\pdl\drivers/peripheral/sysclk/cy_sysclk.h **** __STATIC_INLINE void Cy_SysClk_PiloDisable(void);
1037:Generated_Source\PSoC6\pdl\drivers/peripheral/sysclk/cy_sysclk.h **** __STATIC_INLINE void Cy_SysClk_PiloSetTrim(uint32_t trimVal);
1038:Generated_Source\PSoC6\pdl\drivers/peripheral/sysclk/cy_sysclk.h **** __STATIC_INLINE uint32_t Cy_SysClk_PiloGetTrim(void);
1039:Generated_Source\PSoC6\pdl\drivers/peripheral/sysclk/cy_sysclk.h **** 
1040:Generated_Source\PSoC6\pdl\drivers/peripheral/sysclk/cy_sysclk.h **** /*******************************************************************************
1041:Generated_Source\PSoC6\pdl\drivers/peripheral/sysclk/cy_sysclk.h **** * Function Name: Cy_SysClk_PiloEnable
1042:Generated_Source\PSoC6\pdl\drivers/peripheral/sysclk/cy_sysclk.h **** ****************************************************************************//**
1043:Generated_Source\PSoC6\pdl\drivers/peripheral/sysclk/cy_sysclk.h **** *
1044:Generated_Source\PSoC6\pdl\drivers/peripheral/sysclk/cy_sysclk.h **** * Enables the PILO.
1045:Generated_Source\PSoC6\pdl\drivers/peripheral/sysclk/cy_sysclk.h **** *
1046:Generated_Source\PSoC6\pdl\drivers/peripheral/sysclk/cy_sysclk.h **** * \note Requires 1 msec, for delay between enabling the PILO and releasing the
1047:Generated_Source\PSoC6\pdl\drivers/peripheral/sysclk/cy_sysclk.h **** * PILO reset.
1048:Generated_Source\PSoC6\pdl\drivers/peripheral/sysclk/cy_sysclk.h **** *******************************************************************************/
1049:Generated_Source\PSoC6\pdl\drivers/peripheral/sysclk/cy_sysclk.h **** __STATIC_INLINE void Cy_SysClk_PiloEnable(void)
1050:Generated_Source\PSoC6\pdl\drivers/peripheral/sysclk/cy_sysclk.h **** {
1051:Generated_Source\PSoC6\pdl\drivers/peripheral/sysclk/cy_sysclk.h ****     SRSS->CLK_PILO_CONFIG |= _VAL2FLD(SRSS_CLK_PILO_CONFIG_PILO_EN, 1u); /* 1 = enable */
1052:Generated_Source\PSoC6\pdl\drivers/peripheral/sysclk/cy_sysclk.h ****     Cy_SysLib_Delay(1/*msec*/);
1053:Generated_Source\PSoC6\pdl\drivers/peripheral/sysclk/cy_sysclk.h ****     /* release the reset and enable clock output */
ARM GAS  C:\Users\kiwamu\AppData\Local\Temp\ccJm7GL2.s 			page 36


1054:Generated_Source\PSoC6\pdl\drivers/peripheral/sysclk/cy_sysclk.h ****     SRSS->CLK_PILO_CONFIG |= (_VAL2FLD(SRSS_CLK_PILO_CONFIG_PILO_RESET_N, 1u) |
1055:Generated_Source\PSoC6\pdl\drivers/peripheral/sysclk/cy_sysclk.h ****                               _VAL2FLD(SRSS_CLK_PILO_CONFIG_PILO_CLK_EN, 1u));
1056:Generated_Source\PSoC6\pdl\drivers/peripheral/sysclk/cy_sysclk.h **** }
1057:Generated_Source\PSoC6\pdl\drivers/peripheral/sysclk/cy_sysclk.h **** 
1058:Generated_Source\PSoC6\pdl\drivers/peripheral/sysclk/cy_sysclk.h **** /*******************************************************************************
1059:Generated_Source\PSoC6\pdl\drivers/peripheral/sysclk/cy_sysclk.h **** * Function Name: Cy_SysClk_PiloDisable
1060:Generated_Source\PSoC6\pdl\drivers/peripheral/sysclk/cy_sysclk.h **** ****************************************************************************//**
1061:Generated_Source\PSoC6\pdl\drivers/peripheral/sysclk/cy_sysclk.h **** *
1062:Generated_Source\PSoC6\pdl\drivers/peripheral/sysclk/cy_sysclk.h **** * Disables the PILO.
1063:Generated_Source\PSoC6\pdl\drivers/peripheral/sysclk/cy_sysclk.h **** *
1064:Generated_Source\PSoC6\pdl\drivers/peripheral/sysclk/cy_sysclk.h **** *******************************************************************************/
1065:Generated_Source\PSoC6\pdl\drivers/peripheral/sysclk/cy_sysclk.h **** __STATIC_INLINE void Cy_SysClk_PiloDisable(void)
1066:Generated_Source\PSoC6\pdl\drivers/peripheral/sysclk/cy_sysclk.h **** {
1067:Generated_Source\PSoC6\pdl\drivers/peripheral/sysclk/cy_sysclk.h ****     /* Clear PILO_EN, PILO_RESET_N, and PILO_CLK_EN bitfields. This disables the
1068:Generated_Source\PSoC6\pdl\drivers/peripheral/sysclk/cy_sysclk.h ****        PILO and holds the PILO in a reset state. */
1069:Generated_Source\PSoC6\pdl\drivers/peripheral/sysclk/cy_sysclk.h ****     SRSS->CLK_PILO_CONFIG &= ~(_VAL2FLD(SRSS_CLK_PILO_CONFIG_PILO_EN, 1u)      |
1070:Generated_Source\PSoC6\pdl\drivers/peripheral/sysclk/cy_sysclk.h ****                                _VAL2FLD(SRSS_CLK_PILO_CONFIG_PILO_RESET_N, 1u) |
1071:Generated_Source\PSoC6\pdl\drivers/peripheral/sysclk/cy_sysclk.h ****                                _VAL2FLD(SRSS_CLK_PILO_CONFIG_PILO_CLK_EN, 1u));
1072:Generated_Source\PSoC6\pdl\drivers/peripheral/sysclk/cy_sysclk.h **** }
1073:Generated_Source\PSoC6\pdl\drivers/peripheral/sysclk/cy_sysclk.h **** 
1074:Generated_Source\PSoC6\pdl\drivers/peripheral/sysclk/cy_sysclk.h **** /*******************************************************************************
1075:Generated_Source\PSoC6\pdl\drivers/peripheral/sysclk/cy_sysclk.h **** * Function Name: Cy_SysClk_PiloSetTrim
1076:Generated_Source\PSoC6\pdl\drivers/peripheral/sysclk/cy_sysclk.h **** ****************************************************************************//**
1077:Generated_Source\PSoC6\pdl\drivers/peripheral/sysclk/cy_sysclk.h **** *
1078:Generated_Source\PSoC6\pdl\drivers/peripheral/sysclk/cy_sysclk.h **** * Sets the PILO trim bits, which adjusts the PILO frequency. This is typically
1079:Generated_Source\PSoC6\pdl\drivers/peripheral/sysclk/cy_sysclk.h **** * done after measuring the PILO frequency; see \ref Cy_SysClk_StartClkMeasurementCounters().
1080:Generated_Source\PSoC6\pdl\drivers/peripheral/sysclk/cy_sysclk.h **** *
1081:Generated_Source\PSoC6\pdl\drivers/peripheral/sysclk/cy_sysclk.h **** *******************************************************************************/
1082:Generated_Source\PSoC6\pdl\drivers/peripheral/sysclk/cy_sysclk.h **** __STATIC_INLINE void Cy_SysClk_PiloSetTrim(uint32_t trimVal)
1083:Generated_Source\PSoC6\pdl\drivers/peripheral/sysclk/cy_sysclk.h **** {
1084:Generated_Source\PSoC6\pdl\drivers/peripheral/sysclk/cy_sysclk.h ****     CY_SYSCLK_CLR_SET(SRSS->CLK_PILO_CONFIG, SRSS_CLK_PILO_CONFIG_PILO_FFREQ, trimVal);
1085:Generated_Source\PSoC6\pdl\drivers/peripheral/sysclk/cy_sysclk.h **** }
1086:Generated_Source\PSoC6\pdl\drivers/peripheral/sysclk/cy_sysclk.h **** 
1087:Generated_Source\PSoC6\pdl\drivers/peripheral/sysclk/cy_sysclk.h **** /*******************************************************************************
1088:Generated_Source\PSoC6\pdl\drivers/peripheral/sysclk/cy_sysclk.h **** * Function Name: Cy_SysClk_PiloGetTrim
1089:Generated_Source\PSoC6\pdl\drivers/peripheral/sysclk/cy_sysclk.h **** ****************************************************************************//**
1090:Generated_Source\PSoC6\pdl\drivers/peripheral/sysclk/cy_sysclk.h **** *
1091:Generated_Source\PSoC6\pdl\drivers/peripheral/sysclk/cy_sysclk.h **** * Reports the current PILO trim bits value.
1092:Generated_Source\PSoC6\pdl\drivers/peripheral/sysclk/cy_sysclk.h **** *
1093:Generated_Source\PSoC6\pdl\drivers/peripheral/sysclk/cy_sysclk.h **** *******************************************************************************/
1094:Generated_Source\PSoC6\pdl\drivers/peripheral/sysclk/cy_sysclk.h **** __STATIC_INLINE uint32_t Cy_SysClk_PiloGetTrim(void)
1095:Generated_Source\PSoC6\pdl\drivers/peripheral/sysclk/cy_sysclk.h **** {
1096:Generated_Source\PSoC6\pdl\drivers/peripheral/sysclk/cy_sysclk.h ****     return (_FLD2VAL(SRSS_CLK_PILO_CONFIG_PILO_FFREQ, SRSS->CLK_PILO_CONFIG));
1097:Generated_Source\PSoC6\pdl\drivers/peripheral/sysclk/cy_sysclk.h **** }
1098:Generated_Source\PSoC6\pdl\drivers/peripheral/sysclk/cy_sysclk.h **** /** \} group_sysclk_pilo_funcs */
1099:Generated_Source\PSoC6\pdl\drivers/peripheral/sysclk/cy_sysclk.h **** 
1100:Generated_Source\PSoC6\pdl\drivers/peripheral/sysclk/cy_sysclk.h **** 
1101:Generated_Source\PSoC6\pdl\drivers/peripheral/sysclk/cy_sysclk.h **** /* ========================================================================== */
1102:Generated_Source\PSoC6\pdl\drivers/peripheral/sysclk/cy_sysclk.h **** /* ====================    CLOCK MEASUREMENT SECTION    ===================== */
1103:Generated_Source\PSoC6\pdl\drivers/peripheral/sysclk/cy_sysclk.h **** /* ========================================================================== */
1104:Generated_Source\PSoC6\pdl\drivers/peripheral/sysclk/cy_sysclk.h **** /**
1105:Generated_Source\PSoC6\pdl\drivers/peripheral/sysclk/cy_sysclk.h **** * \addtogroup group_sysclk_calclk_enums
1106:Generated_Source\PSoC6\pdl\drivers/peripheral/sysclk/cy_sysclk.h **** * \{
1107:Generated_Source\PSoC6\pdl\drivers/peripheral/sysclk/cy_sysclk.h **** */
1108:Generated_Source\PSoC6\pdl\drivers/peripheral/sysclk/cy_sysclk.h **** /** Defines all possible clock sources. */
1109:Generated_Source\PSoC6\pdl\drivers/peripheral/sysclk/cy_sysclk.h **** typedef enum
1110:Generated_Source\PSoC6\pdl\drivers/peripheral/sysclk/cy_sysclk.h **** {
ARM GAS  C:\Users\kiwamu\AppData\Local\Temp\ccJm7GL2.s 			page 37


1111:Generated_Source\PSoC6\pdl\drivers/peripheral/sysclk/cy_sysclk.h ****     CY_SYSCLK_MEAS_CLK_ILO =           1u,
1112:Generated_Source\PSoC6\pdl\drivers/peripheral/sysclk/cy_sysclk.h ****     CY_SYSCLK_MEAS_CLK_WCO =           2u,
1113:Generated_Source\PSoC6\pdl\drivers/peripheral/sysclk/cy_sysclk.h ****     CY_SYSCLK_MEAS_CLK_BAK =           3u,
1114:Generated_Source\PSoC6\pdl\drivers/peripheral/sysclk/cy_sysclk.h ****     CY_SYSCLK_MEAS_CLK_ALTLF =         4u,
1115:Generated_Source\PSoC6\pdl\drivers/peripheral/sysclk/cy_sysclk.h ****     CY_SYSCLK_MEAS_CLK_LFCLK =         5u,
1116:Generated_Source\PSoC6\pdl\drivers/peripheral/sysclk/cy_sysclk.h ****     CY_SYSCLK_MEAS_CLK_IMO =           6u,
1117:Generated_Source\PSoC6\pdl\drivers/peripheral/sysclk/cy_sysclk.h ****     CY_SYSCLK_MEAS_CLK_PILO =          8u,
1118:Generated_Source\PSoC6\pdl\drivers/peripheral/sysclk/cy_sysclk.h ****     CY_SYSCLK_MEAS_CLK_FAST_CLKS =     0x100u,
1119:Generated_Source\PSoC6\pdl\drivers/peripheral/sysclk/cy_sysclk.h ****     CY_SYSCLK_MEAS_CLK_ECO =           0x101u,
1120:Generated_Source\PSoC6\pdl\drivers/peripheral/sysclk/cy_sysclk.h ****     CY_SYSCLK_MEAS_CLK_EXT =           0x102u,
1121:Generated_Source\PSoC6\pdl\drivers/peripheral/sysclk/cy_sysclk.h ****     CY_SYSCLK_MEAS_CLK_ALTHF =         0x103u,
1122:Generated_Source\PSoC6\pdl\drivers/peripheral/sysclk/cy_sysclk.h ****     CY_SYSCLK_MEAS_CLK_PATH_CLKS =     0x500u,
1123:Generated_Source\PSoC6\pdl\drivers/peripheral/sysclk/cy_sysclk.h ****     CY_SYSCLK_MEAS_CLK_PATH0 =         0x500u,
1124:Generated_Source\PSoC6\pdl\drivers/peripheral/sysclk/cy_sysclk.h ****     CY_SYSCLK_MEAS_CLK_PATH1 =         0x501u,
1125:Generated_Source\PSoC6\pdl\drivers/peripheral/sysclk/cy_sysclk.h ****     CY_SYSCLK_MEAS_CLK_PATH2 =         0x502u,
1126:Generated_Source\PSoC6\pdl\drivers/peripheral/sysclk/cy_sysclk.h ****     CY_SYSCLK_MEAS_CLK_PATH3 =         0x503u,
1127:Generated_Source\PSoC6\pdl\drivers/peripheral/sysclk/cy_sysclk.h ****     CY_SYSCLK_MEAS_CLK_PATH4 =         0x504u,
1128:Generated_Source\PSoC6\pdl\drivers/peripheral/sysclk/cy_sysclk.h ****     CY_SYSCLK_MEAS_CLK_PATH5 =         0x505u,
1129:Generated_Source\PSoC6\pdl\drivers/peripheral/sysclk/cy_sysclk.h ****     CY_SYSCLK_MEAS_CLK_PATH6 =         0x506u,
1130:Generated_Source\PSoC6\pdl\drivers/peripheral/sysclk/cy_sysclk.h ****     CY_SYSCLK_MEAS_CLK_PATH7 =         0x507u,
1131:Generated_Source\PSoC6\pdl\drivers/peripheral/sysclk/cy_sysclk.h ****     CY_SYSCLK_MEAS_CLK_PATH8 =         0x508u,
1132:Generated_Source\PSoC6\pdl\drivers/peripheral/sysclk/cy_sysclk.h ****     CY_SYSCLK_MEAS_CLK_PATH9 =         0x509u,
1133:Generated_Source\PSoC6\pdl\drivers/peripheral/sysclk/cy_sysclk.h ****     CY_SYSCLK_MEAS_CLK_PATH10 =        0x50Au,
1134:Generated_Source\PSoC6\pdl\drivers/peripheral/sysclk/cy_sysclk.h ****     CY_SYSCLK_MEAS_CLK_PATH11 =        0x50Bu,
1135:Generated_Source\PSoC6\pdl\drivers/peripheral/sysclk/cy_sysclk.h ****     CY_SYSCLK_MEAS_CLK_PATH12 =        0x50Cu,
1136:Generated_Source\PSoC6\pdl\drivers/peripheral/sysclk/cy_sysclk.h ****     CY_SYSCLK_MEAS_CLK_PATH13 =        0x50Du,
1137:Generated_Source\PSoC6\pdl\drivers/peripheral/sysclk/cy_sysclk.h ****     CY_SYSCLK_MEAS_CLK_PATH14 =        0x50Eu,
1138:Generated_Source\PSoC6\pdl\drivers/peripheral/sysclk/cy_sysclk.h ****     CY_SYSCLK_MEAS_CLK_PATH15 =        0x50Fu,
1139:Generated_Source\PSoC6\pdl\drivers/peripheral/sysclk/cy_sysclk.h ****     CY_SYSCLK_MEAS_CLK_CLKHFS =        0x600u,
1140:Generated_Source\PSoC6\pdl\drivers/peripheral/sysclk/cy_sysclk.h ****     CY_SYSCLK_MEAS_CLK_CLKHF0 =        0x600u,
1141:Generated_Source\PSoC6\pdl\drivers/peripheral/sysclk/cy_sysclk.h ****     CY_SYSCLK_MEAS_CLK_CLKHF1 =        0x601u,
1142:Generated_Source\PSoC6\pdl\drivers/peripheral/sysclk/cy_sysclk.h ****     CY_SYSCLK_MEAS_CLK_CLKHF2 =        0x602u,
1143:Generated_Source\PSoC6\pdl\drivers/peripheral/sysclk/cy_sysclk.h ****     CY_SYSCLK_MEAS_CLK_CLKHF3 =        0x603u,
1144:Generated_Source\PSoC6\pdl\drivers/peripheral/sysclk/cy_sysclk.h ****     CY_SYSCLK_MEAS_CLK_CLKHF4 =        0x604u,
1145:Generated_Source\PSoC6\pdl\drivers/peripheral/sysclk/cy_sysclk.h ****     CY_SYSCLK_MEAS_CLK_CLKHF5 =        0x605u,
1146:Generated_Source\PSoC6\pdl\drivers/peripheral/sysclk/cy_sysclk.h ****     CY_SYSCLK_MEAS_CLK_CLKHF6 =        0x606u,
1147:Generated_Source\PSoC6\pdl\drivers/peripheral/sysclk/cy_sysclk.h ****     CY_SYSCLK_MEAS_CLK_CLKHF7 =        0x607u,
1148:Generated_Source\PSoC6\pdl\drivers/peripheral/sysclk/cy_sysclk.h ****     CY_SYSCLK_MEAS_CLK_CLKHF8 =        0x608u,
1149:Generated_Source\PSoC6\pdl\drivers/peripheral/sysclk/cy_sysclk.h ****     CY_SYSCLK_MEAS_CLK_CLKHF9 =        0x609u,
1150:Generated_Source\PSoC6\pdl\drivers/peripheral/sysclk/cy_sysclk.h ****     CY_SYSCLK_MEAS_CLK_CLKHF10 =       0x60Au,
1151:Generated_Source\PSoC6\pdl\drivers/peripheral/sysclk/cy_sysclk.h ****     CY_SYSCLK_MEAS_CLK_CLKHF11 =       0x60Bu,
1152:Generated_Source\PSoC6\pdl\drivers/peripheral/sysclk/cy_sysclk.h ****     CY_SYSCLK_MEAS_CLK_CLKHF12 =       0x60Cu,
1153:Generated_Source\PSoC6\pdl\drivers/peripheral/sysclk/cy_sysclk.h ****     CY_SYSCLK_MEAS_CLK_CLKHF13 =       0x60Du,
1154:Generated_Source\PSoC6\pdl\drivers/peripheral/sysclk/cy_sysclk.h ****     CY_SYSCLK_MEAS_CLK_CLKHF14 =       0x60Eu,
1155:Generated_Source\PSoC6\pdl\drivers/peripheral/sysclk/cy_sysclk.h ****     CY_SYSCLK_MEAS_CLK_CLKHF15 =       0x60Fu,
1156:Generated_Source\PSoC6\pdl\drivers/peripheral/sysclk/cy_sysclk.h ****     CY_SYSCLK_MEAS_CLK_LAST_CLK =      0x610u
1157:Generated_Source\PSoC6\pdl\drivers/peripheral/sysclk/cy_sysclk.h **** } cy_en_meas_clks_t;
1158:Generated_Source\PSoC6\pdl\drivers/peripheral/sysclk/cy_sysclk.h **** /** \} group_sysclk_calclk_enums */
1159:Generated_Source\PSoC6\pdl\drivers/peripheral/sysclk/cy_sysclk.h **** 
1160:Generated_Source\PSoC6\pdl\drivers/peripheral/sysclk/cy_sysclk.h **** /**
1161:Generated_Source\PSoC6\pdl\drivers/peripheral/sysclk/cy_sysclk.h **** * \addtogroup group_sysclk_calclk_funcs
1162:Generated_Source\PSoC6\pdl\drivers/peripheral/sysclk/cy_sysclk.h **** * \{
1163:Generated_Source\PSoC6\pdl\drivers/peripheral/sysclk/cy_sysclk.h **** */
1164:Generated_Source\PSoC6\pdl\drivers/peripheral/sysclk/cy_sysclk.h **** cy_en_sysclk_status_t Cy_SysClk_StartClkMeasurementCounters(cy_en_meas_clks_t clock1, uint32_t coun
1165:Generated_Source\PSoC6\pdl\drivers/peripheral/sysclk/cy_sysclk.h **** __STATIC_INLINE bool Cy_SysClk_ClkMeasurementCountersDone(void);
1166:Generated_Source\PSoC6\pdl\drivers/peripheral/sysclk/cy_sysclk.h **** uint32_t Cy_SysClk_ClkMeasurementCountersGetFreq(bool measuredClock, uint32_t refClkFreq);
1167:Generated_Source\PSoC6\pdl\drivers/peripheral/sysclk/cy_sysclk.h **** 
ARM GAS  C:\Users\kiwamu\AppData\Local\Temp\ccJm7GL2.s 			page 38


1168:Generated_Source\PSoC6\pdl\drivers/peripheral/sysclk/cy_sysclk.h **** /*******************************************************************************
1169:Generated_Source\PSoC6\pdl\drivers/peripheral/sysclk/cy_sysclk.h **** * Function Name: Cy_SysClk_ClkMeasurementCountersDone
1170:Generated_Source\PSoC6\pdl\drivers/peripheral/sysclk/cy_sysclk.h **** ****************************************************************************//**
1171:Generated_Source\PSoC6\pdl\drivers/peripheral/sysclk/cy_sysclk.h **** *
1172:Generated_Source\PSoC6\pdl\drivers/peripheral/sysclk/cy_sysclk.h **** * Checks if clock measurement counting is done, that is, counter1 has counted down
1173:Generated_Source\PSoC6\pdl\drivers/peripheral/sysclk/cy_sysclk.h **** * to zero. Call \ref Cy_SysClk_StartClkMeasurementCounters() before calling this function.
1174:Generated_Source\PSoC6\pdl\drivers/peripheral/sysclk/cy_sysclk.h **** *
1175:Generated_Source\PSoC6\pdl\drivers/peripheral/sysclk/cy_sysclk.h **** * \return Status of calibration counters: true if done, false if not.
1176:Generated_Source\PSoC6\pdl\drivers/peripheral/sysclk/cy_sysclk.h **** *
1177:Generated_Source\PSoC6\pdl\drivers/peripheral/sysclk/cy_sysclk.h **** *******************************************************************************/
1178:Generated_Source\PSoC6\pdl\drivers/peripheral/sysclk/cy_sysclk.h **** __STATIC_INLINE bool Cy_SysClk_ClkMeasurementCountersDone(void)
1179:Generated_Source\PSoC6\pdl\drivers/peripheral/sysclk/cy_sysclk.h **** {
1180:Generated_Source\PSoC6\pdl\drivers/peripheral/sysclk/cy_sysclk.h ****     return (_FLD2VAL(SRSS_CLK_CAL_CNT1_CAL_COUNTER_DONE, SRSS->CLK_CAL_CNT1)); /* 1 = done */
1181:Generated_Source\PSoC6\pdl\drivers/peripheral/sysclk/cy_sysclk.h **** }
1182:Generated_Source\PSoC6\pdl\drivers/peripheral/sysclk/cy_sysclk.h **** /** \} group_sysclk_calclk_funcs */
1183:Generated_Source\PSoC6\pdl\drivers/peripheral/sysclk/cy_sysclk.h **** 
1184:Generated_Source\PSoC6\pdl\drivers/peripheral/sysclk/cy_sysclk.h **** 
1185:Generated_Source\PSoC6\pdl\drivers/peripheral/sysclk/cy_sysclk.h **** /* ========================================================================== */
1186:Generated_Source\PSoC6\pdl\drivers/peripheral/sysclk/cy_sysclk.h **** /* ==========================    TRIM SECTION    ============================ */
1187:Generated_Source\PSoC6\pdl\drivers/peripheral/sysclk/cy_sysclk.h **** /* ========================================================================== */
1188:Generated_Source\PSoC6\pdl\drivers/peripheral/sysclk/cy_sysclk.h **** /**
1189:Generated_Source\PSoC6\pdl\drivers/peripheral/sysclk/cy_sysclk.h **** * \addtogroup group_sysclk_trim_funcs
1190:Generated_Source\PSoC6\pdl\drivers/peripheral/sysclk/cy_sysclk.h **** * \{
1191:Generated_Source\PSoC6\pdl\drivers/peripheral/sysclk/cy_sysclk.h **** */
1192:Generated_Source\PSoC6\pdl\drivers/peripheral/sysclk/cy_sysclk.h **** int32_t Cy_SysClk_IloTrim(uint32_t iloFreq);
1193:Generated_Source\PSoC6\pdl\drivers/peripheral/sysclk/cy_sysclk.h **** int32_t Cy_SysClk_PiloTrim(uint32_t piloFreq);
1194:Generated_Source\PSoC6\pdl\drivers/peripheral/sysclk/cy_sysclk.h **** /** \} group_sysclk_trim_funcs */
1195:Generated_Source\PSoC6\pdl\drivers/peripheral/sysclk/cy_sysclk.h **** 
1196:Generated_Source\PSoC6\pdl\drivers/peripheral/sysclk/cy_sysclk.h **** 
1197:Generated_Source\PSoC6\pdl\drivers/peripheral/sysclk/cy_sysclk.h **** /* ========================================================================== */
1198:Generated_Source\PSoC6\pdl\drivers/peripheral/sysclk/cy_sysclk.h **** /* ======================    POWER MANAGEMENT SECTION    ==================== */
1199:Generated_Source\PSoC6\pdl\drivers/peripheral/sysclk/cy_sysclk.h **** /* ========================================================================== */
1200:Generated_Source\PSoC6\pdl\drivers/peripheral/sysclk/cy_sysclk.h **** /**
1201:Generated_Source\PSoC6\pdl\drivers/peripheral/sysclk/cy_sysclk.h **** * \addtogroup group_sysclk_pm_funcs
1202:Generated_Source\PSoC6\pdl\drivers/peripheral/sysclk/cy_sysclk.h **** * \{
1203:Generated_Source\PSoC6\pdl\drivers/peripheral/sysclk/cy_sysclk.h **** */
1204:Generated_Source\PSoC6\pdl\drivers/peripheral/sysclk/cy_sysclk.h **** cy_en_syspm_status_t Cy_SysClk_DeepSleepCallback(cy_stc_syspm_callback_params_t *callbackParams);
1205:Generated_Source\PSoC6\pdl\drivers/peripheral/sysclk/cy_sysclk.h **** /** \} group_sysclk_pm_funcs */
1206:Generated_Source\PSoC6\pdl\drivers/peripheral/sysclk/cy_sysclk.h **** 
1207:Generated_Source\PSoC6\pdl\drivers/peripheral/sysclk/cy_sysclk.h **** 
1208:Generated_Source\PSoC6\pdl\drivers/peripheral/sysclk/cy_sysclk.h **** /* ========================================================================== */
1209:Generated_Source\PSoC6\pdl\drivers/peripheral/sysclk/cy_sysclk.h **** /* ===========================    WCO SECTION    ============================ */
1210:Generated_Source\PSoC6\pdl\drivers/peripheral/sysclk/cy_sysclk.h **** /* ========================================================================== */
1211:Generated_Source\PSoC6\pdl\drivers/peripheral/sysclk/cy_sysclk.h **** /**
1212:Generated_Source\PSoC6\pdl\drivers/peripheral/sysclk/cy_sysclk.h **** * \addtogroup group_sysclk_wco_enums
1213:Generated_Source\PSoC6\pdl\drivers/peripheral/sysclk/cy_sysclk.h **** * \{
1214:Generated_Source\PSoC6\pdl\drivers/peripheral/sysclk/cy_sysclk.h **** */
1215:Generated_Source\PSoC6\pdl\drivers/peripheral/sysclk/cy_sysclk.h **** /** WCO bypass modes */
1216:Generated_Source\PSoC6\pdl\drivers/peripheral/sysclk/cy_sysclk.h **** typedef enum
1217:Generated_Source\PSoC6\pdl\drivers/peripheral/sysclk/cy_sysclk.h **** {
1218:Generated_Source\PSoC6\pdl\drivers/peripheral/sysclk/cy_sysclk.h ****     CY_SYSCLK_WCO_NOT_BYPASSED = 0u, /**< WCO is not bypassed crystal is used */
1219:Generated_Source\PSoC6\pdl\drivers/peripheral/sysclk/cy_sysclk.h ****     CY_SYSCLK_WCO_BYPASSED = 1u      /**< WCO is bypassed external clock must be supplied  on XTAL 
1220:Generated_Source\PSoC6\pdl\drivers/peripheral/sysclk/cy_sysclk.h **** } cy_en_wco_bypass_modes_t;
1221:Generated_Source\PSoC6\pdl\drivers/peripheral/sysclk/cy_sysclk.h **** 
1222:Generated_Source\PSoC6\pdl\drivers/peripheral/sysclk/cy_sysclk.h **** /** WCO CSV supervisor clock selections */
1223:Generated_Source\PSoC6\pdl\drivers/peripheral/sysclk/cy_sysclk.h **** typedef enum
1224:Generated_Source\PSoC6\pdl\drivers/peripheral/sysclk/cy_sysclk.h **** {
ARM GAS  C:\Users\kiwamu\AppData\Local\Temp\ccJm7GL2.s 			page 39


1225:Generated_Source\PSoC6\pdl\drivers/peripheral/sysclk/cy_sysclk.h ****     CY_SYSCLK_WCO_CSV_SUPERVISOR_ILO,   /**< WCO CSV supervisor clock source is the ILO */
1226:Generated_Source\PSoC6\pdl\drivers/peripheral/sysclk/cy_sysclk.h ****     CY_SYSCLK_WCO_CSV_SUPERVISOR_ALTLF, /**< WCO CSV supervisor clock source is the alternate low-f
1227:Generated_Source\PSoC6\pdl\drivers/peripheral/sysclk/cy_sysclk.h ****     CY_SYSCLK_WCO_CSV_SUPERVISOR_PILO   /**< WCO CSV supervisor clock source is the PILO */
1228:Generated_Source\PSoC6\pdl\drivers/peripheral/sysclk/cy_sysclk.h **** } cy_en_wco_csv_supervisor_clock_t;
1229:Generated_Source\PSoC6\pdl\drivers/peripheral/sysclk/cy_sysclk.h **** 
1230:Generated_Source\PSoC6\pdl\drivers/peripheral/sysclk/cy_sysclk.h **** /**
1231:Generated_Source\PSoC6\pdl\drivers/peripheral/sysclk/cy_sysclk.h **** * Clock supervisor clock loss window. There must be one clock of the supervised
1232:Generated_Source\PSoC6\pdl\drivers/peripheral/sysclk/cy_sysclk.h **** * clock within this many clocks of the supervising clock.
1233:Generated_Source\PSoC6\pdl\drivers/peripheral/sysclk/cy_sysclk.h **** * See registers CLK_CSV_HF_CTL and CLK_CSV_WCO_CTL, bitfield CSV_LOSS_WINDOW.
1234:Generated_Source\PSoC6\pdl\drivers/peripheral/sysclk/cy_sysclk.h **** */
1235:Generated_Source\PSoC6\pdl\drivers/peripheral/sysclk/cy_sysclk.h **** typedef enum
1236:Generated_Source\PSoC6\pdl\drivers/peripheral/sysclk/cy_sysclk.h **** {
1237:Generated_Source\PSoC6\pdl\drivers/peripheral/sysclk/cy_sysclk.h ****     CY_SYSCLK_CSV_LOSS_4_CYCLES =   0u, /**< 1 clock must be seen within 4 cycles of the supervisin
1238:Generated_Source\PSoC6\pdl\drivers/peripheral/sysclk/cy_sysclk.h ****     CY_SYSCLK_CSV_LOSS_8_CYCLES =   1u, /**< 1 clock must be seen within 8 cycles of the supervisin
1239:Generated_Source\PSoC6\pdl\drivers/peripheral/sysclk/cy_sysclk.h ****     CY_SYSCLK_CSV_LOSS_16_CYCLES =  2u, /**< 1 clock must be seen within 16 cycles of the supervisi
1240:Generated_Source\PSoC6\pdl\drivers/peripheral/sysclk/cy_sysclk.h ****     CY_SYSCLK_CSV_LOSS_32_CYCLES =  3u, /**< 1 clock must be seen within 32 cycles of the supervisi
1241:Generated_Source\PSoC6\pdl\drivers/peripheral/sysclk/cy_sysclk.h ****     CY_SYSCLK_CSV_LOSS_64_CYCLES =  4u, /**< 1 clock must be seen within 64 cycles of the supervisi
1242:Generated_Source\PSoC6\pdl\drivers/peripheral/sysclk/cy_sysclk.h ****     CY_SYSCLK_CSV_LOSS_128_CYCLES = 5u, /**< 1 clock must be seen within 128 cycles of the supervis
1243:Generated_Source\PSoC6\pdl\drivers/peripheral/sysclk/cy_sysclk.h ****     CY_SYSCLK_CSV_LOSS_256_CYCLES = 6u, /**< 1 clock must be seen within 256 cycles of the supervis
1244:Generated_Source\PSoC6\pdl\drivers/peripheral/sysclk/cy_sysclk.h ****     CY_SYSCLK_CSV_LOSS_512_CYCLES = 7u  /**< 1 clock must be seen within 512 cycles of the supervis
1245:Generated_Source\PSoC6\pdl\drivers/peripheral/sysclk/cy_sysclk.h **** } cy_en_csv_loss_window_t;
1246:Generated_Source\PSoC6\pdl\drivers/peripheral/sysclk/cy_sysclk.h **** 
1247:Generated_Source\PSoC6\pdl\drivers/peripheral/sysclk/cy_sysclk.h **** /**
1248:Generated_Source\PSoC6\pdl\drivers/peripheral/sysclk/cy_sysclk.h **** * Clock supervisor error actions. See register CLK_CSV_HF_CTL[CSV_FREQ_ACTION and CSV_LOSS_ACTION].
1249:Generated_Source\PSoC6\pdl\drivers/peripheral/sysclk/cy_sysclk.h **** */
1250:Generated_Source\PSoC6\pdl\drivers/peripheral/sysclk/cy_sysclk.h **** typedef enum
1251:Generated_Source\PSoC6\pdl\drivers/peripheral/sysclk/cy_sysclk.h **** {
1252:Generated_Source\PSoC6\pdl\drivers/peripheral/sysclk/cy_sysclk.h ****     CY_SYSCLK_CSV_ERROR_IGNORE = 0u,     /**< Ignore the error reported by the clock supervisor. */
1253:Generated_Source\PSoC6\pdl\drivers/peripheral/sysclk/cy_sysclk.h ****     CY_SYSCLK_CSV_ERROR_FAULT = 1u,      /**< Trigger a fault when an error is reported by the cloc
1254:Generated_Source\PSoC6\pdl\drivers/peripheral/sysclk/cy_sysclk.h ****     CY_SYSCLK_CSV_ERROR_RESET = 2u,      /**< Trigger a reset when an error is reported by the cloc
1255:Generated_Source\PSoC6\pdl\drivers/peripheral/sysclk/cy_sysclk.h ****     CY_SYSCLK_CSV_ERROR_FAULT_RESET = 3u /**< Trigger a fault then reset when an error is reported 
1256:Generated_Source\PSoC6\pdl\drivers/peripheral/sysclk/cy_sysclk.h **** } cy_en_csv_error_actions_t;
1257:Generated_Source\PSoC6\pdl\drivers/peripheral/sysclk/cy_sysclk.h **** /** \} group_sysclk_wco_enums */
1258:Generated_Source\PSoC6\pdl\drivers/peripheral/sysclk/cy_sysclk.h **** 
1259:Generated_Source\PSoC6\pdl\drivers/peripheral/sysclk/cy_sysclk.h **** /**
1260:Generated_Source\PSoC6\pdl\drivers/peripheral/sysclk/cy_sysclk.h **** * \addtogroup group_sysclk_wco_structs
1261:Generated_Source\PSoC6\pdl\drivers/peripheral/sysclk/cy_sysclk.h **** * \{
1262:Generated_Source\PSoC6\pdl\drivers/peripheral/sysclk/cy_sysclk.h **** */
1263:Generated_Source\PSoC6\pdl\drivers/peripheral/sysclk/cy_sysclk.h **** /**
1264:Generated_Source\PSoC6\pdl\drivers/peripheral/sysclk/cy_sysclk.h **** * This structure is used to configure the clock supervisor for the WCO.
1265:Generated_Source\PSoC6\pdl\drivers/peripheral/sysclk/cy_sysclk.h **** */
1266:Generated_Source\PSoC6\pdl\drivers/peripheral/sysclk/cy_sysclk.h **** typedef struct
1267:Generated_Source\PSoC6\pdl\drivers/peripheral/sysclk/cy_sysclk.h **** {
1268:Generated_Source\PSoC6\pdl\drivers/peripheral/sysclk/cy_sysclk.h ****     cy_en_wco_csv_supervisor_clock_t SupervisorClock; /**< supervisor clock selection */
1269:Generated_Source\PSoC6\pdl\drivers/peripheral/sysclk/cy_sysclk.h ****     bool enableLossDetection;                         /**< 1= enabled, 0= disabled. Note that if lo
1270:Generated_Source\PSoC6\pdl\drivers/peripheral/sysclk/cy_sysclk.h ****     cy_en_csv_loss_window_t LossWindow;               /**< \ref cy_en_csv_loss_window_t */
1271:Generated_Source\PSoC6\pdl\drivers/peripheral/sysclk/cy_sysclk.h ****     cy_en_csv_error_actions_t LossAction;             /**< \ref cy_en_csv_error_actions_t */
1272:Generated_Source\PSoC6\pdl\drivers/peripheral/sysclk/cy_sysclk.h **** } cy_stc_wco_csv_config_t;
1273:Generated_Source\PSoC6\pdl\drivers/peripheral/sysclk/cy_sysclk.h **** /** \} group_sysclk_wco_structs */
1274:Generated_Source\PSoC6\pdl\drivers/peripheral/sysclk/cy_sysclk.h **** 
1275:Generated_Source\PSoC6\pdl\drivers/peripheral/sysclk/cy_sysclk.h **** /**
1276:Generated_Source\PSoC6\pdl\drivers/peripheral/sysclk/cy_sysclk.h **** * \addtogroup group_sysclk_wco_funcs
1277:Generated_Source\PSoC6\pdl\drivers/peripheral/sysclk/cy_sysclk.h **** * \{
1278:Generated_Source\PSoC6\pdl\drivers/peripheral/sysclk/cy_sysclk.h **** */
1279:Generated_Source\PSoC6\pdl\drivers/peripheral/sysclk/cy_sysclk.h **** __STATIC_INLINE cy_en_sysclk_status_t Cy_SysClk_WcoEnable(uint32_t timeoutus);
1280:Generated_Source\PSoC6\pdl\drivers/peripheral/sysclk/cy_sysclk.h **** __STATIC_INLINE bool Cy_SysClk_WcoOkay(void);
1281:Generated_Source\PSoC6\pdl\drivers/peripheral/sysclk/cy_sysclk.h **** __STATIC_INLINE void Cy_SysClk_WcoDisable(void);
ARM GAS  C:\Users\kiwamu\AppData\Local\Temp\ccJm7GL2.s 			page 40


1282:Generated_Source\PSoC6\pdl\drivers/peripheral/sysclk/cy_sysclk.h **** __STATIC_INLINE void Cy_SysClk_WcoBypass(cy_en_wco_bypass_modes_t bypass);
1283:Generated_Source\PSoC6\pdl\drivers/peripheral/sysclk/cy_sysclk.h **** #if (SRSS_WCOCSV_PRESENT != 0) || defined(CY_DOXYGEN)
1284:Generated_Source\PSoC6\pdl\drivers/peripheral/sysclk/cy_sysclk.h ****     void Cy_SysClk_WcoConfigureCsv(const cy_stc_wco_csv_config_t *config);
1285:Generated_Source\PSoC6\pdl\drivers/peripheral/sysclk/cy_sysclk.h **** #endif /* (SRSS_WCOCSV_PRESENT != 0) || defined(CY_DOXYGEN) */
1286:Generated_Source\PSoC6\pdl\drivers/peripheral/sysclk/cy_sysclk.h **** 
1287:Generated_Source\PSoC6\pdl\drivers/peripheral/sysclk/cy_sysclk.h **** 
1288:Generated_Source\PSoC6\pdl\drivers/peripheral/sysclk/cy_sysclk.h **** /*******************************************************************************
1289:Generated_Source\PSoC6\pdl\drivers/peripheral/sysclk/cy_sysclk.h **** * Function Name: Cy_SysClk_WcoEnable
1290:Generated_Source\PSoC6\pdl\drivers/peripheral/sysclk/cy_sysclk.h **** ****************************************************************************//**
1291:Generated_Source\PSoC6\pdl\drivers/peripheral/sysclk/cy_sysclk.h **** *
1292:Generated_Source\PSoC6\pdl\drivers/peripheral/sysclk/cy_sysclk.h **** * Enables the WCO.
1293:Generated_Source\PSoC6\pdl\drivers/peripheral/sysclk/cy_sysclk.h **** *
1294:Generated_Source\PSoC6\pdl\drivers/peripheral/sysclk/cy_sysclk.h **** * \param timeoutus amount of time in microseconds to wait for the WCO to be ready.
1295:Generated_Source\PSoC6\pdl\drivers/peripheral/sysclk/cy_sysclk.h **** * If WCO is not ready, WCO is stopped. To avoid waiting for WCO ready set this to 0,
1296:Generated_Source\PSoC6\pdl\drivers/peripheral/sysclk/cy_sysclk.h **** * and manually check if WCO is okay using \ref Cy_SysClk_WcoOkay.
1297:Generated_Source\PSoC6\pdl\drivers/peripheral/sysclk/cy_sysclk.h **** *
1298:Generated_Source\PSoC6\pdl\drivers/peripheral/sysclk/cy_sysclk.h **** * \return Error / status code:<br>
1299:Generated_Source\PSoC6\pdl\drivers/peripheral/sysclk/cy_sysclk.h **** * CY_SYSCLK_SUCCESS - WCO successfully enabled<br>
1300:Generated_Source\PSoC6\pdl\drivers/peripheral/sysclk/cy_sysclk.h **** * CY_SYSCLK_TIMEOUT - Timeout waiting for WCO to stabilize
1301:Generated_Source\PSoC6\pdl\drivers/peripheral/sysclk/cy_sysclk.h **** *
1302:Generated_Source\PSoC6\pdl\drivers/peripheral/sysclk/cy_sysclk.h **** *******************************************************************************/
1303:Generated_Source\PSoC6\pdl\drivers/peripheral/sysclk/cy_sysclk.h **** __STATIC_INLINE cy_en_sysclk_status_t Cy_SysClk_WcoEnable(uint32_t timeoutus)
1304:Generated_Source\PSoC6\pdl\drivers/peripheral/sysclk/cy_sysclk.h **** {
1305:Generated_Source\PSoC6\pdl\drivers/peripheral/sysclk/cy_sysclk.h ****     cy_en_sysclk_status_t rtnval = CY_SYSCLK_TIMEOUT;
1306:Generated_Source\PSoC6\pdl\drivers/peripheral/sysclk/cy_sysclk.h **** 
1307:Generated_Source\PSoC6\pdl\drivers/peripheral/sysclk/cy_sysclk.h ****     /* first set the WCO enable bit */
1308:Generated_Source\PSoC6\pdl\drivers/peripheral/sysclk/cy_sysclk.h ****     BACKUP->CTL |= _VAL2FLD(BACKUP_CTL_WCO_EN, 1u); /* 1 = enable */
1309:Generated_Source\PSoC6\pdl\drivers/peripheral/sysclk/cy_sysclk.h **** 
1310:Generated_Source\PSoC6\pdl\drivers/peripheral/sysclk/cy_sysclk.h ****     /* now do the timeout wait for STATUS, bit WCO_OK */
1311:Generated_Source\PSoC6\pdl\drivers/peripheral/sysclk/cy_sysclk.h ****     for (; (Cy_SysClk_WcoOkay() == false) && (timeoutus != 0ul); timeoutus--)
1312:Generated_Source\PSoC6\pdl\drivers/peripheral/sysclk/cy_sysclk.h ****     {
1313:Generated_Source\PSoC6\pdl\drivers/peripheral/sysclk/cy_sysclk.h ****         Cy_SysLib_DelayUs(1u);
1314:Generated_Source\PSoC6\pdl\drivers/peripheral/sysclk/cy_sysclk.h ****     }
1315:Generated_Source\PSoC6\pdl\drivers/peripheral/sysclk/cy_sysclk.h ****     if (timeoutus != 0ul)
1316:Generated_Source\PSoC6\pdl\drivers/peripheral/sysclk/cy_sysclk.h ****     {
1317:Generated_Source\PSoC6\pdl\drivers/peripheral/sysclk/cy_sysclk.h ****         rtnval = CY_SYSCLK_SUCCESS;
1318:Generated_Source\PSoC6\pdl\drivers/peripheral/sysclk/cy_sysclk.h ****     }
1319:Generated_Source\PSoC6\pdl\drivers/peripheral/sysclk/cy_sysclk.h **** 
1320:Generated_Source\PSoC6\pdl\drivers/peripheral/sysclk/cy_sysclk.h ****     return (rtnval);
1321:Generated_Source\PSoC6\pdl\drivers/peripheral/sysclk/cy_sysclk.h **** }
1322:Generated_Source\PSoC6\pdl\drivers/peripheral/sysclk/cy_sysclk.h **** 
1323:Generated_Source\PSoC6\pdl\drivers/peripheral/sysclk/cy_sysclk.h **** /*******************************************************************************
1324:Generated_Source\PSoC6\pdl\drivers/peripheral/sysclk/cy_sysclk.h **** * Function Name: Cy_SysClk_WcoOkay
1325:Generated_Source\PSoC6\pdl\drivers/peripheral/sysclk/cy_sysclk.h **** ****************************************************************************//**
1326:Generated_Source\PSoC6\pdl\drivers/peripheral/sysclk/cy_sysclk.h **** *
1327:Generated_Source\PSoC6\pdl\drivers/peripheral/sysclk/cy_sysclk.h **** * Reports the status of the WCO_OK bit.
1328:Generated_Source\PSoC6\pdl\drivers/peripheral/sysclk/cy_sysclk.h **** *
1329:Generated_Source\PSoC6\pdl\drivers/peripheral/sysclk/cy_sysclk.h **** * \return true = okay false = not okay
1330:Generated_Source\PSoC6\pdl\drivers/peripheral/sysclk/cy_sysclk.h **** *
1331:Generated_Source\PSoC6\pdl\drivers/peripheral/sysclk/cy_sysclk.h **** *******************************************************************************/
1332:Generated_Source\PSoC6\pdl\drivers/peripheral/sysclk/cy_sysclk.h **** __STATIC_INLINE bool Cy_SysClk_WcoOkay(void)
1333:Generated_Source\PSoC6\pdl\drivers/peripheral/sysclk/cy_sysclk.h **** {
1334:Generated_Source\PSoC6\pdl\drivers/peripheral/sysclk/cy_sysclk.h ****     return (bool)(_FLD2VAL(BACKUP_STATUS_WCO_OK, BACKUP->STATUS));
1335:Generated_Source\PSoC6\pdl\drivers/peripheral/sysclk/cy_sysclk.h **** }
1336:Generated_Source\PSoC6\pdl\drivers/peripheral/sysclk/cy_sysclk.h **** 
1337:Generated_Source\PSoC6\pdl\drivers/peripheral/sysclk/cy_sysclk.h **** /*******************************************************************************
1338:Generated_Source\PSoC6\pdl\drivers/peripheral/sysclk/cy_sysclk.h **** * Function Name: Cy_SysClk_WcoDisable
ARM GAS  C:\Users\kiwamu\AppData\Local\Temp\ccJm7GL2.s 			page 41


1339:Generated_Source\PSoC6\pdl\drivers/peripheral/sysclk/cy_sysclk.h **** ****************************************************************************//**
1340:Generated_Source\PSoC6\pdl\drivers/peripheral/sysclk/cy_sysclk.h **** *
1341:Generated_Source\PSoC6\pdl\drivers/peripheral/sysclk/cy_sysclk.h **** * Disables the WCO.
1342:Generated_Source\PSoC6\pdl\drivers/peripheral/sysclk/cy_sysclk.h **** *
1343:Generated_Source\PSoC6\pdl\drivers/peripheral/sysclk/cy_sysclk.h **** *******************************************************************************/
1344:Generated_Source\PSoC6\pdl\drivers/peripheral/sysclk/cy_sysclk.h **** __STATIC_INLINE void Cy_SysClk_WcoDisable(void)
1345:Generated_Source\PSoC6\pdl\drivers/peripheral/sysclk/cy_sysclk.h **** {
1346:Generated_Source\PSoC6\pdl\drivers/peripheral/sysclk/cy_sysclk.h ****     BACKUP->CTL &= ~_VAL2FLD(BACKUP_CTL_WCO_EN, 1u); /* 0 = disable */
1347:Generated_Source\PSoC6\pdl\drivers/peripheral/sysclk/cy_sysclk.h **** }
1348:Generated_Source\PSoC6\pdl\drivers/peripheral/sysclk/cy_sysclk.h **** 
1349:Generated_Source\PSoC6\pdl\drivers/peripheral/sysclk/cy_sysclk.h **** /*******************************************************************************
1350:Generated_Source\PSoC6\pdl\drivers/peripheral/sysclk/cy_sysclk.h **** * Function Name: Cy_SysClk_WcoBypass
1351:Generated_Source\PSoC6\pdl\drivers/peripheral/sysclk/cy_sysclk.h **** ****************************************************************************//**
1352:Generated_Source\PSoC6\pdl\drivers/peripheral/sysclk/cy_sysclk.h **** *
1353:Generated_Source\PSoC6\pdl\drivers/peripheral/sysclk/cy_sysclk.h **** * Sets whether the WCO is bypassed or not. If it is bypassed then a 32-kHz clock
1354:Generated_Source\PSoC6\pdl\drivers/peripheral/sysclk/cy_sysclk.h **** * must be provided on the wco_in pin.
1355:Generated_Source\PSoC6\pdl\drivers/peripheral/sysclk/cy_sysclk.h **** *
1356:Generated_Source\PSoC6\pdl\drivers/peripheral/sysclk/cy_sysclk.h **** * \param bypass \ref cy_en_wco_bypass_modes_t
1357:Generated_Source\PSoC6\pdl\drivers/peripheral/sysclk/cy_sysclk.h **** *
1358:Generated_Source\PSoC6\pdl\drivers/peripheral/sysclk/cy_sysclk.h **** *******************************************************************************/
1359:Generated_Source\PSoC6\pdl\drivers/peripheral/sysclk/cy_sysclk.h **** __STATIC_INLINE void Cy_SysClk_WcoBypass(cy_en_wco_bypass_modes_t bypass)
1360:Generated_Source\PSoC6\pdl\drivers/peripheral/sysclk/cy_sysclk.h **** {
1361:Generated_Source\PSoC6\pdl\drivers/peripheral/sysclk/cy_sysclk.h ****     CY_SYSCLK_CLR_SET(BACKUP->CTL, BACKUP_CTL_WCO_BYPASS, bypass);
1362:Generated_Source\PSoC6\pdl\drivers/peripheral/sysclk/cy_sysclk.h **** }
1363:Generated_Source\PSoC6\pdl\drivers/peripheral/sysclk/cy_sysclk.h **** /** \} group_sysclk_wco_funcs */
1364:Generated_Source\PSoC6\pdl\drivers/peripheral/sysclk/cy_sysclk.h **** 
1365:Generated_Source\PSoC6\pdl\drivers/peripheral/sysclk/cy_sysclk.h **** 
1366:Generated_Source\PSoC6\pdl\drivers/peripheral/sysclk/cy_sysclk.h **** /* ========================================================================== */
1367:Generated_Source\PSoC6\pdl\drivers/peripheral/sysclk/cy_sysclk.h **** /* =========================    clkHf[n] SECTION    ========================= */
1368:Generated_Source\PSoC6\pdl\drivers/peripheral/sysclk/cy_sysclk.h **** /* ========================================================================== */
1369:Generated_Source\PSoC6\pdl\drivers/peripheral/sysclk/cy_sysclk.h **** /**
1370:Generated_Source\PSoC6\pdl\drivers/peripheral/sysclk/cy_sysclk.h **** * \addtogroup group_sysclk_clk_hf_enums
1371:Generated_Source\PSoC6\pdl\drivers/peripheral/sysclk/cy_sysclk.h **** * \{
1372:Generated_Source\PSoC6\pdl\drivers/peripheral/sysclk/cy_sysclk.h **** */
1373:Generated_Source\PSoC6\pdl\drivers/peripheral/sysclk/cy_sysclk.h **** /**
1374:Generated_Source\PSoC6\pdl\drivers/peripheral/sysclk/cy_sysclk.h **** * Selects which clkHf input, or root mux, to configure.
1375:Generated_Source\PSoC6\pdl\drivers/peripheral/sysclk/cy_sysclk.h **** * See CLK_ROOT_SELECT registers, bits ROOT_MUX.
1376:Generated_Source\PSoC6\pdl\drivers/peripheral/sysclk/cy_sysclk.h **** * Used with functions \ref Cy_SysClk_ClkHfSetSource and \ref Cy_SysClk_ClkHfGetSource.
1377:Generated_Source\PSoC6\pdl\drivers/peripheral/sysclk/cy_sysclk.h **** */
1378:Generated_Source\PSoC6\pdl\drivers/peripheral/sysclk/cy_sysclk.h **** typedef enum
1379:Generated_Source\PSoC6\pdl\drivers/peripheral/sysclk/cy_sysclk.h **** {
1380:Generated_Source\PSoC6\pdl\drivers/peripheral/sysclk/cy_sysclk.h ****     CY_SYSCLK_CLKHF_IN_CLKPATH0  = 0u,  /**< clkHf input is Clock Path 0 */
1381:Generated_Source\PSoC6\pdl\drivers/peripheral/sysclk/cy_sysclk.h ****     CY_SYSCLK_CLKHF_IN_CLKPATH1  = 1u,  /**< clkHf input is Clock Path 1 */
1382:Generated_Source\PSoC6\pdl\drivers/peripheral/sysclk/cy_sysclk.h ****     CY_SYSCLK_CLKHF_IN_CLKPATH2  = 2u,  /**< clkHf input is Clock Path 2 */
1383:Generated_Source\PSoC6\pdl\drivers/peripheral/sysclk/cy_sysclk.h ****     CY_SYSCLK_CLKHF_IN_CLKPATH3  = 3u,  /**< clkHf input is Clock Path 3 */
1384:Generated_Source\PSoC6\pdl\drivers/peripheral/sysclk/cy_sysclk.h ****     CY_SYSCLK_CLKHF_IN_CLKPATH4  = 4u,  /**< clkHf input is Clock Path 4 */
1385:Generated_Source\PSoC6\pdl\drivers/peripheral/sysclk/cy_sysclk.h ****     CY_SYSCLK_CLKHF_IN_CLKPATH5  = 5u,  /**< clkHf input is Clock Path 5 */
1386:Generated_Source\PSoC6\pdl\drivers/peripheral/sysclk/cy_sysclk.h ****     CY_SYSCLK_CLKHF_IN_CLKPATH6  = 6u,  /**< clkHf input is Clock Path 6 */
1387:Generated_Source\PSoC6\pdl\drivers/peripheral/sysclk/cy_sysclk.h ****     CY_SYSCLK_CLKHF_IN_CLKPATH7  = 7u,  /**< clkHf input is Clock Path 7 */
1388:Generated_Source\PSoC6\pdl\drivers/peripheral/sysclk/cy_sysclk.h ****     CY_SYSCLK_CLKHF_IN_CLKPATH8  = 8u,  /**< clkHf input is Clock Path 8 */
1389:Generated_Source\PSoC6\pdl\drivers/peripheral/sysclk/cy_sysclk.h ****     CY_SYSCLK_CLKHF_IN_CLKPATH9  = 9u,  /**< clkHf input is Clock Path 9 */
1390:Generated_Source\PSoC6\pdl\drivers/peripheral/sysclk/cy_sysclk.h ****     CY_SYSCLK_CLKHF_IN_CLKPATH10 = 10u, /**< clkHf input is Clock Path 10 */
1391:Generated_Source\PSoC6\pdl\drivers/peripheral/sysclk/cy_sysclk.h ****     CY_SYSCLK_CLKHF_IN_CLKPATH11 = 11u, /**< clkHf input is Clock Path 11 */
1392:Generated_Source\PSoC6\pdl\drivers/peripheral/sysclk/cy_sysclk.h ****     CY_SYSCLK_CLKHF_IN_CLKPATH12 = 12u, /**< clkHf input is Clock Path 12 */
1393:Generated_Source\PSoC6\pdl\drivers/peripheral/sysclk/cy_sysclk.h ****     CY_SYSCLK_CLKHF_IN_CLKPATH13 = 13u, /**< clkHf input is Clock Path 13 */
1394:Generated_Source\PSoC6\pdl\drivers/peripheral/sysclk/cy_sysclk.h ****     CY_SYSCLK_CLKHF_IN_CLKPATH14 = 14u, /**< clkHf input is Clock Path 14 */
1395:Generated_Source\PSoC6\pdl\drivers/peripheral/sysclk/cy_sysclk.h ****     CY_SYSCLK_CLKHF_IN_CLKPATH15 = 15u, /**< clkHf input is Clock Path 15 */
ARM GAS  C:\Users\kiwamu\AppData\Local\Temp\ccJm7GL2.s 			page 42


1396:Generated_Source\PSoC6\pdl\drivers/peripheral/sysclk/cy_sysclk.h **** } cy_en_clkhf_in_sources_t;
1397:Generated_Source\PSoC6\pdl\drivers/peripheral/sysclk/cy_sysclk.h **** 
1398:Generated_Source\PSoC6\pdl\drivers/peripheral/sysclk/cy_sysclk.h **** 
1399:Generated_Source\PSoC6\pdl\drivers/peripheral/sysclk/cy_sysclk.h **** /**
1400:Generated_Source\PSoC6\pdl\drivers/peripheral/sysclk/cy_sysclk.h **** * clkHf divider values. See CLK_ROOT_SELECT registers, bits ROOT_DIV.
1401:Generated_Source\PSoC6\pdl\drivers/peripheral/sysclk/cy_sysclk.h **** * Used with functions \ref Cy_SysClk_ClkHfSetDivider and \ref Cy_SysClk_ClkHfGetDivider.
1402:Generated_Source\PSoC6\pdl\drivers/peripheral/sysclk/cy_sysclk.h **** */
1403:Generated_Source\PSoC6\pdl\drivers/peripheral/sysclk/cy_sysclk.h **** typedef enum
1404:Generated_Source\PSoC6\pdl\drivers/peripheral/sysclk/cy_sysclk.h **** {
1405:Generated_Source\PSoC6\pdl\drivers/peripheral/sysclk/cy_sysclk.h ****     CY_SYSCLK_CLKHF_NO_DIVIDE   = 0u,    /**< don't divide clkHf. */
1406:Generated_Source\PSoC6\pdl\drivers/peripheral/sysclk/cy_sysclk.h ****     CY_SYSCLK_CLKHF_DIVIDE_BY_2 = 1u,    /**< divide clkHf by 2 */
1407:Generated_Source\PSoC6\pdl\drivers/peripheral/sysclk/cy_sysclk.h ****     CY_SYSCLK_CLKHF_DIVIDE_BY_4 = 2u,    /**< divide clkHf by 4 */
1408:Generated_Source\PSoC6\pdl\drivers/peripheral/sysclk/cy_sysclk.h ****     CY_SYSCLK_CLKHF_DIVIDE_BY_8 = 3u     /**< divide clkHf by 8 */
1409:Generated_Source\PSoC6\pdl\drivers/peripheral/sysclk/cy_sysclk.h **** } cy_en_clkhf_dividers_t;
1410:Generated_Source\PSoC6\pdl\drivers/peripheral/sysclk/cy_sysclk.h **** 
1411:Generated_Source\PSoC6\pdl\drivers/peripheral/sysclk/cy_sysclk.h **** /**
1412:Generated_Source\PSoC6\pdl\drivers/peripheral/sysclk/cy_sysclk.h **** * clkHf clock supervisor input sources. See register CLK_CSV_HF_CTL[CSV_MUX].
1413:Generated_Source\PSoC6\pdl\drivers/peripheral/sysclk/cy_sysclk.h **** */
1414:Generated_Source\PSoC6\pdl\drivers/peripheral/sysclk/cy_sysclk.h **** typedef enum
1415:Generated_Source\PSoC6\pdl\drivers/peripheral/sysclk/cy_sysclk.h **** {
1416:Generated_Source\PSoC6\pdl\drivers/peripheral/sysclk/cy_sysclk.h ****     CY_SYSCLK_CLKHF_CSV_SUPERVISOR_IMO   = 0u,  /**< Supervising clock is the IMO. */
1417:Generated_Source\PSoC6\pdl\drivers/peripheral/sysclk/cy_sysclk.h ****     CY_SYSCLK_CLKHF_CSV_SUPERVISOR_EXT   = 1u,  /**< Supervising clock is the external clock */
1418:Generated_Source\PSoC6\pdl\drivers/peripheral/sysclk/cy_sysclk.h ****     CY_SYSCLK_CLKHF_CSV_SUPERVISOR_ALTHF = 2u   /**< Supervising clock is clk_althf */
1419:Generated_Source\PSoC6\pdl\drivers/peripheral/sysclk/cy_sysclk.h **** } cy_en_clkhf_csv_supervisor_clock_t;
1420:Generated_Source\PSoC6\pdl\drivers/peripheral/sysclk/cy_sysclk.h **** /** \} group_sysclk_clk_hf_enums */
1421:Generated_Source\PSoC6\pdl\drivers/peripheral/sysclk/cy_sysclk.h **** 
1422:Generated_Source\PSoC6\pdl\drivers/peripheral/sysclk/cy_sysclk.h **** /**
1423:Generated_Source\PSoC6\pdl\drivers/peripheral/sysclk/cy_sysclk.h **** * \addtogroup group_sysclk_clk_hf_structs
1424:Generated_Source\PSoC6\pdl\drivers/peripheral/sysclk/cy_sysclk.h **** * \{SupervisingWindow
1425:Generated_Source\PSoC6\pdl\drivers/peripheral/sysclk/cy_sysclk.h **** */
1426:Generated_Source\PSoC6\pdl\drivers/peripheral/sysclk/cy_sysclk.h **** /**
1427:Generated_Source\PSoC6\pdl\drivers/peripheral/sysclk/cy_sysclk.h **** * This structure is used to configure the clock supervisor for clkHf.
1428:Generated_Source\PSoC6\pdl\drivers/peripheral/sysclk/cy_sysclk.h **** */
1429:Generated_Source\PSoC6\pdl\drivers/peripheral/sysclk/cy_sysclk.h **** typedef struct
1430:Generated_Source\PSoC6\pdl\drivers/peripheral/sysclk/cy_sysclk.h **** {
1431:Generated_Source\PSoC6\pdl\drivers/peripheral/sysclk/cy_sysclk.h ****     cy_en_clkhf_csv_supervisor_clock_t SupervisorClock; /**< \ref cy_en_clkhf_csv_supervisor_clock_
1432:Generated_Source\PSoC6\pdl\drivers/peripheral/sysclk/cy_sysclk.h ****     uint16_t SupervisingWindow;                         /**< Number of supervising clock cycles */
1433:Generated_Source\PSoC6\pdl\drivers/peripheral/sysclk/cy_sysclk.h ****     bool enableFrequencyFaultDetection;                 /**< 1= enabled, 0= disabled */
1434:Generated_Source\PSoC6\pdl\drivers/peripheral/sysclk/cy_sysclk.h ****     uint16_t FrequencyLowerLimit;                       /**< Lowest frequency in kHz that supervise
1435:Generated_Source\PSoC6\pdl\drivers/peripheral/sysclk/cy_sysclk.h ****     uint16_t FrequencyUpperLimit;                       /**< Highest frequency in kHz that supervis
1436:Generated_Source\PSoC6\pdl\drivers/peripheral/sysclk/cy_sysclk.h ****     cy_en_csv_error_actions_t FrequencyAction;          /**< \ref cy_en_csv_error_actions_t */
1437:Generated_Source\PSoC6\pdl\drivers/peripheral/sysclk/cy_sysclk.h ****     bool enableLossDetection;                           /**< 1= enabled, 0= disabled */
1438:Generated_Source\PSoC6\pdl\drivers/peripheral/sysclk/cy_sysclk.h ****     cy_en_csv_loss_window_t LossWindow;                 /**< \ref cy_en_csv_loss_window_t */
1439:Generated_Source\PSoC6\pdl\drivers/peripheral/sysclk/cy_sysclk.h ****     cy_en_csv_error_actions_t LossAction;               /**< \ref cy_en_csv_error_actions_t */
1440:Generated_Source\PSoC6\pdl\drivers/peripheral/sysclk/cy_sysclk.h **** } cy_stc_clkhf_csv_config_t;
1441:Generated_Source\PSoC6\pdl\drivers/peripheral/sysclk/cy_sysclk.h **** /** \} group_sysclk_clk_hf_structs */
1442:Generated_Source\PSoC6\pdl\drivers/peripheral/sysclk/cy_sysclk.h **** 
1443:Generated_Source\PSoC6\pdl\drivers/peripheral/sysclk/cy_sysclk.h **** /**
1444:Generated_Source\PSoC6\pdl\drivers/peripheral/sysclk/cy_sysclk.h **** * \addtogroup group_sysclk_clk_hf_funcs
1445:Generated_Source\PSoC6\pdl\drivers/peripheral/sysclk/cy_sysclk.h **** * \{
1446:Generated_Source\PSoC6\pdl\drivers/peripheral/sysclk/cy_sysclk.h **** */
1447:Generated_Source\PSoC6\pdl\drivers/peripheral/sysclk/cy_sysclk.h **** __STATIC_INLINE cy_en_sysclk_status_t Cy_SysClk_ClkHfEnable(uint32_t clkHf);
1448:Generated_Source\PSoC6\pdl\drivers/peripheral/sysclk/cy_sysclk.h **** __STATIC_INLINE cy_en_sysclk_status_t Cy_SysClk_ClkHfDisable(uint32_t clkHf);
1449:Generated_Source\PSoC6\pdl\drivers/peripheral/sysclk/cy_sysclk.h **** __STATIC_INLINE cy_en_sysclk_status_t Cy_SysClk_ClkHfSetSource(uint32_t clkHf, cy_en_clkhf_in_sourc
1450:Generated_Source\PSoC6\pdl\drivers/peripheral/sysclk/cy_sysclk.h **** __STATIC_INLINE cy_en_clkhf_in_sources_t Cy_SysClk_ClkHfGetSource(uint32_t clkHf);
1451:Generated_Source\PSoC6\pdl\drivers/peripheral/sysclk/cy_sysclk.h **** __STATIC_INLINE cy_en_sysclk_status_t Cy_SysClk_ClkHfSetDivider(uint32_t clkHf, cy_en_clkhf_divider
1452:Generated_Source\PSoC6\pdl\drivers/peripheral/sysclk/cy_sysclk.h **** __STATIC_INLINE cy_en_clkhf_dividers_t Cy_SysClk_ClkHfGetDivider(uint32_t clkHf);
ARM GAS  C:\Users\kiwamu\AppData\Local\Temp\ccJm7GL2.s 			page 43


1453:Generated_Source\PSoC6\pdl\drivers/peripheral/sysclk/cy_sysclk.h **** #if (SRSS_MASK_HFCSV != 0)  || defined(CY_DOXYGEN)
1454:Generated_Source\PSoC6\pdl\drivers/peripheral/sysclk/cy_sysclk.h ****     cy_en_sysclk_status_t Cy_SysClk_ClkHfConfigureCsv(uint32_t clkHf, const cy_stc_clkhf_csv_config
1455:Generated_Source\PSoC6\pdl\drivers/peripheral/sysclk/cy_sysclk.h **** #endif /* (SRSS_MASK_HFCSV != 0)  || defined(CY_DOXYGEN) */
1456:Generated_Source\PSoC6\pdl\drivers/peripheral/sysclk/cy_sysclk.h **** 
1457:Generated_Source\PSoC6\pdl\drivers/peripheral/sysclk/cy_sysclk.h **** 
1458:Generated_Source\PSoC6\pdl\drivers/peripheral/sysclk/cy_sysclk.h **** /*******************************************************************************
1459:Generated_Source\PSoC6\pdl\drivers/peripheral/sysclk/cy_sysclk.h **** * Function Name: Cy_SysClk_ClkHfEnable
1460:Generated_Source\PSoC6\pdl\drivers/peripheral/sysclk/cy_sysclk.h **** ****************************************************************************//**
1461:Generated_Source\PSoC6\pdl\drivers/peripheral/sysclk/cy_sysclk.h **** *
1462:Generated_Source\PSoC6\pdl\drivers/peripheral/sysclk/cy_sysclk.h **** * Enables the selected clkHf.
1463:Generated_Source\PSoC6\pdl\drivers/peripheral/sysclk/cy_sysclk.h **** *
1464:Generated_Source\PSoC6\pdl\drivers/peripheral/sysclk/cy_sysclk.h **** * \param clkHf Selects which clkHf to enable.
1465:Generated_Source\PSoC6\pdl\drivers/peripheral/sysclk/cy_sysclk.h **** *
1466:Generated_Source\PSoC6\pdl\drivers/peripheral/sysclk/cy_sysclk.h **** * \return \ref cy_en_sysclk_status_t
1467:Generated_Source\PSoC6\pdl\drivers/peripheral/sysclk/cy_sysclk.h **** *
1468:Generated_Source\PSoC6\pdl\drivers/peripheral/sysclk/cy_sysclk.h **** *******************************************************************************/
1469:Generated_Source\PSoC6\pdl\drivers/peripheral/sysclk/cy_sysclk.h **** __STATIC_INLINE cy_en_sysclk_status_t Cy_SysClk_ClkHfEnable(uint32_t clkHf)
1470:Generated_Source\PSoC6\pdl\drivers/peripheral/sysclk/cy_sysclk.h **** {
1471:Generated_Source\PSoC6\pdl\drivers/peripheral/sysclk/cy_sysclk.h ****     cy_en_sysclk_status_t retval = CY_SYSCLK_BAD_PARAM;
1472:Generated_Source\PSoC6\pdl\drivers/peripheral/sysclk/cy_sysclk.h ****     if (clkHf < SRSS_NUM_HFROOT)
1473:Generated_Source\PSoC6\pdl\drivers/peripheral/sysclk/cy_sysclk.h ****     {
1474:Generated_Source\PSoC6\pdl\drivers/peripheral/sysclk/cy_sysclk.h ****         SRSS->CLK_ROOT_SELECT[clkHf] |= _VAL2FLD(SRSS_CLK_ROOT_SELECT_ENABLE, 1ul); /* 1 = enable *
1475:Generated_Source\PSoC6\pdl\drivers/peripheral/sysclk/cy_sysclk.h ****         retval = CY_SYSCLK_SUCCESS;
1476:Generated_Source\PSoC6\pdl\drivers/peripheral/sysclk/cy_sysclk.h ****     }
1477:Generated_Source\PSoC6\pdl\drivers/peripheral/sysclk/cy_sysclk.h ****     return (retval);
1478:Generated_Source\PSoC6\pdl\drivers/peripheral/sysclk/cy_sysclk.h **** }
1479:Generated_Source\PSoC6\pdl\drivers/peripheral/sysclk/cy_sysclk.h **** 
1480:Generated_Source\PSoC6\pdl\drivers/peripheral/sysclk/cy_sysclk.h **** /*******************************************************************************
1481:Generated_Source\PSoC6\pdl\drivers/peripheral/sysclk/cy_sysclk.h **** * Function Name: Cy_SysClk_ClkHfDisable
1482:Generated_Source\PSoC6\pdl\drivers/peripheral/sysclk/cy_sysclk.h **** ****************************************************************************//**
1483:Generated_Source\PSoC6\pdl\drivers/peripheral/sysclk/cy_sysclk.h **** *
1484:Generated_Source\PSoC6\pdl\drivers/peripheral/sysclk/cy_sysclk.h **** * Disables the selected clkHf.
1485:Generated_Source\PSoC6\pdl\drivers/peripheral/sysclk/cy_sysclk.h **** *
1486:Generated_Source\PSoC6\pdl\drivers/peripheral/sysclk/cy_sysclk.h **** * \param clkHf Selects which clkHf to enable.
1487:Generated_Source\PSoC6\pdl\drivers/peripheral/sysclk/cy_sysclk.h **** *
1488:Generated_Source\PSoC6\pdl\drivers/peripheral/sysclk/cy_sysclk.h **** * \return \ref cy_en_sysclk_status_t
1489:Generated_Source\PSoC6\pdl\drivers/peripheral/sysclk/cy_sysclk.h **** *
1490:Generated_Source\PSoC6\pdl\drivers/peripheral/sysclk/cy_sysclk.h **** * \note clkHf[0] cannot be disabled.
1491:Generated_Source\PSoC6\pdl\drivers/peripheral/sysclk/cy_sysclk.h **** *******************************************************************************/
1492:Generated_Source\PSoC6\pdl\drivers/peripheral/sysclk/cy_sysclk.h **** __STATIC_INLINE cy_en_sysclk_status_t Cy_SysClk_ClkHfDisable(uint32_t clkHf)
1493:Generated_Source\PSoC6\pdl\drivers/peripheral/sysclk/cy_sysclk.h **** {
1494:Generated_Source\PSoC6\pdl\drivers/peripheral/sysclk/cy_sysclk.h ****     cy_en_sysclk_status_t retval = CY_SYSCLK_BAD_PARAM;
1495:Generated_Source\PSoC6\pdl\drivers/peripheral/sysclk/cy_sysclk.h ****     if ((0ul < clkHf) && (clkHf < SRSS_NUM_HFROOT))
1496:Generated_Source\PSoC6\pdl\drivers/peripheral/sysclk/cy_sysclk.h ****     {
1497:Generated_Source\PSoC6\pdl\drivers/peripheral/sysclk/cy_sysclk.h ****         SRSS->CLK_ROOT_SELECT[clkHf] &= ~_VAL2FLD(SRSS_CLK_ROOT_SELECT_ENABLE, 1ul); /* 0 = disable
1498:Generated_Source\PSoC6\pdl\drivers/peripheral/sysclk/cy_sysclk.h ****         retval = CY_SYSCLK_SUCCESS;
1499:Generated_Source\PSoC6\pdl\drivers/peripheral/sysclk/cy_sysclk.h ****     }
1500:Generated_Source\PSoC6\pdl\drivers/peripheral/sysclk/cy_sysclk.h ****     return (retval);
1501:Generated_Source\PSoC6\pdl\drivers/peripheral/sysclk/cy_sysclk.h **** }
1502:Generated_Source\PSoC6\pdl\drivers/peripheral/sysclk/cy_sysclk.h **** 
1503:Generated_Source\PSoC6\pdl\drivers/peripheral/sysclk/cy_sysclk.h **** /*******************************************************************************
1504:Generated_Source\PSoC6\pdl\drivers/peripheral/sysclk/cy_sysclk.h **** * Function Name: Cy_SysClk_ClkHfSetSource
1505:Generated_Source\PSoC6\pdl\drivers/peripheral/sysclk/cy_sysclk.h **** ****************************************************************************//**
1506:Generated_Source\PSoC6\pdl\drivers/peripheral/sysclk/cy_sysclk.h **** *
1507:Generated_Source\PSoC6\pdl\drivers/peripheral/sysclk/cy_sysclk.h **** * Selects the source of the selected clkHf.
1508:Generated_Source\PSoC6\pdl\drivers/peripheral/sysclk/cy_sysclk.h **** *
1509:Generated_Source\PSoC6\pdl\drivers/peripheral/sysclk/cy_sysclk.h **** * \param clkHf Which clkHf mux to configure.
ARM GAS  C:\Users\kiwamu\AppData\Local\Temp\ccJm7GL2.s 			page 44


1510:Generated_Source\PSoC6\pdl\drivers/peripheral/sysclk/cy_sysclk.h **** *
1511:Generated_Source\PSoC6\pdl\drivers/peripheral/sysclk/cy_sysclk.h **** * \param source \ref cy_en_clkhf_in_sources_t
1512:Generated_Source\PSoC6\pdl\drivers/peripheral/sysclk/cy_sysclk.h **** *
1513:Generated_Source\PSoC6\pdl\drivers/peripheral/sysclk/cy_sysclk.h **** * \return \ref cy_en_sysclk_status_t
1514:Generated_Source\PSoC6\pdl\drivers/peripheral/sysclk/cy_sysclk.h **** *
1515:Generated_Source\PSoC6\pdl\drivers/peripheral/sysclk/cy_sysclk.h **** *******************************************************************************/
1516:Generated_Source\PSoC6\pdl\drivers/peripheral/sysclk/cy_sysclk.h **** __STATIC_INLINE cy_en_sysclk_status_t Cy_SysClk_ClkHfSetSource(uint32_t clkHf, cy_en_clkhf_in_sourc
1517:Generated_Source\PSoC6\pdl\drivers/peripheral/sysclk/cy_sysclk.h **** {
1518:Generated_Source\PSoC6\pdl\drivers/peripheral/sysclk/cy_sysclk.h ****     cy_en_sysclk_status_t retval = CY_SYSCLK_BAD_PARAM;
1519:Generated_Source\PSoC6\pdl\drivers/peripheral/sysclk/cy_sysclk.h ****     if ((clkHf < SRSS_NUM_HFROOT) && (source <= CY_SYSCLK_CLKHF_IN_CLKPATH15))
1520:Generated_Source\PSoC6\pdl\drivers/peripheral/sysclk/cy_sysclk.h ****     {
1521:Generated_Source\PSoC6\pdl\drivers/peripheral/sysclk/cy_sysclk.h ****         CY_SYSCLK_CLR_SET(SRSS->CLK_ROOT_SELECT[clkHf], SRSS_CLK_ROOT_SELECT_ROOT_MUX, source);
1522:Generated_Source\PSoC6\pdl\drivers/peripheral/sysclk/cy_sysclk.h ****         retval = CY_SYSCLK_SUCCESS;
1523:Generated_Source\PSoC6\pdl\drivers/peripheral/sysclk/cy_sysclk.h ****     }
1524:Generated_Source\PSoC6\pdl\drivers/peripheral/sysclk/cy_sysclk.h ****     return (retval);
1525:Generated_Source\PSoC6\pdl\drivers/peripheral/sysclk/cy_sysclk.h **** }
1526:Generated_Source\PSoC6\pdl\drivers/peripheral/sysclk/cy_sysclk.h **** 
1527:Generated_Source\PSoC6\pdl\drivers/peripheral/sysclk/cy_sysclk.h **** /*******************************************************************************
1528:Generated_Source\PSoC6\pdl\drivers/peripheral/sysclk/cy_sysclk.h **** * Function Name: Cy_SysClk_ClkHfGetSource
1529:Generated_Source\PSoC6\pdl\drivers/peripheral/sysclk/cy_sysclk.h **** ****************************************************************************//**
1530:Generated_Source\PSoC6\pdl\drivers/peripheral/sysclk/cy_sysclk.h **** *
1531:Generated_Source\PSoC6\pdl\drivers/peripheral/sysclk/cy_sysclk.h **** * Reports the source of the selected clkHf.
1532:Generated_Source\PSoC6\pdl\drivers/peripheral/sysclk/cy_sysclk.h **** *
1533:Generated_Source\PSoC6\pdl\drivers/peripheral/sysclk/cy_sysclk.h **** * \param clkHf selects which clkHf to get the source of.
1534:Generated_Source\PSoC6\pdl\drivers/peripheral/sysclk/cy_sysclk.h **** *
1535:Generated_Source\PSoC6\pdl\drivers/peripheral/sysclk/cy_sysclk.h **** * \return \ref cy_en_clkhf_in_sources_t
1536:Generated_Source\PSoC6\pdl\drivers/peripheral/sysclk/cy_sysclk.h **** *
1537:Generated_Source\PSoC6\pdl\drivers/peripheral/sysclk/cy_sysclk.h **** *******************************************************************************/
1538:Generated_Source\PSoC6\pdl\drivers/peripheral/sysclk/cy_sysclk.h **** __STATIC_INLINE cy_en_clkhf_in_sources_t Cy_SysClk_ClkHfGetSource(uint32_t clkHf)
1539:Generated_Source\PSoC6\pdl\drivers/peripheral/sysclk/cy_sysclk.h **** {
1540:Generated_Source\PSoC6\pdl\drivers/peripheral/sysclk/cy_sysclk.h ****     CY_ASSERT_L1(clkHf < SRSS_NUM_HFROOT);
1541:Generated_Source\PSoC6\pdl\drivers/peripheral/sysclk/cy_sysclk.h ****     return (cy_en_clkhf_in_sources_t)(_FLD2VAL(SRSS_CLK_ROOT_SELECT_ROOT_MUX, SRSS->CLK_ROOT_SELECT
1542:Generated_Source\PSoC6\pdl\drivers/peripheral/sysclk/cy_sysclk.h **** }
1543:Generated_Source\PSoC6\pdl\drivers/peripheral/sysclk/cy_sysclk.h **** 
1544:Generated_Source\PSoC6\pdl\drivers/peripheral/sysclk/cy_sysclk.h **** /*******************************************************************************
1545:Generated_Source\PSoC6\pdl\drivers/peripheral/sysclk/cy_sysclk.h **** * Function Name: Cy_SysClk_ClkHfSetDivider
1546:Generated_Source\PSoC6\pdl\drivers/peripheral/sysclk/cy_sysclk.h **** ****************************************************************************//**
1547:Generated_Source\PSoC6\pdl\drivers/peripheral/sysclk/cy_sysclk.h **** *
1548:Generated_Source\PSoC6\pdl\drivers/peripheral/sysclk/cy_sysclk.h **** * Sets the pre-divider for a clkHf.
1549:Generated_Source\PSoC6\pdl\drivers/peripheral/sysclk/cy_sysclk.h **** *
1550:Generated_Source\PSoC6\pdl\drivers/peripheral/sysclk/cy_sysclk.h **** * \param clkHf selects which clkHf divider to configure.
1551:Generated_Source\PSoC6\pdl\drivers/peripheral/sysclk/cy_sysclk.h **** *
1552:Generated_Source\PSoC6\pdl\drivers/peripheral/sysclk/cy_sysclk.h **** * \param divider \ref cy_en_clkhf_dividers_t
1553:Generated_Source\PSoC6\pdl\drivers/peripheral/sysclk/cy_sysclk.h **** *
1554:Generated_Source\PSoC6\pdl\drivers/peripheral/sysclk/cy_sysclk.h **** * \return \ref cy_en_sysclk_status_t
1555:Generated_Source\PSoC6\pdl\drivers/peripheral/sysclk/cy_sysclk.h **** *
1556:Generated_Source\PSoC6\pdl\drivers/peripheral/sysclk/cy_sysclk.h **** * \note Also call \ref Cy_SysClk_ClkHfSetSource to set the clkHf source.
1557:Generated_Source\PSoC6\pdl\drivers/peripheral/sysclk/cy_sysclk.h **** *******************************************************************************/
1558:Generated_Source\PSoC6\pdl\drivers/peripheral/sysclk/cy_sysclk.h **** __STATIC_INLINE cy_en_sysclk_status_t Cy_SysClk_ClkHfSetDivider(uint32_t clkHf, cy_en_clkhf_divider
1559:Generated_Source\PSoC6\pdl\drivers/peripheral/sysclk/cy_sysclk.h **** {
1560:Generated_Source\PSoC6\pdl\drivers/peripheral/sysclk/cy_sysclk.h ****     cy_en_sysclk_status_t retval = CY_SYSCLK_BAD_PARAM;
1561:Generated_Source\PSoC6\pdl\drivers/peripheral/sysclk/cy_sysclk.h ****     if ((clkHf < SRSS_NUM_HFROOT) && (divider <= CY_SYSCLK_CLKHF_DIVIDE_BY_8))
1562:Generated_Source\PSoC6\pdl\drivers/peripheral/sysclk/cy_sysclk.h ****     {
1563:Generated_Source\PSoC6\pdl\drivers/peripheral/sysclk/cy_sysclk.h ****         CY_SYSCLK_CLR_SET(SRSS->CLK_ROOT_SELECT[clkHf], SRSS_CLK_ROOT_SELECT_ROOT_DIV, divider);
1564:Generated_Source\PSoC6\pdl\drivers/peripheral/sysclk/cy_sysclk.h ****         retval = CY_SYSCLK_SUCCESS;
1565:Generated_Source\PSoC6\pdl\drivers/peripheral/sysclk/cy_sysclk.h ****     }
1566:Generated_Source\PSoC6\pdl\drivers/peripheral/sysclk/cy_sysclk.h ****     return (retval);
ARM GAS  C:\Users\kiwamu\AppData\Local\Temp\ccJm7GL2.s 			page 45


1567:Generated_Source\PSoC6\pdl\drivers/peripheral/sysclk/cy_sysclk.h **** }
1568:Generated_Source\PSoC6\pdl\drivers/peripheral/sysclk/cy_sysclk.h **** 
1569:Generated_Source\PSoC6\pdl\drivers/peripheral/sysclk/cy_sysclk.h **** /*******************************************************************************
1570:Generated_Source\PSoC6\pdl\drivers/peripheral/sysclk/cy_sysclk.h **** * Function Name: Cy_SysClk_ClkHfGetDivider
