ARM GAS  C:\Users\kiwamu\AppData\Local\Temp\cc6wudba.s 			page 1


   1              		.syntax unified
   2              		.cpu cortex-m4
   3              		.eabi_attribute 27, 1
   4              		.fpu fpv4-sp-d16
   5              		.eabi_attribute 20, 1
   6              		.eabi_attribute 21, 1
   7              		.eabi_attribute 23, 3
   8              		.eabi_attribute 24, 1
   9              		.eabi_attribute 25, 1
  10              		.eabi_attribute 26, 1
  11              		.eabi_attribute 30, 1
  12              		.eabi_attribute 34, 1
  13              		.eabi_attribute 18, 4
  14              		.thumb
  15              		.syntax unified
  16              		.file	"cy_ipc_config.c"
  17              		.text
  18              	.Ltext0:
  19              		.cfi_sections	.debug_frame
  20              		.section	.cy_ramfunc,"ax",%progbits
  21              		.align	2
  22              		.thumb
  23              		.thumb_func
  24              		.type	Cy_Flash_NotifyHandler, %function
  25              	Cy_Flash_NotifyHandler:
  26              	.LFB234:
  27              		.file 1 "cy_ipc_config.c"
   1:cy_ipc_config.c **** /***************************************************************************//**
   2:cy_ipc_config.c **** * \file cy_ipc_config.c
   3:cy_ipc_config.c **** * \version 1.10
   4:cy_ipc_config.c **** *
   5:cy_ipc_config.c **** *  Description:
   6:cy_ipc_config.c **** *  This C file is not intended to be part of the IPC driver. It is the code
   7:cy_ipc_config.c **** *  required to configure the device specific IPC channels for semaphores
   8:cy_ipc_config.c **** *  and pipes.
   9:cy_ipc_config.c **** *
  10:cy_ipc_config.c **** ********************************************************************************
  11:cy_ipc_config.c **** * Copyright 2016-2017, Cypress Semiconductor Corporation.  All rights reserved.
  12:cy_ipc_config.c **** * You may use this file only in accordance with the license, terms, conditions,
  13:cy_ipc_config.c **** * disclaimers, and limitations in the end user license agreement accompanying
  14:cy_ipc_config.c **** * the software package with which this file was provided.
  15:cy_ipc_config.c **** *******************************************************************************/
  16:cy_ipc_config.c **** 
  17:cy_ipc_config.c **** #include "flash/cy_flash.h"
  18:cy_ipc_config.c **** #include "ipc/cy_ipc_drv.h"
  19:cy_ipc_config.c **** #include "ipc/cy_ipc_pipe.h"
  20:cy_ipc_config.c **** #include "ipc/cy_ipc_sema.h"
  21:cy_ipc_config.c **** #include "sysint/cy_sysint.h"
  22:cy_ipc_config.c **** 
  23:cy_ipc_config.c **** #include "cy_ipc_config.h"
  24:cy_ipc_config.c **** 
  25:cy_ipc_config.c **** static void Cy_Flash_NotifyHandler(uint32_t * msgPtr);
  26:cy_ipc_config.c **** 
  27:cy_ipc_config.c **** /* Create an array of endpoint structures */
  28:cy_ipc_config.c **** static cy_stc_ipc_pipe_ep_t        cy_ipc_pipe_sysEpArray[CY_IPC_MAX_ENDPOINTS];
  29:cy_ipc_config.c **** 
  30:cy_ipc_config.c **** #define CY_CYPIPE_DEFAULT_CONFIG    \
ARM GAS  C:\Users\kiwamu\AppData\Local\Temp\cc6wudba.s 			page 2


  31:cy_ipc_config.c **** {\
  32:cy_ipc_config.c ****     /* .ep0ConfigData */ {\
  33:cy_ipc_config.c ****         /* .ipcNotifierNumber    */  CY_IPC_INTR_CYPIPE_EP0,\
  34:cy_ipc_config.c ****         /* .ipcNotifierPriority  */  CY_IPC_INTR_CYPIPE_PRIOR_EP0,\
  35:cy_ipc_config.c ****         /* .ipcNotifierMuxNumber */  CY_IPC_INTR_CYPIPE_MUX_EP0,\
  36:cy_ipc_config.c ****         /* .epAddress            */  CY_IPC_EP_CYPIPE_CM0_ADDR,\
  37:cy_ipc_config.c ****         /* .epConfig             */  CY_IPC_CYPIPE_CONFIG_EP0\
  38:cy_ipc_config.c ****     },\
  39:cy_ipc_config.c ****     /* .ep1ConfigData */ {\
  40:cy_ipc_config.c ****         /* .ipcNotifierNumber    */  CY_IPC_INTR_CYPIPE_EP1,\
  41:cy_ipc_config.c ****         /* .ipcNotifierPriority  */  CY_IPC_INTR_CYPIPE_PRIOR_EP1,\
  42:cy_ipc_config.c ****         /* .ipcNotifierMuxNumber */  0u,\
  43:cy_ipc_config.c ****         /* .epAddress            */  CY_IPC_EP_CYPIPE_CM4_ADDR,\
  44:cy_ipc_config.c ****         /* .epConfig             */  CY_IPC_CYPIPE_CONFIG_EP1\
  45:cy_ipc_config.c ****     },\
  46:cy_ipc_config.c ****     /* .endpointClientsCount     */  CY_IPC_CYPIPE_CLIENT_CNT,\
  47:cy_ipc_config.c ****     /* .endpointsCallbacksArray  */  cy_ipc_pipe_sysCbArray,\
  48:cy_ipc_config.c ****     /* .userPipeIsrHandler       */  &Cy_IPC_SystemPipeIsr\
  49:cy_ipc_config.c **** }
  50:cy_ipc_config.c **** 
  51:cy_ipc_config.c **** /*******************************************************************************
  52:cy_ipc_config.c **** * Function Name: Cy_IPC_SystemSemaInit
  53:cy_ipc_config.c **** ****************************************************************************//**
  54:cy_ipc_config.c **** *
  55:cy_ipc_config.c **** * Initializes the system semaphores.
  56:cy_ipc_config.c **** *
  57:cy_ipc_config.c **** *******************************************************************************/
  58:cy_ipc_config.c **** void Cy_IPC_SystemSemaInit(void)
  59:cy_ipc_config.c **** {
  60:cy_ipc_config.c **** /* Create array used for semaphores */
  61:cy_ipc_config.c **** #if !(CY_CPU_CORTEX_M0P)
  62:cy_ipc_config.c ****     (void) Cy_IPC_Sema_Init(CY_IPC_CHAN_SEMA, 0ul, NULL);
  63:cy_ipc_config.c **** #else
  64:cy_ipc_config.c ****     static uint32_t ipcSemaArray[CY_IPC_SEMA_COUNT / CY_IPC_SEMA_PER_WORD];
  65:cy_ipc_config.c ****     (void) Cy_IPC_Sema_Init(CY_IPC_CHAN_SEMA, CY_IPC_SEMA_COUNT, ipcSemaArray);
  66:cy_ipc_config.c **** #endif
  67:cy_ipc_config.c **** }
  68:cy_ipc_config.c **** 
  69:cy_ipc_config.c **** /*******************************************************************************
  70:cy_ipc_config.c **** * Function Name: Cy_IPC_SystemPipeInit
  71:cy_ipc_config.c **** ****************************************************************************//**
  72:cy_ipc_config.c **** *
  73:cy_ipc_config.c **** * Initializes the system pipes. The system pipes are used by BLE.
  74:cy_ipc_config.c **** * \note The function should be called on all CPUs.
  75:cy_ipc_config.c **** *
  76:cy_ipc_config.c **** *******************************************************************************/
  77:cy_ipc_config.c **** void Cy_IPC_SystemPipeInit(void)
  78:cy_ipc_config.c **** {
  79:cy_ipc_config.c ****     uint32_t intr;
  80:cy_ipc_config.c **** 
  81:cy_ipc_config.c ****     intr = Cy_SysLib_EnterCriticalSection();
  82:cy_ipc_config.c **** 
  83:cy_ipc_config.c ****     static cy_ipc_pipe_callback_ptr_t cy_ipc_pipe_sysCbArray[CY_IPC_CYPIPE_CLIENT_CNT];
  84:cy_ipc_config.c **** 
  85:cy_ipc_config.c ****     static const cy_stc_ipc_pipe_config_t systemPipeConfig = CY_CYPIPE_DEFAULT_CONFIG;
  86:cy_ipc_config.c **** 
  87:cy_ipc_config.c ****     Cy_IPC_Pipe_Config(cy_ipc_pipe_sysEpArray);
ARM GAS  C:\Users\kiwamu\AppData\Local\Temp\cc6wudba.s 			page 3


  88:cy_ipc_config.c **** 
  89:cy_ipc_config.c ****     Cy_IPC_Pipe_Init(&systemPipeConfig);
  90:cy_ipc_config.c **** 
  91:cy_ipc_config.c ****     (void)Cy_IPC_Pipe_RegisterCallback(CY_IPC_EP_CYPIPE_ADDR, &Cy_Flash_NotifyHandler, (uint32_t)CY
  92:cy_ipc_config.c **** 
  93:cy_ipc_config.c ****     Cy_SysLib_ExitCriticalSection(intr);
  94:cy_ipc_config.c **** }
  95:cy_ipc_config.c **** 
  96:cy_ipc_config.c **** /*******************************************************************************
  97:cy_ipc_config.c **** * Function Name: Cy_IPC_SystemPipeIsr
  98:cy_ipc_config.c **** ****************************************************************************//**
  99:cy_ipc_config.c **** *
 100:cy_ipc_config.c **** * This is the interrupt service routine for the system pipe.
 101:cy_ipc_config.c **** *
 102:cy_ipc_config.c **** *******************************************************************************/
 103:cy_ipc_config.c **** void Cy_IPC_SystemPipeIsr(void)
 104:cy_ipc_config.c **** {
 105:cy_ipc_config.c ****     Cy_IPC_Pipe_ExecCallback(&cy_ipc_pipe_sysEpArray[CY_IPC_EP_CYPIPE_ADDR]);
 106:cy_ipc_config.c **** }
 107:cy_ipc_config.c **** 
 108:cy_ipc_config.c **** /*******************************************************************************
 109:cy_ipc_config.c **** * Function Name: Cy_Flash_NotifyHandler
 110:cy_ipc_config.c **** ****************************************************************************//**
 111:cy_ipc_config.c **** *
 112:cy_ipc_config.c **** * This is the interrupt service routine for the pipe notifications.
 113:cy_ipc_config.c **** *
 114:cy_ipc_config.c **** *******************************************************************************/
 115:cy_ipc_config.c **** #if defined (__ICCARM__)
 116:cy_ipc_config.c ****     __ramfunc 
 117:cy_ipc_config.c **** #else
 118:cy_ipc_config.c ****     CY_SECTION(".cy_ramfunc")
 119:cy_ipc_config.c **** #endif
 120:cy_ipc_config.c **** static void Cy_Flash_NotifyHandler(uint32_t * msgPtr)
 121:cy_ipc_config.c **** {
  28              		.loc 1 121 0
  29              		.cfi_startproc
  30              		@ args = 0, pretend = 0, frame = 0
  31              		@ frame_needed = 0, uses_anonymous_args = 0
  32              	.LVL0:
 122:cy_ipc_config.c ****     uint32_t intr;
 123:cy_ipc_config.c **** 
 124:cy_ipc_config.c ****     IPC_MSG *ipcMsgPtr = (IPC_MSG *)msgPtr;
 125:cy_ipc_config.c **** 
 126:cy_ipc_config.c ****     if (CY_FLASH_ENTER_WAIT_LOOP == ipcMsgPtr->pktType)
  33              		.loc 1 126 0
  34 0000 4378     		ldrb	r3, [r0, #1]	@ zero_extendqisi2
  35 0002 FF2B     		cmp	r3, #255
  36 0004 11D1     		bne	.L5
 121:cy_ipc_config.c ****     uint32_t intr;
  37              		.loc 1 121 0
  38 0006 10B5     		push	{r4, lr}
  39              		.cfi_def_cfa_offset 8
  40              		.cfi_offset 4, -8
  41              		.cfi_offset 14, -4
 127:cy_ipc_config.c ****     {
 128:cy_ipc_config.c ****         intr = Cy_SysLib_EnterCriticalSection();
  42              		.loc 1 128 0
ARM GAS  C:\Users\kiwamu\AppData\Local\Temp\cc6wudba.s 			page 4


  43 0008 FFF7FEFF 		bl	Cy_SysLib_EnterCriticalSection
  44              	.LVL1:
  45 000c 0446     		mov	r4, r0
  46              	.LVL2:
 129:cy_ipc_config.c **** 
 130:cy_ipc_config.c ****         /* Notification to the Flash driver to start the current operation */
 131:cy_ipc_config.c ****         (void) Cy_IPC_Sema_Set(CY_FLASH_WAIT_SEMA, true);
  47              		.loc 1 131 0
  48 000e 0121     		movs	r1, #1
  49 0010 0020     		movs	r0, #0
  50              	.LVL3:
  51 0012 FFF7FEFF 		bl	Cy_IPC_Sema_Set
  52              	.LVL4:
  53              	.L3:
 132:cy_ipc_config.c **** 
 133:cy_ipc_config.c ****         /* Notification to me about the end of the operation */
 134:cy_ipc_config.c ****         while (CY_IPC_SEMA_STATUS_LOCKED == Cy_IPC_Sema_Status(CY_FLASH_WAIT_SEMA))
  54              		.loc 1 134 0 discriminator 1
  55 0016 0020     		movs	r0, #0
  56 0018 FFF7FEFF 		bl	Cy_IPC_Sema_Status
  57              	.LVL5:
  58 001c 034B     		ldr	r3, .L6
  59 001e 9842     		cmp	r0, r3
  60 0020 F9D0     		beq	.L3
 135:cy_ipc_config.c ****         {
 136:cy_ipc_config.c ****         }
 137:cy_ipc_config.c **** 
 138:cy_ipc_config.c ****         Cy_SysLib_ExitCriticalSection(intr);
  61              		.loc 1 138 0
  62 0022 2046     		mov	r0, r4
  63 0024 FFF7FEFF 		bl	Cy_SysLib_ExitCriticalSection
  64              	.LVL6:
  65 0028 10BD     		pop	{r4, pc}
  66              	.LVL7:
  67              	.L5:
  68              		.cfi_def_cfa_offset 0
  69              		.cfi_restore 4
  70              		.cfi_restore 14
  71 002a 7047     		bx	lr
  72              	.L7:
  73              		.align	2
  74              	.L6:
  75 002c 01018800 		.word	8913153
  76              		.cfi_endproc
  77              	.LFE234:
  78              		.size	Cy_Flash_NotifyHandler, .-Cy_Flash_NotifyHandler
  79              		.section	.text.cpuss_interrupts_ipc_4_IRQHandler,"ax",%progbits
  80              		.align	2
  81              		.global	cpuss_interrupts_ipc_4_IRQHandler
  82              		.thumb
  83              		.thumb_func
  84              		.type	cpuss_interrupts_ipc_4_IRQHandler, %function
  85              	cpuss_interrupts_ipc_4_IRQHandler:
  86              	.LFB233:
 104:cy_ipc_config.c ****     Cy_IPC_Pipe_ExecCallback(&cy_ipc_pipe_sysEpArray[CY_IPC_EP_CYPIPE_ADDR]);
  87              		.loc 1 104 0
  88              		.cfi_startproc
ARM GAS  C:\Users\kiwamu\AppData\Local\Temp\cc6wudba.s 			page 5


  89              		@ args = 0, pretend = 0, frame = 0
  90              		@ frame_needed = 0, uses_anonymous_args = 0
  91 0000 08B5     		push	{r3, lr}
  92              		.cfi_def_cfa_offset 8
  93              		.cfi_offset 3, -8
  94              		.cfi_offset 14, -4
 105:cy_ipc_config.c **** }
  95              		.loc 1 105 0
  96 0002 0248     		ldr	r0, .L10
  97 0004 FFF7FEFF 		bl	Cy_IPC_Pipe_ExecCallback
  98              	.LVL8:
  99 0008 08BD     		pop	{r3, pc}
 100              	.L11:
 101 000a 00BF     		.align	2
 102              	.L10:
 103 000c 2C000000 		.word	.LANCHOR0+44
 104              		.cfi_endproc
 105              	.LFE233:
 106              		.size	cpuss_interrupts_ipc_4_IRQHandler, .-cpuss_interrupts_ipc_4_IRQHandler
 107              		.section	.text.Cy_IPC_SystemSemaInit,"ax",%progbits
 108              		.align	2
 109              		.global	Cy_IPC_SystemSemaInit
 110              		.thumb
 111              		.thumb_func
 112              		.type	Cy_IPC_SystemSemaInit, %function
 113              	Cy_IPC_SystemSemaInit:
 114              	.LFB231:
  59:cy_ipc_config.c **** /* Create array used for semaphores */
 115              		.loc 1 59 0
 116              		.cfi_startproc
 117              		@ args = 0, pretend = 0, frame = 0
 118              		@ frame_needed = 0, uses_anonymous_args = 0
 119 0000 08B5     		push	{r3, lr}
 120              		.cfi_def_cfa_offset 8
 121              		.cfi_offset 3, -8
 122              		.cfi_offset 14, -4
  62:cy_ipc_config.c **** #else
 123              		.loc 1 62 0
 124 0002 0022     		movs	r2, #0
 125 0004 1146     		mov	r1, r2
 126 0006 0420     		movs	r0, #4
 127 0008 FFF7FEFF 		bl	Cy_IPC_Sema_Init
 128              	.LVL9:
 129 000c 08BD     		pop	{r3, pc}
 130              		.cfi_endproc
 131              	.LFE231:
 132              		.size	Cy_IPC_SystemSemaInit, .-Cy_IPC_SystemSemaInit
 133 000e 00BF     		.section	.text.Cy_IPC_SystemPipeInit,"ax",%progbits
 134              		.align	2
 135              		.global	Cy_IPC_SystemPipeInit
 136              		.thumb
 137              		.thumb_func
 138              		.type	Cy_IPC_SystemPipeInit, %function
 139              	Cy_IPC_SystemPipeInit:
 140              	.LFB232:
  78:cy_ipc_config.c ****     uint32_t intr;
 141              		.loc 1 78 0
ARM GAS  C:\Users\kiwamu\AppData\Local\Temp\cc6wudba.s 			page 6


 142              		.cfi_startproc
 143              		@ args = 0, pretend = 0, frame = 0
 144              		@ frame_needed = 0, uses_anonymous_args = 0
 145 0000 10B5     		push	{r4, lr}
 146              		.cfi_def_cfa_offset 8
 147              		.cfi_offset 4, -8
 148              		.cfi_offset 14, -4
  81:cy_ipc_config.c **** 
 149              		.loc 1 81 0
 150 0002 FFF7FEFF 		bl	Cy_SysLib_EnterCriticalSection
 151              	.LVL10:
 152 0006 0446     		mov	r4, r0
 153              	.LVL11:
  87:cy_ipc_config.c **** 
 154              		.loc 1 87 0
 155 0008 0748     		ldr	r0, .L16
 156              	.LVL12:
 157 000a FFF7FEFF 		bl	Cy_IPC_Pipe_Config
 158              	.LVL13:
  89:cy_ipc_config.c **** 
 159              		.loc 1 89 0
 160 000e 0748     		ldr	r0, .L16+4
 161 0010 FFF7FEFF 		bl	Cy_IPC_Pipe_Init
 162              	.LVL14:
  91:cy_ipc_config.c **** 
 163              		.loc 1 91 0
 164 0014 0222     		movs	r2, #2
 165 0016 0649     		ldr	r1, .L16+8
 166 0018 0120     		movs	r0, #1
 167 001a FFF7FEFF 		bl	Cy_IPC_Pipe_RegisterCallback
 168              	.LVL15:
  93:cy_ipc_config.c **** }
 169              		.loc 1 93 0
 170 001e 2046     		mov	r0, r4
 171 0020 FFF7FEFF 		bl	Cy_SysLib_ExitCriticalSection
 172              	.LVL16:
 173 0024 10BD     		pop	{r4, pc}
 174              	.LVL17:
 175              	.L17:
 176 0026 00BF     		.align	2
 177              	.L16:
 178 0028 00000000 		.word	.LANCHOR0
 179 002c 00000000 		.word	.LANCHOR1
 180 0030 00000000 		.word	Cy_Flash_NotifyHandler
 181              		.cfi_endproc
 182              	.LFE232:
 183              		.size	Cy_IPC_SystemPipeInit, .-Cy_IPC_SystemPipeInit
 184              		.section	.rodata
 185              		.align	2
 186              		.set	.LANCHOR1,. + 0
 187              		.type	systemPipeConfig.10857, %object
 188              		.size	systemPipeConfig.10857, 52
 189              	systemPipeConfig.10857:
 190 0000 03000000 		.word	3
 191 0004 01000000 		.word	1
 192 0008 01000000 		.word	1
 193 000c 00000000 		.word	0
ARM GAS  C:\Users\kiwamu\AppData\Local\Temp\cc6wudba.s 			page 7


 194 0010 05036000 		.word	6292229
 195 0014 04000000 		.word	4
 196 0018 01000000 		.word	1
 197 001c 00000000 		.word	0
 198 0020 01000000 		.word	1
 199 0024 06046000 		.word	6292486
 200 0028 08000000 		.word	8
 201 002c 60010000 		.word	cy_ipc_pipe_sysCbArray.10856
 202 0030 00000000 		.word	cpuss_interrupts_ipc_4_IRQHandler
 203              		.bss
 204              		.align	2
 205              		.set	.LANCHOR0,. + 0
 206              		.type	cy_ipc_pipe_sysEpArray, %object
 207              		.size	cy_ipc_pipe_sysEpArray, 352
 208              	cy_ipc_pipe_sysEpArray:
 209 0000 00000000 		.space	352
 209      00000000 
 209      00000000 
 209      00000000 
 209      00000000 
 210              		.type	cy_ipc_pipe_sysCbArray.10856, %object
 211              		.size	cy_ipc_pipe_sysCbArray.10856, 32
 212              	cy_ipc_pipe_sysCbArray.10856:
 213 0160 00000000 		.space	32
 213      00000000 
 213      00000000 
 213      00000000 
 213      00000000 
 214              		.text
 215              	.Letext0:
 216              		.file 2 "Generated_Source\\PSoC6\\pdl\\devices/psoc6/psoc63/include/cy8c6347bzi_bld53.h"
 217              		.file 3 "c:\\program files (x86)\\cypress\\psoc creator\\4.2\\psoc creator\\import\\gnu\\arm\\5.4.
 218              		.file 4 "c:\\program files (x86)\\cypress\\psoc creator\\4.2\\psoc creator\\import\\gnu\\arm\\5.4.
 219              		.file 5 "Generated_Source\\PSoC6\\pdl\\devices/psoc6/ip/cyip_ipc.h"
 220              		.file 6 "Generated_Source\\PSoC6\\pdl\\drivers/peripheral/syslib/cy_syslib.h"
 221              		.file 7 "Generated_Source\\PSoC6\\pdl\\drivers/peripheral/ipc/cy_ipc_sema.h"
 222              		.file 8 "Generated_Source\\PSoC6\\pdl\\drivers/peripheral/ipc/cy_ipc_pipe.h"
 223              		.file 9 "Generated_Source\\PSoC6\\pdl\\drivers/peripheral/flash/cy_flash.h"
 224              		.file 10 "Generated_Source\\PSoC6\\pdl\\cmsis/include/core_cm4.h"