ARM GAS  C:\Users\kiwamu\AppData\Local\Temp\cck8hqZ9.s 			page 1


   1              		.syntax unified
   2              		.cpu cortex-m4
   3              		.eabi_attribute 27, 1
   4              		.fpu fpv4-sp-d16
   5              		.eabi_attribute 20, 1
   6              		.eabi_attribute 21, 1
   7              		.eabi_attribute 23, 3
   8              		.eabi_attribute 24, 1
   9              		.eabi_attribute 25, 1
  10              		.eabi_attribute 26, 1
  11              		.eabi_attribute 30, 1
  12              		.eabi_attribute 34, 1
  13              		.eabi_attribute 18, 4
  14              		.thumb
  15              		.syntax unified
  16              		.file	"cy_profile.c"
  17              		.text
  18              	.Ltext0:
  19              		.cfi_sections	.debug_frame
  20              		.section	.text.Cy_Profile_IsPtrValid,"ax",%progbits
  21              		.align	2
  22              		.thumb
  23              		.thumb_func
  24              		.type	Cy_Profile_IsPtrValid, %function
  25              	Cy_Profile_IsPtrValid:
  26              	.LFB128:
  27              		.file 1 "Generated_Source\\PSoC6\\pdl\\drivers\\peripheral\\profile\\cy_profile.c"
   1:Generated_Source\PSoC6\pdl\drivers\peripheral\profile/cy_profile.c **** /***************************************************************************//** 
   2:Generated_Source\PSoC6\pdl\drivers\peripheral\profile/cy_profile.c **** * \file cy_profile.c
   3:Generated_Source\PSoC6\pdl\drivers\peripheral\profile/cy_profile.c **** * \version 1.0
   4:Generated_Source\PSoC6\pdl\drivers\peripheral\profile/cy_profile.c **** * 
   5:Generated_Source\PSoC6\pdl\drivers\peripheral\profile/cy_profile.c **** * Provides an API declaration of the energy profiler (EP) driver. 
   6:Generated_Source\PSoC6\pdl\drivers\peripheral\profile/cy_profile.c **** *
   7:Generated_Source\PSoC6\pdl\drivers\peripheral\profile/cy_profile.c **** ******************************************************************************** 
   8:Generated_Source\PSoC6\pdl\drivers\peripheral\profile/cy_profile.c **** * \copyright 
   9:Generated_Source\PSoC6\pdl\drivers\peripheral\profile/cy_profile.c **** * Copyright 2016-2017, Cypress Semiconductor Corporation. All rights reserved. 
  10:Generated_Source\PSoC6\pdl\drivers\peripheral\profile/cy_profile.c **** * You may use this file only in accordance with the license, terms, conditions, 
  11:Generated_Source\PSoC6\pdl\drivers\peripheral\profile/cy_profile.c **** * disclaimers, and limitations in the end user license agreement accompanying 
  12:Generated_Source\PSoC6\pdl\drivers\peripheral\profile/cy_profile.c **** * the software package with which this file was provided.
  13:Generated_Source\PSoC6\pdl\drivers\peripheral\profile/cy_profile.c **** *******************************************************************************/
  14:Generated_Source\PSoC6\pdl\drivers\peripheral\profile/cy_profile.c **** 
  15:Generated_Source\PSoC6\pdl\drivers\peripheral\profile/cy_profile.c **** #include "cy_profile.h"
  16:Generated_Source\PSoC6\pdl\drivers\peripheral\profile/cy_profile.c **** #include <string.h>
  17:Generated_Source\PSoC6\pdl\drivers\peripheral\profile/cy_profile.c **** 
  18:Generated_Source\PSoC6\pdl\drivers\peripheral\profile/cy_profile.c **** #if defined(__cplusplus)
  19:Generated_Source\PSoC6\pdl\drivers\peripheral\profile/cy_profile.c **** extern "C" {
  20:Generated_Source\PSoC6\pdl\drivers\peripheral\profile/cy_profile.c **** #endif /* __cplusplus */
  21:Generated_Source\PSoC6\pdl\drivers\peripheral\profile/cy_profile.c **** 
  22:Generated_Source\PSoC6\pdl\drivers\peripheral\profile/cy_profile.c **** /* # of elements in an array */
  23:Generated_Source\PSoC6\pdl\drivers\peripheral\profile/cy_profile.c **** #define CY_N_ELMTS(a) (sizeof(a)/sizeof((a)[0]))
  24:Generated_Source\PSoC6\pdl\drivers\peripheral\profile/cy_profile.c **** 
  25:Generated_Source\PSoC6\pdl\drivers\peripheral\profile/cy_profile.c **** static cy_en_profile_status_t Cy_Profile_IsPtrValid(const cy_stc_profile_ctr_ptr_t ctrAddr);
  26:Generated_Source\PSoC6\pdl\drivers\peripheral\profile/cy_profile.c **** 
  27:Generated_Source\PSoC6\pdl\drivers\peripheral\profile/cy_profile.c **** /* control and status information for each counter */
  28:Generated_Source\PSoC6\pdl\drivers\peripheral\profile/cy_profile.c **** static cy_stc_profile_ctr_t cy_ep_ctrs[PROFILE_PRFL_CNT_NR];
  29:Generated_Source\PSoC6\pdl\drivers\peripheral\profile/cy_profile.c **** 
  30:Generated_Source\PSoC6\pdl\drivers\peripheral\profile/cy_profile.c **** 
ARM GAS  C:\Users\kiwamu\AppData\Local\Temp\cck8hqZ9.s 			page 2


  31:Generated_Source\PSoC6\pdl\drivers\peripheral\profile/cy_profile.c **** /* ========================================================================== */
  32:Generated_Source\PSoC6\pdl\drivers\peripheral\profile/cy_profile.c **** /* =====================    LOCAL FUNCTIONS SECTION    ====================== */
  33:Generated_Source\PSoC6\pdl\drivers\peripheral\profile/cy_profile.c **** /* ========================================================================== */
  34:Generated_Source\PSoC6\pdl\drivers\peripheral\profile/cy_profile.c **** /*******************************************************************************
  35:Generated_Source\PSoC6\pdl\drivers\peripheral\profile/cy_profile.c **** * Function Name: Cy_Profile_IsPtrValid
  36:Generated_Source\PSoC6\pdl\drivers\peripheral\profile/cy_profile.c **** ****************************************************************************//**
  37:Generated_Source\PSoC6\pdl\drivers\peripheral\profile/cy_profile.c **** *
  38:Generated_Source\PSoC6\pdl\drivers\peripheral\profile/cy_profile.c **** * Local utility function: reports (1) whether or not a given pointer points into
  39:Generated_Source\PSoC6\pdl\drivers\peripheral\profile/cy_profile.c **** * the cy_ep_ctrs[] array, and (2) whether the counter has been assigned.
  40:Generated_Source\PSoC6\pdl\drivers\peripheral\profile/cy_profile.c **** *
  41:Generated_Source\PSoC6\pdl\drivers\peripheral\profile/cy_profile.c **** * \param ctrAddr The handle to (address of) the assigned counter
  42:Generated_Source\PSoC6\pdl\drivers\peripheral\profile/cy_profile.c **** * 
  43:Generated_Source\PSoC6\pdl\drivers\peripheral\profile/cy_profile.c **** * \return CY_PROFILE_SUCCESS, or CY_PROFILE_BAD_PARAM for invalid ctrAddr or counter not
  44:Generated_Source\PSoC6\pdl\drivers\peripheral\profile/cy_profile.c **** * in use.
  45:Generated_Source\PSoC6\pdl\drivers\peripheral\profile/cy_profile.c **** *
  46:Generated_Source\PSoC6\pdl\drivers\peripheral\profile/cy_profile.c **** *******************************************************************************/
  47:Generated_Source\PSoC6\pdl\drivers\peripheral\profile/cy_profile.c **** static cy_en_profile_status_t Cy_Profile_IsPtrValid(const cy_stc_profile_ctr_ptr_t ctrAddr)
  48:Generated_Source\PSoC6\pdl\drivers\peripheral\profile/cy_profile.c **** {
  28              		.loc 1 48 0
  29              		.cfi_startproc
  30              		@ args = 0, pretend = 0, frame = 0
  31              		@ frame_needed = 0, uses_anonymous_args = 0
  32              		@ link register save eliminated.
  33              	.LVL0:
  49:Generated_Source\PSoC6\pdl\drivers\peripheral\profile/cy_profile.c ****     cy_en_profile_status_t retStatus = CY_PROFILE_BAD_PARAM;
  50:Generated_Source\PSoC6\pdl\drivers\peripheral\profile/cy_profile.c **** 
  51:Generated_Source\PSoC6\pdl\drivers\peripheral\profile/cy_profile.c ****     /* check for valid ctrAddr */
  52:Generated_Source\PSoC6\pdl\drivers\peripheral\profile/cy_profile.c ****     uint32_t p_epCtrs = (uint32_t)cy_ep_ctrs;
  34              		.loc 1 52 0
  35 0000 074B     		ldr	r3, .L6
  36              	.LVL1:
  53:Generated_Source\PSoC6\pdl\drivers\peripheral\profile/cy_profile.c ****     if ((p_epCtrs <= (uint32_t)ctrAddr) && ((uint32_t)ctrAddr < (p_epCtrs + (uint32_t)sizeof(cy_ep_
  37              		.loc 1 53 0
  38 0002 8342     		cmp	r3, r0
  39 0004 06D8     		bhi	.L3
  40              		.loc 1 53 0 is_stmt 0 discriminator 1
  41 0006 E033     		adds	r3, r3, #224
  42 0008 9842     		cmp	r0, r3
  43 000a 05D2     		bcs	.L4
  54:Generated_Source\PSoC6\pdl\drivers\peripheral\profile/cy_profile.c ****     {
  55:Generated_Source\PSoC6\pdl\drivers\peripheral\profile/cy_profile.c ****         if (ctrAddr->used != 0u) /* check for counter being used */
  44              		.loc 1 55 0 is_stmt 1
  45 000c 4378     		ldrb	r3, [r0, #1]	@ zero_extendqisi2
  46 000e 2BB9     		cbnz	r3, .L5
  49:Generated_Source\PSoC6\pdl\drivers\peripheral\profile/cy_profile.c **** 
  47              		.loc 1 49 0
  48 0010 0448     		ldr	r0, .L6+4
  49              	.LVL2:
  50 0012 7047     		bx	lr
  51              	.LVL3:
  52              	.L3:
  53 0014 0348     		ldr	r0, .L6+4
  54              	.LVL4:
  55 0016 7047     		bx	lr
  56              	.LVL5:
  57              	.L4:
  58 0018 0248     		ldr	r0, .L6+4
ARM GAS  C:\Users\kiwamu\AppData\Local\Temp\cck8hqZ9.s 			page 3


  59              	.LVL6:
  60 001a 7047     		bx	lr
  61              	.LVL7:
  62              	.L5:
  56:Generated_Source\PSoC6\pdl\drivers\peripheral\profile/cy_profile.c ****         {
  57:Generated_Source\PSoC6\pdl\drivers\peripheral\profile/cy_profile.c ****             retStatus = CY_PROFILE_SUCCESS;
  63              		.loc 1 57 0
  64 001c 0020     		movs	r0, #0
  65              	.LVL8:
  58:Generated_Source\PSoC6\pdl\drivers\peripheral\profile/cy_profile.c ****         }
  59:Generated_Source\PSoC6\pdl\drivers\peripheral\profile/cy_profile.c ****     }
  60:Generated_Source\PSoC6\pdl\drivers\peripheral\profile/cy_profile.c ****     return (retStatus);
  61:Generated_Source\PSoC6\pdl\drivers\peripheral\profile/cy_profile.c **** }
  66              		.loc 1 61 0
  67 001e 7047     		bx	lr
  68              	.L7:
  69              		.align	2
  70              	.L6:
  71 0020 00000000 		.word	.LANCHOR0
  72 0024 01007A00 		.word	7995393
  73              		.cfi_endproc
  74              	.LFE128:
  75              		.size	Cy_Profile_IsPtrValid, .-Cy_Profile_IsPtrValid
  76              		.section	.text.Cy_Profile_ISR,"ax",%progbits
  77              		.align	2
  78              		.global	Cy_Profile_ISR
  79              		.thumb
  80              		.thumb_func
  81              		.type	Cy_Profile_ISR, %function
  82              	Cy_Profile_ISR:
  83              	.LFB129:
  62:Generated_Source\PSoC6\pdl\drivers\peripheral\profile/cy_profile.c **** 
  63:Generated_Source\PSoC6\pdl\drivers\peripheral\profile/cy_profile.c **** 
  64:Generated_Source\PSoC6\pdl\drivers\peripheral\profile/cy_profile.c **** /* ========================================================================== */
  65:Generated_Source\PSoC6\pdl\drivers\peripheral\profile/cy_profile.c **** /* ====================    INTERRUPT FUNCTION SECTION    ==================== */
  66:Generated_Source\PSoC6\pdl\drivers\peripheral\profile/cy_profile.c **** /* ========================================================================== */
  67:Generated_Source\PSoC6\pdl\drivers\peripheral\profile/cy_profile.c **** /*******************************************************************************
  68:Generated_Source\PSoC6\pdl\drivers\peripheral\profile/cy_profile.c **** * Function Name: Cy_Profile_ISR
  69:Generated_Source\PSoC6\pdl\drivers\peripheral\profile/cy_profile.c **** ****************************************************************************//**
  70:Generated_Source\PSoC6\pdl\drivers\peripheral\profile/cy_profile.c **** *
  71:Generated_Source\PSoC6\pdl\drivers\peripheral\profile/cy_profile.c **** * EP interrupt handler: Increments the overflow member of the counter structure,
  72:Generated_Source\PSoC6\pdl\drivers\peripheral\profile/cy_profile.c **** * for each counter that is in use and has an overflow.
  73:Generated_Source\PSoC6\pdl\drivers\peripheral\profile/cy_profile.c **** *
  74:Generated_Source\PSoC6\pdl\drivers\peripheral\profile/cy_profile.c **** * This handler is not configured or used automatically. You must configure the 
  75:Generated_Source\PSoC6\pdl\drivers\peripheral\profile/cy_profile.c **** * interrupt handler for the EP, using Cy_SysInt_Init(). Typically you configure 
  76:Generated_Source\PSoC6\pdl\drivers\peripheral\profile/cy_profile.c **** * the system to use \ref Cy_Profile_ISR() as the overflow interrupt handler. You
  77:Generated_Source\PSoC6\pdl\drivers\peripheral\profile/cy_profile.c **** * can provide a custom interrupt handler to perform additional operations if
  78:Generated_Source\PSoC6\pdl\drivers\peripheral\profile/cy_profile.c **** * required. Your handler can call \ref Cy_Profile_ISR() to handle counter
  79:Generated_Source\PSoC6\pdl\drivers\peripheral\profile/cy_profile.c **** * overflow. 
  80:Generated_Source\PSoC6\pdl\drivers\peripheral\profile/cy_profile.c **** *
  81:Generated_Source\PSoC6\pdl\drivers\peripheral\profile/cy_profile.c **** *******************************************************************************/
  82:Generated_Source\PSoC6\pdl\drivers\peripheral\profile/cy_profile.c **** void Cy_Profile_ISR(void)
  83:Generated_Source\PSoC6\pdl\drivers\peripheral\profile/cy_profile.c **** {
  84              		.loc 1 83 0
  85              		.cfi_startproc
  86              		@ args = 0, pretend = 0, frame = 0
  87              		@ frame_needed = 0, uses_anonymous_args = 0
ARM GAS  C:\Users\kiwamu\AppData\Local\Temp\cck8hqZ9.s 			page 4


  88              		@ link register save eliminated.
  84:Generated_Source\PSoC6\pdl\drivers\peripheral\profile/cy_profile.c ****     uint32_t ctr;
  85:Generated_Source\PSoC6\pdl\drivers\peripheral\profile/cy_profile.c **** 
  86:Generated_Source\PSoC6\pdl\drivers\peripheral\profile/cy_profile.c ****     /* Grab a copy of the overflow register. Each bit in the register indicates
  87:Generated_Source\PSoC6\pdl\drivers\peripheral\profile/cy_profile.c ****        whether or not the respective counter has overflowed. */
  88:Generated_Source\PSoC6\pdl\drivers\peripheral\profile/cy_profile.c ****     uint32_t ovflowBits = _FLD2VAL(PROFILE_INTR_MASKED_CNT_OVFLW, PROFILE->INTR_MASKED);
  89              		.loc 1 88 0
  90 0000 0F4B     		ldr	r3, .L13
  91 0002 D3F8CC27 		ldr	r2, [r3, #1996]
  92              	.LVL9:
  89:Generated_Source\PSoC6\pdl\drivers\peripheral\profile/cy_profile.c **** 
  90:Generated_Source\PSoC6\pdl\drivers\peripheral\profile/cy_profile.c ****     PROFILE->INTR = ovflowBits; /* clear the sources of the interrupts */
  93              		.loc 1 90 0
  94 0006 C3F8C027 		str	r2, [r3, #1984]
  95              	.LVL10:
  91:Generated_Source\PSoC6\pdl\drivers\peripheral\profile/cy_profile.c **** 
  92:Generated_Source\PSoC6\pdl\drivers\peripheral\profile/cy_profile.c ****     /* scan through the overflow bits, i.e., for each counter */
  93:Generated_Source\PSoC6\pdl\drivers\peripheral\profile/cy_profile.c ****     for (ctr = 0UL; (ctr < (uint32_t)(PROFILE_PRFL_CNT_NR)) && (ovflowBits != 0UL); ctr++)
  96              		.loc 1 93 0
  97 000a 0023     		movs	r3, #0
  98 000c 13E0     		b	.L9
  99              	.LVL11:
 100              	.L12:
  94:Generated_Source\PSoC6\pdl\drivers\peripheral\profile/cy_profile.c ****     {
  95:Generated_Source\PSoC6\pdl\drivers\peripheral\profile/cy_profile.c ****         /* Increment the overflow bit only if the counter is being used.
  96:Generated_Source\PSoC6\pdl\drivers\peripheral\profile/cy_profile.c ****            (Which should always be the case.) */
  97:Generated_Source\PSoC6\pdl\drivers\peripheral\profile/cy_profile.c ****         if (((ovflowBits & 1UL) != 0UL) && (cy_ep_ctrs[ctr].used != 0u))
 101              		.loc 1 97 0
 102 000e 12F0010F 		tst	r2, #1
 103 0012 0ED0     		beq	.L10
 104              		.loc 1 97 0 is_stmt 0 discriminator 1
 105 0014 C3EBC300 		rsb	r0, r3, r3, lsl #3
 106 0018 8100     		lsls	r1, r0, #2
 107 001a 0A48     		ldr	r0, .L13+4
 108 001c 0144     		add	r1, r1, r0
 109 001e 4978     		ldrb	r1, [r1, #1]	@ zero_extendqisi2
 110 0020 39B1     		cbz	r1, .L10
  98:Generated_Source\PSoC6\pdl\drivers\peripheral\profile/cy_profile.c ****         {
  99:Generated_Source\PSoC6\pdl\drivers\peripheral\profile/cy_profile.c ****             cy_ep_ctrs[ctr].overflow++;
 111              		.loc 1 99 0 is_stmt 1
 112 0022 D800     		lsls	r0, r3, #3
 113 0024 C01A     		subs	r0, r0, r3
 114 0026 8100     		lsls	r1, r0, #2
 115 0028 0648     		ldr	r0, .L13+4
 116 002a 0144     		add	r1, r1, r0
 117 002c 4869     		ldr	r0, [r1, #20]
 118 002e 0130     		adds	r0, r0, #1
 119 0030 4861     		str	r0, [r1, #20]
 120              	.L10:
 100:Generated_Source\PSoC6\pdl\drivers\peripheral\profile/cy_profile.c ****         }
 101:Generated_Source\PSoC6\pdl\drivers\peripheral\profile/cy_profile.c ****         ovflowBits >>= 1; /* check the next bit, by shifting it into the LS position */
 121              		.loc 1 101 0 discriminator 2
 122 0032 5208     		lsrs	r2, r2, #1
 123              	.LVL12:
  93:Generated_Source\PSoC6\pdl\drivers\peripheral\profile/cy_profile.c ****     {
 124              		.loc 1 93 0 discriminator 2
 125 0034 0133     		adds	r3, r3, #1
ARM GAS  C:\Users\kiwamu\AppData\Local\Temp\cck8hqZ9.s 			page 5


 126              	.LVL13:
 127              	.L9:
  93:Generated_Source\PSoC6\pdl\drivers\peripheral\profile/cy_profile.c ****     {
 128              		.loc 1 93 0 is_stmt 0 discriminator 1
 129 0036 072B     		cmp	r3, #7
 130 0038 01D8     		bhi	.L8
  93:Generated_Source\PSoC6\pdl\drivers\peripheral\profile/cy_profile.c ****     {
 131              		.loc 1 93 0 discriminator 3
 132 003a 002A     		cmp	r2, #0
 133 003c E7D1     		bne	.L12
 134              	.L8:
 135 003e 7047     		bx	lr
 136              	.L14:
 137              		.align	2
 138              	.L13:
 139 0040 00002D40 		.word	1076690944
 140 0044 00000000 		.word	.LANCHOR0
 141              		.cfi_endproc
 142              	.LFE129:
 143              		.size	Cy_Profile_ISR, .-Cy_Profile_ISR
 144              		.section	.text.Cy_Profile_StartProfiling,"ax",%progbits
 145              		.align	2
 146              		.global	Cy_Profile_StartProfiling
 147              		.thumb
 148              		.thumb_func
 149              		.type	Cy_Profile_StartProfiling, %function
 150              	Cy_Profile_StartProfiling:
 151              	.LFB130:
 102:Generated_Source\PSoC6\pdl\drivers\peripheral\profile/cy_profile.c ****     }
 103:Generated_Source\PSoC6\pdl\drivers\peripheral\profile/cy_profile.c **** }
 104:Generated_Source\PSoC6\pdl\drivers\peripheral\profile/cy_profile.c **** 
 105:Generated_Source\PSoC6\pdl\drivers\peripheral\profile/cy_profile.c **** 
 106:Generated_Source\PSoC6\pdl\drivers\peripheral\profile/cy_profile.c **** /* ========================================================================== */
 107:Generated_Source\PSoC6\pdl\drivers\peripheral\profile/cy_profile.c **** /* ==================    GENERAL EP FUNCTIONS SECTION    ==================== */
 108:Generated_Source\PSoC6\pdl\drivers\peripheral\profile/cy_profile.c **** /* ========================================================================== */
 109:Generated_Source\PSoC6\pdl\drivers\peripheral\profile/cy_profile.c **** /*******************************************************************************
 110:Generated_Source\PSoC6\pdl\drivers\peripheral\profile/cy_profile.c **** * Function Name: Cy_Profile_StartProfiling
 111:Generated_Source\PSoC6\pdl\drivers\peripheral\profile/cy_profile.c **** ****************************************************************************//**
 112:Generated_Source\PSoC6\pdl\drivers\peripheral\profile/cy_profile.c **** *
 113:Generated_Source\PSoC6\pdl\drivers\peripheral\profile/cy_profile.c **** * Starts profiling.
 114:Generated_Source\PSoC6\pdl\drivers\peripheral\profile/cy_profile.c **** *
 115:Generated_Source\PSoC6\pdl\drivers\peripheral\profile/cy_profile.c **** * \note Before calling this function, the user must enable the profiler interrupt.
 116:Generated_Source\PSoC6\pdl\drivers\peripheral\profile/cy_profile.c **** *******************************************************************************/
 117:Generated_Source\PSoC6\pdl\drivers\peripheral\profile/cy_profile.c **** void Cy_Profile_StartProfiling(void)
 118:Generated_Source\PSoC6\pdl\drivers\peripheral\profile/cy_profile.c **** {
 152              		.loc 1 118 0 is_stmt 1
 153              		.cfi_startproc
 154              		@ args = 0, pretend = 0, frame = 0
 155              		@ frame_needed = 0, uses_anonymous_args = 0
 156              		@ link register save eliminated.
 157              	.LVL14:
 119:Generated_Source\PSoC6\pdl\drivers\peripheral\profile/cy_profile.c ****     uint32_t i;
 120:Generated_Source\PSoC6\pdl\drivers\peripheral\profile/cy_profile.c **** 
 121:Generated_Source\PSoC6\pdl\drivers\peripheral\profile/cy_profile.c ****     /* clear all of the counter array overflow variables */
 122:Generated_Source\PSoC6\pdl\drivers\peripheral\profile/cy_profile.c ****     for (i = 0UL; i < CY_N_ELMTS(cy_ep_ctrs); cy_ep_ctrs[i++].overflow = 0UL){}
 158              		.loc 1 122 0
 159 0000 0023     		movs	r3, #0
ARM GAS  C:\Users\kiwamu\AppData\Local\Temp\cck8hqZ9.s 			page 6


 160 0002 07E0     		b	.L16
 161              	.LVL15:
 162              	.L17:
 163              		.loc 1 122 0 is_stmt 0 discriminator 3
 164 0004 C3EBC301 		rsb	r1, r3, r3, lsl #3
 165 0008 8A00     		lsls	r2, r1, #2
 166 000a 0549     		ldr	r1, .L18
 167 000c 0A44     		add	r2, r2, r1
 168 000e 0021     		movs	r1, #0
 169 0010 5161     		str	r1, [r2, #20]
 170 0012 0133     		adds	r3, r3, #1
 171              	.LVL16:
 172              	.L16:
 173              		.loc 1 122 0 discriminator 1
 174 0014 072B     		cmp	r3, #7
 175 0016 F5D9     		bls	.L17
 123:Generated_Source\PSoC6\pdl\drivers\peripheral\profile/cy_profile.c ****     /* send the hardware command */
 124:Generated_Source\PSoC6\pdl\drivers\peripheral\profile/cy_profile.c ****     PROFILE->CMD = CY_PROFILE_START_TR;
 176              		.loc 1 124 0 is_stmt 1
 177 0018 0122     		movs	r2, #1
 178 001a 024B     		ldr	r3, .L18+4
 179              	.LVL17:
 180 001c 1A61     		str	r2, [r3, #16]
 181 001e 7047     		bx	lr
 182              	.L19:
 183              		.align	2
 184              	.L18:
 185 0020 00000000 		.word	.LANCHOR0
 186 0024 00002D40 		.word	1076690944
 187              		.cfi_endproc
 188              	.LFE130:
 189              		.size	Cy_Profile_StartProfiling, .-Cy_Profile_StartProfiling
 190              		.section	.text.Cy_Profile_ClearConfiguration,"ax",%progbits
 191              		.align	2
 192              		.global	Cy_Profile_ClearConfiguration
 193              		.thumb
 194              		.thumb_func
 195              		.type	Cy_Profile_ClearConfiguration, %function
 196              	Cy_Profile_ClearConfiguration:
 197              	.LFB131:
 125:Generated_Source\PSoC6\pdl\drivers\peripheral\profile/cy_profile.c **** }
 126:Generated_Source\PSoC6\pdl\drivers\peripheral\profile/cy_profile.c **** 
 127:Generated_Source\PSoC6\pdl\drivers\peripheral\profile/cy_profile.c **** 
 128:Generated_Source\PSoC6\pdl\drivers\peripheral\profile/cy_profile.c **** /* ========================================================================== */
 129:Generated_Source\PSoC6\pdl\drivers\peripheral\profile/cy_profile.c **** /* ===================    COUNTER FUNCTIONS SECTION    ====================== */
 130:Generated_Source\PSoC6\pdl\drivers\peripheral\profile/cy_profile.c **** /* ========================================================================== */
 131:Generated_Source\PSoC6\pdl\drivers\peripheral\profile/cy_profile.c **** /*******************************************************************************
 132:Generated_Source\PSoC6\pdl\drivers\peripheral\profile/cy_profile.c **** * Function Name: Cy_Profile_ClearConfiguration
 133:Generated_Source\PSoC6\pdl\drivers\peripheral\profile/cy_profile.c **** ****************************************************************************//**
 134:Generated_Source\PSoC6\pdl\drivers\peripheral\profile/cy_profile.c **** *
 135:Generated_Source\PSoC6\pdl\drivers\peripheral\profile/cy_profile.c **** * Clears all counter configuration and sets all counters and overflow counters to 0.
 136:Generated_Source\PSoC6\pdl\drivers\peripheral\profile/cy_profile.c **** * Calls Cy_Profile_ClearCounters() to clear counter registers.
 137:Generated_Source\PSoC6\pdl\drivers\peripheral\profile/cy_profile.c **** *
 138:Generated_Source\PSoC6\pdl\drivers\peripheral\profile/cy_profile.c **** *******************************************************************************/
 139:Generated_Source\PSoC6\pdl\drivers\peripheral\profile/cy_profile.c **** void Cy_Profile_ClearConfiguration(void)
 140:Generated_Source\PSoC6\pdl\drivers\peripheral\profile/cy_profile.c **** {
 198              		.loc 1 140 0
ARM GAS  C:\Users\kiwamu\AppData\Local\Temp\cck8hqZ9.s 			page 7


 199              		.cfi_startproc
 200              		@ args = 0, pretend = 0, frame = 0
 201              		@ frame_needed = 0, uses_anonymous_args = 0
 202 0000 08B5     		push	{r3, lr}
 203              		.cfi_def_cfa_offset 8
 204              		.cfi_offset 3, -8
 205              		.cfi_offset 14, -4
 141:Generated_Source\PSoC6\pdl\drivers\peripheral\profile/cy_profile.c ****     (void)memset((void *)cy_ep_ctrs, 0, sizeof(cy_ep_ctrs));
 206              		.loc 1 141 0
 207 0002 E022     		movs	r2, #224
 208 0004 0021     		movs	r1, #0
 209 0006 0448     		ldr	r0, .L22
 210 0008 FFF7FEFF 		bl	memset
 211              	.LVL18:
 212              	.LBB4:
 213              	.LBB5:
 214              		.file 2 "Generated_Source\\PSoC6\\pdl\\drivers\\peripheral\\profile\\cy_profile.h"
   1:Generated_Source\PSoC6\pdl\drivers\peripheral\profile/cy_profile.h **** /***************************************************************************//**
   2:Generated_Source\PSoC6\pdl\drivers\peripheral\profile/cy_profile.h **** * \file cy_profile.h
   3:Generated_Source\PSoC6\pdl\drivers\peripheral\profile/cy_profile.h **** * \version 1.0
   4:Generated_Source\PSoC6\pdl\drivers\peripheral\profile/cy_profile.h **** *
   5:Generated_Source\PSoC6\pdl\drivers\peripheral\profile/cy_profile.h **** * Provides an API declaration of the profiler driver.
   6:Generated_Source\PSoC6\pdl\drivers\peripheral\profile/cy_profile.h **** *
   7:Generated_Source\PSoC6\pdl\drivers\peripheral\profile/cy_profile.h **** ********************************************************************************
   8:Generated_Source\PSoC6\pdl\drivers\peripheral\profile/cy_profile.h **** * \copyright
   9:Generated_Source\PSoC6\pdl\drivers\peripheral\profile/cy_profile.h **** * Copyright 2016-2017, Cypress Semiconductor Corporation. All rights reserved.
  10:Generated_Source\PSoC6\pdl\drivers\peripheral\profile/cy_profile.h **** * You may use this file only in accordance with the license, terms, conditions,
  11:Generated_Source\PSoC6\pdl\drivers\peripheral\profile/cy_profile.h **** * disclaimers, and limitations in the end user license agreement accompanying
  12:Generated_Source\PSoC6\pdl\drivers\peripheral\profile/cy_profile.h **** * the software package with which this file was provided.
  13:Generated_Source\PSoC6\pdl\drivers\peripheral\profile/cy_profile.h **** *******************************************************************************/
  14:Generated_Source\PSoC6\pdl\drivers\peripheral\profile/cy_profile.h **** 
  15:Generated_Source\PSoC6\pdl\drivers\peripheral\profile/cy_profile.h **** /**
  16:Generated_Source\PSoC6\pdl\drivers\peripheral\profile/cy_profile.h **** * \defgroup group_energy_profiler Energy Profiler (Profile)
  17:Generated_Source\PSoC6\pdl\drivers\peripheral\profile/cy_profile.h **** * \{
  18:Generated_Source\PSoC6\pdl\drivers\peripheral\profile/cy_profile.h **** * 
  19:Generated_Source\PSoC6\pdl\drivers\peripheral\profile/cy_profile.h **** * The profiler driver contains an API for configuring and using the 
  20:Generated_Source\PSoC6\pdl\drivers\peripheral\profile/cy_profile.h **** * profiler hardware. The profiler enables measurement of the relative 
  21:Generated_Source\PSoC6\pdl\drivers\peripheral\profile/cy_profile.h **** * amount of energy consumed by particular peripherals. Traditional 
  22:Generated_Source\PSoC6\pdl\drivers\peripheral\profile/cy_profile.h **** * profilers correlate energy consumption to the program counter, which helps you 
  23:Generated_Source\PSoC6\pdl\drivers\peripheral\profile/cy_profile.h **** * understand when power is consumed. The profiler provides additional insight into the 
  24:Generated_Source\PSoC6\pdl\drivers\peripheral\profile/cy_profile.h **** * device so you can identify an asynchronous activity that causes energy 
  25:Generated_Source\PSoC6\pdl\drivers\peripheral\profile/cy_profile.h **** * consumption. In other words, the profiler helps you understand where power is consumed.
  26:Generated_Source\PSoC6\pdl\drivers\peripheral\profile/cy_profile.h **** *
  27:Generated_Source\PSoC6\pdl\drivers\peripheral\profile/cy_profile.h **** * The profiler does not measure or report actual energy consumption. It measures either 
  28:Generated_Source\PSoC6\pdl\drivers\peripheral\profile/cy_profile.h **** * clock cycles or the number of events that have occurred in the profiling window. 
  29:Generated_Source\PSoC6\pdl\drivers\peripheral\profile/cy_profile.h **** * To derive relative energy consumption for each source, you can multiply the 
  30:Generated_Source\PSoC6\pdl\drivers\peripheral\profile/cy_profile.h **** * absolute count (clock cycles or events) for that source by a coefficient. 
  31:Generated_Source\PSoC6\pdl\drivers\peripheral\profile/cy_profile.h **** *
  32:Generated_Source\PSoC6\pdl\drivers\peripheral\profile/cy_profile.h **** * Many of the sources available for monitoring are asynchronous operations where 
  33:Generated_Source\PSoC6\pdl\drivers\peripheral\profile/cy_profile.h **** * the cause of energy consumption may be difficult to identify using external hardware.
  34:Generated_Source\PSoC6\pdl\drivers\peripheral\profile/cy_profile.h **** *
  35:Generated_Source\PSoC6\pdl\drivers\peripheral\profile/cy_profile.h **** * \section group_profile_configuration Configuration Considerations
  36:Generated_Source\PSoC6\pdl\drivers\peripheral\profile/cy_profile.h **** *
  37:Generated_Source\PSoC6\pdl\drivers\peripheral\profile/cy_profile.h **** * There is no PSoC Creator component for this peripheral. To use the profiler you 
  38:Generated_Source\PSoC6\pdl\drivers\peripheral\profile/cy_profile.h **** * include the header file and configure the counters by writing code and calling 
  39:Generated_Source\PSoC6\pdl\drivers\peripheral\profile/cy_profile.h **** * the Profiler API functions.
  40:Generated_Source\PSoC6\pdl\drivers\peripheral\profile/cy_profile.h **** *
ARM GAS  C:\Users\kiwamu\AppData\Local\Temp\cck8hqZ9.s 			page 8


  41:Generated_Source\PSoC6\pdl\drivers\peripheral\profile/cy_profile.h **** * At the highest level, you perform these tasks:
  42:Generated_Source\PSoC6\pdl\drivers\peripheral\profile/cy_profile.h **** *  - Initialize the profiling block
  43:Generated_Source\PSoC6\pdl\drivers\peripheral\profile/cy_profile.h **** *  - Set up the profiling interrupt
  44:Generated_Source\PSoC6\pdl\drivers\peripheral\profile/cy_profile.h **** *  - Configure, initialize, and enable the counters
  45:Generated_Source\PSoC6\pdl\drivers\peripheral\profile/cy_profile.h **** *  - Start and stop profiling
  46:Generated_Source\PSoC6\pdl\drivers\peripheral\profile/cy_profile.h **** *  - Get the results
  47:Generated_Source\PSoC6\pdl\drivers\peripheral\profile/cy_profile.h **** *  - Exit gracefully
  48:Generated_Source\PSoC6\pdl\drivers\peripheral\profile/cy_profile.h **** *
  49:Generated_Source\PSoC6\pdl\drivers\peripheral\profile/cy_profile.h **** * The profiler manages a set of counters. For each counter you use, you assign the source
  50:Generated_Source\PSoC6\pdl\drivers\peripheral\profile/cy_profile.h **** * you want monitored, a reference clock, and a coefficient used to calculate results.
  51:Generated_Source\PSoC6\pdl\drivers\peripheral\profile/cy_profile.h **** * You can also get the raw count for any counter.
  52:Generated_Source\PSoC6\pdl\drivers\peripheral\profile/cy_profile.h **** * 
  53:Generated_Source\PSoC6\pdl\drivers\peripheral\profile/cy_profile.h **** * Each counter is a 32-bit register that counts either a number of clock cycles, 
  54:Generated_Source\PSoC6\pdl\drivers\peripheral\profile/cy_profile.h **** * or a number of events. It is possible to overflow the 32-bit register. The 
  55:Generated_Source\PSoC6\pdl\drivers\peripheral\profile/cy_profile.h **** * firmware implements a 32-bit overflow counter. Combined with the 32-bit register, 
  56:Generated_Source\PSoC6\pdl\drivers\peripheral\profile/cy_profile.h **** * this gives you a 64-bit counter for each monitored source. The profiler generates 
  57:Generated_Source\PSoC6\pdl\drivers\peripheral\profile/cy_profile.h **** * an interrupt when an overflow occurs. You must configure the interrupt handler 
  58:Generated_Source\PSoC6\pdl\drivers\peripheral\profile/cy_profile.h **** * using Cy_SysInt_Init(). You can use Cy_Profile_ISR() as the interrupt handler. It 
  59:Generated_Source\PSoC6\pdl\drivers\peripheral\profile/cy_profile.h **** * increments the overflow counter for each profiling counter that is in use.
  60:Generated_Source\PSoC6\pdl\drivers\peripheral\profile/cy_profile.h **** *
  61:Generated_Source\PSoC6\pdl\drivers\peripheral\profile/cy_profile.h **** * When finished profiling, disable the profiler -- do the following:
  62:Generated_Source\PSoC6\pdl\drivers\peripheral\profile/cy_profile.h **** *  - Stop profiling. See \ref Cy_Profile_StopProfiling().
  63:Generated_Source\PSoC6\pdl\drivers\peripheral\profile/cy_profile.h **** *  - Clear all profiling configuration. See \ref Cy_Profile_ClearConfiguration().
  64:Generated_Source\PSoC6\pdl\drivers\peripheral\profile/cy_profile.h **** *  - Disable the profiling interrupt.
  65:Generated_Source\PSoC6\pdl\drivers\peripheral\profile/cy_profile.h **** *  - Disable the profiler. See \ref Cy_Profile_DeInit().
  66:Generated_Source\PSoC6\pdl\drivers\peripheral\profile/cy_profile.h **** * 
  67:Generated_Source\PSoC6\pdl\drivers\peripheral\profile/cy_profile.h **** * See notes on individual function definitions.
  68:Generated_Source\PSoC6\pdl\drivers\peripheral\profile/cy_profile.h **** *
  69:Generated_Source\PSoC6\pdl\drivers\peripheral\profile/cy_profile.h **** * \section group_profile_more_information More Information
  70:Generated_Source\PSoC6\pdl\drivers\peripheral\profile/cy_profile.h **** *
  71:Generated_Source\PSoC6\pdl\drivers\peripheral\profile/cy_profile.h **** * See the profiler chapter of the device technical reference manual (TRM).
  72:Generated_Source\PSoC6\pdl\drivers\peripheral\profile/cy_profile.h **** *
  73:Generated_Source\PSoC6\pdl\drivers\peripheral\profile/cy_profile.h **** * \section group_profile_MISRA MISRA-C Compliance
  74:Generated_Source\PSoC6\pdl\drivers\peripheral\profile/cy_profile.h **** * <table class="doxtable">
  75:Generated_Source\PSoC6\pdl\drivers\peripheral\profile/cy_profile.h **** *   <tr>
  76:Generated_Source\PSoC6\pdl\drivers\peripheral\profile/cy_profile.h **** *     <th>MISRA Rule</th>
  77:Generated_Source\PSoC6\pdl\drivers\peripheral\profile/cy_profile.h **** *     <th>Rule Class (Required/Advisory)</th>
  78:Generated_Source\PSoC6\pdl\drivers\peripheral\profile/cy_profile.h **** *     <th>Rule Description</th>
  79:Generated_Source\PSoC6\pdl\drivers\peripheral\profile/cy_profile.h **** *     <th>Description of Deviation(s)</th>
  80:Generated_Source\PSoC6\pdl\drivers\peripheral\profile/cy_profile.h **** *   </tr>
  81:Generated_Source\PSoC6\pdl\drivers\peripheral\profile/cy_profile.h **** *   <tr>
  82:Generated_Source\PSoC6\pdl\drivers\peripheral\profile/cy_profile.h **** *     <td>12.4</td>
  83:Generated_Source\PSoC6\pdl\drivers\peripheral\profile/cy_profile.h **** *     <td>R</td>
  84:Generated_Source\PSoC6\pdl\drivers\peripheral\profile/cy_profile.h **** *     <td>Right hand operand of '&&' or '||' is an expression with possible side effects.</td>
  85:Generated_Source\PSoC6\pdl\drivers\peripheral\profile/cy_profile.h **** *     <td>Function-like macros are used to achieve more efficient code.</td>
  86:Generated_Source\PSoC6\pdl\drivers\peripheral\profile/cy_profile.h **** *   </tr>
  87:Generated_Source\PSoC6\pdl\drivers\peripheral\profile/cy_profile.h **** *   <tr>
  88:Generated_Source\PSoC6\pdl\drivers\peripheral\profile/cy_profile.h **** *     <td>16.7</td>
  89:Generated_Source\PSoC6\pdl\drivers\peripheral\profile/cy_profile.h **** *     <td>A</td>
  90:Generated_Source\PSoC6\pdl\drivers\peripheral\profile/cy_profile.h **** *     <td>A pointer parameter can be of type 'pointer to const'.</td>
  91:Generated_Source\PSoC6\pdl\drivers\peripheral\profile/cy_profile.h **** *     <td>The pointer is cast for comparison purposes and thus can't be a const.</td>
  92:Generated_Source\PSoC6\pdl\drivers\peripheral\profile/cy_profile.h **** *   </tr>
  93:Generated_Source\PSoC6\pdl\drivers\peripheral\profile/cy_profile.h **** * </table>
  94:Generated_Source\PSoC6\pdl\drivers\peripheral\profile/cy_profile.h **** *
  95:Generated_Source\PSoC6\pdl\drivers\peripheral\profile/cy_profile.h **** * \section group_profile_changelog Changelog
  96:Generated_Source\PSoC6\pdl\drivers\peripheral\profile/cy_profile.h **** * <table class="doxtable">
  97:Generated_Source\PSoC6\pdl\drivers\peripheral\profile/cy_profile.h **** *   <tr><th>Version</th><th>Changes</th><th>Reason for Change</th></tr>
ARM GAS  C:\Users\kiwamu\AppData\Local\Temp\cck8hqZ9.s 			page 9


  98:Generated_Source\PSoC6\pdl\drivers\peripheral\profile/cy_profile.h **** *   <tr>
  99:Generated_Source\PSoC6\pdl\drivers\peripheral\profile/cy_profile.h **** *     <td>1.0</td>
 100:Generated_Source\PSoC6\pdl\drivers\peripheral\profile/cy_profile.h **** *     <td>Initial version</td>
 101:Generated_Source\PSoC6\pdl\drivers\peripheral\profile/cy_profile.h **** *     <td></td>
 102:Generated_Source\PSoC6\pdl\drivers\peripheral\profile/cy_profile.h **** *   </tr>
 103:Generated_Source\PSoC6\pdl\drivers\peripheral\profile/cy_profile.h **** * </table>
 104:Generated_Source\PSoC6\pdl\drivers\peripheral\profile/cy_profile.h **** *
 105:Generated_Source\PSoC6\pdl\drivers\peripheral\profile/cy_profile.h **** * \defgroup group_profile_macros Macros
 106:Generated_Source\PSoC6\pdl\drivers\peripheral\profile/cy_profile.h **** * \defgroup group_profile_functions Functions
 107:Generated_Source\PSoC6\pdl\drivers\peripheral\profile/cy_profile.h **** * \{
 108:Generated_Source\PSoC6\pdl\drivers\peripheral\profile/cy_profile.h **** *   \defgroup group_profile_functions_interrupt    Interrupt Functions
 109:Generated_Source\PSoC6\pdl\drivers\peripheral\profile/cy_profile.h **** *   \defgroup group_profile_functions_general      General Functions
 110:Generated_Source\PSoC6\pdl\drivers\peripheral\profile/cy_profile.h **** *   \defgroup group_profile_functions_counter      Counter Functions
 111:Generated_Source\PSoC6\pdl\drivers\peripheral\profile/cy_profile.h **** *   \defgroup group_profile_functions_calculation  Calculation Functions
 112:Generated_Source\PSoC6\pdl\drivers\peripheral\profile/cy_profile.h **** * \}
 113:Generated_Source\PSoC6\pdl\drivers\peripheral\profile/cy_profile.h **** * \defgroup group_profile_data_structures Data Structures
 114:Generated_Source\PSoC6\pdl\drivers\peripheral\profile/cy_profile.h **** * \defgroup group_profile_enums Enumerated Types
 115:Generated_Source\PSoC6\pdl\drivers\peripheral\profile/cy_profile.h **** */
 116:Generated_Source\PSoC6\pdl\drivers\peripheral\profile/cy_profile.h **** 
 117:Generated_Source\PSoC6\pdl\drivers\peripheral\profile/cy_profile.h **** #if !defined(CY_PROFILE_H)
 118:Generated_Source\PSoC6\pdl\drivers\peripheral\profile/cy_profile.h **** #define CY_PROFILE_H
 119:Generated_Source\PSoC6\pdl\drivers\peripheral\profile/cy_profile.h **** 
 120:Generated_Source\PSoC6\pdl\drivers\peripheral\profile/cy_profile.h **** #include "cy_device_headers.h"
 121:Generated_Source\PSoC6\pdl\drivers\peripheral\profile/cy_profile.h **** #include "syslib/cy_syslib.h"
 122:Generated_Source\PSoC6\pdl\drivers\peripheral\profile/cy_profile.h **** #include <stddef.h>
 123:Generated_Source\PSoC6\pdl\drivers\peripheral\profile/cy_profile.h **** 
 124:Generated_Source\PSoC6\pdl\drivers\peripheral\profile/cy_profile.h **** #ifndef CY_IP_MXPROFILE
 125:Generated_Source\PSoC6\pdl\drivers\peripheral\profile/cy_profile.h ****     #error "The PROFILE driver is not supported on this device"
 126:Generated_Source\PSoC6\pdl\drivers\peripheral\profile/cy_profile.h **** #endif
 127:Generated_Source\PSoC6\pdl\drivers\peripheral\profile/cy_profile.h **** 
 128:Generated_Source\PSoC6\pdl\drivers\peripheral\profile/cy_profile.h **** #if defined(__cplusplus)
 129:Generated_Source\PSoC6\pdl\drivers\peripheral\profile/cy_profile.h **** extern "C" {
 130:Generated_Source\PSoC6\pdl\drivers\peripheral\profile/cy_profile.h **** #endif /* __cplusplus */
 131:Generated_Source\PSoC6\pdl\drivers\peripheral\profile/cy_profile.h **** 
 132:Generated_Source\PSoC6\pdl\drivers\peripheral\profile/cy_profile.h **** /** \addtogroup group_profile_macros
 133:Generated_Source\PSoC6\pdl\drivers\peripheral\profile/cy_profile.h **** * \{
 134:Generated_Source\PSoC6\pdl\drivers\peripheral\profile/cy_profile.h **** */
 135:Generated_Source\PSoC6\pdl\drivers\peripheral\profile/cy_profile.h **** 
 136:Generated_Source\PSoC6\pdl\drivers\peripheral\profile/cy_profile.h **** /** Driver major version */
 137:Generated_Source\PSoC6\pdl\drivers\peripheral\profile/cy_profile.h **** #define CY_PROFILE_DRV_VERSION_MAJOR  1
 138:Generated_Source\PSoC6\pdl\drivers\peripheral\profile/cy_profile.h **** 
 139:Generated_Source\PSoC6\pdl\drivers\peripheral\profile/cy_profile.h **** /** Driver minor version */
 140:Generated_Source\PSoC6\pdl\drivers\peripheral\profile/cy_profile.h **** #define CY_PROFILE_DRV_VERSION_MINOR  0
 141:Generated_Source\PSoC6\pdl\drivers\peripheral\profile/cy_profile.h **** 
 142:Generated_Source\PSoC6\pdl\drivers\peripheral\profile/cy_profile.h **** /** Profile driver identifier */
 143:Generated_Source\PSoC6\pdl\drivers\peripheral\profile/cy_profile.h **** #define CY_PROFILE_ID   CY_PDL_DRV_ID(0x1EU)
 144:Generated_Source\PSoC6\pdl\drivers\peripheral\profile/cy_profile.h **** 
 145:Generated_Source\PSoC6\pdl\drivers\peripheral\profile/cy_profile.h **** /** Start profiling command for the CMD register */
 146:Generated_Source\PSoC6\pdl\drivers\peripheral\profile/cy_profile.h **** #define CY_PROFILE_START_TR    1UL  
 147:Generated_Source\PSoC6\pdl\drivers\peripheral\profile/cy_profile.h **** 
 148:Generated_Source\PSoC6\pdl\drivers\peripheral\profile/cy_profile.h **** /** Stop profiling command for the CMD register */
 149:Generated_Source\PSoC6\pdl\drivers\peripheral\profile/cy_profile.h **** #define CY_PROFILE_STOP_TR     2UL  
 150:Generated_Source\PSoC6\pdl\drivers\peripheral\profile/cy_profile.h **** 
 151:Generated_Source\PSoC6\pdl\drivers\peripheral\profile/cy_profile.h **** /** Command to clear all counter registers to 0 */
 152:Generated_Source\PSoC6\pdl\drivers\peripheral\profile/cy_profile.h **** #define CY_PROFILE_CLR_ALL_CNT 0x100UL
 153:Generated_Source\PSoC6\pdl\drivers\peripheral\profile/cy_profile.h **** 
 154:Generated_Source\PSoC6\pdl\drivers\peripheral\profile/cy_profile.h **** /** \} group_profile_macros */
ARM GAS  C:\Users\kiwamu\AppData\Local\Temp\cck8hqZ9.s 			page 10


 155:Generated_Source\PSoC6\pdl\drivers\peripheral\profile/cy_profile.h **** 
 156:Generated_Source\PSoC6\pdl\drivers\peripheral\profile/cy_profile.h **** /**
 157:Generated_Source\PSoC6\pdl\drivers\peripheral\profile/cy_profile.h **** * \addtogroup group_profile_enums
 158:Generated_Source\PSoC6\pdl\drivers\peripheral\profile/cy_profile.h **** * \{
 159:Generated_Source\PSoC6\pdl\drivers\peripheral\profile/cy_profile.h **** */
 160:Generated_Source\PSoC6\pdl\drivers\peripheral\profile/cy_profile.h **** 
 161:Generated_Source\PSoC6\pdl\drivers\peripheral\profile/cy_profile.h **** /**
 162:Generated_Source\PSoC6\pdl\drivers\peripheral\profile/cy_profile.h **** * The possible values for CTR register, REF_CLK_SEL bitfield. See the
 163:Generated_Source\PSoC6\pdl\drivers\peripheral\profile/cy_profile.h **** * technical reference manual (TRM) for reference clock considerations.
 164:Generated_Source\PSoC6\pdl\drivers\peripheral\profile/cy_profile.h **** */
 165:Generated_Source\PSoC6\pdl\drivers\peripheral\profile/cy_profile.h **** typedef enum 
 166:Generated_Source\PSoC6\pdl\drivers\peripheral\profile/cy_profile.h **** {
 167:Generated_Source\PSoC6\pdl\drivers\peripheral\profile/cy_profile.h ****     CY_PROFILE_CLK_TIMER  = 0, /**< See SRSS register CLK_TIMER_CTL.TIMER_SEL */
 168:Generated_Source\PSoC6\pdl\drivers\peripheral\profile/cy_profile.h ****     CY_PROFILE_CLK_IMO    = 1, /**< Internal main oscillator */
 169:Generated_Source\PSoC6\pdl\drivers\peripheral\profile/cy_profile.h ****     CY_PROFILE_CLK_ECO    = 2, /**< External crystal oscillator */
 170:Generated_Source\PSoC6\pdl\drivers\peripheral\profile/cy_profile.h ****     CY_PROFILE_CLK_LF     = 3, /**< See SRSS register CLK_SELECT.LFCLK_SEL */
 171:Generated_Source\PSoC6\pdl\drivers\peripheral\profile/cy_profile.h ****     CY_PROFILE_CLK_HF     = 4, /**< See SRSS registers CLK_ROOT_SELECT[0].ROOT_MUX and CLK_ROOT_SEL
 172:Generated_Source\PSoC6\pdl\drivers\peripheral\profile/cy_profile.h ****     CY_PROFILE_CLK_PERI   = 5, /**< See CPUSS register CM0_CLOCK_CTL.PERI_INT_DIV */
 173:Generated_Source\PSoC6\pdl\drivers\peripheral\profile/cy_profile.h **** } cy_en_profile_ref_clk_t;
 174:Generated_Source\PSoC6\pdl\drivers\peripheral\profile/cy_profile.h **** 
 175:Generated_Source\PSoC6\pdl\drivers\peripheral\profile/cy_profile.h **** /**
 176:Generated_Source\PSoC6\pdl\drivers\peripheral\profile/cy_profile.h **** * The possible values for CTR register, CNT_DURATION bitfield. See the
 177:Generated_Source\PSoC6\pdl\drivers\peripheral\profile/cy_profile.h **** * technical reference manual (TRM) event / duration considerations.
 178:Generated_Source\PSoC6\pdl\drivers\peripheral\profile/cy_profile.h **** */
 179:Generated_Source\PSoC6\pdl\drivers\peripheral\profile/cy_profile.h **** typedef enum 
 180:Generated_Source\PSoC6\pdl\drivers\peripheral\profile/cy_profile.h **** {
 181:Generated_Source\PSoC6\pdl\drivers\peripheral\profile/cy_profile.h ****     CY_PROFILE_EVENT    = 0,  /**< count module events  */
 182:Generated_Source\PSoC6\pdl\drivers\peripheral\profile/cy_profile.h ****     CY_PROFILE_DURATION = 1,  /**< count duration in clock cycles */
 183:Generated_Source\PSoC6\pdl\drivers\peripheral\profile/cy_profile.h **** } cy_en_profile_duration_t;
 184:Generated_Source\PSoC6\pdl\drivers\peripheral\profile/cy_profile.h **** 
 185:Generated_Source\PSoC6\pdl\drivers\peripheral\profile/cy_profile.h **** /** Profiler status codes */
 186:Generated_Source\PSoC6\pdl\drivers\peripheral\profile/cy_profile.h **** typedef enum 
 187:Generated_Source\PSoC6\pdl\drivers\peripheral\profile/cy_profile.h **** {
 188:Generated_Source\PSoC6\pdl\drivers\peripheral\profile/cy_profile.h ****     /** Operation completed successfully */
 189:Generated_Source\PSoC6\pdl\drivers\peripheral\profile/cy_profile.h ****     CY_PROFILE_SUCCESS = 0x00U,
 190:Generated_Source\PSoC6\pdl\drivers\peripheral\profile/cy_profile.h **** 
 191:Generated_Source\PSoC6\pdl\drivers\peripheral\profile/cy_profile.h ****     /** One or more of input parameters are invalid */
 192:Generated_Source\PSoC6\pdl\drivers\peripheral\profile/cy_profile.h ****     CY_PROFILE_BAD_PARAM = CY_PROFILE_ID | CY_PDL_STATUS_ERROR | 1UL
 193:Generated_Source\PSoC6\pdl\drivers\peripheral\profile/cy_profile.h **** 
 194:Generated_Source\PSoC6\pdl\drivers\peripheral\profile/cy_profile.h ****  } cy_en_profile_status_t;
 195:Generated_Source\PSoC6\pdl\drivers\peripheral\profile/cy_profile.h **** 
 196:Generated_Source\PSoC6\pdl\drivers\peripheral\profile/cy_profile.h ****  /** \} group_profile_enums */
 197:Generated_Source\PSoC6\pdl\drivers\peripheral\profile/cy_profile.h **** 
 198:Generated_Source\PSoC6\pdl\drivers\peripheral\profile/cy_profile.h **** /**
 199:Generated_Source\PSoC6\pdl\drivers\peripheral\profile/cy_profile.h **** * \addtogroup group_profile_data_structures
 200:Generated_Source\PSoC6\pdl\drivers\peripheral\profile/cy_profile.h **** * \{
 201:Generated_Source\PSoC6\pdl\drivers\peripheral\profile/cy_profile.h **** */
 202:Generated_Source\PSoC6\pdl\drivers\peripheral\profile/cy_profile.h **** 
 203:Generated_Source\PSoC6\pdl\drivers\peripheral\profile/cy_profile.h **** /**
 204:Generated_Source\PSoC6\pdl\drivers\peripheral\profile/cy_profile.h **** * Profiler counter control register structure. For each counter, holds the CTL register fields.
 205:Generated_Source\PSoC6\pdl\drivers\peripheral\profile/cy_profile.h **** */
 206:Generated_Source\PSoC6\pdl\drivers\peripheral\profile/cy_profile.h **** typedef struct
 207:Generated_Source\PSoC6\pdl\drivers\peripheral\profile/cy_profile.h **** {
 208:Generated_Source\PSoC6\pdl\drivers\peripheral\profile/cy_profile.h ****     cy_en_profile_duration_t  cntDuration; /**< 0 = events are monitored; 1 = duration is monitored
 209:Generated_Source\PSoC6\pdl\drivers\peripheral\profile/cy_profile.h ****     cy_en_profile_ref_clk_t   refClkSel;   /**< The reference clock used by this counter; 3 bits */
 210:Generated_Source\PSoC6\pdl\drivers\peripheral\profile/cy_profile.h ****     en_ep_mon_sel_t           monSel;      /**< The monitor signal to be observed by this counter; 
 211:Generated_Source\PSoC6\pdl\drivers\peripheral\profile/cy_profile.h **** } cy_stc_profile_ctr_ctl_t; 
ARM GAS  C:\Users\kiwamu\AppData\Local\Temp\cck8hqZ9.s 			page 11


 212:Generated_Source\PSoC6\pdl\drivers\peripheral\profile/cy_profile.h **** 
 213:Generated_Source\PSoC6\pdl\drivers\peripheral\profile/cy_profile.h **** /**
 214:Generated_Source\PSoC6\pdl\drivers\peripheral\profile/cy_profile.h **** * Structure holding all information for an profiler counter.
 215:Generated_Source\PSoC6\pdl\drivers\peripheral\profile/cy_profile.h **** */
 216:Generated_Source\PSoC6\pdl\drivers\peripheral\profile/cy_profile.h **** typedef struct
 217:Generated_Source\PSoC6\pdl\drivers\peripheral\profile/cy_profile.h **** {
 218:Generated_Source\PSoC6\pdl\drivers\peripheral\profile/cy_profile.h ****     uint8_t                   ctrNum;      /**< hardware counter # */ 
 219:Generated_Source\PSoC6\pdl\drivers\peripheral\profile/cy_profile.h ****     uint8_t                   used;        /**< used 0 = available, 1 = being used */
 220:Generated_Source\PSoC6\pdl\drivers\peripheral\profile/cy_profile.h ****     cy_stc_profile_ctr_ctl_t  ctlRegVals;  /**< counter CTL reg bitfield values */
 221:Generated_Source\PSoC6\pdl\drivers\peripheral\profile/cy_profile.h ****     PROFILE_CNT_STRUCT_Type * cntAddr;     /**< base MMIO addr of counter registers */
 222:Generated_Source\PSoC6\pdl\drivers\peripheral\profile/cy_profile.h ****     uint32_t                  ctlReg;      /**< also includes enabled/disabled status */
 223:Generated_Source\PSoC6\pdl\drivers\peripheral\profile/cy_profile.h ****     uint32_t                  cntReg;      /**< current counter value */
 224:Generated_Source\PSoC6\pdl\drivers\peripheral\profile/cy_profile.h ****     uint32_t                  overflow;    /**< this register and cntReg form a 64-bit counter valu
 225:Generated_Source\PSoC6\pdl\drivers\peripheral\profile/cy_profile.h ****     uint32_t                  weight;      /**< counter weighting factor */
 226:Generated_Source\PSoC6\pdl\drivers\peripheral\profile/cy_profile.h **** } cy_stc_profile_ctr_t;
 227:Generated_Source\PSoC6\pdl\drivers\peripheral\profile/cy_profile.h **** 
 228:Generated_Source\PSoC6\pdl\drivers\peripheral\profile/cy_profile.h **** /**
 229:Generated_Source\PSoC6\pdl\drivers\peripheral\profile/cy_profile.h **** * Pointer to structure holding all information for an profiler counter.
 230:Generated_Source\PSoC6\pdl\drivers\peripheral\profile/cy_profile.h **** */
 231:Generated_Source\PSoC6\pdl\drivers\peripheral\profile/cy_profile.h **** typedef cy_stc_profile_ctr_t * cy_stc_profile_ctr_ptr_t;
 232:Generated_Source\PSoC6\pdl\drivers\peripheral\profile/cy_profile.h **** /** \} group_profile_data_structures */
 233:Generated_Source\PSoC6\pdl\drivers\peripheral\profile/cy_profile.h **** 
 234:Generated_Source\PSoC6\pdl\drivers\peripheral\profile/cy_profile.h **** /**
 235:Generated_Source\PSoC6\pdl\drivers\peripheral\profile/cy_profile.h **** * \addtogroup group_profile_functions
 236:Generated_Source\PSoC6\pdl\drivers\peripheral\profile/cy_profile.h **** * \{
 237:Generated_Source\PSoC6\pdl\drivers\peripheral\profile/cy_profile.h **** */
 238:Generated_Source\PSoC6\pdl\drivers\peripheral\profile/cy_profile.h **** 
 239:Generated_Source\PSoC6\pdl\drivers\peripheral\profile/cy_profile.h **** /**
 240:Generated_Source\PSoC6\pdl\drivers\peripheral\profile/cy_profile.h **** * \addtogroup group_profile_functions_interrupt
 241:Generated_Source\PSoC6\pdl\drivers\peripheral\profile/cy_profile.h **** * \{
 242:Generated_Source\PSoC6\pdl\drivers\peripheral\profile/cy_profile.h **** */
 243:Generated_Source\PSoC6\pdl\drivers\peripheral\profile/cy_profile.h **** /* ========================================================================== */
 244:Generated_Source\PSoC6\pdl\drivers\peripheral\profile/cy_profile.h **** /* ====================    INTERRUPT FUNCTION SECTION    ==================== */
 245:Generated_Source\PSoC6\pdl\drivers\peripheral\profile/cy_profile.h **** /* ========================================================================== */
 246:Generated_Source\PSoC6\pdl\drivers\peripheral\profile/cy_profile.h **** void Cy_Profile_ISR(void);
 247:Generated_Source\PSoC6\pdl\drivers\peripheral\profile/cy_profile.h **** /** \} group_profile_functions_interrupt */
 248:Generated_Source\PSoC6\pdl\drivers\peripheral\profile/cy_profile.h **** 
 249:Generated_Source\PSoC6\pdl\drivers\peripheral\profile/cy_profile.h **** /**
 250:Generated_Source\PSoC6\pdl\drivers\peripheral\profile/cy_profile.h **** * \addtogroup group_profile_functions_general
 251:Generated_Source\PSoC6\pdl\drivers\peripheral\profile/cy_profile.h **** * \{
 252:Generated_Source\PSoC6\pdl\drivers\peripheral\profile/cy_profile.h **** */
 253:Generated_Source\PSoC6\pdl\drivers\peripheral\profile/cy_profile.h **** __STATIC_INLINE void Cy_Profile_Init(void);
 254:Generated_Source\PSoC6\pdl\drivers\peripheral\profile/cy_profile.h **** __STATIC_INLINE void Cy_Profile_DeInit(void);
 255:Generated_Source\PSoC6\pdl\drivers\peripheral\profile/cy_profile.h **** void Cy_Profile_StartProfiling(void);
 256:Generated_Source\PSoC6\pdl\drivers\peripheral\profile/cy_profile.h **** __STATIC_INLINE void Cy_Profile_DeInit(void);
 257:Generated_Source\PSoC6\pdl\drivers\peripheral\profile/cy_profile.h **** __STATIC_INLINE void Cy_Profile_StopProfiling(void);
 258:Generated_Source\PSoC6\pdl\drivers\peripheral\profile/cy_profile.h **** __STATIC_INLINE uint32_t Cy_Profile_IsProfiling(void);
 259:Generated_Source\PSoC6\pdl\drivers\peripheral\profile/cy_profile.h **** 
 260:Generated_Source\PSoC6\pdl\drivers\peripheral\profile/cy_profile.h **** /* ========================================================================== */
 261:Generated_Source\PSoC6\pdl\drivers\peripheral\profile/cy_profile.h **** /* ===============    GENERAL PROFILER FUNCTIONS SECTION    ================= */
 262:Generated_Source\PSoC6\pdl\drivers\peripheral\profile/cy_profile.h **** /* ========================================================================== */
 263:Generated_Source\PSoC6\pdl\drivers\peripheral\profile/cy_profile.h **** /*******************************************************************************
 264:Generated_Source\PSoC6\pdl\drivers\peripheral\profile/cy_profile.h **** * Function Name: Cy_Profile_Init
 265:Generated_Source\PSoC6\pdl\drivers\peripheral\profile/cy_profile.h **** ****************************************************************************//**
 266:Generated_Source\PSoC6\pdl\drivers\peripheral\profile/cy_profile.h **** *
 267:Generated_Source\PSoC6\pdl\drivers\peripheral\profile/cy_profile.h **** * Turns on the profiler for profiling. It must be called once when energy profiling is
 268:Generated_Source\PSoC6\pdl\drivers\peripheral\profile/cy_profile.h **** * desired.  This does not start a profiling session. Use Cy_Profile_StartProfiling() 
ARM GAS  C:\Users\kiwamu\AppData\Local\Temp\cck8hqZ9.s 			page 12


 269:Generated_Source\PSoC6\pdl\drivers\peripheral\profile/cy_profile.h **** * to start a profiling session.
 270:Generated_Source\PSoC6\pdl\drivers\peripheral\profile/cy_profile.h **** *
 271:Generated_Source\PSoC6\pdl\drivers\peripheral\profile/cy_profile.h **** * \note Before calling this function, the user must configure the profiler interrupt
 272:Generated_Source\PSoC6\pdl\drivers\peripheral\profile/cy_profile.h **** * so that \ref Cy_Profile_ISR() is executed.
 273:Generated_Source\PSoC6\pdl\drivers\peripheral\profile/cy_profile.h **** *******************************************************************************/
 274:Generated_Source\PSoC6\pdl\drivers\peripheral\profile/cy_profile.h **** __STATIC_INLINE void Cy_Profile_Init(void)
 275:Generated_Source\PSoC6\pdl\drivers\peripheral\profile/cy_profile.h **** {
 276:Generated_Source\PSoC6\pdl\drivers\peripheral\profile/cy_profile.h ****     PROFILE->CTL = _VAL2FLD(PROFILE_CTL_ENABLED,  1UL/*enabled */) | 
 277:Generated_Source\PSoC6\pdl\drivers\peripheral\profile/cy_profile.h ****                    _VAL2FLD(PROFILE_CTL_WIN_MODE, 0UL/*start/stop mode*/);
 278:Generated_Source\PSoC6\pdl\drivers\peripheral\profile/cy_profile.h ****     PROFILE->INTR_MASK = 0UL; /* clear all counter interrupt mask bits */
 279:Generated_Source\PSoC6\pdl\drivers\peripheral\profile/cy_profile.h **** }
 280:Generated_Source\PSoC6\pdl\drivers\peripheral\profile/cy_profile.h **** 
 281:Generated_Source\PSoC6\pdl\drivers\peripheral\profile/cy_profile.h **** /*******************************************************************************
 282:Generated_Source\PSoC6\pdl\drivers\peripheral\profile/cy_profile.h **** * Function Name: Cy_Profile_DeInit
 283:Generated_Source\PSoC6\pdl\drivers\peripheral\profile/cy_profile.h **** ****************************************************************************//**
 284:Generated_Source\PSoC6\pdl\drivers\peripheral\profile/cy_profile.h **** *
 285:Generated_Source\PSoC6\pdl\drivers\peripheral\profile/cy_profile.h **** * Turns off the profiler. It should be called when energy profiling is no longer
 286:Generated_Source\PSoC6\pdl\drivers\peripheral\profile/cy_profile.h **** * desired.
 287:Generated_Source\PSoC6\pdl\drivers\peripheral\profile/cy_profile.h **** *
 288:Generated_Source\PSoC6\pdl\drivers\peripheral\profile/cy_profile.h **** * \note When calling this function, the user should consider also deallocating
 289:Generated_Source\PSoC6\pdl\drivers\peripheral\profile/cy_profile.h **** * the profiler interrupt.
 290:Generated_Source\PSoC6\pdl\drivers\peripheral\profile/cy_profile.h **** *******************************************************************************/
 291:Generated_Source\PSoC6\pdl\drivers\peripheral\profile/cy_profile.h **** __STATIC_INLINE void Cy_Profile_DeInit(void)
 292:Generated_Source\PSoC6\pdl\drivers\peripheral\profile/cy_profile.h **** {
 293:Generated_Source\PSoC6\pdl\drivers\peripheral\profile/cy_profile.h ****     PROFILE->CTL = _VAL2FLD(PROFILE_CTL_ENABLED, 0UL/*disabled */);
 294:Generated_Source\PSoC6\pdl\drivers\peripheral\profile/cy_profile.h ****     PROFILE->INTR_MASK = 0UL; /* clear all counter interrupt mask bits */
 295:Generated_Source\PSoC6\pdl\drivers\peripheral\profile/cy_profile.h **** }
 296:Generated_Source\PSoC6\pdl\drivers\peripheral\profile/cy_profile.h **** 
 297:Generated_Source\PSoC6\pdl\drivers\peripheral\profile/cy_profile.h **** /*******************************************************************************
 298:Generated_Source\PSoC6\pdl\drivers\peripheral\profile/cy_profile.h **** * Function Name: Cy_Profile_StopProfiling
 299:Generated_Source\PSoC6\pdl\drivers\peripheral\profile/cy_profile.h **** ****************************************************************************//**
 300:Generated_Source\PSoC6\pdl\drivers\peripheral\profile/cy_profile.h **** *
 301:Generated_Source\PSoC6\pdl\drivers\peripheral\profile/cy_profile.h **** * Stops profiling.
 302:Generated_Source\PSoC6\pdl\drivers\peripheral\profile/cy_profile.h **** *
 303:Generated_Source\PSoC6\pdl\drivers\peripheral\profile/cy_profile.h **** * \note When calling this function, the user should also disable the profiler
 304:Generated_Source\PSoC6\pdl\drivers\peripheral\profile/cy_profile.h **** * interrupt.
 305:Generated_Source\PSoC6\pdl\drivers\peripheral\profile/cy_profile.h **** *******************************************************************************/
 306:Generated_Source\PSoC6\pdl\drivers\peripheral\profile/cy_profile.h **** __STATIC_INLINE void Cy_Profile_StopProfiling(void)
 307:Generated_Source\PSoC6\pdl\drivers\peripheral\profile/cy_profile.h **** {
 308:Generated_Source\PSoC6\pdl\drivers\peripheral\profile/cy_profile.h ****     PROFILE->CMD = CY_PROFILE_STOP_TR;
 309:Generated_Source\PSoC6\pdl\drivers\peripheral\profile/cy_profile.h **** }
 310:Generated_Source\PSoC6\pdl\drivers\peripheral\profile/cy_profile.h **** 
 311:Generated_Source\PSoC6\pdl\drivers\peripheral\profile/cy_profile.h **** /*******************************************************************************
 312:Generated_Source\PSoC6\pdl\drivers\peripheral\profile/cy_profile.h **** * Function Name: Cy_Profile_IsProfiling
 313:Generated_Source\PSoC6\pdl\drivers\peripheral\profile/cy_profile.h **** ****************************************************************************//**
 314:Generated_Source\PSoC6\pdl\drivers\peripheral\profile/cy_profile.h **** *
 315:Generated_Source\PSoC6\pdl\drivers\peripheral\profile/cy_profile.h **** * Reports whether or not profiling is active.
 316:Generated_Source\PSoC6\pdl\drivers\peripheral\profile/cy_profile.h **** *
 317:Generated_Source\PSoC6\pdl\drivers\peripheral\profile/cy_profile.h **** * \return 0 = profiling is not active; 1 = profiling is active
 318:Generated_Source\PSoC6\pdl\drivers\peripheral\profile/cy_profile.h **** *
 319:Generated_Source\PSoC6\pdl\drivers\peripheral\profile/cy_profile.h **** *******************************************************************************/
 320:Generated_Source\PSoC6\pdl\drivers\peripheral\profile/cy_profile.h **** __STATIC_INLINE uint32_t Cy_Profile_IsProfiling(void)
 321:Generated_Source\PSoC6\pdl\drivers\peripheral\profile/cy_profile.h **** {
 322:Generated_Source\PSoC6\pdl\drivers\peripheral\profile/cy_profile.h ****     return _FLD2VAL(PROFILE_STATUS_WIN_ACTIVE, PROFILE->STATUS);
 323:Generated_Source\PSoC6\pdl\drivers\peripheral\profile/cy_profile.h **** }
 324:Generated_Source\PSoC6\pdl\drivers\peripheral\profile/cy_profile.h **** /** \} group_profile_functions_general */
 325:Generated_Source\PSoC6\pdl\drivers\peripheral\profile/cy_profile.h **** 
ARM GAS  C:\Users\kiwamu\AppData\Local\Temp\cck8hqZ9.s 			page 13


 326:Generated_Source\PSoC6\pdl\drivers\peripheral\profile/cy_profile.h **** /**
 327:Generated_Source\PSoC6\pdl\drivers\peripheral\profile/cy_profile.h **** * \addtogroup group_profile_functions_counter
 328:Generated_Source\PSoC6\pdl\drivers\peripheral\profile/cy_profile.h **** * \{
 329:Generated_Source\PSoC6\pdl\drivers\peripheral\profile/cy_profile.h **** */
 330:Generated_Source\PSoC6\pdl\drivers\peripheral\profile/cy_profile.h **** void Cy_Profile_ClearConfiguration(void);
 331:Generated_Source\PSoC6\pdl\drivers\peripheral\profile/cy_profile.h **** __STATIC_INLINE void Cy_Profile_ClearCounters(void);
 332:Generated_Source\PSoC6\pdl\drivers\peripheral\profile/cy_profile.h **** cy_stc_profile_ctr_ptr_t Cy_Profile_ConfigureCounter(en_ep_mon_sel_t monitor, cy_en_profile_duratio
 333:Generated_Source\PSoC6\pdl\drivers\peripheral\profile/cy_profile.h **** cy_en_profile_status_t Cy_Profile_FreeCounter(cy_stc_profile_ctr_ptr_t ctrAddr);
 334:Generated_Source\PSoC6\pdl\drivers\peripheral\profile/cy_profile.h **** cy_en_profile_status_t Cy_Profile_EnableCounter(cy_stc_profile_ctr_ptr_t ctrAddr);
 335:Generated_Source\PSoC6\pdl\drivers\peripheral\profile/cy_profile.h **** cy_en_profile_status_t Cy_Profile_DisableCounter(cy_stc_profile_ctr_ptr_t ctrAddr);
 336:Generated_Source\PSoC6\pdl\drivers\peripheral\profile/cy_profile.h **** 
 337:Generated_Source\PSoC6\pdl\drivers\peripheral\profile/cy_profile.h **** /* ========================================================================== */
 338:Generated_Source\PSoC6\pdl\drivers\peripheral\profile/cy_profile.h **** /* ===================    COUNTER FUNCTIONS SECTION    ====================== */
 339:Generated_Source\PSoC6\pdl\drivers\peripheral\profile/cy_profile.h **** /* ========================================================================== */
 340:Generated_Source\PSoC6\pdl\drivers\peripheral\profile/cy_profile.h **** /*******************************************************************************
 341:Generated_Source\PSoC6\pdl\drivers\peripheral\profile/cy_profile.h **** * Function Name: Cy_Profile_ClearCounters
 342:Generated_Source\PSoC6\pdl\drivers\peripheral\profile/cy_profile.h **** ****************************************************************************//**
 343:Generated_Source\PSoC6\pdl\drivers\peripheral\profile/cy_profile.h **** *
 344:Generated_Source\PSoC6\pdl\drivers\peripheral\profile/cy_profile.h **** * Clears all hardware counters to 0.
 345:Generated_Source\PSoC6\pdl\drivers\peripheral\profile/cy_profile.h **** *
 346:Generated_Source\PSoC6\pdl\drivers\peripheral\profile/cy_profile.h **** *******************************************************************************/
 347:Generated_Source\PSoC6\pdl\drivers\peripheral\profile/cy_profile.h **** __STATIC_INLINE void Cy_Profile_ClearCounters(void)
 348:Generated_Source\PSoC6\pdl\drivers\peripheral\profile/cy_profile.h **** {
 349:Generated_Source\PSoC6\pdl\drivers\peripheral\profile/cy_profile.h ****     PROFILE->CMD = CY_PROFILE_CLR_ALL_CNT;
 215              		.loc 2 349 0
 216 000c 4FF48072 		mov	r2, #256
 217 0010 024B     		ldr	r3, .L22+4
 218 0012 1A61     		str	r2, [r3, #16]
 219 0014 08BD     		pop	{r3, pc}
 220              	.L23:
 221 0016 00BF     		.align	2
 222              	.L22:
 223 0018 00000000 		.word	.LANCHOR0
 224 001c 00002D40 		.word	1076690944
 225              	.LBE5:
 226              	.LBE4:
 227              		.cfi_endproc
 228              	.LFE131:
 229              		.size	Cy_Profile_ClearConfiguration, .-Cy_Profile_ClearConfiguration
 230              		.section	.text.Cy_Profile_ConfigureCounter,"ax",%progbits
 231              		.align	2
 232              		.global	Cy_Profile_ConfigureCounter
 233              		.thumb
 234              		.thumb_func
 235              		.type	Cy_Profile_ConfigureCounter, %function
 236              	Cy_Profile_ConfigureCounter:
 237              	.LFB132:
 142:Generated_Source\PSoC6\pdl\drivers\peripheral\profile/cy_profile.c ****     Cy_Profile_ClearCounters();
 143:Generated_Source\PSoC6\pdl\drivers\peripheral\profile/cy_profile.c **** }
 144:Generated_Source\PSoC6\pdl\drivers\peripheral\profile/cy_profile.c **** 
 145:Generated_Source\PSoC6\pdl\drivers\peripheral\profile/cy_profile.c **** /*******************************************************************************
 146:Generated_Source\PSoC6\pdl\drivers\peripheral\profile/cy_profile.c **** * Function Name: Cy_Profile_ConfigureCounter
 147:Generated_Source\PSoC6\pdl\drivers\peripheral\profile/cy_profile.c **** ****************************************************************************//**
 148:Generated_Source\PSoC6\pdl\drivers\peripheral\profile/cy_profile.c **** *
 149:Generated_Source\PSoC6\pdl\drivers\peripheral\profile/cy_profile.c **** * Assigns a given monitor source to a counter, and loads the CTL register
 150:Generated_Source\PSoC6\pdl\drivers\peripheral\profile/cy_profile.c **** * bitfields of an assigned counter.
 151:Generated_Source\PSoC6\pdl\drivers\peripheral\profile/cy_profile.c **** *
ARM GAS  C:\Users\kiwamu\AppData\Local\Temp\cck8hqZ9.s 			page 14


 152:Generated_Source\PSoC6\pdl\drivers\peripheral\profile/cy_profile.c **** * The available monitor sources vary per device series. Refer to the series-specific 
 153:Generated_Source\PSoC6\pdl\drivers\peripheral\profile/cy_profile.c **** * configuration header file for the list of available monitor sources.
 154:Generated_Source\PSoC6\pdl\drivers\peripheral\profile/cy_profile.c **** * 
 155:Generated_Source\PSoC6\pdl\drivers\peripheral\profile/cy_profile.c **** * \param monitor The monitor source #
 156:Generated_Source\PSoC6\pdl\drivers\peripheral\profile/cy_profile.c **** *
 157:Generated_Source\PSoC6\pdl\drivers\peripheral\profile/cy_profile.c **** * \param duration Events are monitored (0), or duration is monitored (1)
 158:Generated_Source\PSoC6\pdl\drivers\peripheral\profile/cy_profile.c **** *
 159:Generated_Source\PSoC6\pdl\drivers\peripheral\profile/cy_profile.c **** * \param refClk The reference clock to use; see \ref cy_en_profile_ref_clk_t.
 160:Generated_Source\PSoC6\pdl\drivers\peripheral\profile/cy_profile.c **** * In general, it is recommended to use CY_PROFILE_CLK_HF to maximize resolution.
 161:Generated_Source\PSoC6\pdl\drivers\peripheral\profile/cy_profile.c **** *
 162:Generated_Source\PSoC6\pdl\drivers\peripheral\profile/cy_profile.c **** * \param weight Weighting factor for the counter value
 163:Generated_Source\PSoC6\pdl\drivers\peripheral\profile/cy_profile.c **** * 
 164:Generated_Source\PSoC6\pdl\drivers\peripheral\profile/cy_profile.c **** * \return A pointer to the counter data structure. NULL if no counter is
 165:Generated_Source\PSoC6\pdl\drivers\peripheral\profile/cy_profile.c **** * available.
 166:Generated_Source\PSoC6\pdl\drivers\peripheral\profile/cy_profile.c **** *
 167:Generated_Source\PSoC6\pdl\drivers\peripheral\profile/cy_profile.c **** * \note The counter is not enabled by this function. See functions
 168:Generated_Source\PSoC6\pdl\drivers\peripheral\profile/cy_profile.c **** * \ref Cy_Profile_EnableCounter() and \ref Cy_Profile_DisableCounter(). See the
 169:Generated_Source\PSoC6\pdl\drivers\peripheral\profile/cy_profile.c **** * Technical Reference Manual (TRM) chapter on the EP for reference clock considerations.
 170:Generated_Source\PSoC6\pdl\drivers\peripheral\profile/cy_profile.c **** * 
 171:Generated_Source\PSoC6\pdl\drivers\peripheral\profile/cy_profile.c **** *******************************************************************************/
 172:Generated_Source\PSoC6\pdl\drivers\peripheral\profile/cy_profile.c **** cy_stc_profile_ctr_ptr_t Cy_Profile_ConfigureCounter(en_ep_mon_sel_t monitor, cy_en_profile_duratio
 173:Generated_Source\PSoC6\pdl\drivers\peripheral\profile/cy_profile.c ****                                                      cy_en_profile_ref_clk_t refClk,  uint32_t weig
 174:Generated_Source\PSoC6\pdl\drivers\peripheral\profile/cy_profile.c **** {
 238              		.loc 1 174 0
 239              		.cfi_startproc
 240              		@ args = 0, pretend = 0, frame = 8
 241              		@ frame_needed = 0, uses_anonymous_args = 0
 242              		@ link register save eliminated.
 243              	.LVL19:
 244 0000 F0B4     		push	{r4, r5, r6, r7}
 245              		.cfi_def_cfa_offset 16
 246              		.cfi_offset 4, -16
 247              		.cfi_offset 5, -12
 248              		.cfi_offset 6, -8
 249              		.cfi_offset 7, -4
 250 0002 82B0     		sub	sp, sp, #8
 251              		.cfi_def_cfa_offset 24
 252              	.LVL20:
 175:Generated_Source\PSoC6\pdl\drivers\peripheral\profile/cy_profile.c ****     cy_stc_profile_ctr_ptr_t retVal = NULL; /* error value if no counter is available */
 176:Generated_Source\PSoC6\pdl\drivers\peripheral\profile/cy_profile.c ****     volatile uint8_t i;
 177:Generated_Source\PSoC6\pdl\drivers\peripheral\profile/cy_profile.c ****     /* scan through the counters for an unused one */
 178:Generated_Source\PSoC6\pdl\drivers\peripheral\profile/cy_profile.c ****     for (i = 0u; (cy_ep_ctrs[i].used != 0u) && (i < CY_N_ELMTS(cy_ep_ctrs)); i++){}
 253              		.loc 1 178 0
 254 0004 0024     		movs	r4, #0
 255 0006 8DF80740 		strb	r4, [sp, #7]
 256 000a 05E0     		b	.L25
 257              	.L27:
 258              		.loc 1 178 0 is_stmt 0 discriminator 4
 259 000c 9DF80740 		ldrb	r4, [sp, #7]	@ zero_extendqisi2
 260 0010 0134     		adds	r4, r4, #1
 261 0012 E4B2     		uxtb	r4, r4
 262 0014 8DF80740 		strb	r4, [sp, #7]
 263              	.L25:
 264              		.loc 1 178 0 discriminator 1
 265 0018 9DF80740 		ldrb	r4, [sp, #7]	@ zero_extendqisi2
 266 001c C4EBC404 		rsb	r4, r4, r4, lsl #3
 267 0020 A500     		lsls	r5, r4, #2
ARM GAS  C:\Users\kiwamu\AppData\Local\Temp\cck8hqZ9.s 			page 15


 268 0022 354C     		ldr	r4, .L31
 269 0024 2544     		add	r5, r5, r4
 270 0026 6C78     		ldrb	r4, [r5, #1]	@ zero_extendqisi2
 271 0028 24B1     		cbz	r4, .L26
 272              		.loc 1 178 0 discriminator 3
 273 002a 9DF80740 		ldrb	r4, [sp, #7]	@ zero_extendqisi2
 274 002e E4B2     		uxtb	r4, r4
 275 0030 072C     		cmp	r4, #7
 276 0032 EBD9     		bls	.L27
 277              	.L26:
 179:Generated_Source\PSoC6\pdl\drivers\peripheral\profile/cy_profile.c ****     if (i < CY_N_ELMTS(cy_ep_ctrs))
 278              		.loc 1 179 0 is_stmt 1
 279 0034 9DF80740 		ldrb	r4, [sp, #7]	@ zero_extendqisi2
 280 0038 E4B2     		uxtb	r4, r4
 281 003a 072C     		cmp	r4, #7
 282 003c 57D8     		bhi	.L29
 180:Generated_Source\PSoC6\pdl\drivers\peripheral\profile/cy_profile.c ****     { /* found one, fill in its data structure */
 181:Generated_Source\PSoC6\pdl\drivers\peripheral\profile/cy_profile.c ****         cy_ep_ctrs[i].ctrNum = i;
 283              		.loc 1 181 0
 284 003e 9DF80750 		ldrb	r5, [sp, #7]	@ zero_extendqisi2
 285 0042 9DF80770 		ldrb	r7, [sp, #7]	@ zero_extendqisi2
 286 0046 2C4C     		ldr	r4, .L31
 287 0048 C5EBC505 		rsb	r5, r5, r5, lsl #3
 288 004c AE00     		lsls	r6, r5, #2
 289 004e A755     		strb	r7, [r4, r6]
 182:Generated_Source\PSoC6\pdl\drivers\peripheral\profile/cy_profile.c ****         cy_ep_ctrs[i].used = 1u;
 290              		.loc 1 182 0
 291 0050 9DF80750 		ldrb	r5, [sp, #7]	@ zero_extendqisi2
 292 0054 C5EBC505 		rsb	r5, r5, r5, lsl #3
 293 0058 AE00     		lsls	r6, r5, #2
 294 005a 2644     		add	r6, r6, r4
 295 005c 0125     		movs	r5, #1
 296 005e 7570     		strb	r5, [r6, #1]
 183:Generated_Source\PSoC6\pdl\drivers\peripheral\profile/cy_profile.c ****         cy_ep_ctrs[i].cntAddr = (PROFILE_CNT_STRUCT_Type *)&(PROFILE->CNT_STRUCT[i]);
 297              		.loc 1 183 0
 298 0060 9DF80750 		ldrb	r5, [sp, #7]	@ zero_extendqisi2
 299 0064 9DF80770 		ldrb	r7, [sp, #7]	@ zero_extendqisi2
 300 0068 C5EBC505 		rsb	r5, r5, r5, lsl #3
 301 006c AE00     		lsls	r6, r5, #2
 302 006e 2644     		add	r6, r6, r4
 303 0070 224D     		ldr	r5, .L31+4
 304 0072 05EB0715 		add	r5, r5, r7, lsl #4
 305 0076 B560     		str	r5, [r6, #8]
 184:Generated_Source\PSoC6\pdl\drivers\peripheral\profile/cy_profile.c ****         cy_ep_ctrs[i].ctlRegVals.cntDuration = duration;
 306              		.loc 1 184 0
 307 0078 9DF80750 		ldrb	r5, [sp, #7]	@ zero_extendqisi2
 308 007c C5EBC505 		rsb	r5, r5, r5, lsl #3
 309 0080 AE00     		lsls	r6, r5, #2
 310 0082 2644     		add	r6, r6, r4
 311 0084 B170     		strb	r1, [r6, #2]
 185:Generated_Source\PSoC6\pdl\drivers\peripheral\profile/cy_profile.c ****         cy_ep_ctrs[i].ctlRegVals.refClkSel = refClk;
 312              		.loc 1 185 0
 313 0086 9DF80710 		ldrb	r1, [sp, #7]	@ zero_extendqisi2
 314              	.LVL21:
 315 008a C1EBC101 		rsb	r1, r1, r1, lsl #3
 316 008e 8D00     		lsls	r5, r1, #2
 317 0090 2544     		add	r5, r5, r4
ARM GAS  C:\Users\kiwamu\AppData\Local\Temp\cck8hqZ9.s 			page 16


 318 0092 EA70     		strb	r2, [r5, #3]
 186:Generated_Source\PSoC6\pdl\drivers\peripheral\profile/cy_profile.c ****         cy_ep_ctrs[i].ctlRegVals.monSel = monitor;
 319              		.loc 1 186 0
 320 0094 9DF80720 		ldrb	r2, [sp, #7]	@ zero_extendqisi2
 321              	.LVL22:
 322 0098 C2EBC202 		rsb	r2, r2, r2, lsl #3
 323 009c 9100     		lsls	r1, r2, #2
 324 009e 2144     		add	r1, r1, r4
 325 00a0 0871     		strb	r0, [r1, #4]
 187:Generated_Source\PSoC6\pdl\drivers\peripheral\profile/cy_profile.c ****         cy_ep_ctrs[i].overflow = 0UL;
 326              		.loc 1 187 0
 327 00a2 9DF80720 		ldrb	r2, [sp, #7]	@ zero_extendqisi2
 328 00a6 C2EBC202 		rsb	r2, r2, r2, lsl #3
 329 00aa 9100     		lsls	r1, r2, #2
 330 00ac 2144     		add	r1, r1, r4
 331 00ae 0022     		movs	r2, #0
 332 00b0 4A61     		str	r2, [r1, #20]
 188:Generated_Source\PSoC6\pdl\drivers\peripheral\profile/cy_profile.c ****         cy_ep_ctrs[i].weight = weight;
 333              		.loc 1 188 0
 334 00b2 9DF80720 		ldrb	r2, [sp, #7]	@ zero_extendqisi2
 335 00b6 C2EBC202 		rsb	r2, r2, r2, lsl #3
 336 00ba 9100     		lsls	r1, r2, #2
 337 00bc 2144     		add	r1, r1, r4
 338 00be 8B61     		str	r3, [r1, #24]
 189:Generated_Source\PSoC6\pdl\drivers\peripheral\profile/cy_profile.c ****         /* pass back the handle to (address of) the counter data structure */
 190:Generated_Source\PSoC6\pdl\drivers\peripheral\profile/cy_profile.c ****         retVal = &cy_ep_ctrs[i];
 339              		.loc 1 190 0
 340 00c0 9DF80730 		ldrb	r3, [sp, #7]	@ zero_extendqisi2
 341              	.LVL23:
 342 00c4 DEB2     		uxtb	r6, r3
 343              	.LVL24:
 344 00c6 F500     		lsls	r5, r6, #3
 345              	.LVL25:
 346 00c8 AB1B     		subs	r3, r5, r6
 347 00ca 9800     		lsls	r0, r3, #2
 348              	.LVL26:
 349 00cc 2044     		add	r0, r0, r4
 350              	.LVL27:
 191:Generated_Source\PSoC6\pdl\drivers\peripheral\profile/cy_profile.c ****         
 192:Generated_Source\PSoC6\pdl\drivers\peripheral\profile/cy_profile.c ****         /* Load the CTL register bitfields of the assigned counter. */
 193:Generated_Source\PSoC6\pdl\drivers\peripheral\profile/cy_profile.c ****         retVal->cntAddr->CTL =
 351              		.loc 1 193 0
 352 00ce 8168     		ldr	r1, [r0, #8]
 353              	.LVL28:
 194:Generated_Source\PSoC6\pdl\drivers\peripheral\profile/cy_profile.c ****             _VAL2FLD(PROFILE_CNT_STRUCT_CTL_CNT_DURATION, retVal->ctlRegVals.cntDuration) |
 354              		.loc 1 194 0
 355 00d0 8278     		ldrb	r2, [r0, #2]	@ zero_extendqisi2
 356              	.LVL29:
 357 00d2 02F00102 		and	r2, r2, #1
 195:Generated_Source\PSoC6\pdl\drivers\peripheral\profile/cy_profile.c ****             _VAL2FLD(PROFILE_CNT_STRUCT_CTL_REF_CLK_SEL,  retVal->ctlRegVals.refClkSel)   |
 358              		.loc 1 195 0
 359 00d6 C378     		ldrb	r3, [r0, #3]	@ zero_extendqisi2
 360 00d8 1B01     		lsls	r3, r3, #4
 361 00da 03F07003 		and	r3, r3, #112
 194:Generated_Source\PSoC6\pdl\drivers\peripheral\profile/cy_profile.c ****             _VAL2FLD(PROFILE_CNT_STRUCT_CTL_CNT_DURATION, retVal->ctlRegVals.cntDuration) |
 362              		.loc 1 194 0
 363 00de 1A43     		orrs	r2, r2, r3
ARM GAS  C:\Users\kiwamu\AppData\Local\Temp\cck8hqZ9.s 			page 17


 196:Generated_Source\PSoC6\pdl\drivers\peripheral\profile/cy_profile.c ****             _VAL2FLD(PROFILE_CNT_STRUCT_CTL_MON_SEL,      retVal->ctlRegVals.monSel);
 364              		.loc 1 196 0
 365 00e0 0379     		ldrb	r3, [r0, #4]	@ zero_extendqisi2
 366 00e2 1B04     		lsls	r3, r3, #16
 367 00e4 03F4FE03 		and	r3, r3, #8323072
 195:Generated_Source\PSoC6\pdl\drivers\peripheral\profile/cy_profile.c ****             _VAL2FLD(PROFILE_CNT_STRUCT_CTL_REF_CLK_SEL,  retVal->ctlRegVals.refClkSel)   |
 368              		.loc 1 195 0
 369 00e8 1343     		orrs	r3, r3, r2
 193:Generated_Source\PSoC6\pdl\drivers\peripheral\profile/cy_profile.c ****             _VAL2FLD(PROFILE_CNT_STRUCT_CTL_CNT_DURATION, retVal->ctlRegVals.cntDuration) |
 370              		.loc 1 193 0
 371 00ea 0B60     		str	r3, [r1]
 372 00ec 00E0     		b	.L28
 373              	.LVL30:
 374              	.L29:
 175:Generated_Source\PSoC6\pdl\drivers\peripheral\profile/cy_profile.c ****     volatile uint8_t i;
 375              		.loc 1 175 0
 376 00ee 0020     		movs	r0, #0
 377              	.LVL31:
 378              	.L28:
 197:Generated_Source\PSoC6\pdl\drivers\peripheral\profile/cy_profile.c **** 
 198:Generated_Source\PSoC6\pdl\drivers\peripheral\profile/cy_profile.c ****     }
 199:Generated_Source\PSoC6\pdl\drivers\peripheral\profile/cy_profile.c ****     return (retVal);
 200:Generated_Source\PSoC6\pdl\drivers\peripheral\profile/cy_profile.c **** }
 379              		.loc 1 200 0
 380 00f0 02B0     		add	sp, sp, #8
 381              		.cfi_def_cfa_offset 16
 382              		@ sp needed
 383 00f2 F0BC     		pop	{r4, r5, r6, r7}
 384              		.cfi_restore 7
 385              		.cfi_restore 6
 386              		.cfi_restore 5
 387              		.cfi_restore 4
 388              		.cfi_def_cfa_offset 0
 389 00f4 7047     		bx	lr
 390              	.L32:
 391 00f6 00BF     		.align	2
 392              	.L31:
 393 00f8 00000000 		.word	.LANCHOR0
 394 00fc 00082D40 		.word	1076692992
 395              		.cfi_endproc
 396              	.LFE132:
 397              		.size	Cy_Profile_ConfigureCounter, .-Cy_Profile_ConfigureCounter
 398              		.section	.text.Cy_Profile_FreeCounter,"ax",%progbits
 399              		.align	2
 400              		.global	Cy_Profile_FreeCounter
 401              		.thumb
 402              		.thumb_func
 403              		.type	Cy_Profile_FreeCounter, %function
 404              	Cy_Profile_FreeCounter:
 405              	.LFB133:
 201:Generated_Source\PSoC6\pdl\drivers\peripheral\profile/cy_profile.c **** 
 202:Generated_Source\PSoC6\pdl\drivers\peripheral\profile/cy_profile.c **** /*******************************************************************************
 203:Generated_Source\PSoC6\pdl\drivers\peripheral\profile/cy_profile.c **** * Function Name: Cy_Profile_FreeCounter
 204:Generated_Source\PSoC6\pdl\drivers\peripheral\profile/cy_profile.c **** ****************************************************************************//**
 205:Generated_Source\PSoC6\pdl\drivers\peripheral\profile/cy_profile.c **** *
 206:Generated_Source\PSoC6\pdl\drivers\peripheral\profile/cy_profile.c **** * Frees up a counter from a previously-assigned monitor source.
 207:Generated_Source\PSoC6\pdl\drivers\peripheral\profile/cy_profile.c **** * \ref Cy_Profile_ConfigureCounter() must have been called for this counter before
ARM GAS  C:\Users\kiwamu\AppData\Local\Temp\cck8hqZ9.s 			page 18


 208:Generated_Source\PSoC6\pdl\drivers\peripheral\profile/cy_profile.c **** * calling this function.
 209:Generated_Source\PSoC6\pdl\drivers\peripheral\profile/cy_profile.c **** *
 210:Generated_Source\PSoC6\pdl\drivers\peripheral\profile/cy_profile.c **** * \param ctrAddr The handle to (address of) the assigned counter, which is
 211:Generated_Source\PSoC6\pdl\drivers\peripheral\profile/cy_profile.c **** * obtained by a call to \ref Cy_Profile_ConfigureCounter().
 212:Generated_Source\PSoC6\pdl\drivers\peripheral\profile/cy_profile.c **** * 
 213:Generated_Source\PSoC6\pdl\drivers\peripheral\profile/cy_profile.c **** * \return \ref CY_PROFILE_SUCCESS, or \ref CY_PROFILE_BAD_PARAM for counter not in use.
 214:Generated_Source\PSoC6\pdl\drivers\peripheral\profile/cy_profile.c **** *
 215:Generated_Source\PSoC6\pdl\drivers\peripheral\profile/cy_profile.c **** * \note The counter is not disabled by this function. See functions
 216:Generated_Source\PSoC6\pdl\drivers\peripheral\profile/cy_profile.c **** * \ref Cy_Profile_EnableCounter() and \ref Cy_Profile_DisableCounter().
 217:Generated_Source\PSoC6\pdl\drivers\peripheral\profile/cy_profile.c **** *******************************************************************************/
 218:Generated_Source\PSoC6\pdl\drivers\peripheral\profile/cy_profile.c **** cy_en_profile_status_t Cy_Profile_FreeCounter(cy_stc_profile_ctr_ptr_t ctrAddr)
 219:Generated_Source\PSoC6\pdl\drivers\peripheral\profile/cy_profile.c **** {
 406              		.loc 1 219 0
 407              		.cfi_startproc
 408              		@ args = 0, pretend = 0, frame = 0
 409              		@ frame_needed = 0, uses_anonymous_args = 0
 410              	.LVL32:
 411 0000 10B5     		push	{r4, lr}
 412              		.cfi_def_cfa_offset 8
 413              		.cfi_offset 4, -8
 414              		.cfi_offset 14, -4
 415 0002 0446     		mov	r4, r0
 416              	.LVL33:
 220:Generated_Source\PSoC6\pdl\drivers\peripheral\profile/cy_profile.c ****    cy_en_profile_status_t retStatus = CY_PROFILE_BAD_PARAM;
 221:Generated_Source\PSoC6\pdl\drivers\peripheral\profile/cy_profile.c ****    
 222:Generated_Source\PSoC6\pdl\drivers\peripheral\profile/cy_profile.c ****     retStatus = Cy_Profile_IsPtrValid(ctrAddr);
 417              		.loc 1 222 0
 418 0004 FFF7FEFF 		bl	Cy_Profile_IsPtrValid
 419              	.LVL34:
 223:Generated_Source\PSoC6\pdl\drivers\peripheral\profile/cy_profile.c ****     if (retStatus == CY_PROFILE_SUCCESS)
 420              		.loc 1 223 0
 421 0008 0346     		mov	r3, r0
 422 000a 08B9     		cbnz	r0, .L34
 224:Generated_Source\PSoC6\pdl\drivers\peripheral\profile/cy_profile.c ****     {
 225:Generated_Source\PSoC6\pdl\drivers\peripheral\profile/cy_profile.c ****         ctrAddr->used = 0u;
 423              		.loc 1 225 0
 424 000c 0022     		movs	r2, #0
 425 000e 6270     		strb	r2, [r4, #1]
 426              	.L34:
 226:Generated_Source\PSoC6\pdl\drivers\peripheral\profile/cy_profile.c ****     }
 227:Generated_Source\PSoC6\pdl\drivers\peripheral\profile/cy_profile.c ****     return (retStatus);
 228:Generated_Source\PSoC6\pdl\drivers\peripheral\profile/cy_profile.c **** }
 427              		.loc 1 228 0
 428 0010 1846     		mov	r0, r3
 429              	.LVL35:
 430 0012 10BD     		pop	{r4, pc}
 431              		.cfi_endproc
 432              	.LFE133:
 433              		.size	Cy_Profile_FreeCounter, .-Cy_Profile_FreeCounter
 434              		.section	.text.Cy_Profile_EnableCounter,"ax",%progbits
 435              		.align	2
 436              		.global	Cy_Profile_EnableCounter
 437              		.thumb
 438              		.thumb_func
 439              		.type	Cy_Profile_EnableCounter, %function
 440              	Cy_Profile_EnableCounter:
 441              	.LFB134:
ARM GAS  C:\Users\kiwamu\AppData\Local\Temp\cck8hqZ9.s 			page 19


 229:Generated_Source\PSoC6\pdl\drivers\peripheral\profile/cy_profile.c **** 
 230:Generated_Source\PSoC6\pdl\drivers\peripheral\profile/cy_profile.c **** /*******************************************************************************
 231:Generated_Source\PSoC6\pdl\drivers\peripheral\profile/cy_profile.c **** * Function Name: Cy_Profile_EnableCounter
 232:Generated_Source\PSoC6\pdl\drivers\peripheral\profile/cy_profile.c **** ****************************************************************************//**
 233:Generated_Source\PSoC6\pdl\drivers\peripheral\profile/cy_profile.c **** *
 234:Generated_Source\PSoC6\pdl\drivers\peripheral\profile/cy_profile.c **** * Enables an assigned counter. \ref Cy_Profile_ConfigureCounter() must have been
 235:Generated_Source\PSoC6\pdl\drivers\peripheral\profile/cy_profile.c **** * called for this counter before calling this function.
 236:Generated_Source\PSoC6\pdl\drivers\peripheral\profile/cy_profile.c **** *
 237:Generated_Source\PSoC6\pdl\drivers\peripheral\profile/cy_profile.c **** * \param ctrAddr The handle to (address of) the assigned counter, which is
 238:Generated_Source\PSoC6\pdl\drivers\peripheral\profile/cy_profile.c **** * obtained by a call to \ref Cy_Profile_ConfigureCounter().
 239:Generated_Source\PSoC6\pdl\drivers\peripheral\profile/cy_profile.c **** * 
 240:Generated_Source\PSoC6\pdl\drivers\peripheral\profile/cy_profile.c **** * \return \ref CY_PROFILE_SUCCESS, or \ref CY_PROFILE_BAD_PARAM for counter not in use.
 241:Generated_Source\PSoC6\pdl\drivers\peripheral\profile/cy_profile.c **** *
 242:Generated_Source\PSoC6\pdl\drivers\peripheral\profile/cy_profile.c **** *******************************************************************************/
 243:Generated_Source\PSoC6\pdl\drivers\peripheral\profile/cy_profile.c **** cy_en_profile_status_t Cy_Profile_EnableCounter(cy_stc_profile_ctr_ptr_t ctrAddr)
 244:Generated_Source\PSoC6\pdl\drivers\peripheral\profile/cy_profile.c **** {
 442              		.loc 1 244 0
 443              		.cfi_startproc
 444              		@ args = 0, pretend = 0, frame = 0
 445              		@ frame_needed = 0, uses_anonymous_args = 0
 446              	.LVL36:
 447 0000 38B5     		push	{r3, r4, r5, lr}
 448              		.cfi_def_cfa_offset 16
 449              		.cfi_offset 3, -16
 450              		.cfi_offset 4, -12
 451              		.cfi_offset 5, -8
 452              		.cfi_offset 14, -4
 453 0002 0446     		mov	r4, r0
 454              	.LVL37:
 245:Generated_Source\PSoC6\pdl\drivers\peripheral\profile/cy_profile.c ****     cy_en_profile_status_t retStatus = CY_PROFILE_BAD_PARAM;
 246:Generated_Source\PSoC6\pdl\drivers\peripheral\profile/cy_profile.c ****     
 247:Generated_Source\PSoC6\pdl\drivers\peripheral\profile/cy_profile.c ****     retStatus = Cy_Profile_IsPtrValid(ctrAddr);
 455              		.loc 1 247 0
 456 0004 FFF7FEFF 		bl	Cy_Profile_IsPtrValid
 457              	.LVL38:
 248:Generated_Source\PSoC6\pdl\drivers\peripheral\profile/cy_profile.c ****     if (retStatus == CY_PROFILE_SUCCESS)
 458              		.loc 1 248 0
 459 0008 0146     		mov	r1, r0
 460 000a 70B9     		cbnz	r0, .L37
 249:Generated_Source\PSoC6\pdl\drivers\peripheral\profile/cy_profile.c ****     {
 250:Generated_Source\PSoC6\pdl\drivers\peripheral\profile/cy_profile.c ****         /* set the ENABLED bit */
 251:Generated_Source\PSoC6\pdl\drivers\peripheral\profile/cy_profile.c ****         ctrAddr->cntAddr->CTL |= _VAL2FLD(PROFILE_CNT_STRUCT_CTL_ENABLED, 1UL);
 461              		.loc 1 251 0
 462 000c A268     		ldr	r2, [r4, #8]
 463 000e 1368     		ldr	r3, [r2]
 464 0010 43F00043 		orr	r3, r3, #-2147483648
 465 0014 1360     		str	r3, [r2]
 252:Generated_Source\PSoC6\pdl\drivers\peripheral\profile/cy_profile.c ****         /* set the INTR_MASK bit for the counter being used */
 253:Generated_Source\PSoC6\pdl\drivers\peripheral\profile/cy_profile.c ****         PROFILE->INTR_MASK |= (1UL << (ctrAddr->ctrNum));
 466              		.loc 1 253 0
 467 0016 0648     		ldr	r0, .L39
 468              	.LVL39:
 469 0018 D0F8C857 		ldr	r5, [r0, #1992]
 470 001c 2378     		ldrb	r3, [r4]	@ zero_extendqisi2
 471 001e 0122     		movs	r2, #1
 472 0020 02FA03F3 		lsl	r3, r2, r3
 473 0024 2B43     		orrs	r3, r3, r5
ARM GAS  C:\Users\kiwamu\AppData\Local\Temp\cck8hqZ9.s 			page 20


 474 0026 C0F8C837 		str	r3, [r0, #1992]
 475              	.L37:
 254:Generated_Source\PSoC6\pdl\drivers\peripheral\profile/cy_profile.c ****     }
 255:Generated_Source\PSoC6\pdl\drivers\peripheral\profile/cy_profile.c ****     return (retStatus);
 256:Generated_Source\PSoC6\pdl\drivers\peripheral\profile/cy_profile.c **** }
 476              		.loc 1 256 0
 477 002a 0846     		mov	r0, r1
 478 002c 38BD     		pop	{r3, r4, r5, pc}
 479              	.LVL40:
 480              	.L40:
 481 002e 00BF     		.align	2
 482              	.L39:
 483 0030 00002D40 		.word	1076690944
 484              		.cfi_endproc
 485              	.LFE134:
 486              		.size	Cy_Profile_EnableCounter, .-Cy_Profile_EnableCounter
 487              		.section	.text.Cy_Profile_DisableCounter,"ax",%progbits
 488              		.align	2
 489              		.global	Cy_Profile_DisableCounter
 490              		.thumb
 491              		.thumb_func
 492              		.type	Cy_Profile_DisableCounter, %function
 493              	Cy_Profile_DisableCounter:
 494              	.LFB135:
 257:Generated_Source\PSoC6\pdl\drivers\peripheral\profile/cy_profile.c **** 
 258:Generated_Source\PSoC6\pdl\drivers\peripheral\profile/cy_profile.c **** /*******************************************************************************
 259:Generated_Source\PSoC6\pdl\drivers\peripheral\profile/cy_profile.c **** * Function Name: Cy_Profile_DisableCounter
 260:Generated_Source\PSoC6\pdl\drivers\peripheral\profile/cy_profile.c **** ****************************************************************************//**
 261:Generated_Source\PSoC6\pdl\drivers\peripheral\profile/cy_profile.c **** *
 262:Generated_Source\PSoC6\pdl\drivers\peripheral\profile/cy_profile.c **** * Disables an assigned counter. \ref Cy_Profile_ConfigureCounter() must have been
 263:Generated_Source\PSoC6\pdl\drivers\peripheral\profile/cy_profile.c **** * called for this counter before calling this function.
 264:Generated_Source\PSoC6\pdl\drivers\peripheral\profile/cy_profile.c **** *
 265:Generated_Source\PSoC6\pdl\drivers\peripheral\profile/cy_profile.c **** * \param ctrAddr The handle to (address of) the assigned counter, which is
 266:Generated_Source\PSoC6\pdl\drivers\peripheral\profile/cy_profile.c **** * obtained by a call to \ref Cy_Profile_ConfigureCounter().
 267:Generated_Source\PSoC6\pdl\drivers\peripheral\profile/cy_profile.c **** * 
 268:Generated_Source\PSoC6\pdl\drivers\peripheral\profile/cy_profile.c **** * \return \ref CY_PROFILE_SUCCESS, or \ref CY_PROFILE_BAD_PARAM for counter not in use.
 269:Generated_Source\PSoC6\pdl\drivers\peripheral\profile/cy_profile.c **** *
 270:Generated_Source\PSoC6\pdl\drivers\peripheral\profile/cy_profile.c **** *******************************************************************************/
 271:Generated_Source\PSoC6\pdl\drivers\peripheral\profile/cy_profile.c **** cy_en_profile_status_t Cy_Profile_DisableCounter(cy_stc_profile_ctr_ptr_t ctrAddr)
 272:Generated_Source\PSoC6\pdl\drivers\peripheral\profile/cy_profile.c **** {
 495              		.loc 1 272 0
 496              		.cfi_startproc
 497              		@ args = 0, pretend = 0, frame = 0
 498              		@ frame_needed = 0, uses_anonymous_args = 0
 499              	.LVL41:
 500 0000 10B5     		push	{r4, lr}
 501              		.cfi_def_cfa_offset 8
 502              		.cfi_offset 4, -8
 503              		.cfi_offset 14, -4
 504 0002 0446     		mov	r4, r0
 273:Generated_Source\PSoC6\pdl\drivers\peripheral\profile/cy_profile.c ****     cy_en_profile_status_t retStatus = Cy_Profile_IsPtrValid(ctrAddr);
 505              		.loc 1 273 0
 506 0004 FFF7FEFF 		bl	Cy_Profile_IsPtrValid
 507              	.LVL42:
 274:Generated_Source\PSoC6\pdl\drivers\peripheral\profile/cy_profile.c ****     if (retStatus == CY_PROFILE_SUCCESS)
 508              		.loc 1 274 0
 509 0008 0146     		mov	r1, r0
ARM GAS  C:\Users\kiwamu\AppData\Local\Temp\cck8hqZ9.s 			page 21


 510 000a 70B9     		cbnz	r0, .L42
 275:Generated_Source\PSoC6\pdl\drivers\peripheral\profile/cy_profile.c ****     {
 276:Generated_Source\PSoC6\pdl\drivers\peripheral\profile/cy_profile.c ****         /* clear the ENABLED bit */
 277:Generated_Source\PSoC6\pdl\drivers\peripheral\profile/cy_profile.c ****         ctrAddr->cntAddr->CTL &= ~(_VAL2FLD(PROFILE_CNT_STRUCT_CTL_ENABLED, 1UL));
 511              		.loc 1 277 0
 512 000c A268     		ldr	r2, [r4, #8]
 513 000e 1368     		ldr	r3, [r2]
 514 0010 23F00043 		bic	r3, r3, #-2147483648
 515 0014 1360     		str	r3, [r2]
 278:Generated_Source\PSoC6\pdl\drivers\peripheral\profile/cy_profile.c ****         /* clear the INTR_MASK bit for the counter being used */
 279:Generated_Source\PSoC6\pdl\drivers\peripheral\profile/cy_profile.c ****         PROFILE->INTR_MASK &= ~(1UL << (ctrAddr->ctrNum));
 516              		.loc 1 279 0
 517 0016 0648     		ldr	r0, .L44
 518              	.LVL43:
 519 0018 D0F8C827 		ldr	r2, [r0, #1992]
 520 001c 2478     		ldrb	r4, [r4]	@ zero_extendqisi2
 521              	.LVL44:
 522 001e 0123     		movs	r3, #1
 523 0020 A340     		lsls	r3, r3, r4
 524 0022 22EA0303 		bic	r3, r2, r3
 525 0026 C0F8C837 		str	r3, [r0, #1992]
 526              	.L42:
 280:Generated_Source\PSoC6\pdl\drivers\peripheral\profile/cy_profile.c ****     }
 281:Generated_Source\PSoC6\pdl\drivers\peripheral\profile/cy_profile.c ****     return (retStatus);
 282:Generated_Source\PSoC6\pdl\drivers\peripheral\profile/cy_profile.c **** }
 527              		.loc 1 282 0
 528 002a 0846     		mov	r0, r1
 529 002c 10BD     		pop	{r4, pc}
 530              	.L45:
 531 002e 00BF     		.align	2
 532              	.L44:
 533 0030 00002D40 		.word	1076690944
 534              		.cfi_endproc
 535              	.LFE135:
 536              		.size	Cy_Profile_DisableCounter, .-Cy_Profile_DisableCounter
 537              		.section	.text.Cy_Profile_GetRawCount,"ax",%progbits
 538              		.align	2
 539              		.global	Cy_Profile_GetRawCount
 540              		.thumb
 541              		.thumb_func
 542              		.type	Cy_Profile_GetRawCount, %function
 543              	Cy_Profile_GetRawCount:
 544              	.LFB136:
 283:Generated_Source\PSoC6\pdl\drivers\peripheral\profile/cy_profile.c **** 
 284:Generated_Source\PSoC6\pdl\drivers\peripheral\profile/cy_profile.c **** 
 285:Generated_Source\PSoC6\pdl\drivers\peripheral\profile/cy_profile.c **** /* ========================================================================== */
 286:Generated_Source\PSoC6\pdl\drivers\peripheral\profile/cy_profile.c **** /* ==================    CALCULATION FUNCTIONS SECTION    =================== */
 287:Generated_Source\PSoC6\pdl\drivers\peripheral\profile/cy_profile.c **** /* ========================================================================== */
 288:Generated_Source\PSoC6\pdl\drivers\peripheral\profile/cy_profile.c **** /*******************************************************************************
 289:Generated_Source\PSoC6\pdl\drivers\peripheral\profile/cy_profile.c **** * Function Name: Cy_Profile_GetRawCount
 290:Generated_Source\PSoC6\pdl\drivers\peripheral\profile/cy_profile.c **** ****************************************************************************//**
 291:Generated_Source\PSoC6\pdl\drivers\peripheral\profile/cy_profile.c **** *
 292:Generated_Source\PSoC6\pdl\drivers\peripheral\profile/cy_profile.c **** * Reports the count value for a specified counter.
 293:Generated_Source\PSoC6\pdl\drivers\peripheral\profile/cy_profile.c **** *
 294:Generated_Source\PSoC6\pdl\drivers\peripheral\profile/cy_profile.c **** * \param ctrAddr the handle to (address of) the assigned counter, which is
 295:Generated_Source\PSoC6\pdl\drivers\peripheral\profile/cy_profile.c **** * obtained by a call to \ref Cy_Profile_ConfigureCounter().
 296:Generated_Source\PSoC6\pdl\drivers\peripheral\profile/cy_profile.c **** *
ARM GAS  C:\Users\kiwamu\AppData\Local\Temp\cck8hqZ9.s 			page 22


 297:Generated_Source\PSoC6\pdl\drivers\peripheral\profile/cy_profile.c **** * \param result The address to which to write the result.
 298:Generated_Source\PSoC6\pdl\drivers\peripheral\profile/cy_profile.c **** * 
 299:Generated_Source\PSoC6\pdl\drivers\peripheral\profile/cy_profile.c **** * \return \ref CY_PROFILE_SUCCESS, or \ref CY_PROFILE_BAD_PARAM for counter not in use.
 300:Generated_Source\PSoC6\pdl\drivers\peripheral\profile/cy_profile.c **** *
 301:Generated_Source\PSoC6\pdl\drivers\peripheral\profile/cy_profile.c **** *******************************************************************************/
 302:Generated_Source\PSoC6\pdl\drivers\peripheral\profile/cy_profile.c **** cy_en_profile_status_t Cy_Profile_GetRawCount(cy_stc_profile_ctr_ptr_t ctrAddr, uint64_t *result)
 303:Generated_Source\PSoC6\pdl\drivers\peripheral\profile/cy_profile.c **** {
 545              		.loc 1 303 0
 546              		.cfi_startproc
 547              		@ args = 0, pretend = 0, frame = 0
 548              		@ frame_needed = 0, uses_anonymous_args = 0
 549              	.LVL45:
 550 0000 38B5     		push	{r3, r4, r5, lr}
 551              		.cfi_def_cfa_offset 16
 552              		.cfi_offset 3, -16
 553              		.cfi_offset 4, -12
 554              		.cfi_offset 5, -8
 555              		.cfi_offset 14, -4
 556 0002 0446     		mov	r4, r0
 557 0004 0D46     		mov	r5, r1
 304:Generated_Source\PSoC6\pdl\drivers\peripheral\profile/cy_profile.c ****     cy_en_profile_status_t retStatus = Cy_Profile_IsPtrValid(ctrAddr);
 558              		.loc 1 304 0
 559 0006 FFF7FEFF 		bl	Cy_Profile_IsPtrValid
 560              	.LVL46:
 305:Generated_Source\PSoC6\pdl\drivers\peripheral\profile/cy_profile.c ****     if (retStatus == CY_PROFILE_SUCCESS)
 561              		.loc 1 305 0
 562 000a 0146     		mov	r1, r0
 563 000c 48B9     		cbnz	r0, .L47
 306:Generated_Source\PSoC6\pdl\drivers\peripheral\profile/cy_profile.c ****     {
 307:Generated_Source\PSoC6\pdl\drivers\peripheral\profile/cy_profile.c ****         /* read the counter control register, and the counter current value */
 308:Generated_Source\PSoC6\pdl\drivers\peripheral\profile/cy_profile.c ****         ctrAddr->ctlReg = ctrAddr->cntAddr->CTL;
 564              		.loc 1 308 0
 565 000e A368     		ldr	r3, [r4, #8]
 566 0010 1A68     		ldr	r2, [r3]
 567 0012 E260     		str	r2, [r4, #12]
 309:Generated_Source\PSoC6\pdl\drivers\peripheral\profile/cy_profile.c ****         ctrAddr->cntReg = ctrAddr->cntAddr->CNT;
 568              		.loc 1 309 0
 569 0014 9868     		ldr	r0, [r3, #8]
 570              	.LVL47:
 571 0016 2061     		str	r0, [r4, #16]
 310:Generated_Source\PSoC6\pdl\drivers\peripheral\profile/cy_profile.c **** 
 311:Generated_Source\PSoC6\pdl\drivers\peripheral\profile/cy_profile.c ****         /* report the count with overflow */
 312:Generated_Source\PSoC6\pdl\drivers\peripheral\profile/cy_profile.c ****         *result = ((uint64_t)(ctrAddr->overflow) << 32) | (uint64_t)(ctrAddr->cntReg);
 572              		.loc 1 312 0
 573 0018 0022     		movs	r2, #0
 574 001a 6369     		ldr	r3, [r4, #20]
 575 001c 0243     		orrs	r2, r2, r0
 576 001e C5E90023 		strd	r2, [r5]
 577              	.L47:
 313:Generated_Source\PSoC6\pdl\drivers\peripheral\profile/cy_profile.c ****     }
 314:Generated_Source\PSoC6\pdl\drivers\peripheral\profile/cy_profile.c ****     return (retStatus);
 315:Generated_Source\PSoC6\pdl\drivers\peripheral\profile/cy_profile.c **** }
 578              		.loc 1 315 0
 579 0022 0846     		mov	r0, r1
 580 0024 38BD     		pop	{r3, r4, r5, pc}
 581              		.cfi_endproc
 582              	.LFE136:
ARM GAS  C:\Users\kiwamu\AppData\Local\Temp\cck8hqZ9.s 			page 23


 583              		.size	Cy_Profile_GetRawCount, .-Cy_Profile_GetRawCount
 584 0026 00BF     		.section	.text.Cy_Profile_GetWeightedCount,"ax",%progbits
 585              		.align	2
 586              		.global	Cy_Profile_GetWeightedCount
 587              		.thumb
 588              		.thumb_func
 589              		.type	Cy_Profile_GetWeightedCount, %function
 590              	Cy_Profile_GetWeightedCount:
 591              	.LFB137:
 316:Generated_Source\PSoC6\pdl\drivers\peripheral\profile/cy_profile.c **** 
 317:Generated_Source\PSoC6\pdl\drivers\peripheral\profile/cy_profile.c **** /*******************************************************************************
 318:Generated_Source\PSoC6\pdl\drivers\peripheral\profile/cy_profile.c **** * Function Name: Cy_Profile_GetWeightedCount
 319:Generated_Source\PSoC6\pdl\drivers\peripheral\profile/cy_profile.c **** ****************************************************************************//**
 320:Generated_Source\PSoC6\pdl\drivers\peripheral\profile/cy_profile.c **** *
 321:Generated_Source\PSoC6\pdl\drivers\peripheral\profile/cy_profile.c **** * Reports the count value for a specified counter, multiplied by the weight
 322:Generated_Source\PSoC6\pdl\drivers\peripheral\profile/cy_profile.c **** * factor set in \ref Cy_Profile_ConfigureCounter() for that counter.
 323:Generated_Source\PSoC6\pdl\drivers\peripheral\profile/cy_profile.c **** *
 324:Generated_Source\PSoC6\pdl\drivers\peripheral\profile/cy_profile.c **** * \param ctrAddr the handle to (address of) the assigned counter, which is
 325:Generated_Source\PSoC6\pdl\drivers\peripheral\profile/cy_profile.c **** * obtained by a call to \ref Cy_Profile_ConfigureCounter().
 326:Generated_Source\PSoC6\pdl\drivers\peripheral\profile/cy_profile.c **** *
 327:Generated_Source\PSoC6\pdl\drivers\peripheral\profile/cy_profile.c **** * \param result The address to which to write the result.
 328:Generated_Source\PSoC6\pdl\drivers\peripheral\profile/cy_profile.c **** * 
 329:Generated_Source\PSoC6\pdl\drivers\peripheral\profile/cy_profile.c **** * \return \ref CY_PROFILE_SUCCESS, or \ref CY_PROFILE_BAD_PARAM for counter not in use.
 330:Generated_Source\PSoC6\pdl\drivers\peripheral\profile/cy_profile.c **** *
 331:Generated_Source\PSoC6\pdl\drivers\peripheral\profile/cy_profile.c **** *******************************************************************************/
 332:Generated_Source\PSoC6\pdl\drivers\peripheral\profile/cy_profile.c **** cy_en_profile_status_t Cy_Profile_GetWeightedCount(cy_stc_profile_ctr_ptr_t ctrAddr, uint64_t *resu
 333:Generated_Source\PSoC6\pdl\drivers\peripheral\profile/cy_profile.c **** {
 592              		.loc 1 333 0
 593              		.cfi_startproc
 594              		@ args = 0, pretend = 0, frame = 8
 595              		@ frame_needed = 0, uses_anonymous_args = 0
 596              	.LVL48:
 597 0000 30B5     		push	{r4, r5, lr}
 598              		.cfi_def_cfa_offset 12
 599              		.cfi_offset 4, -12
 600              		.cfi_offset 5, -8
 601              		.cfi_offset 14, -4
 602 0002 83B0     		sub	sp, sp, #12
 603              		.cfi_def_cfa_offset 24
 604 0004 0546     		mov	r5, r0
 605 0006 0C46     		mov	r4, r1
 334:Generated_Source\PSoC6\pdl\drivers\peripheral\profile/cy_profile.c ****     uint64_t temp;
 335:Generated_Source\PSoC6\pdl\drivers\peripheral\profile/cy_profile.c ****     cy_en_profile_status_t retStatus = Cy_Profile_GetRawCount(ctrAddr, &temp);
 606              		.loc 1 335 0
 607 0008 6946     		mov	r1, sp
 608              	.LVL49:
 609 000a FFF7FEFF 		bl	Cy_Profile_GetRawCount
 610              	.LVL50:
 336:Generated_Source\PSoC6\pdl\drivers\peripheral\profile/cy_profile.c ****     if (retStatus == CY_PROFILE_SUCCESS)
 611              		.loc 1 336 0
 612 000e 0146     		mov	r1, r0
 613 0010 40B9     		cbnz	r0, .L50
 337:Generated_Source\PSoC6\pdl\drivers\peripheral\profile/cy_profile.c ****     {
 338:Generated_Source\PSoC6\pdl\drivers\peripheral\profile/cy_profile.c ****         /* calculate weighted count */
 339:Generated_Source\PSoC6\pdl\drivers\peripheral\profile/cy_profile.c ****         *result = temp * (uint64_t)(ctrAddr->weight);
 614              		.loc 1 339 0
 615 0012 A869     		ldr	r0, [r5, #24]
ARM GAS  C:\Users\kiwamu\AppData\Local\Temp\cck8hqZ9.s 			page 24


 616              	.LVL51:
 617 0014 009A     		ldr	r2, [sp]
 618 0016 A2FB0023 		umull	r2, r3, r2, r0
 619 001a 019D     		ldr	r5, [sp, #4]
 620              	.LVL52:
 621 001c 00FB0533 		mla	r3, r0, r5, r3
 622 0020 C4E90023 		strd	r2, [r4]
 623              	.L50:
 340:Generated_Source\PSoC6\pdl\drivers\peripheral\profile/cy_profile.c ****     }
 341:Generated_Source\PSoC6\pdl\drivers\peripheral\profile/cy_profile.c ****     return (retStatus);
 342:Generated_Source\PSoC6\pdl\drivers\peripheral\profile/cy_profile.c **** }
 624              		.loc 1 342 0
 625 0024 0846     		mov	r0, r1
 626 0026 03B0     		add	sp, sp, #12
 627              		.cfi_def_cfa_offset 12
 628              		@ sp needed
 629 0028 30BD     		pop	{r4, r5, pc}
 630              		.cfi_endproc
 631              	.LFE137:
 632              		.size	Cy_Profile_GetWeightedCount, .-Cy_Profile_GetWeightedCount
 633 002a 00BF     		.section	.text.Cy_Profile_GetSumWeightedCounts,"ax",%progbits
 634              		.align	2
 635              		.global	Cy_Profile_GetSumWeightedCounts
 636              		.thumb
 637              		.thumb_func
 638              		.type	Cy_Profile_GetSumWeightedCounts, %function
 639              	Cy_Profile_GetSumWeightedCounts:
 640              	.LFB138:
 343:Generated_Source\PSoC6\pdl\drivers\peripheral\profile/cy_profile.c **** 
 344:Generated_Source\PSoC6\pdl\drivers\peripheral\profile/cy_profile.c **** /*******************************************************************************
 345:Generated_Source\PSoC6\pdl\drivers\peripheral\profile/cy_profile.c **** * Function Name: Cy_Profile_GetSumWeightedCounts
 346:Generated_Source\PSoC6\pdl\drivers\peripheral\profile/cy_profile.c **** ****************************************************************************//**
 347:Generated_Source\PSoC6\pdl\drivers\peripheral\profile/cy_profile.c **** *
 348:Generated_Source\PSoC6\pdl\drivers\peripheral\profile/cy_profile.c **** * Calls \ref Cy_Profile_GetWeightedCount() for all specified counters. Reports the sum
 349:Generated_Source\PSoC6\pdl\drivers\peripheral\profile/cy_profile.c **** * across all valid counters.
 350:Generated_Source\PSoC6\pdl\drivers\peripheral\profile/cy_profile.c **** *
 351:Generated_Source\PSoC6\pdl\drivers\peripheral\profile/cy_profile.c **** * \param ptrsArray Array of handles to (addresses of) assigned counters
 352:Generated_Source\PSoC6\pdl\drivers\peripheral\profile/cy_profile.c **** *
 353:Generated_Source\PSoC6\pdl\drivers\peripheral\profile/cy_profile.c **** * \param numCounters Number of scanned elements in ptrsArray[]
 354:Generated_Source\PSoC6\pdl\drivers\peripheral\profile/cy_profile.c **** *
 355:Generated_Source\PSoC6\pdl\drivers\peripheral\profile/cy_profile.c **** * \return The sum 
 356:Generated_Source\PSoC6\pdl\drivers\peripheral\profile/cy_profile.c **** *
 357:Generated_Source\PSoC6\pdl\drivers\peripheral\profile/cy_profile.c **** *******************************************************************************/
 358:Generated_Source\PSoC6\pdl\drivers\peripheral\profile/cy_profile.c **** uint64_t Cy_Profile_GetSumWeightedCounts(cy_stc_profile_ctr_ptr_t ptrsArray[],
 359:Generated_Source\PSoC6\pdl\drivers\peripheral\profile/cy_profile.c ****                                     uint32_t numCounters)
 360:Generated_Source\PSoC6\pdl\drivers\peripheral\profile/cy_profile.c **** {
 641              		.loc 1 360 0
 642              		.cfi_startproc
 643              		@ args = 0, pretend = 0, frame = 8
 644              		@ frame_needed = 0, uses_anonymous_args = 0
 645              	.LVL53:
 646 0000 2DE9F041 		push	{r4, r5, r6, r7, r8, lr}
 647              		.cfi_def_cfa_offset 24
 648              		.cfi_offset 4, -24
 649              		.cfi_offset 5, -20
 650              		.cfi_offset 6, -16
 651              		.cfi_offset 7, -12
ARM GAS  C:\Users\kiwamu\AppData\Local\Temp\cck8hqZ9.s 			page 25


 652              		.cfi_offset 8, -8
 653              		.cfi_offset 14, -4
 654 0004 82B0     		sub	sp, sp, #8
 655              		.cfi_def_cfa_offset 32
 656 0006 8046     		mov	r8, r0
 657 0008 0D46     		mov	r5, r1
 658              	.LVL54:
 361:Generated_Source\PSoC6\pdl\drivers\peripheral\profile/cy_profile.c ****     uint64_t daSum = (uint64_t)0ul;
 362:Generated_Source\PSoC6\pdl\drivers\peripheral\profile/cy_profile.c ****     uint64_t num;
 363:Generated_Source\PSoC6\pdl\drivers\peripheral\profile/cy_profile.c ****     uint32_t i;
 364:Generated_Source\PSoC6\pdl\drivers\peripheral\profile/cy_profile.c **** 
 365:Generated_Source\PSoC6\pdl\drivers\peripheral\profile/cy_profile.c ****     for (i = 0ul; i < numCounters; i++)
 659              		.loc 1 365 0
 660 000a 0024     		movs	r4, #0
 361:Generated_Source\PSoC6\pdl\drivers\peripheral\profile/cy_profile.c ****     uint64_t daSum = (uint64_t)0ul;
 661              		.loc 1 361 0
 662 000c 0026     		movs	r6, #0
 663 000e 0027     		movs	r7, #0
 664              		.loc 1 365 0
 665 0010 0AE0     		b	.L53
 666              	.LVL55:
 667              	.L55:
 366:Generated_Source\PSoC6\pdl\drivers\peripheral\profile/cy_profile.c ****     {
 367:Generated_Source\PSoC6\pdl\drivers\peripheral\profile/cy_profile.c ****         /* ignore error reported by Ep_GetWeightedCount() */
 368:Generated_Source\PSoC6\pdl\drivers\peripheral\profile/cy_profile.c ****         if (Cy_Profile_GetWeightedCount(ptrsArray[i], &num) == CY_PROFILE_SUCCESS)
 668              		.loc 1 368 0
 669 0012 6946     		mov	r1, sp
 670 0014 58F82400 		ldr	r0, [r8, r4, lsl #2]
 671 0018 FFF7FEFF 		bl	Cy_Profile_GetWeightedCount
 672              	.LVL56:
 673 001c 18B9     		cbnz	r0, .L54
 369:Generated_Source\PSoC6\pdl\drivers\peripheral\profile/cy_profile.c ****         {
 370:Generated_Source\PSoC6\pdl\drivers\peripheral\profile/cy_profile.c ****             daSum += num;
 674              		.loc 1 370 0
 675 001e DDE90023 		ldrd	r2, [sp]
 676 0022 B618     		adds	r6, r6, r2
 677              	.LVL57:
 678 0024 5F41     		adcs	r7, r7, r3
 679              	.LVL58:
 680              	.L54:
 365:Generated_Source\PSoC6\pdl\drivers\peripheral\profile/cy_profile.c ****     {
 681              		.loc 1 365 0 discriminator 2
 682 0026 0134     		adds	r4, r4, #1
 683              	.LVL59:
 684              	.L53:
 365:Generated_Source\PSoC6\pdl\drivers\peripheral\profile/cy_profile.c ****     {
 685              		.loc 1 365 0 is_stmt 0 discriminator 1
 686 0028 AC42     		cmp	r4, r5
 687 002a F2D3     		bcc	.L55
 371:Generated_Source\PSoC6\pdl\drivers\peripheral\profile/cy_profile.c ****         }
 372:Generated_Source\PSoC6\pdl\drivers\peripheral\profile/cy_profile.c ****     }
 373:Generated_Source\PSoC6\pdl\drivers\peripheral\profile/cy_profile.c ****     
 374:Generated_Source\PSoC6\pdl\drivers\peripheral\profile/cy_profile.c ****     return (daSum);
 375:Generated_Source\PSoC6\pdl\drivers\peripheral\profile/cy_profile.c **** }
 688              		.loc 1 375 0 is_stmt 1
 689 002c 3046     		mov	r0, r6
 690 002e 3946     		mov	r1, r7
ARM GAS  C:\Users\kiwamu\AppData\Local\Temp\cck8hqZ9.s 			page 26


 691 0030 02B0     		add	sp, sp, #8
 692              		.cfi_def_cfa_offset 24
 693              		@ sp needed
 694 0032 BDE8F081 		pop	{r4, r5, r6, r7, r8, pc}
 695              		.cfi_endproc
 696              	.LFE138:
 697              		.size	Cy_Profile_GetSumWeightedCounts, .-Cy_Profile_GetSumWeightedCounts
 698 0036 00BF     		.bss
 699              		.align	2
 700              		.set	.LANCHOR0,. + 0
 701              		.type	cy_ep_ctrs, %object
 702              		.size	cy_ep_ctrs, 224
 703              	cy_ep_ctrs:
 704 0000 00000000 		.space	224
 704      00000000 
 704      00000000 
 704      00000000 
 704      00000000 
 705              		.text
 706              	.Letext0:
 707              		.file 3 "c:\\program files (x86)\\cypress\\psoc creator\\4.2\\psoc creator\\import\\gnu\\arm\\5.4.
 708              		.file 4 "c:\\program files (x86)\\cypress\\psoc creator\\4.2\\psoc creator\\import\\gnu\\arm\\5.4.
 709              		.file 5 "Generated_Source\\PSoC6\\pdl\\devices/psoc6/psoc63/include/psoc63_config.h"
 710              		.file 6 "Generated_Source\\PSoC6\\pdl\\devices/psoc6/ip/cyip_profile.h"
 711              		.file 7 "Generated_Source\\PSoC6\\pdl\\cmsis/include/core_cm4.h"