ARM GAS  C:\Users\kiwamu\AppData\Local\Temp\ccLfX6Zi.s 			page 1


   1              		.syntax unified
   2              		.cpu cortex-m4
   3              		.eabi_attribute 27, 1
   4              		.fpu fpv4-sp-d16
   5              		.eabi_attribute 20, 1
   6              		.eabi_attribute 21, 1
   7              		.eabi_attribute 23, 3
   8              		.eabi_attribute 24, 1
   9              		.eabi_attribute 25, 1
  10              		.eabi_attribute 26, 1
  11              		.eabi_attribute 30, 1
  12              		.eabi_attribute 34, 1
  13              		.eabi_attribute 18, 4
  14              		.thumb
  15              		.syntax unified
  16              		.file	"cy_prot.c"
  17              		.text
  18              	.Ltext0:
  19              		.cfi_sections	.debug_frame
  20              		.section	.text.Cy_Prot_ConfigBusMaster,"ax",%progbits
  21              		.align	2
  22              		.global	Cy_Prot_ConfigBusMaster
  23              		.thumb
  24              		.thumb_func
  25              		.type	Cy_Prot_ConfigBusMaster, %function
  26              	Cy_Prot_ConfigBusMaster:
  27              	.LFB123:
  28              		.file 1 "Generated_Source\\PSoC6\\pdl\\drivers\\peripheral\\prot\\cy_prot.c"
   1:Generated_Source\PSoC6\pdl\drivers\peripheral\prot/cy_prot.c **** /***************************************************************************//**
   2:Generated_Source\PSoC6\pdl\drivers\peripheral\prot/cy_prot.c **** * \file cy_prot.c
   3:Generated_Source\PSoC6\pdl\drivers\peripheral\prot/cy_prot.c **** * \version 1.0
   4:Generated_Source\PSoC6\pdl\drivers\peripheral\prot/cy_prot.c **** *
   5:Generated_Source\PSoC6\pdl\drivers\peripheral\prot/cy_prot.c **** * \brief
   6:Generated_Source\PSoC6\pdl\drivers\peripheral\prot/cy_prot.c **** * Provides an API implementation of the Protection Unit driver
   7:Generated_Source\PSoC6\pdl\drivers\peripheral\prot/cy_prot.c **** *
   8:Generated_Source\PSoC6\pdl\drivers\peripheral\prot/cy_prot.c **** ********************************************************************************
   9:Generated_Source\PSoC6\pdl\drivers\peripheral\prot/cy_prot.c **** * \copyright
  10:Generated_Source\PSoC6\pdl\drivers\peripheral\prot/cy_prot.c **** * Copyright 2016-2017, Cypress Semiconductor Corporation. All rights reserved.
  11:Generated_Source\PSoC6\pdl\drivers\peripheral\prot/cy_prot.c **** * You may use this file only in accordance with the license, terms, conditions,
  12:Generated_Source\PSoC6\pdl\drivers\peripheral\prot/cy_prot.c **** * disclaimers, and limitations in the end user license agreement accompanying
  13:Generated_Source\PSoC6\pdl\drivers\peripheral\prot/cy_prot.c **** * the software package with which this file was provided.
  14:Generated_Source\PSoC6\pdl\drivers\peripheral\prot/cy_prot.c **** *******************************************************************************/
  15:Generated_Source\PSoC6\pdl\drivers\peripheral\prot/cy_prot.c **** 
  16:Generated_Source\PSoC6\pdl\drivers\peripheral\prot/cy_prot.c **** #include "cy_prot.h"
  17:Generated_Source\PSoC6\pdl\drivers\peripheral\prot/cy_prot.c **** 
  18:Generated_Source\PSoC6\pdl\drivers\peripheral\prot/cy_prot.c **** #if defined(__cplusplus)
  19:Generated_Source\PSoC6\pdl\drivers\peripheral\prot/cy_prot.c **** extern "C" {
  20:Generated_Source\PSoC6\pdl\drivers\peripheral\prot/cy_prot.c **** #endif
  21:Generated_Source\PSoC6\pdl\drivers\peripheral\prot/cy_prot.c **** 
  22:Generated_Source\PSoC6\pdl\drivers\peripheral\prot/cy_prot.c **** 
  23:Generated_Source\PSoC6\pdl\drivers\peripheral\prot/cy_prot.c **** /*******************************************************************************
  24:Generated_Source\PSoC6\pdl\drivers\peripheral\prot/cy_prot.c **** * Function Name: Cy_Prot_ConfigBusMaster
  25:Generated_Source\PSoC6\pdl\drivers\peripheral\prot/cy_prot.c **** ****************************************************************************//**
  26:Generated_Source\PSoC6\pdl\drivers\peripheral\prot/cy_prot.c **** *
  27:Generated_Source\PSoC6\pdl\drivers\peripheral\prot/cy_prot.c **** * \brief Configures the allowed protection contexts, security (secure/non-secure)
  28:Generated_Source\PSoC6\pdl\drivers\peripheral\prot/cy_prot.c **** * and privilege level of the bus transaction created by the specified master. 
  29:Generated_Source\PSoC6\pdl\drivers\peripheral\prot/cy_prot.c **** *
ARM GAS  C:\Users\kiwamu\AppData\Local\Temp\ccLfX6Zi.s 			page 2


  30:Generated_Source\PSoC6\pdl\drivers\peripheral\prot/cy_prot.c **** * \param busMaster
  31:Generated_Source\PSoC6\pdl\drivers\peripheral\prot/cy_prot.c **** * Indicates which master needs to be configured. Refer to the CY_PROT_MASTER_X
  32:Generated_Source\PSoC6\pdl\drivers\peripheral\prot/cy_prot.c **** * defines.
  33:Generated_Source\PSoC6\pdl\drivers\peripheral\prot/cy_prot.c **** * 
  34:Generated_Source\PSoC6\pdl\drivers\peripheral\prot/cy_prot.c **** * \param privileged
  35:Generated_Source\PSoC6\pdl\drivers\peripheral\prot/cy_prot.c **** * Boolean to define the privilege level of all subsequent bus transfers.
  36:Generated_Source\PSoC6\pdl\drivers\peripheral\prot/cy_prot.c **** * True - privileged, False - not privileged.
  37:Generated_Source\PSoC6\pdl\drivers\peripheral\prot/cy_prot.c **** * Note that this is an inherited value. If not inherited, then this bit will 
  38:Generated_Source\PSoC6\pdl\drivers\peripheral\prot/cy_prot.c **** * be used.
  39:Generated_Source\PSoC6\pdl\drivers\peripheral\prot/cy_prot.c **** *
  40:Generated_Source\PSoC6\pdl\drivers\peripheral\prot/cy_prot.c **** * \param secure
  41:Generated_Source\PSoC6\pdl\drivers\peripheral\prot/cy_prot.c **** * Security setting for the master. True - Secure, False - Not secure.
  42:Generated_Source\PSoC6\pdl\drivers\peripheral\prot/cy_prot.c **** * 
  43:Generated_Source\PSoC6\pdl\drivers\peripheral\prot/cy_prot.c **** * \param pcMask
  44:Generated_Source\PSoC6\pdl\drivers\peripheral\prot/cy_prot.c **** * This is a 16 bit value of the allowed contexts, it is an OR'ed (|) field of the
  45:Generated_Source\PSoC6\pdl\drivers\peripheral\prot/cy_prot.c **** * provided defines in cy_prot.h. For example: (PROT_PC1 | PROT_PC3 | PROT_PC4)
  46:Generated_Source\PSoC6\pdl\drivers\peripheral\prot/cy_prot.c **** * 
  47:Generated_Source\PSoC6\pdl\drivers\peripheral\prot/cy_prot.c **** * \return
  48:Generated_Source\PSoC6\pdl\drivers\peripheral\prot/cy_prot.c **** * Status of the function call.
  49:Generated_Source\PSoC6\pdl\drivers\peripheral\prot/cy_prot.c **** *
  50:Generated_Source\PSoC6\pdl\drivers\peripheral\prot/cy_prot.c **** *   Status               | Description
  51:Generated_Source\PSoC6\pdl\drivers\peripheral\prot/cy_prot.c **** *   ------------         | -----------
  52:Generated_Source\PSoC6\pdl\drivers\peripheral\prot/cy_prot.c **** *   CY_PROT_SUCCESS      | The function completed successfully
  53:Generated_Source\PSoC6\pdl\drivers\peripheral\prot/cy_prot.c **** *   CY_PROT_FAILURE      | The resource is locked
  54:Generated_Source\PSoC6\pdl\drivers\peripheral\prot/cy_prot.c **** *   CY_PROT_BAD_PARAM    | An incorrect/invalid parameter was passed
  55:Generated_Source\PSoC6\pdl\drivers\peripheral\prot/cy_prot.c **** *  
  56:Generated_Source\PSoC6\pdl\drivers\peripheral\prot/cy_prot.c **** *******************************************************************************/
  57:Generated_Source\PSoC6\pdl\drivers\peripheral\prot/cy_prot.c **** cy_en_prot_status_t Cy_Prot_ConfigBusMaster(en_prot_master_t busMaster, bool privileged, bool secur
  58:Generated_Source\PSoC6\pdl\drivers\peripheral\prot/cy_prot.c **** {
  29              		.loc 1 58 0
  30              		.cfi_startproc
  31              		@ args = 0, pretend = 0, frame = 0
  32              		@ frame_needed = 0, uses_anonymous_args = 0
  33              	.LVL0:
  34 0000 00B5     		push	{lr}
  35              		.cfi_def_cfa_offset 4
  36              		.cfi_offset 14, -4
  37              	.LVL1:
  59:Generated_Source\PSoC6\pdl\drivers\peripheral\prot/cy_prot.c ****     cy_en_prot_status_t status = CY_PROT_SUCCESS;
  60:Generated_Source\PSoC6\pdl\drivers\peripheral\prot/cy_prot.c ****     uint32_t regVal;
  61:Generated_Source\PSoC6\pdl\drivers\peripheral\prot/cy_prot.c ****     uint32_t * addrMsCtl = (uint32_t *)(PROT_BASE + (uint32_t)((uint32_t)busMaster << CY_PROT_MSX_C
  62:Generated_Source\PSoC6\pdl\drivers\peripheral\prot/cy_prot.c **** 
  63:Generated_Source\PSoC6\pdl\drivers\peripheral\prot/cy_prot.c ****     if((uint32_t)(pcMask & CY_PROT_MPU_PC_LIMIT_MASK) != 0UL) 
  38              		.loc 1 63 0
  39 0002 33F07F0E 		bics	lr, r3, #127
  40 0006 10D1     		bne	.L3
  41 0008 8000     		lsls	r0, r0, #2
  42              	.LVL2:
  43 000a 00F18040 		add	r0, r0, #1073741824
  44              	.LVL3:
  45 000e 00F51010 		add	r0, r0, #2359296
  46              	.LVL4:
  64:Generated_Source\PSoC6\pdl\drivers\peripheral\prot/cy_prot.c ****     {
  65:Generated_Source\PSoC6\pdl\drivers\peripheral\prot/cy_prot.c ****         /* PC mask out of range - not supported in device */
  66:Generated_Source\PSoC6\pdl\drivers\peripheral\prot/cy_prot.c ****         status = CY_PROT_BAD_PARAM;
  67:Generated_Source\PSoC6\pdl\drivers\peripheral\prot/cy_prot.c ****     }
  68:Generated_Source\PSoC6\pdl\drivers\peripheral\prot/cy_prot.c ****     else
ARM GAS  C:\Users\kiwamu\AppData\Local\Temp\ccLfX6Zi.s 			page 3


  69:Generated_Source\PSoC6\pdl\drivers\peripheral\prot/cy_prot.c ****     {
  70:Generated_Source\PSoC6\pdl\drivers\peripheral\prot/cy_prot.c ****         regVal = _VAL2FLD(PROT_SMPU_MS0_CTL_NS, !secure)
  47              		.loc 1 70 0
  48 0012 82F00102 		eor	r2, r2, #1
  49              	.LVL5:
  50 0016 5200     		lsls	r2, r2, #1
  51 0018 02F00202 		and	r2, r2, #2
  71:Generated_Source\PSoC6\pdl\drivers\peripheral\prot/cy_prot.c ****                 | _VAL2FLD(PROT_SMPU_MS0_CTL_P, privileged)
  52              		.loc 1 71 0
  53 001c 0A43     		orrs	r2, r2, r1
  70:Generated_Source\PSoC6\pdl\drivers\peripheral\prot/cy_prot.c ****                 | _VAL2FLD(PROT_SMPU_MS0_CTL_P, privileged)
  54              		.loc 1 70 0
  55 001e 42EA4343 		orr	r3, r2, r3, lsl #17
  56              	.LVL6:
  72:Generated_Source\PSoC6\pdl\drivers\peripheral\prot/cy_prot.c ****                 | _VAL2FLD(PROT_SMPU_MS0_CTL_PC_MASK_15_TO_1, pcMask);
  73:Generated_Source\PSoC6\pdl\drivers\peripheral\prot/cy_prot.c ****         *addrMsCtl = regVal;
  57              		.loc 1 73 0
  58 0022 0360     		str	r3, [r0]
  74:Generated_Source\PSoC6\pdl\drivers\peripheral\prot/cy_prot.c ****         status = (*addrMsCtl != regVal) ? CY_PROT_FAILURE : CY_PROT_SUCCESS;
  59              		.loc 1 74 0
  60 0024 0020     		movs	r0, #0
  61              	.LVL7:
  62 0026 5DF804FB 		ldr	pc, [sp], #4
  63              	.LVL8:
  64              	.L3:
  66:Generated_Source\PSoC6\pdl\drivers\peripheral\prot/cy_prot.c ****     }
  65              		.loc 1 66 0
  66 002a 0148     		ldr	r0, .L5
  67              	.LVL9:
  75:Generated_Source\PSoC6\pdl\drivers\peripheral\prot/cy_prot.c ****     }
  76:Generated_Source\PSoC6\pdl\drivers\peripheral\prot/cy_prot.c ****     
  77:Generated_Source\PSoC6\pdl\drivers\peripheral\prot/cy_prot.c ****     return status;
  78:Generated_Source\PSoC6\pdl\drivers\peripheral\prot/cy_prot.c **** }
  68              		.loc 1 78 0
  69 002c 5DF804FB 		ldr	pc, [sp], #4
  70              	.L6:
  71              		.align	2
  72              	.L5:
  73 0030 0100C200 		.word	12713985
  74              		.cfi_endproc
  75              	.LFE123:
  76              		.size	Cy_Prot_ConfigBusMaster, .-Cy_Prot_ConfigBusMaster
  77              		.section	.text.Cy_Prot_SetActivePC,"ax",%progbits
  78              		.align	2
  79              		.global	Cy_Prot_SetActivePC
  80              		.thumb
  81              		.thumb_func
  82              		.type	Cy_Prot_SetActivePC, %function
  83              	Cy_Prot_SetActivePC:
  84              	.LFB124:
  79:Generated_Source\PSoC6\pdl\drivers\peripheral\prot/cy_prot.c **** 
  80:Generated_Source\PSoC6\pdl\drivers\peripheral\prot/cy_prot.c **** 
  81:Generated_Source\PSoC6\pdl\drivers\peripheral\prot/cy_prot.c **** /*******************************************************************************
  82:Generated_Source\PSoC6\pdl\drivers\peripheral\prot/cy_prot.c **** * Function Name: Cy_Prot_SetActivePC
  83:Generated_Source\PSoC6\pdl\drivers\peripheral\prot/cy_prot.c **** ****************************************************************************//**
  84:Generated_Source\PSoC6\pdl\drivers\peripheral\prot/cy_prot.c **** *
  85:Generated_Source\PSoC6\pdl\drivers\peripheral\prot/cy_prot.c **** * \brief Sets the current/active protection context of the specified bus master.
ARM GAS  C:\Users\kiwamu\AppData\Local\Temp\ccLfX6Zi.s 			page 4


  86:Generated_Source\PSoC6\pdl\drivers\peripheral\prot/cy_prot.c **** * 
  87:Generated_Source\PSoC6\pdl\drivers\peripheral\prot/cy_prot.c **** * Allowed PC values are 1-15. If this value is not inherited from another bus 
  88:Generated_Source\PSoC6\pdl\drivers\peripheral\prot/cy_prot.c **** * master, the value set through this function is used.
  89:Generated_Source\PSoC6\pdl\drivers\peripheral\prot/cy_prot.c **** *
  90:Generated_Source\PSoC6\pdl\drivers\peripheral\prot/cy_prot.c **** * \param busMaster
  91:Generated_Source\PSoC6\pdl\drivers\peripheral\prot/cy_prot.c **** * The bus master to configure. Refer to the CY_PROT_MASTER_X defines.
  92:Generated_Source\PSoC6\pdl\drivers\peripheral\prot/cy_prot.c **** * 
  93:Generated_Source\PSoC6\pdl\drivers\peripheral\prot/cy_prot.c **** * \param pc
  94:Generated_Source\PSoC6\pdl\drivers\peripheral\prot/cy_prot.c **** * Active protection context of the specified master. Note that only those 
  95:Generated_Source\PSoC6\pdl\drivers\peripheral\prot/cy_prot.c **** * protection contexts allowed by the pcMask will take effect. 
  96:Generated_Source\PSoC6\pdl\drivers\peripheral\prot/cy_prot.c **** *
  97:Generated_Source\PSoC6\pdl\drivers\peripheral\prot/cy_prot.c **** * \return
  98:Generated_Source\PSoC6\pdl\drivers\peripheral\prot/cy_prot.c **** * Status of the function call.
  99:Generated_Source\PSoC6\pdl\drivers\peripheral\prot/cy_prot.c **** *
 100:Generated_Source\PSoC6\pdl\drivers\peripheral\prot/cy_prot.c **** *   Status               | Description
 101:Generated_Source\PSoC6\pdl\drivers\peripheral\prot/cy_prot.c **** *   ------------         | -----------
 102:Generated_Source\PSoC6\pdl\drivers\peripheral\prot/cy_prot.c **** *   CY_PROT_SUCCESS      | The function completed successfully
 103:Generated_Source\PSoC6\pdl\drivers\peripheral\prot/cy_prot.c **** *   CY_PROT_FAILURE      | The resource is locked
 104:Generated_Source\PSoC6\pdl\drivers\peripheral\prot/cy_prot.c **** *   CY_PROT_BAD_PARAM    | An incorrect/invalid parameter was passed
 105:Generated_Source\PSoC6\pdl\drivers\peripheral\prot/cy_prot.c **** *  
 106:Generated_Source\PSoC6\pdl\drivers\peripheral\prot/cy_prot.c **** *******************************************************************************/
 107:Generated_Source\PSoC6\pdl\drivers\peripheral\prot/cy_prot.c **** cy_en_prot_status_t Cy_Prot_SetActivePC(en_prot_master_t busMaster, uint32_t pc)
 108:Generated_Source\PSoC6\pdl\drivers\peripheral\prot/cy_prot.c **** {
  85              		.loc 1 108 0
  86              		.cfi_startproc
  87              		@ args = 0, pretend = 0, frame = 0
  88              		@ frame_needed = 0, uses_anonymous_args = 0
  89              		@ link register save eliminated.
  90              	.LVL10:
 109:Generated_Source\PSoC6\pdl\drivers\peripheral\prot/cy_prot.c ****     cy_en_prot_status_t status = CY_PROT_SUCCESS;
 110:Generated_Source\PSoC6\pdl\drivers\peripheral\prot/cy_prot.c ****     PROT_MPU_Type* addrMpu = (PROT_MPU_Type*)(&PROT->CYMPU[busMaster]);
  91              		.loc 1 110 0
  92 0000 8002     		lsls	r0, r0, #10
  93              	.LVL11:
  94 0002 00F14020 		add	r0, r0, #1073758208
  95 0006 00F51010 		add	r0, r0, #2359296
  96              	.LVL12:
 111:Generated_Source\PSoC6\pdl\drivers\peripheral\prot/cy_prot.c ****     
 112:Generated_Source\PSoC6\pdl\drivers\peripheral\prot/cy_prot.c ****     if(pc >= (uint32_t)CY_PROT_MS_PC_NR_MAX) 
  97              		.loc 1 112 0
  98 000a 0629     		cmp	r1, #6
  99 000c 0DD8     		bhi	.L9
 113:Generated_Source\PSoC6\pdl\drivers\peripheral\prot/cy_prot.c ****     {
 114:Generated_Source\PSoC6\pdl\drivers\peripheral\prot/cy_prot.c ****         /* Invalid PC value - not supported in device */
 115:Generated_Source\PSoC6\pdl\drivers\peripheral\prot/cy_prot.c ****         status = CY_PROT_BAD_PARAM;
 116:Generated_Source\PSoC6\pdl\drivers\peripheral\prot/cy_prot.c ****     }
 117:Generated_Source\PSoC6\pdl\drivers\peripheral\prot/cy_prot.c ****     else
 118:Generated_Source\PSoC6\pdl\drivers\peripheral\prot/cy_prot.c ****     {
 119:Generated_Source\PSoC6\pdl\drivers\peripheral\prot/cy_prot.c ****         addrMpu->MS_CTL = _VAL2FLD(PROT_MPU_MS_CTL_PC, pc) | _VAL2FLD(PROT_MPU_MS_CTL_PC_SAVED, pc)
 100              		.loc 1 119 0
 101 000e 01F00F02 		and	r2, r1, #15
 102 0012 0B04     		lsls	r3, r1, #16
 103 0014 03F47023 		and	r3, r3, #983040
 104 0018 1343     		orrs	r3, r3, r2
 105 001a 0360     		str	r3, [r0]
 120:Generated_Source\PSoC6\pdl\drivers\peripheral\prot/cy_prot.c ****         status = (_FLD2VAL(PROT_MPU_MS_CTL_PC, addrMpu->MS_CTL) != pc) ? CY_PROT_FAILURE : CY_PROT_
 106              		.loc 1 120 0
ARM GAS  C:\Users\kiwamu\AppData\Local\Temp\ccLfX6Zi.s 			page 5


 107 001c 0368     		ldr	r3, [r0]
 108 001e 03F00F03 		and	r3, r3, #15
 109 0022 9942     		cmp	r1, r3
 110 0024 03D0     		beq	.L10
 111 0026 0348     		ldr	r0, .L11
 112              	.LVL13:
 113 0028 7047     		bx	lr
 114              	.LVL14:
 115              	.L9:
 115:Generated_Source\PSoC6\pdl\drivers\peripheral\prot/cy_prot.c ****     }
 116              		.loc 1 115 0
 117 002a 0348     		ldr	r0, .L11+4
 118              	.LVL15:
 119 002c 7047     		bx	lr
 120              	.LVL16:
 121              	.L10:
 122              		.loc 1 120 0
 123 002e 0020     		movs	r0, #0
 124              	.LVL17:
 121:Generated_Source\PSoC6\pdl\drivers\peripheral\prot/cy_prot.c ****     }
 122:Generated_Source\PSoC6\pdl\drivers\peripheral\prot/cy_prot.c ****     
 123:Generated_Source\PSoC6\pdl\drivers\peripheral\prot/cy_prot.c ****     return status;
 124:Generated_Source\PSoC6\pdl\drivers\peripheral\prot/cy_prot.c **** }
 125              		.loc 1 124 0
 126 0030 7047     		bx	lr
 127              	.L12:
 128 0032 00BF     		.align	2
 129              	.L11:
 130 0034 0300C200 		.word	12713987
 131 0038 0100C200 		.word	12713985
 132              		.cfi_endproc
 133              	.LFE124:
 134              		.size	Cy_Prot_SetActivePC, .-Cy_Prot_SetActivePC
 135              		.section	.text.Cy_Prot_GetActivePC,"ax",%progbits
 136              		.align	2
 137              		.global	Cy_Prot_GetActivePC
 138              		.thumb
 139              		.thumb_func
 140              		.type	Cy_Prot_GetActivePC, %function
 141              	Cy_Prot_GetActivePC:
 142              	.LFB125:
 125:Generated_Source\PSoC6\pdl\drivers\peripheral\prot/cy_prot.c **** 
 126:Generated_Source\PSoC6\pdl\drivers\peripheral\prot/cy_prot.c **** 
 127:Generated_Source\PSoC6\pdl\drivers\peripheral\prot/cy_prot.c **** /*******************************************************************************
 128:Generated_Source\PSoC6\pdl\drivers\peripheral\prot/cy_prot.c **** * Function Name: Cy_Prot_GetActivePC
 129:Generated_Source\PSoC6\pdl\drivers\peripheral\prot/cy_prot.c **** ****************************************************************************//**
 130:Generated_Source\PSoC6\pdl\drivers\peripheral\prot/cy_prot.c **** *
 131:Generated_Source\PSoC6\pdl\drivers\peripheral\prot/cy_prot.c **** * \brief Returns the active protection context of a master. 
 132:Generated_Source\PSoC6\pdl\drivers\peripheral\prot/cy_prot.c **** *
 133:Generated_Source\PSoC6\pdl\drivers\peripheral\prot/cy_prot.c **** * \param busMaster
 134:Generated_Source\PSoC6\pdl\drivers\peripheral\prot/cy_prot.c **** * The bus master, whose protection context is being read. Refer to the 
 135:Generated_Source\PSoC6\pdl\drivers\peripheral\prot/cy_prot.c **** * CY_PROT_MASTER_X defines.
 136:Generated_Source\PSoC6\pdl\drivers\peripheral\prot/cy_prot.c **** * 
 137:Generated_Source\PSoC6\pdl\drivers\peripheral\prot/cy_prot.c **** * \return
 138:Generated_Source\PSoC6\pdl\drivers\peripheral\prot/cy_prot.c **** * Active protection context of the master
 139:Generated_Source\PSoC6\pdl\drivers\peripheral\prot/cy_prot.c **** *  
 140:Generated_Source\PSoC6\pdl\drivers\peripheral\prot/cy_prot.c **** *******************************************************************************/
ARM GAS  C:\Users\kiwamu\AppData\Local\Temp\ccLfX6Zi.s 			page 6


 141:Generated_Source\PSoC6\pdl\drivers\peripheral\prot/cy_prot.c **** uint32_t Cy_Prot_GetActivePC(en_prot_master_t busMaster)
 142:Generated_Source\PSoC6\pdl\drivers\peripheral\prot/cy_prot.c **** {
 143              		.loc 1 142 0
 144              		.cfi_startproc
 145              		@ args = 0, pretend = 0, frame = 0
 146              		@ frame_needed = 0, uses_anonymous_args = 0
 147              		@ link register save eliminated.
 148              	.LVL18:
 143:Generated_Source\PSoC6\pdl\drivers\peripheral\prot/cy_prot.c ****     PROT_MPU_Type* addrMpu = (PROT_MPU_Type*)(&PROT->CYMPU[busMaster]);
 149              		.loc 1 143 0
 150 0000 8002     		lsls	r0, r0, #10
 151              	.LVL19:
 152 0002 00F14020 		add	r0, r0, #1073758208
 153 0006 00F51010 		add	r0, r0, #2359296
 154              	.LVL20:
 144:Generated_Source\PSoC6\pdl\drivers\peripheral\prot/cy_prot.c ****     
 145:Generated_Source\PSoC6\pdl\drivers\peripheral\prot/cy_prot.c ****     return ((uint32_t)_FLD2VAL(PROT_MPU_MS_CTL_PC, addrMpu->MS_CTL));
 155              		.loc 1 145 0
 156 000a 0068     		ldr	r0, [r0]
 157              	.LVL21:
 146:Generated_Source\PSoC6\pdl\drivers\peripheral\prot/cy_prot.c **** }
 158              		.loc 1 146 0
 159 000c 00F00F00 		and	r0, r0, #15
 160 0010 7047     		bx	lr
 161              		.cfi_endproc
 162              	.LFE125:
 163              		.size	Cy_Prot_GetActivePC, .-Cy_Prot_GetActivePC
 164 0012 00BF     		.section	.text.Cy_Prot_ConfigMpuStruct,"ax",%progbits
 165              		.align	2
 166              		.global	Cy_Prot_ConfigMpuStruct
 167              		.thumb
 168              		.thumb_func
 169              		.type	Cy_Prot_ConfigMpuStruct, %function
 170              	Cy_Prot_ConfigMpuStruct:
 171              	.LFB126:
 147:Generated_Source\PSoC6\pdl\drivers\peripheral\prot/cy_prot.c **** 
 148:Generated_Source\PSoC6\pdl\drivers\peripheral\prot/cy_prot.c **** 
 149:Generated_Source\PSoC6\pdl\drivers\peripheral\prot/cy_prot.c **** /*******************************************************************************
 150:Generated_Source\PSoC6\pdl\drivers\peripheral\prot/cy_prot.c **** * Function Name: Cy_Prot_ConfigMpuStruct
 151:Generated_Source\PSoC6\pdl\drivers\peripheral\prot/cy_prot.c **** ****************************************************************************//**
 152:Generated_Source\PSoC6\pdl\drivers\peripheral\prot/cy_prot.c **** *
 153:Generated_Source\PSoC6\pdl\drivers\peripheral\prot/cy_prot.c **** * \brief This function configures a memory protection unit (MPU) struct with its 
 154:Generated_Source\PSoC6\pdl\drivers\peripheral\prot/cy_prot.c **** * protection attributes. 
 155:Generated_Source\PSoC6\pdl\drivers\peripheral\prot/cy_prot.c **** *
 156:Generated_Source\PSoC6\pdl\drivers\peripheral\prot/cy_prot.c **** * The protection structs act like the gatekeepers for a master's accesses to
 157:Generated_Source\PSoC6\pdl\drivers\peripheral\prot/cy_prot.c **** * memory, allowing only the permitted transactions to go through.
 158:Generated_Source\PSoC6\pdl\drivers\peripheral\prot/cy_prot.c **** *
 159:Generated_Source\PSoC6\pdl\drivers\peripheral\prot/cy_prot.c **** * \param base
 160:Generated_Source\PSoC6\pdl\drivers\peripheral\prot/cy_prot.c **** * The base address for the MPU struct being configured. 
 161:Generated_Source\PSoC6\pdl\drivers\peripheral\prot/cy_prot.c **** * 
 162:Generated_Source\PSoC6\pdl\drivers\peripheral\prot/cy_prot.c **** * \param config
 163:Generated_Source\PSoC6\pdl\drivers\peripheral\prot/cy_prot.c **** * Initialization structure containing all the protection attributes.
 164:Generated_Source\PSoC6\pdl\drivers\peripheral\prot/cy_prot.c **** * 
 165:Generated_Source\PSoC6\pdl\drivers\peripheral\prot/cy_prot.c **** * \return
 166:Generated_Source\PSoC6\pdl\drivers\peripheral\prot/cy_prot.c **** * Status of the function call.
 167:Generated_Source\PSoC6\pdl\drivers\peripheral\prot/cy_prot.c **** *
 168:Generated_Source\PSoC6\pdl\drivers\peripheral\prot/cy_prot.c **** *   Status               | Description
ARM GAS  C:\Users\kiwamu\AppData\Local\Temp\ccLfX6Zi.s 			page 7


 169:Generated_Source\PSoC6\pdl\drivers\peripheral\prot/cy_prot.c **** *   ------------         | -----------
 170:Generated_Source\PSoC6\pdl\drivers\peripheral\prot/cy_prot.c **** *   CY_PROT_SUCCESS      | The MPU struct was configured
 171:Generated_Source\PSoC6\pdl\drivers\peripheral\prot/cy_prot.c **** *   CY_PROT_FAILURE      | Configuration failed due to a protection violation
 172:Generated_Source\PSoC6\pdl\drivers\peripheral\prot/cy_prot.c **** *  
 173:Generated_Source\PSoC6\pdl\drivers\peripheral\prot/cy_prot.c **** *******************************************************************************/
 174:Generated_Source\PSoC6\pdl\drivers\peripheral\prot/cy_prot.c **** cy_en_prot_status_t Cy_Prot_ConfigMpuStruct(PROT_MPU_MPU_STRUCT_Type* base, const cy_stc_mpu_cfg_t*
 175:Generated_Source\PSoC6\pdl\drivers\peripheral\prot/cy_prot.c **** {
 172              		.loc 1 175 0
 173              		.cfi_startproc
 174              		@ args = 0, pretend = 0, frame = 0
 175              		@ frame_needed = 0, uses_anonymous_args = 0
 176              		@ link register save eliminated.
 177              	.LVL22:
 178 0000 10B4     		push	{r4}
 179              		.cfi_def_cfa_offset 4
 180              		.cfi_offset 4, -4
 181              	.LVL23:
 176:Generated_Source\PSoC6\pdl\drivers\peripheral\prot/cy_prot.c ****     cy_en_prot_status_t status = CY_PROT_SUCCESS;
 177:Generated_Source\PSoC6\pdl\drivers\peripheral\prot/cy_prot.c ****     uint32_t addrReg;
 178:Generated_Source\PSoC6\pdl\drivers\peripheral\prot/cy_prot.c ****     uint32_t attReg;
 179:Generated_Source\PSoC6\pdl\drivers\peripheral\prot/cy_prot.c ****     
 180:Generated_Source\PSoC6\pdl\drivers\peripheral\prot/cy_prot.c ****     addrReg = _VAL2FLD(PROT_MPU_MPU_STRUCT_ADDR_SUBREGION_DISABLE, config->subregions)
 182              		.loc 1 180 0
 183 0002 4C79     		ldrb	r4, [r1, #5]	@ zero_extendqisi2
 181:Generated_Source\PSoC6\pdl\drivers\peripheral\prot/cy_prot.c ****               | _VAL2FLD(PROT_MPU_MPU_STRUCT_ADDR_ADDR24, (uint32_t)((uint32_t)config->address >> C
 184              		.loc 1 181 0
 185 0004 0B68     		ldr	r3, [r1]
 186 0006 23F0FF03 		bic	r3, r3, #255
 180:Generated_Source\PSoC6\pdl\drivers\peripheral\prot/cy_prot.c ****               | _VAL2FLD(PROT_MPU_MPU_STRUCT_ADDR_ADDR24, (uint32_t)((uint32_t)config->address >> C
 187              		.loc 1 180 0
 188 000a 1C43     		orrs	r4, r4, r3
 189              	.LVL24:
 182:Generated_Source\PSoC6\pdl\drivers\peripheral\prot/cy_prot.c ****     attReg  = ((uint32_t)config->userPermission & CY_PROT_ATT_PERMISSION_MASK)
 190              		.loc 1 182 0
 191 000c 8A79     		ldrb	r2, [r1, #6]	@ zero_extendqisi2
 192 000e 02F00702 		and	r2, r2, #7
 183:Generated_Source\PSoC6\pdl\drivers\peripheral\prot/cy_prot.c ****               | (((uint32_t)config->privPermission & CY_PROT_ATT_PERMISSION_MASK) << CY_PROT_ATT_PR
 193              		.loc 1 183 0
 194 0012 CB79     		ldrb	r3, [r1, #7]	@ zero_extendqisi2
 195 0014 DB00     		lsls	r3, r3, #3
 196 0016 03F03803 		and	r3, r3, #56
 197 001a 1A43     		orrs	r2, r2, r3
 184:Generated_Source\PSoC6\pdl\drivers\peripheral\prot/cy_prot.c ****               | _VAL2FLD(PROT_MPU_MPU_STRUCT_ATT_NS, !(config->secure))
 198              		.loc 1 184 0
 199 001c 0B7A     		ldrb	r3, [r1, #8]	@ zero_extendqisi2
 200 001e 83F00103 		eor	r3, r3, #1
 201 0022 9B01     		lsls	r3, r3, #6
 202 0024 03F04003 		and	r3, r3, #64
 203 0028 1343     		orrs	r3, r3, r2
 185:Generated_Source\PSoC6\pdl\drivers\peripheral\prot/cy_prot.c ****               | _VAL2FLD(PROT_MPU_MPU_STRUCT_ATT_REGION_SIZE, config->regionSize);
 204              		.loc 1 185 0
 205 002a 0A79     		ldrb	r2, [r1, #4]	@ zero_extendqisi2
 206 002c 1206     		lsls	r2, r2, #24
 207 002e 02F0F852 		and	r2, r2, #520093696
 182:Generated_Source\PSoC6\pdl\drivers\peripheral\prot/cy_prot.c ****               | (((uint32_t)config->privPermission & CY_PROT_ATT_PERMISSION_MASK) << CY_PROT_ATT_PR
 208              		.loc 1 182 0
 209 0032 1343     		orrs	r3, r3, r2
ARM GAS  C:\Users\kiwamu\AppData\Local\Temp\ccLfX6Zi.s 			page 8


 210              	.LVL25:
 186:Generated_Source\PSoC6\pdl\drivers\peripheral\prot/cy_prot.c ****     base->ATT = attReg;
 211              		.loc 1 186 0
 212 0034 4360     		str	r3, [r0, #4]
 187:Generated_Source\PSoC6\pdl\drivers\peripheral\prot/cy_prot.c ****     base->ADDR = addrReg;
 213              		.loc 1 187 0
 214 0036 0460     		str	r4, [r0]
 188:Generated_Source\PSoC6\pdl\drivers\peripheral\prot/cy_prot.c ****     status = ((base->ADDR != addrReg) || (base->ATT != attReg)) ? CY_PROT_FAILURE : CY_PROT_SUCCESS
 215              		.loc 1 188 0
 216 0038 0268     		ldr	r2, [r0]
 217 003a 9442     		cmp	r4, r2
 218 003c 04D1     		bne	.L16
 219              		.loc 1 188 0 is_stmt 0 discriminator 2
 220 003e 4268     		ldr	r2, [r0, #4]
 221 0040 9342     		cmp	r3, r2
 222 0042 03D0     		beq	.L17
 223              		.loc 1 188 0
 224 0044 0348     		ldr	r0, .L19
 225              	.LVL26:
 226 0046 02E0     		b	.L15
 227              	.LVL27:
 228              	.L16:
 229 0048 0248     		ldr	r0, .L19
 230              	.LVL28:
 231 004a 00E0     		b	.L15
 232              	.LVL29:
 233              	.L17:
 234 004c 0020     		movs	r0, #0
 235              	.LVL30:
 236              	.L15:
 189:Generated_Source\PSoC6\pdl\drivers\peripheral\prot/cy_prot.c ****     
 190:Generated_Source\PSoC6\pdl\drivers\peripheral\prot/cy_prot.c ****     return status;
 191:Generated_Source\PSoC6\pdl\drivers\peripheral\prot/cy_prot.c **** }
 237              		.loc 1 191 0 is_stmt 1 discriminator 6
 238 004e 5DF8044B 		ldr	r4, [sp], #4
 239              		.cfi_restore 4
 240              		.cfi_def_cfa_offset 0
 241              	.LVL31:
 242 0052 7047     		bx	lr
 243              	.L20:
 244              		.align	2
 245              	.L19:
 246 0054 0300C200 		.word	12713987
 247              		.cfi_endproc
 248              	.LFE126:
 249              		.size	Cy_Prot_ConfigMpuStruct, .-Cy_Prot_ConfigMpuStruct
 250              		.section	.text.Cy_Prot_EnableMpuStruct,"ax",%progbits
 251              		.align	2
 252              		.global	Cy_Prot_EnableMpuStruct
 253              		.thumb
 254              		.thumb_func
 255              		.type	Cy_Prot_EnableMpuStruct, %function
 256              	Cy_Prot_EnableMpuStruct:
 257              	.LFB127:
 192:Generated_Source\PSoC6\pdl\drivers\peripheral\prot/cy_prot.c **** 
 193:Generated_Source\PSoC6\pdl\drivers\peripheral\prot/cy_prot.c **** 
 194:Generated_Source\PSoC6\pdl\drivers\peripheral\prot/cy_prot.c **** /*******************************************************************************
ARM GAS  C:\Users\kiwamu\AppData\Local\Temp\ccLfX6Zi.s 			page 9


 195:Generated_Source\PSoC6\pdl\drivers\peripheral\prot/cy_prot.c **** * Function Name: Cy_Prot_EnableMpuStruct
 196:Generated_Source\PSoC6\pdl\drivers\peripheral\prot/cy_prot.c **** ****************************************************************************//**
 197:Generated_Source\PSoC6\pdl\drivers\peripheral\prot/cy_prot.c **** *
 198:Generated_Source\PSoC6\pdl\drivers\peripheral\prot/cy_prot.c **** * \brief Enables the MPU struct, which allows the MPU protection attributes to 
 199:Generated_Source\PSoC6\pdl\drivers\peripheral\prot/cy_prot.c **** * take effect. 
 200:Generated_Source\PSoC6\pdl\drivers\peripheral\prot/cy_prot.c **** *
 201:Generated_Source\PSoC6\pdl\drivers\peripheral\prot/cy_prot.c **** * \param base
 202:Generated_Source\PSoC6\pdl\drivers\peripheral\prot/cy_prot.c **** * The base address of the MPU struct being configured. 
 203:Generated_Source\PSoC6\pdl\drivers\peripheral\prot/cy_prot.c **** *
 204:Generated_Source\PSoC6\pdl\drivers\peripheral\prot/cy_prot.c **** * \return
 205:Generated_Source\PSoC6\pdl\drivers\peripheral\prot/cy_prot.c **** * Status of the function call.
 206:Generated_Source\PSoC6\pdl\drivers\peripheral\prot/cy_prot.c **** *
 207:Generated_Source\PSoC6\pdl\drivers\peripheral\prot/cy_prot.c **** *   Status               | Description
 208:Generated_Source\PSoC6\pdl\drivers\peripheral\prot/cy_prot.c **** *   ------------         | -----------
 209:Generated_Source\PSoC6\pdl\drivers\peripheral\prot/cy_prot.c **** *   CY_PROT_SUCCESS      | The MPU struct was enabled
 210:Generated_Source\PSoC6\pdl\drivers\peripheral\prot/cy_prot.c **** *   CY_PROT_FAILURE      | The MPU struct is disabled and possibly locked
 211:Generated_Source\PSoC6\pdl\drivers\peripheral\prot/cy_prot.c **** *  
 212:Generated_Source\PSoC6\pdl\drivers\peripheral\prot/cy_prot.c **** *******************************************************************************/
 213:Generated_Source\PSoC6\pdl\drivers\peripheral\prot/cy_prot.c **** cy_en_prot_status_t Cy_Prot_EnableMpuStruct(PROT_MPU_MPU_STRUCT_Type* base)
 214:Generated_Source\PSoC6\pdl\drivers\peripheral\prot/cy_prot.c **** {
 258              		.loc 1 214 0
 259              		.cfi_startproc
 260              		@ args = 0, pretend = 0, frame = 0
 261              		@ frame_needed = 0, uses_anonymous_args = 0
 262              		@ link register save eliminated.
 263              	.LVL32:
 215:Generated_Source\PSoC6\pdl\drivers\peripheral\prot/cy_prot.c ****     cy_en_prot_status_t status = CY_PROT_SUCCESS;
 216:Generated_Source\PSoC6\pdl\drivers\peripheral\prot/cy_prot.c ****     
 217:Generated_Source\PSoC6\pdl\drivers\peripheral\prot/cy_prot.c ****     base->ATT |= _VAL2FLD(PROT_MPU_MPU_STRUCT_ATT_ENABLED, CY_PROT_STRUCT_ENABLE);
 264              		.loc 1 217 0
 265 0000 4368     		ldr	r3, [r0, #4]
 266 0002 43F00043 		orr	r3, r3, #-2147483648
 267 0006 4360     		str	r3, [r0, #4]
 218:Generated_Source\PSoC6\pdl\drivers\peripheral\prot/cy_prot.c ****     status = (_FLD2VAL(PROT_MPU_MPU_STRUCT_ATT_ENABLED, base->ATT) != CY_PROT_STRUCT_ENABLE) ?
 268              		.loc 1 218 0
 269 0008 4368     		ldr	r3, [r0, #4]
 270 000a 002B     		cmp	r3, #0
 271 000c 01DB     		blt	.L23
 272 000e 0248     		ldr	r0, .L24
 273              	.LVL33:
 274 0010 7047     		bx	lr
 275              	.LVL34:
 276              	.L23:
 277 0012 0020     		movs	r0, #0
 278              	.LVL35:
 219:Generated_Source\PSoC6\pdl\drivers\peripheral\prot/cy_prot.c ****                 CY_PROT_FAILURE : CY_PROT_SUCCESS;
 220:Generated_Source\PSoC6\pdl\drivers\peripheral\prot/cy_prot.c ****     
 221:Generated_Source\PSoC6\pdl\drivers\peripheral\prot/cy_prot.c ****     return status;
 222:Generated_Source\PSoC6\pdl\drivers\peripheral\prot/cy_prot.c **** }
 279              		.loc 1 222 0
 280 0014 7047     		bx	lr
 281              	.L25:
 282 0016 00BF     		.align	2
 283              	.L24:
 284 0018 0300C200 		.word	12713987
 285              		.cfi_endproc
 286              	.LFE127:
ARM GAS  C:\Users\kiwamu\AppData\Local\Temp\ccLfX6Zi.s 			page 10


 287              		.size	Cy_Prot_EnableMpuStruct, .-Cy_Prot_EnableMpuStruct
 288              		.section	.text.Cy_Prot_DisableMpuStruct,"ax",%progbits
 289              		.align	2
 290              		.global	Cy_Prot_DisableMpuStruct
 291              		.thumb
 292              		.thumb_func
 293              		.type	Cy_Prot_DisableMpuStruct, %function
 294              	Cy_Prot_DisableMpuStruct:
 295              	.LFB128:
 223:Generated_Source\PSoC6\pdl\drivers\peripheral\prot/cy_prot.c **** 
 224:Generated_Source\PSoC6\pdl\drivers\peripheral\prot/cy_prot.c **** 
 225:Generated_Source\PSoC6\pdl\drivers\peripheral\prot/cy_prot.c **** /*******************************************************************************
 226:Generated_Source\PSoC6\pdl\drivers\peripheral\prot/cy_prot.c **** * Function Name: Cy_Prot_DisableMpuStruct
 227:Generated_Source\PSoC6\pdl\drivers\peripheral\prot/cy_prot.c **** ****************************************************************************//**
 228:Generated_Source\PSoC6\pdl\drivers\peripheral\prot/cy_prot.c **** *
 229:Generated_Source\PSoC6\pdl\drivers\peripheral\prot/cy_prot.c **** * \brief Disbles the MPU struct, which prevents the MPU protection attributes
 230:Generated_Source\PSoC6\pdl\drivers\peripheral\prot/cy_prot.c **** * from taking effect.
 231:Generated_Source\PSoC6\pdl\drivers\peripheral\prot/cy_prot.c **** *
 232:Generated_Source\PSoC6\pdl\drivers\peripheral\prot/cy_prot.c **** * \param base
 233:Generated_Source\PSoC6\pdl\drivers\peripheral\prot/cy_prot.c **** * The base address of the MPU struct being configured. 
 234:Generated_Source\PSoC6\pdl\drivers\peripheral\prot/cy_prot.c **** *
 235:Generated_Source\PSoC6\pdl\drivers\peripheral\prot/cy_prot.c **** * \return
 236:Generated_Source\PSoC6\pdl\drivers\peripheral\prot/cy_prot.c **** * Status of the function call.
 237:Generated_Source\PSoC6\pdl\drivers\peripheral\prot/cy_prot.c **** *
 238:Generated_Source\PSoC6\pdl\drivers\peripheral\prot/cy_prot.c **** *   Status               | Description
 239:Generated_Source\PSoC6\pdl\drivers\peripheral\prot/cy_prot.c **** *   ------------         | -----------
 240:Generated_Source\PSoC6\pdl\drivers\peripheral\prot/cy_prot.c **** *   CY_PROT_SUCCESS      | The MPU struct was disabled
 241:Generated_Source\PSoC6\pdl\drivers\peripheral\prot/cy_prot.c **** *   CY_PROT_FAILURE      | The MPU struct is enabled and possibly locked
 242:Generated_Source\PSoC6\pdl\drivers\peripheral\prot/cy_prot.c **** *  
 243:Generated_Source\PSoC6\pdl\drivers\peripheral\prot/cy_prot.c **** *******************************************************************************/
 244:Generated_Source\PSoC6\pdl\drivers\peripheral\prot/cy_prot.c **** cy_en_prot_status_t Cy_Prot_DisableMpuStruct(PROT_MPU_MPU_STRUCT_Type* base)
 245:Generated_Source\PSoC6\pdl\drivers\peripheral\prot/cy_prot.c **** {
 296              		.loc 1 245 0
 297              		.cfi_startproc
 298              		@ args = 0, pretend = 0, frame = 0
 299              		@ frame_needed = 0, uses_anonymous_args = 0
 300              		@ link register save eliminated.
 301              	.LVL36:
 246:Generated_Source\PSoC6\pdl\drivers\peripheral\prot/cy_prot.c ****     cy_en_prot_status_t status = CY_PROT_SUCCESS;
 247:Generated_Source\PSoC6\pdl\drivers\peripheral\prot/cy_prot.c ****     
 248:Generated_Source\PSoC6\pdl\drivers\peripheral\prot/cy_prot.c ****     base->ATT &= ~_VAL2FLD(PROT_MPU_MPU_STRUCT_ATT_ENABLED, CY_PROT_STRUCT_ENABLE);
 302              		.loc 1 248 0
 303 0000 4368     		ldr	r3, [r0, #4]
 304 0002 23F00043 		bic	r3, r3, #-2147483648
 305 0006 4360     		str	r3, [r0, #4]
 249:Generated_Source\PSoC6\pdl\drivers\peripheral\prot/cy_prot.c ****     status = (_FLD2VAL(PROT_MPU_MPU_STRUCT_ATT_ENABLED, base->ATT) == CY_PROT_STRUCT_ENABLE) ?
 306              		.loc 1 249 0
 307 0008 4368     		ldr	r3, [r0, #4]
 308 000a 002B     		cmp	r3, #0
 309 000c 01DA     		bge	.L28
 310 000e 0248     		ldr	r0, .L29
 311              	.LVL37:
 312 0010 7047     		bx	lr
 313              	.LVL38:
 314              	.L28:
 315 0012 0020     		movs	r0, #0
 316              	.LVL39:
ARM GAS  C:\Users\kiwamu\AppData\Local\Temp\ccLfX6Zi.s 			page 11


 250:Generated_Source\PSoC6\pdl\drivers\peripheral\prot/cy_prot.c ****             CY_PROT_FAILURE : CY_PROT_SUCCESS;
 251:Generated_Source\PSoC6\pdl\drivers\peripheral\prot/cy_prot.c ****     
 252:Generated_Source\PSoC6\pdl\drivers\peripheral\prot/cy_prot.c ****     return status;
 253:Generated_Source\PSoC6\pdl\drivers\peripheral\prot/cy_prot.c **** }
 317              		.loc 1 253 0
 318 0014 7047     		bx	lr
 319              	.L30:
 320 0016 00BF     		.align	2
 321              	.L29:
 322 0018 0300C200 		.word	12713987
 323              		.cfi_endproc
 324              	.LFE128:
 325              		.size	Cy_Prot_DisableMpuStruct, .-Cy_Prot_DisableMpuStruct
 326              		.section	.text.Cy_Prot_ConfigSmpuMasterStruct,"ax",%progbits
 327              		.align	2
 328              		.global	Cy_Prot_ConfigSmpuMasterStruct
 329              		.thumb
 330              		.thumb_func
 331              		.type	Cy_Prot_ConfigSmpuMasterStruct, %function
 332              	Cy_Prot_ConfigSmpuMasterStruct:
 333              	.LFB129:
 254:Generated_Source\PSoC6\pdl\drivers\peripheral\prot/cy_prot.c **** 
 255:Generated_Source\PSoC6\pdl\drivers\peripheral\prot/cy_prot.c **** 
 256:Generated_Source\PSoC6\pdl\drivers\peripheral\prot/cy_prot.c **** /*******************************************************************************
 257:Generated_Source\PSoC6\pdl\drivers\peripheral\prot/cy_prot.c **** * Function Name: Cy_Prot_ConfigSmpuMasterStruct
 258:Generated_Source\PSoC6\pdl\drivers\peripheral\prot/cy_prot.c **** ****************************************************************************//**
 259:Generated_Source\PSoC6\pdl\drivers\peripheral\prot/cy_prot.c **** *
 260:Generated_Source\PSoC6\pdl\drivers\peripheral\prot/cy_prot.c **** * \brief Configures a Shared Memory Protection Unit (SMPU) master protection 
 261:Generated_Source\PSoC6\pdl\drivers\peripheral\prot/cy_prot.c **** * struct with its protection attributes. 
 262:Generated_Source\PSoC6\pdl\drivers\peripheral\prot/cy_prot.c **** *
 263:Generated_Source\PSoC6\pdl\drivers\peripheral\prot/cy_prot.c **** * This function configures the master struct governing the corresponding slave
 264:Generated_Source\PSoC6\pdl\drivers\peripheral\prot/cy_prot.c **** * struct pair. It is a mechanism to protect the slave SMPU struct. Since the
 265:Generated_Source\PSoC6\pdl\drivers\peripheral\prot/cy_prot.c **** * memory location of the slave struct is known, the address, regionSize and
 266:Generated_Source\PSoC6\pdl\drivers\peripheral\prot/cy_prot.c **** * subregions of the configuration struct are not applicable.
 267:Generated_Source\PSoC6\pdl\drivers\peripheral\prot/cy_prot.c **** *
 268:Generated_Source\PSoC6\pdl\drivers\peripheral\prot/cy_prot.c **** * Note that only the user/privileged write permissions are configurable. The 
 269:Generated_Source\PSoC6\pdl\drivers\peripheral\prot/cy_prot.c **** * read and execute permissions are read-only and cannot be configured.
 270:Generated_Source\PSoC6\pdl\drivers\peripheral\prot/cy_prot.c **** *
 271:Generated_Source\PSoC6\pdl\drivers\peripheral\prot/cy_prot.c **** * \param base
 272:Generated_Source\PSoC6\pdl\drivers\peripheral\prot/cy_prot.c **** * The register base address of the protection struct being configured.
 273:Generated_Source\PSoC6\pdl\drivers\peripheral\prot/cy_prot.c **** * 
 274:Generated_Source\PSoC6\pdl\drivers\peripheral\prot/cy_prot.c **** * \param config
 275:Generated_Source\PSoC6\pdl\drivers\peripheral\prot/cy_prot.c **** * Initialization structure with all the protection attributes.
 276:Generated_Source\PSoC6\pdl\drivers\peripheral\prot/cy_prot.c **** * 
 277:Generated_Source\PSoC6\pdl\drivers\peripheral\prot/cy_prot.c **** * \return
 278:Generated_Source\PSoC6\pdl\drivers\peripheral\prot/cy_prot.c **** * Status of the function call.
 279:Generated_Source\PSoC6\pdl\drivers\peripheral\prot/cy_prot.c **** *
 280:Generated_Source\PSoC6\pdl\drivers\peripheral\prot/cy_prot.c **** *   Status               | Description
 281:Generated_Source\PSoC6\pdl\drivers\peripheral\prot/cy_prot.c **** *   ------------         | -----------
 282:Generated_Source\PSoC6\pdl\drivers\peripheral\prot/cy_prot.c **** *   CY_PROT_SUCCESS      | SMPU master struct was successfully configured
 283:Generated_Source\PSoC6\pdl\drivers\peripheral\prot/cy_prot.c **** *   CY_PROT_FAILURE      | The resource is locked
 284:Generated_Source\PSoC6\pdl\drivers\peripheral\prot/cy_prot.c **** *   CY_PROT_BAD_PARAM    | An incorrect/invalid parameter was passed
 285:Generated_Source\PSoC6\pdl\drivers\peripheral\prot/cy_prot.c **** *  
 286:Generated_Source\PSoC6\pdl\drivers\peripheral\prot/cy_prot.c **** *******************************************************************************/
 287:Generated_Source\PSoC6\pdl\drivers\peripheral\prot/cy_prot.c **** cy_en_prot_status_t Cy_Prot_ConfigSmpuMasterStruct(PROT_SMPU_SMPU_STRUCT_Type* base, const cy_stc_s
 288:Generated_Source\PSoC6\pdl\drivers\peripheral\prot/cy_prot.c **** {
 334              		.loc 1 288 0
ARM GAS  C:\Users\kiwamu\AppData\Local\Temp\ccLfX6Zi.s 			page 12


 335              		.cfi_startproc
 336              		@ args = 0, pretend = 0, frame = 0
 337              		@ frame_needed = 0, uses_anonymous_args = 0
 338              		@ link register save eliminated.
 339              	.LVL40:
 340 0000 10B4     		push	{r4}
 341              		.cfi_def_cfa_offset 4
 342              		.cfi_offset 4, -4
 343              	.LVL41:
 289:Generated_Source\PSoC6\pdl\drivers\peripheral\prot/cy_prot.c ****     cy_en_prot_status_t status = CY_PROT_SUCCESS;
 290:Generated_Source\PSoC6\pdl\drivers\peripheral\prot/cy_prot.c ****     uint32_t attReg;
 291:Generated_Source\PSoC6\pdl\drivers\peripheral\prot/cy_prot.c ****     
 292:Generated_Source\PSoC6\pdl\drivers\peripheral\prot/cy_prot.c ****     if(((uint32_t)config->pcMask & CY_PROT_SMPU_PC_LIMIT_MASK) != 0UL) 
 344              		.loc 1 292 0
 345 0002 4C89     		ldrh	r4, [r1, #10]
 346 0004 34F07F03 		bics	r3, r4, #127
 347 0008 23D1     		bne	.L33
 293:Generated_Source\PSoC6\pdl\drivers\peripheral\prot/cy_prot.c ****     {
 294:Generated_Source\PSoC6\pdl\drivers\peripheral\prot/cy_prot.c ****         /* PC mask out of range - not supported in device */
 295:Generated_Source\PSoC6\pdl\drivers\peripheral\prot/cy_prot.c ****         status = CY_PROT_BAD_PARAM;
 296:Generated_Source\PSoC6\pdl\drivers\peripheral\prot/cy_prot.c ****     }
 297:Generated_Source\PSoC6\pdl\drivers\peripheral\prot/cy_prot.c ****     else
 298:Generated_Source\PSoC6\pdl\drivers\peripheral\prot/cy_prot.c ****     {
 299:Generated_Source\PSoC6\pdl\drivers\peripheral\prot/cy_prot.c ****         /* ADDR1 is read only. Only configure ATT1 */
 300:Generated_Source\PSoC6\pdl\drivers\peripheral\prot/cy_prot.c ****         attReg = ((uint32_t)config->userPermission & CY_PROT_ATT_PERMISSION_MASK)
 348              		.loc 1 300 0
 349 000a 8B79     		ldrb	r3, [r1, #6]	@ zero_extendqisi2
 350 000c 03F00703 		and	r3, r3, #7
 301:Generated_Source\PSoC6\pdl\drivers\peripheral\prot/cy_prot.c ****                     | (uint32_t)(((uint32_t)config->privPermission & CY_PROT_ATT_PERMISSION_MASK) <
 351              		.loc 1 301 0
 352 0010 CA79     		ldrb	r2, [r1, #7]	@ zero_extendqisi2
 353 0012 D200     		lsls	r2, r2, #3
 354 0014 02F03802 		and	r2, r2, #56
 355 0018 1343     		orrs	r3, r3, r2
 302:Generated_Source\PSoC6\pdl\drivers\peripheral\prot/cy_prot.c ****                     | _VAL2FLD(PROT_SMPU_SMPU_STRUCT_ATT1_NS, !(config->secure))
 356              		.loc 1 302 0
 357 001a 0A7A     		ldrb	r2, [r1, #8]	@ zero_extendqisi2
 358 001c 82F00102 		eor	r2, r2, #1
 359 0020 9201     		lsls	r2, r2, #6
 360 0022 02F04002 		and	r2, r2, #64
 361 0026 1343     		orrs	r3, r3, r2
 303:Generated_Source\PSoC6\pdl\drivers\peripheral\prot/cy_prot.c ****                     | _VAL2FLD(PROT_SMPU_SMPU_STRUCT_ATT1_PC_MASK_15_TO_1, config->pcMask)
 362              		.loc 1 303 0
 363 0028 0E4A     		ldr	r2, .L37
 364 002a 02EA4424 		and	r4, r2, r4, lsl #9
 365 002e 2343     		orrs	r3, r3, r4
 304:Generated_Source\PSoC6\pdl\drivers\peripheral\prot/cy_prot.c ****                     /* No region size - read only for master structs */
 305:Generated_Source\PSoC6\pdl\drivers\peripheral\prot/cy_prot.c ****                     | _VAL2FLD(PROT_SMPU_SMPU_STRUCT_ATT1_PC_MATCH, config->pcMatch);
 366              		.loc 1 305 0
 367 0030 4A7A     		ldrb	r2, [r1, #9]	@ zero_extendqisi2
 368 0032 9207     		lsls	r2, r2, #30
 369 0034 02F08042 		and	r2, r2, #1073741824
 300:Generated_Source\PSoC6\pdl\drivers\peripheral\prot/cy_prot.c ****                     | (uint32_t)(((uint32_t)config->privPermission & CY_PROT_ATT_PERMISSION_MASK) <
 370              		.loc 1 300 0
 371 0038 1343     		orrs	r3, r3, r2
 372              	.LVL42:
 306:Generated_Source\PSoC6\pdl\drivers\peripheral\prot/cy_prot.c ****         if ((attReg & CY_PROT_SMPU_ATT1_MASK) != attReg)
ARM GAS  C:\Users\kiwamu\AppData\Local\Temp\ccLfX6Zi.s 			page 13


 373              		.loc 1 306 0
 374 003a 0B4A     		ldr	r2, .L37+4
 375 003c 1A40     		ands	r2, r2, r3
 376 003e 9342     		cmp	r3, r2
 377 0040 09D1     		bne	.L34
 307:Generated_Source\PSoC6\pdl\drivers\peripheral\prot/cy_prot.c ****         {
 308:Generated_Source\PSoC6\pdl\drivers\peripheral\prot/cy_prot.c ****             /* Invalid parameter was passed */
 309:Generated_Source\PSoC6\pdl\drivers\peripheral\prot/cy_prot.c ****             status = CY_PROT_BAD_PARAM;
 310:Generated_Source\PSoC6\pdl\drivers\peripheral\prot/cy_prot.c ****         }
 311:Generated_Source\PSoC6\pdl\drivers\peripheral\prot/cy_prot.c ****         else
 312:Generated_Source\PSoC6\pdl\drivers\peripheral\prot/cy_prot.c ****         {
 313:Generated_Source\PSoC6\pdl\drivers\peripheral\prot/cy_prot.c ****             base->ATT1 = attReg;
 378              		.loc 1 313 0
 379 0042 4362     		str	r3, [r0, #36]
 314:Generated_Source\PSoC6\pdl\drivers\peripheral\prot/cy_prot.c ****             status = ((base->ATT1 & CY_PROT_SMPU_ATT1_MASK) != attReg) ? CY_PROT_FAILURE : CY_PROT_
 380              		.loc 1 314 0
 381 0044 416A     		ldr	r1, [r0, #36]
 382              	.LVL43:
 383 0046 094A     		ldr	r2, .L37+8
 384 0048 0A40     		ands	r2, r2, r1
 385 004a 9342     		cmp	r3, r2
 386 004c 05D0     		beq	.L35
 387 004e 0848     		ldr	r0, .L37+12
 388              	.LVL44:
 389 0050 04E0     		b	.L32
 390              	.LVL45:
 391              	.L33:
 295:Generated_Source\PSoC6\pdl\drivers\peripheral\prot/cy_prot.c ****     }
 392              		.loc 1 295 0
 393 0052 0848     		ldr	r0, .L37+16
 394              	.LVL46:
 395 0054 02E0     		b	.L32
 396              	.LVL47:
 397              	.L34:
 309:Generated_Source\PSoC6\pdl\drivers\peripheral\prot/cy_prot.c ****         }
 398              		.loc 1 309 0
 399 0056 0748     		ldr	r0, .L37+16
 400              	.LVL48:
 401 0058 00E0     		b	.L32
 402              	.LVL49:
 403              	.L35:
 404              		.loc 1 314 0
 405 005a 0020     		movs	r0, #0
 406              	.LVL50:
 407              	.L32:
 315:Generated_Source\PSoC6\pdl\drivers\peripheral\prot/cy_prot.c ****         }
 316:Generated_Source\PSoC6\pdl\drivers\peripheral\prot/cy_prot.c ****     }
 317:Generated_Source\PSoC6\pdl\drivers\peripheral\prot/cy_prot.c ****     
 318:Generated_Source\PSoC6\pdl\drivers\peripheral\prot/cy_prot.c ****     return status;
 319:Generated_Source\PSoC6\pdl\drivers\peripheral\prot/cy_prot.c **** }
 408              		.loc 1 319 0
 409 005c 5DF8044B 		ldr	r4, [sp], #4
 410              		.cfi_restore 4
 411              		.cfi_def_cfa_offset 0
 412 0060 7047     		bx	lr
 413              	.L38:
 414 0062 00BF     		.align	2
ARM GAS  C:\Users\kiwamu\AppData\Local\Temp\ccLfX6Zi.s 			page 14


 415              	.L37:
 416 0064 00FEFF00 		.word	16776704
 417 0068 52FEFF40 		.word	1090518610
 418 006c D2FEFFE0 		.word	-520093998
 419 0070 0300C200 		.word	12713987
 420 0074 0100C200 		.word	12713985
 421              		.cfi_endproc
 422              	.LFE129:
 423              		.size	Cy_Prot_ConfigSmpuMasterStruct, .-Cy_Prot_ConfigSmpuMasterStruct
 424              		.section	.text.Cy_Prot_ConfigSmpuSlaveStruct,"ax",%progbits
 425              		.align	2
 426              		.global	Cy_Prot_ConfigSmpuSlaveStruct
 427              		.thumb
 428              		.thumb_func
 429              		.type	Cy_Prot_ConfigSmpuSlaveStruct, %function
 430              	Cy_Prot_ConfigSmpuSlaveStruct:
 431              	.LFB130:
 320:Generated_Source\PSoC6\pdl\drivers\peripheral\prot/cy_prot.c **** 
 321:Generated_Source\PSoC6\pdl\drivers\peripheral\prot/cy_prot.c **** /*******************************************************************************
 322:Generated_Source\PSoC6\pdl\drivers\peripheral\prot/cy_prot.c **** * Function Name: Cy_Prot_ConfigSmpuSlaveStruct
 323:Generated_Source\PSoC6\pdl\drivers\peripheral\prot/cy_prot.c **** ****************************************************************************//**
 324:Generated_Source\PSoC6\pdl\drivers\peripheral\prot/cy_prot.c **** *
 325:Generated_Source\PSoC6\pdl\drivers\peripheral\prot/cy_prot.c **** * \brief Configures a Shared Memory Protection Unit (SMPU) slave protection 
 326:Generated_Source\PSoC6\pdl\drivers\peripheral\prot/cy_prot.c **** * struct with its protection attributes. 
 327:Generated_Source\PSoC6\pdl\drivers\peripheral\prot/cy_prot.c **** * 
 328:Generated_Source\PSoC6\pdl\drivers\peripheral\prot/cy_prot.c **** * This function configures the slave struct of an SMPU pair, which can protect
 329:Generated_Source\PSoC6\pdl\drivers\peripheral\prot/cy_prot.c **** * any memory region in a device from invalid bus master accesses.
 330:Generated_Source\PSoC6\pdl\drivers\peripheral\prot/cy_prot.c **** *
 331:Generated_Source\PSoC6\pdl\drivers\peripheral\prot/cy_prot.c **** * \param base
 332:Generated_Source\PSoC6\pdl\drivers\peripheral\prot/cy_prot.c **** * The register base address of the protection structure being configured.
 333:Generated_Source\PSoC6\pdl\drivers\peripheral\prot/cy_prot.c **** * 
 334:Generated_Source\PSoC6\pdl\drivers\peripheral\prot/cy_prot.c **** * \param config
 335:Generated_Source\PSoC6\pdl\drivers\peripheral\prot/cy_prot.c **** * Initialization structure with all the protection attributes.
 336:Generated_Source\PSoC6\pdl\drivers\peripheral\prot/cy_prot.c **** * 
 337:Generated_Source\PSoC6\pdl\drivers\peripheral\prot/cy_prot.c **** * \return
 338:Generated_Source\PSoC6\pdl\drivers\peripheral\prot/cy_prot.c **** * Status of the function call.
 339:Generated_Source\PSoC6\pdl\drivers\peripheral\prot/cy_prot.c **** *
 340:Generated_Source\PSoC6\pdl\drivers\peripheral\prot/cy_prot.c **** *   Status               | Description
 341:Generated_Source\PSoC6\pdl\drivers\peripheral\prot/cy_prot.c **** *   ------------         | -----------
 342:Generated_Source\PSoC6\pdl\drivers\peripheral\prot/cy_prot.c **** *   CY_PROT_SUCCESS      | SMPU slave struct was successfully configured
 343:Generated_Source\PSoC6\pdl\drivers\peripheral\prot/cy_prot.c **** *   CY_PROT_FAILURE      | The resource is locked
 344:Generated_Source\PSoC6\pdl\drivers\peripheral\prot/cy_prot.c **** *   CY_PROT_BAD_PARAM    | An incorrect/invalid parameter was passed
 345:Generated_Source\PSoC6\pdl\drivers\peripheral\prot/cy_prot.c **** *  
 346:Generated_Source\PSoC6\pdl\drivers\peripheral\prot/cy_prot.c **** *******************************************************************************/
 347:Generated_Source\PSoC6\pdl\drivers\peripheral\prot/cy_prot.c **** cy_en_prot_status_t Cy_Prot_ConfigSmpuSlaveStruct(PROT_SMPU_SMPU_STRUCT_Type* base, const cy_stc_sm
 348:Generated_Source\PSoC6\pdl\drivers\peripheral\prot/cy_prot.c **** {
 432              		.loc 1 348 0
 433              		.cfi_startproc
 434              		@ args = 0, pretend = 0, frame = 0
 435              		@ frame_needed = 0, uses_anonymous_args = 0
 436              		@ link register save eliminated.
 437              	.LVL51:
 438 0000 30B4     		push	{r4, r5}
 439              		.cfi_def_cfa_offset 8
 440              		.cfi_offset 4, -8
 441              		.cfi_offset 5, -4
 442              	.LVL52:
ARM GAS  C:\Users\kiwamu\AppData\Local\Temp\ccLfX6Zi.s 			page 15


 349:Generated_Source\PSoC6\pdl\drivers\peripheral\prot/cy_prot.c ****     cy_en_prot_status_t status = CY_PROT_SUCCESS;
 350:Generated_Source\PSoC6\pdl\drivers\peripheral\prot/cy_prot.c ****     uint32_t addrReg;
 351:Generated_Source\PSoC6\pdl\drivers\peripheral\prot/cy_prot.c ****     uint32_t attReg;
 352:Generated_Source\PSoC6\pdl\drivers\peripheral\prot/cy_prot.c ****     
 353:Generated_Source\PSoC6\pdl\drivers\peripheral\prot/cy_prot.c ****     if(((uint32_t)config->pcMask & CY_PROT_SMPU_PC_LIMIT_MASK) != 0UL) 
 443              		.loc 1 353 0
 444 0002 4D89     		ldrh	r5, [r1, #10]
 445 0004 35F07F03 		bics	r3, r5, #127
 446 0008 2DD1     		bne	.L41
 354:Generated_Source\PSoC6\pdl\drivers\peripheral\prot/cy_prot.c ****     {
 355:Generated_Source\PSoC6\pdl\drivers\peripheral\prot/cy_prot.c ****         /* PC mask out of range - not supported in device */
 356:Generated_Source\PSoC6\pdl\drivers\peripheral\prot/cy_prot.c ****         status = CY_PROT_BAD_PARAM;
 357:Generated_Source\PSoC6\pdl\drivers\peripheral\prot/cy_prot.c ****     }
 358:Generated_Source\PSoC6\pdl\drivers\peripheral\prot/cy_prot.c ****     else
 359:Generated_Source\PSoC6\pdl\drivers\peripheral\prot/cy_prot.c ****     {
 360:Generated_Source\PSoC6\pdl\drivers\peripheral\prot/cy_prot.c ****         addrReg= _VAL2FLD(PROT_SMPU_SMPU_STRUCT_ADDR0_SUBREGION_DISABLE, config->subregions)
 447              		.loc 1 360 0
 448 000a 4C79     		ldrb	r4, [r1, #5]	@ zero_extendqisi2
 361:Generated_Source\PSoC6\pdl\drivers\peripheral\prot/cy_prot.c ****                     | _VAL2FLD(PROT_SMPU_SMPU_STRUCT_ADDR0_ADDR24, (uint32_t)((uint32_t)config->add
 449              		.loc 1 361 0
 450 000c 0B68     		ldr	r3, [r1]
 451 000e 23F0FF03 		bic	r3, r3, #255
 360:Generated_Source\PSoC6\pdl\drivers\peripheral\prot/cy_prot.c ****                     | _VAL2FLD(PROT_SMPU_SMPU_STRUCT_ADDR0_ADDR24, (uint32_t)((uint32_t)config->add
 452              		.loc 1 360 0
 453 0012 1C43     		orrs	r4, r4, r3
 454              	.LVL53:
 362:Generated_Source\PSoC6\pdl\drivers\peripheral\prot/cy_prot.c ****         attReg= ((uint32_t)config->userPermission & CY_PROT_ATT_PERMISSION_MASK)
 455              		.loc 1 362 0
 456 0014 8B79     		ldrb	r3, [r1, #6]	@ zero_extendqisi2
 457 0016 03F00703 		and	r3, r3, #7
 363:Generated_Source\PSoC6\pdl\drivers\peripheral\prot/cy_prot.c ****                     | (uint32_t)(((uint32_t)config->privPermission & CY_PROT_ATT_PERMISSION_MASK) <
 458              		.loc 1 363 0
 459 001a CA79     		ldrb	r2, [r1, #7]	@ zero_extendqisi2
 460 001c D200     		lsls	r2, r2, #3
 461 001e 02F03802 		and	r2, r2, #56
 462 0022 1343     		orrs	r3, r3, r2
 364:Generated_Source\PSoC6\pdl\drivers\peripheral\prot/cy_prot.c ****                     | _VAL2FLD(PROT_SMPU_SMPU_STRUCT_ATT0_NS, !(config->secure))
 463              		.loc 1 364 0
 464 0024 0A7A     		ldrb	r2, [r1, #8]	@ zero_extendqisi2
 465 0026 82F00102 		eor	r2, r2, #1
 466 002a 9201     		lsls	r2, r2, #6
 467 002c 02F04002 		and	r2, r2, #64
 468 0030 1343     		orrs	r3, r3, r2
 365:Generated_Source\PSoC6\pdl\drivers\peripheral\prot/cy_prot.c ****                     | _VAL2FLD(PROT_SMPU_SMPU_STRUCT_ATT0_PC_MASK_15_TO_1, config->pcMask)
 469              		.loc 1 365 0
 470 0032 104A     		ldr	r2, .L45
 471 0034 02EA4525 		and	r5, r2, r5, lsl #9
 472 0038 2B43     		orrs	r3, r3, r5
 366:Generated_Source\PSoC6\pdl\drivers\peripheral\prot/cy_prot.c ****                     | _VAL2FLD(PROT_SMPU_SMPU_STRUCT_ATT0_REGION_SIZE, config->regionSize)
 473              		.loc 1 366 0
 474 003a 0A79     		ldrb	r2, [r1, #4]	@ zero_extendqisi2
 475 003c 1206     		lsls	r2, r2, #24
 476 003e 02F0F852 		and	r2, r2, #520093696
 477 0042 1343     		orrs	r3, r3, r2
 367:Generated_Source\PSoC6\pdl\drivers\peripheral\prot/cy_prot.c ****                     | _VAL2FLD(PROT_SMPU_SMPU_STRUCT_ATT0_PC_MATCH, config->pcMatch);
 478              		.loc 1 367 0
 479 0044 4A7A     		ldrb	r2, [r1, #9]	@ zero_extendqisi2
ARM GAS  C:\Users\kiwamu\AppData\Local\Temp\ccLfX6Zi.s 			page 16


 480 0046 9207     		lsls	r2, r2, #30
 481 0048 02F08042 		and	r2, r2, #1073741824
 362:Generated_Source\PSoC6\pdl\drivers\peripheral\prot/cy_prot.c ****                     | (uint32_t)(((uint32_t)config->privPermission & CY_PROT_ATT_PERMISSION_MASK) <
 482              		.loc 1 362 0
 483 004c 1343     		orrs	r3, r3, r2
 484              	.LVL54:
 368:Generated_Source\PSoC6\pdl\drivers\peripheral\prot/cy_prot.c ****         base->ATT0 = attReg;
 485              		.loc 1 368 0
 486 004e 4360     		str	r3, [r0, #4]
 369:Generated_Source\PSoC6\pdl\drivers\peripheral\prot/cy_prot.c ****         base->ADDR0 = addrReg;
 487              		.loc 1 369 0
 488 0050 0460     		str	r4, [r0]
 370:Generated_Source\PSoC6\pdl\drivers\peripheral\prot/cy_prot.c ****         status = ((base->ADDR0 != addrReg) || ((base->ATT0 & CY_PROT_SMPU_ATT0_MASK) != attReg))
 489              		.loc 1 370 0
 490 0052 0268     		ldr	r2, [r0]
 491 0054 9442     		cmp	r4, r2
 492 0056 08D1     		bne	.L42
 493              		.loc 1 370 0 is_stmt 0 discriminator 2
 494 0058 4268     		ldr	r2, [r0, #4]
 495 005a 22F48072 		bic	r2, r2, #256
 496 005e 9342     		cmp	r3, r2
 497 0060 05D0     		beq	.L43
 498              		.loc 1 370 0
 499 0062 0548     		ldr	r0, .L45+4
 500              	.LVL55:
 501 0064 04E0     		b	.L40
 502              	.LVL56:
 503              	.L41:
 356:Generated_Source\PSoC6\pdl\drivers\peripheral\prot/cy_prot.c ****     }
 504              		.loc 1 356 0 is_stmt 1
 505 0066 0548     		ldr	r0, .L45+8
 506              	.LVL57:
 507 0068 02E0     		b	.L40
 508              	.LVL58:
 509              	.L42:
 510              		.loc 1 370 0
 511 006a 0348     		ldr	r0, .L45+4
 512              	.LVL59:
 513 006c 00E0     		b	.L40
 514              	.LVL60:
 515              	.L43:
 516 006e 0020     		movs	r0, #0
 517              	.LVL61:
 518              	.L40:
 371:Generated_Source\PSoC6\pdl\drivers\peripheral\prot/cy_prot.c ****                     ? CY_PROT_FAILURE : CY_PROT_SUCCESS;
 372:Generated_Source\PSoC6\pdl\drivers\peripheral\prot/cy_prot.c ****     }
 373:Generated_Source\PSoC6\pdl\drivers\peripheral\prot/cy_prot.c ****     
 374:Generated_Source\PSoC6\pdl\drivers\peripheral\prot/cy_prot.c ****     return status;
 375:Generated_Source\PSoC6\pdl\drivers\peripheral\prot/cy_prot.c **** }
 519              		.loc 1 375 0
 520 0070 30BC     		pop	{r4, r5}
 521              		.cfi_restore 5
 522              		.cfi_restore 4
 523              		.cfi_def_cfa_offset 0
 524 0072 7047     		bx	lr
 525              	.L46:
 526              		.align	2
ARM GAS  C:\Users\kiwamu\AppData\Local\Temp\ccLfX6Zi.s 			page 17


 527              	.L45:
 528 0074 00FEFF00 		.word	16776704
 529 0078 0300C200 		.word	12713987
 530 007c 0100C200 		.word	12713985
 531              		.cfi_endproc
 532              	.LFE130:
 533              		.size	Cy_Prot_ConfigSmpuSlaveStruct, .-Cy_Prot_ConfigSmpuSlaveStruct
 534              		.section	.text.Cy_Prot_EnableSmpuMasterStruct,"ax",%progbits
 535              		.align	2
 536              		.global	Cy_Prot_EnableSmpuMasterStruct
 537              		.thumb
 538              		.thumb_func
 539              		.type	Cy_Prot_EnableSmpuMasterStruct, %function
 540              	Cy_Prot_EnableSmpuMasterStruct:
 541              	.LFB131:
 376:Generated_Source\PSoC6\pdl\drivers\peripheral\prot/cy_prot.c **** 
 377:Generated_Source\PSoC6\pdl\drivers\peripheral\prot/cy_prot.c **** 
 378:Generated_Source\PSoC6\pdl\drivers\peripheral\prot/cy_prot.c **** /*******************************************************************************
 379:Generated_Source\PSoC6\pdl\drivers\peripheral\prot/cy_prot.c **** * Function Name: Cy_Prot_EnableSmpuMasterStruct
 380:Generated_Source\PSoC6\pdl\drivers\peripheral\prot/cy_prot.c **** ****************************************************************************//**
 381:Generated_Source\PSoC6\pdl\drivers\peripheral\prot/cy_prot.c **** *
 382:Generated_Source\PSoC6\pdl\drivers\peripheral\prot/cy_prot.c **** * \brief Enables the Master SMPU structure.
 383:Generated_Source\PSoC6\pdl\drivers\peripheral\prot/cy_prot.c **** *
 384:Generated_Source\PSoC6\pdl\drivers\peripheral\prot/cy_prot.c **** * This is an SMPU master struct enable function. The SMPU protection settings
 385:Generated_Source\PSoC6\pdl\drivers\peripheral\prot/cy_prot.c **** * will take effect after successful completion of this function call.
 386:Generated_Source\PSoC6\pdl\drivers\peripheral\prot/cy_prot.c **** *
 387:Generated_Source\PSoC6\pdl\drivers\peripheral\prot/cy_prot.c **** * \param base
 388:Generated_Source\PSoC6\pdl\drivers\peripheral\prot/cy_prot.c **** * The base address for the protection unit structure being configured. 
 389:Generated_Source\PSoC6\pdl\drivers\peripheral\prot/cy_prot.c **** *
 390:Generated_Source\PSoC6\pdl\drivers\peripheral\prot/cy_prot.c **** * \return
 391:Generated_Source\PSoC6\pdl\drivers\peripheral\prot/cy_prot.c **** * Status of the function call.
 392:Generated_Source\PSoC6\pdl\drivers\peripheral\prot/cy_prot.c **** *
 393:Generated_Source\PSoC6\pdl\drivers\peripheral\prot/cy_prot.c **** *   Status               | Description
 394:Generated_Source\PSoC6\pdl\drivers\peripheral\prot/cy_prot.c **** *   ------------         | -----------
 395:Generated_Source\PSoC6\pdl\drivers\peripheral\prot/cy_prot.c **** *   CY_PROT_SUCCESS      | The Master PU struct was enabled
 396:Generated_Source\PSoC6\pdl\drivers\peripheral\prot/cy_prot.c **** *   CY_PROT_FAILURE      | The Master PU struct is disabled and possibly locked
 397:Generated_Source\PSoC6\pdl\drivers\peripheral\prot/cy_prot.c **** *  
 398:Generated_Source\PSoC6\pdl\drivers\peripheral\prot/cy_prot.c **** *******************************************************************************/
 399:Generated_Source\PSoC6\pdl\drivers\peripheral\prot/cy_prot.c **** cy_en_prot_status_t Cy_Prot_EnableSmpuMasterStruct(PROT_SMPU_SMPU_STRUCT_Type* base)
 400:Generated_Source\PSoC6\pdl\drivers\peripheral\prot/cy_prot.c **** {
 542              		.loc 1 400 0
 543              		.cfi_startproc
 544              		@ args = 0, pretend = 0, frame = 0
 545              		@ frame_needed = 0, uses_anonymous_args = 0
 546              		@ link register save eliminated.
 547              	.LVL62:
 401:Generated_Source\PSoC6\pdl\drivers\peripheral\prot/cy_prot.c ****     cy_en_prot_status_t status = CY_PROT_SUCCESS;
 402:Generated_Source\PSoC6\pdl\drivers\peripheral\prot/cy_prot.c ****     
 403:Generated_Source\PSoC6\pdl\drivers\peripheral\prot/cy_prot.c ****     base->ATT1 |= _VAL2FLD(PROT_SMPU_SMPU_STRUCT_ATT1_ENABLED, CY_PROT_STRUCT_ENABLE);
 548              		.loc 1 403 0
 549 0000 436A     		ldr	r3, [r0, #36]
 550 0002 43F00043 		orr	r3, r3, #-2147483648
 551 0006 4362     		str	r3, [r0, #36]
 404:Generated_Source\PSoC6\pdl\drivers\peripheral\prot/cy_prot.c ****     status = (_FLD2VAL(PROT_SMPU_SMPU_STRUCT_ATT1_ENABLED, base->ATT1) != CY_PROT_STRUCT_ENABLE) ?
 552              		.loc 1 404 0
 553 0008 436A     		ldr	r3, [r0, #36]
 554 000a 002B     		cmp	r3, #0
ARM GAS  C:\Users\kiwamu\AppData\Local\Temp\ccLfX6Zi.s 			page 18


 555 000c 01DB     		blt	.L49
 556 000e 0248     		ldr	r0, .L50
 557              	.LVL63:
 558 0010 7047     		bx	lr
 559              	.LVL64:
 560              	.L49:
 561 0012 0020     		movs	r0, #0
 562              	.LVL65:
 405:Generated_Source\PSoC6\pdl\drivers\peripheral\prot/cy_prot.c ****                 CY_PROT_FAILURE : CY_PROT_SUCCESS;
 406:Generated_Source\PSoC6\pdl\drivers\peripheral\prot/cy_prot.c ****     
 407:Generated_Source\PSoC6\pdl\drivers\peripheral\prot/cy_prot.c ****     return status;
 408:Generated_Source\PSoC6\pdl\drivers\peripheral\prot/cy_prot.c **** }
 563              		.loc 1 408 0
 564 0014 7047     		bx	lr
 565              	.L51:
 566 0016 00BF     		.align	2
 567              	.L50:
 568 0018 0300C200 		.word	12713987
 569              		.cfi_endproc
 570              	.LFE131:
 571              		.size	Cy_Prot_EnableSmpuMasterStruct, .-Cy_Prot_EnableSmpuMasterStruct
 572              		.section	.text.Cy_Prot_DisableSmpuMasterStruct,"ax",%progbits
 573              		.align	2
 574              		.global	Cy_Prot_DisableSmpuMasterStruct
 575              		.thumb
 576              		.thumb_func
 577              		.type	Cy_Prot_DisableSmpuMasterStruct, %function
 578              	Cy_Prot_DisableSmpuMasterStruct:
 579              	.LFB132:
 409:Generated_Source\PSoC6\pdl\drivers\peripheral\prot/cy_prot.c **** 
 410:Generated_Source\PSoC6\pdl\drivers\peripheral\prot/cy_prot.c **** 
 411:Generated_Source\PSoC6\pdl\drivers\peripheral\prot/cy_prot.c **** /*******************************************************************************
 412:Generated_Source\PSoC6\pdl\drivers\peripheral\prot/cy_prot.c **** * Function Name: Cy_Prot_DisableSmpuMasterStruct
 413:Generated_Source\PSoC6\pdl\drivers\peripheral\prot/cy_prot.c **** ****************************************************************************//**
 414:Generated_Source\PSoC6\pdl\drivers\peripheral\prot/cy_prot.c **** *
 415:Generated_Source\PSoC6\pdl\drivers\peripheral\prot/cy_prot.c **** * \brief Disables the Master SMPU structure.
 416:Generated_Source\PSoC6\pdl\drivers\peripheral\prot/cy_prot.c **** *
 417:Generated_Source\PSoC6\pdl\drivers\peripheral\prot/cy_prot.c **** * This is an SMPU master struct disable function. The SMPU protection settings
 418:Generated_Source\PSoC6\pdl\drivers\peripheral\prot/cy_prot.c **** * will seize to take effect after successful completion of this function call.
 419:Generated_Source\PSoC6\pdl\drivers\peripheral\prot/cy_prot.c **** *
 420:Generated_Source\PSoC6\pdl\drivers\peripheral\prot/cy_prot.c **** * \param base
 421:Generated_Source\PSoC6\pdl\drivers\peripheral\prot/cy_prot.c **** * The base address for the protection unit structure being configured. 
 422:Generated_Source\PSoC6\pdl\drivers\peripheral\prot/cy_prot.c **** *
 423:Generated_Source\PSoC6\pdl\drivers\peripheral\prot/cy_prot.c **** * \return
 424:Generated_Source\PSoC6\pdl\drivers\peripheral\prot/cy_prot.c **** * Status of the function call.
 425:Generated_Source\PSoC6\pdl\drivers\peripheral\prot/cy_prot.c **** *
 426:Generated_Source\PSoC6\pdl\drivers\peripheral\prot/cy_prot.c **** *   Status               | Description
 427:Generated_Source\PSoC6\pdl\drivers\peripheral\prot/cy_prot.c **** *   ------------         | -----------
 428:Generated_Source\PSoC6\pdl\drivers\peripheral\prot/cy_prot.c **** *   CY_PROT_SUCCESS      | The Master PU struct was disabled
 429:Generated_Source\PSoC6\pdl\drivers\peripheral\prot/cy_prot.c **** *   CY_PROT_FAILURE      | The Master PU struct is enabled and possibly locked
 430:Generated_Source\PSoC6\pdl\drivers\peripheral\prot/cy_prot.c **** *  
 431:Generated_Source\PSoC6\pdl\drivers\peripheral\prot/cy_prot.c **** *******************************************************************************/
 432:Generated_Source\PSoC6\pdl\drivers\peripheral\prot/cy_prot.c **** cy_en_prot_status_t Cy_Prot_DisableSmpuMasterStruct(PROT_SMPU_SMPU_STRUCT_Type* base)
 433:Generated_Source\PSoC6\pdl\drivers\peripheral\prot/cy_prot.c **** {
 580              		.loc 1 433 0
 581              		.cfi_startproc
 582              		@ args = 0, pretend = 0, frame = 0
ARM GAS  C:\Users\kiwamu\AppData\Local\Temp\ccLfX6Zi.s 			page 19


 583              		@ frame_needed = 0, uses_anonymous_args = 0
 584              		@ link register save eliminated.
 585              	.LVL66:
 434:Generated_Source\PSoC6\pdl\drivers\peripheral\prot/cy_prot.c ****     cy_en_prot_status_t status = CY_PROT_SUCCESS;
 435:Generated_Source\PSoC6\pdl\drivers\peripheral\prot/cy_prot.c ****     
 436:Generated_Source\PSoC6\pdl\drivers\peripheral\prot/cy_prot.c ****     base->ATT1 &= ~_VAL2FLD(PROT_SMPU_SMPU_STRUCT_ATT1_ENABLED, CY_PROT_STRUCT_ENABLE);
 586              		.loc 1 436 0
 587 0000 436A     		ldr	r3, [r0, #36]
 588 0002 23F00043 		bic	r3, r3, #-2147483648
 589 0006 4362     		str	r3, [r0, #36]
 437:Generated_Source\PSoC6\pdl\drivers\peripheral\prot/cy_prot.c ****     status = (_FLD2VAL(PROT_SMPU_SMPU_STRUCT_ATT1_ENABLED, base->ATT1) == CY_PROT_STRUCT_ENABLE) ?
 590              		.loc 1 437 0
 591 0008 436A     		ldr	r3, [r0, #36]
 592 000a 002B     		cmp	r3, #0
 593 000c 01DA     		bge	.L54
 594 000e 0248     		ldr	r0, .L55
 595              	.LVL67:
 596 0010 7047     		bx	lr
 597              	.LVL68:
 598              	.L54:
 599 0012 0020     		movs	r0, #0
 600              	.LVL69:
 438:Generated_Source\PSoC6\pdl\drivers\peripheral\prot/cy_prot.c ****                 CY_PROT_FAILURE : CY_PROT_SUCCESS;
 439:Generated_Source\PSoC6\pdl\drivers\peripheral\prot/cy_prot.c ****     
 440:Generated_Source\PSoC6\pdl\drivers\peripheral\prot/cy_prot.c ****     return status;
 441:Generated_Source\PSoC6\pdl\drivers\peripheral\prot/cy_prot.c **** }
 601              		.loc 1 441 0
 602 0014 7047     		bx	lr
 603              	.L56:
 604 0016 00BF     		.align	2
 605              	.L55:
 606 0018 0300C200 		.word	12713987
 607              		.cfi_endproc
 608              	.LFE132:
 609              		.size	Cy_Prot_DisableSmpuMasterStruct, .-Cy_Prot_DisableSmpuMasterStruct
 610              		.section	.text.Cy_Prot_EnableSmpuSlaveStruct,"ax",%progbits
 611              		.align	2
 612              		.global	Cy_Prot_EnableSmpuSlaveStruct
 613              		.thumb
 614              		.thumb_func
 615              		.type	Cy_Prot_EnableSmpuSlaveStruct, %function
 616              	Cy_Prot_EnableSmpuSlaveStruct:
 617              	.LFB133:
 442:Generated_Source\PSoC6\pdl\drivers\peripheral\prot/cy_prot.c **** 
 443:Generated_Source\PSoC6\pdl\drivers\peripheral\prot/cy_prot.c **** 
 444:Generated_Source\PSoC6\pdl\drivers\peripheral\prot/cy_prot.c **** /*******************************************************************************
 445:Generated_Source\PSoC6\pdl\drivers\peripheral\prot/cy_prot.c **** * Function Name: Cy_Prot_EnableSmpuSlaveStruct
 446:Generated_Source\PSoC6\pdl\drivers\peripheral\prot/cy_prot.c **** ****************************************************************************//**
 447:Generated_Source\PSoC6\pdl\drivers\peripheral\prot/cy_prot.c **** *
 448:Generated_Source\PSoC6\pdl\drivers\peripheral\prot/cy_prot.c **** * \brief Enables the Slave SMPU structure.
 449:Generated_Source\PSoC6\pdl\drivers\peripheral\prot/cy_prot.c **** *
 450:Generated_Source\PSoC6\pdl\drivers\peripheral\prot/cy_prot.c **** * This is an SMPU slave struct enable function. The SMPU protection settings
 451:Generated_Source\PSoC6\pdl\drivers\peripheral\prot/cy_prot.c **** * will take effect after successful completion of this function call.
 452:Generated_Source\PSoC6\pdl\drivers\peripheral\prot/cy_prot.c **** *
 453:Generated_Source\PSoC6\pdl\drivers\peripheral\prot/cy_prot.c **** * \param base
 454:Generated_Source\PSoC6\pdl\drivers\peripheral\prot/cy_prot.c **** * The base address for the protection unit structure being configured. 
 455:Generated_Source\PSoC6\pdl\drivers\peripheral\prot/cy_prot.c **** *
ARM GAS  C:\Users\kiwamu\AppData\Local\Temp\ccLfX6Zi.s 			page 20


 456:Generated_Source\PSoC6\pdl\drivers\peripheral\prot/cy_prot.c **** * \return
 457:Generated_Source\PSoC6\pdl\drivers\peripheral\prot/cy_prot.c **** * Status of the function call.
 458:Generated_Source\PSoC6\pdl\drivers\peripheral\prot/cy_prot.c **** *
 459:Generated_Source\PSoC6\pdl\drivers\peripheral\prot/cy_prot.c **** *   Status               | Description
 460:Generated_Source\PSoC6\pdl\drivers\peripheral\prot/cy_prot.c **** *   ------------         | -----------
 461:Generated_Source\PSoC6\pdl\drivers\peripheral\prot/cy_prot.c **** *   CY_PROT_SUCCESS      | The Slave PU struct was enabled
 462:Generated_Source\PSoC6\pdl\drivers\peripheral\prot/cy_prot.c **** *   CY_PROT_FAILURE      | The Slave PU struct is disabled and possibly locked
 463:Generated_Source\PSoC6\pdl\drivers\peripheral\prot/cy_prot.c **** *  
 464:Generated_Source\PSoC6\pdl\drivers\peripheral\prot/cy_prot.c **** *******************************************************************************/
 465:Generated_Source\PSoC6\pdl\drivers\peripheral\prot/cy_prot.c **** cy_en_prot_status_t Cy_Prot_EnableSmpuSlaveStruct(PROT_SMPU_SMPU_STRUCT_Type* base)
 466:Generated_Source\PSoC6\pdl\drivers\peripheral\prot/cy_prot.c **** {   
 618              		.loc 1 466 0
 619              		.cfi_startproc
 620              		@ args = 0, pretend = 0, frame = 0
 621              		@ frame_needed = 0, uses_anonymous_args = 0
 622              		@ link register save eliminated.
 623              	.LVL70:
 467:Generated_Source\PSoC6\pdl\drivers\peripheral\prot/cy_prot.c ****     cy_en_prot_status_t status = CY_PROT_SUCCESS;
 468:Generated_Source\PSoC6\pdl\drivers\peripheral\prot/cy_prot.c ****     
 469:Generated_Source\PSoC6\pdl\drivers\peripheral\prot/cy_prot.c ****     base->ATT0 |= _VAL2FLD(PROT_SMPU_SMPU_STRUCT_ATT0_ENABLED, CY_PROT_STRUCT_ENABLE);
 624              		.loc 1 469 0
 625 0000 4368     		ldr	r3, [r0, #4]
 626 0002 43F00043 		orr	r3, r3, #-2147483648
 627 0006 4360     		str	r3, [r0, #4]
 470:Generated_Source\PSoC6\pdl\drivers\peripheral\prot/cy_prot.c ****     status = (_FLD2VAL(PROT_SMPU_SMPU_STRUCT_ATT0_ENABLED, base->ATT0) != CY_PROT_STRUCT_ENABLE) ?
 628              		.loc 1 470 0
 629 0008 4368     		ldr	r3, [r0, #4]
 630 000a 002B     		cmp	r3, #0
 631 000c 01DB     		blt	.L59
 632 000e 0248     		ldr	r0, .L60
 633              	.LVL71:
 634 0010 7047     		bx	lr
 635              	.LVL72:
 636              	.L59:
 637 0012 0020     		movs	r0, #0
 638              	.LVL73:
 471:Generated_Source\PSoC6\pdl\drivers\peripheral\prot/cy_prot.c ****                 CY_PROT_FAILURE : CY_PROT_SUCCESS;
 472:Generated_Source\PSoC6\pdl\drivers\peripheral\prot/cy_prot.c ****     
 473:Generated_Source\PSoC6\pdl\drivers\peripheral\prot/cy_prot.c ****     return status;
 474:Generated_Source\PSoC6\pdl\drivers\peripheral\prot/cy_prot.c **** }
 639              		.loc 1 474 0
 640 0014 7047     		bx	lr
 641              	.L61:
 642 0016 00BF     		.align	2
 643              	.L60:
 644 0018 0300C200 		.word	12713987
 645              		.cfi_endproc
 646              	.LFE133:
 647              		.size	Cy_Prot_EnableSmpuSlaveStruct, .-Cy_Prot_EnableSmpuSlaveStruct
 648              		.section	.text.Cy_Prot_DisableSmpuSlaveStruct,"ax",%progbits
 649              		.align	2
 650              		.global	Cy_Prot_DisableSmpuSlaveStruct
 651              		.thumb
 652              		.thumb_func
 653              		.type	Cy_Prot_DisableSmpuSlaveStruct, %function
 654              	Cy_Prot_DisableSmpuSlaveStruct:
 655              	.LFB134:
ARM GAS  C:\Users\kiwamu\AppData\Local\Temp\ccLfX6Zi.s 			page 21


 475:Generated_Source\PSoC6\pdl\drivers\peripheral\prot/cy_prot.c **** 
 476:Generated_Source\PSoC6\pdl\drivers\peripheral\prot/cy_prot.c **** 
 477:Generated_Source\PSoC6\pdl\drivers\peripheral\prot/cy_prot.c **** /*******************************************************************************
 478:Generated_Source\PSoC6\pdl\drivers\peripheral\prot/cy_prot.c **** * Function Name: Cy_Prot_DisableSmpuSlaveStruct
 479:Generated_Source\PSoC6\pdl\drivers\peripheral\prot/cy_prot.c **** ****************************************************************************//**
 480:Generated_Source\PSoC6\pdl\drivers\peripheral\prot/cy_prot.c **** *
 481:Generated_Source\PSoC6\pdl\drivers\peripheral\prot/cy_prot.c **** * \brief Disables the Slave SMPU structure.
 482:Generated_Source\PSoC6\pdl\drivers\peripheral\prot/cy_prot.c **** *
 483:Generated_Source\PSoC6\pdl\drivers\peripheral\prot/cy_prot.c **** * This is an SMPU slave struct disable function. The SMPU protection settings
 484:Generated_Source\PSoC6\pdl\drivers\peripheral\prot/cy_prot.c **** * will seize to take effect after successful completion of this function call.
 485:Generated_Source\PSoC6\pdl\drivers\peripheral\prot/cy_prot.c **** *
 486:Generated_Source\PSoC6\pdl\drivers\peripheral\prot/cy_prot.c **** * \param base
 487:Generated_Source\PSoC6\pdl\drivers\peripheral\prot/cy_prot.c **** * The base address for the protection unit structure being configured. 
 488:Generated_Source\PSoC6\pdl\drivers\peripheral\prot/cy_prot.c **** *
 489:Generated_Source\PSoC6\pdl\drivers\peripheral\prot/cy_prot.c **** * \return
 490:Generated_Source\PSoC6\pdl\drivers\peripheral\prot/cy_prot.c **** * Status of the function call.
 491:Generated_Source\PSoC6\pdl\drivers\peripheral\prot/cy_prot.c **** *
 492:Generated_Source\PSoC6\pdl\drivers\peripheral\prot/cy_prot.c **** *   Status               | Description
 493:Generated_Source\PSoC6\pdl\drivers\peripheral\prot/cy_prot.c **** *   ------------         | -----------
 494:Generated_Source\PSoC6\pdl\drivers\peripheral\prot/cy_prot.c **** *   CY_PROT_SUCCESS      | The Slave PU struct was disabled
 495:Generated_Source\PSoC6\pdl\drivers\peripheral\prot/cy_prot.c **** *   CY_PROT_FAILURE      | The Slave PU struct is enabled and possibly locked
 496:Generated_Source\PSoC6\pdl\drivers\peripheral\prot/cy_prot.c **** *  
 497:Generated_Source\PSoC6\pdl\drivers\peripheral\prot/cy_prot.c **** *******************************************************************************/
 498:Generated_Source\PSoC6\pdl\drivers\peripheral\prot/cy_prot.c **** cy_en_prot_status_t Cy_Prot_DisableSmpuSlaveStruct(PROT_SMPU_SMPU_STRUCT_Type* base)
 499:Generated_Source\PSoC6\pdl\drivers\peripheral\prot/cy_prot.c **** {
 656              		.loc 1 499 0
 657              		.cfi_startproc
 658              		@ args = 0, pretend = 0, frame = 0
 659              		@ frame_needed = 0, uses_anonymous_args = 0
 660              		@ link register save eliminated.
 661              	.LVL74:
 500:Generated_Source\PSoC6\pdl\drivers\peripheral\prot/cy_prot.c ****     cy_en_prot_status_t status = CY_PROT_SUCCESS;
 501:Generated_Source\PSoC6\pdl\drivers\peripheral\prot/cy_prot.c ****     
 502:Generated_Source\PSoC6\pdl\drivers\peripheral\prot/cy_prot.c ****     base->ATT0 &= ~_VAL2FLD(PROT_SMPU_SMPU_STRUCT_ATT0_ENABLED, CY_PROT_STRUCT_ENABLE);
 662              		.loc 1 502 0
 663 0000 4368     		ldr	r3, [r0, #4]
 664 0002 23F00043 		bic	r3, r3, #-2147483648
 665 0006 4360     		str	r3, [r0, #4]
 503:Generated_Source\PSoC6\pdl\drivers\peripheral\prot/cy_prot.c ****     status = (_FLD2VAL(PROT_SMPU_SMPU_STRUCT_ATT0_ENABLED, base->ATT0) == CY_PROT_STRUCT_ENABLE) ?
 666              		.loc 1 503 0
 667 0008 4368     		ldr	r3, [r0, #4]
 668 000a 002B     		cmp	r3, #0
 669 000c 01DA     		bge	.L64
 670 000e 0248     		ldr	r0, .L65
 671              	.LVL75:
 672 0010 7047     		bx	lr
 673              	.LVL76:
 674              	.L64:
 675 0012 0020     		movs	r0, #0
 676              	.LVL77:
 504:Generated_Source\PSoC6\pdl\drivers\peripheral\prot/cy_prot.c ****                 CY_PROT_FAILURE : CY_PROT_SUCCESS;
 505:Generated_Source\PSoC6\pdl\drivers\peripheral\prot/cy_prot.c ****     
 506:Generated_Source\PSoC6\pdl\drivers\peripheral\prot/cy_prot.c ****     return status;
 507:Generated_Source\PSoC6\pdl\drivers\peripheral\prot/cy_prot.c **** }
 677              		.loc 1 507 0
 678 0014 7047     		bx	lr
 679              	.L66:
ARM GAS  C:\Users\kiwamu\AppData\Local\Temp\ccLfX6Zi.s 			page 22


 680 0016 00BF     		.align	2
 681              	.L65:
 682 0018 0300C200 		.word	12713987
 683              		.cfi_endproc
 684              	.LFE134:
 685              		.size	Cy_Prot_DisableSmpuSlaveStruct, .-Cy_Prot_DisableSmpuSlaveStruct
 686              		.section	.text.Cy_Prot_ConfigPpuProgMasterStruct,"ax",%progbits
 687              		.align	2
 688              		.global	Cy_Prot_ConfigPpuProgMasterStruct
 689              		.thumb
 690              		.thumb_func
 691              		.type	Cy_Prot_ConfigPpuProgMasterStruct, %function
 692              	Cy_Prot_ConfigPpuProgMasterStruct:
 693              	.LFB135:
 508:Generated_Source\PSoC6\pdl\drivers\peripheral\prot/cy_prot.c **** 
 509:Generated_Source\PSoC6\pdl\drivers\peripheral\prot/cy_prot.c **** 
 510:Generated_Source\PSoC6\pdl\drivers\peripheral\prot/cy_prot.c **** /*******************************************************************************
 511:Generated_Source\PSoC6\pdl\drivers\peripheral\prot/cy_prot.c **** * Function Name: Cy_Prot_ConfigPpuProgMasterStruct
 512:Generated_Source\PSoC6\pdl\drivers\peripheral\prot/cy_prot.c **** ****************************************************************************//**
 513:Generated_Source\PSoC6\pdl\drivers\peripheral\prot/cy_prot.c **** *
 514:Generated_Source\PSoC6\pdl\drivers\peripheral\prot/cy_prot.c **** * \brief Configures a Programmable Peripheral Protection Unit (PPU PROG) master 
 515:Generated_Source\PSoC6\pdl\drivers\peripheral\prot/cy_prot.c **** * protection struct with its protection attributes. 
 516:Generated_Source\PSoC6\pdl\drivers\peripheral\prot/cy_prot.c **** *
 517:Generated_Source\PSoC6\pdl\drivers\peripheral\prot/cy_prot.c **** * This function configures the master struct governing the corresponding slave
 518:Generated_Source\PSoC6\pdl\drivers\peripheral\prot/cy_prot.c **** * struct pair. It is a mechanism to protect the slave PPU PROG struct. Since
 519:Generated_Source\PSoC6\pdl\drivers\peripheral\prot/cy_prot.c **** * the memory location of the slave struct is known, the address, regionSize and
 520:Generated_Source\PSoC6\pdl\drivers\peripheral\prot/cy_prot.c **** * subregions of the configuration struct are not applicable.
 521:Generated_Source\PSoC6\pdl\drivers\peripheral\prot/cy_prot.c **** *
 522:Generated_Source\PSoC6\pdl\drivers\peripheral\prot/cy_prot.c **** * Note that only the user/privileged write permissions are configurable. The 
 523:Generated_Source\PSoC6\pdl\drivers\peripheral\prot/cy_prot.c **** * read and execute permissions are read-only and cannot be configured.
 524:Generated_Source\PSoC6\pdl\drivers\peripheral\prot/cy_prot.c **** *
 525:Generated_Source\PSoC6\pdl\drivers\peripheral\prot/cy_prot.c **** * \param base
 526:Generated_Source\PSoC6\pdl\drivers\peripheral\prot/cy_prot.c **** * The register base address of the protection struct being configured.
 527:Generated_Source\PSoC6\pdl\drivers\peripheral\prot/cy_prot.c **** * 
 528:Generated_Source\PSoC6\pdl\drivers\peripheral\prot/cy_prot.c **** * \param config
 529:Generated_Source\PSoC6\pdl\drivers\peripheral\prot/cy_prot.c **** * Initialization structure with all the protection attributes.
 530:Generated_Source\PSoC6\pdl\drivers\peripheral\prot/cy_prot.c **** * 
 531:Generated_Source\PSoC6\pdl\drivers\peripheral\prot/cy_prot.c **** * \return
 532:Generated_Source\PSoC6\pdl\drivers\peripheral\prot/cy_prot.c **** * Status of the function call.
 533:Generated_Source\PSoC6\pdl\drivers\peripheral\prot/cy_prot.c **** *
 534:Generated_Source\PSoC6\pdl\drivers\peripheral\prot/cy_prot.c **** *   Status               | Description
 535:Generated_Source\PSoC6\pdl\drivers\peripheral\prot/cy_prot.c **** *   ------------         | -----------
 536:Generated_Source\PSoC6\pdl\drivers\peripheral\prot/cy_prot.c **** *   CY_PROT_SUCCESS      | PPU PROG master struct was successfully configured
 537:Generated_Source\PSoC6\pdl\drivers\peripheral\prot/cy_prot.c **** *   CY_PROT_FAILURE      | The resource is locked
 538:Generated_Source\PSoC6\pdl\drivers\peripheral\prot/cy_prot.c **** *   CY_PROT_BAD_PARAM    | An incorrect/invalid parameter was passed
 539:Generated_Source\PSoC6\pdl\drivers\peripheral\prot/cy_prot.c **** *  
 540:Generated_Source\PSoC6\pdl\drivers\peripheral\prot/cy_prot.c **** *******************************************************************************/
 541:Generated_Source\PSoC6\pdl\drivers\peripheral\prot/cy_prot.c **** cy_en_prot_status_t Cy_Prot_ConfigPpuProgMasterStruct(PERI_PPU_PR_Type* base, const cy_stc_ppu_prog
 542:Generated_Source\PSoC6\pdl\drivers\peripheral\prot/cy_prot.c **** {
 694              		.loc 1 542 0
 695              		.cfi_startproc
 696              		@ args = 0, pretend = 0, frame = 0
 697              		@ frame_needed = 0, uses_anonymous_args = 0
 698              		@ link register save eliminated.
 699              	.LVL78:
 700 0000 10B4     		push	{r4}
 701              		.cfi_def_cfa_offset 4
ARM GAS  C:\Users\kiwamu\AppData\Local\Temp\ccLfX6Zi.s 			page 23


 702              		.cfi_offset 4, -4
 703              	.LVL79:
 543:Generated_Source\PSoC6\pdl\drivers\peripheral\prot/cy_prot.c ****     cy_en_prot_status_t status = CY_PROT_SUCCESS;
 544:Generated_Source\PSoC6\pdl\drivers\peripheral\prot/cy_prot.c ****     uint32_t attReg;
 545:Generated_Source\PSoC6\pdl\drivers\peripheral\prot/cy_prot.c ****     
 546:Generated_Source\PSoC6\pdl\drivers\peripheral\prot/cy_prot.c ****     if(((uint32_t)config->pcMask & CY_PROT_PPU_PROG_PC_LIMIT_MASK) != 0UL) 
 704              		.loc 1 546 0
 705 0002 4C89     		ldrh	r4, [r1, #10]
 706 0004 34F07F03 		bics	r3, r4, #127
 707 0008 23D1     		bne	.L69
 547:Generated_Source\PSoC6\pdl\drivers\peripheral\prot/cy_prot.c ****     {
 548:Generated_Source\PSoC6\pdl\drivers\peripheral\prot/cy_prot.c ****         /* PC mask out of range - not supported in device */
 549:Generated_Source\PSoC6\pdl\drivers\peripheral\prot/cy_prot.c ****         status = CY_PROT_BAD_PARAM;
 550:Generated_Source\PSoC6\pdl\drivers\peripheral\prot/cy_prot.c ****     }
 551:Generated_Source\PSoC6\pdl\drivers\peripheral\prot/cy_prot.c ****     else
 552:Generated_Source\PSoC6\pdl\drivers\peripheral\prot/cy_prot.c ****     {
 553:Generated_Source\PSoC6\pdl\drivers\peripheral\prot/cy_prot.c ****         /* ADDR1 is read only. Only configure ATT1 */
 554:Generated_Source\PSoC6\pdl\drivers\peripheral\prot/cy_prot.c ****         attReg = ((uint32_t)config->userPermission & CY_PROT_ATT_PERMISSION_MASK)
 708              		.loc 1 554 0
 709 000a 8B79     		ldrb	r3, [r1, #6]	@ zero_extendqisi2
 710 000c 03F00703 		and	r3, r3, #7
 555:Generated_Source\PSoC6\pdl\drivers\peripheral\prot/cy_prot.c ****                     | (uint32_t)(((uint32_t)config->privPermission & CY_PROT_ATT_PERMISSION_MASK) <
 711              		.loc 1 555 0
 712 0010 CA79     		ldrb	r2, [r1, #7]	@ zero_extendqisi2
 713 0012 D200     		lsls	r2, r2, #3
 714 0014 02F03802 		and	r2, r2, #56
 715 0018 1343     		orrs	r3, r3, r2
 556:Generated_Source\PSoC6\pdl\drivers\peripheral\prot/cy_prot.c ****                     | _VAL2FLD(PERI_PPU_PR_ATT1_NS, !(config->secure))
 716              		.loc 1 556 0
 717 001a 0A7A     		ldrb	r2, [r1, #8]	@ zero_extendqisi2
 718 001c 82F00102 		eor	r2, r2, #1
 719 0020 9201     		lsls	r2, r2, #6
 720 0022 02F04002 		and	r2, r2, #64
 721 0026 1343     		orrs	r3, r3, r2
 557:Generated_Source\PSoC6\pdl\drivers\peripheral\prot/cy_prot.c ****                     | _VAL2FLD(PERI_PPU_PR_ATT1_PC_MASK_15_TO_1, config->pcMask)
 722              		.loc 1 557 0
 723 0028 0E4A     		ldr	r2, .L73
 724 002a 02EA4424 		and	r4, r2, r4, lsl #9
 725 002e 2343     		orrs	r3, r3, r4
 558:Generated_Source\PSoC6\pdl\drivers\peripheral\prot/cy_prot.c ****                     /* No region size - read only for master structs */
 559:Generated_Source\PSoC6\pdl\drivers\peripheral\prot/cy_prot.c ****                     | _VAL2FLD(PERI_PPU_PR_ATT1_PC_MATCH, config->pcMatch);
 726              		.loc 1 559 0
 727 0030 4A7A     		ldrb	r2, [r1, #9]	@ zero_extendqisi2
 728 0032 9207     		lsls	r2, r2, #30
 729 0034 02F08042 		and	r2, r2, #1073741824
 554:Generated_Source\PSoC6\pdl\drivers\peripheral\prot/cy_prot.c ****                     | (uint32_t)(((uint32_t)config->privPermission & CY_PROT_ATT_PERMISSION_MASK) <
 730              		.loc 1 554 0
 731 0038 1343     		orrs	r3, r3, r2
 732              	.LVL80:
 560:Generated_Source\PSoC6\pdl\drivers\peripheral\prot/cy_prot.c ****         if ((attReg & CY_PROT_PPU_PROG_ATT1_MASK) != attReg)
 733              		.loc 1 560 0
 734 003a 0B4A     		ldr	r2, .L73+4
 735 003c 1A40     		ands	r2, r2, r3
 736 003e 9342     		cmp	r3, r2
 737 0040 09D1     		bne	.L70
 561:Generated_Source\PSoC6\pdl\drivers\peripheral\prot/cy_prot.c ****         {
 562:Generated_Source\PSoC6\pdl\drivers\peripheral\prot/cy_prot.c ****             /* Invalid parameter was passed */
ARM GAS  C:\Users\kiwamu\AppData\Local\Temp\ccLfX6Zi.s 			page 24


 563:Generated_Source\PSoC6\pdl\drivers\peripheral\prot/cy_prot.c ****             status = CY_PROT_BAD_PARAM;
 564:Generated_Source\PSoC6\pdl\drivers\peripheral\prot/cy_prot.c ****         }
 565:Generated_Source\PSoC6\pdl\drivers\peripheral\prot/cy_prot.c ****         else
 566:Generated_Source\PSoC6\pdl\drivers\peripheral\prot/cy_prot.c ****         {
 567:Generated_Source\PSoC6\pdl\drivers\peripheral\prot/cy_prot.c ****             base->ATT1 = attReg;
 738              		.loc 1 567 0
 739 0042 4362     		str	r3, [r0, #36]
 568:Generated_Source\PSoC6\pdl\drivers\peripheral\prot/cy_prot.c ****             status = ((base->ATT1 & CY_PROT_PPU_PROG_ATT1_MASK) != attReg) ? CY_PROT_FAILURE : CY_P
 740              		.loc 1 568 0
 741 0044 416A     		ldr	r1, [r0, #36]
 742              	.LVL81:
 743 0046 094A     		ldr	r2, .L73+8
 744 0048 0A40     		ands	r2, r2, r1
 745 004a 9342     		cmp	r3, r2
 746 004c 05D0     		beq	.L71
 747 004e 0848     		ldr	r0, .L73+12
 748              	.LVL82:
 749 0050 04E0     		b	.L68
 750              	.LVL83:
 751              	.L69:
 549:Generated_Source\PSoC6\pdl\drivers\peripheral\prot/cy_prot.c ****     }
 752              		.loc 1 549 0
 753 0052 0848     		ldr	r0, .L73+16
 754              	.LVL84:
 755 0054 02E0     		b	.L68
 756              	.LVL85:
 757              	.L70:
 563:Generated_Source\PSoC6\pdl\drivers\peripheral\prot/cy_prot.c ****         }
 758              		.loc 1 563 0
 759 0056 0748     		ldr	r0, .L73+16
 760              	.LVL86:
 761 0058 00E0     		b	.L68
 762              	.LVL87:
 763              	.L71:
 764              		.loc 1 568 0
 765 005a 0020     		movs	r0, #0
 766              	.LVL88:
 767              	.L68:
 569:Generated_Source\PSoC6\pdl\drivers\peripheral\prot/cy_prot.c ****         }
 570:Generated_Source\PSoC6\pdl\drivers\peripheral\prot/cy_prot.c ****     }
 571:Generated_Source\PSoC6\pdl\drivers\peripheral\prot/cy_prot.c **** 
 572:Generated_Source\PSoC6\pdl\drivers\peripheral\prot/cy_prot.c ****     return status;
 573:Generated_Source\PSoC6\pdl\drivers\peripheral\prot/cy_prot.c **** }
 768              		.loc 1 573 0
 769 005c 5DF8044B 		ldr	r4, [sp], #4
 770              		.cfi_restore 4
 771              		.cfi_def_cfa_offset 0
 772 0060 7047     		bx	lr
 773              	.L74:
 774 0062 00BF     		.align	2
 775              	.L73:
 776 0064 00FEFF00 		.word	16776704
 777 0068 52FEFF40 		.word	1090518610
 778 006c D2FEFFE0 		.word	-520093998
 779 0070 0300C200 		.word	12713987
 780 0074 0100C200 		.word	12713985
 781              		.cfi_endproc
ARM GAS  C:\Users\kiwamu\AppData\Local\Temp\ccLfX6Zi.s 			page 25


 782              	.LFE135:
 783              		.size	Cy_Prot_ConfigPpuProgMasterStruct, .-Cy_Prot_ConfigPpuProgMasterStruct
 784              		.section	.text.Cy_Prot_ConfigPpuProgSlaveStruct,"ax",%progbits
 785              		.align	2
 786              		.global	Cy_Prot_ConfigPpuProgSlaveStruct
 787              		.thumb
 788              		.thumb_func
 789              		.type	Cy_Prot_ConfigPpuProgSlaveStruct, %function
 790              	Cy_Prot_ConfigPpuProgSlaveStruct:
 791              	.LFB136:
 574:Generated_Source\PSoC6\pdl\drivers\peripheral\prot/cy_prot.c **** 
 575:Generated_Source\PSoC6\pdl\drivers\peripheral\prot/cy_prot.c **** /*******************************************************************************
 576:Generated_Source\PSoC6\pdl\drivers\peripheral\prot/cy_prot.c **** * Function Name: Cy_Prot_ConfigPpuProgSlaveStruct
 577:Generated_Source\PSoC6\pdl\drivers\peripheral\prot/cy_prot.c **** ****************************************************************************//**
 578:Generated_Source\PSoC6\pdl\drivers\peripheral\prot/cy_prot.c **** *
 579:Generated_Source\PSoC6\pdl\drivers\peripheral\prot/cy_prot.c **** * \brief Configures a Programmable Peripheral Protection Unit (PPU PROG) slave
 580:Generated_Source\PSoC6\pdl\drivers\peripheral\prot/cy_prot.c **** * protection struct with its protection attributes. 
 581:Generated_Source\PSoC6\pdl\drivers\peripheral\prot/cy_prot.c **** * 
 582:Generated_Source\PSoC6\pdl\drivers\peripheral\prot/cy_prot.c **** * This function configures the slave struct of a PPU PROG pair, which can 
 583:Generated_Source\PSoC6\pdl\drivers\peripheral\prot/cy_prot.c **** * protect any peripheral memory region in a device from invalid bus master 
 584:Generated_Source\PSoC6\pdl\drivers\peripheral\prot/cy_prot.c **** * accesses.
 585:Generated_Source\PSoC6\pdl\drivers\peripheral\prot/cy_prot.c **** *
 586:Generated_Source\PSoC6\pdl\drivers\peripheral\prot/cy_prot.c **** * Note that the user/privileged execute accesses are read-only and are always 
 587:Generated_Source\PSoC6\pdl\drivers\peripheral\prot/cy_prot.c **** * enabled. 
 588:Generated_Source\PSoC6\pdl\drivers\peripheral\prot/cy_prot.c **** *
 589:Generated_Source\PSoC6\pdl\drivers\peripheral\prot/cy_prot.c **** * \param base
 590:Generated_Source\PSoC6\pdl\drivers\peripheral\prot/cy_prot.c **** * The register base address of the protection structure being configured.
 591:Generated_Source\PSoC6\pdl\drivers\peripheral\prot/cy_prot.c **** * 
 592:Generated_Source\PSoC6\pdl\drivers\peripheral\prot/cy_prot.c **** * \param config
 593:Generated_Source\PSoC6\pdl\drivers\peripheral\prot/cy_prot.c **** * Initialization structure with all the protection attributes.
 594:Generated_Source\PSoC6\pdl\drivers\peripheral\prot/cy_prot.c **** * 
 595:Generated_Source\PSoC6\pdl\drivers\peripheral\prot/cy_prot.c **** * \return
 596:Generated_Source\PSoC6\pdl\drivers\peripheral\prot/cy_prot.c **** * Status of the function call.
 597:Generated_Source\PSoC6\pdl\drivers\peripheral\prot/cy_prot.c **** *
 598:Generated_Source\PSoC6\pdl\drivers\peripheral\prot/cy_prot.c **** *   Status               | Description
 599:Generated_Source\PSoC6\pdl\drivers\peripheral\prot/cy_prot.c **** *   ------------         | -----------
 600:Generated_Source\PSoC6\pdl\drivers\peripheral\prot/cy_prot.c **** *   CY_PROT_SUCCESS      | PPU PROG slave struct was successfully configured
 601:Generated_Source\PSoC6\pdl\drivers\peripheral\prot/cy_prot.c **** *   CY_PROT_FAILURE      | The resource is locked
 602:Generated_Source\PSoC6\pdl\drivers\peripheral\prot/cy_prot.c **** *   CY_PROT_BAD_PARAM    | An incorrect/invalid parameter was passed
 603:Generated_Source\PSoC6\pdl\drivers\peripheral\prot/cy_prot.c **** *  
 604:Generated_Source\PSoC6\pdl\drivers\peripheral\prot/cy_prot.c **** *******************************************************************************/
 605:Generated_Source\PSoC6\pdl\drivers\peripheral\prot/cy_prot.c **** cy_en_prot_status_t Cy_Prot_ConfigPpuProgSlaveStruct(PERI_PPU_PR_Type* base, const cy_stc_ppu_prog_
 606:Generated_Source\PSoC6\pdl\drivers\peripheral\prot/cy_prot.c **** {
 792              		.loc 1 606 0
 793              		.cfi_startproc
 794              		@ args = 0, pretend = 0, frame = 0
 795              		@ frame_needed = 0, uses_anonymous_args = 0
 796              		@ link register save eliminated.
 797              	.LVL89:
 798 0000 30B4     		push	{r4, r5}
 799              		.cfi_def_cfa_offset 8
 800              		.cfi_offset 4, -8
 801              		.cfi_offset 5, -4
 802              	.LVL90:
 607:Generated_Source\PSoC6\pdl\drivers\peripheral\prot/cy_prot.c ****     cy_en_prot_status_t status = CY_PROT_SUCCESS;
 608:Generated_Source\PSoC6\pdl\drivers\peripheral\prot/cy_prot.c ****     uint32_t addrReg;
 609:Generated_Source\PSoC6\pdl\drivers\peripheral\prot/cy_prot.c ****     uint32_t attReg;
ARM GAS  C:\Users\kiwamu\AppData\Local\Temp\ccLfX6Zi.s 			page 26


 610:Generated_Source\PSoC6\pdl\drivers\peripheral\prot/cy_prot.c ****     
 611:Generated_Source\PSoC6\pdl\drivers\peripheral\prot/cy_prot.c ****     if(((uint32_t)config->pcMask & CY_PROT_PPU_PROG_PC_LIMIT_MASK) != 0UL) 
 803              		.loc 1 611 0
 804 0002 4D89     		ldrh	r5, [r1, #10]
 805 0004 35F07F03 		bics	r3, r5, #127
 806 0008 30D1     		bne	.L77
 612:Generated_Source\PSoC6\pdl\drivers\peripheral\prot/cy_prot.c ****     {
 613:Generated_Source\PSoC6\pdl\drivers\peripheral\prot/cy_prot.c ****         /* PC mask out of range - not supported in device */
 614:Generated_Source\PSoC6\pdl\drivers\peripheral\prot/cy_prot.c ****         status = CY_PROT_BAD_PARAM;
 615:Generated_Source\PSoC6\pdl\drivers\peripheral\prot/cy_prot.c ****     }
 616:Generated_Source\PSoC6\pdl\drivers\peripheral\prot/cy_prot.c ****     else
 617:Generated_Source\PSoC6\pdl\drivers\peripheral\prot/cy_prot.c ****     {
 618:Generated_Source\PSoC6\pdl\drivers\peripheral\prot/cy_prot.c ****         addrReg= _VAL2FLD(PERI_PPU_PR_ADDR0_SUBREGION_DISABLE, config->subregions)
 807              		.loc 1 618 0
 808 000a 4C79     		ldrb	r4, [r1, #5]	@ zero_extendqisi2
 619:Generated_Source\PSoC6\pdl\drivers\peripheral\prot/cy_prot.c ****                     | _VAL2FLD(PERI_PPU_PR_ADDR0_ADDR24, (uint32_t)((uint32_t)config->address >> CY
 809              		.loc 1 619 0
 810 000c 0B68     		ldr	r3, [r1]
 811 000e 23F0FF03 		bic	r3, r3, #255
 618:Generated_Source\PSoC6\pdl\drivers\peripheral\prot/cy_prot.c ****                     | _VAL2FLD(PERI_PPU_PR_ADDR0_ADDR24, (uint32_t)((uint32_t)config->address >> CY
 812              		.loc 1 618 0
 813 0012 1C43     		orrs	r4, r4, r3
 814              	.LVL91:
 620:Generated_Source\PSoC6\pdl\drivers\peripheral\prot/cy_prot.c ****         attReg= ((uint32_t)config->userPermission & CY_PROT_ATT_PERMISSION_MASK)
 815              		.loc 1 620 0
 816 0014 8B79     		ldrb	r3, [r1, #6]	@ zero_extendqisi2
 817 0016 03F00703 		and	r3, r3, #7
 621:Generated_Source\PSoC6\pdl\drivers\peripheral\prot/cy_prot.c ****                     | (uint32_t)(((uint32_t)config->privPermission & CY_PROT_ATT_PERMISSION_MASK) <
 818              		.loc 1 621 0
 819 001a CA79     		ldrb	r2, [r1, #7]	@ zero_extendqisi2
 820 001c D200     		lsls	r2, r2, #3
 821 001e 02F03802 		and	r2, r2, #56
 822 0022 1343     		orrs	r3, r3, r2
 622:Generated_Source\PSoC6\pdl\drivers\peripheral\prot/cy_prot.c ****                     | _VAL2FLD(PERI_PPU_PR_ATT0_NS, !(config->secure))
 823              		.loc 1 622 0
 824 0024 0A7A     		ldrb	r2, [r1, #8]	@ zero_extendqisi2
 825 0026 82F00102 		eor	r2, r2, #1
 826 002a 9201     		lsls	r2, r2, #6
 827 002c 02F04002 		and	r2, r2, #64
 828 0030 1343     		orrs	r3, r3, r2
 623:Generated_Source\PSoC6\pdl\drivers\peripheral\prot/cy_prot.c ****                     | _VAL2FLD(PERI_PPU_PR_ATT0_PC_MASK_15_TO_1, config->pcMask)
 829              		.loc 1 623 0
 830 0032 134A     		ldr	r2, .L82
 831 0034 02EA4525 		and	r5, r2, r5, lsl #9
 832 0038 2B43     		orrs	r3, r3, r5
 624:Generated_Source\PSoC6\pdl\drivers\peripheral\prot/cy_prot.c ****                     | _VAL2FLD(PERI_PPU_PR_ATT0_REGION_SIZE, config->regionSize)
 833              		.loc 1 624 0
 834 003a 0A79     		ldrb	r2, [r1, #4]	@ zero_extendqisi2
 835 003c 1206     		lsls	r2, r2, #24
 836 003e 02F0F852 		and	r2, r2, #520093696
 837 0042 1343     		orrs	r3, r3, r2
 625:Generated_Source\PSoC6\pdl\drivers\peripheral\prot/cy_prot.c ****                     | _VAL2FLD(PERI_PPU_PR_ATT0_PC_MATCH, config->pcMatch);
 838              		.loc 1 625 0
 839 0044 4A7A     		ldrb	r2, [r1, #9]	@ zero_extendqisi2
 840 0046 9207     		lsls	r2, r2, #30
 841 0048 02F08042 		and	r2, r2, #1073741824
 620:Generated_Source\PSoC6\pdl\drivers\peripheral\prot/cy_prot.c ****                     | (uint32_t)(((uint32_t)config->privPermission & CY_PROT_ATT_PERMISSION_MASK) <
ARM GAS  C:\Users\kiwamu\AppData\Local\Temp\ccLfX6Zi.s 			page 27


 842              		.loc 1 620 0
 843 004c 1343     		orrs	r3, r3, r2
 844              	.LVL92:
 626:Generated_Source\PSoC6\pdl\drivers\peripheral\prot/cy_prot.c ****         if ((attReg & CY_PROT_PPU_PROG_ATT0_MASK) != attReg)
 845              		.loc 1 626 0
 846 004e 13F4927F 		tst	r3, #292
 847 0052 0DD1     		bne	.L78
 627:Generated_Source\PSoC6\pdl\drivers\peripheral\prot/cy_prot.c ****         {
 628:Generated_Source\PSoC6\pdl\drivers\peripheral\prot/cy_prot.c ****             /* Invalid parameter was passed */
 629:Generated_Source\PSoC6\pdl\drivers\peripheral\prot/cy_prot.c ****             status = CY_PROT_BAD_PARAM;
 630:Generated_Source\PSoC6\pdl\drivers\peripheral\prot/cy_prot.c ****         }
 631:Generated_Source\PSoC6\pdl\drivers\peripheral\prot/cy_prot.c ****         else
 632:Generated_Source\PSoC6\pdl\drivers\peripheral\prot/cy_prot.c ****         {
 633:Generated_Source\PSoC6\pdl\drivers\peripheral\prot/cy_prot.c ****             base->ATT0 = attReg;
 848              		.loc 1 633 0
 849 0054 4360     		str	r3, [r0, #4]
 634:Generated_Source\PSoC6\pdl\drivers\peripheral\prot/cy_prot.c ****             base->ADDR0 = addrReg;
 850              		.loc 1 634 0
 851 0056 0460     		str	r4, [r0]
 635:Generated_Source\PSoC6\pdl\drivers\peripheral\prot/cy_prot.c ****             status = ((base->ADDR0 != addrReg) || ((base->ATT0 & CY_PROT_PPU_PROG_ATT0_MASK) != att
 852              		.loc 1 635 0
 853 0058 0268     		ldr	r2, [r0]
 854 005a 9442     		cmp	r4, r2
 855 005c 0AD1     		bne	.L79
 856              		.loc 1 635 0 is_stmt 0 discriminator 2
 857 005e 4268     		ldr	r2, [r0, #4]
 858 0060 22F49272 		bic	r2, r2, #292
 859 0064 9342     		cmp	r3, r2
 860 0066 07D0     		beq	.L80
 861              		.loc 1 635 0
 862 0068 0648     		ldr	r0, .L82+4
 863              	.LVL93:
 864 006a 06E0     		b	.L76
 865              	.LVL94:
 866              	.L77:
 614:Generated_Source\PSoC6\pdl\drivers\peripheral\prot/cy_prot.c ****     }
 867              		.loc 1 614 0 is_stmt 1
 868 006c 0648     		ldr	r0, .L82+8
 869              	.LVL95:
 870 006e 04E0     		b	.L76
 871              	.LVL96:
 872              	.L78:
 629:Generated_Source\PSoC6\pdl\drivers\peripheral\prot/cy_prot.c ****         }
 873              		.loc 1 629 0
 874 0070 0548     		ldr	r0, .L82+8
 875              	.LVL97:
 876 0072 02E0     		b	.L76
 877              	.LVL98:
 878              	.L79:
 879              		.loc 1 635 0
 880 0074 0348     		ldr	r0, .L82+4
 881              	.LVL99:
 882 0076 00E0     		b	.L76
 883              	.LVL100:
 884              	.L80:
 885 0078 0020     		movs	r0, #0
 886              	.LVL101:
ARM GAS  C:\Users\kiwamu\AppData\Local\Temp\ccLfX6Zi.s 			page 28


 887              	.L76:
 636:Generated_Source\PSoC6\pdl\drivers\peripheral\prot/cy_prot.c ****                         ? CY_PROT_FAILURE : CY_PROT_SUCCESS;
 637:Generated_Source\PSoC6\pdl\drivers\peripheral\prot/cy_prot.c ****         }
 638:Generated_Source\PSoC6\pdl\drivers\peripheral\prot/cy_prot.c ****     }
 639:Generated_Source\PSoC6\pdl\drivers\peripheral\prot/cy_prot.c ****     
 640:Generated_Source\PSoC6\pdl\drivers\peripheral\prot/cy_prot.c ****     return status;
 641:Generated_Source\PSoC6\pdl\drivers\peripheral\prot/cy_prot.c **** }
 888              		.loc 1 641 0
 889 007a 30BC     		pop	{r4, r5}
 890              		.cfi_restore 5
 891              		.cfi_restore 4
 892              		.cfi_def_cfa_offset 0
 893 007c 7047     		bx	lr
 894              	.L83:
 895 007e 00BF     		.align	2
 896              	.L82:
 897 0080 00FEFF00 		.word	16776704
 898 0084 0300C200 		.word	12713987
 899 0088 0100C200 		.word	12713985
 900              		.cfi_endproc
 901              	.LFE136:
 902              		.size	Cy_Prot_ConfigPpuProgSlaveStruct, .-Cy_Prot_ConfigPpuProgSlaveStruct
 903              		.section	.text.Cy_Prot_EnablePpuProgMasterStruct,"ax",%progbits
 904              		.align	2
 905              		.global	Cy_Prot_EnablePpuProgMasterStruct
 906              		.thumb
 907              		.thumb_func
 908              		.type	Cy_Prot_EnablePpuProgMasterStruct, %function
 909              	Cy_Prot_EnablePpuProgMasterStruct:
 910              	.LFB137:
 642:Generated_Source\PSoC6\pdl\drivers\peripheral\prot/cy_prot.c **** 
 643:Generated_Source\PSoC6\pdl\drivers\peripheral\prot/cy_prot.c **** 
 644:Generated_Source\PSoC6\pdl\drivers\peripheral\prot/cy_prot.c **** /*******************************************************************************
 645:Generated_Source\PSoC6\pdl\drivers\peripheral\prot/cy_prot.c **** * Function Name: Cy_Prot_EnablePpuProgMasterStruct
 646:Generated_Source\PSoC6\pdl\drivers\peripheral\prot/cy_prot.c **** ****************************************************************************//**
 647:Generated_Source\PSoC6\pdl\drivers\peripheral\prot/cy_prot.c **** *
 648:Generated_Source\PSoC6\pdl\drivers\peripheral\prot/cy_prot.c **** * \brief Enables the Master PPU PROG structure.
 649:Generated_Source\PSoC6\pdl\drivers\peripheral\prot/cy_prot.c **** *
 650:Generated_Source\PSoC6\pdl\drivers\peripheral\prot/cy_prot.c **** * This is a PPU PROG master struct enable function. The PPU PROG protection 
 651:Generated_Source\PSoC6\pdl\drivers\peripheral\prot/cy_prot.c **** * settings will take effect after successful completion of this function call.
 652:Generated_Source\PSoC6\pdl\drivers\peripheral\prot/cy_prot.c **** *
 653:Generated_Source\PSoC6\pdl\drivers\peripheral\prot/cy_prot.c **** * \param base
 654:Generated_Source\PSoC6\pdl\drivers\peripheral\prot/cy_prot.c **** * The base address for the protection unit structure being configured. 
 655:Generated_Source\PSoC6\pdl\drivers\peripheral\prot/cy_prot.c **** *
 656:Generated_Source\PSoC6\pdl\drivers\peripheral\prot/cy_prot.c **** * \return
 657:Generated_Source\PSoC6\pdl\drivers\peripheral\prot/cy_prot.c **** * Status of the function call.
 658:Generated_Source\PSoC6\pdl\drivers\peripheral\prot/cy_prot.c **** *
 659:Generated_Source\PSoC6\pdl\drivers\peripheral\prot/cy_prot.c **** *   Status               | Description
 660:Generated_Source\PSoC6\pdl\drivers\peripheral\prot/cy_prot.c **** *   ------------         | -----------
 661:Generated_Source\PSoC6\pdl\drivers\peripheral\prot/cy_prot.c **** *   CY_PROT_SUCCESS      | The Master PU struct was enabled
 662:Generated_Source\PSoC6\pdl\drivers\peripheral\prot/cy_prot.c **** *   CY_PROT_FAILURE      | The Master PU struct is disabled and possibly locked
 663:Generated_Source\PSoC6\pdl\drivers\peripheral\prot/cy_prot.c **** *  
 664:Generated_Source\PSoC6\pdl\drivers\peripheral\prot/cy_prot.c **** *******************************************************************************/
 665:Generated_Source\PSoC6\pdl\drivers\peripheral\prot/cy_prot.c **** cy_en_prot_status_t Cy_Prot_EnablePpuProgMasterStruct(PERI_PPU_PR_Type* base)
 666:Generated_Source\PSoC6\pdl\drivers\peripheral\prot/cy_prot.c **** {
 911              		.loc 1 666 0
 912              		.cfi_startproc
ARM GAS  C:\Users\kiwamu\AppData\Local\Temp\ccLfX6Zi.s 			page 29


 913              		@ args = 0, pretend = 0, frame = 0
 914              		@ frame_needed = 0, uses_anonymous_args = 0
 915              		@ link register save eliminated.
 916              	.LVL102:
 667:Generated_Source\PSoC6\pdl\drivers\peripheral\prot/cy_prot.c ****     cy_en_prot_status_t status = CY_PROT_SUCCESS;
 668:Generated_Source\PSoC6\pdl\drivers\peripheral\prot/cy_prot.c ****     
 669:Generated_Source\PSoC6\pdl\drivers\peripheral\prot/cy_prot.c ****     base->ATT1 |= _VAL2FLD(PERI_PPU_PR_ATT1_ENABLED, CY_PROT_STRUCT_ENABLE);
 917              		.loc 1 669 0
 918 0000 436A     		ldr	r3, [r0, #36]
 919 0002 43F00043 		orr	r3, r3, #-2147483648
 920 0006 4362     		str	r3, [r0, #36]
 670:Generated_Source\PSoC6\pdl\drivers\peripheral\prot/cy_prot.c ****     status = (_FLD2VAL(PERI_PPU_PR_ATT1_ENABLED, base->ATT1) != CY_PROT_STRUCT_ENABLE) ?
 921              		.loc 1 670 0
 922 0008 436A     		ldr	r3, [r0, #36]
 923 000a 002B     		cmp	r3, #0
 924 000c 01DB     		blt	.L86
 925 000e 0248     		ldr	r0, .L87
 926              	.LVL103:
 927 0010 7047     		bx	lr
 928              	.LVL104:
 929              	.L86:
 930 0012 0020     		movs	r0, #0
 931              	.LVL105:
 671:Generated_Source\PSoC6\pdl\drivers\peripheral\prot/cy_prot.c ****                 CY_PROT_FAILURE : CY_PROT_SUCCESS;
 672:Generated_Source\PSoC6\pdl\drivers\peripheral\prot/cy_prot.c ****     
 673:Generated_Source\PSoC6\pdl\drivers\peripheral\prot/cy_prot.c ****     return status;
 674:Generated_Source\PSoC6\pdl\drivers\peripheral\prot/cy_prot.c **** }
 932              		.loc 1 674 0
 933 0014 7047     		bx	lr
 934              	.L88:
 935 0016 00BF     		.align	2
 936              	.L87:
 937 0018 0300C200 		.word	12713987
 938              		.cfi_endproc
 939              	.LFE137:
 940              		.size	Cy_Prot_EnablePpuProgMasterStruct, .-Cy_Prot_EnablePpuProgMasterStruct
 941              		.section	.text.Cy_Prot_DisablePpuProgMasterStruct,"ax",%progbits
 942              		.align	2
 943              		.global	Cy_Prot_DisablePpuProgMasterStruct
 944              		.thumb
 945              		.thumb_func
 946              		.type	Cy_Prot_DisablePpuProgMasterStruct, %function
 947              	Cy_Prot_DisablePpuProgMasterStruct:
 948              	.LFB138:
 675:Generated_Source\PSoC6\pdl\drivers\peripheral\prot/cy_prot.c **** 
 676:Generated_Source\PSoC6\pdl\drivers\peripheral\prot/cy_prot.c **** 
 677:Generated_Source\PSoC6\pdl\drivers\peripheral\prot/cy_prot.c **** /*******************************************************************************
 678:Generated_Source\PSoC6\pdl\drivers\peripheral\prot/cy_prot.c **** * Function Name: Cy_Prot_DisablePpuProgMasterStruct
 679:Generated_Source\PSoC6\pdl\drivers\peripheral\prot/cy_prot.c **** ****************************************************************************//**
 680:Generated_Source\PSoC6\pdl\drivers\peripheral\prot/cy_prot.c **** *
 681:Generated_Source\PSoC6\pdl\drivers\peripheral\prot/cy_prot.c **** * \brief Disables the Master PPU PROG structure.
 682:Generated_Source\PSoC6\pdl\drivers\peripheral\prot/cy_prot.c **** *
 683:Generated_Source\PSoC6\pdl\drivers\peripheral\prot/cy_prot.c **** * This is a PPU PROG master struct disable function. The PPU PROG protection 
 684:Generated_Source\PSoC6\pdl\drivers\peripheral\prot/cy_prot.c **** * settings will seize to take effect after successful completion of this 
 685:Generated_Source\PSoC6\pdl\drivers\peripheral\prot/cy_prot.c **** * function call.
 686:Generated_Source\PSoC6\pdl\drivers\peripheral\prot/cy_prot.c **** *
 687:Generated_Source\PSoC6\pdl\drivers\peripheral\prot/cy_prot.c **** * \param base
ARM GAS  C:\Users\kiwamu\AppData\Local\Temp\ccLfX6Zi.s 			page 30


 688:Generated_Source\PSoC6\pdl\drivers\peripheral\prot/cy_prot.c **** * The base address for the protection unit structure being configured. 
 689:Generated_Source\PSoC6\pdl\drivers\peripheral\prot/cy_prot.c **** *
 690:Generated_Source\PSoC6\pdl\drivers\peripheral\prot/cy_prot.c **** * \return
 691:Generated_Source\PSoC6\pdl\drivers\peripheral\prot/cy_prot.c **** * Status of the function call.
 692:Generated_Source\PSoC6\pdl\drivers\peripheral\prot/cy_prot.c **** *
 693:Generated_Source\PSoC6\pdl\drivers\peripheral\prot/cy_prot.c **** *   Status               | Description
 694:Generated_Source\PSoC6\pdl\drivers\peripheral\prot/cy_prot.c **** *   ------------         | -----------
 695:Generated_Source\PSoC6\pdl\drivers\peripheral\prot/cy_prot.c **** *   CY_PROT_SUCCESS      | The Master PU struct was disabled
 696:Generated_Source\PSoC6\pdl\drivers\peripheral\prot/cy_prot.c **** *   CY_PROT_FAILURE      | The Master PU struct is enabled and possibly locked
 697:Generated_Source\PSoC6\pdl\drivers\peripheral\prot/cy_prot.c **** *  
 698:Generated_Source\PSoC6\pdl\drivers\peripheral\prot/cy_prot.c **** *******************************************************************************/
 699:Generated_Source\PSoC6\pdl\drivers\peripheral\prot/cy_prot.c **** cy_en_prot_status_t Cy_Prot_DisablePpuProgMasterStruct(PERI_PPU_PR_Type* base)
 700:Generated_Source\PSoC6\pdl\drivers\peripheral\prot/cy_prot.c **** {
 949              		.loc 1 700 0
 950              		.cfi_startproc
 951              		@ args = 0, pretend = 0, frame = 0
 952              		@ frame_needed = 0, uses_anonymous_args = 0
 953              		@ link register save eliminated.
 954              	.LVL106:
 701:Generated_Source\PSoC6\pdl\drivers\peripheral\prot/cy_prot.c ****     cy_en_prot_status_t status = CY_PROT_SUCCESS;
 702:Generated_Source\PSoC6\pdl\drivers\peripheral\prot/cy_prot.c ****     
 703:Generated_Source\PSoC6\pdl\drivers\peripheral\prot/cy_prot.c ****     base->ATT1 &= ~_VAL2FLD(PERI_PPU_PR_ATT1_ENABLED, CY_PROT_STRUCT_ENABLE);
 955              		.loc 1 703 0
 956 0000 436A     		ldr	r3, [r0, #36]
 957 0002 23F00043 		bic	r3, r3, #-2147483648
 958 0006 4362     		str	r3, [r0, #36]
 704:Generated_Source\PSoC6\pdl\drivers\peripheral\prot/cy_prot.c ****     status = (_FLD2VAL(PERI_PPU_PR_ATT1_ENABLED, base->ATT1) == CY_PROT_STRUCT_ENABLE) ?
 959              		.loc 1 704 0
 960 0008 436A     		ldr	r3, [r0, #36]
 961 000a 002B     		cmp	r3, #0
 962 000c 01DA     		bge	.L91
 963 000e 0248     		ldr	r0, .L92
 964              	.LVL107:
 965 0010 7047     		bx	lr
 966              	.LVL108:
 967              	.L91:
 968 0012 0020     		movs	r0, #0
 969              	.LVL109:
 705:Generated_Source\PSoC6\pdl\drivers\peripheral\prot/cy_prot.c ****                 CY_PROT_FAILURE : CY_PROT_SUCCESS;
 706:Generated_Source\PSoC6\pdl\drivers\peripheral\prot/cy_prot.c ****     
 707:Generated_Source\PSoC6\pdl\drivers\peripheral\prot/cy_prot.c ****     return status;
 708:Generated_Source\PSoC6\pdl\drivers\peripheral\prot/cy_prot.c **** }
 970              		.loc 1 708 0
 971 0014 7047     		bx	lr
 972              	.L93:
 973 0016 00BF     		.align	2
 974              	.L92:
 975 0018 0300C200 		.word	12713987
 976              		.cfi_endproc
 977              	.LFE138:
 978              		.size	Cy_Prot_DisablePpuProgMasterStruct, .-Cy_Prot_DisablePpuProgMasterStruct
 979              		.section	.text.Cy_Prot_EnablePpuProgSlaveStruct,"ax",%progbits
 980              		.align	2
 981              		.global	Cy_Prot_EnablePpuProgSlaveStruct
 982              		.thumb
 983              		.thumb_func
 984              		.type	Cy_Prot_EnablePpuProgSlaveStruct, %function
ARM GAS  C:\Users\kiwamu\AppData\Local\Temp\ccLfX6Zi.s 			page 31


 985              	Cy_Prot_EnablePpuProgSlaveStruct:
 986              	.LFB139:
 709:Generated_Source\PSoC6\pdl\drivers\peripheral\prot/cy_prot.c **** 
 710:Generated_Source\PSoC6\pdl\drivers\peripheral\prot/cy_prot.c **** 
 711:Generated_Source\PSoC6\pdl\drivers\peripheral\prot/cy_prot.c **** /*******************************************************************************
 712:Generated_Source\PSoC6\pdl\drivers\peripheral\prot/cy_prot.c **** * Function Name: Cy_Prot_EnablePpuProgSlaveStruct
 713:Generated_Source\PSoC6\pdl\drivers\peripheral\prot/cy_prot.c **** ****************************************************************************//**
 714:Generated_Source\PSoC6\pdl\drivers\peripheral\prot/cy_prot.c **** *
 715:Generated_Source\PSoC6\pdl\drivers\peripheral\prot/cy_prot.c **** * \brief Enables the Slave PPU PROG structure.
 716:Generated_Source\PSoC6\pdl\drivers\peripheral\prot/cy_prot.c **** *
 717:Generated_Source\PSoC6\pdl\drivers\peripheral\prot/cy_prot.c **** * This is a PPU PROG slave struct enable function. The PPU PROG protection 
 718:Generated_Source\PSoC6\pdl\drivers\peripheral\prot/cy_prot.c **** * settings will take effect after successful completion of this function call.
 719:Generated_Source\PSoC6\pdl\drivers\peripheral\prot/cy_prot.c **** *
 720:Generated_Source\PSoC6\pdl\drivers\peripheral\prot/cy_prot.c **** * \param base
 721:Generated_Source\PSoC6\pdl\drivers\peripheral\prot/cy_prot.c **** * The base address for the protection unit structure being configured. 
 722:Generated_Source\PSoC6\pdl\drivers\peripheral\prot/cy_prot.c **** *
 723:Generated_Source\PSoC6\pdl\drivers\peripheral\prot/cy_prot.c **** * \return
 724:Generated_Source\PSoC6\pdl\drivers\peripheral\prot/cy_prot.c **** * Status of the function call.
 725:Generated_Source\PSoC6\pdl\drivers\peripheral\prot/cy_prot.c **** *
 726:Generated_Source\PSoC6\pdl\drivers\peripheral\prot/cy_prot.c **** *   Status               | Description
 727:Generated_Source\PSoC6\pdl\drivers\peripheral\prot/cy_prot.c **** *   ------------         | -----------
 728:Generated_Source\PSoC6\pdl\drivers\peripheral\prot/cy_prot.c **** *   CY_PROT_SUCCESS      | The Slave PU struct was enabled
 729:Generated_Source\PSoC6\pdl\drivers\peripheral\prot/cy_prot.c **** *   CY_PROT_FAILURE      | The Slave PU struct is disabled and possibly locked
 730:Generated_Source\PSoC6\pdl\drivers\peripheral\prot/cy_prot.c **** *  
 731:Generated_Source\PSoC6\pdl\drivers\peripheral\prot/cy_prot.c **** *******************************************************************************/
 732:Generated_Source\PSoC6\pdl\drivers\peripheral\prot/cy_prot.c **** cy_en_prot_status_t Cy_Prot_EnablePpuProgSlaveStruct(PERI_PPU_PR_Type* base)
 733:Generated_Source\PSoC6\pdl\drivers\peripheral\prot/cy_prot.c **** {   
 987              		.loc 1 733 0
 988              		.cfi_startproc
 989              		@ args = 0, pretend = 0, frame = 0
 990              		@ frame_needed = 0, uses_anonymous_args = 0
 991              		@ link register save eliminated.
 992              	.LVL110:
 734:Generated_Source\PSoC6\pdl\drivers\peripheral\prot/cy_prot.c ****     cy_en_prot_status_t status = CY_PROT_SUCCESS;
 735:Generated_Source\PSoC6\pdl\drivers\peripheral\prot/cy_prot.c ****     
 736:Generated_Source\PSoC6\pdl\drivers\peripheral\prot/cy_prot.c ****     base->ATT0 |= _VAL2FLD(PERI_PPU_PR_ATT0_ENABLED, CY_PROT_STRUCT_ENABLE);
 993              		.loc 1 736 0
 994 0000 4368     		ldr	r3, [r0, #4]
 995 0002 43F00043 		orr	r3, r3, #-2147483648
 996 0006 4360     		str	r3, [r0, #4]
 737:Generated_Source\PSoC6\pdl\drivers\peripheral\prot/cy_prot.c ****     status = (_FLD2VAL(PERI_PPU_PR_ATT0_ENABLED, base->ATT0) != CY_PROT_STRUCT_ENABLE) ?
 997              		.loc 1 737 0
 998 0008 4368     		ldr	r3, [r0, #4]
 999 000a 002B     		cmp	r3, #0
 1000 000c 01DB     		blt	.L96
 1001 000e 0248     		ldr	r0, .L97
 1002              	.LVL111:
 1003 0010 7047     		bx	lr
 1004              	.LVL112:
 1005              	.L96:
 1006 0012 0020     		movs	r0, #0
 1007              	.LVL113:
 738:Generated_Source\PSoC6\pdl\drivers\peripheral\prot/cy_prot.c ****                 CY_PROT_FAILURE : CY_PROT_SUCCESS;
 739:Generated_Source\PSoC6\pdl\drivers\peripheral\prot/cy_prot.c ****     
 740:Generated_Source\PSoC6\pdl\drivers\peripheral\prot/cy_prot.c ****     return status;
 741:Generated_Source\PSoC6\pdl\drivers\peripheral\prot/cy_prot.c **** }
 1008              		.loc 1 741 0
ARM GAS  C:\Users\kiwamu\AppData\Local\Temp\ccLfX6Zi.s 			page 32


 1009 0014 7047     		bx	lr
 1010              	.L98:
 1011 0016 00BF     		.align	2
 1012              	.L97:
 1013 0018 0300C200 		.word	12713987
 1014              		.cfi_endproc
 1015              	.LFE139:
 1016              		.size	Cy_Prot_EnablePpuProgSlaveStruct, .-Cy_Prot_EnablePpuProgSlaveStruct
 1017              		.section	.text.Cy_Prot_DisablePpuProgSlaveStruct,"ax",%progbits
 1018              		.align	2
 1019              		.global	Cy_Prot_DisablePpuProgSlaveStruct
 1020              		.thumb
 1021              		.thumb_func
 1022              		.type	Cy_Prot_DisablePpuProgSlaveStruct, %function
 1023              	Cy_Prot_DisablePpuProgSlaveStruct:
 1024              	.LFB140:
 742:Generated_Source\PSoC6\pdl\drivers\peripheral\prot/cy_prot.c **** 
 743:Generated_Source\PSoC6\pdl\drivers\peripheral\prot/cy_prot.c **** 
 744:Generated_Source\PSoC6\pdl\drivers\peripheral\prot/cy_prot.c **** /*******************************************************************************
 745:Generated_Source\PSoC6\pdl\drivers\peripheral\prot/cy_prot.c **** * Function Name: Cy_Prot_DisablePpuProgSlaveStruct
 746:Generated_Source\PSoC6\pdl\drivers\peripheral\prot/cy_prot.c **** ****************************************************************************//**
 747:Generated_Source\PSoC6\pdl\drivers\peripheral\prot/cy_prot.c **** *
 748:Generated_Source\PSoC6\pdl\drivers\peripheral\prot/cy_prot.c **** * \brief Disables the Slave PPU PROG structure.
 749:Generated_Source\PSoC6\pdl\drivers\peripheral\prot/cy_prot.c **** *
 750:Generated_Source\PSoC6\pdl\drivers\peripheral\prot/cy_prot.c **** * This is a PPU PROG slave struct disable function. The PPU PROG protection 
 751:Generated_Source\PSoC6\pdl\drivers\peripheral\prot/cy_prot.c **** * settings will seize to take effect after successful completion of this 
 752:Generated_Source\PSoC6\pdl\drivers\peripheral\prot/cy_prot.c **** * function call.
 753:Generated_Source\PSoC6\pdl\drivers\peripheral\prot/cy_prot.c **** *
 754:Generated_Source\PSoC6\pdl\drivers\peripheral\prot/cy_prot.c **** * \param base
 755:Generated_Source\PSoC6\pdl\drivers\peripheral\prot/cy_prot.c **** * The base address for the protection unit structure being configured. 
 756:Generated_Source\PSoC6\pdl\drivers\peripheral\prot/cy_prot.c **** *
 757:Generated_Source\PSoC6\pdl\drivers\peripheral\prot/cy_prot.c **** * \return
 758:Generated_Source\PSoC6\pdl\drivers\peripheral\prot/cy_prot.c **** * Status of the function call.
 759:Generated_Source\PSoC6\pdl\drivers\peripheral\prot/cy_prot.c **** *
 760:Generated_Source\PSoC6\pdl\drivers\peripheral\prot/cy_prot.c **** *   Status               | Description
 761:Generated_Source\PSoC6\pdl\drivers\peripheral\prot/cy_prot.c **** *   ------------         | -----------
 762:Generated_Source\PSoC6\pdl\drivers\peripheral\prot/cy_prot.c **** *   CY_PROT_SUCCESS      | The Slave PU struct was disabled
 763:Generated_Source\PSoC6\pdl\drivers\peripheral\prot/cy_prot.c **** *   CY_PROT_FAILURE      | The Slave PU struct is enabled and possibly locked
 764:Generated_Source\PSoC6\pdl\drivers\peripheral\prot/cy_prot.c **** *  
 765:Generated_Source\PSoC6\pdl\drivers\peripheral\prot/cy_prot.c **** *******************************************************************************/
 766:Generated_Source\PSoC6\pdl\drivers\peripheral\prot/cy_prot.c **** cy_en_prot_status_t Cy_Prot_DisablePpuProgSlaveStruct(PERI_PPU_PR_Type* base)
 767:Generated_Source\PSoC6\pdl\drivers\peripheral\prot/cy_prot.c **** {
 1025              		.loc 1 767 0
 1026              		.cfi_startproc
 1027              		@ args = 0, pretend = 0, frame = 0
 1028              		@ frame_needed = 0, uses_anonymous_args = 0
 1029              		@ link register save eliminated.
 1030              	.LVL114:
 768:Generated_Source\PSoC6\pdl\drivers\peripheral\prot/cy_prot.c ****     cy_en_prot_status_t status = CY_PROT_SUCCESS;
 769:Generated_Source\PSoC6\pdl\drivers\peripheral\prot/cy_prot.c ****     
 770:Generated_Source\PSoC6\pdl\drivers\peripheral\prot/cy_prot.c ****     base->ATT0 &= ~_VAL2FLD(PERI_PPU_PR_ATT0_ENABLED, CY_PROT_STRUCT_ENABLE);
 1031              		.loc 1 770 0
 1032 0000 4368     		ldr	r3, [r0, #4]
 1033 0002 23F00043 		bic	r3, r3, #-2147483648
 1034 0006 4360     		str	r3, [r0, #4]
 771:Generated_Source\PSoC6\pdl\drivers\peripheral\prot/cy_prot.c ****     status = (_FLD2VAL(PERI_PPU_PR_ATT0_ENABLED, base->ATT0) == CY_PROT_STRUCT_ENABLE) ?
 1035              		.loc 1 771 0
ARM GAS  C:\Users\kiwamu\AppData\Local\Temp\ccLfX6Zi.s 			page 33


 1036 0008 4368     		ldr	r3, [r0, #4]
 1037 000a 002B     		cmp	r3, #0
 1038 000c 01DA     		bge	.L101
 1039 000e 0248     		ldr	r0, .L102
 1040              	.LVL115:
 1041 0010 7047     		bx	lr
 1042              	.LVL116:
 1043              	.L101:
 1044 0012 0020     		movs	r0, #0
 1045              	.LVL117:
 772:Generated_Source\PSoC6\pdl\drivers\peripheral\prot/cy_prot.c ****                 CY_PROT_FAILURE : CY_PROT_SUCCESS;
 773:Generated_Source\PSoC6\pdl\drivers\peripheral\prot/cy_prot.c ****     
 774:Generated_Source\PSoC6\pdl\drivers\peripheral\prot/cy_prot.c ****     return status;
 775:Generated_Source\PSoC6\pdl\drivers\peripheral\prot/cy_prot.c **** }
 1046              		.loc 1 775 0
 1047 0014 7047     		bx	lr
 1048              	.L103:
 1049 0016 00BF     		.align	2
 1050              	.L102:
 1051 0018 0300C200 		.word	12713987
 1052              		.cfi_endproc
 1053              	.LFE140:
 1054              		.size	Cy_Prot_DisablePpuProgSlaveStruct, .-Cy_Prot_DisablePpuProgSlaveStruct
 1055              		.section	.text.Cy_Prot_ConfigPpuFixedGrMasterStruct,"ax",%progbits
 1056              		.align	2
 1057              		.global	Cy_Prot_ConfigPpuFixedGrMasterStruct
 1058              		.thumb
 1059              		.thumb_func
 1060              		.type	Cy_Prot_ConfigPpuFixedGrMasterStruct, %function
 1061              	Cy_Prot_ConfigPpuFixedGrMasterStruct:
 1062              	.LFB141:
 776:Generated_Source\PSoC6\pdl\drivers\peripheral\prot/cy_prot.c **** 
 777:Generated_Source\PSoC6\pdl\drivers\peripheral\prot/cy_prot.c **** 
 778:Generated_Source\PSoC6\pdl\drivers\peripheral\prot/cy_prot.c **** /*******************************************************************************
 779:Generated_Source\PSoC6\pdl\drivers\peripheral\prot/cy_prot.c **** * Function Name: Cy_Prot_ConfigPpuFixedGrMasterStruct
 780:Generated_Source\PSoC6\pdl\drivers\peripheral\prot/cy_prot.c **** ****************************************************************************//**
 781:Generated_Source\PSoC6\pdl\drivers\peripheral\prot/cy_prot.c **** *
 782:Generated_Source\PSoC6\pdl\drivers\peripheral\prot/cy_prot.c **** * \brief Configures a Fixed Peripheral Group Protection Unit (PPU GR) master 
 783:Generated_Source\PSoC6\pdl\drivers\peripheral\prot/cy_prot.c **** * protection struct with its protection attributes. 
 784:Generated_Source\PSoC6\pdl\drivers\peripheral\prot/cy_prot.c **** *
 785:Generated_Source\PSoC6\pdl\drivers\peripheral\prot/cy_prot.c **** * This function configures the master struct governing the corresponding slave
 786:Generated_Source\PSoC6\pdl\drivers\peripheral\prot/cy_prot.c **** * struct pair. It is a mechanism to protect the slave PPU GR struct. Since
 787:Generated_Source\PSoC6\pdl\drivers\peripheral\prot/cy_prot.c **** * the memory location of the slave struct is known, the address, regionSize and
 788:Generated_Source\PSoC6\pdl\drivers\peripheral\prot/cy_prot.c **** * subregions of the configuration struct are not applicable.
 789:Generated_Source\PSoC6\pdl\drivers\peripheral\prot/cy_prot.c **** *
 790:Generated_Source\PSoC6\pdl\drivers\peripheral\prot/cy_prot.c **** * Note that only the user/privileged write permissions are configurable. The 
 791:Generated_Source\PSoC6\pdl\drivers\peripheral\prot/cy_prot.c **** * read and execute permissions are read-only and cannot be configured.
 792:Generated_Source\PSoC6\pdl\drivers\peripheral\prot/cy_prot.c **** *
 793:Generated_Source\PSoC6\pdl\drivers\peripheral\prot/cy_prot.c **** * \param base
 794:Generated_Source\PSoC6\pdl\drivers\peripheral\prot/cy_prot.c **** * The register base address of the protection struct being configured.
 795:Generated_Source\PSoC6\pdl\drivers\peripheral\prot/cy_prot.c **** * 
 796:Generated_Source\PSoC6\pdl\drivers\peripheral\prot/cy_prot.c **** * \param config
 797:Generated_Source\PSoC6\pdl\drivers\peripheral\prot/cy_prot.c **** * Initialization structure with all the protection attributes.
 798:Generated_Source\PSoC6\pdl\drivers\peripheral\prot/cy_prot.c **** * 
 799:Generated_Source\PSoC6\pdl\drivers\peripheral\prot/cy_prot.c **** * \return
 800:Generated_Source\PSoC6\pdl\drivers\peripheral\prot/cy_prot.c **** * Status of the function call.
 801:Generated_Source\PSoC6\pdl\drivers\peripheral\prot/cy_prot.c **** *
ARM GAS  C:\Users\kiwamu\AppData\Local\Temp\ccLfX6Zi.s 			page 34


 802:Generated_Source\PSoC6\pdl\drivers\peripheral\prot/cy_prot.c **** *   Status               | Description
 803:Generated_Source\PSoC6\pdl\drivers\peripheral\prot/cy_prot.c **** *   ------------         | -----------
 804:Generated_Source\PSoC6\pdl\drivers\peripheral\prot/cy_prot.c **** *   CY_PROT_SUCCESS      | PPU GR master struct was successfully configured
 805:Generated_Source\PSoC6\pdl\drivers\peripheral\prot/cy_prot.c **** *   CY_PROT_FAILURE      | The resource is locked
 806:Generated_Source\PSoC6\pdl\drivers\peripheral\prot/cy_prot.c **** *   CY_PROT_BAD_PARAM    | An incorrect/invalid parameter was passed
 807:Generated_Source\PSoC6\pdl\drivers\peripheral\prot/cy_prot.c **** *  
 808:Generated_Source\PSoC6\pdl\drivers\peripheral\prot/cy_prot.c **** *******************************************************************************/
 809:Generated_Source\PSoC6\pdl\drivers\peripheral\prot/cy_prot.c **** cy_en_prot_status_t Cy_Prot_ConfigPpuFixedGrMasterStruct(PERI_PPU_GR_Type* base, const cy_stc_ppu_g
 810:Generated_Source\PSoC6\pdl\drivers\peripheral\prot/cy_prot.c **** {
 1063              		.loc 1 810 0
 1064              		.cfi_startproc
 1065              		@ args = 0, pretend = 0, frame = 0
 1066              		@ frame_needed = 0, uses_anonymous_args = 0
 1067              		@ link register save eliminated.
 1068              	.LVL118:
 1069 0000 10B4     		push	{r4}
 1070              		.cfi_def_cfa_offset 4
 1071              		.cfi_offset 4, -4
 1072              	.LVL119:
 811:Generated_Source\PSoC6\pdl\drivers\peripheral\prot/cy_prot.c ****     cy_en_prot_status_t status = CY_PROT_SUCCESS;
 812:Generated_Source\PSoC6\pdl\drivers\peripheral\prot/cy_prot.c ****     uint32_t attReg;
 813:Generated_Source\PSoC6\pdl\drivers\peripheral\prot/cy_prot.c ****     
 814:Generated_Source\PSoC6\pdl\drivers\peripheral\prot/cy_prot.c ****     if(((uint32_t)config->pcMask & CY_PROT_PPU_FIXED_PC_LIMIT_MASK) != 0UL) 
 1073              		.loc 1 814 0
 1074 0002 8C88     		ldrh	r4, [r1, #4]
 1075 0004 34F07F03 		bics	r3, r4, #127
 1076 0008 23D1     		bne	.L106
 815:Generated_Source\PSoC6\pdl\drivers\peripheral\prot/cy_prot.c ****     {
 816:Generated_Source\PSoC6\pdl\drivers\peripheral\prot/cy_prot.c ****         /* PC mask out of range - not supported in device */
 817:Generated_Source\PSoC6\pdl\drivers\peripheral\prot/cy_prot.c ****         status = CY_PROT_BAD_PARAM;
 818:Generated_Source\PSoC6\pdl\drivers\peripheral\prot/cy_prot.c ****     }
 819:Generated_Source\PSoC6\pdl\drivers\peripheral\prot/cy_prot.c ****     else
 820:Generated_Source\PSoC6\pdl\drivers\peripheral\prot/cy_prot.c ****     {
 821:Generated_Source\PSoC6\pdl\drivers\peripheral\prot/cy_prot.c ****         /* ADDR1 is read only. Only configure ATT1 */
 822:Generated_Source\PSoC6\pdl\drivers\peripheral\prot/cy_prot.c ****         attReg = (((uint32_t)config->userPermission & CY_PROT_ATT_PERMISSION_MASK))
 1077              		.loc 1 822 0
 1078 000a 0B78     		ldrb	r3, [r1]	@ zero_extendqisi2
 1079 000c 03F00703 		and	r3, r3, #7
 823:Generated_Source\PSoC6\pdl\drivers\peripheral\prot/cy_prot.c ****                     | (uint32_t)(((uint32_t)config->privPermission & CY_PROT_ATT_PERMISSION_MASK) <
 1080              		.loc 1 823 0
 1081 0010 4A78     		ldrb	r2, [r1, #1]	@ zero_extendqisi2
 1082 0012 D200     		lsls	r2, r2, #3
 1083 0014 02F03802 		and	r2, r2, #56
 1084 0018 1343     		orrs	r3, r3, r2
 824:Generated_Source\PSoC6\pdl\drivers\peripheral\prot/cy_prot.c ****                     | _VAL2FLD(PERI_PPU_GR_ATT1_NS, !(config->secure))
 1085              		.loc 1 824 0
 1086 001a 8A78     		ldrb	r2, [r1, #2]	@ zero_extendqisi2
 1087 001c 82F00102 		eor	r2, r2, #1
 1088 0020 9201     		lsls	r2, r2, #6
 1089 0022 02F04002 		and	r2, r2, #64
 1090 0026 1343     		orrs	r3, r3, r2
 825:Generated_Source\PSoC6\pdl\drivers\peripheral\prot/cy_prot.c ****                     | _VAL2FLD(PERI_PPU_GR_ATT1_PC_MASK_15_TO_1, config->pcMask)
 1091              		.loc 1 825 0
 1092 0028 0E4A     		ldr	r2, .L110
 1093 002a 02EA4424 		and	r4, r2, r4, lsl #9
 1094 002e 2343     		orrs	r3, r3, r4
 826:Generated_Source\PSoC6\pdl\drivers\peripheral\prot/cy_prot.c ****                     /* No region size - read only for master structs */
ARM GAS  C:\Users\kiwamu\AppData\Local\Temp\ccLfX6Zi.s 			page 35


 827:Generated_Source\PSoC6\pdl\drivers\peripheral\prot/cy_prot.c ****                     | _VAL2FLD(PERI_PPU_GR_ATT1_PC_MATCH, config->pcMatch);
 1095              		.loc 1 827 0
 1096 0030 CA78     		ldrb	r2, [r1, #3]	@ zero_extendqisi2
 1097 0032 9207     		lsls	r2, r2, #30
 1098 0034 02F08042 		and	r2, r2, #1073741824
 822:Generated_Source\PSoC6\pdl\drivers\peripheral\prot/cy_prot.c ****                     | (uint32_t)(((uint32_t)config->privPermission & CY_PROT_ATT_PERMISSION_MASK) <
 1099              		.loc 1 822 0
 1100 0038 1343     		orrs	r3, r3, r2
 1101              	.LVL120:
 828:Generated_Source\PSoC6\pdl\drivers\peripheral\prot/cy_prot.c ****         if ((attReg & CY_PROT_PPU_GR_ATT1_MASK) != attReg)
 1102              		.loc 1 828 0
 1103 003a 0B4A     		ldr	r2, .L110+4
 1104 003c 1A40     		ands	r2, r2, r3
 1105 003e 9342     		cmp	r3, r2
 1106 0040 09D1     		bne	.L107
 829:Generated_Source\PSoC6\pdl\drivers\peripheral\prot/cy_prot.c ****         {
 830:Generated_Source\PSoC6\pdl\drivers\peripheral\prot/cy_prot.c ****             /* Invalid parameter was passed */
 831:Generated_Source\PSoC6\pdl\drivers\peripheral\prot/cy_prot.c ****             status = CY_PROT_BAD_PARAM;
 832:Generated_Source\PSoC6\pdl\drivers\peripheral\prot/cy_prot.c ****         }
 833:Generated_Source\PSoC6\pdl\drivers\peripheral\prot/cy_prot.c ****         else
 834:Generated_Source\PSoC6\pdl\drivers\peripheral\prot/cy_prot.c ****         {
 835:Generated_Source\PSoC6\pdl\drivers\peripheral\prot/cy_prot.c ****             base->ATT1 = attReg;
 1107              		.loc 1 835 0
 1108 0042 4362     		str	r3, [r0, #36]
 836:Generated_Source\PSoC6\pdl\drivers\peripheral\prot/cy_prot.c ****             status = ((base->ATT1 & CY_PROT_PPU_GR_ATT1_MASK) != attReg) ? CY_PROT_FAILURE : CY_PRO
 1109              		.loc 1 836 0
 1110 0044 416A     		ldr	r1, [r0, #36]
 1111              	.LVL121:
 1112 0046 094A     		ldr	r2, .L110+8
 1113 0048 0A40     		ands	r2, r2, r1
 1114 004a 9342     		cmp	r3, r2
 1115 004c 05D0     		beq	.L108
 1116 004e 0848     		ldr	r0, .L110+12
 1117              	.LVL122:
 1118 0050 04E0     		b	.L105
 1119              	.LVL123:
 1120              	.L106:
 817:Generated_Source\PSoC6\pdl\drivers\peripheral\prot/cy_prot.c ****     }
 1121              		.loc 1 817 0
 1122 0052 0848     		ldr	r0, .L110+16
 1123              	.LVL124:
 1124 0054 02E0     		b	.L105
 1125              	.LVL125:
 1126              	.L107:
 831:Generated_Source\PSoC6\pdl\drivers\peripheral\prot/cy_prot.c ****         }
 1127              		.loc 1 831 0
 1128 0056 0748     		ldr	r0, .L110+16
 1129              	.LVL126:
 1130 0058 00E0     		b	.L105
 1131              	.LVL127:
 1132              	.L108:
 1133              		.loc 1 836 0
 1134 005a 0020     		movs	r0, #0
 1135              	.LVL128:
 1136              	.L105:
 837:Generated_Source\PSoC6\pdl\drivers\peripheral\prot/cy_prot.c ****         }
 838:Generated_Source\PSoC6\pdl\drivers\peripheral\prot/cy_prot.c ****     }
ARM GAS  C:\Users\kiwamu\AppData\Local\Temp\ccLfX6Zi.s 			page 36


 839:Generated_Source\PSoC6\pdl\drivers\peripheral\prot/cy_prot.c ****     
 840:Generated_Source\PSoC6\pdl\drivers\peripheral\prot/cy_prot.c ****     return status;
 841:Generated_Source\PSoC6\pdl\drivers\peripheral\prot/cy_prot.c **** }
 1137              		.loc 1 841 0
 1138 005c 5DF8044B 		ldr	r4, [sp], #4
 1139              		.cfi_restore 4
 1140              		.cfi_def_cfa_offset 0
 1141 0060 7047     		bx	lr
 1142              	.L111:
 1143 0062 00BF     		.align	2
 1144              	.L110:
 1145 0064 00FEFF00 		.word	16776704
 1146 0068 52FEFF40 		.word	1090518610
 1147 006c D2FEFFE0 		.word	-520093998
 1148 0070 0300C200 		.word	12713987
 1149 0074 0100C200 		.word	12713985
 1150              		.cfi_endproc
 1151              	.LFE141:
 1152              		.size	Cy_Prot_ConfigPpuFixedGrMasterStruct, .-Cy_Prot_ConfigPpuFixedGrMasterStruct
 1153              		.section	.text.Cy_Prot_ConfigPpuFixedGrSlaveStruct,"ax",%progbits
 1154              		.align	2
 1155              		.global	Cy_Prot_ConfigPpuFixedGrSlaveStruct
 1156              		.thumb
 1157              		.thumb_func
 1158              		.type	Cy_Prot_ConfigPpuFixedGrSlaveStruct, %function
 1159              	Cy_Prot_ConfigPpuFixedGrSlaveStruct:
 1160              	.LFB142:
 842:Generated_Source\PSoC6\pdl\drivers\peripheral\prot/cy_prot.c **** 
 843:Generated_Source\PSoC6\pdl\drivers\peripheral\prot/cy_prot.c **** 
 844:Generated_Source\PSoC6\pdl\drivers\peripheral\prot/cy_prot.c **** /*******************************************************************************
 845:Generated_Source\PSoC6\pdl\drivers\peripheral\prot/cy_prot.c **** * Function Name: Cy_Prot_ConfigPpuFixedGrSlaveStruct
 846:Generated_Source\PSoC6\pdl\drivers\peripheral\prot/cy_prot.c **** ****************************************************************************//**
 847:Generated_Source\PSoC6\pdl\drivers\peripheral\prot/cy_prot.c **** *
 848:Generated_Source\PSoC6\pdl\drivers\peripheral\prot/cy_prot.c **** * \brief Configures a Fixed Peripheral Group Protection Unit (PPU GR) slave
 849:Generated_Source\PSoC6\pdl\drivers\peripheral\prot/cy_prot.c **** * protection struct with its protection attributes. 
 850:Generated_Source\PSoC6\pdl\drivers\peripheral\prot/cy_prot.c **** * 
 851:Generated_Source\PSoC6\pdl\drivers\peripheral\prot/cy_prot.c **** * This function configures the slave struct of a PPU GR pair, which can 
 852:Generated_Source\PSoC6\pdl\drivers\peripheral\prot/cy_prot.c **** * protect an entire peripheral MMIO group from invalid bus master accesses.
 853:Generated_Source\PSoC6\pdl\drivers\peripheral\prot/cy_prot.c **** * Refer to the device Technical Reference manual for details on peripheral
 854:Generated_Source\PSoC6\pdl\drivers\peripheral\prot/cy_prot.c **** * MMIO grouping and which peripherals belong to which groups.
 855:Generated_Source\PSoC6\pdl\drivers\peripheral\prot/cy_prot.c **** *
 856:Generated_Source\PSoC6\pdl\drivers\peripheral\prot/cy_prot.c **** * Each fixed PPU GR is devoted to a defined MMIO group. Hence the address, 
 857:Generated_Source\PSoC6\pdl\drivers\peripheral\prot/cy_prot.c **** * regionSize and subregions of the configuration struct are not applicable.
 858:Generated_Source\PSoC6\pdl\drivers\peripheral\prot/cy_prot.c **** *
 859:Generated_Source\PSoC6\pdl\drivers\peripheral\prot/cy_prot.c **** * Note that the user/privileged execute accesses are read-only and are always 
 860:Generated_Source\PSoC6\pdl\drivers\peripheral\prot/cy_prot.c **** * enabled. 
 861:Generated_Source\PSoC6\pdl\drivers\peripheral\prot/cy_prot.c **** *
 862:Generated_Source\PSoC6\pdl\drivers\peripheral\prot/cy_prot.c **** * \param base
 863:Generated_Source\PSoC6\pdl\drivers\peripheral\prot/cy_prot.c **** * The register base address of the protection structure being configured.
 864:Generated_Source\PSoC6\pdl\drivers\peripheral\prot/cy_prot.c **** * 
 865:Generated_Source\PSoC6\pdl\drivers\peripheral\prot/cy_prot.c **** * \param config
 866:Generated_Source\PSoC6\pdl\drivers\peripheral\prot/cy_prot.c **** * Initialization structure with all the protection attributes.
 867:Generated_Source\PSoC6\pdl\drivers\peripheral\prot/cy_prot.c **** * 
 868:Generated_Source\PSoC6\pdl\drivers\peripheral\prot/cy_prot.c **** * \return
 869:Generated_Source\PSoC6\pdl\drivers\peripheral\prot/cy_prot.c **** * Status of the function call.
 870:Generated_Source\PSoC6\pdl\drivers\peripheral\prot/cy_prot.c **** *
 871:Generated_Source\PSoC6\pdl\drivers\peripheral\prot/cy_prot.c **** *   Status               | Description
ARM GAS  C:\Users\kiwamu\AppData\Local\Temp\ccLfX6Zi.s 			page 37


 872:Generated_Source\PSoC6\pdl\drivers\peripheral\prot/cy_prot.c **** *   ------------         | -----------
 873:Generated_Source\PSoC6\pdl\drivers\peripheral\prot/cy_prot.c **** *   CY_PROT_SUCCESS      | PPU GR slave struct was successfully configured
 874:Generated_Source\PSoC6\pdl\drivers\peripheral\prot/cy_prot.c **** *   CY_PROT_FAILURE      | The resource is locked
 875:Generated_Source\PSoC6\pdl\drivers\peripheral\prot/cy_prot.c **** *   CY_PROT_BAD_PARAM    | An incorrect/invalid parameter was passed
 876:Generated_Source\PSoC6\pdl\drivers\peripheral\prot/cy_prot.c **** *  
 877:Generated_Source\PSoC6\pdl\drivers\peripheral\prot/cy_prot.c **** *******************************************************************************/
 878:Generated_Source\PSoC6\pdl\drivers\peripheral\prot/cy_prot.c **** cy_en_prot_status_t Cy_Prot_ConfigPpuFixedGrSlaveStruct(PERI_PPU_GR_Type* base, const cy_stc_ppu_gr
 879:Generated_Source\PSoC6\pdl\drivers\peripheral\prot/cy_prot.c **** {
 1161              		.loc 1 879 0
 1162              		.cfi_startproc
 1163              		@ args = 0, pretend = 0, frame = 0
 1164              		@ frame_needed = 0, uses_anonymous_args = 0
 1165              		@ link register save eliminated.
 1166              	.LVL129:
 1167 0000 10B4     		push	{r4}
 1168              		.cfi_def_cfa_offset 4
 1169              		.cfi_offset 4, -4
 1170              	.LVL130:
 880:Generated_Source\PSoC6\pdl\drivers\peripheral\prot/cy_prot.c ****     cy_en_prot_status_t status = CY_PROT_SUCCESS;
 881:Generated_Source\PSoC6\pdl\drivers\peripheral\prot/cy_prot.c ****     uint32_t attReg;
 882:Generated_Source\PSoC6\pdl\drivers\peripheral\prot/cy_prot.c ****     
 883:Generated_Source\PSoC6\pdl\drivers\peripheral\prot/cy_prot.c ****     if(((uint32_t)config->pcMask & CY_PROT_PPU_FIXED_PC_LIMIT_MASK) != 0UL) 
 1171              		.loc 1 883 0
 1172 0002 8C88     		ldrh	r4, [r1, #4]
 1173 0004 34F07F03 		bics	r3, r4, #127
 1174 0008 27D1     		bne	.L114
 884:Generated_Source\PSoC6\pdl\drivers\peripheral\prot/cy_prot.c ****     {
 885:Generated_Source\PSoC6\pdl\drivers\peripheral\prot/cy_prot.c ****         /* PC mask out of range - not supported in device */
 886:Generated_Source\PSoC6\pdl\drivers\peripheral\prot/cy_prot.c ****         status = CY_PROT_BAD_PARAM;
 887:Generated_Source\PSoC6\pdl\drivers\peripheral\prot/cy_prot.c ****     }
 888:Generated_Source\PSoC6\pdl\drivers\peripheral\prot/cy_prot.c ****     else
 889:Generated_Source\PSoC6\pdl\drivers\peripheral\prot/cy_prot.c ****     {
 890:Generated_Source\PSoC6\pdl\drivers\peripheral\prot/cy_prot.c ****         /* ADDR0 is read only. Only configure ATT0 */
 891:Generated_Source\PSoC6\pdl\drivers\peripheral\prot/cy_prot.c ****         attReg = (uint32_t)(((uint32_t)config->userPermission & CY_PROT_ATT_PERMISSION_MASK))
 1175              		.loc 1 891 0
 1176 000a 0B78     		ldrb	r3, [r1]	@ zero_extendqisi2
 1177 000c 03F00703 		and	r3, r3, #7
 892:Generated_Source\PSoC6\pdl\drivers\peripheral\prot/cy_prot.c ****                     | (uint32_t)(((uint32_t)config->privPermission & CY_PROT_ATT_PERMISSION_MASK) <
 1178              		.loc 1 892 0
 1179 0010 4A78     		ldrb	r2, [r1, #1]	@ zero_extendqisi2
 1180 0012 D200     		lsls	r2, r2, #3
 1181 0014 02F03802 		and	r2, r2, #56
 1182 0018 1343     		orrs	r3, r3, r2
 893:Generated_Source\PSoC6\pdl\drivers\peripheral\prot/cy_prot.c ****                     | _VAL2FLD(PERI_PPU_GR_ATT0_NS, !(config->secure))
 1183              		.loc 1 893 0
 1184 001a 8A78     		ldrb	r2, [r1, #2]	@ zero_extendqisi2
 1185 001c 82F00102 		eor	r2, r2, #1
 1186 0020 9201     		lsls	r2, r2, #6
 1187 0022 02F04002 		and	r2, r2, #64
 1188 0026 1343     		orrs	r3, r3, r2
 894:Generated_Source\PSoC6\pdl\drivers\peripheral\prot/cy_prot.c ****                     | _VAL2FLD(PERI_PPU_GR_ATT0_PC_MASK_15_TO_1, config->pcMask)
 1189              		.loc 1 894 0
 1190 0028 104A     		ldr	r2, .L118
 1191 002a 02EA4424 		and	r4, r2, r4, lsl #9
 1192 002e 2343     		orrs	r3, r3, r4
 895:Generated_Source\PSoC6\pdl\drivers\peripheral\prot/cy_prot.c ****                     /* No region size - read only */
 896:Generated_Source\PSoC6\pdl\drivers\peripheral\prot/cy_prot.c ****                     | _VAL2FLD(PERI_PPU_GR_ATT0_PC_MATCH, config->pcMatch);
ARM GAS  C:\Users\kiwamu\AppData\Local\Temp\ccLfX6Zi.s 			page 38


 1193              		.loc 1 896 0
 1194 0030 CA78     		ldrb	r2, [r1, #3]	@ zero_extendqisi2
 1195 0032 9207     		lsls	r2, r2, #30
 1196 0034 02F08042 		and	r2, r2, #1073741824
 891:Generated_Source\PSoC6\pdl\drivers\peripheral\prot/cy_prot.c ****                     | (uint32_t)(((uint32_t)config->privPermission & CY_PROT_ATT_PERMISSION_MASK) <
 1197              		.loc 1 891 0
 1198 0038 1343     		orrs	r3, r3, r2
 1199              	.LVL131:
 897:Generated_Source\PSoC6\pdl\drivers\peripheral\prot/cy_prot.c ****         if ((attReg & CY_PROT_PPU_GR_ATT0_MASK) != attReg)
 1200              		.loc 1 897 0
 1201 003a 23F03F42 		bic	r2, r3, #-1090519040
 1202 003e 22F4D272 		bic	r2, r2, #420
 1203 0042 9342     		cmp	r3, r2
 1204 0044 0BD1     		bne	.L115
 898:Generated_Source\PSoC6\pdl\drivers\peripheral\prot/cy_prot.c ****         {
 899:Generated_Source\PSoC6\pdl\drivers\peripheral\prot/cy_prot.c ****             /* Invalid parameter was passed */
 900:Generated_Source\PSoC6\pdl\drivers\peripheral\prot/cy_prot.c ****             status = CY_PROT_BAD_PARAM;
 901:Generated_Source\PSoC6\pdl\drivers\peripheral\prot/cy_prot.c ****         }
 902:Generated_Source\PSoC6\pdl\drivers\peripheral\prot/cy_prot.c ****         else
 903:Generated_Source\PSoC6\pdl\drivers\peripheral\prot/cy_prot.c ****         {
 904:Generated_Source\PSoC6\pdl\drivers\peripheral\prot/cy_prot.c ****             base->ATT0 = attReg;
 1205              		.loc 1 904 0
 1206 0046 4360     		str	r3, [r0, #4]
 905:Generated_Source\PSoC6\pdl\drivers\peripheral\prot/cy_prot.c ****             status = ((base->ATT0 & CY_PROT_PPU_GR_ATT0_MASK) != attReg) ? CY_PROT_FAILURE : CY_PRO
 1207              		.loc 1 905 0
 1208 0048 4268     		ldr	r2, [r0, #4]
 1209 004a 22F0F852 		bic	r2, r2, #520093696
 1210 004e 22F49272 		bic	r2, r2, #292
 1211 0052 9342     		cmp	r3, r2
 1212 0054 05D0     		beq	.L116
 1213 0056 0648     		ldr	r0, .L118+4
 1214              	.LVL132:
 1215 0058 04E0     		b	.L113
 1216              	.LVL133:
 1217              	.L114:
 886:Generated_Source\PSoC6\pdl\drivers\peripheral\prot/cy_prot.c ****     }
 1218              		.loc 1 886 0
 1219 005a 0648     		ldr	r0, .L118+8
 1220              	.LVL134:
 1221 005c 02E0     		b	.L113
 1222              	.LVL135:
 1223              	.L115:
 900:Generated_Source\PSoC6\pdl\drivers\peripheral\prot/cy_prot.c ****         }
 1224              		.loc 1 900 0
 1225 005e 0548     		ldr	r0, .L118+8
 1226              	.LVL136:
 1227 0060 00E0     		b	.L113
 1228              	.LVL137:
 1229              	.L116:
 1230              		.loc 1 905 0
 1231 0062 0020     		movs	r0, #0
 1232              	.LVL138:
 1233              	.L113:
 906:Generated_Source\PSoC6\pdl\drivers\peripheral\prot/cy_prot.c ****         }
 907:Generated_Source\PSoC6\pdl\drivers\peripheral\prot/cy_prot.c ****     }    
 908:Generated_Source\PSoC6\pdl\drivers\peripheral\prot/cy_prot.c ****     return status;
 909:Generated_Source\PSoC6\pdl\drivers\peripheral\prot/cy_prot.c **** }
ARM GAS  C:\Users\kiwamu\AppData\Local\Temp\ccLfX6Zi.s 			page 39


 1234              		.loc 1 909 0
 1235 0064 5DF8044B 		ldr	r4, [sp], #4
 1236              		.cfi_restore 4
 1237              		.cfi_def_cfa_offset 0
 1238 0068 7047     		bx	lr
 1239              	.L119:
 1240 006a 00BF     		.align	2
 1241              	.L118:
 1242 006c 00FEFF00 		.word	16776704
 1243 0070 0300C200 		.word	12713987
 1244 0074 0100C200 		.word	12713985
 1245              		.cfi_endproc
 1246              	.LFE142:
 1247              		.size	Cy_Prot_ConfigPpuFixedGrSlaveStruct, .-Cy_Prot_ConfigPpuFixedGrSlaveStruct
 1248              		.section	.text.Cy_Prot_EnablePpuFixedGrMasterStruct,"ax",%progbits
 1249              		.align	2
 1250              		.global	Cy_Prot_EnablePpuFixedGrMasterStruct
 1251              		.thumb
 1252              		.thumb_func
 1253              		.type	Cy_Prot_EnablePpuFixedGrMasterStruct, %function
 1254              	Cy_Prot_EnablePpuFixedGrMasterStruct:
 1255              	.LFB143:
 910:Generated_Source\PSoC6\pdl\drivers\peripheral\prot/cy_prot.c **** 
 911:Generated_Source\PSoC6\pdl\drivers\peripheral\prot/cy_prot.c **** 
 912:Generated_Source\PSoC6\pdl\drivers\peripheral\prot/cy_prot.c **** /*******************************************************************************
 913:Generated_Source\PSoC6\pdl\drivers\peripheral\prot/cy_prot.c **** * Function Name: Cy_Prot_EnablePpuFixedGrMasterStruct
 914:Generated_Source\PSoC6\pdl\drivers\peripheral\prot/cy_prot.c **** ****************************************************************************//**
 915:Generated_Source\PSoC6\pdl\drivers\peripheral\prot/cy_prot.c **** *
 916:Generated_Source\PSoC6\pdl\drivers\peripheral\prot/cy_prot.c **** * \brief Enables the Master PPU GR structure.
 917:Generated_Source\PSoC6\pdl\drivers\peripheral\prot/cy_prot.c **** *
 918:Generated_Source\PSoC6\pdl\drivers\peripheral\prot/cy_prot.c **** * This is a PPU GR master struct enable function. The PPU GR protection 
 919:Generated_Source\PSoC6\pdl\drivers\peripheral\prot/cy_prot.c **** * settings will take effect after successful completion of this function call.
 920:Generated_Source\PSoC6\pdl\drivers\peripheral\prot/cy_prot.c **** *
 921:Generated_Source\PSoC6\pdl\drivers\peripheral\prot/cy_prot.c **** * \param base
 922:Generated_Source\PSoC6\pdl\drivers\peripheral\prot/cy_prot.c **** * The base address for the protection unit structure being configured. 
 923:Generated_Source\PSoC6\pdl\drivers\peripheral\prot/cy_prot.c **** *
 924:Generated_Source\PSoC6\pdl\drivers\peripheral\prot/cy_prot.c **** * \return
 925:Generated_Source\PSoC6\pdl\drivers\peripheral\prot/cy_prot.c **** * Status of the function call.
 926:Generated_Source\PSoC6\pdl\drivers\peripheral\prot/cy_prot.c **** *
 927:Generated_Source\PSoC6\pdl\drivers\peripheral\prot/cy_prot.c **** *   Status               | Description
 928:Generated_Source\PSoC6\pdl\drivers\peripheral\prot/cy_prot.c **** *   ------------         | -----------
 929:Generated_Source\PSoC6\pdl\drivers\peripheral\prot/cy_prot.c **** *   CY_PROT_SUCCESS      | The Master PU struct was enabled
 930:Generated_Source\PSoC6\pdl\drivers\peripheral\prot/cy_prot.c **** *   CY_PROT_FAILURE      | The Master PU struct is disabled and possibly locked
 931:Generated_Source\PSoC6\pdl\drivers\peripheral\prot/cy_prot.c **** *  
 932:Generated_Source\PSoC6\pdl\drivers\peripheral\prot/cy_prot.c **** *******************************************************************************/
 933:Generated_Source\PSoC6\pdl\drivers\peripheral\prot/cy_prot.c **** cy_en_prot_status_t Cy_Prot_EnablePpuFixedGrMasterStruct(PERI_PPU_GR_Type* base)
 934:Generated_Source\PSoC6\pdl\drivers\peripheral\prot/cy_prot.c **** {
 1256              		.loc 1 934 0
 1257              		.cfi_startproc
 1258              		@ args = 0, pretend = 0, frame = 0
 1259              		@ frame_needed = 0, uses_anonymous_args = 0
 1260              		@ link register save eliminated.
 1261              	.LVL139:
 935:Generated_Source\PSoC6\pdl\drivers\peripheral\prot/cy_prot.c ****     cy_en_prot_status_t status = CY_PROT_SUCCESS;
 936:Generated_Source\PSoC6\pdl\drivers\peripheral\prot/cy_prot.c ****     
 937:Generated_Source\PSoC6\pdl\drivers\peripheral\prot/cy_prot.c ****     base->ATT1 |= _VAL2FLD(PERI_PPU_GR_ATT1_ENABLED, CY_PROT_STRUCT_ENABLE);
 1262              		.loc 1 937 0
ARM GAS  C:\Users\kiwamu\AppData\Local\Temp\ccLfX6Zi.s 			page 40


 1263 0000 436A     		ldr	r3, [r0, #36]
 1264 0002 43F00043 		orr	r3, r3, #-2147483648
 1265 0006 4362     		str	r3, [r0, #36]
 938:Generated_Source\PSoC6\pdl\drivers\peripheral\prot/cy_prot.c ****     status = (_FLD2VAL(PERI_PPU_GR_ATT1_ENABLED, base->ATT1) != CY_PROT_STRUCT_ENABLE) ?
 1266              		.loc 1 938 0
 1267 0008 436A     		ldr	r3, [r0, #36]
 1268 000a 002B     		cmp	r3, #0
 1269 000c 01DB     		blt	.L122
 1270 000e 0248     		ldr	r0, .L123
 1271              	.LVL140:
 1272 0010 7047     		bx	lr
 1273              	.LVL141:
 1274              	.L122:
 1275 0012 0020     		movs	r0, #0
 1276              	.LVL142:
 939:Generated_Source\PSoC6\pdl\drivers\peripheral\prot/cy_prot.c ****                 CY_PROT_FAILURE : CY_PROT_SUCCESS;
 940:Generated_Source\PSoC6\pdl\drivers\peripheral\prot/cy_prot.c ****     
 941:Generated_Source\PSoC6\pdl\drivers\peripheral\prot/cy_prot.c ****     return status;
 942:Generated_Source\PSoC6\pdl\drivers\peripheral\prot/cy_prot.c **** }
 1277              		.loc 1 942 0
 1278 0014 7047     		bx	lr
 1279              	.L124:
 1280 0016 00BF     		.align	2
 1281              	.L123:
 1282 0018 0300C200 		.word	12713987
 1283              		.cfi_endproc
 1284              	.LFE143:
 1285              		.size	Cy_Prot_EnablePpuFixedGrMasterStruct, .-Cy_Prot_EnablePpuFixedGrMasterStruct
 1286              		.section	.text.Cy_Prot_DisablePpuFixedGrMasterStruct,"ax",%progbits
 1287              		.align	2
 1288              		.global	Cy_Prot_DisablePpuFixedGrMasterStruct
 1289              		.thumb
 1290              		.thumb_func
 1291              		.type	Cy_Prot_DisablePpuFixedGrMasterStruct, %function
 1292              	Cy_Prot_DisablePpuFixedGrMasterStruct:
 1293              	.LFB144:
 943:Generated_Source\PSoC6\pdl\drivers\peripheral\prot/cy_prot.c **** 
 944:Generated_Source\PSoC6\pdl\drivers\peripheral\prot/cy_prot.c **** 
 945:Generated_Source\PSoC6\pdl\drivers\peripheral\prot/cy_prot.c **** /*******************************************************************************
 946:Generated_Source\PSoC6\pdl\drivers\peripheral\prot/cy_prot.c **** * Function Name: Cy_Prot_DisablePpuFixedGrMasterStruct
 947:Generated_Source\PSoC6\pdl\drivers\peripheral\prot/cy_prot.c **** ****************************************************************************//**
 948:Generated_Source\PSoC6\pdl\drivers\peripheral\prot/cy_prot.c **** *
 949:Generated_Source\PSoC6\pdl\drivers\peripheral\prot/cy_prot.c **** * \brief Disables the Master PPU GR structure.
 950:Generated_Source\PSoC6\pdl\drivers\peripheral\prot/cy_prot.c **** *
 951:Generated_Source\PSoC6\pdl\drivers\peripheral\prot/cy_prot.c **** * This is a PPU GR master struct disable function. The PPU GR protection 
 952:Generated_Source\PSoC6\pdl\drivers\peripheral\prot/cy_prot.c **** * settings will seize to take effect after successful completion of this 
 953:Generated_Source\PSoC6\pdl\drivers\peripheral\prot/cy_prot.c **** * function call.
 954:Generated_Source\PSoC6\pdl\drivers\peripheral\prot/cy_prot.c **** *
 955:Generated_Source\PSoC6\pdl\drivers\peripheral\prot/cy_prot.c **** * \param base
 956:Generated_Source\PSoC6\pdl\drivers\peripheral\prot/cy_prot.c **** * The base address for the protection unit structure being configured. 
 957:Generated_Source\PSoC6\pdl\drivers\peripheral\prot/cy_prot.c **** *
 958:Generated_Source\PSoC6\pdl\drivers\peripheral\prot/cy_prot.c **** * \return
 959:Generated_Source\PSoC6\pdl\drivers\peripheral\prot/cy_prot.c **** * Status of the function call.
 960:Generated_Source\PSoC6\pdl\drivers\peripheral\prot/cy_prot.c **** *
 961:Generated_Source\PSoC6\pdl\drivers\peripheral\prot/cy_prot.c **** *   Status               | Description
 962:Generated_Source\PSoC6\pdl\drivers\peripheral\prot/cy_prot.c **** *   ------------         | -----------
 963:Generated_Source\PSoC6\pdl\drivers\peripheral\prot/cy_prot.c **** *   CY_PROT_SUCCESS      | The Master PU struct was disabled
ARM GAS  C:\Users\kiwamu\AppData\Local\Temp\ccLfX6Zi.s 			page 41


 964:Generated_Source\PSoC6\pdl\drivers\peripheral\prot/cy_prot.c **** *   CY_PROT_FAILURE      | The Master PU struct is enabled and possibly locked
 965:Generated_Source\PSoC6\pdl\drivers\peripheral\prot/cy_prot.c **** *  
 966:Generated_Source\PSoC6\pdl\drivers\peripheral\prot/cy_prot.c **** *******************************************************************************/
 967:Generated_Source\PSoC6\pdl\drivers\peripheral\prot/cy_prot.c **** cy_en_prot_status_t Cy_Prot_DisablePpuFixedGrMasterStruct(PERI_PPU_GR_Type* base)
 968:Generated_Source\PSoC6\pdl\drivers\peripheral\prot/cy_prot.c **** {
 1294              		.loc 1 968 0
 1295              		.cfi_startproc
 1296              		@ args = 0, pretend = 0, frame = 0
 1297              		@ frame_needed = 0, uses_anonymous_args = 0
 1298              		@ link register save eliminated.
 1299              	.LVL143:
 969:Generated_Source\PSoC6\pdl\drivers\peripheral\prot/cy_prot.c ****     cy_en_prot_status_t status = CY_PROT_SUCCESS;
 970:Generated_Source\PSoC6\pdl\drivers\peripheral\prot/cy_prot.c ****     
 971:Generated_Source\PSoC6\pdl\drivers\peripheral\prot/cy_prot.c ****     base->ATT1 &= ~_VAL2FLD(PERI_PPU_GR_ATT1_ENABLED, CY_PROT_STRUCT_ENABLE);
 1300              		.loc 1 971 0
 1301 0000 436A     		ldr	r3, [r0, #36]
 1302 0002 23F00043 		bic	r3, r3, #-2147483648
 1303 0006 4362     		str	r3, [r0, #36]
 972:Generated_Source\PSoC6\pdl\drivers\peripheral\prot/cy_prot.c ****     status = (_FLD2VAL(PERI_PPU_GR_ATT1_ENABLED, base->ATT1) == CY_PROT_STRUCT_ENABLE) ?
 1304              		.loc 1 972 0
 1305 0008 436A     		ldr	r3, [r0, #36]
 1306 000a 002B     		cmp	r3, #0
 1307 000c 01DA     		bge	.L127
 1308 000e 0248     		ldr	r0, .L128
 1309              	.LVL144:
 1310 0010 7047     		bx	lr
 1311              	.LVL145:
 1312              	.L127:
 1313 0012 0020     		movs	r0, #0
 1314              	.LVL146:
 973:Generated_Source\PSoC6\pdl\drivers\peripheral\prot/cy_prot.c ****                 CY_PROT_FAILURE : CY_PROT_SUCCESS;
 974:Generated_Source\PSoC6\pdl\drivers\peripheral\prot/cy_prot.c ****     
 975:Generated_Source\PSoC6\pdl\drivers\peripheral\prot/cy_prot.c ****     return status;
 976:Generated_Source\PSoC6\pdl\drivers\peripheral\prot/cy_prot.c **** }
 1315              		.loc 1 976 0
 1316 0014 7047     		bx	lr
 1317              	.L129:
 1318 0016 00BF     		.align	2
 1319              	.L128:
 1320 0018 0300C200 		.word	12713987
 1321              		.cfi_endproc
 1322              	.LFE144:
 1323              		.size	Cy_Prot_DisablePpuFixedGrMasterStruct, .-Cy_Prot_DisablePpuFixedGrMasterStruct
 1324              		.section	.text.Cy_Prot_EnablePpuFixedGrSlaveStruct,"ax",%progbits
 1325              		.align	2
 1326              		.global	Cy_Prot_EnablePpuFixedGrSlaveStruct
 1327              		.thumb
 1328              		.thumb_func
 1329              		.type	Cy_Prot_EnablePpuFixedGrSlaveStruct, %function
 1330              	Cy_Prot_EnablePpuFixedGrSlaveStruct:
 1331              	.LFB145:
 977:Generated_Source\PSoC6\pdl\drivers\peripheral\prot/cy_prot.c **** 
 978:Generated_Source\PSoC6\pdl\drivers\peripheral\prot/cy_prot.c **** 
 979:Generated_Source\PSoC6\pdl\drivers\peripheral\prot/cy_prot.c **** /*******************************************************************************
 980:Generated_Source\PSoC6\pdl\drivers\peripheral\prot/cy_prot.c **** * Function Name: Cy_Prot_EnablePpuFixedGrSlaveStruct
 981:Generated_Source\PSoC6\pdl\drivers\peripheral\prot/cy_prot.c **** ****************************************************************************//**
 982:Generated_Source\PSoC6\pdl\drivers\peripheral\prot/cy_prot.c **** *
ARM GAS  C:\Users\kiwamu\AppData\Local\Temp\ccLfX6Zi.s 			page 42


 983:Generated_Source\PSoC6\pdl\drivers\peripheral\prot/cy_prot.c **** * \brief Enables the Slave PPU GR structure.
 984:Generated_Source\PSoC6\pdl\drivers\peripheral\prot/cy_prot.c **** *
 985:Generated_Source\PSoC6\pdl\drivers\peripheral\prot/cy_prot.c **** * This is a PPU GR slave struct enable function. The PPU GR protection 
 986:Generated_Source\PSoC6\pdl\drivers\peripheral\prot/cy_prot.c **** * settings will take effect after successful completion of this function call.
 987:Generated_Source\PSoC6\pdl\drivers\peripheral\prot/cy_prot.c **** *
 988:Generated_Source\PSoC6\pdl\drivers\peripheral\prot/cy_prot.c **** * \param base
 989:Generated_Source\PSoC6\pdl\drivers\peripheral\prot/cy_prot.c **** * The base address for the protection unit structure being configured. 
 990:Generated_Source\PSoC6\pdl\drivers\peripheral\prot/cy_prot.c **** *
 991:Generated_Source\PSoC6\pdl\drivers\peripheral\prot/cy_prot.c **** * \return
 992:Generated_Source\PSoC6\pdl\drivers\peripheral\prot/cy_prot.c **** * Status of the function call.
 993:Generated_Source\PSoC6\pdl\drivers\peripheral\prot/cy_prot.c **** *
 994:Generated_Source\PSoC6\pdl\drivers\peripheral\prot/cy_prot.c **** *   Status               | Description
 995:Generated_Source\PSoC6\pdl\drivers\peripheral\prot/cy_prot.c **** *   ------------         | -----------
 996:Generated_Source\PSoC6\pdl\drivers\peripheral\prot/cy_prot.c **** *   CY_PROT_SUCCESS      | The Slave PU struct was enabled
 997:Generated_Source\PSoC6\pdl\drivers\peripheral\prot/cy_prot.c **** *   CY_PROT_FAILURE      | The Slave PU struct is disabled and possibly locked
 998:Generated_Source\PSoC6\pdl\drivers\peripheral\prot/cy_prot.c **** *  
 999:Generated_Source\PSoC6\pdl\drivers\peripheral\prot/cy_prot.c **** *******************************************************************************/
1000:Generated_Source\PSoC6\pdl\drivers\peripheral\prot/cy_prot.c **** cy_en_prot_status_t Cy_Prot_EnablePpuFixedGrSlaveStruct(PERI_PPU_GR_Type* base)
1001:Generated_Source\PSoC6\pdl\drivers\peripheral\prot/cy_prot.c **** {   
 1332              		.loc 1 1001 0
 1333              		.cfi_startproc
 1334              		@ args = 0, pretend = 0, frame = 0
 1335              		@ frame_needed = 0, uses_anonymous_args = 0
 1336              		@ link register save eliminated.
 1337              	.LVL147:
1002:Generated_Source\PSoC6\pdl\drivers\peripheral\prot/cy_prot.c ****     cy_en_prot_status_t status = CY_PROT_SUCCESS;
1003:Generated_Source\PSoC6\pdl\drivers\peripheral\prot/cy_prot.c ****     
1004:Generated_Source\PSoC6\pdl\drivers\peripheral\prot/cy_prot.c ****     base->ATT0 |= _VAL2FLD(PERI_PPU_GR_ATT0_ENABLED, CY_PROT_STRUCT_ENABLE);
 1338              		.loc 1 1004 0
 1339 0000 4368     		ldr	r3, [r0, #4]
 1340 0002 43F00043 		orr	r3, r3, #-2147483648
 1341 0006 4360     		str	r3, [r0, #4]
1005:Generated_Source\PSoC6\pdl\drivers\peripheral\prot/cy_prot.c ****     status = (_FLD2VAL(PERI_PPU_GR_ATT0_ENABLED, base->ATT0) != CY_PROT_STRUCT_ENABLE) ?
 1342              		.loc 1 1005 0
 1343 0008 4368     		ldr	r3, [r0, #4]
 1344 000a 002B     		cmp	r3, #0
 1345 000c 01DB     		blt	.L132
 1346 000e 0248     		ldr	r0, .L133
 1347              	.LVL148:
 1348 0010 7047     		bx	lr
 1349              	.LVL149:
 1350              	.L132:
 1351 0012 0020     		movs	r0, #0
 1352              	.LVL150:
1006:Generated_Source\PSoC6\pdl\drivers\peripheral\prot/cy_prot.c ****                 CY_PROT_FAILURE : CY_PROT_SUCCESS;
1007:Generated_Source\PSoC6\pdl\drivers\peripheral\prot/cy_prot.c ****     
1008:Generated_Source\PSoC6\pdl\drivers\peripheral\prot/cy_prot.c ****     return status;
1009:Generated_Source\PSoC6\pdl\drivers\peripheral\prot/cy_prot.c **** }
 1353              		.loc 1 1009 0
 1354 0014 7047     		bx	lr
 1355              	.L134:
 1356 0016 00BF     		.align	2
 1357              	.L133:
 1358 0018 0300C200 		.word	12713987
 1359              		.cfi_endproc
 1360              	.LFE145:
 1361              		.size	Cy_Prot_EnablePpuFixedGrSlaveStruct, .-Cy_Prot_EnablePpuFixedGrSlaveStruct
ARM GAS  C:\Users\kiwamu\AppData\Local\Temp\ccLfX6Zi.s 			page 43


 1362              		.section	.text.Cy_Prot_DisablePpuFixedGrSlaveStruct,"ax",%progbits
 1363              		.align	2
 1364              		.global	Cy_Prot_DisablePpuFixedGrSlaveStruct
 1365              		.thumb
 1366              		.thumb_func
 1367              		.type	Cy_Prot_DisablePpuFixedGrSlaveStruct, %function
 1368              	Cy_Prot_DisablePpuFixedGrSlaveStruct:
 1369              	.LFB146:
1010:Generated_Source\PSoC6\pdl\drivers\peripheral\prot/cy_prot.c **** 
1011:Generated_Source\PSoC6\pdl\drivers\peripheral\prot/cy_prot.c **** 
1012:Generated_Source\PSoC6\pdl\drivers\peripheral\prot/cy_prot.c **** /*******************************************************************************
1013:Generated_Source\PSoC6\pdl\drivers\peripheral\prot/cy_prot.c **** * Function Name: Cy_Prot_DisablePpuFixedGrSlaveStruct
1014:Generated_Source\PSoC6\pdl\drivers\peripheral\prot/cy_prot.c **** ****************************************************************************//**
1015:Generated_Source\PSoC6\pdl\drivers\peripheral\prot/cy_prot.c **** *
1016:Generated_Source\PSoC6\pdl\drivers\peripheral\prot/cy_prot.c **** * \brief Disables the Slave PPU GR structure.
1017:Generated_Source\PSoC6\pdl\drivers\peripheral\prot/cy_prot.c **** *
1018:Generated_Source\PSoC6\pdl\drivers\peripheral\prot/cy_prot.c **** * This is a PPU GR slave struct disable function. The PPU GR protection 
1019:Generated_Source\PSoC6\pdl\drivers\peripheral\prot/cy_prot.c **** * settings will seize to take effect after successful completion of this 
1020:Generated_Source\PSoC6\pdl\drivers\peripheral\prot/cy_prot.c **** * function call.
1021:Generated_Source\PSoC6\pdl\drivers\peripheral\prot/cy_prot.c **** *
1022:Generated_Source\PSoC6\pdl\drivers\peripheral\prot/cy_prot.c **** * \param base
1023:Generated_Source\PSoC6\pdl\drivers\peripheral\prot/cy_prot.c **** * The base address for the protection unit structure being configured. 
1024:Generated_Source\PSoC6\pdl\drivers\peripheral\prot/cy_prot.c **** *
1025:Generated_Source\PSoC6\pdl\drivers\peripheral\prot/cy_prot.c **** * \return
1026:Generated_Source\PSoC6\pdl\drivers\peripheral\prot/cy_prot.c **** * Status of the function call.
1027:Generated_Source\PSoC6\pdl\drivers\peripheral\prot/cy_prot.c **** *
1028:Generated_Source\PSoC6\pdl\drivers\peripheral\prot/cy_prot.c **** *   Status               | Description
1029:Generated_Source\PSoC6\pdl\drivers\peripheral\prot/cy_prot.c **** *   ------------         | -----------
1030:Generated_Source\PSoC6\pdl\drivers\peripheral\prot/cy_prot.c **** *   CY_PROT_SUCCESS      | The Slave PU struct was disabled
1031:Generated_Source\PSoC6\pdl\drivers\peripheral\prot/cy_prot.c **** *   CY_PROT_FAILURE      | The Slave PU struct is enabled and possibly locked
1032:Generated_Source\PSoC6\pdl\drivers\peripheral\prot/cy_prot.c **** *  
1033:Generated_Source\PSoC6\pdl\drivers\peripheral\prot/cy_prot.c **** *******************************************************************************/
1034:Generated_Source\PSoC6\pdl\drivers\peripheral\prot/cy_prot.c **** cy_en_prot_status_t Cy_Prot_DisablePpuFixedGrSlaveStruct(PERI_PPU_GR_Type* base)
1035:Generated_Source\PSoC6\pdl\drivers\peripheral\prot/cy_prot.c **** {
 1370              		.loc 1 1035 0
 1371              		.cfi_startproc
 1372              		@ args = 0, pretend = 0, frame = 0
 1373              		@ frame_needed = 0, uses_anonymous_args = 0
 1374              		@ link register save eliminated.
 1375              	.LVL151:
1036:Generated_Source\PSoC6\pdl\drivers\peripheral\prot/cy_prot.c ****     cy_en_prot_status_t status = CY_PROT_SUCCESS;
1037:Generated_Source\PSoC6\pdl\drivers\peripheral\prot/cy_prot.c ****     
1038:Generated_Source\PSoC6\pdl\drivers\peripheral\prot/cy_prot.c ****     base->ATT0 &= ~_VAL2FLD(PERI_PPU_GR_ATT0_ENABLED, CY_PROT_STRUCT_ENABLE);
 1376              		.loc 1 1038 0
 1377 0000 4368     		ldr	r3, [r0, #4]
 1378 0002 23F00043 		bic	r3, r3, #-2147483648
 1379 0006 4360     		str	r3, [r0, #4]
1039:Generated_Source\PSoC6\pdl\drivers\peripheral\prot/cy_prot.c ****     status = (_FLD2VAL(PERI_PPU_GR_ATT0_ENABLED, base->ATT0) == CY_PROT_STRUCT_ENABLE) ?
 1380              		.loc 1 1039 0
 1381 0008 4368     		ldr	r3, [r0, #4]
 1382 000a 002B     		cmp	r3, #0
 1383 000c 01DA     		bge	.L137
 1384 000e 0248     		ldr	r0, .L138
 1385              	.LVL152:
 1386 0010 7047     		bx	lr
 1387              	.LVL153:
 1388              	.L137:
ARM GAS  C:\Users\kiwamu\AppData\Local\Temp\ccLfX6Zi.s 			page 44


 1389 0012 0020     		movs	r0, #0
 1390              	.LVL154:
1040:Generated_Source\PSoC6\pdl\drivers\peripheral\prot/cy_prot.c ****                 CY_PROT_FAILURE : CY_PROT_SUCCESS;
1041:Generated_Source\PSoC6\pdl\drivers\peripheral\prot/cy_prot.c ****     
1042:Generated_Source\PSoC6\pdl\drivers\peripheral\prot/cy_prot.c ****     return status;
1043:Generated_Source\PSoC6\pdl\drivers\peripheral\prot/cy_prot.c **** }
 1391              		.loc 1 1043 0
 1392 0014 7047     		bx	lr
 1393              	.L139:
 1394 0016 00BF     		.align	2
 1395              	.L138:
 1396 0018 0300C200 		.word	12713987
 1397              		.cfi_endproc
 1398              	.LFE146:
 1399              		.size	Cy_Prot_DisablePpuFixedGrSlaveStruct, .-Cy_Prot_DisablePpuFixedGrSlaveStruct
 1400              		.section	.text.Cy_Prot_ConfigPpuFixedSlMasterStruct,"ax",%progbits
 1401              		.align	2
 1402              		.global	Cy_Prot_ConfigPpuFixedSlMasterStruct
 1403              		.thumb
 1404              		.thumb_func
 1405              		.type	Cy_Prot_ConfigPpuFixedSlMasterStruct, %function
 1406              	Cy_Prot_ConfigPpuFixedSlMasterStruct:
 1407              	.LFB147:
1044:Generated_Source\PSoC6\pdl\drivers\peripheral\prot/cy_prot.c **** 
1045:Generated_Source\PSoC6\pdl\drivers\peripheral\prot/cy_prot.c **** 
1046:Generated_Source\PSoC6\pdl\drivers\peripheral\prot/cy_prot.c **** /*******************************************************************************
1047:Generated_Source\PSoC6\pdl\drivers\peripheral\prot/cy_prot.c **** * Function Name: Cy_Prot_ConfigPpuFixedSlMasterStruct
1048:Generated_Source\PSoC6\pdl\drivers\peripheral\prot/cy_prot.c **** ****************************************************************************//**
1049:Generated_Source\PSoC6\pdl\drivers\peripheral\prot/cy_prot.c **** *
1050:Generated_Source\PSoC6\pdl\drivers\peripheral\prot/cy_prot.c **** * \brief Configures a Fixed Peripheral Slave Protection Unit (PPU SL) master 
1051:Generated_Source\PSoC6\pdl\drivers\peripheral\prot/cy_prot.c **** * protection struct with its protection attributes. 
1052:Generated_Source\PSoC6\pdl\drivers\peripheral\prot/cy_prot.c **** *
1053:Generated_Source\PSoC6\pdl\drivers\peripheral\prot/cy_prot.c **** * This function configures the master struct governing the corresponding slave
1054:Generated_Source\PSoC6\pdl\drivers\peripheral\prot/cy_prot.c **** * struct pair. It is a mechanism to protect the slave PPU SL struct. Since
1055:Generated_Source\PSoC6\pdl\drivers\peripheral\prot/cy_prot.c **** * the memory location of the slave struct is known, the address, regionSize and
1056:Generated_Source\PSoC6\pdl\drivers\peripheral\prot/cy_prot.c **** * subregions of the configuration struct are not applicable.
1057:Generated_Source\PSoC6\pdl\drivers\peripheral\prot/cy_prot.c **** *
1058:Generated_Source\PSoC6\pdl\drivers\peripheral\prot/cy_prot.c **** * Note that only the user/privileged write permissions are configurable. The 
1059:Generated_Source\PSoC6\pdl\drivers\peripheral\prot/cy_prot.c **** * read and execute permissions are read-only and cannot be configured.
1060:Generated_Source\PSoC6\pdl\drivers\peripheral\prot/cy_prot.c **** *
1061:Generated_Source\PSoC6\pdl\drivers\peripheral\prot/cy_prot.c **** * \param base
1062:Generated_Source\PSoC6\pdl\drivers\peripheral\prot/cy_prot.c **** * The register base address of the protection struct being configured.
1063:Generated_Source\PSoC6\pdl\drivers\peripheral\prot/cy_prot.c **** * 
1064:Generated_Source\PSoC6\pdl\drivers\peripheral\prot/cy_prot.c **** * \param config
1065:Generated_Source\PSoC6\pdl\drivers\peripheral\prot/cy_prot.c **** * Initialization structure with all the protection attributes.
1066:Generated_Source\PSoC6\pdl\drivers\peripheral\prot/cy_prot.c **** * 
1067:Generated_Source\PSoC6\pdl\drivers\peripheral\prot/cy_prot.c **** * \return
1068:Generated_Source\PSoC6\pdl\drivers\peripheral\prot/cy_prot.c **** * Status of the function call.
1069:Generated_Source\PSoC6\pdl\drivers\peripheral\prot/cy_prot.c **** *
1070:Generated_Source\PSoC6\pdl\drivers\peripheral\prot/cy_prot.c **** *   Status               | Description
1071:Generated_Source\PSoC6\pdl\drivers\peripheral\prot/cy_prot.c **** *   ------------         | -----------
1072:Generated_Source\PSoC6\pdl\drivers\peripheral\prot/cy_prot.c **** *   CY_PROT_SUCCESS      | PPU SL master struct was successfully configured
1073:Generated_Source\PSoC6\pdl\drivers\peripheral\prot/cy_prot.c **** *   CY_PROT_FAILURE      | The resource is locked
1074:Generated_Source\PSoC6\pdl\drivers\peripheral\prot/cy_prot.c **** *   CY_PROT_BAD_PARAM    | An incorrect/invalid parameter was passed
1075:Generated_Source\PSoC6\pdl\drivers\peripheral\prot/cy_prot.c **** *  
1076:Generated_Source\PSoC6\pdl\drivers\peripheral\prot/cy_prot.c **** *******************************************************************************/
1077:Generated_Source\PSoC6\pdl\drivers\peripheral\prot/cy_prot.c **** cy_en_prot_status_t Cy_Prot_ConfigPpuFixedSlMasterStruct(PERI_GR_PPU_SL_Type* base, const cy_stc_pp
ARM GAS  C:\Users\kiwamu\AppData\Local\Temp\ccLfX6Zi.s 			page 45


1078:Generated_Source\PSoC6\pdl\drivers\peripheral\prot/cy_prot.c **** {
 1408              		.loc 1 1078 0
 1409              		.cfi_startproc
 1410              		@ args = 0, pretend = 0, frame = 0
 1411              		@ frame_needed = 0, uses_anonymous_args = 0
 1412              		@ link register save eliminated.
 1413              	.LVL155:
 1414 0000 10B4     		push	{r4}
 1415              		.cfi_def_cfa_offset 4
 1416              		.cfi_offset 4, -4
 1417              	.LVL156:
1079:Generated_Source\PSoC6\pdl\drivers\peripheral\prot/cy_prot.c ****     cy_en_prot_status_t status = CY_PROT_SUCCESS;
1080:Generated_Source\PSoC6\pdl\drivers\peripheral\prot/cy_prot.c ****     uint32_t attReg;
1081:Generated_Source\PSoC6\pdl\drivers\peripheral\prot/cy_prot.c ****     
1082:Generated_Source\PSoC6\pdl\drivers\peripheral\prot/cy_prot.c ****     if(((uint32_t)config->pcMask & CY_PROT_PPU_FIXED_PC_LIMIT_MASK) != 0UL) 
 1418              		.loc 1 1082 0
 1419 0002 8C88     		ldrh	r4, [r1, #4]
 1420 0004 34F07F03 		bics	r3, r4, #127
 1421 0008 23D1     		bne	.L142
1083:Generated_Source\PSoC6\pdl\drivers\peripheral\prot/cy_prot.c ****     {
1084:Generated_Source\PSoC6\pdl\drivers\peripheral\prot/cy_prot.c ****         /* PC mask out of range - not supported in device */
1085:Generated_Source\PSoC6\pdl\drivers\peripheral\prot/cy_prot.c ****         status = CY_PROT_BAD_PARAM;
1086:Generated_Source\PSoC6\pdl\drivers\peripheral\prot/cy_prot.c ****     }
1087:Generated_Source\PSoC6\pdl\drivers\peripheral\prot/cy_prot.c ****     else
1088:Generated_Source\PSoC6\pdl\drivers\peripheral\prot/cy_prot.c ****     {
1089:Generated_Source\PSoC6\pdl\drivers\peripheral\prot/cy_prot.c ****         /* ADDR1 is read only. Only configure ATT1 */
1090:Generated_Source\PSoC6\pdl\drivers\peripheral\prot/cy_prot.c ****         attReg = ((uint32_t)config->userPermission & CY_PROT_ATT_PERMISSION_MASK)
 1422              		.loc 1 1090 0
 1423 000a 0B78     		ldrb	r3, [r1]	@ zero_extendqisi2
 1424 000c 03F00703 		and	r3, r3, #7
1091:Generated_Source\PSoC6\pdl\drivers\peripheral\prot/cy_prot.c ****                     | (uint32_t)(((uint32_t)config->privPermission & CY_PROT_ATT_PERMISSION_MASK) <
 1425              		.loc 1 1091 0
 1426 0010 4A78     		ldrb	r2, [r1, #1]	@ zero_extendqisi2
 1427 0012 D200     		lsls	r2, r2, #3
 1428 0014 02F03802 		and	r2, r2, #56
 1429 0018 1343     		orrs	r3, r3, r2
1092:Generated_Source\PSoC6\pdl\drivers\peripheral\prot/cy_prot.c ****                     | _VAL2FLD(PERI_GR_PPU_SL_ATT1_NS, !(config->secure))
 1430              		.loc 1 1092 0
 1431 001a 8A78     		ldrb	r2, [r1, #2]	@ zero_extendqisi2
 1432 001c 82F00102 		eor	r2, r2, #1
 1433 0020 9201     		lsls	r2, r2, #6
 1434 0022 02F04002 		and	r2, r2, #64
 1435 0026 1343     		orrs	r3, r3, r2
1093:Generated_Source\PSoC6\pdl\drivers\peripheral\prot/cy_prot.c ****                     | _VAL2FLD(PERI_GR_PPU_SL_ATT1_PC_MASK_15_TO_1, config->pcMask)
 1436              		.loc 1 1093 0
 1437 0028 0E4A     		ldr	r2, .L146
 1438 002a 02EA4424 		and	r4, r2, r4, lsl #9
 1439 002e 2343     		orrs	r3, r3, r4
1094:Generated_Source\PSoC6\pdl\drivers\peripheral\prot/cy_prot.c ****                     /* No region size - read only for master structs */
1095:Generated_Source\PSoC6\pdl\drivers\peripheral\prot/cy_prot.c ****                     | _VAL2FLD(PERI_GR_PPU_SL_ATT1_PC_MATCH, config->pcMatch);
 1440              		.loc 1 1095 0
 1441 0030 CA78     		ldrb	r2, [r1, #3]	@ zero_extendqisi2
 1442 0032 9207     		lsls	r2, r2, #30
 1443 0034 02F08042 		and	r2, r2, #1073741824
1090:Generated_Source\PSoC6\pdl\drivers\peripheral\prot/cy_prot.c ****                     | (uint32_t)(((uint32_t)config->privPermission & CY_PROT_ATT_PERMISSION_MASK) <
 1444              		.loc 1 1090 0
 1445 0038 1343     		orrs	r3, r3, r2
ARM GAS  C:\Users\kiwamu\AppData\Local\Temp\ccLfX6Zi.s 			page 46


 1446              	.LVL157:
1096:Generated_Source\PSoC6\pdl\drivers\peripheral\prot/cy_prot.c ****         if ((attReg & CY_PROT_PPU_SL_ATT1_MASK) != attReg)
 1447              		.loc 1 1096 0
 1448 003a 0B4A     		ldr	r2, .L146+4
 1449 003c 1A40     		ands	r2, r2, r3
 1450 003e 9342     		cmp	r3, r2
 1451 0040 09D1     		bne	.L143
1097:Generated_Source\PSoC6\pdl\drivers\peripheral\prot/cy_prot.c ****         {
1098:Generated_Source\PSoC6\pdl\drivers\peripheral\prot/cy_prot.c ****             /* Invalid parameter was passed */
1099:Generated_Source\PSoC6\pdl\drivers\peripheral\prot/cy_prot.c ****             status = CY_PROT_BAD_PARAM;
1100:Generated_Source\PSoC6\pdl\drivers\peripheral\prot/cy_prot.c ****         }
1101:Generated_Source\PSoC6\pdl\drivers\peripheral\prot/cy_prot.c ****         else
1102:Generated_Source\PSoC6\pdl\drivers\peripheral\prot/cy_prot.c ****         {
1103:Generated_Source\PSoC6\pdl\drivers\peripheral\prot/cy_prot.c ****             base->ATT1 = attReg;
 1452              		.loc 1 1103 0
 1453 0042 4362     		str	r3, [r0, #36]
1104:Generated_Source\PSoC6\pdl\drivers\peripheral\prot/cy_prot.c ****             status = ((base->ATT1 & CY_PROT_PPU_SL_ATT1_MASK) != attReg) ? CY_PROT_FAILURE : CY_PRO
 1454              		.loc 1 1104 0
 1455 0044 416A     		ldr	r1, [r0, #36]
 1456              	.LVL158:
 1457 0046 094A     		ldr	r2, .L146+8
 1458 0048 0A40     		ands	r2, r2, r1
 1459 004a 9342     		cmp	r3, r2
 1460 004c 05D0     		beq	.L144
 1461 004e 0848     		ldr	r0, .L146+12
 1462              	.LVL159:
 1463 0050 04E0     		b	.L141
 1464              	.LVL160:
 1465              	.L142:
1085:Generated_Source\PSoC6\pdl\drivers\peripheral\prot/cy_prot.c ****     }
 1466              		.loc 1 1085 0
 1467 0052 0848     		ldr	r0, .L146+16
 1468              	.LVL161:
 1469 0054 02E0     		b	.L141
 1470              	.LVL162:
 1471              	.L143:
1099:Generated_Source\PSoC6\pdl\drivers\peripheral\prot/cy_prot.c ****         }
 1472              		.loc 1 1099 0
 1473 0056 0748     		ldr	r0, .L146+16
 1474              	.LVL163:
 1475 0058 00E0     		b	.L141
 1476              	.LVL164:
 1477              	.L144:
 1478              		.loc 1 1104 0
 1479 005a 0020     		movs	r0, #0
 1480              	.LVL165:
 1481              	.L141:
1105:Generated_Source\PSoC6\pdl\drivers\peripheral\prot/cy_prot.c ****         }
1106:Generated_Source\PSoC6\pdl\drivers\peripheral\prot/cy_prot.c ****     }
1107:Generated_Source\PSoC6\pdl\drivers\peripheral\prot/cy_prot.c ****     
1108:Generated_Source\PSoC6\pdl\drivers\peripheral\prot/cy_prot.c ****     return status;
1109:Generated_Source\PSoC6\pdl\drivers\peripheral\prot/cy_prot.c **** }
 1482              		.loc 1 1109 0
 1483 005c 5DF8044B 		ldr	r4, [sp], #4
 1484              		.cfi_restore 4
 1485              		.cfi_def_cfa_offset 0
 1486 0060 7047     		bx	lr
ARM GAS  C:\Users\kiwamu\AppData\Local\Temp\ccLfX6Zi.s 			page 47


 1487              	.L147:
 1488 0062 00BF     		.align	2
 1489              	.L146:
 1490 0064 00FEFF00 		.word	16776704
 1491 0068 52FEFF40 		.word	1090518610
 1492 006c D2FEFFE0 		.word	-520093998
 1493 0070 0300C200 		.word	12713987
 1494 0074 0100C200 		.word	12713985
 1495              		.cfi_endproc
 1496              	.LFE147:
 1497              		.size	Cy_Prot_ConfigPpuFixedSlMasterStruct, .-Cy_Prot_ConfigPpuFixedSlMasterStruct
 1498              		.section	.text.Cy_Prot_ConfigPpuFixedSlSlaveStruct,"ax",%progbits
 1499              		.align	2
 1500              		.global	Cy_Prot_ConfigPpuFixedSlSlaveStruct
 1501              		.thumb
 1502              		.thumb_func
 1503              		.type	Cy_Prot_ConfigPpuFixedSlSlaveStruct, %function
 1504              	Cy_Prot_ConfigPpuFixedSlSlaveStruct:
 1505              	.LFB148:
1110:Generated_Source\PSoC6\pdl\drivers\peripheral\prot/cy_prot.c **** 
1111:Generated_Source\PSoC6\pdl\drivers\peripheral\prot/cy_prot.c **** 
1112:Generated_Source\PSoC6\pdl\drivers\peripheral\prot/cy_prot.c **** /*******************************************************************************
1113:Generated_Source\PSoC6\pdl\drivers\peripheral\prot/cy_prot.c **** * Function Name: Cy_Prot_ConfigPpuFixedSlSlaveStruct
1114:Generated_Source\PSoC6\pdl\drivers\peripheral\prot/cy_prot.c **** ****************************************************************************//**
1115:Generated_Source\PSoC6\pdl\drivers\peripheral\prot/cy_prot.c **** *
1116:Generated_Source\PSoC6\pdl\drivers\peripheral\prot/cy_prot.c **** * \brief Configures a Fixed Peripheral Slave Protection Unit (PPU SL) slave
1117:Generated_Source\PSoC6\pdl\drivers\peripheral\prot/cy_prot.c **** * protection struct with its protection attributes. 
1118:Generated_Source\PSoC6\pdl\drivers\peripheral\prot/cy_prot.c **** * 
1119:Generated_Source\PSoC6\pdl\drivers\peripheral\prot/cy_prot.c **** * This function configures the slave struct of a PPU SL pair, which can 
1120:Generated_Source\PSoC6\pdl\drivers\peripheral\prot/cy_prot.c **** * protect an entire peripheral slave instance from invalid bus master accesses.
1121:Generated_Source\PSoC6\pdl\drivers\peripheral\prot/cy_prot.c **** * For example, TCPWM0, TCPWM1, SCB0 and SCB1 etc.
1122:Generated_Source\PSoC6\pdl\drivers\peripheral\prot/cy_prot.c **** *
1123:Generated_Source\PSoC6\pdl\drivers\peripheral\prot/cy_prot.c **** * Each fixed PPU SL is devoted to a defined peripheral slave. Hence the address, 
1124:Generated_Source\PSoC6\pdl\drivers\peripheral\prot/cy_prot.c **** * regionSize and subregions of the configuration struct are not applicable.
1125:Generated_Source\PSoC6\pdl\drivers\peripheral\prot/cy_prot.c **** *
1126:Generated_Source\PSoC6\pdl\drivers\peripheral\prot/cy_prot.c **** * Note that the user/privileged execute accesses are read-only and are always 
1127:Generated_Source\PSoC6\pdl\drivers\peripheral\prot/cy_prot.c **** * enabled. 
1128:Generated_Source\PSoC6\pdl\drivers\peripheral\prot/cy_prot.c **** *
1129:Generated_Source\PSoC6\pdl\drivers\peripheral\prot/cy_prot.c **** * \param base
1130:Generated_Source\PSoC6\pdl\drivers\peripheral\prot/cy_prot.c **** * The register base address of the protection structure being configured.
1131:Generated_Source\PSoC6\pdl\drivers\peripheral\prot/cy_prot.c **** * 
1132:Generated_Source\PSoC6\pdl\drivers\peripheral\prot/cy_prot.c **** * \param config
1133:Generated_Source\PSoC6\pdl\drivers\peripheral\prot/cy_prot.c **** * Initialization structure with all the protection attributes.
1134:Generated_Source\PSoC6\pdl\drivers\peripheral\prot/cy_prot.c **** * 
1135:Generated_Source\PSoC6\pdl\drivers\peripheral\prot/cy_prot.c **** * \return
1136:Generated_Source\PSoC6\pdl\drivers\peripheral\prot/cy_prot.c **** * Status of the function call.
1137:Generated_Source\PSoC6\pdl\drivers\peripheral\prot/cy_prot.c **** *
1138:Generated_Source\PSoC6\pdl\drivers\peripheral\prot/cy_prot.c **** *   Status               | Description
1139:Generated_Source\PSoC6\pdl\drivers\peripheral\prot/cy_prot.c **** *   ------------         | -----------
1140:Generated_Source\PSoC6\pdl\drivers\peripheral\prot/cy_prot.c **** *   CY_PROT_SUCCESS      | PPU SL slave struct was successfully configured
1141:Generated_Source\PSoC6\pdl\drivers\peripheral\prot/cy_prot.c **** *   CY_PROT_FAILURE      | The resource is locked
1142:Generated_Source\PSoC6\pdl\drivers\peripheral\prot/cy_prot.c **** *   CY_PROT_BAD_PARAM    | An incorrect/invalid parameter was passed
1143:Generated_Source\PSoC6\pdl\drivers\peripheral\prot/cy_prot.c **** *  
1144:Generated_Source\PSoC6\pdl\drivers\peripheral\prot/cy_prot.c **** *******************************************************************************/
1145:Generated_Source\PSoC6\pdl\drivers\peripheral\prot/cy_prot.c **** cy_en_prot_status_t Cy_Prot_ConfigPpuFixedSlSlaveStruct(PERI_GR_PPU_SL_Type* base, const cy_stc_ppu
1146:Generated_Source\PSoC6\pdl\drivers\peripheral\prot/cy_prot.c **** {
 1506              		.loc 1 1146 0
ARM GAS  C:\Users\kiwamu\AppData\Local\Temp\ccLfX6Zi.s 			page 48


 1507              		.cfi_startproc
 1508              		@ args = 0, pretend = 0, frame = 0
 1509              		@ frame_needed = 0, uses_anonymous_args = 0
 1510              		@ link register save eliminated.
 1511              	.LVL166:
 1512 0000 10B4     		push	{r4}
 1513              		.cfi_def_cfa_offset 4
 1514              		.cfi_offset 4, -4
 1515              	.LVL167:
1147:Generated_Source\PSoC6\pdl\drivers\peripheral\prot/cy_prot.c ****     cy_en_prot_status_t status = CY_PROT_SUCCESS;
1148:Generated_Source\PSoC6\pdl\drivers\peripheral\prot/cy_prot.c ****     uint32_t attReg;
1149:Generated_Source\PSoC6\pdl\drivers\peripheral\prot/cy_prot.c ****     
1150:Generated_Source\PSoC6\pdl\drivers\peripheral\prot/cy_prot.c ****     if(((uint32_t)config->pcMask & CY_PROT_PPU_FIXED_PC_LIMIT_MASK) != 0UL) 
 1516              		.loc 1 1150 0
 1517 0002 8C88     		ldrh	r4, [r1, #4]
 1518 0004 34F07F03 		bics	r3, r4, #127
 1519 0008 27D1     		bne	.L150
1151:Generated_Source\PSoC6\pdl\drivers\peripheral\prot/cy_prot.c ****     {
1152:Generated_Source\PSoC6\pdl\drivers\peripheral\prot/cy_prot.c ****         /* PC mask out of range - not supported in device */
1153:Generated_Source\PSoC6\pdl\drivers\peripheral\prot/cy_prot.c ****         status = CY_PROT_BAD_PARAM;
1154:Generated_Source\PSoC6\pdl\drivers\peripheral\prot/cy_prot.c ****     }
1155:Generated_Source\PSoC6\pdl\drivers\peripheral\prot/cy_prot.c ****     else
1156:Generated_Source\PSoC6\pdl\drivers\peripheral\prot/cy_prot.c ****     {
1157:Generated_Source\PSoC6\pdl\drivers\peripheral\prot/cy_prot.c ****         /* ADDR0 is read only. Only configure ATT0 */
1158:Generated_Source\PSoC6\pdl\drivers\peripheral\prot/cy_prot.c ****         attReg = ((uint32_t)config->userPermission & CY_PROT_ATT_PERMISSION_MASK)
 1520              		.loc 1 1158 0
 1521 000a 0B78     		ldrb	r3, [r1]	@ zero_extendqisi2
 1522 000c 03F00703 		and	r3, r3, #7
1159:Generated_Source\PSoC6\pdl\drivers\peripheral\prot/cy_prot.c ****                     | (uint32_t)(((uint32_t)config->privPermission & CY_PROT_ATT_PERMISSION_MASK) <
 1523              		.loc 1 1159 0
 1524 0010 4A78     		ldrb	r2, [r1, #1]	@ zero_extendqisi2
 1525 0012 D200     		lsls	r2, r2, #3
 1526 0014 02F03802 		and	r2, r2, #56
 1527 0018 1343     		orrs	r3, r3, r2
1160:Generated_Source\PSoC6\pdl\drivers\peripheral\prot/cy_prot.c ****                     | _VAL2FLD(PERI_GR_PPU_SL_ATT0_NS, !(config->secure))
 1528              		.loc 1 1160 0
 1529 001a 8A78     		ldrb	r2, [r1, #2]	@ zero_extendqisi2
 1530 001c 82F00102 		eor	r2, r2, #1
 1531 0020 9201     		lsls	r2, r2, #6
 1532 0022 02F04002 		and	r2, r2, #64
 1533 0026 1343     		orrs	r3, r3, r2
1161:Generated_Source\PSoC6\pdl\drivers\peripheral\prot/cy_prot.c ****                     | _VAL2FLD(PERI_GR_PPU_SL_ATT0_PC_MASK_15_TO_1, config->pcMask)
 1534              		.loc 1 1161 0
 1535 0028 104A     		ldr	r2, .L154
 1536 002a 02EA4424 		and	r4, r2, r4, lsl #9
 1537 002e 2343     		orrs	r3, r3, r4
1162:Generated_Source\PSoC6\pdl\drivers\peripheral\prot/cy_prot.c ****                     /* No region size - read only */
1163:Generated_Source\PSoC6\pdl\drivers\peripheral\prot/cy_prot.c ****                     | _VAL2FLD(PERI_GR_PPU_SL_ATT0_PC_MATCH, config->pcMatch);
 1538              		.loc 1 1163 0
 1539 0030 CA78     		ldrb	r2, [r1, #3]	@ zero_extendqisi2
 1540 0032 9207     		lsls	r2, r2, #30
 1541 0034 02F08042 		and	r2, r2, #1073741824
1158:Generated_Source\PSoC6\pdl\drivers\peripheral\prot/cy_prot.c ****                     | (uint32_t)(((uint32_t)config->privPermission & CY_PROT_ATT_PERMISSION_MASK) <
 1542              		.loc 1 1158 0
 1543 0038 1343     		orrs	r3, r3, r2
 1544              	.LVL168:
1164:Generated_Source\PSoC6\pdl\drivers\peripheral\prot/cy_prot.c ****         if ((attReg & CY_PROT_PPU_SL_ATT0_MASK) != attReg)
ARM GAS  C:\Users\kiwamu\AppData\Local\Temp\ccLfX6Zi.s 			page 49


 1545              		.loc 1 1164 0
 1546 003a 23F03F42 		bic	r2, r3, #-1090519040
 1547 003e 22F4D272 		bic	r2, r2, #420
 1548 0042 9342     		cmp	r3, r2
 1549 0044 0BD1     		bne	.L151
1165:Generated_Source\PSoC6\pdl\drivers\peripheral\prot/cy_prot.c ****         {
1166:Generated_Source\PSoC6\pdl\drivers\peripheral\prot/cy_prot.c ****             /* Invalid parameter was passed */
1167:Generated_Source\PSoC6\pdl\drivers\peripheral\prot/cy_prot.c ****             status = CY_PROT_BAD_PARAM;
1168:Generated_Source\PSoC6\pdl\drivers\peripheral\prot/cy_prot.c ****         }
1169:Generated_Source\PSoC6\pdl\drivers\peripheral\prot/cy_prot.c ****         else
1170:Generated_Source\PSoC6\pdl\drivers\peripheral\prot/cy_prot.c ****         {
1171:Generated_Source\PSoC6\pdl\drivers\peripheral\prot/cy_prot.c ****             base->ATT0 = attReg;
 1550              		.loc 1 1171 0
 1551 0046 4360     		str	r3, [r0, #4]
1172:Generated_Source\PSoC6\pdl\drivers\peripheral\prot/cy_prot.c ****             status = ((base->ATT0 & CY_PROT_PPU_SL_ATT0_MASK) != attReg) ? CY_PROT_FAILURE : CY_PRO
 1552              		.loc 1 1172 0
 1553 0048 4268     		ldr	r2, [r0, #4]
 1554 004a 22F0F852 		bic	r2, r2, #520093696
 1555 004e 22F49272 		bic	r2, r2, #292
 1556 0052 9342     		cmp	r3, r2
 1557 0054 05D0     		beq	.L152
 1558 0056 0648     		ldr	r0, .L154+4
 1559              	.LVL169:
 1560 0058 04E0     		b	.L149
 1561              	.LVL170:
 1562              	.L150:
1153:Generated_Source\PSoC6\pdl\drivers\peripheral\prot/cy_prot.c ****     }
 1563              		.loc 1 1153 0
 1564 005a 0648     		ldr	r0, .L154+8
 1565              	.LVL171:
 1566 005c 02E0     		b	.L149
 1567              	.LVL172:
 1568              	.L151:
1167:Generated_Source\PSoC6\pdl\drivers\peripheral\prot/cy_prot.c ****         }
 1569              		.loc 1 1167 0
 1570 005e 0548     		ldr	r0, .L154+8
 1571              	.LVL173:
 1572 0060 00E0     		b	.L149
 1573              	.LVL174:
 1574              	.L152:
 1575              		.loc 1 1172 0
 1576 0062 0020     		movs	r0, #0
 1577              	.LVL175:
 1578              	.L149:
1173:Generated_Source\PSoC6\pdl\drivers\peripheral\prot/cy_prot.c ****         }
1174:Generated_Source\PSoC6\pdl\drivers\peripheral\prot/cy_prot.c ****     }
1175:Generated_Source\PSoC6\pdl\drivers\peripheral\prot/cy_prot.c ****     
1176:Generated_Source\PSoC6\pdl\drivers\peripheral\prot/cy_prot.c ****     return status;
1177:Generated_Source\PSoC6\pdl\drivers\peripheral\prot/cy_prot.c **** }
 1579              		.loc 1 1177 0
 1580 0064 5DF8044B 		ldr	r4, [sp], #4
 1581              		.cfi_restore 4
 1582              		.cfi_def_cfa_offset 0
 1583 0068 7047     		bx	lr
 1584              	.L155:
 1585 006a 00BF     		.align	2
 1586              	.L154:
ARM GAS  C:\Users\kiwamu\AppData\Local\Temp\ccLfX6Zi.s 			page 50


 1587 006c 00FEFF00 		.word	16776704
 1588 0070 0300C200 		.word	12713987
 1589 0074 0100C200 		.word	12713985
 1590              		.cfi_endproc
 1591              	.LFE148:
 1592              		.size	Cy_Prot_ConfigPpuFixedSlSlaveStruct, .-Cy_Prot_ConfigPpuFixedSlSlaveStruct
 1593              		.section	.text.Cy_Prot_EnablePpuFixedSlMasterStruct,"ax",%progbits
 1594              		.align	2
 1595              		.global	Cy_Prot_EnablePpuFixedSlMasterStruct
 1596              		.thumb
 1597              		.thumb_func
 1598              		.type	Cy_Prot_EnablePpuFixedSlMasterStruct, %function
 1599              	Cy_Prot_EnablePpuFixedSlMasterStruct:
 1600              	.LFB149:
1178:Generated_Source\PSoC6\pdl\drivers\peripheral\prot/cy_prot.c **** 
1179:Generated_Source\PSoC6\pdl\drivers\peripheral\prot/cy_prot.c **** 
1180:Generated_Source\PSoC6\pdl\drivers\peripheral\prot/cy_prot.c **** /*******************************************************************************
1181:Generated_Source\PSoC6\pdl\drivers\peripheral\prot/cy_prot.c **** * Function Name: Cy_Prot_EnablePpuFixedSlMasterStruct
1182:Generated_Source\PSoC6\pdl\drivers\peripheral\prot/cy_prot.c **** ****************************************************************************//**
1183:Generated_Source\PSoC6\pdl\drivers\peripheral\prot/cy_prot.c **** *
1184:Generated_Source\PSoC6\pdl\drivers\peripheral\prot/cy_prot.c **** * \brief Enables the Master PPU SL structure.
1185:Generated_Source\PSoC6\pdl\drivers\peripheral\prot/cy_prot.c **** *
1186:Generated_Source\PSoC6\pdl\drivers\peripheral\prot/cy_prot.c **** * This is a PPU SL master struct enable function. The PPU SL protection 
1187:Generated_Source\PSoC6\pdl\drivers\peripheral\prot/cy_prot.c **** * settings will take effect after successful completion of this function call.
1188:Generated_Source\PSoC6\pdl\drivers\peripheral\prot/cy_prot.c **** *
1189:Generated_Source\PSoC6\pdl\drivers\peripheral\prot/cy_prot.c **** * \param base
1190:Generated_Source\PSoC6\pdl\drivers\peripheral\prot/cy_prot.c **** * The base address for the protection unit structure being configured. 
1191:Generated_Source\PSoC6\pdl\drivers\peripheral\prot/cy_prot.c **** *
1192:Generated_Source\PSoC6\pdl\drivers\peripheral\prot/cy_prot.c **** * \return
1193:Generated_Source\PSoC6\pdl\drivers\peripheral\prot/cy_prot.c **** * Status of the function call.
1194:Generated_Source\PSoC6\pdl\drivers\peripheral\prot/cy_prot.c **** *
1195:Generated_Source\PSoC6\pdl\drivers\peripheral\prot/cy_prot.c **** *   Status               | Description
1196:Generated_Source\PSoC6\pdl\drivers\peripheral\prot/cy_prot.c **** *   ------------         | -----------
1197:Generated_Source\PSoC6\pdl\drivers\peripheral\prot/cy_prot.c **** *   CY_PROT_SUCCESS      | The Master PU struct was enabled
1198:Generated_Source\PSoC6\pdl\drivers\peripheral\prot/cy_prot.c **** *   CY_PROT_FAILURE      | The Master PU struct is disabled and possibly locked
1199:Generated_Source\PSoC6\pdl\drivers\peripheral\prot/cy_prot.c **** *  
1200:Generated_Source\PSoC6\pdl\drivers\peripheral\prot/cy_prot.c **** *******************************************************************************/
1201:Generated_Source\PSoC6\pdl\drivers\peripheral\prot/cy_prot.c **** cy_en_prot_status_t Cy_Prot_EnablePpuFixedSlMasterStruct(PERI_GR_PPU_SL_Type* base)
1202:Generated_Source\PSoC6\pdl\drivers\peripheral\prot/cy_prot.c **** {
 1601              		.loc 1 1202 0
 1602              		.cfi_startproc
 1603              		@ args = 0, pretend = 0, frame = 0
 1604              		@ frame_needed = 0, uses_anonymous_args = 0
 1605              		@ link register save eliminated.
 1606              	.LVL176:
1203:Generated_Source\PSoC6\pdl\drivers\peripheral\prot/cy_prot.c ****     cy_en_prot_status_t status = CY_PROT_SUCCESS;
1204:Generated_Source\PSoC6\pdl\drivers\peripheral\prot/cy_prot.c ****     
1205:Generated_Source\PSoC6\pdl\drivers\peripheral\prot/cy_prot.c ****     base->ATT1 |= _VAL2FLD(PERI_GR_PPU_SL_ATT1_ENABLED, CY_PROT_STRUCT_ENABLE);
 1607              		.loc 1 1205 0
 1608 0000 436A     		ldr	r3, [r0, #36]
 1609 0002 43F00043 		orr	r3, r3, #-2147483648
 1610 0006 4362     		str	r3, [r0, #36]
1206:Generated_Source\PSoC6\pdl\drivers\peripheral\prot/cy_prot.c ****     status = (_FLD2VAL(PERI_GR_PPU_SL_ATT1_ENABLED, base->ATT1) != CY_PROT_STRUCT_ENABLE) ?
 1611              		.loc 1 1206 0
 1612 0008 436A     		ldr	r3, [r0, #36]
 1613 000a 002B     		cmp	r3, #0
 1614 000c 01DB     		blt	.L158
ARM GAS  C:\Users\kiwamu\AppData\Local\Temp\ccLfX6Zi.s 			page 51


 1615 000e 0248     		ldr	r0, .L159
 1616              	.LVL177:
 1617 0010 7047     		bx	lr
 1618              	.LVL178:
 1619              	.L158:
 1620 0012 0020     		movs	r0, #0
 1621              	.LVL179:
1207:Generated_Source\PSoC6\pdl\drivers\peripheral\prot/cy_prot.c ****                 CY_PROT_FAILURE : CY_PROT_SUCCESS;
1208:Generated_Source\PSoC6\pdl\drivers\peripheral\prot/cy_prot.c ****     
1209:Generated_Source\PSoC6\pdl\drivers\peripheral\prot/cy_prot.c ****     return status;
1210:Generated_Source\PSoC6\pdl\drivers\peripheral\prot/cy_prot.c **** }
 1622              		.loc 1 1210 0
 1623 0014 7047     		bx	lr
 1624              	.L160:
 1625 0016 00BF     		.align	2
 1626              	.L159:
 1627 0018 0300C200 		.word	12713987
 1628              		.cfi_endproc
 1629              	.LFE149:
 1630              		.size	Cy_Prot_EnablePpuFixedSlMasterStruct, .-Cy_Prot_EnablePpuFixedSlMasterStruct
 1631              		.section	.text.Cy_Prot_DisablePpuFixedSlMasterStruct,"ax",%progbits
 1632              		.align	2
 1633              		.global	Cy_Prot_DisablePpuFixedSlMasterStruct
 1634              		.thumb
 1635              		.thumb_func
 1636              		.type	Cy_Prot_DisablePpuFixedSlMasterStruct, %function
 1637              	Cy_Prot_DisablePpuFixedSlMasterStruct:
 1638              	.LFB150:
1211:Generated_Source\PSoC6\pdl\drivers\peripheral\prot/cy_prot.c **** 
1212:Generated_Source\PSoC6\pdl\drivers\peripheral\prot/cy_prot.c **** 
1213:Generated_Source\PSoC6\pdl\drivers\peripheral\prot/cy_prot.c **** /*******************************************************************************
1214:Generated_Source\PSoC6\pdl\drivers\peripheral\prot/cy_prot.c **** * Function Name: Cy_Prot_DisablePpuFixedSlMasterStruct
1215:Generated_Source\PSoC6\pdl\drivers\peripheral\prot/cy_prot.c **** ****************************************************************************//**
1216:Generated_Source\PSoC6\pdl\drivers\peripheral\prot/cy_prot.c **** *
1217:Generated_Source\PSoC6\pdl\drivers\peripheral\prot/cy_prot.c **** * \brief Disables the Master PPU SL structure.
1218:Generated_Source\PSoC6\pdl\drivers\peripheral\prot/cy_prot.c **** *
1219:Generated_Source\PSoC6\pdl\drivers\peripheral\prot/cy_prot.c **** * This is a PPU SL master struct disable function. The PPU SL protection 
1220:Generated_Source\PSoC6\pdl\drivers\peripheral\prot/cy_prot.c **** * settings will seize to take effect after successful completion of this 
1221:Generated_Source\PSoC6\pdl\drivers\peripheral\prot/cy_prot.c **** * function call.
1222:Generated_Source\PSoC6\pdl\drivers\peripheral\prot/cy_prot.c **** *
1223:Generated_Source\PSoC6\pdl\drivers\peripheral\prot/cy_prot.c **** * \param base
1224:Generated_Source\PSoC6\pdl\drivers\peripheral\prot/cy_prot.c **** * The base address for the protection unit structure being configured. 
1225:Generated_Source\PSoC6\pdl\drivers\peripheral\prot/cy_prot.c **** *
1226:Generated_Source\PSoC6\pdl\drivers\peripheral\prot/cy_prot.c **** * \return
1227:Generated_Source\PSoC6\pdl\drivers\peripheral\prot/cy_prot.c **** * Status of the function call.
1228:Generated_Source\PSoC6\pdl\drivers\peripheral\prot/cy_prot.c **** *
1229:Generated_Source\PSoC6\pdl\drivers\peripheral\prot/cy_prot.c **** *   Status               | Description
1230:Generated_Source\PSoC6\pdl\drivers\peripheral\prot/cy_prot.c **** *   ------------         | -----------
1231:Generated_Source\PSoC6\pdl\drivers\peripheral\prot/cy_prot.c **** *   CY_PROT_SUCCESS      | The Master PU struct was disabled
1232:Generated_Source\PSoC6\pdl\drivers\peripheral\prot/cy_prot.c **** *   CY_PROT_FAILURE      | The Master PU struct is enabled and possibly locked
1233:Generated_Source\PSoC6\pdl\drivers\peripheral\prot/cy_prot.c **** *  
1234:Generated_Source\PSoC6\pdl\drivers\peripheral\prot/cy_prot.c **** *******************************************************************************/
1235:Generated_Source\PSoC6\pdl\drivers\peripheral\prot/cy_prot.c **** cy_en_prot_status_t Cy_Prot_DisablePpuFixedSlMasterStruct(PERI_GR_PPU_SL_Type* base)
1236:Generated_Source\PSoC6\pdl\drivers\peripheral\prot/cy_prot.c **** {
 1639              		.loc 1 1236 0
 1640              		.cfi_startproc
 1641              		@ args = 0, pretend = 0, frame = 0
ARM GAS  C:\Users\kiwamu\AppData\Local\Temp\ccLfX6Zi.s 			page 52


 1642              		@ frame_needed = 0, uses_anonymous_args = 0
 1643              		@ link register save eliminated.
 1644              	.LVL180:
1237:Generated_Source\PSoC6\pdl\drivers\peripheral\prot/cy_prot.c ****     cy_en_prot_status_t status = CY_PROT_SUCCESS;
1238:Generated_Source\PSoC6\pdl\drivers\peripheral\prot/cy_prot.c ****     
1239:Generated_Source\PSoC6\pdl\drivers\peripheral\prot/cy_prot.c ****     base->ATT1 &= ~_VAL2FLD(PERI_GR_PPU_SL_ATT1_ENABLED, CY_PROT_STRUCT_ENABLE);
 1645              		.loc 1 1239 0
 1646 0000 436A     		ldr	r3, [r0, #36]
 1647 0002 23F00043 		bic	r3, r3, #-2147483648
 1648 0006 4362     		str	r3, [r0, #36]
1240:Generated_Source\PSoC6\pdl\drivers\peripheral\prot/cy_prot.c ****     status = (_FLD2VAL(PERI_GR_PPU_SL_ATT1_ENABLED, base->ATT1) == CY_PROT_STRUCT_ENABLE) ?
 1649              		.loc 1 1240 0
 1650 0008 436A     		ldr	r3, [r0, #36]
 1651 000a 002B     		cmp	r3, #0
 1652 000c 01DA     		bge	.L163
 1653 000e 0248     		ldr	r0, .L164
 1654              	.LVL181:
 1655 0010 7047     		bx	lr
 1656              	.LVL182:
 1657              	.L163:
 1658 0012 0020     		movs	r0, #0
 1659              	.LVL183:
1241:Generated_Source\PSoC6\pdl\drivers\peripheral\prot/cy_prot.c ****                 CY_PROT_FAILURE : CY_PROT_SUCCESS;
1242:Generated_Source\PSoC6\pdl\drivers\peripheral\prot/cy_prot.c ****     
1243:Generated_Source\PSoC6\pdl\drivers\peripheral\prot/cy_prot.c ****     return status;
1244:Generated_Source\PSoC6\pdl\drivers\peripheral\prot/cy_prot.c **** }
 1660              		.loc 1 1244 0
 1661 0014 7047     		bx	lr
 1662              	.L165:
 1663 0016 00BF     		.align	2
 1664              	.L164:
 1665 0018 0300C200 		.word	12713987
 1666              		.cfi_endproc
 1667              	.LFE150:
 1668              		.size	Cy_Prot_DisablePpuFixedSlMasterStruct, .-Cy_Prot_DisablePpuFixedSlMasterStruct
 1669              		.section	.text.Cy_Prot_EnablePpuFixedSlSlaveStruct,"ax",%progbits
 1670              		.align	2
 1671              		.global	Cy_Prot_EnablePpuFixedSlSlaveStruct
 1672              		.thumb
 1673              		.thumb_func
 1674              		.type	Cy_Prot_EnablePpuFixedSlSlaveStruct, %function
 1675              	Cy_Prot_EnablePpuFixedSlSlaveStruct:
 1676              	.LFB151:
1245:Generated_Source\PSoC6\pdl\drivers\peripheral\prot/cy_prot.c **** 
1246:Generated_Source\PSoC6\pdl\drivers\peripheral\prot/cy_prot.c **** 
1247:Generated_Source\PSoC6\pdl\drivers\peripheral\prot/cy_prot.c **** /*******************************************************************************
1248:Generated_Source\PSoC6\pdl\drivers\peripheral\prot/cy_prot.c **** * Function Name: Cy_Prot_EnablePpuFixedSlSlaveStruct
1249:Generated_Source\PSoC6\pdl\drivers\peripheral\prot/cy_prot.c **** ****************************************************************************//**
1250:Generated_Source\PSoC6\pdl\drivers\peripheral\prot/cy_prot.c **** *
1251:Generated_Source\PSoC6\pdl\drivers\peripheral\prot/cy_prot.c **** * \brief Enables the Slave PPU SL structure.
1252:Generated_Source\PSoC6\pdl\drivers\peripheral\prot/cy_prot.c **** *
1253:Generated_Source\PSoC6\pdl\drivers\peripheral\prot/cy_prot.c **** * This is a PPU SL slave struct enable function. The PPU SL protection 
1254:Generated_Source\PSoC6\pdl\drivers\peripheral\prot/cy_prot.c **** * settings will take effect after successful completion of this function call.
1255:Generated_Source\PSoC6\pdl\drivers\peripheral\prot/cy_prot.c **** *
1256:Generated_Source\PSoC6\pdl\drivers\peripheral\prot/cy_prot.c **** * \param base
1257:Generated_Source\PSoC6\pdl\drivers\peripheral\prot/cy_prot.c **** * The base address for the protection unit structure being configured. 
1258:Generated_Source\PSoC6\pdl\drivers\peripheral\prot/cy_prot.c **** *
ARM GAS  C:\Users\kiwamu\AppData\Local\Temp\ccLfX6Zi.s 			page 53


1259:Generated_Source\PSoC6\pdl\drivers\peripheral\prot/cy_prot.c **** * \return
1260:Generated_Source\PSoC6\pdl\drivers\peripheral\prot/cy_prot.c **** * Status of the function call.
1261:Generated_Source\PSoC6\pdl\drivers\peripheral\prot/cy_prot.c **** *
1262:Generated_Source\PSoC6\pdl\drivers\peripheral\prot/cy_prot.c **** *   Status               | Description
1263:Generated_Source\PSoC6\pdl\drivers\peripheral\prot/cy_prot.c **** *   ------------         | -----------
1264:Generated_Source\PSoC6\pdl\drivers\peripheral\prot/cy_prot.c **** *   CY_PROT_SUCCESS      | The Slave PU struct was enabled
1265:Generated_Source\PSoC6\pdl\drivers\peripheral\prot/cy_prot.c **** *   CY_PROT_FAILURE      | The Slave PU struct is disabled and possibly locked
1266:Generated_Source\PSoC6\pdl\drivers\peripheral\prot/cy_prot.c **** *  
1267:Generated_Source\PSoC6\pdl\drivers\peripheral\prot/cy_prot.c **** *******************************************************************************/
1268:Generated_Source\PSoC6\pdl\drivers\peripheral\prot/cy_prot.c **** cy_en_prot_status_t Cy_Prot_EnablePpuFixedSlSlaveStruct(PERI_GR_PPU_SL_Type* base)
1269:Generated_Source\PSoC6\pdl\drivers\peripheral\prot/cy_prot.c **** {   
 1677              		.loc 1 1269 0
 1678              		.cfi_startproc
 1679              		@ args = 0, pretend = 0, frame = 0
 1680              		@ frame_needed = 0, uses_anonymous_args = 0
 1681              		@ link register save eliminated.
 1682              	.LVL184:
1270:Generated_Source\PSoC6\pdl\drivers\peripheral\prot/cy_prot.c ****     cy_en_prot_status_t status = CY_PROT_SUCCESS;
1271:Generated_Source\PSoC6\pdl\drivers\peripheral\prot/cy_prot.c ****     
1272:Generated_Source\PSoC6\pdl\drivers\peripheral\prot/cy_prot.c ****     base->ATT0 |= _VAL2FLD(PERI_GR_PPU_SL_ATT0_ENABLED, CY_PROT_STRUCT_ENABLE);
 1683              		.loc 1 1272 0
 1684 0000 4368     		ldr	r3, [r0, #4]
 1685 0002 43F00043 		orr	r3, r3, #-2147483648
 1686 0006 4360     		str	r3, [r0, #4]
1273:Generated_Source\PSoC6\pdl\drivers\peripheral\prot/cy_prot.c ****     status = (_FLD2VAL(PERI_GR_PPU_SL_ATT0_ENABLED, base->ATT0) != CY_PROT_STRUCT_ENABLE) ?
 1687              		.loc 1 1273 0
 1688 0008 4368     		ldr	r3, [r0, #4]
 1689 000a 002B     		cmp	r3, #0
 1690 000c 01DB     		blt	.L168
 1691 000e 0248     		ldr	r0, .L169
 1692              	.LVL185:
 1693 0010 7047     		bx	lr
 1694              	.LVL186:
 1695              	.L168:
 1696 0012 0020     		movs	r0, #0
 1697              	.LVL187:
1274:Generated_Source\PSoC6\pdl\drivers\peripheral\prot/cy_prot.c ****                 CY_PROT_FAILURE : CY_PROT_SUCCESS;
1275:Generated_Source\PSoC6\pdl\drivers\peripheral\prot/cy_prot.c ****     
1276:Generated_Source\PSoC6\pdl\drivers\peripheral\prot/cy_prot.c ****     return status;
1277:Generated_Source\PSoC6\pdl\drivers\peripheral\prot/cy_prot.c **** }
 1698              		.loc 1 1277 0
 1699 0014 7047     		bx	lr
 1700              	.L170:
 1701 0016 00BF     		.align	2
 1702              	.L169:
 1703 0018 0300C200 		.word	12713987
 1704              		.cfi_endproc
 1705              	.LFE151:
 1706              		.size	Cy_Prot_EnablePpuFixedSlSlaveStruct, .-Cy_Prot_EnablePpuFixedSlSlaveStruct
 1707              		.section	.text.Cy_Prot_DisablePpuFixedSlSlaveStruct,"ax",%progbits
 1708              		.align	2
 1709              		.global	Cy_Prot_DisablePpuFixedSlSlaveStruct
 1710              		.thumb
 1711              		.thumb_func
 1712              		.type	Cy_Prot_DisablePpuFixedSlSlaveStruct, %function
 1713              	Cy_Prot_DisablePpuFixedSlSlaveStruct:
 1714              	.LFB152:
ARM GAS  C:\Users\kiwamu\AppData\Local\Temp\ccLfX6Zi.s 			page 54


1278:Generated_Source\PSoC6\pdl\drivers\peripheral\prot/cy_prot.c **** 
1279:Generated_Source\PSoC6\pdl\drivers\peripheral\prot/cy_prot.c **** 
1280:Generated_Source\PSoC6\pdl\drivers\peripheral\prot/cy_prot.c **** /*******************************************************************************
1281:Generated_Source\PSoC6\pdl\drivers\peripheral\prot/cy_prot.c **** * Function Name: Cy_Prot_DisablePpuFixedSlSlaveStruct
1282:Generated_Source\PSoC6\pdl\drivers\peripheral\prot/cy_prot.c **** ****************************************************************************//**
1283:Generated_Source\PSoC6\pdl\drivers\peripheral\prot/cy_prot.c **** *
1284:Generated_Source\PSoC6\pdl\drivers\peripheral\prot/cy_prot.c **** * \brief Disables the Slave PPU SL structure.
1285:Generated_Source\PSoC6\pdl\drivers\peripheral\prot/cy_prot.c **** *
1286:Generated_Source\PSoC6\pdl\drivers\peripheral\prot/cy_prot.c **** * This is a PPU SL slave struct disable function. The PPU SL protection 
1287:Generated_Source\PSoC6\pdl\drivers\peripheral\prot/cy_prot.c **** * settings will seize to take effect after successful completion of this 
1288:Generated_Source\PSoC6\pdl\drivers\peripheral\prot/cy_prot.c **** * function call.
1289:Generated_Source\PSoC6\pdl\drivers\peripheral\prot/cy_prot.c **** *
1290:Generated_Source\PSoC6\pdl\drivers\peripheral\prot/cy_prot.c **** * \param base
1291:Generated_Source\PSoC6\pdl\drivers\peripheral\prot/cy_prot.c **** * The base address for the protection unit structure being configured. 
1292:Generated_Source\PSoC6\pdl\drivers\peripheral\prot/cy_prot.c **** *
1293:Generated_Source\PSoC6\pdl\drivers\peripheral\prot/cy_prot.c **** * \return
1294:Generated_Source\PSoC6\pdl\drivers\peripheral\prot/cy_prot.c **** * Status of the function call.
1295:Generated_Source\PSoC6\pdl\drivers\peripheral\prot/cy_prot.c **** *
1296:Generated_Source\PSoC6\pdl\drivers\peripheral\prot/cy_prot.c **** *   Status               | Description
1297:Generated_Source\PSoC6\pdl\drivers\peripheral\prot/cy_prot.c **** *   ------------         | -----------
1298:Generated_Source\PSoC6\pdl\drivers\peripheral\prot/cy_prot.c **** *   CY_PROT_SUCCESS      | The Slave PU struct was disabled
1299:Generated_Source\PSoC6\pdl\drivers\peripheral\prot/cy_prot.c **** *   CY_PROT_FAILURE      | The Slave PU struct is enabled and possibly locked
1300:Generated_Source\PSoC6\pdl\drivers\peripheral\prot/cy_prot.c **** *  
1301:Generated_Source\PSoC6\pdl\drivers\peripheral\prot/cy_prot.c **** *******************************************************************************/
1302:Generated_Source\PSoC6\pdl\drivers\peripheral\prot/cy_prot.c **** cy_en_prot_status_t Cy_Prot_DisablePpuFixedSlSlaveStruct(PERI_GR_PPU_SL_Type* base)
1303:Generated_Source\PSoC6\pdl\drivers\peripheral\prot/cy_prot.c **** {
 1715              		.loc 1 1303 0
 1716              		.cfi_startproc
 1717              		@ args = 0, pretend = 0, frame = 0
 1718              		@ frame_needed = 0, uses_anonymous_args = 0
 1719              		@ link register save eliminated.
 1720              	.LVL188:
1304:Generated_Source\PSoC6\pdl\drivers\peripheral\prot/cy_prot.c ****     cy_en_prot_status_t status = CY_PROT_SUCCESS;
1305:Generated_Source\PSoC6\pdl\drivers\peripheral\prot/cy_prot.c ****     
1306:Generated_Source\PSoC6\pdl\drivers\peripheral\prot/cy_prot.c ****     base->ATT0 &= ~_VAL2FLD(PERI_GR_PPU_SL_ATT0_ENABLED, CY_PROT_STRUCT_ENABLE);
 1721              		.loc 1 1306 0
 1722 0000 4368     		ldr	r3, [r0, #4]
 1723 0002 23F00043 		bic	r3, r3, #-2147483648
 1724 0006 4360     		str	r3, [r0, #4]
1307:Generated_Source\PSoC6\pdl\drivers\peripheral\prot/cy_prot.c ****     status = (_FLD2VAL(PERI_GR_PPU_SL_ATT0_ENABLED, base->ATT0) == CY_PROT_STRUCT_ENABLE) ?
 1725              		.loc 1 1307 0
 1726 0008 4368     		ldr	r3, [r0, #4]
 1727 000a 002B     		cmp	r3, #0
 1728 000c 01DA     		bge	.L173
 1729 000e 0248     		ldr	r0, .L174
 1730              	.LVL189:
 1731 0010 7047     		bx	lr
 1732              	.LVL190:
 1733              	.L173:
 1734 0012 0020     		movs	r0, #0
 1735              	.LVL191:
1308:Generated_Source\PSoC6\pdl\drivers\peripheral\prot/cy_prot.c ****                 CY_PROT_FAILURE : CY_PROT_SUCCESS;
1309:Generated_Source\PSoC6\pdl\drivers\peripheral\prot/cy_prot.c ****     
1310:Generated_Source\PSoC6\pdl\drivers\peripheral\prot/cy_prot.c ****     return status;
1311:Generated_Source\PSoC6\pdl\drivers\peripheral\prot/cy_prot.c **** }
 1736              		.loc 1 1311 0
 1737 0014 7047     		bx	lr
ARM GAS  C:\Users\kiwamu\AppData\Local\Temp\ccLfX6Zi.s 			page 55


 1738              	.L175:
 1739 0016 00BF     		.align	2
 1740              	.L174:
 1741 0018 0300C200 		.word	12713987
 1742              		.cfi_endproc
 1743              	.LFE152:
 1744              		.size	Cy_Prot_DisablePpuFixedSlSlaveStruct, .-Cy_Prot_DisablePpuFixedSlSlaveStruct
 1745              		.section	.text.Cy_Prot_ConfigPpuFixedRgMasterStruct,"ax",%progbits
 1746              		.align	2
 1747              		.global	Cy_Prot_ConfigPpuFixedRgMasterStruct
 1748              		.thumb
 1749              		.thumb_func
 1750              		.type	Cy_Prot_ConfigPpuFixedRgMasterStruct, %function
 1751              	Cy_Prot_ConfigPpuFixedRgMasterStruct:
 1752              	.LFB153:
1312:Generated_Source\PSoC6\pdl\drivers\peripheral\prot/cy_prot.c **** 
1313:Generated_Source\PSoC6\pdl\drivers\peripheral\prot/cy_prot.c **** 
1314:Generated_Source\PSoC6\pdl\drivers\peripheral\prot/cy_prot.c **** /*******************************************************************************
1315:Generated_Source\PSoC6\pdl\drivers\peripheral\prot/cy_prot.c **** * Function Name: Cy_Prot_ConfigPpuFixedRgMasterStruct
1316:Generated_Source\PSoC6\pdl\drivers\peripheral\prot/cy_prot.c **** ****************************************************************************//**
1317:Generated_Source\PSoC6\pdl\drivers\peripheral\prot/cy_prot.c **** *
1318:Generated_Source\PSoC6\pdl\drivers\peripheral\prot/cy_prot.c **** * \brief Configures a Fixed Peripheral Region Protection Unit (PPU RG) master 
1319:Generated_Source\PSoC6\pdl\drivers\peripheral\prot/cy_prot.c **** * protection struct with its protection attributes. 
1320:Generated_Source\PSoC6\pdl\drivers\peripheral\prot/cy_prot.c **** *
1321:Generated_Source\PSoC6\pdl\drivers\peripheral\prot/cy_prot.c **** * This function configures the master struct governing the corresponding slave
1322:Generated_Source\PSoC6\pdl\drivers\peripheral\prot/cy_prot.c **** * struct pair. It is a mechanism to protect the slave PPU RG struct. Since
1323:Generated_Source\PSoC6\pdl\drivers\peripheral\prot/cy_prot.c **** * the memory location of the slave struct is known, the address, regionSize and
1324:Generated_Source\PSoC6\pdl\drivers\peripheral\prot/cy_prot.c **** * subregions of the configuration struct are not applicable.
1325:Generated_Source\PSoC6\pdl\drivers\peripheral\prot/cy_prot.c **** *
1326:Generated_Source\PSoC6\pdl\drivers\peripheral\prot/cy_prot.c **** * Note that only the user/privileged write permissions are configurable. The 
1327:Generated_Source\PSoC6\pdl\drivers\peripheral\prot/cy_prot.c **** * read and execute permissions are read-only and cannot be configured.
1328:Generated_Source\PSoC6\pdl\drivers\peripheral\prot/cy_prot.c **** *
1329:Generated_Source\PSoC6\pdl\drivers\peripheral\prot/cy_prot.c **** * \param base
1330:Generated_Source\PSoC6\pdl\drivers\peripheral\prot/cy_prot.c **** * The register base address of the protection struct being configured.
1331:Generated_Source\PSoC6\pdl\drivers\peripheral\prot/cy_prot.c **** * 
1332:Generated_Source\PSoC6\pdl\drivers\peripheral\prot/cy_prot.c **** * \param config
1333:Generated_Source\PSoC6\pdl\drivers\peripheral\prot/cy_prot.c **** * Initialization structure with all the protection attributes.
1334:Generated_Source\PSoC6\pdl\drivers\peripheral\prot/cy_prot.c **** * 
1335:Generated_Source\PSoC6\pdl\drivers\peripheral\prot/cy_prot.c **** * \return
1336:Generated_Source\PSoC6\pdl\drivers\peripheral\prot/cy_prot.c **** * Status of the function call.
1337:Generated_Source\PSoC6\pdl\drivers\peripheral\prot/cy_prot.c **** *
1338:Generated_Source\PSoC6\pdl\drivers\peripheral\prot/cy_prot.c **** *   Status               | Description
1339:Generated_Source\PSoC6\pdl\drivers\peripheral\prot/cy_prot.c **** *   ------------         | -----------
1340:Generated_Source\PSoC6\pdl\drivers\peripheral\prot/cy_prot.c **** *   CY_PROT_SUCCESS      | PPU RG master struct was successfully configured
1341:Generated_Source\PSoC6\pdl\drivers\peripheral\prot/cy_prot.c **** *   CY_PROT_FAILURE      | The resource is locked
1342:Generated_Source\PSoC6\pdl\drivers\peripheral\prot/cy_prot.c **** *   CY_PROT_BAD_PARAM    | An incorrect/invalid parameter was passed
1343:Generated_Source\PSoC6\pdl\drivers\peripheral\prot/cy_prot.c **** *  
1344:Generated_Source\PSoC6\pdl\drivers\peripheral\prot/cy_prot.c **** *******************************************************************************/
1345:Generated_Source\PSoC6\pdl\drivers\peripheral\prot/cy_prot.c **** cy_en_prot_status_t Cy_Prot_ConfigPpuFixedRgMasterStruct(PERI_GR_PPU_RG_Type* base, const cy_stc_pp
1346:Generated_Source\PSoC6\pdl\drivers\peripheral\prot/cy_prot.c **** {
 1753              		.loc 1 1346 0
 1754              		.cfi_startproc
 1755              		@ args = 0, pretend = 0, frame = 0
 1756              		@ frame_needed = 0, uses_anonymous_args = 0
 1757              		@ link register save eliminated.
 1758              	.LVL192:
 1759 0000 10B4     		push	{r4}
ARM GAS  C:\Users\kiwamu\AppData\Local\Temp\ccLfX6Zi.s 			page 56


 1760              		.cfi_def_cfa_offset 4
 1761              		.cfi_offset 4, -4
 1762              	.LVL193:
1347:Generated_Source\PSoC6\pdl\drivers\peripheral\prot/cy_prot.c ****     cy_en_prot_status_t status = CY_PROT_SUCCESS;
1348:Generated_Source\PSoC6\pdl\drivers\peripheral\prot/cy_prot.c ****     uint32_t attReg;
1349:Generated_Source\PSoC6\pdl\drivers\peripheral\prot/cy_prot.c ****     
1350:Generated_Source\PSoC6\pdl\drivers\peripheral\prot/cy_prot.c ****     if(((uint32_t)config->pcMask & CY_PROT_PPU_FIXED_PC_LIMIT_MASK) != 0UL) 
 1763              		.loc 1 1350 0
 1764 0002 8C88     		ldrh	r4, [r1, #4]
 1765 0004 34F07F03 		bics	r3, r4, #127
 1766 0008 23D1     		bne	.L178
1351:Generated_Source\PSoC6\pdl\drivers\peripheral\prot/cy_prot.c ****     {
1352:Generated_Source\PSoC6\pdl\drivers\peripheral\prot/cy_prot.c ****         /* PC mask out of range - not supported in device */
1353:Generated_Source\PSoC6\pdl\drivers\peripheral\prot/cy_prot.c ****         status = CY_PROT_BAD_PARAM;
1354:Generated_Source\PSoC6\pdl\drivers\peripheral\prot/cy_prot.c ****     }
1355:Generated_Source\PSoC6\pdl\drivers\peripheral\prot/cy_prot.c ****     else
1356:Generated_Source\PSoC6\pdl\drivers\peripheral\prot/cy_prot.c ****     {
1357:Generated_Source\PSoC6\pdl\drivers\peripheral\prot/cy_prot.c ****         /* ADDR1 is read only. Only configure ATT1 */
1358:Generated_Source\PSoC6\pdl\drivers\peripheral\prot/cy_prot.c ****         attReg = ((uint32_t)config->userPermission & CY_PROT_ATT_PERMISSION_MASK)
 1767              		.loc 1 1358 0
 1768 000a 0B78     		ldrb	r3, [r1]	@ zero_extendqisi2
 1769 000c 03F00703 		and	r3, r3, #7
1359:Generated_Source\PSoC6\pdl\drivers\peripheral\prot/cy_prot.c ****                     | (uint32_t)(((uint32_t)config->privPermission & CY_PROT_ATT_PERMISSION_MASK) <
 1770              		.loc 1 1359 0
 1771 0010 4A78     		ldrb	r2, [r1, #1]	@ zero_extendqisi2
 1772 0012 D200     		lsls	r2, r2, #3
 1773 0014 02F03802 		and	r2, r2, #56
 1774 0018 1343     		orrs	r3, r3, r2
1360:Generated_Source\PSoC6\pdl\drivers\peripheral\prot/cy_prot.c ****                     | _VAL2FLD(PERI_GR_PPU_RG_ATT1_NS, !(config->secure))
 1775              		.loc 1 1360 0
 1776 001a 8A78     		ldrb	r2, [r1, #2]	@ zero_extendqisi2
 1777 001c 82F00102 		eor	r2, r2, #1
 1778 0020 9201     		lsls	r2, r2, #6
 1779 0022 02F04002 		and	r2, r2, #64
 1780 0026 1343     		orrs	r3, r3, r2
1361:Generated_Source\PSoC6\pdl\drivers\peripheral\prot/cy_prot.c ****                     | _VAL2FLD(PERI_GR_PPU_RG_ATT1_PC_MASK_15_TO_1, config->pcMask)
 1781              		.loc 1 1361 0
 1782 0028 0E4A     		ldr	r2, .L182
 1783 002a 02EA4424 		and	r4, r2, r4, lsl #9
 1784 002e 2343     		orrs	r3, r3, r4
1362:Generated_Source\PSoC6\pdl\drivers\peripheral\prot/cy_prot.c ****                     /* No region size - read only for master structs */
1363:Generated_Source\PSoC6\pdl\drivers\peripheral\prot/cy_prot.c ****                     | _VAL2FLD(PERI_GR_PPU_RG_ATT1_PC_MATCH, config->pcMatch);
 1785              		.loc 1 1363 0
 1786 0030 CA78     		ldrb	r2, [r1, #3]	@ zero_extendqisi2
 1787 0032 9207     		lsls	r2, r2, #30
 1788 0034 02F08042 		and	r2, r2, #1073741824
1358:Generated_Source\PSoC6\pdl\drivers\peripheral\prot/cy_prot.c ****                     | (uint32_t)(((uint32_t)config->privPermission & CY_PROT_ATT_PERMISSION_MASK) <
 1789              		.loc 1 1358 0
 1790 0038 1343     		orrs	r3, r3, r2
 1791              	.LVL194:
1364:Generated_Source\PSoC6\pdl\drivers\peripheral\prot/cy_prot.c ****         if ((attReg & CY_PROT_PPU_RG_ATT1_MASK) != attReg)
 1792              		.loc 1 1364 0
 1793 003a 0B4A     		ldr	r2, .L182+4
 1794 003c 1A40     		ands	r2, r2, r3
 1795 003e 9342     		cmp	r3, r2
 1796 0040 09D1     		bne	.L179
1365:Generated_Source\PSoC6\pdl\drivers\peripheral\prot/cy_prot.c ****         {
ARM GAS  C:\Users\kiwamu\AppData\Local\Temp\ccLfX6Zi.s 			page 57


1366:Generated_Source\PSoC6\pdl\drivers\peripheral\prot/cy_prot.c ****             /* Invalid parameter was passed */
1367:Generated_Source\PSoC6\pdl\drivers\peripheral\prot/cy_prot.c ****             status = CY_PROT_BAD_PARAM;
1368:Generated_Source\PSoC6\pdl\drivers\peripheral\prot/cy_prot.c ****         }
1369:Generated_Source\PSoC6\pdl\drivers\peripheral\prot/cy_prot.c ****         else
1370:Generated_Source\PSoC6\pdl\drivers\peripheral\prot/cy_prot.c ****         {
1371:Generated_Source\PSoC6\pdl\drivers\peripheral\prot/cy_prot.c ****             base->ATT1 = attReg;
 1797              		.loc 1 1371 0
 1798 0042 4362     		str	r3, [r0, #36]
1372:Generated_Source\PSoC6\pdl\drivers\peripheral\prot/cy_prot.c ****             status = ((base->ATT1 & CY_PROT_PPU_RG_ATT1_MASK) != attReg) ? CY_PROT_FAILURE : CY_PRO
 1799              		.loc 1 1372 0
 1800 0044 416A     		ldr	r1, [r0, #36]
 1801              	.LVL195:
 1802 0046 094A     		ldr	r2, .L182+8
 1803 0048 0A40     		ands	r2, r2, r1
 1804 004a 9342     		cmp	r3, r2
 1805 004c 05D0     		beq	.L180
 1806 004e 0848     		ldr	r0, .L182+12
 1807              	.LVL196:
 1808 0050 04E0     		b	.L177
 1809              	.LVL197:
 1810              	.L178:
1353:Generated_Source\PSoC6\pdl\drivers\peripheral\prot/cy_prot.c ****     }
 1811              		.loc 1 1353 0
 1812 0052 0848     		ldr	r0, .L182+16
 1813              	.LVL198:
 1814 0054 02E0     		b	.L177
 1815              	.LVL199:
 1816              	.L179:
1367:Generated_Source\PSoC6\pdl\drivers\peripheral\prot/cy_prot.c ****         }
 1817              		.loc 1 1367 0
 1818 0056 0748     		ldr	r0, .L182+16
 1819              	.LVL200:
 1820 0058 00E0     		b	.L177
 1821              	.LVL201:
 1822              	.L180:
 1823              		.loc 1 1372 0
 1824 005a 0020     		movs	r0, #0
 1825              	.LVL202:
 1826              	.L177:
1373:Generated_Source\PSoC6\pdl\drivers\peripheral\prot/cy_prot.c ****         }
1374:Generated_Source\PSoC6\pdl\drivers\peripheral\prot/cy_prot.c ****     }
1375:Generated_Source\PSoC6\pdl\drivers\peripheral\prot/cy_prot.c ****     
1376:Generated_Source\PSoC6\pdl\drivers\peripheral\prot/cy_prot.c ****     return status;
1377:Generated_Source\PSoC6\pdl\drivers\peripheral\prot/cy_prot.c **** }
 1827              		.loc 1 1377 0
 1828 005c 5DF8044B 		ldr	r4, [sp], #4
 1829              		.cfi_restore 4
 1830              		.cfi_def_cfa_offset 0
 1831 0060 7047     		bx	lr
 1832              	.L183:
 1833 0062 00BF     		.align	2
 1834              	.L182:
 1835 0064 00FEFF00 		.word	16776704
 1836 0068 52FEFF40 		.word	1090518610
 1837 006c D2FEFFE0 		.word	-520093998
 1838 0070 0300C200 		.word	12713987
 1839 0074 0100C200 		.word	12713985
ARM GAS  C:\Users\kiwamu\AppData\Local\Temp\ccLfX6Zi.s 			page 58


 1840              		.cfi_endproc
 1841              	.LFE153:
 1842              		.size	Cy_Prot_ConfigPpuFixedRgMasterStruct, .-Cy_Prot_ConfigPpuFixedRgMasterStruct
 1843              		.section	.text.Cy_Prot_ConfigPpuFixedRgSlaveStruct,"ax",%progbits
 1844              		.align	2
 1845              		.global	Cy_Prot_ConfigPpuFixedRgSlaveStruct
 1846              		.thumb
 1847              		.thumb_func
 1848              		.type	Cy_Prot_ConfigPpuFixedRgSlaveStruct, %function
 1849              	Cy_Prot_ConfigPpuFixedRgSlaveStruct:
 1850              	.LFB154:
1378:Generated_Source\PSoC6\pdl\drivers\peripheral\prot/cy_prot.c **** 
1379:Generated_Source\PSoC6\pdl\drivers\peripheral\prot/cy_prot.c **** 
1380:Generated_Source\PSoC6\pdl\drivers\peripheral\prot/cy_prot.c **** /*******************************************************************************
1381:Generated_Source\PSoC6\pdl\drivers\peripheral\prot/cy_prot.c **** * Function Name: Cy_Prot_ConfigPpuFixedRgSlaveStruct
1382:Generated_Source\PSoC6\pdl\drivers\peripheral\prot/cy_prot.c **** ****************************************************************************//**
1383:Generated_Source\PSoC6\pdl\drivers\peripheral\prot/cy_prot.c **** *
1384:Generated_Source\PSoC6\pdl\drivers\peripheral\prot/cy_prot.c **** * \brief Configures a Fixed Peripheral Region Protection Unit (PPU RG) slave
1385:Generated_Source\PSoC6\pdl\drivers\peripheral\prot/cy_prot.c **** * protection struct with its protection attributes. 
1386:Generated_Source\PSoC6\pdl\drivers\peripheral\prot/cy_prot.c **** * 
1387:Generated_Source\PSoC6\pdl\drivers\peripheral\prot/cy_prot.c **** * This function configures the slave struct of a PPU RG pair, which can 
1388:Generated_Source\PSoC6\pdl\drivers\peripheral\prot/cy_prot.c **** * protect specified regions of peripheral instances. For example, individual
1389:Generated_Source\PSoC6\pdl\drivers\peripheral\prot/cy_prot.c **** * DW channel structs, SMPU structs, and IPC structs etc.
1390:Generated_Source\PSoC6\pdl\drivers\peripheral\prot/cy_prot.c **** *
1391:Generated_Source\PSoC6\pdl\drivers\peripheral\prot/cy_prot.c **** * Each fixed PPU RG is devoted to a defined peripheral region. Hence the address, 
1392:Generated_Source\PSoC6\pdl\drivers\peripheral\prot/cy_prot.c **** * regionSize and subregions of the configuration struct are not applicable.
1393:Generated_Source\PSoC6\pdl\drivers\peripheral\prot/cy_prot.c **** *
1394:Generated_Source\PSoC6\pdl\drivers\peripheral\prot/cy_prot.c **** * Note that the user/privileged execute accesses are read-only and are always 
1395:Generated_Source\PSoC6\pdl\drivers\peripheral\prot/cy_prot.c **** * enabled. 
1396:Generated_Source\PSoC6\pdl\drivers\peripheral\prot/cy_prot.c **** *
1397:Generated_Source\PSoC6\pdl\drivers\peripheral\prot/cy_prot.c **** * \param base
1398:Generated_Source\PSoC6\pdl\drivers\peripheral\prot/cy_prot.c **** * The register base address of the protection structure being configured.
1399:Generated_Source\PSoC6\pdl\drivers\peripheral\prot/cy_prot.c **** * 
1400:Generated_Source\PSoC6\pdl\drivers\peripheral\prot/cy_prot.c **** * \param config
1401:Generated_Source\PSoC6\pdl\drivers\peripheral\prot/cy_prot.c **** * Initialization structure with all the protection attributes.
1402:Generated_Source\PSoC6\pdl\drivers\peripheral\prot/cy_prot.c **** * 
1403:Generated_Source\PSoC6\pdl\drivers\peripheral\prot/cy_prot.c **** * \return
1404:Generated_Source\PSoC6\pdl\drivers\peripheral\prot/cy_prot.c **** * Status of the function call.
1405:Generated_Source\PSoC6\pdl\drivers\peripheral\prot/cy_prot.c **** *
1406:Generated_Source\PSoC6\pdl\drivers\peripheral\prot/cy_prot.c **** *   Status               | Description
1407:Generated_Source\PSoC6\pdl\drivers\peripheral\prot/cy_prot.c **** *   ------------         | -----------
1408:Generated_Source\PSoC6\pdl\drivers\peripheral\prot/cy_prot.c **** *   CY_PROT_SUCCESS      | PPU RG slave struct was successfully configured
1409:Generated_Source\PSoC6\pdl\drivers\peripheral\prot/cy_prot.c **** *   CY_PROT_FAILURE      | The resource is locked
1410:Generated_Source\PSoC6\pdl\drivers\peripheral\prot/cy_prot.c **** *   CY_PROT_BAD_PARAM    | An incorrect/invalid parameter was passed
1411:Generated_Source\PSoC6\pdl\drivers\peripheral\prot/cy_prot.c **** *  
1412:Generated_Source\PSoC6\pdl\drivers\peripheral\prot/cy_prot.c **** *******************************************************************************/
1413:Generated_Source\PSoC6\pdl\drivers\peripheral\prot/cy_prot.c **** cy_en_prot_status_t Cy_Prot_ConfigPpuFixedRgSlaveStruct(PERI_GR_PPU_RG_Type* base, const cy_stc_ppu
1414:Generated_Source\PSoC6\pdl\drivers\peripheral\prot/cy_prot.c **** {
 1851              		.loc 1 1414 0
 1852              		.cfi_startproc
 1853              		@ args = 0, pretend = 0, frame = 0
 1854              		@ frame_needed = 0, uses_anonymous_args = 0
 1855              		@ link register save eliminated.
 1856              	.LVL203:
 1857 0000 10B4     		push	{r4}
 1858              		.cfi_def_cfa_offset 4
 1859              		.cfi_offset 4, -4
ARM GAS  C:\Users\kiwamu\AppData\Local\Temp\ccLfX6Zi.s 			page 59


 1860              	.LVL204:
1415:Generated_Source\PSoC6\pdl\drivers\peripheral\prot/cy_prot.c ****     cy_en_prot_status_t status = CY_PROT_SUCCESS;
1416:Generated_Source\PSoC6\pdl\drivers\peripheral\prot/cy_prot.c ****     uint32_t attReg;
1417:Generated_Source\PSoC6\pdl\drivers\peripheral\prot/cy_prot.c ****     
1418:Generated_Source\PSoC6\pdl\drivers\peripheral\prot/cy_prot.c ****     if(((uint32_t)config->pcMask & CY_PROT_PPU_FIXED_PC_LIMIT_MASK) != 0UL) 
 1861              		.loc 1 1418 0
 1862 0002 8C88     		ldrh	r4, [r1, #4]
 1863 0004 34F07F03 		bics	r3, r4, #127
 1864 0008 27D1     		bne	.L186
1419:Generated_Source\PSoC6\pdl\drivers\peripheral\prot/cy_prot.c ****     {
1420:Generated_Source\PSoC6\pdl\drivers\peripheral\prot/cy_prot.c ****         /* PC mask out of range - not supported in device */
1421:Generated_Source\PSoC6\pdl\drivers\peripheral\prot/cy_prot.c ****         status = CY_PROT_BAD_PARAM;
1422:Generated_Source\PSoC6\pdl\drivers\peripheral\prot/cy_prot.c ****     }
1423:Generated_Source\PSoC6\pdl\drivers\peripheral\prot/cy_prot.c ****     else
1424:Generated_Source\PSoC6\pdl\drivers\peripheral\prot/cy_prot.c ****     {
1425:Generated_Source\PSoC6\pdl\drivers\peripheral\prot/cy_prot.c ****         /* ADDR0 is read only. Only configure ATT0 */
1426:Generated_Source\PSoC6\pdl\drivers\peripheral\prot/cy_prot.c ****         attReg = ((uint32_t)config->userPermission & CY_PROT_ATT_PERMISSION_MASK)
 1865              		.loc 1 1426 0
 1866 000a 0B78     		ldrb	r3, [r1]	@ zero_extendqisi2
 1867 000c 03F00703 		and	r3, r3, #7
1427:Generated_Source\PSoC6\pdl\drivers\peripheral\prot/cy_prot.c ****                     | (uint32_t)(((uint32_t)config->privPermission & CY_PROT_ATT_PERMISSION_MASK) <
 1868              		.loc 1 1427 0
 1869 0010 4A78     		ldrb	r2, [r1, #1]	@ zero_extendqisi2
 1870 0012 D200     		lsls	r2, r2, #3
 1871 0014 02F03802 		and	r2, r2, #56
 1872 0018 1343     		orrs	r3, r3, r2
1428:Generated_Source\PSoC6\pdl\drivers\peripheral\prot/cy_prot.c ****                     | _VAL2FLD(PERI_GR_PPU_RG_ATT0_NS, !(config->secure))
 1873              		.loc 1 1428 0
 1874 001a 8A78     		ldrb	r2, [r1, #2]	@ zero_extendqisi2
 1875 001c 82F00102 		eor	r2, r2, #1
 1876 0020 9201     		lsls	r2, r2, #6
 1877 0022 02F04002 		and	r2, r2, #64
 1878 0026 1343     		orrs	r3, r3, r2
1429:Generated_Source\PSoC6\pdl\drivers\peripheral\prot/cy_prot.c ****                     | _VAL2FLD(PERI_GR_PPU_RG_ATT0_PC_MASK_15_TO_1, config->pcMask)
 1879              		.loc 1 1429 0
 1880 0028 104A     		ldr	r2, .L190
 1881 002a 02EA4424 		and	r4, r2, r4, lsl #9
 1882 002e 2343     		orrs	r3, r3, r4
1430:Generated_Source\PSoC6\pdl\drivers\peripheral\prot/cy_prot.c ****                     /* No region size - read only */
1431:Generated_Source\PSoC6\pdl\drivers\peripheral\prot/cy_prot.c ****                     | _VAL2FLD(PERI_GR_PPU_RG_ATT0_PC_MATCH, config->pcMatch);
 1883              		.loc 1 1431 0
 1884 0030 CA78     		ldrb	r2, [r1, #3]	@ zero_extendqisi2
 1885 0032 9207     		lsls	r2, r2, #30
 1886 0034 02F08042 		and	r2, r2, #1073741824
1426:Generated_Source\PSoC6\pdl\drivers\peripheral\prot/cy_prot.c ****                     | (uint32_t)(((uint32_t)config->privPermission & CY_PROT_ATT_PERMISSION_MASK) <
 1887              		.loc 1 1426 0
 1888 0038 1343     		orrs	r3, r3, r2
 1889              	.LVL205:
1432:Generated_Source\PSoC6\pdl\drivers\peripheral\prot/cy_prot.c ****         if ((attReg & CY_PROT_PPU_RG_ATT0_MASK) != attReg)
 1890              		.loc 1 1432 0
 1891 003a 23F03F42 		bic	r2, r3, #-1090519040
 1892 003e 22F4D272 		bic	r2, r2, #420
 1893 0042 9342     		cmp	r3, r2
 1894 0044 0BD1     		bne	.L187
1433:Generated_Source\PSoC6\pdl\drivers\peripheral\prot/cy_prot.c ****         {
1434:Generated_Source\PSoC6\pdl\drivers\peripheral\prot/cy_prot.c ****             /* Invalid parameter was passed */
1435:Generated_Source\PSoC6\pdl\drivers\peripheral\prot/cy_prot.c ****             status = CY_PROT_BAD_PARAM;
ARM GAS  C:\Users\kiwamu\AppData\Local\Temp\ccLfX6Zi.s 			page 60


1436:Generated_Source\PSoC6\pdl\drivers\peripheral\prot/cy_prot.c ****         }
1437:Generated_Source\PSoC6\pdl\drivers\peripheral\prot/cy_prot.c ****         else
1438:Generated_Source\PSoC6\pdl\drivers\peripheral\prot/cy_prot.c ****         {
1439:Generated_Source\PSoC6\pdl\drivers\peripheral\prot/cy_prot.c ****             base->ATT0 = attReg;
 1895              		.loc 1 1439 0
 1896 0046 4360     		str	r3, [r0, #4]
1440:Generated_Source\PSoC6\pdl\drivers\peripheral\prot/cy_prot.c ****             status = ((base->ATT0 & CY_PROT_PPU_RG_ATT0_MASK) != attReg) ? CY_PROT_FAILURE : CY_PRO
 1897              		.loc 1 1440 0
 1898 0048 4268     		ldr	r2, [r0, #4]
 1899 004a 22F0F852 		bic	r2, r2, #520093696
 1900 004e 22F49272 		bic	r2, r2, #292
 1901 0052 9342     		cmp	r3, r2
 1902 0054 05D0     		beq	.L188
 1903 0056 0648     		ldr	r0, .L190+4
 1904              	.LVL206:
 1905 0058 04E0     		b	.L185
 1906              	.LVL207:
 1907              	.L186:
1421:Generated_Source\PSoC6\pdl\drivers\peripheral\prot/cy_prot.c ****     }
 1908              		.loc 1 1421 0
 1909 005a 0648     		ldr	r0, .L190+8
 1910              	.LVL208:
 1911 005c 02E0     		b	.L185
 1912              	.LVL209:
 1913              	.L187:
1435:Generated_Source\PSoC6\pdl\drivers\peripheral\prot/cy_prot.c ****         }
 1914              		.loc 1 1435 0
 1915 005e 0548     		ldr	r0, .L190+8
 1916              	.LVL210:
 1917 0060 00E0     		b	.L185
 1918              	.LVL211:
 1919              	.L188:
 1920              		.loc 1 1440 0
 1921 0062 0020     		movs	r0, #0
 1922              	.LVL212:
 1923              	.L185:
1441:Generated_Source\PSoC6\pdl\drivers\peripheral\prot/cy_prot.c ****         }
1442:Generated_Source\PSoC6\pdl\drivers\peripheral\prot/cy_prot.c ****     }
1443:Generated_Source\PSoC6\pdl\drivers\peripheral\prot/cy_prot.c ****     
1444:Generated_Source\PSoC6\pdl\drivers\peripheral\prot/cy_prot.c ****     return status;
1445:Generated_Source\PSoC6\pdl\drivers\peripheral\prot/cy_prot.c **** }
 1924              		.loc 1 1445 0
 1925 0064 5DF8044B 		ldr	r4, [sp], #4
 1926              		.cfi_restore 4
 1927              		.cfi_def_cfa_offset 0
 1928 0068 7047     		bx	lr
 1929              	.L191:
 1930 006a 00BF     		.align	2
 1931              	.L190:
 1932 006c 00FEFF00 		.word	16776704
 1933 0070 0300C200 		.word	12713987
 1934 0074 0100C200 		.word	12713985
 1935              		.cfi_endproc
 1936              	.LFE154:
 1937              		.size	Cy_Prot_ConfigPpuFixedRgSlaveStruct, .-Cy_Prot_ConfigPpuFixedRgSlaveStruct
 1938              		.section	.text.Cy_Prot_EnablePpuFixedRgMasterStruct,"ax",%progbits
 1939              		.align	2
ARM GAS  C:\Users\kiwamu\AppData\Local\Temp\ccLfX6Zi.s 			page 61


 1940              		.global	Cy_Prot_EnablePpuFixedRgMasterStruct
 1941              		.thumb
 1942              		.thumb_func
 1943              		.type	Cy_Prot_EnablePpuFixedRgMasterStruct, %function
 1944              	Cy_Prot_EnablePpuFixedRgMasterStruct:
 1945              	.LFB155:
1446:Generated_Source\PSoC6\pdl\drivers\peripheral\prot/cy_prot.c **** 
1447:Generated_Source\PSoC6\pdl\drivers\peripheral\prot/cy_prot.c **** 
1448:Generated_Source\PSoC6\pdl\drivers\peripheral\prot/cy_prot.c **** /*******************************************************************************
1449:Generated_Source\PSoC6\pdl\drivers\peripheral\prot/cy_prot.c **** * Function Name: Cy_Prot_EnablePpuFixedRgMasterStruct
1450:Generated_Source\PSoC6\pdl\drivers\peripheral\prot/cy_prot.c **** ****************************************************************************//**
1451:Generated_Source\PSoC6\pdl\drivers\peripheral\prot/cy_prot.c **** *
1452:Generated_Source\PSoC6\pdl\drivers\peripheral\prot/cy_prot.c **** * \brief Enables the Master PPU RG structure.
1453:Generated_Source\PSoC6\pdl\drivers\peripheral\prot/cy_prot.c **** *
1454:Generated_Source\PSoC6\pdl\drivers\peripheral\prot/cy_prot.c **** * This is a PPU RG master struct enable function. The PPU RG protection 
1455:Generated_Source\PSoC6\pdl\drivers\peripheral\prot/cy_prot.c **** * settings will take effect after successful completion of this function call.
1456:Generated_Source\PSoC6\pdl\drivers\peripheral\prot/cy_prot.c **** *
1457:Generated_Source\PSoC6\pdl\drivers\peripheral\prot/cy_prot.c **** * \param base
1458:Generated_Source\PSoC6\pdl\drivers\peripheral\prot/cy_prot.c **** * The base address for the protection unit structure being configured. 
1459:Generated_Source\PSoC6\pdl\drivers\peripheral\prot/cy_prot.c **** *
1460:Generated_Source\PSoC6\pdl\drivers\peripheral\prot/cy_prot.c **** * \return
1461:Generated_Source\PSoC6\pdl\drivers\peripheral\prot/cy_prot.c **** * Status of the function call.
1462:Generated_Source\PSoC6\pdl\drivers\peripheral\prot/cy_prot.c **** *
1463:Generated_Source\PSoC6\pdl\drivers\peripheral\prot/cy_prot.c **** *   Status               | Description
1464:Generated_Source\PSoC6\pdl\drivers\peripheral\prot/cy_prot.c **** *   ------------         | -----------
1465:Generated_Source\PSoC6\pdl\drivers\peripheral\prot/cy_prot.c **** *   CY_PROT_SUCCESS      | The Master PU struct was enabled
1466:Generated_Source\PSoC6\pdl\drivers\peripheral\prot/cy_prot.c **** *   CY_PROT_FAILURE      | The Master PU struct is disabled and possibly locked
1467:Generated_Source\PSoC6\pdl\drivers\peripheral\prot/cy_prot.c **** *  
1468:Generated_Source\PSoC6\pdl\drivers\peripheral\prot/cy_prot.c **** *******************************************************************************/
1469:Generated_Source\PSoC6\pdl\drivers\peripheral\prot/cy_prot.c **** cy_en_prot_status_t Cy_Prot_EnablePpuFixedRgMasterStruct(PERI_GR_PPU_RG_Type* base)
1470:Generated_Source\PSoC6\pdl\drivers\peripheral\prot/cy_prot.c **** {
 1946              		.loc 1 1470 0
 1947              		.cfi_startproc
 1948              		@ args = 0, pretend = 0, frame = 0
 1949              		@ frame_needed = 0, uses_anonymous_args = 0
 1950              		@ link register save eliminated.
 1951              	.LVL213:
1471:Generated_Source\PSoC6\pdl\drivers\peripheral\prot/cy_prot.c ****     cy_en_prot_status_t status = CY_PROT_SUCCESS;
1472:Generated_Source\PSoC6\pdl\drivers\peripheral\prot/cy_prot.c ****     
1473:Generated_Source\PSoC6\pdl\drivers\peripheral\prot/cy_prot.c ****     base->ATT1 |= _VAL2FLD(PERI_GR_PPU_RG_ATT1_ENABLED, CY_PROT_STRUCT_ENABLE);
 1952              		.loc 1 1473 0
 1953 0000 436A     		ldr	r3, [r0, #36]
 1954 0002 43F00043 		orr	r3, r3, #-2147483648
 1955 0006 4362     		str	r3, [r0, #36]
1474:Generated_Source\PSoC6\pdl\drivers\peripheral\prot/cy_prot.c ****     status = (_FLD2VAL(PERI_GR_PPU_RG_ATT1_ENABLED, base->ATT1) != CY_PROT_STRUCT_ENABLE) ?
 1956              		.loc 1 1474 0
 1957 0008 436A     		ldr	r3, [r0, #36]
 1958 000a 002B     		cmp	r3, #0
 1959 000c 01DB     		blt	.L194
 1960 000e 0248     		ldr	r0, .L195
 1961              	.LVL214:
 1962 0010 7047     		bx	lr
 1963              	.LVL215:
 1964              	.L194:
 1965 0012 0020     		movs	r0, #0
 1966              	.LVL216:
1475:Generated_Source\PSoC6\pdl\drivers\peripheral\prot/cy_prot.c ****                 CY_PROT_FAILURE : CY_PROT_SUCCESS;
ARM GAS  C:\Users\kiwamu\AppData\Local\Temp\ccLfX6Zi.s 			page 62


1476:Generated_Source\PSoC6\pdl\drivers\peripheral\prot/cy_prot.c ****     
1477:Generated_Source\PSoC6\pdl\drivers\peripheral\prot/cy_prot.c ****     return status;
1478:Generated_Source\PSoC6\pdl\drivers\peripheral\prot/cy_prot.c **** }
 1967              		.loc 1 1478 0
 1968 0014 7047     		bx	lr
 1969              	.L196:
 1970 0016 00BF     		.align	2
 1971              	.L195:
 1972 0018 0300C200 		.word	12713987
 1973              		.cfi_endproc
 1974              	.LFE155:
 1975              		.size	Cy_Prot_EnablePpuFixedRgMasterStruct, .-Cy_Prot_EnablePpuFixedRgMasterStruct
 1976              		.section	.text.Cy_Prot_DisablePpuFixedRgMasterStruct,"ax",%progbits
 1977              		.align	2
 1978              		.global	Cy_Prot_DisablePpuFixedRgMasterStruct
 1979              		.thumb
 1980              		.thumb_func
