ARM GAS  C:\Users\kiwamu\AppData\Local\Temp\ccLfX6Zi.s 			page 1


   1              		.syntax unified
   2              		.cpu cortex-m4
   3              		.eabi_attribute 27, 1
   4              		.fpu fpv4-sp-d16
   5              		.eabi_attribute 20, 1
   6              		.eabi_attribute 21, 1
   7              		.eabi_attribute 23, 3
   8              		.eabi_attribute 24, 1
   9              		.eabi_attribute 25, 1
  10              		.eabi_attribute 26, 1
  11              		.eabi_attribute 30, 1
  12              		.eabi_attribute 34, 1
  13              		.eabi_attribute 18, 4
  14              		.thumb
  15              		.syntax unified
  16              		.file	"cy_prot.c"
  17              		.text
  18              	.Ltext0:
  19              		.cfi_sections	.debug_frame
  20              		.section	.text.Cy_Prot_ConfigBusMaster,"ax",%progbits
  21              		.align	2
  22              		.global	Cy_Prot_ConfigBusMaster
  23              		.thumb
  24              		.thumb_func
  25              		.type	Cy_Prot_ConfigBusMaster, %function
  26              	Cy_Prot_ConfigBusMaster:
  27              	.LFB123:
  28              		.file 1 "Generated_Source\\PSoC6\\pdl\\drivers\\peripheral\\prot\\cy_prot.c"
   1:Generated_Source\PSoC6\pdl\drivers\peripheral\prot/cy_prot.c **** /***************************************************************************//**
   2:Generated_Source\PSoC6\pdl\drivers\peripheral\prot/cy_prot.c **** * \file cy_prot.c
   3:Generated_Source\PSoC6\pdl\drivers\peripheral\prot/cy_prot.c **** * \version 1.0
   4:Generated_Source\PSoC6\pdl\drivers\peripheral\prot/cy_prot.c **** *
   5:Generated_Source\PSoC6\pdl\drivers\peripheral\prot/cy_prot.c **** * \brief
   6:Generated_Source\PSoC6\pdl\drivers\peripheral\prot/cy_prot.c **** * Provides an API implementation of the Protection Unit driver
   7:Generated_Source\PSoC6\pdl\drivers\peripheral\prot/cy_prot.c **** *
   8:Generated_Source\PSoC6\pdl\drivers\peripheral\prot/cy_prot.c **** ********************************************************************************
   9:Generated_Source\PSoC6\pdl\drivers\peripheral\prot/cy_prot.c **** * \copyright
  10:Generated_Source\PSoC6\pdl\drivers\peripheral\prot/cy_prot.c **** * Copyright 2016-2017, Cypress Semiconductor Corporation. All rights reserved.
  11:Generated_Source\PSoC6\pdl\drivers\peripheral\prot/cy_prot.c **** * You may use this file only in accordance with the license, terms, conditions,
  12:Generated_Source\PSoC6\pdl\drivers\peripheral\prot/cy_prot.c **** * disclaimers, and limitations in the end user license agreement accompanying
  13:Generated_Source\PSoC6\pdl\drivers\peripheral\prot/cy_prot.c **** * the software package with which this file was provided.
  14:Generated_Source\PSoC6\pdl\drivers\peripheral\prot/cy_prot.c **** *******************************************************************************/
  15:Generated_Source\PSoC6\pdl\drivers\peripheral\prot/cy_prot.c **** 
  16:Generated_Source\PSoC6\pdl\drivers\peripheral\prot/cy_prot.c **** #include "cy_prot.h"
  17:Generated_Source\PSoC6\pdl\drivers\peripheral\prot/cy_prot.c **** 
  18:Generated_Source\PSoC6\pdl\drivers\peripheral\prot/cy_prot.c **** #if defined(__cplusplus)
  19:Generated_Source\PSoC6\pdl\drivers\peripheral\prot/cy_prot.c **** extern "C" {
  20:Generated_Source\PSoC6\pdl\drivers\peripheral\prot/cy_prot.c **** #endif
  21:Generated_Source\PSoC6\pdl\drivers\peripheral\prot/cy_prot.c **** 
  22:Generated_Source\PSoC6\pdl\drivers\peripheral\prot/cy_prot.c **** 
  23:Generated_Source\PSoC6\pdl\drivers\peripheral\prot/cy_prot.c **** /*******************************************************************************
  24:Generated_Source\PSoC6\pdl\drivers\peripheral\prot/cy_prot.c **** * Function Name: Cy_Prot_ConfigBusMaster
  25:Generated_Source\PSoC6\pdl\drivers\peripheral\prot/cy_prot.c **** ****************************************************************************//**
  26:Generated_Source\PSoC6\pdl\drivers\peripheral\prot/cy_prot.c **** *
  27:Generated_Source\PSoC6\pdl\drivers\peripheral\prot/cy_prot.c **** * \brief Configures the allowed protection contexts, security (secure/non-secure)
  28:Generated_Source\PSoC6\pdl\drivers\peripheral\prot/cy_prot.c **** * and privilege level of the bus transaction created by the specified master. 
  29:Generated_Source\PSoC6\pdl\drivers\peripheral\prot/cy_prot.c **** *
ARM GAS  C:\Users\kiwamu\AppData\Local\Temp\ccLfX6Zi.s 			page 2


  30:Generated_Source\PSoC6\pdl\drivers\peripheral\prot/cy_prot.c **** * \param busMaster
  31:Generated_Source\PSoC6\pdl\drivers\peripheral\prot/cy_prot.c **** * Indicates which master needs to be configured. Refer to the CY_PROT_MASTER_X
  32:Generated_Source\PSoC6\pdl\drivers\peripheral\prot/cy_prot.c **** * defines.
  33:Generated_Source\PSoC6\pdl\drivers\peripheral\prot/cy_prot.c **** * 
  34:Generated_Source\PSoC6\pdl\drivers\peripheral\prot/cy_prot.c **** * \param privileged
  35:Generated_Source\PSoC6\pdl\drivers\peripheral\prot/cy_prot.c **** * Boolean to define the privilege level of all subsequent bus transfers.
  36:Generated_Source\PSoC6\pdl\drivers\peripheral\prot/cy_prot.c **** * True - privileged, False - not privileged.
  37:Generated_Source\PSoC6\pdl\drivers\peripheral\prot/cy_prot.c **** * Note that this is an inherited value. If not inherited, then this bit will 
  38:Generated_Source\PSoC6\pdl\drivers\peripheral\prot/cy_prot.c **** * be used.
  39:Generated_Source\PSoC6\pdl\drivers\peripheral\prot/cy_prot.c **** *
  40:Generated_Source\PSoC6\pdl\drivers\peripheral\prot/cy_prot.c **** * \param secure
  41:Generated_Source\PSoC6\pdl\drivers\peripheral\prot/cy_prot.c **** * Security setting for the master. True - Secure, False - Not secure.
  42:Generated_Source\PSoC6\pdl\drivers\peripheral\prot/cy_prot.c **** * 
  43:Generated_Source\PSoC6\pdl\drivers\peripheral\prot/cy_prot.c **** * \param pcMask
  44:Generated_Source\PSoC6\pdl\drivers\peripheral\prot/cy_prot.c **** * This is a 16 bit value of the allowed contexts, it is an OR'ed (|) field of the
  45:Generated_Source\PSoC6\pdl\drivers\peripheral\prot/cy_prot.c **** * provided defines in cy_prot.h. For example: (PROT_PC1 | PROT_PC3 | PROT_PC4)
  46:Generated_Source\PSoC6\pdl\drivers\peripheral\prot/cy_prot.c **** * 
  47:Generated_Source\PSoC6\pdl\drivers\peripheral\prot/cy_prot.c **** * \return
  48:Generated_Source\PSoC6\pdl\drivers\peripheral\prot/cy_prot.c **** * Status of the function call.
  49:Generated_Source\PSoC6\pdl\drivers\peripheral\prot/cy_prot.c **** *
  50:Generated_Source\PSoC6\pdl\drivers\peripheral\prot/cy_prot.c **** *   Status               | Description
  51:Generated_Source\PSoC6\pdl\drivers\peripheral\prot/cy_prot.c **** *   ------------         | -----------
  52:Generated_Source\PSoC6\pdl\drivers\peripheral\prot/cy_prot.c **** *   CY_PROT_SUCCESS      | The function completed successfully
  53:Generated_Source\PSoC6\pdl\drivers\peripheral\prot/cy_prot.c **** *   CY_PROT_FAILURE      | The resource is locked
  54:Generated_Source\PSoC6\pdl\drivers\peripheral\prot/cy_prot.c **** *   CY_PROT_BAD_PARAM    | An incorrect/invalid parameter was passed
  55:Generated_Source\PSoC6\pdl\drivers\peripheral\prot/cy_prot.c **** *  
  56:Generated_Source\PSoC6\pdl\drivers\peripheral\prot/cy_prot.c **** *******************************************************************************/
  57:Generated_Source\PSoC6\pdl\drivers\peripheral\prot/cy_prot.c **** cy_en_prot_status_t Cy_Prot_ConfigBusMaster(en_prot_master_t busMaster, bool privileged, bool secur
  58:Generated_Source\PSoC6\pdl\drivers\peripheral\prot/cy_prot.c **** {
  29              		.loc 1 58 0
  30              		.cfi_startproc
  31              		@ args = 0, pretend = 0, frame = 0
  32              		@ frame_needed = 0, uses_anonymous_args = 0
  33              	.LVL0:
  34 0000 00B5     		push	{lr}
  35              		.cfi_def_cfa_offset 4
  36              		.cfi_offset 14, -4
  37              	.LVL1:
  59:Generated_Source\PSoC6\pdl\drivers\peripheral\prot/cy_prot.c ****     cy_en_prot_status_t status = CY_PROT_SUCCESS;
  60:Generated_Source\PSoC6\pdl\drivers\peripheral\prot/cy_prot.c ****     uint32_t regVal;
  61:Generated_Source\PSoC6\pdl\drivers\peripheral\prot/cy_prot.c ****     uint32_t * addrMsCtl = (uint32_t *)(PROT_BASE + (uint32_t)((uint32_t)busMaster << CY_PROT_MSX_C
  62:Generated_Source\PSoC6\pdl\drivers\peripheral\prot/cy_prot.c **** 
  63:Generated_Source\PSoC6\pdl\drivers\peripheral\prot/cy_prot.c ****     if((uint32_t)(pcMask & CY_PROT_MPU_PC_LIMIT_MASK) != 0UL) 
  38              		.loc 1 63 0
  39 0002 33F07F0E 		bics	lr, r3, #127
  40 0006 10D1     		bne	.L3
  41 0008 8000     		lsls	r0, r0, #2
  42              	.LVL2:
  43 000a 00F18040 		add	r0, r0, #1073741824
  44              	.LVL3:
  45 000e 00F51010 		add	r0, r0, #2359296
  46              	.LVL4:
  64:Generated_Source\PSoC6\pdl\drivers\peripheral\prot/cy_prot.c ****     {
  65:Generated_Source\PSoC6\pdl\drivers\peripheral\prot/cy_prot.c ****         /* PC mask out of range - not supported in device */
  66:Generated_Source\PSoC6\pdl\drivers\peripheral\prot/cy_prot.c ****         status = CY_PROT_BAD_PARAM;
  67:Generated_Source\PSoC6\pdl\drivers\peripheral\prot/cy_prot.c ****     }
  68:Generated_Source\PSoC6\pdl\drivers\peripheral\prot/cy_prot.c ****     else
ARM GAS  C:\Users\kiwamu\AppData\Local\Temp\ccLfX6Zi.s 			page 3


  69:Generated_Source\PSoC6\pdl\drivers\peripheral\prot/cy_prot.c ****     {
  70:Generated_Source\PSoC6\pdl\drivers\peripheral\prot/cy_prot.c ****         regVal = _VAL2FLD(PROT_SMPU_MS0_CTL_NS, !secure)
  47              		.loc 1 70 0
  48 0012 82F00102 		eor	r2, r2, #1
  49              	.LVL5:
  50 0016 5200     		lsls	r2, r2, #1
  51 0018 02F00202 		and	r2, r2, #2
  71:Generated_Source\PSoC6\pdl\drivers\peripheral\prot/cy_prot.c ****                 | _VAL2FLD(PROT_SMPU_MS0_CTL_P, privileged)
  52              		.loc 1 71 0
  53 001c 0A43     		orrs	r2, r2, r1
  70:Generated_Source\PSoC6\pdl\drivers\peripheral\prot/cy_prot.c ****                 | _VAL2FLD(PROT_SMPU_MS0_CTL_P, privileged)
  54              		.loc 1 70 0
  55 001e 42EA4343 		orr	r3, r2, r3, lsl #17
  56              	.LVL6:
  72:Generated_Source\PSoC6\pdl\drivers\peripheral\prot/cy_prot.c ****                 | _VAL2FLD(PROT_SMPU_MS0_CTL_PC_MASK_15_TO_1, pcMask);
  73:Generated_Source\PSoC6\pdl\drivers\peripheral\prot/cy_prot.c ****         *addrMsCtl = regVal;
  57              		.loc 1 73 0
  58 0022 0360     		str	r3, [r0]
  74:Generated_Source\PSoC6\pdl\drivers\peripheral\prot/cy_prot.c ****         status = (*addrMsCtl != regVal) ? CY_PROT_FAILURE : CY_PROT_SUCCESS;
  59              		.loc 1 74 0
  60 0024 0020     		movs	r0, #0
  61              	.LVL7:
  62 0026 5DF804FB 		ldr	pc, [sp], #4
  63              	.LVL8:
  64              	.L3:
  66:Generated_Source\PSoC6\pdl\drivers\peripheral\prot/cy_prot.c ****     }
  65              		.loc 1 66 0
  66 002a 0148     		ldr	r0, .L5
  67              	.LVL9:
  75:Generated_Source\PSoC6\pdl\drivers\peripheral\prot/cy_prot.c ****     }
  76:Generated_Source\PSoC6\pdl\drivers\peripheral\prot/cy_prot.c ****     
  77:Generated_Source\PSoC6\pdl\drivers\peripheral\prot/cy_prot.c ****     return status;
  78:Generated_Source\PSoC6\pdl\drivers\peripheral\prot/cy_prot.c **** }
  68              		.loc 1 78 0
  69 002c 5DF804FB 		ldr	pc, [sp], #4
  70              	.L6:
  71              		.align	2
  72              	.L5:
  73 0030 0100C200 		.word	12713985
  74              		.cfi_endproc
  75              	.LFE123:
  76              		.size	Cy_Prot_ConfigBusMaster, .-Cy_Prot_ConfigBusMaster
  77              		.section	.text.Cy_Prot_SetActivePC,"ax",%progbits
  78              		.align	2
  79              		.global	Cy_Prot_SetActivePC
  80              		.thumb
  81              		.thumb_func
  82              		.type	Cy_Prot_SetActivePC, %function
  83              	Cy_Prot_SetActivePC:
  84              	.LFB124:
  79:Generated_Source\PSoC6\pdl\drivers\peripheral\prot/cy_prot.c **** 
  80:Generated_Source\PSoC6\pdl\drivers\peripheral\prot/cy_prot.c **** 
  81:Generated_Source\PSoC6\pdl\drivers\peripheral\prot/cy_prot.c **** /*******************************************************************************
  82:Generated_Source\PSoC6\pdl\drivers\peripheral\prot/cy_prot.c **** * Function Name: Cy_Prot_SetActivePC
  83:Generated_Source\PSoC6\pdl\drivers\peripheral\prot/cy_prot.c **** ****************************************************************************//**
  84:Generated_Source\PSoC6\pdl\drivers\peripheral\prot/cy_prot.c **** *
  85:Generated_Source\PSoC6\pdl\drivers\peripheral\prot/cy_prot.c **** * \brief Sets the current/active protection context of the specified bus master.
ARM GAS  C:\Users\kiwamu\AppData\Local\Temp\ccLfX6Zi.s 			page 4


  86:Generated_Source\PSoC6\pdl\drivers\peripheral\prot/cy_prot.c **** * 
  87:Generated_Source\PSoC6\pdl\drivers\peripheral\prot/cy_prot.c **** * Allowed PC values are 1-15. If this value is not inherited from another bus 
  88:Generated_Source\PSoC6\pdl\drivers\peripheral\prot/cy_prot.c **** * master, the value set through this function is used.
  89:Generated_Source\PSoC6\pdl\drivers\peripheral\prot/cy_prot.c **** *
  90:Generated_Source\PSoC6\pdl\drivers\peripheral\prot/cy_prot.c **** * \param busMaster
  91:Generated_Source\PSoC6\pdl\drivers\peripheral\prot/cy_prot.c **** * The bus master to configure. Refer to the CY_PROT_MASTER_X defines.
  92:Generated_Source\PSoC6\pdl\drivers\peripheral\prot/cy_prot.c **** * 
  93:Generated_Source\PSoC6\pdl\drivers\peripheral\prot/cy_prot.c **** * \param pc
  94:Generated_Source\PSoC6\pdl\drivers\peripheral\prot/cy_prot.c **** * Active protection context of the specified master. Note that only those 
  95:Generated_Source\PSoC6\pdl\drivers\peripheral\prot/cy_prot.c **** * protection contexts allowed by the pcMask will take effect. 
  96:Generated_Source\PSoC6\pdl\drivers\peripheral\prot/cy_prot.c **** *
  97:Generated_Source\PSoC6\pdl\drivers\peripheral\prot/cy_prot.c **** * \return
  98:Generated_Source\PSoC6\pdl\drivers\peripheral\prot/cy_prot.c **** * Status of the function call.
  99:Generated_Source\PSoC6\pdl\drivers\peripheral\prot/cy_prot.c **** *
 100:Generated_Source\PSoC6\pdl\drivers\peripheral\prot/cy_prot.c **** *   Status               | Description
 101:Generated_Source\PSoC6\pdl\drivers\peripheral\prot/cy_prot.c **** *   ------------         | -----------
 102:Generated_Source\PSoC6\pdl\drivers\peripheral\prot/cy_prot.c **** *   CY_PROT_SUCCESS      | The function completed successfully
 103:Generated_Source\PSoC6\pdl\drivers\peripheral\prot/cy_prot.c **** *   CY_PROT_FAILURE      | The resource is locked
 104:Generated_Source\PSoC6\pdl\drivers\peripheral\prot/cy_prot.c **** *   CY_PROT_BAD_PARAM    | An incorrect/invalid parameter was passed
 105:Generated_Source\PSoC6\pdl\drivers\peripheral\prot/cy_prot.c **** *  
 106:Generated_Source\PSoC6\pdl\drivers\peripheral\prot/cy_prot.c **** *******************************************************************************/
 107:Generated_Source\PSoC6\pdl\drivers\peripheral\prot/cy_prot.c **** cy_en_prot_status_t Cy_Prot_SetActivePC(en_prot_master_t busMaster, uint32_t pc)
 108:Generated_Source\PSoC6\pdl\drivers\peripheral\prot/cy_prot.c **** {
  85              		.loc 1 108 0
  86              		.cfi_startproc
  87              		@ args = 0, pretend = 0, frame = 0
  88              		@ frame_needed = 0, uses_anonymous_args = 0
  89              		@ link register save eliminated.
  90              	.LVL10:
 109:Generated_Source\PSoC6\pdl\drivers\peripheral\prot/cy_prot.c ****     cy_en_prot_status_t status = CY_PROT_SUCCESS;
 110:Generated_Source\PSoC6\pdl\drivers\peripheral\prot/cy_prot.c ****     PROT_MPU_Type* addrMpu = (PROT_MPU_Type*)(&PROT->CYMPU[busMaster]);
  91              		.loc 1 110 0
  92 0000 8002     		lsls	r0, r0, #10
  93              	.LVL11:
  94 0002 00F14020 		add	r0, r0, #1073758208
  95 0006 00F51010 		add	r0, r0, #2359296
  96              	.LVL12:
 111:Generated_Source\PSoC6\pdl\drivers\peripheral\prot/cy_prot.c ****     
 112:Generated_Source\PSoC6\pdl\drivers\peripheral\prot/cy_prot.c ****     if(pc >= (uint32_t)CY_PROT_MS_PC_NR_MAX) 
  97              		.loc 1 112 0
  98 000a 0629     		cmp	r1, #6
  99 000c 0DD8     		bhi	.L9
 113:Generated_Source\PSoC6\pdl\drivers\peripheral\prot/cy_prot.c ****     {
 114:Generated_Source\PSoC6\pdl\drivers\peripheral\prot/cy_prot.c ****         /* Invalid PC value - not supported in device */
 115:Generated_Source\PSoC6\pdl\drivers\peripheral\prot/cy_prot.c ****         status = CY_PROT_BAD_PARAM;
 116:Generated_Source\PSoC6\pdl\drivers\peripheral\prot/cy_prot.c ****     }
 117:Generated_Source\PSoC6\pdl\drivers\peripheral\prot/cy_prot.c ****     else
 118:Generated_Source\PSoC6\pdl\drivers\peripheral\prot/cy_prot.c ****     {
 119:Generated_Source\PSoC6\pdl\drivers\peripheral\prot/cy_prot.c ****         addrMpu->MS_CTL = _VAL2FLD(PROT_MPU_MS_CTL_PC, pc) | _VAL2FLD(PROT_MPU_MS_CTL_PC_SAVED, pc)
 100              		.loc 1 119 0
 101 000e 01F00F02 		and	r2, r1, #15
 102 0012 0B04     		lsls	r3, r1, #16
 103 0014 03F47023 		and	r3, r3, #983040
 104 0018 1343     		orrs	r3, r3, r2
 105 001a 0360     		str	r3, [r0]
 120:Generated_Source\PSoC6\pdl\drivers\peripheral\prot/cy_prot.c ****         status = (_FLD2VAL(PROT_MPU_MS_CTL_PC, addrMpu->MS_CTL) != pc) ? CY_PROT_FAILURE : CY_PROT_
 106              		.loc 1 120 0
ARM GAS  C:\Users\kiwamu\AppData\Local\Temp\ccLfX6Zi.s 			page 5


 107 001c 0368     		ldr	r3, [r0]
 108 001e 03F00F03 		and	r3, r3, #15
 109 0022 9942     		cmp	r1, r3
 110 0024 03D0     		beq	.L10
 111 0026 0348     		ldr	r0, .L11
 112              	.LVL13:
 113 0028 7047     		bx	lr
 114              	.LVL14:
 115              	.L9:
 115:Generated_Source\PSoC6\pdl\drivers\peripheral\prot/cy_prot.c ****     }
 116              		.loc 1 115 0
 117 002a 0348     		ldr	r0, .L11+4
 118              	.LVL15:
 119 002c 7047     		bx	lr
 120              	.LVL16:
 121              	.L10:
 122              		.loc 1 120 0
 123 002e 0020     		movs	r0, #0
 124              	.LVL17:
 121:Generated_Source\PSoC6\pdl\drivers\peripheral\prot/cy_prot.c ****     }
 122:Generated_Source\PSoC6\pdl\drivers\peripheral\prot/cy_prot.c ****     
 123:Generated_Source\PSoC6\pdl\drivers\peripheral\prot/cy_prot.c ****     return status;
 124:Generated_Source\PSoC6\pdl\drivers\peripheral\prot/cy_prot.c **** }
 125              		.loc 1 124 0
 126 0030 7047     		bx	lr
 127              	.L12:
 128 0032 00BF     		.align	2
 129              	.L11:
 130 0034 0300C200 		.word	12713987
 131 0038 0100C200 		.word	12713985
 132              		.cfi_endproc
 133              	.LFE124:
 134              		.size	Cy_Prot_SetActivePC, .-Cy_Prot_SetActivePC
 135              		.section	.text.Cy_Prot_GetActivePC,"ax",%progbits
 136              		.align	2
 137              		.global	Cy_Prot_GetActivePC
 138              		.thumb
 139              		.thumb_func
 140              		.type	Cy_Prot_GetActivePC, %function
 141              	Cy_Prot_GetActivePC:
 142              	.LFB125:
 125:Generated_Source\PSoC6\pdl\drivers\peripheral\prot/cy_prot.c **** 
 126:Generated_Source\PSoC6\pdl\drivers\peripheral\prot/cy_prot.c **** 
 127:Generated_Source\PSoC6\pdl\drivers\peripheral\prot/cy_prot.c **** /*******************************************************************************
 128:Generated_Source\PSoC6\pdl\drivers\peripheral\prot/cy_prot.c **** * Function Name: Cy_Prot_GetActivePC
 129:Generated_Source\PSoC6\pdl\drivers\peripheral\prot/cy_prot.c **** ****************************************************************************//**
 130:Generated_Source\PSoC6\pdl\drivers\peripheral\prot/cy_prot.c **** *
 131:Generated_Source\PSoC6\pdl\drivers\peripheral\prot/cy_prot.c **** * \brief Returns the active protection context of a master. 
 132:Generated_Source\PSoC6\pdl\drivers\peripheral\prot/cy_prot.c **** *
 133:Generated_Source\PSoC6\pdl\drivers\peripheral\prot/cy_prot.c **** * \param busMaster
 134:Generated_Source\PSoC6\pdl\drivers\peripheral\prot/cy_prot.c **** * The bus master, whose protection context is being read. Refer to the 
 135:Generated_Source\PSoC6\pdl\drivers\peripheral\prot/cy_prot.c **** * CY_PROT_MASTER_X defines.
 136:Generated_Source\PSoC6\pdl\drivers\peripheral\prot/cy_prot.c **** * 
 137:Generated_Source\PSoC6\pdl\drivers\peripheral\prot/cy_prot.c **** * \return
 138:Generated_Source\PSoC6\pdl\drivers\peripheral\prot/cy_prot.c **** * Active protection context of the master
 139:Generated_Source\PSoC6\pdl\drivers\peripheral\prot/cy_prot.c **** *  
 140:Generated_Source\PSoC6\pdl\drivers\peripheral\prot/cy_prot.c **** *******************************************************************************/
ARM GAS  C:\Users\kiwamu\AppData\Local\Temp\ccLfX6Zi.s 			page 6


 141:Generated_Source\PSoC6\pdl\drivers\peripheral\prot/cy_prot.c **** uint32_t Cy_Prot_GetActivePC(en_prot_master_t busMaster)
 142:Generated_Source\PSoC6\pdl\drivers\peripheral\prot/cy_prot.c **** {
 143              		.loc 1 142 0
 144              		.cfi_startproc
 145              		@ args = 0, pretend = 0, frame = 0
 146              		@ frame_needed = 0, uses_anonymous_args = 0
 147              		@ link register save eliminated.
 148              	.LVL18:
 143:Generated_Source\PSoC6\pdl\drivers\peripheral\prot/cy_prot.c ****     PROT_MPU_Type* addrMpu = (PROT_MPU_Type*)(&PROT->CYMPU[busMaster]);
 149              		.loc 1 143 0
 150 0000 8002     		lsls	r0, r0, #10
 151              	.LVL19:
 152 0002 00F14020 		add	r0, r0, #1073758208
 153 0006 00F51010 		add	r0, r0, #2359296
 154              	.LVL20:
 144:Generated_Source\PSoC6\pdl\drivers\peripheral\prot/cy_prot.c ****     
 145:Generated_Source\PSoC6\pdl\drivers\peripheral\prot/cy_prot.c ****     return ((uint32_t)_FLD2VAL(PROT_MPU_MS_CTL_PC, addrMpu->MS_CTL));
 155              		.loc 1 145 0
 156 000a 0068     		ldr	r0, [r0]
 157              	.LVL21:
 146:Generated_Source\PSoC6\pdl\drivers\peripheral\prot/cy_prot.c **** }
 158              		.loc 1 146 0
 159 000c 00F00F00 		and	r0, r0, #15
 160 0010 7047     		bx	lr
 161              		.cfi_endproc
 162              	.LFE125:
 163              		.size	Cy_Prot_GetActivePC, .-Cy_Prot_GetActivePC
 164 0012 00BF     		.section	.text.Cy_Prot_ConfigMpuStruct,"ax",%progbits
 165              		.align	2
 166              		.global	Cy_Prot_ConfigMpuStruct
 167              		.thumb
 168              		.thumb_func
 169              		.type	Cy_Prot_ConfigMpuStruct, %function
 170              	Cy_Prot_ConfigMpuStruct:
 171              	.LFB126:
 147:Generated_Source\PSoC6\pdl\drivers\peripheral\prot/cy_prot.c **** 
 148:Generated_Source\PSoC6\pdl\drivers\peripheral\prot/cy_prot.c **** 
 149:Generated_Source\PSoC6\pdl\drivers\peripheral\prot/cy_prot.c **** /*******************************************************************************
 150:Generated_Source\PSoC6\pdl\drivers\peripheral\prot/cy_prot.c **** * Function Name: Cy_Prot_ConfigMpuStruct
 151:Generated_Source\PSoC6\pdl\drivers\peripheral\prot/cy_prot.c **** ****************************************************************************//**
 152:Generated_Source\PSoC6\pdl\drivers\peripheral\prot/cy_prot.c **** *
 153:Generated_Source\PSoC6\pdl\drivers\peripheral\prot/cy_prot.c **** * \brief This function configures a memory protection unit (MPU) struct with its 
 154:Generated_Source\PSoC6\pdl\drivers\peripheral\prot/cy_prot.c **** * protection attributes. 
 155:Generated_Source\PSoC6\pdl\drivers\peripheral\prot/cy_prot.c **** *
 156:Generated_Source\PSoC6\pdl\drivers\peripheral\prot/cy_prot.c **** * The protection structs act like the gatekeepers for a master's accesses to
 157:Generated_Source\PSoC6\pdl\drivers\peripheral\prot/cy_prot.c **** * memory, allowing only the permitted transactions to go through.
 158:Generated_Source\PSoC6\pdl\drivers\peripheral\prot/cy_prot.c **** *
 159:Generated_Source\PSoC6\pdl\drivers\peripheral\prot/cy_prot.c **** * \param base
 160:Generated_Source\PSoC6\pdl\drivers\peripheral\prot/cy_prot.c **** * The base address for the MPU struct being configured. 
 161:Generated_Source\PSoC6\pdl\drivers\peripheral\prot/cy_prot.c **** * 
 162:Generated_Source\PSoC6\pdl\drivers\peripheral\prot/cy_prot.c **** * \param config
 163:Generated_Source\PSoC6\pdl\drivers\peripheral\prot/cy_prot.c **** * Initialization structure containing all the protection attributes.
 164:Generated_Source\PSoC6\pdl\drivers\peripheral\prot/cy_prot.c **** * 
 165:Generated_Source\PSoC6\pdl\drivers\peripheral\prot/cy_prot.c **** * \return
 166:Generated_Source\PSoC6\pdl\drivers\peripheral\prot/cy_prot.c **** * Status of the function call.
 167:Generated_Source\PSoC6\pdl\drivers\peripheral\prot/cy_prot.c **** *
 168:Generated_Source\PSoC6\pdl\drivers\peripheral\prot/cy_prot.c **** *   Status               | Description
ARM GAS  C:\Users\kiwamu\AppData\Local\Temp\ccLfX6Zi.s 			page 7


 169:Generated_Source\PSoC6\pdl\drivers\peripheral\prot/cy_prot.c **** *   ------------         | -----------
 170:Generated_Source\PSoC6\pdl\drivers\peripheral\prot/cy_prot.c **** *   CY_PROT_SUCCESS      | The MPU struct was configured
 171:Generated_Source\PSoC6\pdl\drivers\peripheral\prot/cy_prot.c **** *   CY_PROT_FAILURE      | Configuration failed due to a protection violation
 172:Generated_Source\PSoC6\pdl\drivers\peripheral\prot/cy_prot.c **** *  
 173:Generated_Source\PSoC6\pdl\drivers\peripheral\prot/cy_prot.c **** *******************************************************************************/
 174:Generated_Source\PSoC6\pdl\drivers\peripheral\prot/cy_prot.c **** cy_en_prot_status_t Cy_Prot_ConfigMpuStruct(PROT_MPU_MPU_STRUCT_Type* base, const cy_stc_mpu_cfg_t*
 175:Generated_Source\PSoC6\pdl\drivers\peripheral\prot/cy_prot.c **** {
 172              		.loc 1 175 0
 173              		.cfi_startproc
 174              		@ args = 0, pretend = 0, frame = 0
 175              		@ frame_needed = 0, uses_anonymous_args = 0
 176              		@ link register save eliminated.
 177              	.LVL22:
 178 0000 10B4     		push	{r4}
 179              		.cfi_def_cfa_offset 4
 180              		.cfi_offset 4, -4
 181              	.LVL23:
 176:Generated_Source\PSoC6\pdl\drivers\peripheral\prot/cy_prot.c ****     cy_en_prot_status_t status = CY_PROT_SUCCESS;
 177:Generated_Source\PSoC6\pdl\drivers\peripheral\prot/cy_prot.c ****     uint32_t addrReg;
 178:Generated_Source\PSoC6\pdl\drivers\peripheral\prot/cy_prot.c ****     uint32_t attReg;
 179:Generated_Source\PSoC6\pdl\drivers\peripheral\prot/cy_prot.c ****     
 180:Generated_Source\PSoC6\pdl\drivers\peripheral\prot/cy_prot.c ****     addrReg = _VAL2FLD(PROT_MPU_MPU_STRUCT_ADDR_SUBREGION_DISABLE, config->subregions)
 182              		.loc 1 180 0
 183 0002 4C79     		ldrb	r4, [r1, #5]	@ zero_extendqisi2
 181:Generated_Source\PSoC6\pdl\drivers\peripheral\prot/cy_prot.c ****               | _VAL2FLD(PROT_MPU_MPU_STRUCT_ADDR_ADDR24, (uint32_t)((uint32_t)config->address >> C
 184              		.loc 1 181 0
 185 0004 0B68     		ldr	r3, [r1]
 186 0006 23F0FF03 		bic	r3, r3, #255
 180:Generated_Source\PSoC6\pdl\drivers\peripheral\prot/cy_prot.c ****               | _VAL2FLD(PROT_MPU_MPU_STRUCT_ADDR_ADDR24, (uint32_t)((uint32_t)config->address >> C
 187              		.loc 1 180 0
 188 000a 1C43     		orrs	r4, r4, r3
 189              	.LVL24:
 182:Generated_Source\PSoC6\pdl\drivers\peripheral\prot/cy_prot.c ****     attReg  = ((uint32_t)config->userPermission & CY_PROT_ATT_PERMISSION_MASK)
 190              		.loc 1 182 0
 191 000c 8A79     		ldrb	r2, [r1, #6]	@ zero_extendqisi2
 192 000e 02F00702 		and	r2, r2, #7
 183:Generated_Source\PSoC6\pdl\drivers\peripheral\prot/cy_prot.c ****               | (((uint32_t)config->privPermission & CY_PROT_ATT_PERMISSION_MASK) << CY_PROT_ATT_PR
 193              		.loc 1 183 0
 194 0012 CB79     		ldrb	r3, [r1, #7]	@ zero_extendqisi2
 195 0014 DB00     		lsls	r3, r3, #3
 196 0016 03F03803 		and	r3, r3, #56
 197 001a 1A43     		orrs	r2, r2, r3
 184:Generated_Source\PSoC6\pdl\drivers\peripheral\prot/cy_prot.c ****               | _VAL2FLD(PROT_MPU_MPU_STRUCT_ATT_NS, !(config->secure))
 198              		.loc 1 184 0
 199 001c 0B7A     		ldrb	r3, [r1, #8]	@ zero_extendqisi2
 200 001e 83F00103 		eor	r3, r3, #1
 201 0022 9B01     		lsls	r3, r3, #6
 202 0024 03F04003 		and	r3, r3, #64
 203 0028 1343     		orrs	r3, r3, r2
 185:Generated_Source\PSoC6\pdl\drivers\peripheral\prot/cy_prot.c ****               | _VAL2FLD(PROT_MPU_MPU_STRUCT_ATT_REGION_SIZE, config->regionSize);
 204              		.loc 1 185 0
 205 002a 0A79     		ldrb	r2, [r1, #4]	@ zero_extendqisi2
 206 002c 1206     		lsls	r2, r2, #24
 207 002e 02F0F852 		and	r2, r2, #520093696
 182:Generated_Source\PSoC6\pdl\drivers\peripheral\prot/cy_prot.c ****               | (((uint32_t)config->privPermission & CY_PROT_ATT_PERMISSION_MASK) << CY_PROT_ATT_PR
 208              		.loc 1 182 0
 209 0032 1343     		orrs	r3, r3, r2
ARM GAS  C:\Users\kiwamu\AppData\Local\Temp\ccLfX6Zi.s 			page 8


 210              	.LVL25:
 186:Generated_Source\PSoC6\pdl\drivers\peripheral\prot/cy_prot.c ****     base->ATT = attReg;
 211              		.loc 1 186 0
 212 0034 4360     		str	r3, [r0, #4]
 187:Generated_Source\PSoC6\pdl\drivers\peripheral\prot/cy_prot.c ****     base->ADDR = addrReg;
 213              		.loc 1 187 0
 214 0036 0460     		str	r4, [r0]
 188:Generated_Source\PSoC6\pdl\drivers\peripheral\prot/cy_prot.c ****     status = ((base->ADDR != addrReg) || (base->ATT != attReg)) ? CY_PROT_FAILURE : CY_PROT_SUCCESS
 215              		.loc 1 188 0
 216 0038 0268     		ldr	r2, [r0]
 217 003a 9442     		cmp	r4, r2
 218 003c 04D1     		bne	.L16
 219              		.loc 1 188 0 is_stmt 0 discriminator 2
 220 003e 4268     		ldr	r2, [r0, #4]
 221 0040 9342     		cmp	r3, r2
 222 0042 03D0     		beq	.L17
 223              		.loc 1 188 0
 224 0044 0348     		ldr	r0, .L19
 225              	.LVL26:
 226 0046 02E0     		b	.L15
 227              	.LVL27:
 228              	.L16:
 229 0048 0248     		ldr	r0, .L19
 230              	.LVL28:
 231 004a 00E0     		b	.L15
 232              	.LVL29:
 233              	.L17:
 234 004c 0020     		movs	r0, #0
 235              	.LVL30:
 236              	.L15:
 189:Generated_Source\PSoC6\pdl\drivers\peripheral\prot/cy_prot.c ****     
 190:Generated_Source\PSoC6\pdl\drivers\peripheral\prot/cy_prot.c ****     return status;
 191:Generated_Source\PSoC6\pdl\drivers\peripheral\prot/cy_prot.c **** }
 237              		.loc 1 191 0 is_stmt 1 discriminator 6
 238 004e 5DF8044B 		ldr	r4, [sp], #4
 239              		.cfi_restore 4
 240              		.cfi_def_cfa_offset 0
 241              	.LVL31:
 242 0052 7047     		bx	lr
 243              	.L20:
 244              		.align	2
 245              	.L19:
 246 0054 0300C200 		.word	12713987
 247              		.cfi_endproc
 248              	.LFE126:
 249              		.size	Cy_Prot_ConfigMpuStruct, .-Cy_Prot_ConfigMpuStruct
 250              		.section	.text.Cy_Prot_EnableMpuStruct,"ax",%progbits
 251              		.align	2
 252              		.global	Cy_Prot_EnableMpuStruct
 253              		.thumb
 254              		.thumb_func
 255              		.type	Cy_Prot_EnableMpuStruct, %function
 256              	Cy_Prot_EnableMpuStruct:
 257              	.LFB127:
 192:Generated_Source\PSoC6\pdl\drivers\peripheral\prot/cy_prot.c **** 
 193:Generated_Source\PSoC6\pdl\drivers\peripheral\prot/cy_prot.c **** 
 194:Generated_Source\PSoC6\pdl\drivers\peripheral\prot/cy_prot.c **** /*******************************************************************************
ARM GAS  C:\Users\kiwamu\AppData\Local\Temp\ccLfX6Zi.s 			page 9


 195:Generated_Source\PSoC6\pdl\drivers\peripheral\prot/cy_prot.c **** * Function Name: Cy_Prot_EnableMpuStruct
 196:Generated_Source\PSoC6\pdl\drivers\peripheral\prot/cy_prot.c **** ****************************************************************************//**
 197:Generated_Source\PSoC6\pdl\drivers\peripheral\prot/cy_prot.c **** *
 198:Generated_Source\PSoC6\pdl\drivers\peripheral\prot/cy_prot.c **** * \brief Enables the MPU struct, which allows the MPU protection attributes to 
 199:Generated_Source\PSoC6\pdl\drivers\peripheral\prot/cy_prot.c **** * take effect. 
 200:Generated_Source\PSoC6\pdl\drivers\peripheral\prot/cy_prot.c **** *
 201:Generated_Source\PSoC6\pdl\drivers\peripheral\prot/cy_prot.c **** * \param base
 202:Generated_Source\PSoC6\pdl\drivers\peripheral\prot/cy_prot.c **** * The base address of the MPU struct being configured. 
 203:Generated_Source\PSoC6\pdl\drivers\peripheral\prot/cy_prot.c **** *
 204:Generated_Source\PSoC6\pdl\drivers\peripheral\prot/cy_prot.c **** * \return
 205:Generated_Source\PSoC6\pdl\drivers\peripheral\prot/cy_prot.c **** * Status of the function call.
 206:Generated_Source\PSoC6\pdl\drivers\peripheral\prot/cy_prot.c **** *
 207:Generated_Source\PSoC6\pdl\drivers\peripheral\prot/cy_prot.c **** *   Status               | Description
 208:Generated_Source\PSoC6\pdl\drivers\peripheral\prot/cy_prot.c **** *   ------------         | -----------
 209:Generated_Source\PSoC6\pdl\drivers\peripheral\prot/cy_prot.c **** *   CY_PROT_SUCCESS      | The MPU struct was enabled
 210:Generated_Source\PSoC6\pdl\drivers\peripheral\prot/cy_prot.c **** *   CY_PROT_FAILURE      | The MPU struct is disabled and possibly locked
 211:Generated_Source\PSoC6\pdl\drivers\peripheral\prot/cy_prot.c **** *  
 212:Generated_Source\PSoC6\pdl\drivers\peripheral\prot/cy_prot.c **** *******************************************************************************/
 213:Generated_Source\PSoC6\pdl\drivers\peripheral\prot/cy_prot.c **** cy_en_prot_status_t Cy_Prot_EnableMpuStruct(PROT_MPU_MPU_STRUCT_Type* base)
 214:Generated_Source\PSoC6\pdl\drivers\peripheral\prot/cy_prot.c **** {
 258              		.loc 1 214 0
 259              		.cfi_startproc
 260              		@ args = 0, pretend = 0, frame = 0
 261              		@ frame_needed = 0, uses_anonymous_args = 0
 262              		@ link register save eliminated.
 263              	.LVL32:
 215:Generated_Source\PSoC6\pdl\drivers\peripheral\prot/cy_prot.c ****     cy_en_prot_status_t status = CY_PROT_SUCCESS;
 216:Generated_Source\PSoC6\pdl\drivers\peripheral\prot/cy_prot.c ****     
 217:Generated_Source\PSoC6\pdl\drivers\peripheral\prot/cy_prot.c ****     base->ATT |= _VAL2FLD(PROT_MPU_MPU_STRUCT_ATT_ENABLED, CY_PROT_STRUCT_ENABLE);
 264              		.loc 1 217 0
 265 0000 4368     		ldr	r3, [r0, #4]
 266 0002 43F00043 		orr	r3, r3, #-2147483648
 267 0006 4360     		str	r3, [r0, #4]
 218:Generated_Source\PSoC6\pdl\drivers\peripheral\prot/cy_prot.c ****     status = (_FLD2VAL(PROT_MPU_MPU_STRUCT_ATT_ENABLED, base->ATT) != CY_PROT_STRUCT_ENABLE) ?
 268              		.loc 1 218 0
 269 0008 4368     		ldr	r3, [r0, #4]
 270 000a 002B     		cmp	r3, #0
 271 000c 01DB     		blt	.L23
 272 000e 0248     		ldr	r0, .L24
 273              	.LVL33:
 274 0010 7047     		bx	lr
 275              	.LVL34:
 276              	.L23:
 277 0012 0020     		movs	r0, #0
 278              	.LVL35:
 219:Generated_Source\PSoC6\pdl\drivers\peripheral\prot/cy_prot.c ****                 CY_PROT_FAILURE : CY_PROT_SUCCESS;
 220:Generated_Source\PSoC6\pdl\drivers\peripheral\prot/cy_prot.c ****     
 221:Generated_Source\PSoC6\pdl\drivers\peripheral\prot/cy_prot.c ****     return status;
 222:Generated_Source\PSoC6\pdl\drivers\peripheral\prot/cy_prot.c **** }
 279              		.loc 1 222 0
 280 0014 7047     		bx	lr
 281              	.L25:
 282 0016 00BF     		.align	2
 283              	.L24:
 284 0018 0300C200 		.word	12713987
 285              		.cfi_endproc
 286              	.LFE127:
ARM GAS  C:\Users\kiwamu\AppData\Local\Temp\ccLfX6Zi.s 			page 10


 287              		.size	Cy_Prot_EnableMpuStruct, .-Cy_Prot_EnableMpuStruct
 288              		.section	.text.Cy_Prot_DisableMpuStruct,"ax",%progbits
 289              		.align	2
 290              		.global	Cy_Prot_DisableMpuStruct
 291              		.thumb
 292              		.thumb_func
 293              		.type	Cy_Prot_DisableMpuStruct, %function
 294              	Cy_Prot_DisableMpuStruct:
 295              	.LFB128:
 223:Generated_Source\PSoC6\pdl\drivers\peripheral\prot/cy_prot.c **** 
 224:Generated_Source\PSoC6\pdl\drivers\peripheral\prot/cy_prot.c **** 
 225:Generated_Source\PSoC6\pdl\drivers\peripheral\prot/cy_prot.c **** /*******************************************************************************
 226:Generated_Source\PSoC6\pdl\drivers\peripheral\prot/cy_prot.c **** * Function Name: Cy_Prot_DisableMpuStruct
 227:Generated_Source\PSoC6\pdl\drivers\peripheral\prot/cy_prot.c **** ****************************************************************************//**
 228:Generated_Source\PSoC6\pdl\drivers\peripheral\prot/cy_prot.c **** *
 229:Generated_Source\PSoC6\pdl\drivers\peripheral\prot/cy_prot.c **** * \brief Disbles the MPU struct, which prevents the MPU protection attributes
 230:Generated_Source\PSoC6\pdl\drivers\peripheral\prot/cy_prot.c **** * from taking effect.
 231:Generated_Source\PSoC6\pdl\drivers\peripheral\prot/cy_prot.c **** *
 232:Generated_Source\PSoC6\pdl\drivers\peripheral\prot/cy_prot.c **** * \param base
 233:Generated_Source\PSoC6\pdl\drivers\peripheral\prot/cy_prot.c **** * The base address of the MPU struct being configured. 
 234:Generated_Source\PSoC6\pdl\drivers\peripheral\prot/cy_prot.c **** *
 235:Generated_Source\PSoC6\pdl\drivers\peripheral\prot/cy_prot.c **** * \return
 236:Generated_Source\PSoC6\pdl\drivers\peripheral\prot/cy_prot.c **** * Status of the function call.
 237:Generated_Source\PSoC6\pdl\drivers\peripheral\prot/cy_prot.c **** *
 238:Generated_Source\PSoC6\pdl\drivers\peripheral\prot/cy_prot.c **** *   Status               | Description
 239:Generated_Source\PSoC6\pdl\drivers\peripheral\prot/cy_prot.c **** *   ------------         | -----------
 240:Generated_Source\PSoC6\pdl\drivers\peripheral\prot/cy_prot.c **** *   CY_PROT_SUCCESS      | The MPU struct was disabled
 241:Generated_Source\PSoC6\pdl\drivers\peripheral\prot/cy_prot.c **** *   CY_PROT_FAILURE      | The MPU struct is enabled and possibly locked
 242:Generated_Source\PSoC6\pdl\drivers\peripheral\prot/cy_prot.c **** *  
 243:Generated_Source\PSoC6\pdl\drivers\peripheral\prot/cy_prot.c **** *******************************************************************************/
 244:Generated_Source\PSoC6\pdl\drivers\peripheral\prot/cy_prot.c **** cy_en_prot_status_t Cy_Prot_DisableMpuStruct(PROT_MPU_MPU_STRUCT_Type* base)
 245:Generated_Source\PSoC6\pdl\drivers\peripheral\prot/cy_prot.c **** {
 296              		.loc 1 245 0
 297              		.cfi_startproc
 298              		@ args = 0, pretend = 0, frame = 0
 299              		@ frame_needed = 0, uses_anonymous_args = 0
 300              		@ link register save eliminated.
 301              	.LVL36:
 246:Generated_Source\PSoC6\pdl\drivers\peripheral\prot/cy_prot.c ****     cy_en_prot_status_t status = CY_PROT_SUCCESS;
 247:Generated_Source\PSoC6\pdl\drivers\peripheral\prot/cy_prot.c ****     
 248:Generated_Source\PSoC6\pdl\drivers\peripheral\prot/cy_prot.c ****     base->ATT &= ~_VAL2FLD(PROT_MPU_MPU_STRUCT_ATT_ENABLED, CY_PROT_STRUCT_ENABLE);
 302              		.loc 1 248 0
 303 0000 4368     		ldr	r3, [r0, #4]
 304 0002 23F00043 		bic	r3, r3, #-2147483648
 305 0006 4360     		str	r3, [r0, #4]
 249:Generated_Source\PSoC6\pdl\drivers\peripheral\prot/cy_prot.c ****     status = (_FLD2VAL(PROT_MPU_MPU_STRUCT_ATT_ENABLED, base->ATT) == CY_PROT_STRUCT_ENABLE) ?
 306              		.loc 1 249 0
 307 0008 4368     		ldr	r3, [r0, #4]
 308 000a 002B     		cmp	r3, #0
 309 000c 01DA     		bge	.L28
 310 000e 0248     		ldr	r0, .L29
 311              	.LVL37:
 312 0010 7047     		bx	lr
 313              	.LVL38:
 314              	.L28:
 315 0012 0020     		movs	r0, #0
 316              	.LVL39:
ARM GAS  C:\Users\kiwamu\AppData\Local\Temp\ccLfX6Zi.s 			page 11


 250:Generated_Source\PSoC6\pdl\drivers\peripheral\prot/cy_prot.c ****             CY_PROT_FAILURE : CY_PROT_SUCCESS;
 251:Generated_Source\PSoC6\pdl\drivers\peripheral\prot/cy_prot.c ****     
 252:Generated_Source\PSoC6\pdl\drivers\peripheral\prot/cy_prot.c ****     return status;
 253:Generated_Source\PSoC6\pdl\drivers\peripheral\prot/cy_prot.c **** }
 317              		.loc 1 253 0
 318 0014 7047     		bx	lr
 319              	.L30:
 320 0016 00BF     		.align	2
 321              	.L29:
 322 0018 0300C200 		.word	12713987
 323              		.cfi_endproc
 324              	.LFE128:
 325              		.size	Cy_Prot_DisableMpuStruct, .-Cy_Prot_DisableMpuStruct
 326              		.section	.text.Cy_Prot_ConfigSmpuMasterStruct,"ax",%progbits
 327              		.align	2
 328              		.global	Cy_Prot_ConfigSmpuMasterStruct
 329              		.thumb
 330              		.thumb_func
 331              		.type	Cy_Prot_ConfigSmpuMasterStruct, %function
 332              	Cy_Prot_ConfigSmpuMasterStruct:
 333              	.LFB129:
 254:Generated_Source\PSoC6\pdl\drivers\peripheral\prot/cy_prot.c **** 
 255:Generated_Source\PSoC6\pdl\drivers\peripheral\prot/cy_prot.c **** 
 256:Generated_Source\PSoC6\pdl\drivers\peripheral\prot/cy_prot.c **** /*******************************************************************************
 257:Generated_Source\PSoC6\pdl\drivers\peripheral\prot/cy_prot.c **** * Function Name: Cy_Prot_ConfigSmpuMasterStruct
 258:Generated_Source\PSoC6\pdl\drivers\peripheral\prot/cy_prot.c **** ****************************************************************************//**
 259:Generated_Source\PSoC6\pdl\drivers\peripheral\prot/cy_prot.c **** *
 260:Generated_Source\PSoC6\pdl\drivers\peripheral\prot/cy_prot.c **** * \brief Configures a Shared Memory Protection Unit (SMPU) master protection 
 261:Generated_Source\PSoC6\pdl\drivers\peripheral\prot/cy_prot.c **** * struct with its protection attributes. 
 262:Generated_Source\PSoC6\pdl\drivers\peripheral\prot/cy_prot.c **** *
 263:Generated_Source\PSoC6\pdl\drivers\peripheral\prot/cy_prot.c **** * This function configures the master struct governing the corresponding slave
 264:Generated_Source\PSoC6\pdl\drivers\peripheral\prot/cy_prot.c **** * struct pair. It is a mechanism to protect the slave SMPU struct. Since the
 265:Generated_Source\PSoC6\pdl\drivers\peripheral\prot/cy_prot.c **** * memory location of the slave struct is known, the address, regionSize and
 266:Generated_Source\PSoC6\pdl\drivers\peripheral\prot/cy_prot.c **** * subregions of the configuration struct are not applicable.
 267:Generated_Source\PSoC6\pdl\drivers\peripheral\prot/cy_prot.c **** *
 268:Generated_Source\PSoC6\pdl\drivers\peripheral\prot/cy_prot.c **** * Note that only the user/privileged write permissions are configurable. The 
 269:Generated_Source\PSoC6\pdl\drivers\peripheral\prot/cy_prot.c **** * read and execute permissions are read-only and cannot be configured.
 270:Generated_Source\PSoC6\pdl\drivers\peripheral\prot/cy_prot.c **** *
 271:Generated_Source\PSoC6\pdl\drivers\peripheral\prot/cy_prot.c **** * \param base
 272:Generated_Source\PSoC6\pdl\drivers\peripheral\prot/cy_prot.c **** * The register base address of the protection struct being configured.
 273:Generated_Source\PSoC6\pdl\drivers\peripheral\prot/cy_prot.c **** * 
 274:Generated_Source\PSoC6\pdl\drivers\peripheral\prot/cy_prot.c **** * \param config
 275:Generated_Source\PSoC6\pdl\drivers\peripheral\prot/cy_prot.c **** * Initialization structure with all the protection attributes.
 276:Generated_Source\PSoC6\pdl\drivers\peripheral\prot/cy_prot.c **** * 
 277:Generated_Source\PSoC6\pdl\drivers\peripheral\prot/cy_prot.c **** * \return
 278:Generated_Source\PSoC6\pdl\drivers\peripheral\prot/cy_prot.c **** * Status of the function call.
 279:Generated_Source\PSoC6\pdl\drivers\peripheral\prot/cy_prot.c **** *
 280:Generated_Source\PSoC6\pdl\drivers\peripheral\prot/cy_prot.c **** *   Status               | Description
 281:Generated_Source\PSoC6\pdl\drivers\peripheral\prot/cy_prot.c **** *   ------------         | -----------
 282:Generated_Source\PSoC6\pdl\drivers\peripheral\prot/cy_prot.c **** *   CY_PROT_SUCCESS      | SMPU master struct was successfully configured
 283:Generated_Source\PSoC6\pdl\drivers\peripheral\prot/cy_prot.c **** *   CY_PROT_FAILURE      | The resource is locked
 284:Generated_Source\PSoC6\pdl\drivers\peripheral\prot/cy_prot.c **** *   CY_PROT_BAD_PARAM    | An incorrect/invalid parameter was passed
 285:Generated_Source\PSoC6\pdl\drivers\peripheral\prot/cy_prot.c **** *  
 286:Generated_Source\PSoC6\pdl\drivers\peripheral\prot/cy_prot.c **** *******************************************************************************/
 287:Generated_Source\PSoC6\pdl\drivers\peripheral\prot/cy_prot.c **** cy_en_prot_status_t Cy_Prot_ConfigSmpuMasterStruct(PROT_SMPU_SMPU_STRUCT_Type* base, const cy_stc_s
 288:Generated_Source\PSoC6\pdl\drivers\peripheral\prot/cy_prot.c **** {
 334              		.loc 1 288 0
ARM GAS  C:\Users\kiwamu\AppData\Local\Temp\ccLfX6Zi.s 			page 12


 335              		.cfi_startproc
 336              		@ args = 0, pretend = 0, frame = 0
 337              		@ frame_needed = 0, uses_anonymous_args = 0
 338              		@ link register save eliminated.
 339              	.LVL40:
 340 0000 10B4     		push	{r4}
 341              		.cfi_def_cfa_offset 4
 342              		.cfi_offset 4, -4
 343              	.LVL41:
 289:Generated_Source\PSoC6\pdl\drivers\peripheral\prot/cy_prot.c ****     cy_en_prot_status_t status = CY_PROT_SUCCESS;
 290:Generated_Source\PSoC6\pdl\drivers\peripheral\prot/cy_prot.c ****     uint32_t attReg;
 291:Generated_Source\PSoC6\pdl\drivers\peripheral\prot/cy_prot.c ****     
 292:Generated_Source\PSoC6\pdl\drivers\peripheral\prot/cy_prot.c ****     if(((uint32_t)config->pcMask & CY_PROT_SMPU_PC_LIMIT_MASK) != 0UL) 
 344              		.loc 1 292 0
 345 0002 4C89     		ldrh	r4, [r1, #10]
 346 0004 34F07F03 		bics	r3, r4, #127
 347 0008 23D1     		bne	.L33
 293:Generated_Source\PSoC6\pdl\drivers\peripheral\prot/cy_prot.c ****     {
 294:Generated_Source\PSoC6\pdl\drivers\peripheral\prot/cy_prot.c ****         /* PC mask out of range - not supported in device */
 295:Generated_Source\PSoC6\pdl\drivers\peripheral\prot/cy_prot.c ****         status = CY_PROT_BAD_PARAM;
 296:Generated_Source\PSoC6\pdl\drivers\peripheral\prot/cy_prot.c ****     }
 297:Generated_Source\PSoC6\pdl\drivers\peripheral\prot/cy_prot.c ****     else
 298:Generated_Source\PSoC6\pdl\drivers\peripheral\prot/cy_prot.c ****     {
 299:Generated_Source\PSoC6\pdl\drivers\peripheral\prot/cy_prot.c ****         /* ADDR1 is read only. Only configure ATT1 */
 300:Generated_Source\PSoC6\pdl\drivers\peripheral\prot/cy_prot.c ****         attReg = ((uint32_t)config->userPermission & CY_PROT_ATT_PERMISSION_MASK)
 348              		.loc 1 300 0
 349 000a 8B79     		ldrb	r3, [r1, #6]	@ zero_extendqisi2
 350 000c 03F00703 		and	r3, r3, #7
 301:Generated_Source\PSoC6\pdl\drivers\peripheral\prot/cy_prot.c ****                     | (uint32_t)(((uint32_t)config->privPermission & CY_PROT_ATT_PERMISSION_MASK) <
 351              		.loc 1 301 0
 352 0010 CA79     		ldrb	r2, [r1, #7]	@ zero_extendqisi2
 353 0012 D200     		lsls	r2, r2, #3
 354 0014 02F03802 		and	r2, r2, #56
 355 0018 1343     		orrs	r3, r3, r2
 302:Generated_Source\PSoC6\pdl\drivers\peripheral\prot/cy_prot.c ****                     | _VAL2FLD(PROT_SMPU_SMPU_STRUCT_ATT1_NS, !(config->secure))
 356              		.loc 1 302 0
 357 001a 0A7A     		ldrb	r2, [r1, #8]	@ zero_extendqisi2
 358 001c 82F00102 		eor	r2, r2, #1
 359 0020 9201     		lsls	r2, r2, #6
 360 0022 02F04002 		and	r2, r2, #64
 361 0026 1343     		orrs	r3, r3, r2
 303:Generated_Source\PSoC6\pdl\drivers\peripheral\prot/cy_prot.c ****                     | _VAL2FLD(PROT_SMPU_SMPU_STRUCT_ATT1_PC_MASK_15_TO_1, config->pcMask)
 362              		.loc 1 303 0
 363 0028 0E4A     		ldr	r2, .L37
 364 002a 02EA4424 		and	r4, r2, r4, lsl #9
 365 002e 2343     		orrs	r3, r3, r4
 304:Generated_Source\PSoC6\pdl\drivers\peripheral\prot/cy_prot.c ****                     /* No region size - read only for master structs */
 305:Generated_Source\PSoC6\pdl\drivers\peripheral\prot/cy_prot.c ****                     | _VAL2FLD(PROT_SMPU_SMPU_STRUCT_ATT1_PC_MATCH, config->pcMatch);
 366              		.loc 1 305 0
 367 0030 4A7A     		ldrb	r2, [r1, #9]	@ zero_extendqisi2
 368 0032 9207     		lsls	r2, r2, #30
 369 0034 02F08042 		and	r2, r2, #1073741824
 300:Generated_Source\PSoC6\pdl\drivers\peripheral\prot/cy_prot.c ****                     | (uint32_t)(((uint32_t)config->privPermission & CY_PROT_ATT_PERMISSION_MASK) <
 370              		.loc 1 300 0
 371 0038 1343     		orrs	r3, r3, r2
 372              	.LVL42:
 306:Generated_Source\PSoC6\pdl\drivers\peripheral\prot/cy_prot.c ****         if ((attReg & CY_PROT_SMPU_ATT1_MASK) != attReg)
ARM GAS  C:\Users\kiwamu\AppData\Local\Temp\ccLfX6Zi.s 			page 13


 373              		.loc 1 306 0
 374 003a 0B4A     		ldr	r2, .L37+4
 375 003c 1A40     		ands	r2, r2, r3
 376 003e 9342     		cmp	r3, r2
 377 0040 09D1     		bne	.L34
 307:Generated_Source\PSoC6\pdl\drivers\peripheral\prot/cy_prot.c ****         {
 308:Generated_Source\PSoC6\pdl\drivers\peripheral\prot/cy_prot.c ****             /* Invalid parameter was passed */
 309:Generated_Source\PSoC6\pdl\drivers\peripheral\prot/cy_prot.c ****             status = CY_PROT_BAD_PARAM;
 310:Generated_Source\PSoC6\pdl\drivers\peripheral\prot/cy_prot.c ****         }
 311:Generated_Source\PSoC6\pdl\drivers\peripheral\prot/cy_prot.c ****         else
 312:Generated_Source\PSoC6\pdl\drivers\peripheral\prot/cy_prot.c ****         {
 313:Generated_Source\PSoC6\pdl\drivers\peripheral\prot/cy_prot.c ****             base->ATT1 = attReg;
 378              		.loc 1 313 0
 379 0042 4362     		str	r3, [r0, #36]
 314:Generated_Source\PSoC6\pdl\drivers\peripheral\prot/cy_prot.c ****             status = ((base->ATT1 & CY_PROT_SMPU_ATT1_MASK) != attReg) ? CY_PROT_FAILURE : CY_PROT_
 380              		.loc 1 314 0
 381 0044 416A     		ldr	r1, [r0, #36]
 382              	.LVL43:
 383 0046 094A     		ldr	r2, .L37+8
 384 0048 0A40     		ands	r2, r2, r1
 385 004a 9342     		cmp	r3, r2
 386 004c 05D0     		beq	.L35
 387 004e 0848     		ldr	r0, .L37+12
 388              	.LVL44:
 389 0050 04E0     		b	.L32
 390              	.LVL45:
 391              	.L33:
 295:Generated_Source\PSoC6\pdl\drivers\peripheral\prot/cy_prot.c ****     }
 392              		.loc 1 295 0
 393 0052 0848     		ldr	r0, .L37+16
 394              	.LVL46:
 395 0054 02E0     		b	.L32
 396              	.LVL47:
 397              	.L34:
 309:Generated_Source\PSoC6\pdl\drivers\peripheral\prot/cy_prot.c ****         }
 398              		.loc 1 309 0
 399 0056 0748     		ldr	r0, .L37+16
 400              	.LVL48:
 401 0058 00E0     		b	.L32
 402              	.LVL49:
 403              	.L35:
 404              		.loc 1 314 0
 405 005a 0020     		movs	r0, #0
 406              	.LVL50:
 407              	.L32:
 315:Generated_Source\PSoC6\pdl\drivers\peripheral\prot/cy_prot.c ****         }
 316:Generated_Source\PSoC6\pdl\drivers\peripheral\prot/cy_prot.c ****     }
 317:Generated_Source\PSoC6\pdl\drivers\peripheral\prot/cy_prot.c ****     
 318:Generated_Source\PSoC6\pdl\drivers\peripheral\prot/cy_prot.c ****     return status;
 319:Generated_Source\PSoC6\pdl\drivers\peripheral\prot/cy_prot.c **** }
 408              		.loc 1 319 0
 409 005c 5DF8044B 		ldr	r4, [sp], #4
 410              		.cfi_restore 4
 411              		.cfi_def_cfa_offset 0
 412 0060 7047     		bx	lr
 413              	.L38:
 414 0062 00BF     		.align	2
ARM GAS  C:\Users\kiwamu\AppData\Local\Temp\ccLfX6Zi.s 			page 14


 415              	.L37:
 416 0064 00FEFF00 		.word	16776704
 417 0068 52FEFF40 		.word	1090518610
 418 006c D2FEFFE0 		.word	-520093998
 419 0070 0300C200 		.word	12713987
 420 0074 0100C200 		.word	12713985
 421              		.cfi_endproc
 422              	.LFE129:
 423              		.size	Cy_Prot_ConfigSmpuMasterStruct, .-Cy_Prot_ConfigSmpuMasterStruct
 424              		.section	.text.Cy_Prot_ConfigSmpuSlaveStruct,"ax",%progbits
 425              		.align	2
 426              		.global	Cy_Prot_ConfigSmpuSlaveStruct
 427              		.thumb
 428              		.thumb_func
 429              		.type	Cy_Prot_ConfigSmpuSlaveStruct, %function
 430              	Cy_Prot_ConfigSmpuSlaveStruct:
 431              	.LFB130:
 320:Generated_Source\PSoC6\pdl\drivers\peripheral\prot/cy_prot.c **** 
 321:Generated_Source\PSoC6\pdl\drivers\peripheral\prot/cy_prot.c **** /*******************************************************************************
 322:Generated_Source\PSoC6\pdl\drivers\peripheral\prot/cy_prot.c **** * Function Name: Cy_Prot_ConfigSmpuSlaveStruct
 323:Generated_Source\PSoC6\pdl\drivers\peripheral\prot/cy_prot.c **** ****************************************************************************//**
 324:Generated_Source\PSoC6\pdl\drivers\peripheral\prot/cy_prot.c **** *
 325:Generated_Source\PSoC6\pdl\drivers\peripheral\prot/cy_prot.c **** * \brief Configures a Shared Memory Protection Unit (SMPU) slave protection 
 326:Generated_Source\PSoC6\pdl\drivers\peripheral\prot/cy_prot.c **** * struct with its protection attributes. 
 327:Generated_Source\PSoC6\pdl\drivers\peripheral\prot/cy_prot.c **** * 
 328:Generated_Source\PSoC6\pdl\drivers\peripheral\prot/cy_prot.c **** * This function configures the slave struct of an SMPU pair, which can protect
 329:Generated_Source\PSoC6\pdl\drivers\peripheral\prot/cy_prot.c **** * any memory region in a device from invalid bus master accesses.
 330:Generated_Source\PSoC6\pdl\drivers\peripheral\prot/cy_prot.c **** *
 331:Generated_Source\PSoC6\pdl\drivers\peripheral\prot/cy_prot.c **** * \param base
 332:Generated_Source\PSoC6\pdl\drivers\peripheral\prot/cy_prot.c **** * The register base address of the protection structure being configured.
 333:Generated_Source\PSoC6\pdl\drivers\peripheral\prot/cy_prot.c **** * 
 334:Generated_Source\PSoC6\pdl\drivers\peripheral\prot/cy_prot.c **** * \param config
 335:Generated_Source\PSoC6\pdl\drivers\peripheral\prot/cy_prot.c **** * Initialization structure with all the protection attributes.
 336:Generated_Source\PSoC6\pdl\drivers\peripheral\prot/cy_prot.c **** * 
 337:Generated_Source\PSoC6\pdl\drivers\peripheral\prot/cy_prot.c **** * \return
 338:Generated_Source\PSoC6\pdl\drivers\peripheral\prot/cy_prot.c **** * Status of the function call.
 339:Generated_Source\PSoC6\pdl\drivers\peripheral\prot/cy_prot.c **** *
 340:Generated_Source\PSoC6\pdl\drivers\peripheral\prot/cy_prot.c **** *   Status               | Description
 341:Generated_Source\PSoC6\pdl\drivers\peripheral\prot/cy_prot.c **** *   ------------         | -----------
 342:Generated_Source\PSoC6\pdl\drivers\peripheral\prot/cy_prot.c **** *   CY_PROT_SUCCESS      | SMPU slave struct was successfully configured
 343:Generated_Source\PSoC6\pdl\drivers\peripheral\prot/cy_prot.c **** *   CY_PROT_FAILURE      | The resource is locked
 344:Generated_Source\PSoC6\pdl\drivers\peripheral\prot/cy_prot.c **** *   CY_PROT_BAD_PARAM    | An incorrect/invalid parameter was passed
 345:Generated_Source\PSoC6\pdl\drivers\peripheral\prot/cy_prot.c **** *  
 346:Generated_Source\PSoC6\pdl\drivers\peripheral\prot/cy_prot.c **** *******************************************************************************/
 347:Generated_Source\PSoC6\pdl\drivers\peripheral\prot/cy_prot.c **** cy_en_prot_status_t Cy_Prot_ConfigSmpuSlaveStruct(PROT_SMPU_SMPU_STRUCT_Type* base, const cy_stc_sm
 348:Generated_Source\PSoC6\pdl\drivers\peripheral\prot/cy_prot.c **** {
 432              		.loc 1 348 0
 433              		.cfi_startproc
 434              		@ args = 0, pretend = 0, frame = 0
 435              		@ frame_needed = 0, uses_anonymous_args = 0
 436              		@ link register save eliminated.
 437              	.LVL51:
 438 0000 30B4     		push	{r4, r5}
 439              		.cfi_def_cfa_offset 8
 440              		.cfi_offset 4, -8
 441              		.cfi_offset 5, -4
 442              	.LVL52:
ARM GAS  C:\Users\kiwamu\AppData\Local\Temp\ccLfX6Zi.s 			page 15


 349:Generated_Source\PSoC6\pdl\drivers\peripheral\prot/cy_prot.c ****     cy_en_prot_status_t status = CY_PROT_SUCCESS;
 350:Generated_Source\PSoC6\pdl\drivers\peripheral\prot/cy_prot.c ****     uint32_t addrReg;
 351:Generated_Source\PSoC6\pdl\drivers\peripheral\prot/cy_prot.c ****     uint32_t attReg;
 352:Generated_Source\PSoC6\pdl\drivers\peripheral\prot/cy_prot.c ****     
 353:Generated_Source\PSoC6\pdl\drivers\peripheral\prot/cy_prot.c ****     if(((uint32_t)config->pcMask & CY_PROT_SMPU_PC_LIMIT_MASK) != 0UL) 
 443              		.loc 1 353 0
 444 0002 4D89     		ldrh	r5, [r1, #10]
 445 0004 35F07F03 		bics	r3, r5, #127
 446 0008 2DD1     		bne	.L41
 354:Generated_Source\PSoC6\pdl\drivers\peripheral\prot/cy_prot.c ****     {
 355:Generated_Source\PSoC6\pdl\drivers\peripheral\prot/cy_prot.c ****         /* PC mask out of range - not supported in device */
 356:Generated_Source\PSoC6\pdl\drivers\peripheral\prot/cy_prot.c ****         status = CY_PROT_BAD_PARAM;
 357:Generated_Source\PSoC6\pdl\drivers\peripheral\prot/cy_prot.c ****     }
 358:Generated_Source\PSoC6\pdl\drivers\peripheral\prot/cy_prot.c ****     else
 359:Generated_Source\PSoC6\pdl\drivers\peripheral\prot/cy_prot.c ****     {
 360:Generated_Source\PSoC6\pdl\drivers\peripheral\prot/cy_prot.c ****         addrReg= _VAL2FLD(PROT_SMPU_SMPU_STRUCT_ADDR0_SUBREGION_DISABLE, config->subregions)
 447              		.loc 1 360 0
 448 000a 4C79     		ldrb	r4, [r1, #5]	@ zero_extendqisi2
 361:Generated_Source\PSoC6\pdl\drivers\peripheral\prot/cy_prot.c ****                     | _VAL2FLD(PROT_SMPU_SMPU_STRUCT_ADDR0_ADDR24, (uint32_t)((uint32_t)config->add
 449              		.loc 1 361 0
 450 000c 0B68     		ldr	r3, [r1]
 451 000e 23F0FF03 		bic	r3, r3, #255
 360:Generated_Source\PSoC6\pdl\drivers\peripheral\prot/cy_prot.c ****                     | _VAL2FLD(PROT_SMPU_SMPU_STRUCT_ADDR0_ADDR24, (uint32_t)((uint32_t)config->add
 452              		.loc 1 360 0
 453 0012 1C43     		orrs	r4, r4, r3
 454              	.LVL53:
 362:Generated_Source\PSoC6\pdl\drivers\peripheral\prot/cy_prot.c ****         attReg= ((uint32_t)config->userPermission & CY_PROT_ATT_PERMISSION_MASK)
 455              		.loc 1 362 0
 456 0014 8B79     		ldrb	r3, [r1, #6]	@ zero_extendqisi2
 457 0016 03F00703 		and	r3, r3, #7
 363:Generated_Source\PSoC6\pdl\drivers\peripheral\prot/cy_prot.c ****                     | (uint32_t)(((uint32_t)config->privPermission & CY_PROT_ATT_PERMISSION_MASK) <
 458              		.loc 1 363 0
 459 001a CA79     		ldrb	r2, [r1, #7]	@ zero_extendqisi2
 460 001c D200     		lsls	r2, r2, #3
 461 001e 02F03802 		and	r2, r2, #56
 462 0022 1343     		orrs	r3, r3, r2
 364:Generated_Source\PSoC6\pdl\drivers\peripheral\prot/cy_prot.c ****                     | _VAL2FLD(PROT_SMPU_SMPU_STRUCT_ATT0_NS, !(config->secure))
 463              		.loc 1 364 0
 464 0024 0A7A     		ldrb	r2, [r1, #8]	@ zero_extendqisi2
 465 0026 82F00102 		eor	r2, r2, #1
 466 002a 9201     		lsls	r2, r2, #6
 467 002c 02F04002 		and	r2, r2, #64
 468 0030 1343     		orrs	r3, r3, r2
 365:Generated_Source\PSoC6\pdl\drivers\peripheral\prot/cy_prot.c ****                     | _VAL2FLD(PROT_SMPU_SMPU_STRUCT_ATT0_PC_MASK_15_TO_1, config->pcMask)
 469              		.loc 1 365 0
 470 0032 104A     		ldr	r2, .L45
 471 0034 02EA4525 		and	r5, r2, r5, lsl #9
 472 0038 2B43     		orrs	r3, r3, r5
 366:Generated_Source\PSoC6\pdl\drivers\peripheral\prot/cy_prot.c ****                     | _VAL2FLD(PROT_SMPU_SMPU_STRUCT_ATT0_REGION_SIZE, config->regionSize)
 473              		.loc 1 366 0
 474 003a 0A79     		ldrb	r2, [r1, #4]	@ zero_extendqisi2
 475 003c 1206     		lsls	r2, r2, #24
 476 003e 02F0F852 		and	r2, r2, #520093696
 477 0042 1343     		orrs	r3, r3, r2
 367:Generated_Source\PSoC6\pdl\drivers\peripheral\prot/cy_prot.c ****                     | _VAL2FLD(PROT_SMPU_SMPU_STRUCT_ATT0_PC_MATCH, config->pcMatch);
 478              		.loc 1 367 0
 479 0044 4A7A     		ldrb	r2, [r1, #9]	@ zero_extendqisi2
ARM GAS  C:\Users\kiwamu\AppData\Local\Temp\ccLfX6Zi.s 			page 16


 480 0046 9207     		lsls	r2, r2, #30
 481 0048 02F08042 		and	r2, r2, #1073741824
 362:Generated_Source\PSoC6\pdl\drivers\peripheral\prot/cy_prot.c ****                     | (uint32_t)(((uint32_t)config->privPermission & CY_PROT_ATT_PERMISSION_MASK) <
 482              		.loc 1 362 0
 483 004c 1343     		orrs	r3, r3, r2
 484              	.LVL54:
 368:Generated_Source\PSoC6\pdl\drivers\peripheral\prot/cy_prot.c ****         base->ATT0 = attReg;
 485              		.loc 1 368 0
 486 004e 4360     		str	r3, [r0, #4]
 369:Generated_Source\PSoC6\pdl\drivers\peripheral\prot/cy_prot.c ****         base->ADDR0 = addrReg;
 487              		.loc 1 369 0
 488 0050 0460     		str	r4, [r0]
 370:Generated_Source\PSoC6\pdl\drivers\peripheral\prot/cy_prot.c ****         status = ((base->ADDR0 != addrReg) || ((base->ATT0 & CY_PROT_SMPU_ATT0_MASK) != attReg))
 489              		.loc 1 370 0
 490 0052 0268     		ldr	r2, [r0]
 491 0054 9442     		cmp	r4, r2
 492 0056 08D1     		bne	.L42
 493              		.loc 1 370 0 is_stmt 0 discriminator 2
 494 0058 4268     		ldr	r2, [r0, #4]
 495 005a 22F48072 		bic	r2, r2, #256
 496 005e 9342     		cmp	r3, r2
 497 0060 05D0     		beq	.L43
 498              		.loc 1 370 0
 499 0062 0548     		ldr	r0, .L45+4
 500              	.LVL55:
 501 0064 04E0     		b	.L40
 502              	.LVL56:
 503              	.L41:
 356:Generated_Source\PSoC6\pdl\drivers\peripheral\prot/cy_prot.c ****     }
 504              		.loc 1 356 0 is_stmt 1
 505 0066 0548     		ldr	r0, .L45+8
 506              	.LVL57:
 507 0068 02E0     		b	.L40
 508              	.LVL58:
 509              	.L42:
 510              		.loc 1 370 0
 511 006a 0348     		ldr	r0, .L45+4
 512              	.LVL59:
 513 006c 00E0     		b	.L40
 514              	.LVL60:
 515              	.L43:
 516 006e 0020     		movs	r0, #0
 517              	.LVL61:
 518              	.L40:
 371:Generated_Source\PSoC6\pdl\drivers\peripheral\prot/cy_prot.c ****                     ? CY_PROT_FAILURE : CY_PROT_SUCCESS;
 372:Generated_Source\PSoC6\pdl\drivers\peripheral\prot/cy_prot.c ****     }
 373:Generated_Source\PSoC6\pdl\drivers\peripheral\prot/cy_prot.c ****     
 374:Generated_Source\PSoC6\pdl\drivers\peripheral\prot/cy_prot.c ****     return status;
 375:Generated_Source\PSoC6\pdl\drivers\peripheral\prot/cy_prot.c **** }
 519              		.loc 1 375 0
 520 0070 30BC     		pop	{r4, r5}
 521              		.cfi_restore 5
 522              		.cfi_restore 4
 523              		.cfi_def_cfa_offset 0
 524 0072 7047     		bx	lr
 525              	.L46:
 526              		.align	2
ARM GAS  C:\Users\kiwamu\AppData\Local\Temp\ccLfX6Zi.s 			page 17


 527              	.L45:
 528 0074 00FEFF00 		.word	16776704
 529 0078 0300C200 		.word	12713987
 530 007c 0100C200 		.word	12713985
 531              		.cfi_endproc
 532              	.LFE130:
 533              		.size	Cy_Prot_ConfigSmpuSlaveStruct, .-Cy_Prot_ConfigSmpuSlaveStruct
 534              		.section	.text.Cy_Prot_EnableSmpuMasterStruct,"ax",%progbits
 535              		.align	2
 536              		.global	Cy_Prot_EnableSmpuMasterStruct
 537              		.thumb
 538              		.thumb_func
 539              		.type	Cy_Prot_EnableSmpuMasterStruct, %function
 540              	Cy_Prot_EnableSmpuMasterStruct:
 541              	.LFB131:
 376:Generated_Source\PSoC6\pdl\drivers\peripheral\prot/cy_prot.c **** 
 377:Generated_Source\PSoC6\pdl\drivers\peripheral\prot/cy_prot.c **** 
 378:Generated_Source\PSoC6\pdl\drivers\peripheral\prot/cy_prot.c **** /*******************************************************************************
 379:Generated_Source\PSoC6\pdl\drivers\peripheral\prot/cy_prot.c **** * Function Name: Cy_Prot_EnableSmpuMasterStruct
 380:Generated_Source\PSoC6\pdl\drivers\peripheral\prot/cy_prot.c **** ****************************************************************************//**
 381:Generated_Source\PSoC6\pdl\drivers\peripheral\prot/cy_prot.c **** *
 382:Generated_Source\PSoC6\pdl\drivers\peripheral\prot/cy_prot.c **** * \brief Enables the Master SMPU structure.
 383:Generated_Source\PSoC6\pdl\drivers\peripheral\prot/cy_prot.c **** *
 384:Generated_Source\PSoC6\pdl\drivers\peripheral\prot/cy_prot.c **** * This is an SMPU master struct enable function. The SMPU protection settings
 385:Generated_Source\PSoC6\pdl\drivers\peripheral\prot/cy_prot.c **** * will take effect after successful completion of this function call.
 386:Generated_Source\PSoC6\pdl\drivers\peripheral\prot/cy_prot.c **** *
 387:Generated_Source\PSoC6\pdl\drivers\peripheral\prot/cy_prot.c **** * \param base
 388:Generated_Source\PSoC6\pdl\drivers\peripheral\prot/cy_prot.c **** * The base address for the protection unit structure being configured. 
 389:Generated_Source\PSoC6\pdl\drivers\peripheral\prot/cy_prot.c **** *
 390:Generated_Source\PSoC6\pdl\drivers\peripheral\prot/cy_prot.c **** * \return
 391:Generated_Source\PSoC6\pdl\drivers\peripheral\prot/cy_prot.c **** * Status of the function call.
 392:Generated_Source\PSoC6\pdl\drivers\peripheral\prot/cy_prot.c **** *
 393:Generated_Source\PSoC6\pdl\drivers\peripheral\prot/cy_prot.c **** *   Status               | Description
 394:Generated_Source\PSoC6\pdl\drivers\peripheral\prot/cy_prot.c **** *   ------------         | -----------
 395:Generated_Source\PSoC6\pdl\drivers\peripheral\prot/cy_prot.c **** *   CY_PROT_SUCCESS      | The Master PU struct was enabled
 396:Generated_Source\PSoC6\pdl\drivers\peripheral\prot/cy_prot.c **** *   CY_PROT_FAILURE      | The Master PU struct is disabled and possibly locked
 397:Generated_Source\PSoC6\pdl\drivers\peripheral\prot/cy_prot.c **** *  
 398:Generated_Source\PSoC6\pdl\drivers\peripheral\prot/cy_prot.c **** *******************************************************************************/
 399:Generated_Source\PSoC6\pdl\drivers\peripheral\prot/cy_prot.c **** cy_en_prot_status_t Cy_Prot_EnableSmpuMasterStruct(PROT_SMPU_SMPU_STRUCT_Type* base)
 400:Generated_Source\PSoC6\pdl\drivers\peripheral\prot/cy_prot.c **** {
 542              		.loc 1 400 0
 543              		.cfi_startproc
 544              		@ args = 0, pretend = 0, frame = 0
 545              		@ frame_needed = 0, uses_anonymous_args = 0
 546              		@ link register save eliminated.
 547              	.LVL62:
 401:Generated_Source\PSoC6\pdl\drivers\peripheral\prot/cy_prot.c ****     cy_en_prot_status_t status = CY_PROT_SUCCESS;
 402:Generated_Source\PSoC6\pdl\drivers\peripheral\prot/cy_prot.c ****     
 403:Generated_Source\PSoC6\pdl\drivers\peripheral\prot/cy_prot.c ****     base->ATT1 |= _VAL2FLD(PROT_SMPU_SMPU_STRUCT_ATT1_ENABLED, CY_PROT_STRUCT_ENABLE);
 548              		.loc 1 403 0
 549 0000 436A     		ldr	r3, [r0, #36]
 550 0002 43F00043 		orr	r3, r3, #-2147483648
 551 0006 4362     		str	r3, [r0, #36]
 404:Generated_Source\PSoC6\pdl\drivers\peripheral\prot/cy_prot.c ****     status = (_FLD2VAL(PROT_SMPU_SMPU_STRUCT_ATT1_ENABLED, base->ATT1) != CY_PROT_STRUCT_ENABLE) ?
 552              		.loc 1 404 0
 553 0008 436A     		ldr	r3, [r0, #36]
 554 000a 002B     		cmp	r3, #0
ARM GAS  C:\Users\kiwamu\AppData\Local\Temp\ccLfX6Zi.s 			page 18


 555 000c 01DB     		blt	.L49
 556 000e 0248     		ldr	r0, .L50
 557              	.LVL63:
 558 0010 7047     		bx	lr
 559              	.LVL64:
 560              	.L49:
 561 0012 0020     		movs	r0, #0
 562              	.LVL65:
 405:Generated_Source\PSoC6\pdl\drivers\peripheral\prot/cy_prot.c ****                 CY_PROT_FAILURE : CY_PROT_SUCCESS;
 406:Generated_Source\PSoC6\pdl\drivers\peripheral\prot/cy_prot.c ****     
 407:Generated_Source\PSoC6\pdl\drivers\peripheral\prot/cy_prot.c ****     return status;
 408:Generated_Source\PSoC6\pdl\drivers\peripheral\prot/cy_prot.c **** }
 563              		.loc 1 408 0
 564 0014 7047     		bx	lr
 565              	.L51:
 566 0016 00BF     		.align	2
 567              	.L50:
 568 0018 0300C200 		.word	12713987
 569              		.cfi_endproc
 570              	.LFE131:
 571              		.size	Cy_Prot_EnableSmpuMasterStruct, .-Cy_Prot_EnableSmpuMasterStruct
 572              		.section	.text.Cy_Prot_DisableSmpuMasterStruct,"ax",%progbits
 573              		.align	2
 574              		.global	Cy_Prot_DisableSmpuMasterStruct
 575              		.thumb
 576              		.thumb_func
 577              		.type	Cy_Prot_DisableSmpuMasterStruct, %function
 578              	Cy_Prot_DisableSmpuMasterStruct:
 579              	.LFB132:
 409:Generated_Source\PSoC6\pdl\drivers\peripheral\prot/cy_prot.c **** 
 410:Generated_Source\PSoC6\pdl\drivers\peripheral\prot/cy_prot.c **** 
 411:Generated_Source\PSoC6\pdl\drivers\peripheral\prot/cy_prot.c **** /*******************************************************************************
 412:Generated_Source\PSoC6\pdl\drivers\peripheral\prot/cy_prot.c **** * Function Name: Cy_Prot_DisableSmpuMasterStruct
 413:Generated_Source\PSoC6\pdl\drivers\peripheral\prot/cy_prot.c **** ****************************************************************************//**
 414:Generated_Source\PSoC6\pdl\drivers\peripheral\prot/cy_prot.c **** *
 415:Generated_Source\PSoC6\pdl\drivers\peripheral\prot/cy_prot.c **** * \brief Disables the Master SMPU structure.
 416:Generated_Source\PSoC6\pdl\drivers\peripheral\prot/cy_prot.c **** *
 417:Generated_Source\PSoC6\pdl\drivers\peripheral\prot/cy_prot.c **** * This is an SMPU master struct disable function. The SMPU protection settings
 418:Generated_Source\PSoC6\pdl\drivers\peripheral\prot/cy_prot.c **** * will seize to take effect after successful completion of this function call.
 419:Generated_Source\PSoC6\pdl\drivers\peripheral\prot/cy_prot.c **** *
 420:Generated_Source\PSoC6\pdl\drivers\peripheral\prot/cy_prot.c **** * \param base
 421:Generated_Source\PSoC6\pdl\drivers\peripheral\prot/cy_prot.c **** * The base address for the protection unit structure being configured. 
 422:Generated_Source\PSoC6\pdl\drivers\peripheral\prot/cy_prot.c **** *
 423:Generated_Source\PSoC6\pdl\drivers\peripheral\prot/cy_prot.c **** * \return
 424:Generated_Source\PSoC6\pdl\drivers\peripheral\prot/cy_prot.c **** * Status of the function call.
 425:Generated_Source\PSoC6\pdl\drivers\peripheral\prot/cy_prot.c **** *
 426:Generated_Source\PSoC6\pdl\drivers\peripheral\prot/cy_prot.c **** *   Status               | Description
 427:Generated_Source\PSoC6\pdl\drivers\peripheral\prot/cy_prot.c **** *   ------------         | -----------
 428:Generated_Source\PSoC6\pdl\drivers\peripheral\prot/cy_prot.c **** *   CY_PROT_SUCCESS      | The Master PU struct was disabled
 429:Generated_Source\PSoC6\pdl\drivers\peripheral\prot/cy_prot.c **** *   CY_PROT_FAILURE      | The Master PU struct is enabled and possibly locked
 430:Generated_Source\PSoC6\pdl\drivers\peripheral\prot/cy_prot.c **** *  
 431:Generated_Source\PSoC6\pdl\drivers\peripheral\prot/cy_prot.c **** *******************************************************************************/
 432:Generated_Source\PSoC6\pdl\drivers\peripheral\prot/cy_prot.c **** cy_en_prot_status_t Cy_Prot_DisableSmpuMasterStruct(PROT_SMPU_SMPU_STRUCT_Type* base)
 433:Generated_Source\PSoC6\pdl\drivers\peripheral\prot/cy_prot.c **** {
 580              		.loc 1 433 0
 581              		.cfi_startproc
 582              		@ args = 0, pretend = 0, frame = 0
ARM GAS  C:\Users\kiwamu\AppData\Local\Temp\ccLfX6Zi.s 			page 19


 583              		@ frame_needed = 0, uses_anonymous_args = 0
 584              		@ link register save eliminated.
 585              	.LVL66:
 434:Generated_Source\PSoC6\pdl\drivers\peripheral\prot/cy_prot.c ****     cy_en_prot_status_t status = CY_PROT_SUCCESS;
 435:Generated_Source\PSoC6\pdl\drivers\peripheral\prot/cy_prot.c ****     
 436:Generated_Source\PSoC6\pdl\drivers\peripheral\prot/cy_prot.c ****     base->ATT1 &= ~_VAL2FLD(PROT_SMPU_SMPU_STRUCT_ATT1_ENABLED, CY_PROT_STRUCT_ENABLE);
 586              		.loc 1 436 0
 587 0000 436A     		ldr	r3, [r0, #36]
 588 0002 23F00043 		bic	r3, r3, #-2147483648
 589 0006 4362     		str	r3, [r0, #36]
 437:Generated_Source\PSoC6\pdl\drivers\peripheral\prot/cy_prot.c ****     status = (_FLD2VAL(PROT_SMPU_SMPU_STRUCT_ATT1_ENABLED, base->ATT1) == CY_PROT_STRUCT_ENABLE) ?
 590              		.loc 1 437 0
 591 0008 436A     		ldr	r3, [r0, #36]
 592 000a 002B     		cmp	r3, #0
 593 000c 01DA     		bge	.L54
 594 000e 0248     		ldr	r0, .L55
 595              	.LVL67:
 596 0010 7047     		bx	lr
 597              	.LVL68:
 598              	.L54:
 599 0012 0020     		movs	r0, #0
 600              	.LVL69:
 438:Generated_Source\PSoC6\pdl\drivers\peripheral\prot/cy_prot.c ****                 CY_PROT_FAILURE : CY_PROT_SUCCESS;
 439:Generated_Source\PSoC6\pdl\drivers\peripheral\prot/cy_prot.c ****     
 440:Generated_Source\PSoC6\pdl\drivers\peripheral\prot/cy_prot.c ****     return status;
 441:Generated_Source\PSoC6\pdl\drivers\peripheral\prot/cy_prot.c **** }
 601              		.loc 1 441 0
 602 0014 7047     		bx	lr
 603              	.L56:
 604 0016 00BF     		.align	2
 605              	.L55:
 606 0018 0300C200 		.word	12713987
 607              		.cfi_endproc
 608              	.LFE132:
 609              		.size	Cy_Prot_DisableSmpuMasterStruct, .-Cy_Prot_DisableSmpuMasterStruct
 610              		.section	.text.Cy_Prot_EnableSmpuSlaveStruct,"ax",%progbits
 611              		.align	2
 612              		.global	Cy_Prot_EnableSmpuSlaveStruct
 613              		.thumb
 614              		.thumb_func
 615              		.type	Cy_Prot_EnableSmpuSlaveStruct, %function
 616              	Cy_Prot_EnableSmpuSlaveStruct:
 617              	.LFB133:
 442:Generated_Source\PSoC6\pdl\drivers\peripheral\prot/cy_prot.c **** 
 443:Generated_Source\PSoC6\pdl\drivers\peripheral\prot/cy_prot.c **** 
 444:Generated_Source\PSoC6\pdl\drivers\peripheral\prot/cy_prot.c **** /*******************************************************************************
 445:Generated_Source\PSoC6\pdl\drivers\peripheral\prot/cy_prot.c **** * Function Name: Cy_Prot_EnableSmpuSlaveStruct
 446:Generated_Source\PSoC6\pdl\drivers\peripheral\prot/cy_prot.c **** ****************************************************************************//**
 447:Generated_Source\PSoC6\pdl\drivers\peripheral\prot/cy_prot.c **** *
 448:Generated_Source\PSoC6\pdl\drivers\peripheral\prot/cy_prot.c **** * \brief Enables the Slave SMPU structure.
 449:Generated_Source\PSoC6\pdl\drivers\peripheral\prot/cy_prot.c **** *
 450:Generated_Source\PSoC6\pdl\drivers\peripheral\prot/cy_prot.c **** * This is an SMPU slave struct enable function. The SMPU protection settings
 451:Generated_Source\PSoC6\pdl\drivers\peripheral\prot/cy_prot.c **** * will take effect after successful completion of this function call.
 452:Generated_Source\PSoC6\pdl\drivers\peripheral\prot/cy_prot.c **** *
 453:Generated_Source\PSoC6\pdl\drivers\peripheral\prot/cy_prot.c **** * \param base
 454:Generated_Source\PSoC6\pdl\drivers\peripheral\prot/cy_prot.c **** * The base address for the protection unit structure being configured. 
 455:Generated_Source\PSoC6\pdl\drivers\peripheral\prot/cy_prot.c **** *
ARM GAS  C:\Users\kiwamu\AppData\Local\Temp\ccLfX6Zi.s 			page 20


 456:Generated_Source\PSoC6\pdl\drivers\peripheral\prot/cy_prot.c **** * \return
 457:Generated_Source\PSoC6\pdl\drivers\peripheral\prot/cy_prot.c **** * Status of the function call.
 458:Generated_Source\PSoC6\pdl\drivers\peripheral\prot/cy_prot.c **** *
 459:Generated_Source\PSoC6\pdl\drivers\peripheral\prot/cy_prot.c **** *   Status               | Description
 460:Generated_Source\PSoC6\pdl\drivers\peripheral\prot/cy_prot.c **** *   ------------         | -----------
 461:Generated_Source\PSoC6\pdl\drivers\peripheral\prot/cy_prot.c **** *   CY_PROT_SUCCESS      | The Slave PU struct was enabled
 462:Generated_Source\PSoC6\pdl\drivers\peripheral\prot/cy_prot.c **** *   CY_PROT_FAILURE      | The Slave PU struct is disabled and possibly locked
 463:Generated_Source\PSoC6\pdl\drivers\peripheral\prot/cy_prot.c **** *  
 464:Generated_Source\PSoC6\pdl\drivers\peripheral\prot/cy_prot.c **** *******************************************************************************/
 465:Generated_Source\PSoC6\pdl\drivers\peripheral\prot/cy_prot.c **** cy_en_prot_status_t Cy_Prot_EnableSmpuSlaveStruct(PROT_SMPU_SMPU_STRUCT_Type* base)
 466:Generated_Source\PSoC6\pdl\drivers\peripheral\prot/cy_prot.c **** {   
 618              		.loc 1 466 0
 619              		.cfi_startproc
 620              		@ args = 0, pretend = 0, frame = 0
 621              		@ frame_needed = 0, uses_anonymous_args = 0
 622              		@ link register save eliminated.
 623              	.LVL70:
 467:Generated_Source\PSoC6\pdl\drivers\peripheral\prot/cy_prot.c ****     cy_en_prot_status_t status = CY_PROT_SUCCESS;
 468:Generated_Source\PSoC6\pdl\drivers\peripheral\prot/cy_prot.c ****     
 469:Generated_Source\PSoC6\pdl\drivers\peripheral\prot/cy_prot.c ****     base->ATT0 |= _VAL2FLD(PROT_SMPU_SMPU_STRUCT_ATT0_ENABLED, CY_PROT_STRUCT_ENABLE);
 624              		.loc 1 469 0
 625 0000 4368     		ldr	r3, [r0, #4]
 626 0002 43F00043 		orr	r3, r3, #-2147483648
 627 0006 4360     		str	r3, [r0, #4]
 470:Generated_Source\PSoC6\pdl\drivers\peripheral\prot/cy_prot.c ****     status = (_FLD2VAL(PROT_SMPU_SMPU_STRUCT_ATT0_ENABLED, base->ATT0) != CY_PROT_STRUCT_ENABLE) ?
 628              		.loc 1 470 0
 629 0008 4368     		ldr	r3, [r0, #4]
 630 000a 002B     		cmp	r3, #0
 631 000c 01DB     		blt	.L59
 632 000e 0248     		ldr	r0, .L60
 633              	.LVL71:
 634 0010 7047     		bx	lr
 635              	.LVL72:
 636              	.L59:
 637 0012 0020     		movs	r0, #0
 638              	.LVL73:
 471:Generated_Source\PSoC6\pdl\drivers\peripheral\prot/cy_prot.c ****                 CY_PROT_FAILURE : CY_PROT_SUCCESS;
 472:Generated_Source\PSoC6\pdl\drivers\peripheral\prot/cy_prot.c ****     
 473:Generated_Source\PSoC6\pdl\drivers\peripheral\prot/cy_prot.c ****     return status;
 474:Generated_Source\PSoC6\pdl\drivers\peripheral\prot/cy_prot.c **** }
 639              		.loc 1 474 0
 640 0014 7047     		bx	lr
 641              	.L61:
 642 0016 00BF     		.align	2
 643              	.L60:
 644 0018 0300C200 		.word	12713987
 645              		.cfi_endproc
 646              	.LFE133:
 647              		.size	Cy_Prot_EnableSmpuSlaveStruct, .-Cy_Prot_EnableSmpuSlaveStruct
 648              		.section	.text.Cy_Prot_DisableSmpuSlaveStruct,"ax",%progbits
 649              		.align	2
 650              		.global	Cy_Prot_DisableSmpuSlaveStruct
 651              		.thumb
 652              		.thumb_func
 653              		.type	Cy_Prot_DisableSmpuSlaveStruct, %function
 654              	Cy_Prot_DisableSmpuSlaveStruct:
 655              	.LFB134:
ARM GAS  C:\Users\kiwamu\AppData\Local\Temp\ccLfX6Zi.s 			page 21


 475:Generated_Source\PSoC6\pdl\drivers\peripheral\prot/cy_prot.c **** 
 476:Generated_Source\PSoC6\pdl\drivers\peripheral\prot/cy_prot.c **** 
 477:Generated_Source\PSoC6\pdl\drivers\peripheral\prot/cy_prot.c **** /*******************************************************************************
 478:Generated_Source\PSoC6\pdl\drivers\peripheral\prot/cy_prot.c **** * Function Name: Cy_Prot_DisableSmpuSlaveStruct
 479:Generated_Source\PSoC6\pdl\drivers\peripheral\prot/cy_prot.c **** ****************************************************************************//**
 480:Generated_Source\PSoC6\pdl\drivers\peripheral\prot/cy_prot.c **** *
 481:Generated_Source\PSoC6\pdl\drivers\peripheral\prot/cy_prot.c **** * \brief Disables the Slave SMPU structure.
 482:Generated_Source\PSoC6\pdl\drivers\peripheral\prot/cy_prot.c **** *
 483:Generated_Source\PSoC6\pdl\drivers\peripheral\prot/cy_prot.c **** * This is an SMPU slave struct disable function. The SMPU protection settings
 484:Generated_Source\PSoC6\pdl\drivers\peripheral\prot/cy_prot.c **** * will seize to take effect after successful completion of this function call.
 485:Generated_Source\PSoC6\pdl\drivers\peripheral\prot/cy_prot.c **** *
 486:Generated_Source\PSoC6\pdl\drivers\peripheral\prot/cy_prot.c **** * \param base
 487:Generated_Source\PSoC6\pdl\drivers\peripheral\prot/cy_prot.c **** * The base address for the protection unit structure being configured. 
 488:Generated_Source\PSoC6\pdl\drivers\peripheral\prot/cy_prot.c **** *
 489:Generated_Source\PSoC6\pdl\drivers\peripheral\prot/cy_prot.c **** * \return
 490:Generated_Source\PSoC6\pdl\drivers\peripheral\prot/cy_prot.c **** * Status of the function call.
 491:Generated_Source\PSoC6\pdl\drivers\peripheral\prot/cy_prot.c **** *
 492:Generated_Source\PSoC6\pdl\drivers\peripheral\prot/cy_prot.c **** *   Status               | Description
 493:Generated_Source\PSoC6\pdl\drivers\peripheral\prot/cy_prot.c **** *   ------------         | -----------
 494:Generated_Source\PSoC6\pdl\drivers\peripheral\prot/cy_prot.c **** *   CY_PROT_SUCCESS      | The Slave PU struct was disabled
 495:Generated_Source\PSoC6\pdl\drivers\peripheral\prot/cy_prot.c **** *   CY_PROT_FAILURE      | The Slave PU struct is enabled and possibly locked
 496:Generated_Source\PSoC6\pdl\drivers\peripheral\prot/cy_prot.c **** *  
 497:Generated_Source\PSoC6\pdl\drivers\peripheral\prot/cy_prot.c **** *******************************************************************************/
 498:Generated_Source\PSoC6\pdl\drivers\peripheral\prot/cy_prot.c **** cy_en_prot_status_t Cy_Prot_DisableSmpuSlaveStruct(PROT_SMPU_SMPU_STRUCT_Type* base)
 499:Generated_Source\PSoC6\pdl\drivers\peripheral\prot/cy_prot.c **** {
 656              		.loc 1 499 0
 657              		.cfi_startproc
 658              		@ args = 0, pretend = 0, frame = 0
 659              		@ frame_needed = 0, uses_anonymous_args = 0
 660              		@ link register save eliminated.
 661              	.LVL74:
 500:Generated_Source\PSoC6\pdl\drivers\peripheral\prot/cy_prot.c ****     cy_en_prot_status_t status = CY_PROT_SUCCESS;
 501:Generated_Source\PSoC6\pdl\drivers\peripheral\prot/cy_prot.c ****     
 502:Generated_Source\PSoC6\pdl\drivers\peripheral\prot/cy_prot.c ****     base->ATT0 &= ~_VAL2FLD(PROT_SMPU_SMPU_STRUCT_ATT0_ENABLED, CY_PROT_STRUCT_ENABLE);
 662              		.loc 1 502 0
 663 0000 4368     		ldr	r3, [r0, #4]
 664 0002 23F00043 		bic	r3, r3, #-2147483648
 665 0006 4360     		str	r3, [r0, #4]
 503:Generated_Source\PSoC6\pdl\drivers\peripheral\prot/cy_prot.c ****     status = (_FLD2VAL(PROT_SMPU_SMPU_STRUCT_ATT0_ENABLED, base->ATT0) == CY_PROT_STRUCT_ENABLE) ?
 666              		.loc 1 503 0
 667 0008 4368     		ldr	r3, [r0, #4]
 668 000a 002B     		cmp	r3, #0
 669 000c 01DA     		bge	.L64
 670 000e 0248     		ldr	r0, .L65
 671              	.LVL75:
 672 0010 7047     		bx	lr
 673              	.LVL76:
 674              	.L64:
 675 0012 0020     		movs	r0, #0
 676              	.LVL77:
 504:Generated_Source\PSoC6\pdl\drivers\peripheral\prot/cy_prot.c ****                 CY_PROT_FAILURE : CY_PROT_SUCCESS;
 505:Generated_Source\PSoC6\pdl\drivers\peripheral\prot/cy_prot.c ****     
 506:Generated_Source\PSoC6\pdl\drivers\peripheral\prot/cy_prot.c ****     return status;
 507:Generated_Source\PSoC6\pdl\drivers\peripheral\prot/cy_prot.c **** }
 677              		.loc 1 507 0
 678 0014 7047     		bx	lr
 679              	.L66:
ARM GAS  C:\Users\kiwamu\AppData\Local\Temp\ccLfX6Zi.s 			page 22


 680 0016 00BF     		.align	2
 681              	.L65:
 682 0018 0300C200 		.word	12713987
 683              		.cfi_endproc
 684              	.LFE134:
 685              		.size	Cy_Prot_DisableSmpuSlaveStruct, .-Cy_Prot_DisableSmpuSlaveStruct
 686              		.section	.text.Cy_Prot_ConfigPpuProgMasterStruct,"ax",%progbits
 687              		.align	2
 688              		.global	Cy_Prot_ConfigPpuProgMasterStruct
 689              		.thumb
 690              		.thumb_func
 691              		.type	Cy_Prot_ConfigPpuProgMasterStruct, %function
 692              	Cy_Prot_ConfigPpuProgMasterStruct:
 693              	.LFB135:
 508:Generated_Source\PSoC6\pdl\drivers\peripheral\prot/cy_prot.c **** 
 509:Generated_Source\PSoC6\pdl\drivers\peripheral\prot/cy_prot.c **** 
 510:Generated_Source\PSoC6\pdl\drivers\peripheral\prot/cy_prot.c **** /*******************************************************************************
 511:Generated_Source\PSoC6\pdl\drivers\peripheral\prot/cy_prot.c **** * Function Name: Cy_Prot_ConfigPpuProgMasterStruct
 512:Generated_Source\PSoC6\pdl\drivers\peripheral\prot/cy_prot.c **** ****************************************************************************//**
 513:Generated_Source\PSoC6\pdl\drivers\peripheral\prot/cy_prot.c **** *
 514:Generated_Source\PSoC6\pdl\drivers\peripheral\prot/cy_prot.c **** * \brief Configures a Programmable Peripheral Protection Unit (PPU PROG) master 
 515:Generated_Source\PSoC6\pdl\drivers\peripheral\prot/cy_prot.c **** * protection struct with its protection attributes. 
 516:Generated_Source\PSoC6\pdl\drivers\peripheral\prot/cy_prot.c **** *
 517:Generated_Source\PSoC6\pdl\drivers\peripheral\prot/cy_prot.c **** * This function configures the master struct governing the corresponding slave
 518:Generated_Source\PSoC6\pdl\drivers\peripheral\prot/cy_prot.c **** * struct pair. It is a mechanism to protect the slave PPU PROG struct. Since
 519:Generated_Source\PSoC6\pdl\drivers\peripheral\prot/cy_prot.c **** * the memory location of the slave struct is known, the address, regionSize and
 520:Generated_Source\PSoC6\pdl\drivers\peripheral\prot/cy_prot.c **** * subregions of the configuration struct are not applicable.
 521:Generated_Source\PSoC6\pdl\drivers\peripheral\prot/cy_prot.c **** *
 522:Generated_Source\PSoC6\pdl\drivers\peripheral\prot/cy_prot.c **** * Note that only the user/privileged write permissions are configurable. The 
 523:Generated_Source\PSoC6\pdl\drivers\peripheral\prot/cy_prot.c **** * read and execute permissions are read-only and cannot be configured.
 524:Generated_Source\PSoC6\pdl\drivers\peripheral\prot/cy_prot.c **** *
 525:Generated_Source\PSoC6\pdl\drivers\peripheral\prot/cy_prot.c **** * \param base
 526:Generated_Source\PSoC6\pdl\drivers\peripheral\prot/cy_prot.c **** * The register base address of the protection struct being configured.
 527:Generated_Source\PSoC6\pdl\drivers\peripheral\prot/cy_prot.c **** * 
 528:Generated_Source\PSoC6\pdl\drivers\peripheral\prot/cy_prot.c **** * \param config
 529:Generated_Source\PSoC6\pdl\drivers\peripheral\prot/cy_prot.c **** * Initialization structure with all the protection attributes.
 530:Generated_Source\PSoC6\pdl\drivers\peripheral\prot/cy_prot.c **** * 
 531:Generated_Source\PSoC6\pdl\drivers\peripheral\prot/cy_prot.c **** * \return
 532:Generated_Source\PSoC6\pdl\drivers\peripheral\prot/cy_prot.c **** * Status of the function call.
 533:Generated_Source\PSoC6\pdl\drivers\peripheral\prot/cy_prot.c **** *
 534:Generated_Source\PSoC6\pdl\drivers\peripheral\prot/cy_prot.c **** *   Status               | Description
 535:Generated_Source\PSoC6\pdl\drivers\peripheral\prot/cy_prot.c **** *   ------------         | -----------
 536:Generated_Source\PSoC6\pdl\drivers\peripheral\prot/cy_prot.c **** *   CY_PROT_SUCCESS      | PPU PROG master struct was successfully configured
 537:Generated_Source\PSoC6\pdl\drivers\peripheral\prot/cy_prot.c **** *   CY_PROT_FAILURE      | The resource is locked
 538:Generated_Source\PSoC6\pdl\drivers\peripheral\prot/cy_prot.c **** *   CY_PROT_BAD_PARAM    | An incorrect/invalid parameter was passed
 539:Generated_Source\PSoC6\pdl\drivers\peripheral\prot/cy_prot.c **** *  
 540:Generated_Source\PSoC6\pdl\drivers\peripheral\prot/cy_prot.c **** *******************************************************************************/
 541:Generated_Source\PSoC6\pdl\drivers\peripheral\prot/cy_prot.c **** cy_en_prot_status_t Cy_Prot_ConfigPpuProgMasterStruct(PERI_PPU_PR_Type* base, const cy_stc_ppu_prog
 542:Generated_Source\PSoC6\pdl\drivers\peripheral\prot/cy_prot.c **** {
 694              		.loc 1 542 0
 695              		.cfi_startproc
 696              		@ args = 0, pretend = 0, frame = 0
 697              		@ frame_needed = 0, uses_anonymous_args = 0
 698              		@ link register save eliminated.
 699              	.LVL78:
 700 0000 10B4     		push	{r4}
 701              		.cfi_def_cfa_offset 4
ARM GAS  C:\Users\kiwamu\AppData\Local\Temp\ccLfX6Zi.s 			page 23


 702              		.cfi_offset 4, -4
 703              	.LVL79:
 543:Generated_Source\PSoC6\pdl\drivers\peripheral\prot/cy_prot.c ****     cy_en_prot_status_t status = CY_PROT_SUCCESS;
 544:Generated_Source\PSoC6\pdl\drivers\peripheral\prot/cy_prot.c ****     uint32_t attReg;
 545:Generated_Source\PSoC6\pdl\drivers\peripheral\prot/cy_prot.c ****     
 546:Generated_Source\PSoC6\pdl\drivers\peripheral\prot/cy_prot.c ****     if(((uint32_t)config->pcMask & CY_PROT_PPU_PROG_PC_LIMIT_MASK) != 0UL) 
 704              		.loc 1 546 0
 705 0002 4C89     		ldrh	r4, [r1, #10]
 706 0004 34F07F03 		bics	r3, r4, #127
 707 0008 23D1     		bne	.L69
 547:Generated_Source\PSoC6\pdl\drivers\peripheral\prot/cy_prot.c ****     {
 548:Generated_Source\PSoC6\pdl\drivers\peripheral\prot/cy_prot.c ****         /* PC mask out of range - not supported in device */
 549:Generated_Source\PSoC6\pdl\drivers\peripheral\prot/cy_prot.c ****         status = CY_PROT_BAD_PARAM;
 550:Generated_Source\PSoC6\pdl\drivers\peripheral\prot/cy_prot.c ****     }
 551:Generated_Source\PSoC6\pdl\drivers\peripheral\prot/cy_prot.c ****     else
 552:Generated_Source\PSoC6\pdl\drivers\peripheral\prot/cy_prot.c ****     {
 553:Generated_Source\PSoC6\pdl\drivers\peripheral\prot/cy_prot.c ****         /* ADDR1 is read only. Only configure ATT1 */
 554:Generated_Source\PSoC6\pdl\drivers\peripheral\prot/cy_prot.c ****         attReg = ((uint32_t)config->userPermission & CY_PROT_ATT_PERMISSION_MASK)
 708              		.loc 1 554 0
 709 000a 8B79     		ldrb	r3, [r1, #6]	@ zero_extendqisi2
 710 000c 03F00703 		and	r3, r3, #7
 555:Generated_Source\PSoC6\pdl\drivers\peripheral\prot/cy_prot.c ****                     | (uint32_t)(((uint32_t)config->privPermission & CY_PROT_ATT_PERMISSION_MASK) <
 711              		.loc 1 555 0
 712 0010 CA79     		ldrb	r2, [r1, #7]	@ zero_extendqisi2
 713 0012 D200     		lsls	r2, r2, #3
 714 0014 02F03802 		and	r2, r2, #56
 715 0018 1343     		orrs	r3, r3, r2
 556:Generated_Source\PSoC6\pdl\drivers\peripheral\prot/cy_prot.c ****                     | _VAL2FLD(PERI_PPU_PR_ATT1_NS, !(config->secure))
 716              		.loc 1 556 0
 717 001a 0A7A     		ldrb	r2, [r1, #8]	@ zero_extendqisi2
 718 001c 82F00102 		eor	r2, r2, #1
 719 0020 9201     		lsls	r2, r2, #6
 720 0022 02F04002 		and	r2, r2, #64
 721 0026 1343     		orrs	r3, r3, r2
 557:Generated_Source\PSoC6\pdl\drivers\peripheral\prot/cy_prot.c ****                     | _VAL2FLD(PERI_PPU_PR_ATT1_PC_MASK_15_TO_1, config->pcMask)
 722              		.loc 1 557 0
 723 0028 0E4A     		ldr	r2, .L73
 724 002a 02EA4424 		and	r4, r2, r4, lsl #9
 725 002e 2343     		orrs	r3, r3, r4
 558:Generated_Source\PSoC6\pdl\drivers\peripheral\prot/cy_prot.c ****                     /* No region size - read only for master structs */
 559:Generated_Source\PSoC6\pdl\drivers\peripheral\prot/cy_prot.c ****                     | _VAL2FLD(PERI_PPU_PR_ATT1_PC_MATCH, config->pcMatch);
 726              		.loc 1 559 0
 727 0030 4A7A     		ldrb	r2, [r1, #9]	@ zero_extendqisi2
 728 0032 9207     		lsls	r2, r2, #30
 729 0034 02F08042 		and	r2, r2, #1073741824
 554:Generated_Source\PSoC6\pdl\drivers\peripheral\prot/cy_prot.c ****                     | (uint32_t)(((uint32_t)config->privPermission & CY_PROT_ATT_PERMISSION_MASK) <
 730              		.loc 1 554 0
 731 0038 1343     		orrs	r3, r3, r2
 732              	.LVL80:
 560:Generated_Source\PSoC6\pdl\drivers\peripheral\prot/cy_prot.c ****         if ((attReg & CY_PROT_PPU_PROG_ATT1_MASK) != attReg)
 733              		.loc 1 560 0
 734 003a 0B4A     		ldr	r2, .L73+4
 735 003c 1A40     		ands	r2, r2, r3
 736 003e 9342     		cmp	r3, r2
 737 0040 09D1     		bne	.L70
 561:Generated_Source\PSoC6\pdl\drivers\peripheral\prot/cy_prot.c ****         {
 562:Generated_Source\PSoC6\pdl\drivers\peripheral\prot/cy_prot.c ****             /* Invalid parameter was passed */
ARM GAS  C:\Users\kiwamu\AppData\Local\Temp\ccLfX6Zi.s 			page 24


 563:Generated_Source\PSoC6\pdl\drivers\peripheral\prot/cy_prot.c ****             status = CY_PROT_BAD_PARAM;
 564:Generated_Source\PSoC6\pdl\drivers\peripheral\prot/cy_prot.c ****         }
 565:Generated_Source\PSoC6\pdl\drivers\peripheral\prot/cy_prot.c ****         else
 566:Generated_Source\PSoC6\pdl\drivers\peripheral\prot/cy_prot.c ****         {
 567:Generated_Source\PSoC6\pdl\drivers\peripheral\prot/cy_prot.c ****             base->ATT1 = attReg;
 738              		.loc 1 567 0
 739 0042 4362     		str	r3, [r0, #36]
 568:Generated_Source\PSoC6\pdl\drivers\peripheral\prot/cy_prot.c ****             status = ((base->ATT1 & CY_PROT_PPU_PROG_ATT1_MASK) != attReg) ? CY_PROT_FAILURE : CY_P
 740              		.loc 1 568 0
 741 0044 416A     		ldr	r1, [r0, #36]
 742              	.LVL81:
 743 0046 094A     		ldr	r2, .L73+8
 744 0048 0A40     		ands	r2, r2, r1
 745 004a 9342     		cmp	r3, r2
 746 004c 05D0     		beq	.L71
 747 004e 0848     		ldr	r0, .L73+12
 748              	.LVL82:
 749 0050 04E0     		b	.L68
 750              	.LVL83:
 751              	.L69:
 549:Generated_Source\PSoC6\pdl\drivers\peripheral\prot/cy_prot.c ****     }
 752              		.loc 1 549 0
 753 0052 0848     		ldr	r0, .L73+16
 754              	.LVL84:
 755 0054 02E0     		b	.L68
 756              	.LVL85:
 757              	.L70:
 563:Generated_Source\PSoC6\pdl\drivers\peripheral\prot/cy_prot.c ****         }
 758              		.loc 1 563 0
 759 0056 0748     		ldr	r0, .L73+16
 760              	.LVL86:
 761 0058 00E0     		b	.L68
 762              	.LVL87:
 763              	.L71:
 764              		.loc 1 568 0
 765 005a 0020     		movs	r0, #0
 766              	.LVL88:
 767              	.L68:
 569:Generated_Source\PSoC6\pdl\drivers\peripheral\prot/cy_prot.c ****         }
 570:Generated_Source\PSoC6\pdl\drivers\peripheral\prot/cy_prot.c ****     }
 571:Generated_Source\PSoC6\pdl\drivers\peripheral\prot/cy_prot.c **** 
 572:Generated_Source\PSoC6\pdl\drivers\peripheral\prot/cy_prot.c ****     return status;
 573:Generated_Source\PSoC6\pdl\drivers\peripheral\prot/cy_prot.c **** }
 768              		.loc 1 573 0
 769 005c 5DF8044B 		ldr	r4, [sp], #4
 770              		.cfi_restore 4
 771              		.cfi_def_cfa_offset 0
 772 0060 7047     		bx	lr
 773              	.L74:
 774 0062 00BF     		.align	2
 775              	.L73:
 776 0064 00FEFF00 		.word	16776704
 777 0068 52FEFF40 		.word	1090518610
 778 006c D2FEFFE0 		.word	-520093998
 779 0070 0300C200 		.word	12713987
 780 0074 0100C200 		.word	12713985
 781              		.cfi_endproc
ARM GAS  C:\Users\kiwamu\AppData\Local\Temp\ccLfX6Zi.s 			page 25


 782              	.LFE135:
 783              		.size	Cy_Prot_ConfigPpuProgMasterStruct, .-Cy_Prot_ConfigPpuProgMasterStruct
 784              		.section	.text.Cy_Prot_ConfigPpuProgSlaveStruct,"ax",%progbits
 785              		.align	2
 786              		.global	Cy_Prot_ConfigPpuProgSlaveStruct
 787              		.thumb
 788              		.thumb_func
 789              		.type	Cy_Prot_ConfigPpuProgSlaveStruct, %function
 790              	Cy_Prot_ConfigPpuProgSlaveStruct:
 791              	.LFB136:
 574:Generated_Source\PSoC6\pdl\drivers\peripheral\prot/cy_prot.c **** 
 575:Generated_Source\PSoC6\pdl\drivers\peripheral\prot/cy_prot.c **** /*******************************************************************************
 576:Generated_Source\PSoC6\pdl\drivers\peripheral\prot/cy_prot.c **** * Function Name: Cy_Prot_ConfigPpuProgSlaveStruct
 577:Generated_Source\PSoC6\pdl\drivers\peripheral\prot/cy_prot.c **** ****************************************************************************//**
 578:Generated_Source\PSoC6\pdl\drivers\peripheral\prot/cy_prot.c **** *
 579:Generated_Source\PSoC6\pdl\drivers\peripheral\prot/cy_prot.c **** * \brief Configures a Programmable Peripheral Protection Unit (PPU PROG) slave
 580:Generated_Source\PSoC6\pdl\drivers\peripheral\prot/cy_prot.c **** * protection struct with its protection attributes. 
 581:Generated_Source\PSoC6\pdl\drivers\peripheral\prot/cy_prot.c **** * 
 582:Generated_Source\PSoC6\pdl\drivers\peripheral\prot/cy_prot.c **** * This function configures the slave struct of a PPU PROG pair, which can 
 583:Generated_Source\PSoC6\pdl\drivers\peripheral\prot/cy_prot.c **** * protect any peripheral memory region in a device from invalid bus master 
 584:Generated_Source\PSoC6\pdl\drivers\peripheral\prot/cy_prot.c **** * accesses.
 585:Generated_Source\PSoC6\pdl\drivers\peripheral\prot/cy_prot.c **** *
 586:Generated_Source\PSoC6\pdl\drivers\peripheral\prot/cy_prot.c **** * Note that the user/privileged execute accesses are read-only and are always 
 587:Generated_Source\PSoC6\pdl\drivers\peripheral\prot/cy_prot.c **** * enabled. 
 588:Generated_Source\PSoC6\pdl\drivers\peripheral\prot/cy_prot.c **** *
 589:Generated_Source\PSoC6\pdl\drivers\peripheral\prot/cy_prot.c **** * \param base
 590:Generated_Source\PSoC6\pdl\drivers\peripheral\prot/cy_prot.c **** * The register base address of the protection structure being configured.
 591:Generated_Source\PSoC6\pdl\drivers\peripheral\prot/cy_prot.c **** * 
 592:Generated_Source\PSoC6\pdl\drivers\peripheral\prot/cy_prot.c **** * \param config
 593:Generated_Source\PSoC6\pdl\drivers\peripheral\prot/cy_prot.c **** * Initialization structure with all the protection attributes.
 594:Generated_Source\PSoC6\pdl\drivers\peripheral\prot/cy_prot.c **** * 
 595:Generated_Source\PSoC6\pdl\drivers\peripheral\prot/cy_prot.c **** * \return
 596:Generated_Source\PSoC6\pdl\drivers\peripheral\prot/cy_prot.c **** * Status of the function call.
 597:Generated_Source\PSoC6\pdl\drivers\peripheral\prot/cy_prot.c **** *
 598:Generated_Source\PSoC6\pdl\drivers\peripheral\prot/cy_prot.c **** *   Status               | Description
 599:Generated_Source\PSoC6\pdl\drivers\peripheral\prot/cy_prot.c **** *   ------------         | -----------
 600:Generated_Source\PSoC6\pdl\drivers\peripheral\prot/cy_prot.c **** *   CY_PROT_SUCCESS      | PPU PROG slave struct was successfully configured
 601:Generated_Source\PSoC6\pdl\drivers\peripheral\prot/cy_prot.c **** *   CY_PROT_FAILURE      | The resource is locked
 602:Generated_Source\PSoC6\pdl\drivers\peripheral\prot/cy_prot.c **** *   CY_PROT_BAD_PARAM    | An incorrect/invalid parameter was passed
 603:Generated_Source\PSoC6\pdl\drivers\peripheral\prot/cy_prot.c **** *  
 604:Generated_Source\PSoC6\pdl\drivers\peripheral\prot/cy_prot.c **** *******************************************************************************/
 605:Generated_Source\PSoC6\pdl\drivers\peripheral\prot/cy_prot.c **** cy_en_prot_status_t Cy_Prot_ConfigPpuProgSlaveStruct(PERI_PPU_PR_Type* base, const cy_stc_ppu_prog_
 606:Generated_Source\PSoC6\pdl\drivers\peripheral\prot/cy_prot.c **** {
 792              		.loc 1 606 0
 793              		.cfi_startproc
 794              		@ args = 0, pretend = 0, frame = 0
 795              		@ frame_needed = 0, uses_anonymous_args = 0
 796              		@ link register save eliminated.
 797              	.LVL89:
 798 0000 30B4     		push	{r4, r5}
 799              		.cfi_def_cfa_offset 8
 800              		.cfi_offset 4, -8
 801              		.cfi_offset 5, -4
 802              	.LVL90:
 607:Generated_Source\PSoC6\pdl\drivers\peripheral\prot/cy_prot.c ****     cy_en_prot_status_t status = CY_PROT_SUCCESS;
 608:Generated_Source\PSoC6\pdl\drivers\peripheral\prot/cy_prot.c ****     uint32_t addrReg;
 609:Generated_Source\PSoC6\pdl\drivers\peripheral\prot/cy_prot.c ****     uint32_t attReg;
ARM GAS  C:\Users\kiwamu\AppData\Local\Temp\ccLfX6Zi.s 			page 26


 610:Generated_Source\PSoC6\pdl\drivers\peripheral\prot/cy_prot.c ****     
 611:Generated_Source\PSoC6\pdl\drivers\peripheral\prot/cy_prot.c ****     if(((uint32_t)config->pcMask & CY_PROT_PPU_PROG_PC_LIMIT_MASK) != 0UL) 
 803              		.loc 1 611 0
 804 0002 4D89     		ldrh	r5, [r1, #10]
 805 0004 35F07F03 		bics	r3, r5, #127
 806 0008 30D1     		bne	.L77
 612:Generated_Source\PSoC6\pdl\drivers\peripheral\prot/cy_prot.c ****     {
 613:Generated_Source\PSoC6\pdl\drivers\peripheral\prot/cy_prot.c ****         /* PC mask out of range - not supported in device */
 614:Generated_Source\PSoC6\pdl\drivers\peripheral\prot/cy_prot.c ****         status = CY_PROT_BAD_PARAM;
 615:Generated_Source\PSoC6\pdl\drivers\peripheral\prot/cy_prot.c ****     }
 616:Generated_Source\PSoC6\pdl\drivers\peripheral\prot/cy_prot.c ****     else
 617:Generated_Source\PSoC6\pdl\drivers\peripheral\prot/cy_prot.c ****     {
 618:Generated_Source\PSoC6\pdl\drivers\peripheral\prot/cy_prot.c ****         addrReg= _VAL2FLD(PERI_PPU_PR_ADDR0_SUBREGION_DISABLE, config->subregions)
 807              		.loc 1 618 0
 808 000a 4C79     		ldrb	r4, [r1, #5]	@ zero_extendqisi2
 619:Generated_Source\PSoC6\pdl\drivers\peripheral\prot/cy_prot.c ****                     | _VAL2FLD(PERI_PPU_PR_ADDR0_ADDR24, (uint32_t)((uint32_t)config->address >> CY
 809              		.loc 1 619 0
 810 000c 0B68     		ldr	r3, [r1]
 811 000e 23F0FF03 		bic	r3, r3, #255
 618:Generated_Source\PSoC6\pdl\drivers\peripheral\prot/cy_prot.c ****                     | _VAL2FLD(PERI_PPU_PR_ADDR0_ADDR24, (uint32_t)((uint32_t)config->address >> CY
 812              		.loc 1 618 0
 813 0012 1C43     		orrs	r4, r4, r3
 814              	.LVL91:
 620:Generated_Source\PSoC6\pdl\drivers\peripheral\prot/cy_prot.c ****         attReg= ((uint32_t)config->userPermission & CY_PROT_ATT_PERMISSION_MASK)
 815              		.loc 1 620 0
 816 0014 8B79     		ldrb	r3, [r1, #6]	@ zero_extendqisi2
 817 0016 03F00703 		and	r3, r3, #7
 621:Generated_Source\PSoC6\pdl\drivers\peripheral\prot/cy_prot.c ****                     | (uint32_t)(((uint32_t)config->privPermission & CY_PROT_ATT_PERMISSION_MASK) <
 818              		.loc 1 621 0
 819 001a CA79     		ldrb	r2, [r1, #7]	@ zero_extendqisi2
 820 001c D200     		lsls	r2, r2, #3
 821 001e 02F03802 		and	r2, r2, #56
 822 0022 1343     		orrs	r3, r3, r2
 622:Generated_Source\PSoC6\pdl\drivers\peripheral\prot/cy_prot.c ****                     | _VAL2FLD(PERI_PPU_PR_ATT0_NS, !(config->secure))
 823              		.loc 1 622 0
 824 0024 0A7A     		ldrb	r2, [r1, #8]	@ zero_extendqisi2
 825 0026 82F00102 		eor	r2, r2, #1
 826 002a 9201     		lsls	r2, r2, #6
 827 002c 02F04002 		and	r2, r2, #64
 828 0030 1343     		orrs	r3, r3, r2
 623:Generated_Source\PSoC6\pdl\drivers\peripheral\prot/cy_prot.c ****                     | _VAL2FLD(PERI_PPU_PR_ATT0_PC_MASK_15_TO_1, config->pcMask)
 829              		.loc 1 623 0
 830 0032 134A     		ldr	r2, .L82
 831 0034 02EA4525 		and	r5, r2, r5, lsl #9
 832 0038 2B43     		orrs	r3, r3, r5
 624:Generated_Source\PSoC6\pdl\drivers\peripheral\prot/cy_prot.c ****                     | _VAL2FLD(PERI_PPU_PR_ATT0_REGION_SIZE, config->regionSize)
 833              		.loc 1 624 0
 834 003a 0A79     		ldrb	r2, [r1, #4]	@ zero_extendqisi2
 835 003c 1206     		lsls	r2, r2, #24
 836 003e 02F0F852 		and	r2, r2, #520093696
 837 0042 1343     		orrs	r3, r3, r2
 625:Generated_Source\PSoC6\pdl\drivers\peripheral\prot/cy_prot.c ****                     | _VAL2FLD(PERI_PPU_PR_ATT0_PC_MATCH, config->pcMatch);
 838              		.loc 1 625 0
 839 0044 4A7A     		ldrb	r2, [r1, #9]	@ zero_extendqisi2
 840 0046 9207     		lsls	r2, r2, #30
 841 0048 02F08042 		and	r2, r2, #1073741824
 620:Generated_Source\PSoC6\pdl\drivers\peripheral\prot/cy_prot.c ****                     | (uint32_t)(((uint32_t)config->privPermission & CY_PROT_ATT_PERMISSION_MASK) <
ARM GAS  C:\Users\kiwamu\AppData\Local\Temp\ccLfX6Zi.s 			page 27


 842              		.loc 1 620 0
 843 004c 1343     		orrs	r3, r3, r2
 844              	.LVL92:
 626:Generated_Source\PSoC6\pdl\drivers\peripheral\prot/cy_prot.c ****         if ((attReg & CY_PROT_PPU_PROG_ATT0_MASK) != attReg)
 845              		.loc 1 626 0
 846 004e 13F4927F 		tst	r3, #292
 847 0052 0DD1     		bne	.L78
 627:Generated_Source\PSoC6\pdl\drivers\peripheral\prot/cy_prot.c ****         {
 628:Generated_Source\PSoC6\pdl\drivers\peripheral\prot/cy_prot.c ****             /* Invalid parameter was passed */
 629:Generated_Source\PSoC6\pdl\drivers\peripheral\prot/cy_prot.c ****             status = CY_PROT_BAD_PARAM;
 630:Generated_Source\PSoC6\pdl\drivers\peripheral\prot/cy_prot.c ****         }
 631:Generated_Source\PSoC6\pdl\drivers\peripheral\prot/cy_prot.c ****         else
 632:Generated_Source\PSoC6\pdl\drivers\peripheral\prot/cy_prot.c ****         {
 633:Generated_Source\PSoC6\pdl\drivers\peripheral\prot/cy_prot.c ****             base->ATT0 = attReg;
 848              		.loc 1 633 0
 849 0054 4360     		str	r3, [r0, #4]
 634:Generated_Source\PSoC6\pdl\drivers\peripheral\prot/cy_prot.c ****             base->ADDR0 = addrReg;
 850              		.loc 1 634 0
 851 0056 0460     		str	r4, [r0]
 635:Generated_Source\PSoC6\pdl\drivers\peripheral\prot/cy_prot.c ****             status = ((base->ADDR0 != addrReg) || ((base->ATT0 & CY_PROT_PPU_PROG_ATT0_MASK) != att
 852              		.loc 1 635 0
 853 0058 0268     		ldr	r2, [r0]
 854 005a 9442     		cmp	r4, r2
 855 005c 0AD1     		bne	.L79
 856              		.loc 1 635 0 is_stmt 0 discriminator 2
 857 005e 4268     		ldr	r2, [r0, #4]
 858 0060 22F49272 		bic	r2, r2, #292
 859 0064 9342     		cmp	r3, r2
 860 0066 07D0     		beq	.L80
 861              		.loc 1 635 0
 862 0068 0648     		ldr	r0, .L82+4
 863              	.LVL93:
 864 006a 06E0     		b	.L76
 865              	.LVL94:
 866              	.L77:
 614:Generated_Source\PSoC6\pdl\drivers\peripheral\prot/cy_prot.c ****     }
 867              		.loc 1 614 0 is_stmt 1
 868 006c 0648     		ldr	r0, .L82+8
 869              	.LVL95:
 870 006e 04E0     		b	.L76
 871              	.LVL96:
 872              	.L78:
 629:Generated_Source\PSoC6\pdl\drivers\peripheral\prot/cy_prot.c ****         }
 873              		.loc 1 629 0
 874 0070 0548     		ldr	r0, .L82+8
 875              	.LVL97:
 876 0072 02E0     		b	.L76
 877              	.LVL98:
 878              	.L79:
 879              		.loc 1 635 0
 880 0074 0348     		ldr	r0, .L82+4
 881              	.LVL99:
 882 0076 00E0     		b	.L76
 883              	.LVL100:
 884              	.L80:
 885 0078 0020     		movs	r0, #0
 886              	.LVL101:
ARM GAS  C:\Users\kiwamu\AppData\Local\Temp\ccLfX6Zi.s 			page 28


 887              	.L76:
 636:Generated_Source\PSoC6\pdl\drivers\peripheral\prot/cy_prot.c ****                         ? CY_PROT_FAILURE : CY_PROT_SUCCESS;
 637:Generated_Source\PSoC6\pdl\drivers\peripheral\prot/cy_prot.c ****         }
 638:Generated_Source\PSoC6\pdl\drivers\peripheral\prot/cy_prot.c ****     }
 639:Generated_Source\PSoC6\pdl\drivers\peripheral\prot/cy_prot.c ****     
 640:Generated_Source\PSoC6\pdl\drivers\peripheral\prot/cy_prot.c ****     return status;
 641:Generated_Source\PSoC6\pdl\drivers\peripheral\prot/cy_prot.c **** }
 888              		.loc 1 641 0
 889 007a 30BC     		pop	{r4, r5}
 890              		.cfi_restore 5
 891              		.cfi_restore 4
 892              		.cfi_def_cfa_offset 0
 893 007c 7047     		bx	lr
 894              	.L83:
 895 007e 00BF     		.align	2
 896              	.L82:
 897 0080 00FEFF00 		.word	16776704
 898 0084 0300C200 		.word	12713987
 899 0088 0100C200 		.word	12713985
 900              		.cfi_endproc
 901              	.LFE136:
 902              		.size	Cy_Prot_ConfigPpuProgSlaveStruct, .-Cy_Prot_ConfigPpuProgSlaveStruct
 903              		.section	.text.Cy_Prot_EnablePpuProgMasterStruct,"ax",%progbits
 904              		.align	2
 905              		.global	Cy_Prot_EnablePpuProgMasterStruct
 906              		.thumb
 907              		.thumb_func
 908              		.type	Cy_Prot_EnablePpuProgMasterStruct, %function
 909              	Cy_Prot_EnablePpuProgMasterStruct:
 910              	.LFB137:
 642:Generated_Source\PSoC6\pdl\drivers\peripheral\prot/cy_prot.c **** 
 643:Generated_Source\PSoC6\pdl\drivers\peripheral\prot/cy_prot.c **** 
 644:Generated_Source\PSoC6\pdl\drivers\peripheral\prot/cy_prot.c **** /*******************************************************************************
 645:Generated_Source\PSoC6\pdl\drivers\peripheral\prot/cy_prot.c **** * Function Name: Cy_Prot_EnablePpuProgMasterStruct
 646:Generated_Source\PSoC6\pdl\drivers\peripheral\prot/cy_prot.c **** ****************************************************************************//**
 647:Generated_Source\PSoC6\pdl\drivers\peripheral\prot/cy_prot.c **** *
 648:Generated_Source\PSoC6\pdl\drivers\peripheral\prot/cy_prot.c **** * \brief Enables the Master PPU PROG structure.
 649:Generated_Source\PSoC6\pdl\drivers\peripheral\prot/cy_prot.c **** *
 650:Generated_Source\PSoC6\pdl\drivers\peripheral\prot/cy_prot.c **** * This is a PPU PROG master struct enable function. The PPU PROG protection 
 651:Generated_Source\PSoC6\pdl\drivers\peripheral\prot/cy_prot.c **** * settings will take effect after successful completion of this function call.
 652:Generated_Source\PSoC6\pdl\drivers\peripheral\prot/cy_prot.c **** *
 653:Generated_Source\PSoC6\pdl\drivers\peripheral\prot/cy_prot.c **** * \param base
 654:Generated_Source\PSoC6\pdl\drivers\peripheral\prot/cy_prot.c **** * The base address for the protection unit structure being configured. 
 655:Generated_Source\PSoC6\pdl\drivers\peripheral\prot/cy_prot.c **** *
 656:Generated_Source\PSoC6\pdl\drivers\peripheral\prot/cy_prot.c **** * \return
 657:Generated_Source\PSoC6\pdl\drivers\peripheral\prot/cy_prot.c **** * Status of the function call.
 658:Generated_Source\PSoC6\pdl\drivers\peripheral\prot/cy_prot.c **** *
 659:Generated_Source\PSoC6\pdl\drivers\peripheral\prot/cy_prot.c **** *   Status               | Description
 660:Generated_Source\PSoC6\pdl\drivers\peripheral\prot/cy_prot.c **** *   ------------         | -----------
 661:Generated_Source\PSoC6\pdl\drivers\peripheral\prot/cy_prot.c **** *   CY_PROT_SUCCESS      | The Master PU struct was enabled
 662:Generated_Source\PSoC6\pdl\drivers\peripheral\prot/cy_prot.c **** *   CY_PROT_FAILURE      | The Master PU struct is disabled and possibly locked
 663:Generated_Source\PSoC6\pdl\drivers\peripheral\prot/cy_prot.c **** *  
 664:Generated_Source\PSoC6\pdl\drivers\peripheral\prot/cy_prot.c **** *******************************************************************************/
 665:Generated_Source\PSoC6\pdl\drivers\peripheral\prot/cy_prot.c **** cy_en_prot_status_t Cy_Prot_EnablePpuProgMasterStruct(PERI_PPU_PR_Type* base)
 666:Generated_Source\PSoC6\pdl\drivers\peripheral\prot/cy_prot.c **** {
 911              		.loc 1 666 0
 912              		.cfi_startproc
ARM GAS  C:\Users\kiwamu\AppData\Local\Temp\ccLfX6Zi.s 			page 29


 913              		@ args = 0, pretend = 0, frame = 0
 914              		@ frame_needed = 0, uses_anonymous_args = 0
 915              		@ link register save eliminated.
 916              	.LVL102:
 667:Generated_Source\PSoC6\pdl\drivers\peripheral\prot/cy_prot.c ****     cy_en_prot_status_t status = CY_PROT_SUCCESS;
 668:Generated_Source\PSoC6\pdl\drivers\peripheral\prot/cy_prot.c ****     
 669:Generated_Source\PSoC6\pdl\drivers\peripheral\prot/cy_prot.c ****     base->ATT1 |= _VAL2FLD(PERI_PPU_PR_ATT1_ENABLED, CY_PROT_STRUCT_ENABLE);
 917              		.loc 1 669 0
 918 0000 436A     		ldr	r3, [r0, #36]
 919 0002 43F00043 		orr	r3, r3, #-2147483648
 920 0006 4362     		str	r3, [r0, #36]
 670:Generated_Source\PSoC6\pdl\drivers\peripheral\prot/cy_prot.c ****     status = (_FLD2VAL(PERI_PPU_PR_ATT1_ENABLED, base->ATT1) != CY_PROT_STRUCT_ENABLE) ?
 921              		.loc 1 670 0
 922 0008 436A     		ldr	r3, [r0, #36]
 923 000a 002B     		cmp	r3, #0
 924 000c 01DB     		blt	.L86
 925 000e 0248     		ldr	r0, .L87
 926              	.LVL103:
 927 0010 7047     		bx	lr
 928              	.LVL104:
 929              	.L86:
 930 0012 0020     		movs	r0, #0
 931              	.LVL105:
 671:Generated_Source\PSoC6\pdl\drivers\peripheral\prot/cy_prot.c ****                 CY_PROT_FAILURE : CY_PROT_SUCCESS;
 672:Generated_Source\PSoC6\pdl\drivers\peripheral\prot/cy_prot.c ****     
 673:Generated_Source\PSoC6\pdl\drivers\peripheral\prot/cy_prot.c ****     return status;
 674:Generated_Source\PSoC6\pdl\drivers\peripheral\prot/cy_prot.c **** }
 932              		.loc 1 674 0
 933 0014 7047     		bx	lr
 934              	.L88:
 935 0016 00BF     		.align	2
 936              	.L87:
 937 0018 0300C200 		.word	12713987
 938              		.cfi_endproc
 939              	.LFE137:
 940              		.size	Cy_Prot_EnablePpuProgMasterStruct, .-Cy_Prot_EnablePpuProgMasterStruct
 941              		.section	.text.Cy_Prot_DisablePpuProgMasterStruct,"ax",%progbits
 942              		.align	2
 943              		.global	Cy_Prot_DisablePpuProgMasterStruct
 944              		.thumb
 945              		.thumb_func
 946              		.type	Cy_Prot_DisablePpuProgMasterStruct, %function
 947              	Cy_Prot_DisablePpuProgMasterStruct:
 948              	.LFB138:
 675:Generated_Source\PSoC6\pdl\drivers\peripheral\prot/cy_prot.c **** 
 676:Generated_Source\PSoC6\pdl\drivers\peripheral\prot/cy_prot.c **** 
 677:Generated_Source\PSoC6\pdl\drivers\peripheral\prot/cy_prot.c **** /*******************************************************************************
 678:Generated_Source\PSoC6\pdl\drivers\peripheral\prot/cy_prot.c **** * Function Name: Cy_Prot_DisablePpuProgMasterStruct
 679:Generated_Source\PSoC6\pdl\drivers\peripheral\prot/cy_prot.c **** ****************************************************************************//**
 680:Generated_Source\PSoC6\pdl\drivers\peripheral\prot/cy_prot.c **** *
 681:Generated_Source\PSoC6\pdl\drivers\peripheral\prot/cy_prot.c **** * \brief Disables the Master PPU PROG structure.
 682:Generated_Source\PSoC6\pdl\drivers\peripheral\prot/cy_prot.c **** *
 683:Generated_Source\PSoC6\pdl\drivers\peripheral\prot/cy_prot.c **** * This is a PPU PROG master struct disable function. The PPU PROG protection 
 684:Generated_Source\PSoC6\pdl\drivers\peripheral\prot/cy_prot.c **** * settings will seize to take effect after successful completion of this 
 685:Generated_Source\PSoC6\pdl\drivers\peripheral\prot/cy_prot.c **** * function call.
 686:Generated_Source\PSoC6\pdl\drivers\peripheral\prot/cy_prot.c **** *
 687:Generated_Source\PSoC6\pdl\drivers\peripheral\prot/cy_prot.c **** * \param base
ARM GAS  C:\Users\kiwamu\AppData\Local\Temp\ccLfX6Zi.s 			page 30


 688:Generated_Source\PSoC6\pdl\drivers\peripheral\prot/cy_prot.c **** * The base address for the protection unit structure being configured. 
 689:Generated_Source\PSoC6\pdl\drivers\peripheral\prot/cy_prot.c **** *
 690:Generated_Source\PSoC6\pdl\drivers\peripheral\prot/cy_prot.c **** * \return
 691:Generated_Source\PSoC6\pdl\drivers\peripheral\prot/cy_prot.c **** * Status of the function call.
 692:Generated_Source\PSoC6\pdl\drivers\peripheral\prot/cy_prot.c **** *
 693:Generated_Source\PSoC6\pdl\drivers\peripheral\prot/cy_prot.c **** *   Status               | Description
 694:Generated_Source\PSoC6\pdl\drivers\peripheral\prot/cy_prot.c **** *   ------------         | -----------
 695:Generated_Source\PSoC6\pdl\drivers\peripheral\prot/cy_prot.c **** *   CY_PROT_SUCCESS      | The Master PU struct was disabled
 696:Generated_Source\PSoC6\pdl\drivers\peripheral\prot/cy_prot.c **** *   CY_PROT_FAILURE      | The Master PU struct is enabled and possibly locked
 697:Generated_Source\PSoC6\pdl\drivers\peripheral\prot/cy_prot.c **** *  
 698:Generated_Source\PSoC6\pdl\drivers\peripheral\prot/cy_prot.c **** *******************************************************************************/
 699:Generated_Source\PSoC6\pdl\drivers\peripheral\prot/cy_prot.c **** cy_en_prot_status_t Cy_Prot_DisablePpuProgMasterStruct(PERI_PPU_PR_Type* base)
 700:Generated_Source\PSoC6\pdl\drivers\peripheral\prot/cy_prot.c **** {
 949              		.loc 1 700 0
 950              		.cfi_startproc
 951              		@ args = 0, pretend = 0, frame = 0
 952              		@ frame_needed = 0, uses_anonymous_args = 0
 953              		@ link register save eliminated.
 954              	.LVL106:
 701:Generated_Source\PSoC6\pdl\drivers\peripheral\prot/cy_prot.c ****     cy_en_prot_status_t status = CY_PROT_SUCCESS;
 702:Generated_Source\PSoC6\pdl\drivers\peripheral\prot/cy_prot.c ****     
 703:Generated_Source\PSoC6\pdl\drivers\peripheral\prot/cy_prot.c ****     base->ATT1 &= ~_VAL2FLD(PERI_PPU_PR_ATT1_ENABLED, CY_PROT_STRUCT_ENABLE);
 955              		.loc 1 703 0
 956 0000 436A     		ldr	r3, [r0, #36]
 957 0002 23F00043 		bic	r3, r3, #-2147483648
 958 0006 4362     		str	r3, [r0, #36]
 704:Generated_Source\PSoC6\pdl\drivers\peripheral\prot/cy_prot.c ****     status = (_FLD2VAL(PERI_PPU_PR_ATT1_ENABLED, base->ATT1) == CY_PROT_STRUCT_ENABLE) ?
 959              		.loc 1 704 0
 960 0008 436A     		ldr	r3, [r0, #36]
 961 000a 002B     		cmp	r3, #0
 962 000c 01DA     		bge	.L91
 963 000e 0248     		ldr	r0, .L92
 964              	.LVL107:
 965 0010 7047     		bx	lr
 966              	.LVL108:
 967              	.L91:
 968 0012 0020     		movs	r0, #0
 969              	.LVL109:
 705:Generated_Source\PSoC6\pdl\drivers\peripheral\prot/cy_prot.c ****                 CY_PROT_FAILURE : CY_PROT_SUCCESS;
 706:Generated_Source\PSoC6\pdl\drivers\peripheral\prot/cy_prot.c ****     
 707:Generated_Source\PSoC6\pdl\drivers\peripheral\prot/cy_prot.c ****     return status;
 708:Generated_Source\PSoC6\pdl\drivers\peripheral\prot/cy_prot.c **** }
 970              		.loc 1 708 0
 971 0014 7047     		bx	lr
 972              	.L93:
 973 0016 00BF     		.align	2
 974              	.L92:
 975 0018 0300C200 		.word	12713987
 976              		.cfi_endproc
 977              	.LFE138:
 978              		.size	Cy_Prot_DisablePpuProgMasterStruct, .-Cy_Prot_DisablePpuProgMasterStruct
 979              		.section	.text.Cy_Prot_EnablePpuProgSlaveStruct,"ax",%progbits
 980              		.align	2
 981              		.global	Cy_Prot_EnablePpuProgSlaveStruct
 982              		.thumb
 983              		.thumb_func
 984              		.type	Cy_Prot_EnablePpuProgSlaveStruct, %function
ARM GAS  C:\Users\kiwamu\AppData\Local\Temp\ccLfX6Zi.s 			page 31


 985              	Cy_Prot_EnablePpuProgSlaveStruct:
 986              	.LFB139:
 709:Generated_Source\PSoC6\pdl\drivers\peripheral\prot/cy_prot.c **** 
 710:Generated_Source\PSoC6\pdl\drivers\peripheral\prot/cy_prot.c **** 
 711:Generated_Source\PSoC6\pdl\drivers\peripheral\prot/cy_prot.c **** /*******************************************************************************
 712:Generated_Source\PSoC6\pdl\drivers\peripheral\prot/cy_prot.c **** * Function Name: Cy_Prot_EnablePpuProgSlaveStruct
 713:Generated_Source\PSoC6\pdl\drivers\peripheral\prot/cy_prot.c **** ****************************************************************************//**
 714:Generated_Source\PSoC6\pdl\drivers\peripheral\prot/cy_prot.c **** *
 715:Generated_Source\PSoC6\pdl\drivers\peripheral\prot/cy_prot.c **** * \brief Enables the Slave PPU PROG structure.
 716:Generated_Source\PSoC6\pdl\drivers\peripheral\prot/cy_prot.c **** *
 717:Generated_Source\PSoC6\pdl\drivers\peripheral\prot/cy_prot.c **** * This is a PPU PROG slave struct enable function. The PPU PROG protection 
 718:Generated_Source\PSoC6\pdl\drivers\peripheral\prot/cy_prot.c **** * settings will take effect after successful completion of this function call.
 719:Generated_Source\PSoC6\pdl\drivers\peripheral\prot/cy_prot.c **** *
 720:Generated_Source\PSoC6\pdl\drivers\peripheral\prot/cy_prot.c **** * \param base
 721:Generated_Source\PSoC6\pdl\drivers\peripheral\prot/cy_prot.c **** * The base address for the protection unit structure being configured. 
 722:Generated_Source\PSoC6\pdl\drivers\peripheral\prot/cy_prot.c **** *
 723:Generated_Source\PSoC6\pdl\drivers\peripheral\prot/cy_prot.c **** * \return
 724:Generated_Source\PSoC6\pdl\drivers\peripheral\prot/cy_prot.c **** * Status of the function call.
 725:Generated_Source\PSoC6\pdl\drivers\peripheral\prot/cy_prot.c **** *
 726:Generated_Source\PSoC6\pdl\drivers\peripheral\prot/cy_prot.c **** *   Status               | Description
 727:Generated_Source\PSoC6\pdl\drivers\peripheral\prot/cy_prot.c **** *   ------------         | -----------
 728:Generated_Source\PSoC6\pdl\drivers\peripheral\prot/cy_prot.c **** *   CY_PROT_SUCCESS      | The Slave PU struct was enabled
 729:Generated_Source\PSoC6\pdl\drivers\peripheral\prot/cy_prot.c **** *   CY_PROT_FAILURE      | The Slave PU struct is disabled and possibly locked
 730:Generated_Source\PSoC6\pdl\drivers\peripheral\prot/cy_prot.c **** *  
 731:Generated_Source\PSoC6\pdl\drivers\peripheral\prot/cy_prot.c **** *******************************************************************************/
 732:Generated_Source\PSoC6\pdl\drivers\peripheral\prot/cy_prot.c **** cy_en_prot_status_t Cy_Prot_EnablePpuProgSlaveStruct(PERI_PPU_PR_Type* base)
 733:Generated_Source\PSoC6\pdl\drivers\peripheral\prot/cy_prot.c **** {   
 987              		.loc 1 733 0
 988              		.cfi_startproc
 989              		@ args = 0, pretend = 0, frame = 0
 990              		@ frame_needed = 0, uses_anonymous_args = 0
 991              		@ link register save eliminated.
 992              	.LVL110:
 734:Generated_Source\PSoC6\pdl\drivers\peripheral\prot/cy_prot.c ****     cy_en_prot_status_t status = CY_PROT_SUCCESS;
 735:Generated_Source\PSoC6\pdl\drivers\peripheral\prot/cy_prot.c ****     
 736:Generated_Source\PSoC6\pdl\drivers\peripheral\prot/cy_prot.c ****     base->ATT0 |= _VAL2FLD(PERI_PPU_PR_ATT0_ENABLED, CY_PROT_STRUCT_ENABLE);
 993              		.loc 1 736 0
 994 0000 4368     		ldr	r3, [r0, #4]
 995 0002 43F00043 		orr	r3, r3, #-2147483648
 996 0006 4360     		str	r3, [r0, #4]
 737:Generated_Source\PSoC6\pdl\drivers\peripheral\prot/cy_prot.c ****     status = (_FLD2VAL(PERI_PPU_PR_ATT0_ENABLED, base->ATT0) != CY_PROT_STRUCT_ENABLE) ?
 997              		.loc 1 737 0
 998 0008 4368     		ldr	r3, [r0, #4]
 999 000a 002B     		cmp	r3, #0
 1000 000c 01DB     		blt	.L96
 1001 000e 0248     		ldr	r0, .L97
 1002              	.LVL111:
 1003 0010 7047     		bx	lr
 1004              	.LVL112:
 1005              	.L96:
 1006 0012 0020     		movs	r0, #0
 1007              	.LVL113:
 738:Generated_Source\PSoC6\pdl\drivers\peripheral\prot/cy_prot.c ****                 CY_PROT_FAILURE : CY_PROT_SUCCESS;
 739:Generated_Source\PSoC6\pdl\drivers\peripheral\prot/cy_prot.c ****     
 740:Generated_Source\PSoC6\pdl\drivers\peripheral\prot/cy_prot.c ****     return status;
 741:Generated_Source\PSoC6\pdl\drivers\peripheral\prot/cy_prot.c **** }
 1008              		.loc 1 741 0
ARM GAS  C:\Users\kiwamu\AppData\Local\Temp\ccLfX6Zi.s 			page 32


 1009 0014 7047     		bx	lr
 1010              	.L98:
 1011 0016 00BF     		.align	2
 1012              	.L97:
 1013 0018 0300C200 		.word	12713987
 1014              		.cfi_endproc
 1015              	.LFE139:
 1016              		.size	Cy_Prot_EnablePpuProgSlaveStruct, .-Cy_Prot_EnablePpuProgSlaveStruct
 1017              		.section	.text.Cy_Prot_DisablePpuProgSlaveStruct,"ax",%progbits
 1018              		.align	2
 1019              		.global	Cy_Prot_DisablePpuProgSlaveStruct
 1020              		.thumb
 1021              		.thumb_func
 1022              		.type	Cy_Prot_DisablePpuProgSlaveStruct, %function
 1023              	Cy_Prot_DisablePpuProgSlaveStruct:
 1024              	.LFB140:
 742:Generated_Source\PSoC6\pdl\drivers\peripheral\prot/cy_prot.c **** 
 743:Generated_Source\PSoC6\pdl\drivers\peripheral\prot/cy_prot.c **** 
 744:Generated_Source\PSoC6\pdl\drivers\peripheral\prot/cy_prot.c **** /*******************************************************************************
 745:Generated_Source\PSoC6\pdl\drivers\peripheral\prot/cy_prot.c **** * Function Name: Cy_Prot_DisablePpuProgSlaveStruct
 746:Generated_Source\PSoC6\pdl\drivers\peripheral\prot/cy_prot.c **** ****************************************************************************//**
 747:Generated_Source\PSoC6\pdl\drivers\peripheral\prot/cy_prot.c **** *
 748:Generated_Source\PSoC6\pdl\drivers\peripheral\prot/cy_prot.c **** * \brief Disables the Slave PPU PROG structure.
 749:Generated_Source\PSoC6\pdl\drivers\peripheral\prot/cy_prot.c **** *
 750:Generated_Source\PSoC6\pdl\drivers\peripheral\prot/cy_prot.c **** * This is a PPU PROG slave struct disable function. The PPU PROG protection 
 751:Generated_Source\PSoC6\pdl\drivers\peripheral\prot/cy_prot.c **** * settings will seize to take effect after successful completion of this 
 752:Generated_Source\PSoC6\pdl\drivers\peripheral\prot/cy_prot.c **** * function call.
 753:Generated_Source\PSoC6\pdl\drivers\peripheral\prot/cy_prot.c **** *
 754:Generated_Source\PSoC6\pdl\drivers\peripheral\prot/cy_prot.c **** * \param base
 755:Generated_Source\PSoC6\pdl\drivers\peripheral\prot/cy_prot.c **** * The base address for the protection unit structure being configured. 
 756:Generated_Source\PSoC6\pdl\drivers\peripheral\prot/cy_prot.c **** *
 757:Generated_Source\PSoC6\pdl\drivers\peripheral\prot/cy_prot.c **** * \return
 758:Generated_Source\PSoC6\pdl\drivers\peripheral\prot/cy_prot.c **** * Status of the function call.
 759:Generated_Source\PSoC6\pdl\drivers\peripheral\prot/cy_prot.c **** *
 760:Generated_Source\PSoC6\pdl\drivers\peripheral\prot/cy_prot.c **** *   Status               | Description
 761:Generated_Source\PSoC6\pdl\drivers\peripheral\prot/cy_prot.c **** *   ------------         | -----------
 762:Generated_Source\PSoC6\pdl\drivers\peripheral\prot/cy_prot.c **** *   CY_PROT_SUCCESS      | The Slave PU struct was disabled
 763:Generated_Source\PSoC6\pdl\drivers\peripheral\prot/cy_prot.c **** *   CY_PROT_FAILURE      | The Slave PU struct is enabled and possibly locked
 764:Generated_Source\PSoC6\pdl\drivers\peripheral\prot/cy_prot.c **** *  
 765:Generated_Source\PSoC6\pdl\drivers\peripheral\prot/cy_prot.c **** *******************************************************************************/
 766:Generated_Source\PSoC6\pdl\drivers\peripheral\prot/cy_prot.c **** cy_en_prot_status_t Cy_Prot_DisablePpuProgSlaveStruct(PERI_PPU_PR_Type* base)
 767:Generated_Source\PSoC6\pdl\drivers\peripheral\prot/cy_prot.c **** {
 1025              		.loc 1 767 0
 1026              		.cfi_startproc
 1027              		@ args = 0, pretend = 0, frame = 0
 1028              		@ frame_needed = 0, uses_anonymous_args = 0
 1029              		@ link register save eliminated.
 1030              	.LVL114:
 768:Generated_Source\PSoC6\pdl\drivers\peripheral\prot/cy_prot.c ****     cy_en_prot_status_t status = CY_PROT_SUCCESS;
 769:Generated_Source\PSoC6\pdl\drivers\peripheral\prot/cy_prot.c ****     
 770:Generated_Source\PSoC6\pdl\drivers\peripheral\prot/cy_prot.c ****     base->ATT0 &= ~_VAL2FLD(PERI_PPU_PR_ATT0_ENABLED, CY_PROT_STRUCT_ENABLE);
 1031              		.loc 1 770 0
 1032 0000 4368     		ldr	r3, [r0, #4]
 1033 0002 23F00043 		bic	r3, r3, #-2147483648
 1034 0006 4360     		str	r3, [r0, #4]
 771:Generated_Source\PSoC6\pdl\drivers\peripheral\prot/cy_prot.c ****     status = (_FLD2VAL(PERI_PPU_PR_ATT0_ENABLED, base->ATT0) == CY_PROT_STRUCT_ENABLE) ?
 1035              		.loc 1 771 0
ARM GAS  C:\Users\kiwamu\AppData\Local\Temp\ccLfX6Zi.s 			page 33


 1036 0008 4368     		ldr	r3, [r0, #4]
 1037 000a 002B     		cmp	r3, #0
 1038 000c 01DA     		bge	.L101
 1039 000e 0248     		ldr	r0, .L102
 1040              	.LVL115:
 1041 0010 7047     		bx	lr
 1042              	.LVL116:
 1043              	.L101:
 1044 0012 0020     		movs	r0, #0
 1045              	.LVL117:
 772:Generated_Source\PSoC6\pdl\drivers\peripheral\prot/cy_prot.c ****                 CY_PROT_FAILURE : CY_PROT_SUCCESS;
 773:Generated_Source\PSoC6\pdl\drivers\peripheral\prot/cy_prot.c ****     
 774:Generated_Source\PSoC6\pdl\drivers\peripheral\prot/cy_prot.c ****     return status;
 775:Generated_Source\PSoC6\pdl\drivers\peripheral\prot/cy_prot.c **** }
 1046              		.loc 1 775 0
 1047 0014 7047     		bx	lr
 1048              	.L103:
 1049 0016 00BF     		.align	2
 1050              	.L102:
 1051 0018 0300C200 		.word	12713987
 1052              		.cfi_endproc
 1053              	.LFE140:
 1054              		.size	Cy_Prot_DisablePpuProgSlaveStruct, .-Cy_Prot_DisablePpuProgSlaveStruct
 1055              		.section	.text.Cy_Prot_ConfigPpuFixedGrMasterStruct,"ax",%progbits
 1056              		.align	2
 1057              		.global	Cy_Prot_ConfigPpuFixedGrMasterStruct
 1058              		.thumb
 1059              		.thumb_func
 1060              		.type	Cy_Prot_ConfigPpuFixedGrMasterStruct, %function
 1061              	Cy_Prot_ConfigPpuFixedGrMasterStruct:
 1062              	.LFB141:
 776:Generated_Source\PSoC6\pdl\drivers\peripheral\prot/cy_prot.c **** 
 777:Generated_Source\PSoC6\pdl\drivers\peripheral\prot/cy_prot.c **** 
 778:Generated_Source\PSoC6\pdl\drivers\peripheral\prot/cy_prot.c **** /*******************************************************************************
 779:Generated_Source\PSoC6\pdl\drivers\peripheral\prot/cy_prot.c **** * Function Name: Cy_Prot_ConfigPpuFixedGrMasterStruct
 780:Generated_Source\PSoC6\pdl\drivers\peripheral\prot/cy_prot.c **** ****************************************************************************//**
 781:Generated_Source\PSoC6\pdl\drivers\peripheral\prot/cy_prot.c **** *
 782:Generated_Source\PSoC6\pdl\drivers\peripheral\prot/cy_prot.c **** * \brief Configures a Fixed Peripheral Group Protection Unit (PPU GR) master 
 783:Generated_Source\PSoC6\pdl\drivers\peripheral\prot/cy_prot.c **** * protection struct with its protection attributes. 
 784:Generated_Source\PSoC6\pdl\drivers\peripheral\prot/cy_prot.c **** *
 785:Generated_Source\PSoC6\pdl\drivers\peripheral\prot/cy_prot.c **** * This function configures the master struct governing the corresponding slave
 786:Generated_Source\PSoC6\pdl\drivers\peripheral\prot/cy_prot.c **** * struct pair. It is a mechanism to protect the slave PPU GR struct. Since
 787:Generated_Source\PSoC6\pdl\drivers\peripheral\prot/cy_prot.c **** * the memory location of the slave struct is known, the address, regionSize and
 788:Generated_Source\PSoC6\pdl\drivers\peripheral\prot/cy_prot.c **** * subregions of the configuration struct are not applicable.
 789:Generated_Source\PSoC6\pdl\drivers\peripheral\prot/cy_prot.c **** *
 790:Generated_Source\PSoC6\pdl\drivers\peripheral\prot/cy_prot.c **** * Note that only the user/privileged write permissions are configurable. The 
 791:Generated_Source\PSoC6\pdl\drivers\peripheral\prot/cy_prot.c **** * read and execute permissions are read-only and cannot be configured.
 792:Generated_Source\PSoC6\pdl\drivers\peripheral\prot/cy_prot.c **** *
 793:Generated_Source\PSoC6\pdl\drivers\peripheral\prot/cy_prot.c **** * \param base
 794:Generated_Source\PSoC6\pdl\drivers\peripheral\prot/cy_prot.c **** * The register base address of the protection struct being configured.
 795:Generated_Source\PSoC6\pdl\drivers\peripheral\prot/cy_prot.c **** * 
 796:Generated_Source\PSoC6\pdl\drivers\peripheral\prot/cy_prot.c **** * \param config
 797:Generated_Source\PSoC6\pdl\drivers\peripheral\prot/cy_prot.c **** * Initialization structure with all the protection attributes.
 798:Generated_Source\PSoC6\pdl\drivers\peripheral\prot/cy_prot.c **** * 
 799:Generated_Source\PSoC6\pdl\drivers\peripheral\prot/cy_prot.c **** * \return
 800:Generated_Source\PSoC6\pdl\drivers\peripheral\prot/cy_prot.c **** * Status of the function call.
 801:Generated_Source\PSoC6\pdl\drivers\peripheral\prot/cy_prot.c **** *
ARM GAS  C:\Users\kiwamu\AppData\Local\Temp\ccLfX6Zi.s 			page 34


 802:Generated_Source\PSoC6\pdl\drivers\peripheral\prot/cy_prot.c **** *   Status               | Description
 803:Generated_Source\PSoC6\pdl\drivers\peripheral\prot/cy_prot.c **** *   ------------         | -----------
 804:Generated_Source\PSoC6\pdl\drivers\peripheral\prot/cy_prot.c **** *   CY_PROT_SUCCESS      | PPU GR master struct was successfully configured
 805:Generated_Source\PSoC6\pdl\drivers\peripheral\prot/cy_prot.c **** *   CY_PROT_FAILURE      | The resource is locked
 806:Generated_Source\PSoC6\pdl\drivers\peripheral\prot/cy_prot.c **** *   CY_PROT_BAD_PARAM    | An incorrect/invalid parameter was passed
 807:Generated_Source\PSoC6\pdl\drivers\peripheral\prot/cy_prot.c **** *  
 808:Generated_Source\PSoC6\pdl\drivers\peripheral\prot/cy_prot.c **** *******************************************************************************/
 809:Generated_Source\PSoC6\pdl\drivers\peripheral\prot/cy_prot.c **** cy_en_prot_status_t Cy_Prot_ConfigPpuFixedGrMasterStruct(PERI_PPU_GR_Type* base, const cy_stc_ppu_g
 810:Generated_Source\PSoC6\pdl\drivers\peripheral\prot/cy_prot.c **** {
 1063              		.loc 1 810 0
 1064              		.cfi_startproc
 1065              		@ args = 0, pretend = 0, frame = 0
 1066              		@ frame_needed = 0, uses_anonymous_args = 0
 1067              		@ link register save eliminated.
 1068              	.LVL118:
 1069 0000 10B4     		push	{r4}
 1070              		.cfi_def_cfa_offset 4
 1071              		.cfi_offset 4, -4
 1072              	.LVL119:
 811:Generated_Source\PSoC6\pdl\drivers\peripheral\prot/cy_prot.c ****     cy_en_prot_status_t status = CY_PROT_SUCCESS;
 812:Generated_Source\PSoC6\pdl\drivers\peripheral\prot/cy_prot.c ****     uint32_t attReg;
 813:Generated_Source\PSoC6\pdl\drivers\peripheral\prot/cy_prot.c ****     
 814:Generated_Source\PSoC6\pdl\drivers\peripheral\prot/cy_prot.c ****     if(((uint32_t)config->pcMask & CY_PROT_PPU_FIXED_PC_LIMIT_MASK) != 0UL) 
 1073              		.loc 1 814 0
 1074 0002 8C88     		ldrh	r4, [r1, #4]
 1075 0004 34F07F03 		bics	r3, r4, #127
 1076 0008 23D1     		bne	.L106
 815:Generated_Source\PSoC6\pdl\drivers\peripheral\prot/cy_prot.c ****     {
 816:Generated_Source\PSoC6\pdl\drivers\peripheral\prot/cy_prot.c ****         /* PC mask out of range - not supported in device */
 817:Generated_Source\PSoC6\pdl\drivers\peripheral\prot/cy_prot.c ****         status = CY_PROT_BAD_PARAM;
 818:Generated_Source\PSoC6\pdl\drivers\peripheral\prot/cy_prot.c ****     }
 819:Generated_Source\PSoC6\pdl\drivers\peripheral\prot/cy_prot.c ****     else
 820:Generated_Source\PSoC6\pdl\drivers\peripheral\prot/cy_prot.c ****     {
 821:Generated_Source\PSoC6\pdl\drivers\peripheral\prot/cy_prot.c ****         /* ADDR1 is read only. Only configure ATT1 */
 822:Generated_Source\PSoC6\pdl\drivers\peripheral\prot/cy_prot.c ****         attReg = (((uint32_t)config->userPermission & CY_PROT_ATT_PERMISSION_MASK))
 1077              		.loc 1 822 0
 1078 000a 0B78     		ldrb	r3, [r1]	@ zero_extendqisi2
 1079 000c 03F00703 		and	r3, r3, #7
 823:Generated_Source\PSoC6\pdl\drivers\peripheral\prot/cy_prot.c ****                     | (uint32_t)(((uint32_t)config->privPermission & CY_PROT_ATT_PERMISSION_MASK) <
 1080              		.loc 1 823 0
 1081 0010 4A78     		ldrb	r2, [r1, #1]	@ zero_extendqisi2
 1082 0012 D200     		lsls	r2, r2, #3
 1083 0014 02F03802 		and	r2, r2, #56
 1084 0018 1343     		orrs	r3, r3, r2
 824:Generated_Source\PSoC6\pdl\drivers\peripheral\prot/cy_prot.c ****                     | _VAL2FLD(PERI_PPU_GR_ATT1_NS, !(config->secure))
 1085              		.loc 1 824 0
 1086 001a 8A78     		ldrb	r2, [r1, #2]	@ zero_extendqisi2
 1087 001c 82F00102 		eor	r2, r2, #1
 1088 0020 9201     		lsls	r2, r2, #6
 1089 0022 02F04002 		and	r2, r2, #64
 1090 0026 1343     		orrs	r3, r3, r2
 825:Generated_Source\PSoC6\pdl\drivers\peripheral\prot/cy_prot.c ****                     | _VAL2FLD(PERI_PPU_GR_ATT1_PC_MASK_15_TO_1, config->pcMask)
 1091              		.loc 1 825 0
 1092 0028 0E4A     		ldr	r2, .L110
 1093 002a 02EA4424 		and	r4, r2, r4, lsl #9
 1094 002e 2343     		orrs	r3, r3, r4
 826:Generated_Source\PSoC6\pdl\drivers\peripheral\prot/cy_prot.c ****                     /* No region size - read only for master structs */
ARM GAS  C:\Users\kiwamu\AppData\Local\Temp\ccLfX6Zi.s 			page 35


 827:Generated_Source\PSoC6\pdl\drivers\peripheral\prot/cy_prot.c ****                     | _VAL2FLD(PERI_PPU_GR_ATT1_PC_MATCH, config->pcMatch);
 1095              		.loc 1 827 0
 1096 0030 CA78     		ldrb	r2, [r1, #3]	@ zero_extendqisi2
 1097 0032 9207     		lsls	r2, r2, #30
 1098 0034 02F08042 		and	r2, r2, #1073741824
 822:Generated_Source\PSoC6\pdl\drivers\peripheral\prot/cy_prot.c ****                     | (uint32_t)(((uint32_t)config->privPermission & CY_PROT_ATT_PERMISSION_MASK) <
 1099              		.loc 1 822 0
 1100 0038 1343     		orrs	r3, r3, r2
 1101              	.LVL120:
 828:Generated_Source\PSoC6\pdl\drivers\peripheral\prot/cy_prot.c ****         if ((attReg & CY_PROT_PPU_GR_ATT1_MASK) != attReg)
 1102              		.loc 1 828 0
 1103 003a 0B4A     		ldr	r2, .L110+4
 1104 003c 1A40     		ands	r2, r2, r3
 1105 003e 9342     		cmp	r3, r2
 1106 0040 09D1     		bne	.L107
 829:Generated_Source\PSoC6\pdl\drivers\peripheral\prot/cy_prot.c ****         {
 830:Generated_Source\PSoC6\pdl\drivers\peripheral\prot/cy_prot.c ****             /* Invalid parameter was passed */
 831:Generated_Source\PSoC6\pdl\drivers\peripheral\prot/cy_prot.c ****             status = CY_PROT_BAD_PARAM;
 832:Generated_Source\PSoC6\pdl\drivers\peripheral\prot/cy_prot.c ****         }
 833:Generated_Source\PSoC6\pdl\drivers\peripheral\prot/cy_prot.c ****         else
 834:Generated_Source\PSoC6\pdl\drivers\peripheral\prot/cy_prot.c ****         {
 835:Generated_Source\PSoC6\pdl\drivers\peripheral\prot/cy_prot.c ****             base->ATT1 = attReg;
 1107              		.loc 1 835 0
 1108 0042 4362     		str	r3, [r0, #36]
 836:Generated_Source\PSoC6\pdl\drivers\peripheral\prot/cy_prot.c ****             status = ((base->ATT1 & CY_PROT_PPU_GR_ATT1_MASK) != attReg) ? CY_PROT_FAILURE : CY_PRO
 1109              		.loc 1 836 0
 1110 0044 416A     		ldr	r1, [r0, #36]
 1111              	.LVL121:
 1112 0046 094A     		ldr	r2, .L110+8
 1113 0048 0A40     		ands	r2, r2, r1
 1114 004a 9342     		cmp	r3, r2
 1115 004c 05D0     		beq	.L108
 1116 004e 0848     		ldr	r0, .L110+12
 1117              	.LVL122:
 1118 0050 04E0     		b	.L105
 1119              	.LVL123:
 1120              	.L106:
 817:Generated_Source\PSoC6\pdl\drivers\peripheral\prot/cy_prot.c ****     }
 1121              		.loc 1 817 0
 1122 0052 0848     		ldr	r0, .L110+16
 1123              	.LVL124:
 1124 0054 02E0     		b	.L105
 1125              	.LVL125:
 1126              	.L107:
 831:Generated_Source\PSoC6\pdl\drivers\peripheral\prot/cy_prot.c ****         }
 1127              		.loc 1 831 0
 1128 0056 0748     		ldr	r0, .L110+16
 1129              	.LVL126:
 1130 0058 00E0     		b	.L105
 1131              	.LVL127:
 1132              	.L108:
 1133              		.loc 1 836 0
 1134 005a 0020     		movs	r0, #0
 1135              	.LVL128:
 1136              	.L105:
 837:Generated_Source\PSoC6\pdl\drivers\peripheral\prot/cy_prot.c ****         }
 838:Generated_Source\PSoC6\pdl\drivers\peripheral\prot/cy_prot.c ****     }
ARM GAS  C:\Users\kiwamu\AppData\Local\Temp\ccLfX6Zi.s 			page 36


 839:Generated_Source\PSoC6\pdl\drivers\peripheral\prot/cy_prot.c ****     
 840:Generated_Source\PSoC6\pdl\drivers\peripheral\prot/cy_prot.c ****     return status;
 841:Generated_Source\PSoC6\pdl\drivers\peripheral\prot/cy_prot.c **** }
 1137              		.loc 1 841 0
 1138 005c 5DF8044B 		ldr	r4, [sp], #4
 1139              		.cfi_restore 4
 1140              		.cfi_def_cfa_offset 0
 1141 0060 7047     		bx	lr
 1142              	.L111:
 1143 0062 00BF     		.align	2
 1144              	.L110:
 1145 0064 00FEFF00 		.word	16776704
 1146 0068 52FEFF40 		.word	1090518610
 1147 006c D2FEFFE0 		.word	-520093998
 1148 0070 0300C200 		.word	12713987
 1149 0074 0100C200 		.word	12713985
 1150              		.cfi_endproc
 1151              	.LFE141:
 1152              		.size	Cy_Prot_ConfigPpuFixedGrMasterStruct, .-Cy_Prot_ConfigPpuFixedGrMasterStruct
 1153              		.section	.text.Cy_Prot_ConfigPpuFixedGrSlaveStruct,"ax",%progbits
 1154              		.align	2
 1155              		.global	Cy_Prot_ConfigPpuFixedGrSlaveStruct
 1156              		.thumb
 1157              		.thumb_func
 1158              		.type	Cy_Prot_ConfigPpuFixedGrSlaveStruct, %function
 1159              	Cy_Prot_ConfigPpuFixedGrSlaveStruct:
 1160              	.LFB142:
 842:Generated_Source\PSoC6\pdl\drivers\peripheral\prot/cy_prot.c **** 
 843:Generated_Source\PSoC6\pdl\drivers\peripheral\prot/cy_prot.c **** 
 844:Generated_Source\PSoC6\pdl\drivers\peripheral\prot/cy_prot.c **** /*******************************************************************************
 845:Generated_Source\PSoC6\pdl\drivers\peripheral\prot/cy_prot.c **** * Function Name: Cy_Prot_ConfigPpuFixedGrSlaveStruct
 846:Generated_Source\PSoC6\pdl\drivers\peripheral\prot/cy_prot.c **** ****************************************************************************//**
 847:Generated_Source\PSoC6\pdl\drivers\peripheral\prot/cy_prot.c **** *
 848:Generated_Source\PSoC6\pdl\drivers\peripheral\prot/cy_prot.c **** * \brief Configures a Fixed Peripheral Group Protection Unit (PPU GR) slave
 849:Generated_Source\PSoC6\pdl\drivers\peripheral\prot/cy_prot.c **** * protection struct with its protection attributes. 
 850:Generated_Source\PSoC6\pdl\drivers\peripheral\prot/cy_prot.c **** * 
 851:Generated_Source\PSoC6\pdl\drivers\peripheral\prot/cy_prot.c **** * This function configures the slave struct of a PPU GR pair, which can 
 852:Generated_Source\PSoC6\pdl\drivers\peripheral\prot/cy_prot.c **** * protect an entire peripheral MMIO group from invalid bus master accesses.
 853:Generated_Source\PSoC6\pdl\drivers\peripheral\prot/cy_prot.c **** * Refer to the device Technical Reference manual for details on peripheral
 854:Generated_Source\PSoC6\pdl\drivers\peripheral\prot/cy_prot.c **** * MMIO grouping and which peripherals belong to which groups.
 855:Generated_Source\PSoC6\pdl\drivers\peripheral\prot/cy_prot.c **** *
 856:Generated_Source\PSoC6\pdl\drivers\peripheral\prot/cy_prot.c **** * Each fixed PPU GR is devoted to a defined MMIO group. Hence the address, 
 857:Generated_Source\PSoC6\pdl\drivers\peripheral\prot/cy_prot.c **** * regionSize and subregions of the configuration struct are not applicable.
 858:Generated_Source\PSoC6\pdl\drivers\peripheral\prot/cy_prot.c **** *
 859:Generated_Source\PSoC6\pdl\drivers\peripheral\prot/cy_prot.c **** * Note that the user/privileged execute accesses are read-only and are always 
 860:Generated_Source\PSoC6\pdl\drivers\peripheral\prot/cy_prot.c **** * enabled. 
 861:Generated_Source\PSoC6\pdl\drivers\peripheral\prot/cy_prot.c **** *
 862:Generated_Source\PSoC6\pdl\drivers\peripheral\prot/cy_prot.c **** * \param base
 863:Generated_Source\PSoC6\pdl\drivers\peripheral\prot/cy_prot.c **** * The register base address of the protection structure being configured.
 864:Generated_Source\PSoC6\pdl\drivers\peripheral\prot/cy_prot.c **** * 
 865:Generated_Source\PSoC6\pdl\drivers\peripheral\prot/cy_prot.c **** * \param config
 866:Generated_Source\PSoC6\pdl\drivers\peripheral\prot/cy_prot.c **** * Initialization structure with all the protection attributes.
 867:Generated_Source\PSoC6\pdl\drivers\peripheral\prot/cy_prot.c **** * 
 868:Generated_Source\PSoC6\pdl\drivers\peripheral\prot/cy_prot.c **** * \return
 869:Generated_Source\PSoC6\pdl\drivers\peripheral\prot/cy_prot.c **** * Status of the function call.
 870:Generated_Source\PSoC6\pdl\drivers\peripheral\prot/cy_prot.c **** *
 871:Generated_Source\PSoC6\pdl\drivers\peripheral\prot/cy_prot.c **** *   Status               | Description
ARM GAS  C:\Users\kiwamu\AppData\Local\Temp\ccLfX6Zi.s 			page 37


 872:Generated_Source\PSoC6\pdl\drivers\peripheral\prot/cy_prot.c **** *   ------------         | -----------
 873:Generated_Source\PSoC6\pdl\drivers\peripheral\prot/cy_prot.c **** *   CY_PROT_SUCCESS      | PPU GR slave struct was successfully configured
 874:Generated_Source\PSoC6\pdl\drivers\peripheral\prot/cy_prot.c **** *   CY_PROT_FAILURE      | The resource is locked
 875:Generated_Source\PSoC6\pdl\drivers\peripheral\prot/cy_prot.c **** *   CY_PROT_BAD_PARAM    | An incorrect/invalid parameter was passed
 876:Generated_Source\PSoC6\pdl\drivers\peripheral\prot/cy_prot.c **** *  
 877:Generated_Source\PSoC6\pdl\drivers\peripheral\prot/cy_prot.c **** *******************************************************************************/
 878:Generated_Source\PSoC6\pdl\drivers\peripheral\prot/cy_prot.c **** cy_en_prot_status_t Cy_Prot_ConfigPpuFixedGrSlaveStruct(PERI_PPU_GR_Type* base, const cy_stc_ppu_gr
 879:Generated_Source\PSoC6\pdl\drivers\peripheral\prot/cy_prot.c **** {
 1161              		.loc 1 879 0
 1162              		.cfi_startproc
 1163              		@ args = 0, pretend = 0, frame = 0
 1164              		@ frame_needed = 0, uses_anonymous_args = 0
 1165              		@ link register save eliminated.
 1166              	.LVL129:
 1167 0000 10B4     		push	{r4}
 1168              		.cfi_def_cfa_offset 4
 1169              		.cfi_offset 4, -4
 1170              	.LVL130:
 880:Generated_Source\PSoC6\pdl\drivers\peripheral\prot/cy_prot.c ****     cy_en_prot_status_t status = CY_PROT_SUCCESS;
 881:Generated_Source\PSoC6\pdl\drivers\peripheral\prot/cy_prot.c ****     uint32_t attReg;
 882:Generated_Source\PSoC6\pdl\drivers\peripheral\prot/cy_prot.c ****     
 883:Generated_Source\PSoC6\pdl\drivers\peripheral\prot/cy_prot.c ****     if(((uint32_t)config->pcMask & CY_PROT_PPU_FIXED_PC_LIMIT_MASK) != 0UL) 
 1171              		.loc 1 883 0
 1172 0002 8C88     		ldrh	r4, [r1, #4]
 1173 0004 34F07F03 		bics	r3, r4, #127
 1174 0008 27D1     		bne	.L114
 884:Generated_Source\PSoC6\pdl\drivers\peripheral\prot/cy_prot.c ****     {
 885:Generated_Source\PSoC6\pdl\drivers\peripheral\prot/cy_prot.c ****         /* PC mask out of range - not supported in device */
 886:Generated_Source\PSoC6\pdl\drivers\peripheral\prot/cy_prot.c ****         status = CY_PROT_BAD_PARAM;
 887:Generated_Source\PSoC6\pdl\drivers\peripheral\prot/cy_prot.c ****     }
 888:Generated_Source\PSoC6\pdl\drivers\peripheral\prot/cy_prot.c ****     else
 889:Generated_Source\PSoC6\pdl\drivers\peripheral\prot/cy_prot.c ****     {
 890:Generated_Source\PSoC6\pdl\drivers\peripheral\prot/cy_prot.c ****         /* ADDR0 is read only. Only configure ATT0 */
 891:Generated_Source\PSoC6\pdl\drivers\peripheral\prot/cy_prot.c ****         attReg = (uint32_t)(((uint32_t)config->userPermission & CY_PROT_ATT_PERMISSION_MASK))
 1175              		.loc 1 891 0
 1176 000a 0B78     		ldrb	r3, [r1]	@ zero_extendqisi2
 1177 000c 03F00703 		and	r3, r3, #7
 892:Generated_Source\PSoC6\pdl\drivers\peripheral\prot/cy_prot.c ****                     | (uint32_t)(((uint32_t)config->privPermission & CY_PROT_ATT_PERMISSION_MASK) <
 1178              		.loc 1 892 0
 1179 0010 4A78     		ldrb	r2, [r1, #1]	@ zero_extendqisi2
 1180 0012 D200     		lsls	r2, r2, #3
 1181 0014 02F03802 		and	r2, r2, #56
 1182 0018 1343     		orrs	r3, r3, r2
 893:Generated_Source\PSoC6\pdl\drivers\peripheral\prot/cy_prot.c ****                     | _VAL2FLD(PERI_PPU_GR_ATT0_NS, !(config->secure))
 1183              		.loc 1 893 0
 1184 001a 8A78     		ldrb	r2, [r1, #2]	@ zero_extendqisi2
 1185 001c 82F00102 		eor	r2, r2, #1
 1186 0020 9201     		lsls	r2, r2, #6
 1187 0022 02F04002 		and	r2, r2, #64
 1188 0026 1343     		orrs	r3, r3, r2
 894:Generated_Source\PSoC6\pdl\drivers\peripheral\prot/cy_prot.c ****                     | _VAL2FLD(PERI_PPU_GR_ATT0_PC_MASK_15_TO_1, config->pcMask)
 1189              		.loc 1 894 0
 1190 0028 104A     		ldr	r2, .L118
 1191 002a 02EA4424 		and	r4, r2, r4, lsl #9
 1192 002e 2343     		orrs	r3, r3, r4
 895:Generated_Source\PSoC6\pdl\drivers\peripheral\prot/cy_prot.c ****                     /* No region size - read only */
 896:Generated_Source\PSoC6\pdl\drivers\peripheral\prot/cy_prot.c ****                     | _VAL2FLD(PERI_PPU_GR_ATT0_PC_MATCH, config->pcMatch);
ARM GAS  C:\Users\kiwamu\AppData\Local\Temp\ccLfX6Zi.s 			page 38


 1193              		.loc 1 896 0
 1194 0030 CA78     		ldrb	r2, [r1, #3]	@ zero_extendqisi2
 1195 0032 9207     		lsls	r2, r2, #30
 1196 0034 02F08042 		and	r2, r2, #1073741824
 891:Generated_Source\PSoC6\pdl\drivers\peripheral\prot/cy_prot.c ****                     | (uint32_t)(((uint32_t)config->privPermission & CY_PROT_ATT_PERMISSION_MASK) <
 1197              		.loc 1 891 0
 1198 0038 1343     		orrs	r3, r3, r2
 1199              	.LVL131:
 897:Generated_Source\PSoC6\pdl\drivers\peripheral\prot/cy_prot.c ****         if ((attReg & CY_PROT_PPU_GR_ATT0_MASK) != attReg)
 1200              		.loc 1 897 0
 1201 003a 23F03F42 		bic	r2, r3, #-1090519040
 1202 003e 22F4D272 		bic	r2, r2, #420
 1203 0042 9342     		cmp	r3, r2
 1204 0044 0BD1     		bne	.L115
 898:Generated_Source\PSoC6\pdl\drivers\peripheral\prot/cy_prot.c ****         {
 899:Generated_Source\PSoC6\pdl\drivers\peripheral\prot/cy_prot.c ****             /* Invalid parameter was passed */
 900:Generated_Source\PSoC6\pdl\drivers\peripheral\prot/cy_prot.c ****             status = CY_PROT_BAD_PARAM;
 901:Generated_Source\PSoC6\pdl\drivers\peripheral\prot/cy_prot.c ****         }
 902:Generated_Source\PSoC6\pdl\drivers\peripheral\prot/cy_prot.c ****         else
 903:Generated_Source\PSoC6\pdl\drivers\peripheral\prot/cy_prot.c ****         {
 904:Generated_Source\PSoC6\pdl\drivers\peripheral\prot/cy_prot.c ****             base->ATT0 = attReg;
 1205              		.loc 1 904 0
 1206 0046 4360     		str	r3, [r0, #4]
 905:Generated_Source\PSoC6\pdl\drivers\peripheral\prot/cy_prot.c ****             status = ((base->ATT0 & CY_PROT_PPU_GR_ATT0_MASK) != attReg) ? CY_PROT_FAILURE : CY_PRO
 1207              		.loc 1 905 0
 1208 0048 4268     		ldr	r2, [r0, #4]
 1209 004a 22F0F852 		bic	r2, r2, #520093696
 1210 004e 22F49272 		bic	r2, r2, #292
 1211 0052 9342     		cmp	r3, r2
 1212 0054 05D0     		beq	.L116
 1213 0056 0648     		ldr	r0, .L118+4
 1214              	.LVL132:
 1215 0058 04E0     		b	.L113
 1216              	.LVL133:
 1217              	.L114:
 886:Generated_Source\PSoC6\pdl\drivers\peripheral\prot/cy_prot.c ****     }
 1218              		.loc 1 886 0
 1219 005a 0648     		ldr	r0, .L118+8
 1220              	.LVL134:
 1221 005c 02E0     		b	.L113
 1222              	.LVL135:
 1223              	.L115:
 900:Generated_Source\PSoC6\pdl\drivers\peripheral\prot/cy_prot.c ****         }
 1224              		.loc 1 900 0
 1225 005e 0548     		ldr	r0, .L118+8
 1226              	.LVL136:
 1227 0060 00E0     		b	.L113
 1228              	.LVL137:
 1229              	.L116:
 1230              		.loc 1 905 0
 1231 0062 0020     		movs	r0, #0
 1232              	.LVL138:
 1233              	.L113:
 906:Generated_Source\PSoC6\pdl\drivers\peripheral\prot/cy_prot.c ****         }
 907:Generated_Source\PSoC6\pdl\drivers\peripheral\prot/cy_prot.c ****     }    
 908:Generated_Source\PSoC6\pdl\drivers\peripheral\prot/cy_prot.c ****     return status;
 909:Generated_Source\PSoC6\pdl\drivers\peripheral\prot/cy_prot.c **** }
ARM GAS  C:\Users\kiwamu\AppData\Local\Temp\ccLfX6Zi.s 			page 39


 1234              		.loc 1 909 0
 1235 0064 5DF8044B 		ldr	r4, [sp], #4
 1236              		.cfi_restore 4
 1237              		.cfi_def_cfa_offset 0
 1238 0068 7047     		bx	lr
 1239              	.L119:
 1240 006a 00BF     		.align	2
 1241              	.L118:
 1242 006c 00FEFF00 		.word	16776704
 1243 0070 0300C200 		.word	12713987
 1244 0074 0100C200 		.word	12713985
 1245              		.cfi_endproc
 1246              	.LFE142:
 1247              		.size	Cy_Prot_ConfigPpuFixedGrSlaveStruct, .-Cy_Prot_ConfigPpuFixedGrSlaveStruct
 1248              		.section	.text.Cy_Prot_EnablePpuFixedGrMasterStruct,"ax",%progbits
 1249              		.align	2
 1250              		.global	Cy_Prot_EnablePpuFixedGrMasterStruct
 1251              		.thumb
 1252              		.thumb_func
 1253              		.type	Cy_Prot_EnablePpuFixedGrMasterStruct, %function
 1254              	Cy_Prot_EnablePpuFixedGrMasterStruct:
 1255              	.LFB143:
 910:Generated_Source\PSoC6\pdl\drivers\peripheral\prot/cy_prot.c **** 
 911:Generated_Source\PSoC6\pdl\drivers\peripheral\prot/cy_prot.c **** 
 912:Generated_Source\PSoC6\pdl\drivers\peripheral\prot/cy_prot.c **** /*******************************************************************************
 913:Generated_Source\PSoC6\pdl\drivers\peripheral\prot/cy_prot.c **** * Function Name: Cy_Prot_EnablePpuFixedGrMasterStruct
 914:Generated_Source\PSoC6\pdl\drivers\peripheral\prot/cy_prot.c **** ****************************************************************************//**
 915:Generated_Source\PSoC6\pdl\drivers\peripheral\prot/cy_prot.c **** *
 916:Generated_Source\PSoC6\pdl\drivers\peripheral\prot/cy_prot.c **** * \brief Enables the Master PPU GR structure.
 917:Generated_Source\PSoC6\pdl\drivers\peripheral\prot/cy_prot.c **** *
 918:Generated_Source\PSoC6\pdl\drivers\peripheral\prot/cy_prot.c **** * This is a PPU GR master struct enable function. The PPU GR protection 
 919:Generated_Source\PSoC6\pdl\drivers\peripheral\prot/cy_prot.c **** * settings will take effect after successful completion of this function call.
 920:Generated_Source\PSoC6\pdl\drivers\peripheral\prot/cy_prot.c **** *
 921:Generated_Source\PSoC6\pdl\drivers\peripheral\prot/cy_prot.c **** * \param base
 922:Generated_Source\PSoC6\pdl\drivers\peripheral\prot/cy_prot.c **** * The base address for the protection unit structure being configured. 
 923:Generated_Source\PSoC6\pdl\drivers\peripheral\prot/cy_prot.c **** *
 924:Generated_Source\PSoC6\pdl\drivers\peripheral\prot/cy_prot.c **** * \return
 925:Generated_Source\PSoC6\pdl\drivers\peripheral\prot/cy_prot.c **** * Status of the function call.
 926:Generated_Source\PSoC6\pdl\drivers\peripheral\prot/cy_prot.c **** *
 927:Generated_Source\PSoC6\pdl\drivers\peripheral\prot/cy_prot.c **** *   Status               | Description
 928:Generated_Source\PSoC6\pdl\drivers\peripheral\prot/cy_prot.c **** *   ------------         | -----------
 929:Generated_Source\PSoC6\pdl\drivers\peripheral\prot/cy_prot.c **** *   CY_PROT_SUCCESS      | The Master PU struct was enabled
 930:Generated_Source\PSoC6\pdl\drivers\peripheral\prot/cy_prot.c **** *   CY_PROT_FAILURE      | The Master PU struct is disabled and possibly locked
 931:Generated_Source\PSoC6\pdl\drivers\peripheral\prot/cy_prot.c **** *  
 932:Generated_Source\PSoC6\pdl\drivers\peripheral\prot/cy_prot.c **** *******************************************************************************/
 933:Generated_Source\PSoC6\pdl\drivers\peripheral\prot/cy_prot.c **** cy_en_prot_status_t Cy_Prot_EnablePpuFixedGrMasterStruct(PERI_PPU_GR_Type* base)
 934:Generated_Source\PSoC6\pdl\drivers\peripheral\prot/cy_prot.c **** {
 1256              		.loc 1 934 0
 1257              		.cfi_startproc
 1258              		@ args = 0, pretend = 0, frame = 0
 1259              		@ frame_needed = 0, uses_anonymous_args = 0
 1260              		@ link register save eliminated.
 1261              	.LVL139:
 935:Generated_Source\PSoC6\pdl\drivers\peripheral\prot/cy_prot.c ****     cy_en_prot_status_t status = CY_PROT_SUCCESS;
 936:Generated_Source\PSoC6\pdl\drivers\peripheral\prot/cy_prot.c ****     
 937:Generated_Source\PSoC6\pdl\drivers\peripheral\prot/cy_prot.c ****     base->ATT1 |= _VAL2FLD(PERI_PPU_GR_ATT1_ENABLED, CY_PROT_STRUCT_ENABLE);
 1262              		.loc 1 937 0
ARM GAS  C:\Users\kiwamu\AppData\Local\Temp\ccLfX6Zi.s 			page 40


 1263 0000 436A     		ldr	r3, [r0, #36]
 1264 0002 43F00043 		orr	r3, r3, #-2147483648
 1265 0006 4362     		str	r3, [r0, #36]
 938:Generated_Source\PSoC6\pdl\drivers\peripheral\prot/cy_prot.c ****     status = (_FLD2VAL(PERI_PPU_GR_ATT1_ENABLED, base->ATT1) != CY_PROT_STRUCT_ENABLE) ?
 1266              		.loc 1 938 0
 1267 0008 436A     		ldr	r3, [r0, #36]
 1268 000a 002B     		cmp	r3, #0
 1269 000c 01DB     		blt	.L122
 1270 000e 0248     		ldr	r0, .L123
 1271              	.LVL140:
 1272 0010 7047     		bx	lr
 1273              	.LVL141:
 1274              	.L122:
 1275 0012 0020     		movs	r0, #0
 1276              	.LVL142:
 939:Generated_Source\PSoC6\pdl\drivers\peripheral\prot/cy_prot.c ****                 CY_PROT_FAILURE : CY_PROT_SUCCESS;
 940:Generated_Source\PSoC6\pdl\drivers\peripheral\prot/cy_prot.c ****     
 941:Generated_Source\PSoC6\pdl\drivers\peripheral\prot/cy_prot.c ****     return status;
 942:Generated_Source\PSoC6\pdl\drivers\peripheral\prot/cy_prot.c **** }
 1277              		.loc 1 942 0
 1278 0014 7047     		bx	lr
 1279              	.L124:
 1280 0016 00BF     		.align	2
 1281              	.L123:
 1282 0018 0300C200 		.word	12713987
 1283              		.cfi_endproc
 1284              	.LFE143:
 1285              		.size	Cy_Prot_EnablePpuFixedGrMasterStruct, .-Cy_Prot_EnablePpuFixedGrMasterStruct
 1286              		.section	.text.Cy_Prot_DisablePpuFixedGrMasterStruct,"ax",%progbits
 1287              		.align	2
 1288              		.global	Cy_Prot_DisablePpuFixedGrMasterStruct
 1289              		.thumb
 1290              		.thumb_func
 1291              		.type	Cy_Prot_DisablePpuFixedGrMasterStruct, %function
 1292              	Cy_Prot_DisablePpuFixedGrMasterStruct:
 1293              	.LFB144:
 943:Generated_Source\PSoC6\pdl\drivers\peripheral\prot/cy_prot.c **** 
 944:Generated_Source\PSoC6\pdl\drivers\peripheral\prot/cy_prot.c **** 
 945:Generated_Source\PSoC6\pdl\drivers\peripheral\prot/cy_prot.c **** /*******************************************************************************
 946:Generated_Source\PSoC6\pdl\drivers\peripheral\prot/cy_prot.c **** * Function Name: Cy_Prot_DisablePpuFixedGrMasterStruct
 947:Generated_Source\PSoC6\pdl\drivers\peripheral\prot/cy_prot.c **** ****************************************************************************//**
 948:Generated_Source\PSoC6\pdl\drivers\peripheral\prot/cy_prot.c **** *
 949:Generated_Source\PSoC6\pdl\drivers\peripheral\prot/cy_prot.c **** * \brief Disables the Master PPU GR structure.
 950:Generated_Source\PSoC6\pdl\drivers\peripheral\prot/cy_prot.c **** *
 951:Generated_Source\PSoC6\pdl\drivers\peripheral\prot/cy_prot.c **** * This is a PPU GR master struct disable function. The PPU GR protection 
 952:Generated_Source\PSoC6\pdl\drivers\peripheral\prot/cy_prot.c **** * settings will seize to take effect after successful completion of this 
 953:Generated_Source\PSoC6\pdl\drivers\peripheral\prot/cy_prot.c **** * function call.
 954:Generated_Source\PSoC6\pdl\drivers\peripheral\prot/cy_prot.c **** *
 955:Generated_Source\PSoC6\pdl\drivers\peripheral\prot/cy_prot.c **** * \param base
 956:Generated_Source\PSoC6\pdl\drivers\peripheral\prot/cy_prot.c **** * The base address for the protection unit structure being configured. 
 957:Generated_Source\PSoC6\pdl\drivers\peripheral\prot/cy_prot.c **** *
 958:Generated_Source\PSoC6\pdl\drivers\peripheral\prot/cy_prot.c **** * \return
 959:Generated_Source\PSoC6\pdl\drivers\peripheral\prot/cy_prot.c **** * Status of the function call.
 960:Generated_Source\PSoC6\pdl\drivers\peripheral\prot/cy_prot.c **** *
 961:Generated_Source\PSoC6\pdl\drivers\peripheral\prot/cy_prot.c **** *   Status               | Description
 962:Generated_Source\PSoC6\pdl\drivers\peripheral\prot/cy_prot.c **** *   ------------         | -----------
 963:Generated_Source\PSoC6\pdl\drivers\peripheral\prot/cy_prot.c **** *   CY_PROT_SUCCESS      | The Master PU struct was disabled
ARM GAS  C:\Users\kiwamu\AppData\Local\Temp\ccLfX6Zi.s 			page 41


 964:Generated_Source\PSoC6\pdl\drivers\peripheral\prot/cy_prot.c **** *   CY_PROT_FAILURE      | The Master PU struct is enabled and possibly locked
 965:Generated_Source\PSoC6\pdl\drivers\peripheral\prot/cy_prot.c **** *  
 966:Generated_Source\PSoC6\pdl\drivers\peripheral\prot/cy_prot.c **** *******************************************************************************/
 967:Generated_Source\PSoC6\pdl\drivers\peripheral\prot/cy_prot.c **** cy_en_prot_status_t Cy_Prot_DisablePpuFixedGrMasterStruct(PERI_PPU_GR_Type* base)
 968:Generated_Source\PSoC6\pdl\drivers\peripheral\prot/cy_prot.c **** {
 1294              		.loc 1 968 0
 1295              		.cfi_startproc
 1296              		@ args = 0, pretend = 0, frame = 0
 1297              		@ frame_needed = 0, uses_anonymous_args = 0
 1298              		@ link register save eliminated.
 1299              	.LVL143:
 969:Generated_Source\PSoC6\pdl\drivers\peripheral\prot/cy_prot.c ****     cy_en_prot_status_t status = CY_PROT_SUCCESS;
 970:Generated_Source\PSoC6\pdl\drivers\peripheral\prot/cy_prot.c ****     
 971:Generated_Source\PSoC6\pdl\drivers\peripheral\prot/cy_prot.c ****     base->ATT1 &= ~_VAL2FLD(PERI_PPU_GR_ATT1_ENABLED, CY_PROT_STRUCT_ENABLE);
 1300              		.loc 1 971 0
 1301 0000 436A     		ldr	r3, [r0, #36]
 1302 0002 23F00043 		bic	r3, r3, #-2147483648
 1303 0006 4362     		str	r3, [r0, #36]
 972:Generated_Source\PSoC6\pdl\drivers\peripheral\prot/cy_prot.c ****     status = (_FLD2VAL(PERI_PPU_GR_ATT1_ENABLED, base->ATT1) == CY_PROT_STRUCT_ENABLE) ?
 1304              		.loc 1 972 0
 1305 0008 436A     		ldr	r3, [r0, #36]
 1306 000a 002B     		cmp	r3, #0
 1307 000c 01DA     		bge	.L127
 1308 000e 0248     		ldr	r0, .L128
 1309              	.LVL144:
 1310 0010 7047     		bx	lr
 1311              	.LVL145:
 1312              	.L127:
 1313 0012 0020     		movs	r0, #0
 1314              	.LVL146:
 973:Generated_Source\PSoC6\pdl\drivers\peripheral\prot/cy_prot.c ****                 CY_PROT_FAILURE : CY_PROT_SUCCESS;
 974:Generated_Source\PSoC6\pdl\drivers\peripheral\prot/cy_prot.c ****     
 975:Generated_Source\PSoC6\pdl\drivers\peripheral\prot/cy_prot.c ****     return status;
 976:Generated_Source\PSoC6\pdl\drivers\peripheral\prot/cy_prot.c **** }
 1315              		.loc 1 976 0
 1316 0014 7047     		bx	lr
 1317              	.L129:
 1318 0016 00BF     		.align	2
 1319              	.L128:
 1320 0018 0300C200 		.word	12713987
 1321              		.cfi_endproc
 1322              	.LFE144:
 1323              		.size	Cy_Prot_DisablePpuFixedGrMasterStruct, .-Cy_Prot_DisablePpuFixedGrMasterStruct
 1324              		.section	.text.Cy_Prot_EnablePpuFixedGrSlaveStruct,"ax",%progbits
 1325              		.align	2
 1326              		.global	Cy_Prot_EnablePpuFixedGrSlaveStruct
 1327              		.thumb
 1328              		.thumb_func
 1329              		.type	Cy_Prot_EnablePpuFixedGrSlaveStruct, %function
 1330              	Cy_Prot_EnablePpuFixedGrSlaveStruct:
 1331              	.LFB145:
 977:Generated_Source\PSoC6\pdl\drivers\peripheral\prot/cy_prot.c **** 
 978:Generated_Source\PSoC6\pdl\drivers\peripheral\prot/cy_prot.c **** 
 979:Generated_Source\PSoC6\pdl\drivers\peripheral\prot/cy_prot.c **** /*******************************************************************************
 980:Generated_Source\PSoC6\pdl\drivers\peripheral\prot/cy_prot.c **** * Function Name: Cy_Prot_EnablePpuFixedGrSlaveStruct
 981:Generated_Source\PSoC6\pdl\drivers\peripheral\prot/cy_prot.c **** ****************************************************************************//**
 982:Generated_Source\PSoC6\pdl\drivers\peripheral\prot/cy_prot.c **** *
ARM GAS  C:\Users\kiwamu\AppData\Local\Temp\ccLfX6Zi.s 			page 42


 983:Generated_Source\PSoC6\pdl\drivers\peripheral\prot/cy_prot.c **** * \brief Enables the Slave PPU GR structure.
 984:Generated_Source\PSoC6\pdl\drivers\peripheral\prot/cy_prot.c **** *
 985:Generated_Source\PSoC6\pdl\drivers\peripheral\prot/cy_prot.c **** * This is a PPU GR slave struct enable function. The PPU GR protection 
 986:Generated_Source\PSoC6\pdl\drivers\peripheral\prot/cy_prot.c **** * settings will take effect after successful completion of this function call.
 987:Generated_Source\PSoC6\pdl\drivers\peripheral\prot/cy_prot.c **** *
 988:Generated_Source\PSoC6\pdl\drivers\peripheral\prot/cy_prot.c **** * \param base
 989:Generated_Source\PSoC6\pdl\drivers\peripheral\prot/cy_prot.c **** * The base address for the protection unit structure being configured. 
 990:Generated_Source\PSoC6\pdl\drivers\peripheral\prot/cy_prot.c **** *
 991:Generated_Source\PSoC6\pdl\drivers\peripheral\prot/cy_prot.c **** * \return
 992:Generated_Source\PSoC6\pdl\drivers\peripheral\prot/cy_prot.c **** * Status of the function call.
 993:Generated_Source\PSoC6\pdl\drivers\peripheral\prot/cy_prot.c **** *
 994:Generated_Source\PSoC6\pdl\drivers\peripheral\prot/cy_prot.c **** *   Status               | Description
 995:Generated_Source\PSoC6\pdl\drivers\peripheral\prot/cy_prot.c **** *   ------------         | -----------
 996:Generated_Source\PSoC6\pdl\drivers\peripheral\prot/cy_prot.c **** *   CY_PROT_SUCCESS      | The Slave PU struct was enabled
 997:Generated_Source\PSoC6\pdl\drivers\peripheral\prot/cy_prot.c **** *   CY_PROT_FAILURE      | The Slave PU struct is disabled and possibly locked
 998:Generated_Source\PSoC6\pdl\drivers\peripheral\prot/cy_prot.c **** *  
 999:Generated_Source\PSoC6\pdl\drivers\peripheral\prot/cy_prot.c **** *******************************************************************************/
1000:Generated_Source\PSoC6\pdl\drivers\peripheral\prot/cy_prot.c **** cy_en_prot_status_t Cy_Prot_EnablePpuFixedGrSlaveStruct(PERI_PPU_GR_Type* base)
1001:Generated_Source\PSoC6\pdl\drivers\peripheral\prot/cy_prot.c **** {   
 1332              		.loc 1 1001 0
 1333              		.cfi_startproc
 1334              		@ args = 0, pretend = 0, frame = 0
 1335              		@ frame_needed = 0, uses_anonymous_args = 0
 1336              		@ link register save eliminated.
 1337              	.LVL147:
1002:Generated_Source\PSoC6\pdl\drivers\peripheral\prot/cy_prot.c ****     cy_en_prot_status_t status = CY_PROT_SUCCESS;
1003:Generated_Source\PSoC6\pdl\drivers\peripheral\prot/cy_prot.c ****     
1004:Generated_Source\PSoC6\pdl\drivers\peripheral\prot/cy_prot.c ****     base->ATT0 |= _VAL2FLD(PERI_PPU_GR_ATT0_ENABLED, CY_PROT_STRUCT_ENABLE);
 1338              		.loc 1 1004 0
 1339 0000 4368     		ldr	r3, [r0, #4]
 1340 0002 43F00043 		orr	r3, r3, #-2147483648
 1341 0006 4360     		str	r3, [r0, #4]
1005:Generated_Source\PSoC6\pdl\drivers\peripheral\prot/cy_prot.c ****     status = (_FLD2VAL(PERI_PPU_GR_ATT0_ENABLED, base->ATT0) != CY_PROT_STRUCT_ENABLE) ?
 1342              		.loc 1 1005 0
 1343 0008 4368     		ldr	r3, [r0, #4]
 1344 000a 002B     		cmp	r3, #0
 1345 000c 01DB     		blt	.L132
 1346 000e 0248     		ldr	r0, .L133
 1347              	.LVL148:
 1348 0010 7047     		bx	lr
 1349              	.LVL149:
 1350              	.L132:
 1351 0012 0020     		movs	r0, #0
 1352              	.LVL150:
1006:Generated_Source\PSoC6\pdl\drivers\peripheral\prot/cy_prot.c ****                 CY_PROT_FAILURE : CY_PROT_SUCCESS;
1007:Generated_Source\PSoC6\pdl\drivers\peripheral\prot/cy_prot.c ****     
1008:Generated_Source\PSoC6\pdl\drivers\peripheral\prot/cy_prot.c ****     return status;
1009:Generated_Source\PSoC6\pdl\drivers\peripheral\prot/cy_prot.c **** }
 1353              		.loc 1 1009 0
 1354 0014 7047     		bx	lr
 1355              	.L134:
 1356 0016 00BF     		.align	2
 1357              	.L133:
 1358 0018 0300C200 		.word	12713987
 1359              		.cfi_endproc
 1360              	.LFE145:
 1361              		.size	Cy_Prot_EnablePpuFixedGrSlaveStruct, .-Cy_Prot_EnablePpuFixedGrSlaveStruct
ARM GAS  C:\Users\kiwamu\AppData\Local\Temp\ccLfX6Zi.s 			page 43


 1362              		.section	.text.Cy_Prot_DisablePpuFixedGrSlaveStruct,"ax",%progbits
 1363              		.align	2
 1364              		.global	Cy_Prot_DisablePpuFixedGrSlaveStruct
 1365              		.thumb
 1366              		.thumb_func
 1367              		.type	Cy_Prot_DisablePpuFixedGrSlaveStruct, %function
 1368              	Cy_Prot_DisablePpuFixedGrSlaveStruct:
 1369              	.LFB146:
1010:Generated_Source\PSoC6\pdl\drivers\peripheral\prot/cy_prot.c **** 
1011:Generated_Source\PSoC6\pdl\drivers\peripheral\prot/cy_prot.c **** 
1012:Generated_Source\PSoC6\pdl\drivers\peripheral\prot/cy_prot.c **** /*******************************************************************************
1013:Generated_Source\PSoC6\pdl\drivers\peripheral\prot/cy_prot.c **** * Function Name: Cy_Prot_DisablePpuFixedGrSlaveStruct
1014:Generated_Source\PSoC6\pdl\drivers\peripheral\prot/cy_prot.c **** ****************************************************************************//**
1015:Generated_Source\PSoC6\pdl\drivers\peripheral\prot/cy_prot.c **** *
1016:Generated_Source\PSoC6\pdl\drivers\peripheral\prot/cy_prot.c **** * \brief Disables the Slave PPU GR structure.
1017:Generated_Source\PSoC6\pdl\drivers\peripheral\prot/cy_prot.c **** *
1018:Generated_Source\PSoC6\pdl\drivers\peripheral\prot/cy_prot.c **** * This is a PPU GR slave struct disable function. The PPU GR protection 
1019:Generated_Source\PSoC6\pdl\drivers\peripheral\prot/cy_prot.c **** * settings will seize to take effect after successful completion of this 
1020:Generated_Source\PSoC6\pdl\drivers\peripheral\prot/cy_prot.c **** * function call.
1021:Generated_Source\PSoC6\pdl\drivers\peripheral\prot/cy_prot.c **** *
1022:Generated_Source\PSoC6\pdl\drivers\peripheral\prot/cy_prot.c **** * \param base
1023:Generated_Source\PSoC6\pdl\drivers\peripheral\prot/cy_prot.c **** * The base address for the protection unit structure being configured. 
1024:Generated_Source\PSoC6\pdl\drivers\peripheral\prot/cy_prot.c **** *
1025:Generated_Source\PSoC6\pdl\drivers\peripheral\prot/cy_prot.c **** * \return
1026:Generated_Source\PSoC6\pdl\drivers\peripheral\prot/cy_prot.c **** * Status of the function call.
1027:Generated_Source\PSoC6\pdl\drivers\peripheral\prot/cy_prot.c **** *
1028:Generated_Source\PSoC6\pdl\drivers\peripheral\prot/cy_prot.c **** *   Status               | Description
1029:Generated_Source\PSoC6\pdl\drivers\peripheral\prot/cy_prot.c **** *   ------------         | -----------
1030:Generated_Source\PSoC6\pdl\drivers\peripheral\prot/cy_prot.c **** *   CY_PROT_SUCCESS      | The Slave PU struct was disabled
1031:Generated_Source\PSoC6\pdl\drivers\peripheral\prot/cy_prot.c **** *   CY_PROT_FAILURE      | The Slave PU struct is enabled and possibly locked
1032:Generated_Source\PSoC6\pdl\drivers\peripheral\prot/cy_prot.c **** *  
1033:Generated_Source\PSoC6\pdl\drivers\peripheral\prot/cy_prot.c **** *******************************************************************************/
1034:Generated_Source\PSoC6\pdl\drivers\peripheral\prot/cy_prot.c **** cy_en_prot_status_t Cy_Prot_DisablePpuFixedGrSlaveStruct(PERI_PPU_GR_Type* base)
1035:Generated_Source\PSoC6\pdl\drivers\peripheral\prot/cy_prot.c **** {
 1370              		.loc 1 1035 0
 1371              		.cfi_startproc
 1372              		@ args = 0, pretend = 0, frame = 0
 1373              		@ frame_needed = 0, uses_anonymous_args = 0
 1374              		@ link register save eliminated.
 1375              	.LVL151:
1036:Generated_Source\PSoC6\pdl\drivers\peripheral\prot/cy_prot.c ****     cy_en_prot_status_t status = CY_PROT_SUCCESS;
1037:Generated_Source\PSoC6\pdl\drivers\peripheral\prot/cy_prot.c ****     
1038:Generated_Source\PSoC6\pdl\drivers\peripheral\prot/cy_prot.c ****     base->ATT0 &= ~_VAL2FLD(PERI_PPU_GR_ATT0_ENABLED, CY_PROT_STRUCT_ENABLE);
 1376              		.loc 1 1038 0
 1377 0000 4368     		ldr	r3, [r0, #4]
 1378 0002 23F00043 		bic	r3, r3, #-2147483648
 1379 0006 4360     		str	r3, [r0, #4]
1039:Generated_Source\PSoC6\pdl\drivers\peripheral\prot/cy_prot.c ****     status = (_FLD2VAL(PERI_PPU_GR_ATT0_ENABLED, base->ATT0) == CY_PROT_STRUCT_ENABLE) ?
 1380              		.loc 1 1039 0
 1381 0008 4368     		ldr	r3, [r0, #4]
 1382 000a 002B     		cmp	r3, #0
 1383 000c 01DA     		bge	.L137
 1384 000e 0248     		ldr	r0, .L138
 1385              	.LVL152:
 1386 0010 7047     		bx	lr
 1387              	.LVL153:
 1388              	.L137:
ARM GAS  C:\Users\kiwamu\AppData\Local\Temp\ccLfX6Zi.s 			page 44


 1389 0012 0020     		movs	r0, #0
 1390              	.LVL154:
1040:Generated_Source\PSoC6\pdl\drivers\peripheral\prot/cy_prot.c ****                 CY_PROT_FAILURE : CY_PROT_SUCCESS;
1041:Generated_Source\PSoC6\pdl\drivers\peripheral\prot/cy_prot.c ****     
1042:Generated_Source\PSoC6\pdl\drivers\peripheral\prot/cy_prot.c ****     return status;
1043:Generated_Source\PSoC6\pdl\drivers\peripheral\prot/cy_prot.c **** }
 1391              		.loc 1 1043 0
 1392 0014 7047     		bx	lr
 1393              	.L139:
 1394 0016 00BF     		.align	2
 1395              	.L138:
 1396 0018 0300C200 		.word	12713987
 1397              		.cfi_endproc
 1398              	.LFE146:
 1399              		.size	Cy_Prot_DisablePpuFixedGrSlaveStruct, .-Cy_Prot_DisablePpuFixedGrSlaveStruct
 1400              		.section	.text.Cy_Prot_ConfigPpuFixedSlMasterStruct,"ax",%progbits
 1401              		.align	2
 1402              		.global	Cy_Prot_ConfigPpuFixedSlMasterStruct
 1403              		.thumb
 1404              		.thumb_func
 1405              		.type	Cy_Prot_ConfigPpuFixedSlMasterStruct, %function
 1406              	Cy_Prot_ConfigPpuFixedSlMasterStruct:
 1407              	.LFB147:
1044:Generated_Source\PSoC6\pdl\drivers\peripheral\prot/cy_prot.c **** 
1045:Generated_Source\PSoC6\pdl\drivers\peripheral\prot/cy_prot.c **** 
1046:Generated_Source\PSoC6\pdl\drivers\peripheral\prot/cy_prot.c **** /*******************************************************************************
1047:Generated_Source\PSoC6\pdl\drivers\peripheral\prot/cy_prot.c **** * Function Name: Cy_Prot_ConfigPpuFixedSlMasterStruct
1048:Generated_Source\PSoC6\pdl\drivers\peripheral\prot/cy_prot.c **** ****************************************************************************//**
1049:Generated_Source\PSoC6\pdl\drivers\peripheral\prot/cy_prot.c **** *
1050:Generated_Source\PSoC6\pdl\drivers\peripheral\prot/cy_prot.c **** * \brief Configures a Fixed Peripheral Slave Protection Unit (PPU SL) master 
1051:Generated_Source\PSoC6\pdl\drivers\peripheral\prot/cy_prot.c **** * protection struct with its protection attributes. 
1052:Generated_Source\PSoC6\pdl\drivers\peripheral\prot/cy_prot.c **** *
1053:Generated_Source\PSoC6\pdl\drivers\peripheral\prot/cy_prot.c **** * This function configures the master struct governing the corresponding slave
1054:Generated_Source\PSoC6\pdl\drivers\peripheral\prot/cy_prot.c **** * struct pair. It is a mechanism to protect the slave PPU SL struct. Since
1055:Generated_Source\PSoC6\pdl\drivers\peripheral\prot/cy_prot.c **** * the memory location of the slave struct is known, the address, regionSize and
1056:Generated_Source\PSoC6\pdl\drivers\peripheral\prot/cy_prot.c **** * subregions of the configuration struct are not applicable.
1057:Generated_Source\PSoC6\pdl\drivers\peripheral\prot/cy_prot.c **** *
1058:Generated_Source\PSoC6\pdl\drivers\peripheral\prot/cy_prot.c **** * Note that only the user/privileged write permissions are configurable. The 
1059:Generated_Source\PSoC6\pdl\drivers\peripheral\prot/cy_prot.c **** * read and execute permissions are read-only and cannot be configured.
1060:Generated_Source\PSoC6\pdl\drivers\peripheral\prot/cy_prot.c **** *
1061:Generated_Source\PSoC6\pdl\drivers\peripheral\prot/cy_prot.c **** * \param base
1062:Generated_Source\PSoC6\pdl\drivers\peripheral\prot/cy_prot.c **** * The register base address of the protection struct being configured.
1063:Generated_Source\PSoC6\pdl\drivers\peripheral\prot/cy_prot.c **** * 
1064:Generated_Source\PSoC6\pdl\drivers\peripheral\prot/cy_prot.c **** * \param config
1065:Generated_Source\PSoC6\pdl\drivers\peripheral\prot/cy_prot.c **** * Initialization structure with all the protection attributes.
1066:Generated_Source\PSoC6\pdl\drivers\peripheral\prot/cy_prot.c **** * 
1067:Generated_Source\PSoC6\pdl\drivers\peripheral\prot/cy_prot.c **** * \return
1068:Generated_Source\PSoC6\pdl\drivers\peripheral\prot/cy_prot.c **** * Status of the function call.
1069:Generated_Source\PSoC6\pdl\drivers\peripheral\prot/cy_prot.c **** *
1070:Generated_Source\PSoC6\pdl\drivers\peripheral\prot/cy_prot.c **** *   Status               | Description
1071:Generated_Source\PSoC6\pdl\drivers\peripheral\prot/cy_prot.c **** *   ------------         | -----------
1072:Generated_Source\PSoC6\pdl\drivers\peripheral\prot/cy_prot.c **** *   CY_PROT_SUCCESS      | PPU SL master struct was successfully configured
1073:Generated_Source\PSoC6\pdl\drivers\peripheral\prot/cy_prot.c **** *   CY_PROT_FAILURE      | The resource is locked
1074:Generated_Source\PSoC6\pdl\drivers\peripheral\prot/cy_prot.c **** *   CY_PROT_BAD_PARAM    | An incorrect/invalid parameter was passed
1075:Generated_Source\PSoC6\pdl\drivers\peripheral\prot/cy_prot.c **** *  
1076:Generated_Source\PSoC6\pdl\drivers\peripheral\prot/cy_prot.c **** *******************************************************************************/
1077:Generated_Source\PSoC6\pdl\drivers\peripheral\prot/cy_prot.c **** cy_en_prot_status_t Cy_Prot_ConfigPpuFixedSlMasterStruct(PERI_GR_PPU_SL_Type* base, const cy_stc_pp
ARM GAS  C:\Users\kiwamu\AppData\Local\Temp\ccLfX6Zi.s 			page 45


1078:Generated_Source\PSoC6\pdl\drivers\peripheral\prot/cy_prot.c **** {
 1408              		.loc 1 1078 0
 1409              		.cfi_startproc
 1410              		@ args = 0, pretend = 0, frame = 0
 1411              		@ frame_needed = 0, uses_anonymous_args = 0
 1412              		@ link register save eliminated.
 1413              	.LVL155:
 1414 0000 10B4     		push	{r4}
 1415              		.cfi_def_cfa_offset 4
 1416              		.cfi_offset 4, -4
 1417              	.LVL156:
1079:Generated_Source\PSoC6\pdl\drivers\peripheral\prot/cy_prot.c ****     cy_en_prot_status_t status = CY_PROT_SUCCESS;
1080:Generated_Source\PSoC6\pdl\drivers\peripheral\prot/cy_prot.c ****     uint32_t attReg;
1081:Generated_Source\PSoC6\pdl\drivers\peripheral\prot/cy_prot.c ****     
1082:Generated_Source\PSoC6\pdl\drivers\peripheral\prot/cy_prot.c ****     if(((uint32_t)config->pcMask & CY_PROT_PPU_FIXED_PC_LIMIT_MASK) != 0UL) 
 1418              		.loc 1 1082 0
 1419 0002 8C88     		ldrh	r4, [r1, #4]
 1420 0004 34F07F03 		bics	r3, r4, #127
 1421 0008 23D1     		bne	.L142
1083:Generated_Source\PSoC6\pdl\drivers\peripheral\prot/cy_prot.c ****     {
1084:Generated_Source\PSoC6\pdl\drivers\peripheral\prot/cy_prot.c ****         /* PC mask out of range - not supported in device */
1085:Generated_Source\PSoC6\pdl\drivers\peripheral\prot/cy_prot.c ****         status = CY_PROT_BAD_PARAM;
1086:Generated_Source\PSoC6\pdl\drivers\peripheral\prot/cy_prot.c ****     }
1087:Generated_Source\PSoC6\pdl\drivers\peripheral\prot/cy_prot.c ****     else
1088:Generated_Source\PSoC6\pdl\drivers\peripheral\prot/cy_prot.c ****     {
1089:Generated_Source\PSoC6\pdl\drivers\peripheral\prot/cy_prot.c ****         /* ADDR1 is read only. Only configure ATT1 */
1090:Generated_Source\PSoC6\pdl\drivers\peripheral\prot/cy_prot.c ****         attReg = ((uint32_t)config->userPermission & CY_PROT_ATT_PERMISSION_MASK)
 1422              		.loc 1 1090 0
 1423 000a 0B78     		ldrb	r3, [r1]	@ zero_extendqisi2
 1424 000c 03F00703 		and	r3, r3, #7
1091:Generated_Source\PSoC6\pdl\drivers\peripheral\prot/cy_prot.c ****                     | (uint32_t)(((uint32_t)config->privPermission & CY_PROT_ATT_PERMISSION_MASK) <
 1425              		.loc 1 1091 0
 1426 0010 4A78     		ldrb	r2, [r1, #1]	@ zero_extendqisi2
 1427 0012 D200     		lsls	r2, r2, #3
 1428 0014 02F03802 		and	r2, r2, #56
 1429 0018 1343     		orrs	r3, r3, r2
1092:Generated_Source\PSoC6\pdl\drivers\peripheral\prot/cy_prot.c ****                     | _VAL2FLD(PERI_GR_PPU_SL_ATT1_NS, !(config->secure))
 1430              		.loc 1 1092 0
 1431 001a 8A78     		ldrb	r2, [r1, #2]	@ zero_extendqisi2
 1432 001c 82F00102 		eor	r2, r2, #1
 1433 0020 9201     		lsls	r2, r2, #6
 1434 0022 02F04002 		and	r2, r2, #64
 1435 0026 1343     		orrs	r3, r3, r2
1093:Generated_Source\PSoC6\pdl\drivers\peripheral\prot/cy_prot.c ****                     | _VAL2FLD(PERI_GR_PPU_SL_ATT1_PC_MASK_15_TO_1, config->pcMask)
 1436              		.loc 1 1093 0
 1437 0028 0E4A     		ldr	r2, .L146
 1438 002a 02EA4424 		and	r4, r2, r4, lsl #9
 1439 002e 2343     		orrs	r3, r3, r4
1094:Generated_Source\PSoC6\pdl\drivers\peripheral\prot/cy_prot.c ****                     /* No region size - read only for master structs */
1095:Generated_Source\PSoC6\pdl\drivers\peripheral\prot/cy_prot.c ****                     | _VAL2FLD(PERI_GR_PPU_SL_ATT1_PC_MATCH, config->pcMatch);
 1440              		.loc 1 1095 0
 1441 0030 CA78     		ldrb	r2, [r1, #3]	@ zero_extendqisi2
 1442 0032 9207     		lsls	r2, r2, #30
 1443 0034 02F08042 		and	r2, r2, #1073741824
1090:Generated_Source\PSoC6\pdl\drivers\peripheral\prot/cy_prot.c ****                     | (uint32_t)(((uint32_t)config->privPermission & CY_PROT_ATT_PERMISSION_MASK) <
 1444              		.loc 1 1090 0
 1445 0038 1343     		orrs	r3, r3, r2
ARM GAS  C:\Users\kiwamu\AppData\Local\Temp\ccLfX6Zi.s 			page 46


 1446              	.LVL157:
1096:Generated_Source\PSoC6\pdl\drivers\peripheral\prot/cy_prot.c ****         if ((attReg & CY_PROT_PPU_SL_ATT1_MASK) != attReg)
 1447              		.loc 1 1096 0
 1448 003a 0B4A     		ldr	r2, .L146+4
 1449 003c 1A40     		ands	r2, r2, r3
 1450 003e 9342     		cmp	r3, r2
 1451 0040 09D1     		bne	.L143
1097:Generated_Source\PSoC6\pdl\drivers\peripheral\prot/cy_prot.c ****         {
1098:Generated_Source\PSoC6\pdl\drivers\peripheral\prot/cy_prot.c ****             /* Invalid parameter was passed */
1099:Generated_Source\PSoC6\pdl\drivers\peripheral\prot/cy_prot.c ****             status = CY_PROT_BAD_PARAM;
1100:Generated_Source\PSoC6\pdl\drivers\peripheral\prot/cy_prot.c ****         }
1101:Generated_Source\PSoC6\pdl\drivers\peripheral\prot/cy_prot.c ****         else
1102:Generated_Source\PSoC6\pdl\drivers\peripheral\prot/cy_prot.c ****         {
1103:Generated_Source\PSoC6\pdl\drivers\peripheral\prot/cy_prot.c ****             base->ATT1 = attReg;
 1452              		.loc 1 1103 0
 1453 0042 4362     		str	r3, [r0, #36]
1104:Generated_Source\PSoC6\pdl\drivers\peripheral\prot/cy_prot.c ****             status = ((base->ATT1 & CY_PROT_PPU_SL_ATT1_MASK) != attReg) ? CY_PROT_FAILURE : CY_PRO
 1454              		.loc 1 1104 0
 1455 0044 416A     		ldr	r1, [r0, #36]
 1456              	.LVL158:
 1457 0046 094A     		ldr	r2, .L146+8
 1458 0048 0A40     		ands	r2, r2, r1
 1459 004a 9342     		cmp	r3, r2
 1460 004c 05D0     		beq	.L144
 1461 004e 0848     		ldr	r0, .L146+12
 1462              	.LVL159:
 1463 0050 04E0     		b	.L141
 1464              	.LVL160:
 1465              	.L142:
1085:Generated_Source\PSoC6\pdl\drivers\peripheral\prot/cy_prot.c ****     }
 1466              		.loc 1 1085 0
 1467 0052 0848     		ldr	r0, .L146+16
 1468              	.LVL161:
 1469 0054 02E0     		b	.L141
 1470              	.LVL162:
 1471              	.L143:
1099:Generated_Source\PSoC6\pdl\drivers\peripheral\prot/cy_prot.c ****         }
 1472              		.loc 1 1099 0
 1473 0056 0748     		ldr	r0, .L146+16
 1474              	.LVL163:
 1475 0058 00E0     		b	.L141
 1476              	.LVL164:
 1477              	.L144:
 1478              		.loc 1 1104 0
 1479 005a 0020     		movs	r0, #0
 1480              	.LVL165:
 1481              	.L141:
1105:Generated_Source\PSoC6\pdl\drivers\peripheral\prot/cy_prot.c ****         }
1106:Generated_Source\PSoC6\pdl\drivers\peripheral\prot/cy_prot.c ****     }
1107:Generated_Source\PSoC6\pdl\drivers\peripheral\prot/cy_prot.c ****     
1108:Generated_Source\PSoC6\pdl\drivers\peripheral\prot/cy_prot.c ****     return status;
1109:Generated_Source\PSoC6\pdl\drivers\peripheral\prot/cy_prot.c **** }
 1482              		.loc 1 1109 0
 1483 005c 5DF8044B 		ldr	r4, [sp], #4
 1484              		.cfi_restore 4
 1485              		.cfi_def_cfa_offset 0
 1486 0060 7047     		bx	lr
ARM GAS  C:\Users\kiwamu\AppData\Local\Temp\ccLfX6Zi.s 			page 47


 1487              	.L147:
 1488 0062 00BF     		.align	2
 1489              	.L146:
 1490 0064 00FEFF00 		.word	16776704
 1491 0068 52FEFF40 		.word	1090518610
 1492 006c D2FEFFE0 		.word	-520093998
 1493 0070 0300C200 		.word	12713987
 1494 0074 0100C200 		.word	12713985
 1495              		.cfi_endproc
 1496              	.LFE147:
 1497              		.size	Cy_Prot_ConfigPpuFixedSlMasterStruct, .-Cy_Prot_ConfigPpuFixedSlMasterStruct
 1498              		.section	.text.Cy_Prot_ConfigPpuFixedSlSlaveStruct,"ax",%progbits
 1499              		.align	2
 1500              		.global	Cy_Prot_ConfigPpuFixedSlSlaveStruct
 1501              		.thumb
 1502              		.thumb_func
 1503              		.type	Cy_Prot_ConfigPpuFixedSlSlaveStruct, %function
 1504              	Cy_Prot_ConfigPpuFixedSlSlaveStruct:
 1505              	.LFB148:
1110:Generated_Source\PSoC6\pdl\drivers\peripheral\prot/cy_prot.c **** 
1111:Generated_Source\PSoC6\pdl\drivers\peripheral\prot/cy_prot.c **** 
1112:Generated_Source\PSoC6\pdl\drivers\peripheral\prot/cy_prot.c **** /*******************************************************************************
1113:Generated_Source\PSoC6\pdl\drivers\peripheral\prot/cy_prot.c **** * Function Name: Cy_Prot_ConfigPpuFixedSlSlaveStruct
1114:Generated_Source\PSoC6\pdl\drivers\peripheral\prot/cy_prot.c **** ****************************************************************************//**
1115:Generated_Source\PSoC6\pdl\drivers\peripheral\prot/cy_prot.c **** *
1116:Generated_Source\PSoC6\pdl\drivers\peripheral\prot/cy_prot.c **** * \brief Configures a Fixed Peripheral Slave Protection Unit (PPU SL) slave
1117:Generated_Source\PSoC6\pdl\drivers\peripheral\prot/cy_prot.c **** * protection struct with its protection attributes. 
1118:Generated_Source\PSoC6\pdl\drivers\peripheral\prot/cy_prot.c **** * 
1119:Generated_Source\PSoC6\pdl\drivers\peripheral\prot/cy_prot.c **** * This function configures the slave struct of a PPU SL pair, which can 
1120:Generated_Source\PSoC6\pdl\drivers\peripheral\prot/cy_prot.c **** * protect an entire peripheral slave instance from invalid bus master accesses.
1121:Generated_Source\PSoC6\pdl\drivers\peripheral\prot/cy_prot.c **** * For example, TCPWM0, TCPWM1, SCB0 and SCB1 etc.
1122:Generated_Source\PSoC6\pdl\drivers\peripheral\prot/cy_prot.c **** *
1123:Generated_Source\PSoC6\pdl\drivers\peripheral\prot/cy_prot.c **** * Each fixed PPU SL is devoted to a defined peripheral slave. Hence the address, 
1124:Generated_Source\PSoC6\pdl\drivers\peripheral\prot/cy_prot.c **** * regionSize and subregions of the configuration struct are not applicable.
1125:Generated_Source\PSoC6\pdl\drivers\peripheral\prot/cy_prot.c **** *
1126:Generated_Source\PSoC6\pdl\drivers\peripheral\prot/cy_prot.c **** * Note that the user/privileged execute accesses are read-only and are always 
1127:Generated_Source\PSoC6\pdl\drivers\peripheral\prot/cy_prot.c **** * enabled. 
1128:Generated_Source\PSoC6\pdl\drivers\peripheral\prot/cy_prot.c **** *
1129:Generated_Source\PSoC6\pdl\drivers\peripheral\prot/cy_prot.c **** * \param base
1130:Generated_Source\PSoC6\pdl\drivers\peripheral\prot/cy_prot.c **** * The register base address of the protection structure being configured.
1131:Generated_Source\PSoC6\pdl\drivers\peripheral\prot/cy_prot.c **** * 
1132:Generated_Source\PSoC6\pdl\drivers\peripheral\prot/cy_prot.c **** * \param config
1133:Generated_Source\PSoC6\pdl\drivers\peripheral\prot/cy_prot.c **** * Initialization structure with all the protection attributes.
1134:Generated_Source\PSoC6\pdl\drivers\peripheral\prot/cy_prot.c **** * 
1135:Generated_Source\PSoC6\pdl\drivers\peripheral\prot/cy_prot.c **** * \return
1136:Generated_Source\PSoC6\pdl\drivers\peripheral\prot/cy_prot.c **** * Status of the function call.
1137:Generated_Source\PSoC6\pdl\drivers\peripheral\prot/cy_prot.c **** *
1138:Generated_Source\PSoC6\pdl\drivers\peripheral\prot/cy_prot.c **** *   Status               | Description
1139:Generated_Source\PSoC6\pdl\drivers\peripheral\prot/cy_prot.c **** *   ------------         | -----------
1140:Generated_Source\PSoC6\pdl\drivers\peripheral\prot/cy_prot.c **** *   CY_PROT_SUCCESS      | PPU SL slave struct was successfully configured
1141:Generated_Source\PSoC6\pdl\drivers\peripheral\prot/cy_prot.c **** *   CY_PROT_FAILURE      | The resource is locked
1142:Generated_Source\PSoC6\pdl\drivers\peripheral\prot/cy_prot.c **** *   CY_PROT_BAD_PARAM    | An incorrect/invalid parameter was passed
1143:Generated_Source\PSoC6\pdl\drivers\peripheral\prot/cy_prot.c **** *  
1144:Generated_Source\PSoC6\pdl\drivers\peripheral\prot/cy_prot.c **** *******************************************************************************/
1145:Generated_Source\PSoC6\pdl\drivers\peripheral\prot/cy_prot.c **** cy_en_prot_status_t Cy_Prot_ConfigPpuFixedSlSlaveStruct(PERI_GR_PPU_SL_Type* base, const cy_stc_ppu
1146:Generated_Source\PSoC6\pdl\drivers\peripheral\prot/cy_prot.c **** {
 1506              		.loc 1 1146 0
ARM GAS  C:\Users\kiwamu\AppData\Local\Temp\ccLfX6Zi.s 			page 48


 1507              		.cfi_startproc
 1508              		@ args = 0, pretend = 0, frame = 0
 1509              		@ frame_needed = 0, uses_anonymous_args = 0
 1510              		@ link register save eliminated.
 1511              	.LVL166:
 1512 0000 10B4     		push	{r4}
 1513              		.cfi_def_cfa_offset 4
 1514              		.cfi_offset 4, -4
 1515              	.LVL167:
1147:Generated_Source\PSoC6\pdl\drivers\peripheral\prot/cy_prot.c ****     cy_en_prot_status_t status = CY_PROT_SUCCESS;
1148:Generated_Source\PSoC6\pdl\drivers\peripheral\prot/cy_prot.c ****     uint32_t attReg;
1149:Generated_Source\PSoC6\pdl\drivers\peripheral\prot/cy_prot.c ****     
1150:Generated_Source\PSoC6\pdl\drivers\peripheral\prot/cy_prot.c ****     if(((uint32_t)config->pcMask & CY_PROT_PPU_FIXED_PC_LIMIT_MASK) != 0UL) 
 1516              		.loc 1 1150 0
 1517 0002 8C88     		ldrh	r4, [r1, #4]
 1518 0004 34F07F03 		bics	r3, r4, #127
 1519 0008 27D1     		bne	.L150
1151:Generated_Source\PSoC6\pdl\drivers\peripheral\prot/cy_prot.c ****     {
1152:Generated_Source\PSoC6\pdl\drivers\peripheral\prot/cy_prot.c ****         /* PC mask out of range - not supported in device */
1153:Generated_Source\PSoC6\pdl\drivers\peripheral\prot/cy_prot.c ****         status = CY_PROT_BAD_PARAM;
1154:Generated_Source\PSoC6\pdl\drivers\peripheral\prot/cy_prot.c ****     }
1155:Generated_Source\PSoC6\pdl\drivers\peripheral\prot/cy_prot.c ****     else
1156:Generated_Source\PSoC6\pdl\drivers\peripheral\prot/cy_prot.c ****     {
1157:Generated_Source\PSoC6\pdl\drivers\peripheral\prot/cy_prot.c ****         /* ADDR0 is read only. Only configure ATT0 */
1158:Generated_Source\PSoC6\pdl\drivers\peripheral\prot/cy_prot.c ****         attReg = ((uint32_t)config->userPermission & CY_PROT_ATT_PERMISSION_MASK)
 1520              		.loc 1 1158 0
 1521 000a 0B78     		ldrb	r3, [r1]	@ zero_extendqisi2
 1522 000c 03F00703 		and	r3, r3, #7
1159:Generated_Source\PSoC6\pdl\drivers\peripheral\prot/cy_prot.c ****                     | (uint32_t)(((uint32_t)config->privPermission & CY_PROT_ATT_PERMISSION_MASK) <
 1523              		.loc 1 1159 0
 1524 0010 4A78     		ldrb	r2, [r1, #1]	@ zero_extendqisi2
 1525 0012 D200     		lsls	r2, r2, #3
 1526 0014 02F03802 		and	r2, r2, #56
 1527 0018 1343     		orrs	r3, r3, r2
1160:Generated_Source\PSoC6\pdl\drivers\peripheral\prot/cy_prot.c ****                     | _VAL2FLD(PERI_GR_PPU_SL_ATT0_NS, !(config->secure))
 1528              		.loc 1 1160 0
 1529 001a 8A78     		ldrb	r2, [r1, #2]	@ zero_extendqisi2
 1530 001c 82F00102 		eor	r2, r2, #1
 1531 0020 9201     		lsls	r2, r2, #6
 1532 0022 02F04002 		and	r2, r2, #64
 1533 0026 1343     		orrs	r3, r3, r2
1161:Generated_Source\PSoC6\pdl\drivers\peripheral\prot/cy_prot.c ****                     | _VAL2FLD(PERI_GR_PPU_SL_ATT0_PC_MASK_15_TO_1, config->pcMask)
 1534              		.loc 1 1161 0
 1535 0028 104A     		ldr	r2, .L154
 1536 002a 02EA4424 		and	r4, r2, r4, lsl #9
 1537 002e 2343     		orrs	r3, r3, r4
1162:Generated_Source\PSoC6\pdl\drivers\peripheral\prot/cy_prot.c ****                     /* No region size - read only */
1163:Generated_Source\PSoC6\pdl\drivers\peripheral\prot/cy_prot.c ****                     | _VAL2FLD(PERI_GR_PPU_SL_ATT0_PC_MATCH, config->pcMatch);
 1538              		.loc 1 1163 0
 1539 0030 CA78     		ldrb	r2, [r1, #3]	@ zero_extendqisi2
 1540 0032 9207     		lsls	r2, r2, #30
 1541 0034 02F08042 		and	r2, r2, #1073741824
1158:Generated_Source\PSoC6\pdl\drivers\peripheral\prot/cy_prot.c ****                     | (uint32_t)(((uint32_t)config->privPermission & CY_PROT_ATT_PERMISSION_MASK) <
 1542              		.loc 1 1158 0
 1543 0038 1343     		orrs	r3, r3, r2
 1544              	.LVL168:
1164:Generated_Source\PSoC6\pdl\drivers\peripheral\prot/cy_prot.c ****         if ((attReg & CY_PROT_PPU_SL_ATT0_MASK) != attReg)
ARM GAS  C:\Users\kiwamu\AppData\Local\Temp\ccLfX6Zi.s 			page 49


 1545              		.loc 1 1164 0
 1546 003a 23F03F42 		bic	r2, r3, #-1090519040
 1547 003e 22F4D272 		bic	r2, r2, #420
 1548 0042 9342     		cmp	r3, r2
 1549 0044 0BD1     		bne	.L151
1165:Generated_Source\PSoC6\pdl\drivers\peripheral\prot/cy_prot.c ****         {
1166:Generated_Source\PSoC6\pdl\drivers\peripheral\prot/cy_prot.c ****             /* Invalid parameter was passed */
1167:Generated_Source\PSoC6\pdl\drivers\peripheral\prot/cy_prot.c ****             status = CY_PROT_BAD_PARAM;
1168:Generated_Source\PSoC6\pdl\drivers\peripheral\prot/cy_prot.c ****         }
1169:Generated_Source\PSoC6\pdl\drivers\peripheral\prot/cy_prot.c ****         else
1170:Generated_Source\PSoC6\pdl\drivers\peripheral\prot/cy_prot.c ****         {
1171:Generated_Source\PSoC6\pdl\drivers\peripheral\prot/cy_prot.c ****             base->ATT0 = attReg;
 1550              		.loc 1 1171 0
 1551 0046 4360     		str	r3, [r0, #4]
1172:Generated_Source\PSoC6\pdl\drivers\peripheral\prot/cy_prot.c ****             status = ((base->ATT0 & CY_PROT_PPU_SL_ATT0_MASK) != attReg) ? CY_PROT_FAILURE : CY_PRO
 1552              		.loc 1 1172 0
 1553 0048 4268     		ldr	r2, [r0, #4]
 1554 004a 22F0F852 		bic	r2, r2, #520093696
 1555 004e 22F49272 		bic	r2, r2, #292
 1556 0052 9342     		cmp	r3, r2
 1557 0054 05D0     		beq	.L152
 1558 0056 0648     		ldr	r0, .L154+4
 1559              	.LVL169:
 1560 0058 04E0     		b	.L149
 1561              	.LVL170:
 1562              	.L150:
1153:Generated_Source\PSoC6\pdl\drivers\peripheral\prot/cy_prot.c ****     }
 1563              		.loc 1 1153 0
 1564 005a 0648     		ldr	r0, .L154+8
 1565              	.LVL171:
 1566 005c 02E0     		b	.L149
 1567              	.LVL172:
 1568              	.L151:
1167:Generated_Source\PSoC6\pdl\drivers\peripheral\prot/cy_prot.c ****         }
 1569              		.loc 1 1167 0
 1570 005e 0548     		ldr	r0, .L154+8
 1571              	.LVL173:
 1572 0060 00E0     		b	.L149
 1573              	.LVL174:
 1574              	.L152:
 1575              		.loc 1 1172 0
 1576 0062 0020     		movs	r0, #0
 1577              	.LVL175:
 1578              	.L149:
1173:Generated_Source\PSoC6\pdl\drivers\peripheral\prot/cy_prot.c ****         }
1174:Generated_Source\PSoC6\pdl\drivers\peripheral\prot/cy_prot.c ****     }
1175:Generated_Source\PSoC6\pdl\drivers\peripheral\prot/cy_prot.c ****     
1176:Generated_Source\PSoC6\pdl\drivers\peripheral\prot/cy_prot.c ****     return status;
1177:Generated_Source\PSoC6\pdl\drivers\peripheral\prot/cy_prot.c **** }
 1579              		.loc 1 1177 0
 1580 0064 5DF8044B 		ldr	r4, [sp], #4
 1581              		.cfi_restore 4
 1582              		.cfi_def_cfa_offset 0
 1583 0068 7047     		bx	lr
 1584              	.L155:
 1585 006a 00BF     		.align	2
 1586              	.L154:
ARM GAS  C:\Users\kiwamu\AppData\Local\Temp\ccLfX6Zi.s 			page 50


 1587 006c 00FEFF00 		.word	16776704
 1588 0070 0300C200 		.word	12713987
 1589 0074 0100C200 		.word	12713985
 1590              		.cfi_endproc
 1591              	.LFE148:
 1592              		.size	Cy_Prot_ConfigPpuFixedSlSlaveStruct, .-Cy_Prot_ConfigPpuFixedSlSlaveStruct
 1593              		.section	.text.Cy_Prot_EnablePpuFixedSlMasterStruct,"ax",%progbits
 1594              		.align	2
 1595              		.global	Cy_Prot_EnablePpuFixedSlMasterStruct
 1596              		.thumb
 1597              		.thumb_func
 1598              		.type	Cy_Prot_EnablePpuFixedSlMasterStruct, %function
 1599              	Cy_Prot_EnablePpuFixedSlMasterStruct:
 1600              	.LFB149:
1178:Generated_Source\PSoC6\pdl\drivers\peripheral\prot/cy_prot.c **** 
1179:Generated_Source\PSoC6\pdl\drivers\peripheral\prot/cy_prot.c **** 
1180:Generated_Source\PSoC6\pdl\drivers\peripheral\prot/cy_prot.c **** /*******************************************************************************
1181:Generated_Source\PSoC6\pdl\drivers\peripheral\prot/cy_prot.c **** * Function Name: Cy_Prot_EnablePpuFixedSlMasterStruct
1182:Generated_Source\PSoC6\pdl\drivers\peripheral\prot/cy_prot.c **** ****************************************************************************//**
1183:Generated_Source\PSoC6\pdl\drivers\peripheral\prot/cy_prot.c **** *
1184:Generated_Source\PSoC6\pdl\drivers\peripheral\prot/cy_prot.c **** * \brief Enables the Master PPU SL structure.
1185:Generated_Source\PSoC6\pdl\drivers\peripheral\prot/cy_prot.c **** *
1186:Generated_Source\PSoC6\pdl\drivers\peripheral\prot/cy_prot.c **** * This is a PPU SL master struct enable function. The PPU SL protection 
1187:Generated_Source\PSoC6\pdl\drivers\peripheral\prot/cy_prot.c **** * settings will take effect after successful completion of this function call.
1188:Generated_Source\PSoC6\pdl\drivers\peripheral\prot/cy_prot.c **** *
1189:Generated_Source\PSoC6\pdl\drivers\peripheral\prot/cy_prot.c **** * \param base
1190:Generated_Source\PSoC6\pdl\drivers\peripheral\prot/cy_prot.c **** * The base address for the protection unit structure being configured. 
1191:Generated_Source\PSoC6\pdl\drivers\peripheral\prot/cy_prot.c **** *
1192:Generated_Source\PSoC6\pdl\drivers\peripheral\prot/cy_prot.c **** * \return
1193:Generated_Source\PSoC6\pdl\drivers\peripheral\prot/cy_prot.c **** * Status of the function call.
1194:Generated_Source\PSoC6\pdl\drivers\peripheral\prot/cy_prot.c **** *
1195:Generated_Source\PSoC6\pdl\drivers\peripheral\prot/cy_prot.c **** *   Status               | Description
1196:Generated_Source\PSoC6\pdl\drivers\peripheral\prot/cy_prot.c **** *   ------------         | -----------
1197:Generated_Source\PSoC6\pdl\drivers\peripheral\prot/cy_prot.c **** *   CY_PROT_SUCCESS      | The Master PU struct was enabled
1198:Generated_Source\PSoC6\pdl\drivers\peripheral\prot/cy_prot.c **** *   CY_PROT_FAILURE      | The Master PU struct is disabled and possibly locked
1199:Generated_Source\PSoC6\pdl\drivers\peripheral\prot/cy_prot.c **** *  
1200:Generated_Source\PSoC6\pdl\drivers\peripheral\prot/cy_prot.c **** *******************************************************************************/
1201:Generated_Source\PSoC6\pdl\drivers\peripheral\prot/cy_prot.c **** cy_en_prot_status_t Cy_Prot_EnablePpuFixedSlMasterStruct(PERI_GR_PPU_SL_Type* base)
1202:Generated_Source\PSoC6\pdl\drivers\peripheral\prot/cy_prot.c **** {
 1601              		.loc 1 1202 0
 1602              		.cfi_startproc
 1603              		@ args = 0, pretend = 0, frame = 0
 1604              		@ frame_needed = 0, uses_anonymous_args = 0
 1605              		@ link register save eliminated.
 1606              	.LVL176:
1203:Generated_Source\PSoC6\pdl\drivers\peripheral\prot/cy_prot.c ****     cy_en_prot_status_t status = CY_PROT_SUCCESS;
1204:Generated_Source\PSoC6\pdl\drivers\peripheral\prot/cy_prot.c ****     
1205:Generated_Source\PSoC6\pdl\drivers\peripheral\prot/cy_prot.c ****     base->ATT1 |= _VAL2FLD(PERI_GR_PPU_SL_ATT1_ENABLED, CY_PROT_STRUCT_ENABLE);
 1607              		.loc 1 1205 0
 1608 0000 436A     		ldr	r3, [r0, #36]
 1609 0002 43F00043 		orr	r3, r3, #-2147483648
 1610 0006 4362     		str	r3, [r0, #36]
1206:Generated_Source\PSoC6\pdl\drivers\peripheral\prot/cy_prot.c ****     status = (_FLD2VAL(PERI_GR_PPU_SL_ATT1_ENABLED, base->ATT1) != CY_PROT_STRUCT_ENABLE) ?
 1611              		.loc 1 1206 0
 1612 0008 436A     		ldr	r3, [r0, #36]
 1613 000a 002B     		cmp	r3, #0
 1614 000c 01DB     		blt	.L158
ARM GAS  C:\Users\kiwamu\AppData\Local\Temp\ccLfX6Zi.s 			page 51


 1615 000e 0248     		ldr	r0, .L159
 1616              	.LVL177:
 1617 0010 7047     		bx	lr
 1618              	.LVL178:
 1619              	.L158:
 1620 0012 0020     		movs	r0, #0
 1621              	.LVL179:
1207:Generated_Source\PSoC6\pdl\drivers\peripheral\prot/cy_prot.c ****                 CY_PROT_FAILURE : CY_PROT_SUCCESS;
1208:Generated_Source\PSoC6\pdl\drivers\peripheral\prot/cy_prot.c ****     
1209:Generated_Source\PSoC6\pdl\drivers\peripheral\prot/cy_prot.c ****     return status;
1210:Generated_Source\PSoC6\pdl\drivers\peripheral\prot/cy_prot.c **** }
 1622              		.loc 1 1210 0
 1623 0014 7047     		bx	lr
 1624              	.L160:
 1625 0016 00BF     		.align	2
 1626              	.L159:
 1627 0018 0300C200 		.word	12713987
 1628              		.cfi_endproc
 1629              	.LFE149:
 1630              		.size	Cy_Prot_EnablePpuFixedSlMasterStruct, .-Cy_Prot_EnablePpuFixedSlMasterStruct
 1631              		.section	.text.Cy_Prot_DisablePpuFixedSlMasterStruct,"ax",%progbits
 1632              		.align	2
 1633              		.global	Cy_Prot_DisablePpuFixedSlMasterStruct
 1634              		.thumb
 1635              		.thumb_func
 1636              		.type	Cy_Prot_DisablePpuFixedSlMasterStruct, %function
 1637              	Cy_Prot_DisablePpuFixedSlMasterStruct:
 1638              	.LFB150:
1211:Generated_Source\PSoC6\pdl\drivers\peripheral\prot/cy_prot.c **** 
1212:Generated_Source\PSoC6\pdl\drivers\peripheral\prot/cy_prot.c **** 
1213:Generated_Source\PSoC6\pdl\drivers\peripheral\prot/cy_prot.c **** /*******************************************************************************
1214:Generated_Source\PSoC6\pdl\drivers\peripheral\prot/cy_prot.c **** * Function Name: Cy_Prot_DisablePpuFixedSlMasterStruct
1215:Generated_Source\PSoC6\pdl\drivers\peripheral\prot/cy_prot.c **** ****************************************************************************//**
1216:Generated_Source\PSoC6\pdl\drivers\peripheral\prot/cy_prot.c **** *
1217:Generated_Source\PSoC6\pdl\drivers\peripheral\prot/cy_prot.c **** * \brief Disables the Master PPU SL structure.
1218:Generated_Source\PSoC6\pdl\drivers\peripheral\prot/cy_prot.c **** *
1219:Generated_Source\PSoC6\pdl\drivers\peripheral\prot/cy_prot.c **** * This is a PPU SL master struct disable function. The PPU SL protection 
1220:Generated_Source\PSoC6\pdl\drivers\peripheral\prot/cy_prot.c **** * settings will seize to take effect after successful completion of this 
1221:Generated_Source\PSoC6\pdl\drivers\peripheral\prot/cy_prot.c **** * function call.
1222:Generated_Source\PSoC6\pdl\drivers\peripheral\prot/cy_prot.c **** *
1223:Generated_Source\PSoC6\pdl\drivers\peripheral\prot/cy_prot.c **** * \param base
1224:Generated_Source\PSoC6\pdl\drivers\peripheral\prot/cy_prot.c **** * The base address for the protection unit structure being configured. 
1225:Generated_Source\PSoC6\pdl\drivers\peripheral\prot/cy_prot.c **** *
1226:Generated_Source\PSoC6\pdl\drivers\peripheral\prot/cy_prot.c **** * \return
1227:Generated_Source\PSoC6\pdl\drivers\peripheral\prot/cy_prot.c **** * Status of the function call.
1228:Generated_Source\PSoC6\pdl\drivers\peripheral\prot/cy_prot.c **** *
1229:Generated_Source\PSoC6\pdl\drivers\peripheral\prot/cy_prot.c **** *   Status               | Description
1230:Generated_Source\PSoC6\pdl\drivers\peripheral\prot/cy_prot.c **** *   ------------         | -----------
1231:Generated_Source\PSoC6\pdl\drivers\peripheral\prot/cy_prot.c **** *   CY_PROT_SUCCESS      | The Master PU struct was disabled
1232:Generated_Source\PSoC6\pdl\drivers\peripheral\prot/cy_prot.c **** *   CY_PROT_FAILURE      | The Master PU struct is enabled and possibly locked
1233:Generated_Source\PSoC6\pdl\drivers\peripheral\prot/cy_prot.c **** *  
1234:Generated_Source\PSoC6\pdl\drivers\peripheral\prot/cy_prot.c **** *******************************************************************************/
1235:Generated_Source\PSoC6\pdl\drivers\peripheral\prot/cy_prot.c **** cy_en_prot_status_t Cy_Prot_DisablePpuFixedSlMasterStruct(PERI_GR_PPU_SL_Type* base)
1236:Generated_Source\PSoC6\pdl\drivers\peripheral\prot/cy_prot.c **** {
 1639              		.loc 1 1236 0
 1640              		.cfi_startproc
 1641              		@ args = 0, pretend = 0, frame = 0
ARM GAS  C:\Users\kiwamu\AppData\Local\Temp\ccLfX6Zi.s 			page 52


 1642              		@ frame_needed = 0, uses_anonymous_args = 0
 1643              		@ link register save eliminated.
 1644              	.LVL180:
1237:Generated_Source\PSoC6\pdl\drivers\peripheral\prot/cy_prot.c ****     cy_en_prot_status_t status = CY_PROT_SUCCESS;
1238:Generated_Source\PSoC6\pdl\drivers\peripheral\prot/cy_prot.c ****     
1239:Generated_Source\PSoC6\pdl\drivers\peripheral\prot/cy_prot.c ****     base->ATT1 &= ~_VAL2FLD(PERI_GR_PPU_SL_ATT1_ENABLED, CY_PROT_STRUCT_ENABLE);
 1645              		.loc 1 1239 0
 1646 0000 436A     		ldr	r3, [r0, #36]
 1647 0002 23F00043 		bic	r3, r3, #-2147483648
 1648 0006 4362     		str	r3, [r0, #36]
1240:Generated_Source\PSoC6\pdl\drivers\peripheral\prot/cy_prot.c ****     status = (_FLD2VAL(PERI_GR_PPU_SL_ATT1_ENABLED, base->ATT1) == CY_PROT_STRUCT_ENABLE) ?
 1649              		.loc 1 1240 0
 1650 0008 436A     		ldr	r3, [r0, #36]
 1651 000a 002B     		cmp	r3, #0
 1652 000c 01DA     		bge	.L163
 1653 000e 0248     		ldr	r0, .L164
 1654              	.LVL181:
 1655 0010 7047     		bx	lr
 1656              	.LVL182:
 1657              	.L163:
 1658 0012 0020     		movs	r0, #0
 1659              	.LVL183:
1241:Generated_Source\PSoC6\pdl\drivers\peripheral\prot/cy_prot.c ****                 CY_PROT_FAILURE : CY_PROT_SUCCESS;
1242:Generated_Source\PSoC6\pdl\drivers\peripheral\prot/cy_prot.c ****     
1243:Generated_Source\PSoC6\pdl\drivers\peripheral\prot/cy_prot.c ****     return status;
1244:Generated_Source\PSoC6\pdl\drivers\peripheral\prot/cy_prot.c **** }
 1660              		.loc 1 1244 0
 1661 0014 7047     		bx	lr
 1662              	.L165:
 1663 0016 00BF     		.align	2
 1664              	.L164:
 1665 0018 0300C200 		.word	12713987
 1666              		.cfi_endproc
 1667              	.LFE150:
 1668              		.size	Cy_Prot_DisablePpuFixedSlMasterStruct, .-Cy_Prot_DisablePpuFixedSlMasterStruct
 1669              		.section	.text.Cy_Prot_EnablePpuFixedSlSlaveStruct,"ax",%progbits
 1670              		.align	2
 1671              		.global	Cy_Prot_EnablePpuFixedSlSlaveStruct
 1672              		.thumb
 1673              		.thumb_func
 1674              		.type	Cy_Prot_EnablePpuFixedSlSlaveStruct, %function
 1675              	Cy_Prot_EnablePpuFixedSlSlaveStruct:
 1676              	.LFB151:
1245:Generated_Source\PSoC6\pdl\drivers\peripheral\prot/cy_prot.c **** 
1246:Generated_Source\PSoC6\pdl\drivers\peripheral\prot/cy_prot.c **** 
1247:Generated_Source\PSoC6\pdl\drivers\peripheral\prot/cy_prot.c **** /*******************************************************************************
1248:Generated_Source\PSoC6\pdl\drivers\peripheral\prot/cy_prot.c **** * Function Name: Cy_Prot_EnablePpuFixedSlSlaveStruct
1249:Generated_Source\PSoC6\pdl\drivers\peripheral\prot/cy_prot.c **** ****************************************************************************//**
1250:Generated_Source\PSoC6\pdl\drivers\peripheral\prot/cy_prot.c **** *
1251:Generated_Source\PSoC6\pdl\drivers\peripheral\prot/cy_prot.c **** * \brief Enables the Slave PPU SL structure.
1252:Generated_Source\PSoC6\pdl\drivers\peripheral\prot/cy_prot.c **** *
1253:Generated_Source\PSoC6\pdl\drivers\peripheral\prot/cy_prot.c **** * This is a PPU SL slave struct enable function. The PPU SL protection 
1254:Generated_Source\PSoC6\pdl\drivers\peripheral\prot/cy_prot.c **** * settings will take effect after successful completion of this function call.
1255:Generated_Source\PSoC6\pdl\drivers\peripheral\prot/cy_prot.c **** *
1256:Generated_Source\PSoC6\pdl\drivers\peripheral\prot/cy_prot.c **** * \param base
1257:Generated_Source\PSoC6\pdl\drivers\peripheral\prot/cy_prot.c **** * The base address for the protection unit structure being configured. 
1258:Generated_Source\PSoC6\pdl\drivers\peripheral\prot/cy_prot.c **** *
ARM GAS  C:\Users\kiwamu\AppData\Local\Temp\ccLfX6Zi.s 			page 53


1259:Generated_Source\PSoC6\pdl\drivers\peripheral\prot/cy_prot.c **** * \return
1260:Generated_Source\PSoC6\pdl\drivers\peripheral\prot/cy_prot.c **** * Status of the function call.
1261:Generated_Source\PSoC6\pdl\drivers\peripheral\prot/cy_prot.c **** *
1262:Generated_Source\PSoC6\pdl\drivers\peripheral\prot/cy_prot.c **** *   Status               | Description
1263:Generated_Source\PSoC6\pdl\drivers\peripheral\prot/cy_prot.c **** *   ------------         | -----------
1264:Generated_Source\PSoC6\pdl\drivers\peripheral\prot/cy_prot.c **** *   CY_PROT_SUCCESS      | The Slave PU struct was enabled
1265:Generated_Source\PSoC6\pdl\drivers\peripheral\prot/cy_prot.c **** *   CY_PROT_FAILURE      | The Slave PU struct is disabled and possibly locked
1266:Generated_Source\PSoC6\pdl\drivers\peripheral\prot/cy_prot.c **** *  
1267:Generated_Source\PSoC6\pdl\drivers\peripheral\prot/cy_prot.c **** *******************************************************************************/
1268:Generated_Source\PSoC6\pdl\drivers\peripheral\prot/cy_prot.c **** cy_en_prot_status_t Cy_Prot_EnablePpuFixedSlSlaveStruct(PERI_GR_PPU_SL_Type* base)
1269:Generated_Source\PSoC6\pdl\drivers\peripheral\prot/cy_prot.c **** {   
 1677              		.loc 1 1269 0
 1678              		.cfi_startproc
 1679              		@ args = 0, pretend = 0, frame = 0
 1680              		@ frame_needed = 0, uses_anonymous_args = 0
 1681              		@ link register save eliminated.
 1682              	.LVL184:
1270:Generated_Source\PSoC6\pdl\drivers\peripheral\prot/cy_prot.c ****     cy_en_prot_status_t status = CY_PROT_SUCCESS;
1271:Generated_Source\PSoC6\pdl\drivers\peripheral\prot/cy_prot.c ****     
1272:Generated_Source\PSoC6\pdl\drivers\peripheral\prot/cy_prot.c ****     base->ATT0 |= _VAL2FLD(PERI_GR_PPU_SL_ATT0_ENABLED, CY_PROT_STRUCT_ENABLE);
 1683              		.loc 1 1272 0
 1684 0000 4368     		ldr	r3, [r0, #4]
 1685 0002 43F00043 		orr	r3, r3, #-2147483648
 1686 0006 4360     		str	r3, [r0, #4]
1273:Generated_Source\PSoC6\pdl\drivers\peripheral\prot/cy_prot.c ****     status = (_FLD2VAL(PERI_GR_PPU_SL_ATT0_ENABLED, base->ATT0) != CY_PROT_STRUCT_ENABLE) ?
 1687              		.loc 1 1273 0
 1688 0008 4368     		ldr	r3, [r0, #4]
 1689 000a 002B     		cmp	r3, #0
 1690 000c 01DB     		blt	.L168
 1691 000e 0248     		ldr	r0, .L169
 1692              	.LVL185:
 1693 0010 7047     		bx	lr
 1694              	.LVL186:
 1695              	.L168:
 1696 0012 0020     		movs	r0, #0
 1697              	.LVL187:
1274:Generated_Source\PSoC6\pdl\drivers\peripheral\prot/cy_prot.c ****                 CY_PROT_FAILURE : CY_PROT_SUCCESS;
1275:Generated_Source\PSoC6\pdl\drivers\peripheral\prot/cy_prot.c ****     
1276:Generated_Source\PSoC6\pdl\drivers\peripheral\prot/cy_prot.c ****     return status;
1277:Generated_Source\PSoC6\pdl\drivers\peripheral\prot/cy_prot.c **** }
 1698              		.loc 1 1277 0
 1699 0014 7047     		bx	lr
 1700              	.L170:
 1701 0016 00BF     		.align	2
 1702              	.L169:
 1703 0018 0300C200 		.word	12713987
 1704              		.cfi_endproc
 1705              	.LFE151:
 1706              		.size	Cy_Prot_EnablePpuFixedSlSlaveStruct, .-Cy_Prot_EnablePpuFixedSlSlaveStruct
 1707              		.section	.text.Cy_Prot_DisablePpuFixedSlSlaveStruct,"ax",%progbits
 1708              		.align	2
 1709              		.global	Cy_Prot_DisablePpuFixedSlSlaveStruct
 1710              		.thumb
 1711              		.thumb_func
 1712              		.type	Cy_Prot_DisablePpuFixedSlSlaveStruct, %function
 1713              	Cy_Prot_DisablePpuFixedSlSlaveStruct:
 1714              	.LFB152:
ARM GAS  C:\Users\kiwamu\AppData\Local\Temp\ccLfX6Zi.s 			page 54


1278:Generated_Source\PSoC6\pdl\drivers\peripheral\prot/cy_prot.c **** 
1279:Generated_Source\PSoC6\pdl\drivers\peripheral\prot/cy_prot.c **** 
1280:Generated_Source\PSoC6\pdl\drivers\peripheral\prot/cy_prot.c **** /*******************************************************************************
1281:Generated_Source\PSoC6\pdl\drivers\peripheral\prot/cy_prot.c **** * Function Name: Cy_Prot_DisablePpuFixedSlSlaveStruct
1282:Generated_Source\PSoC6\pdl\drivers\peripheral\prot/cy_prot.c **** ****************************************************************************//**
1283:Generated_Source\PSoC6\pdl\drivers\peripheral\prot/cy_prot.c **** *
1284:Generated_Source\PSoC6\pdl\drivers\peripheral\prot/cy_prot.c **** * \brief Disables the Slave PPU SL structure.
1285:Generated_Source\PSoC6\pdl\drivers\peripheral\prot/cy_prot.c **** *
1286:Generated_Source\PSoC6\pdl\drivers\peripheral\prot/cy_prot.c **** * This is a PPU SL slave struct disable function. The PPU SL protection 
1287:Generated_Source\PSoC6\pdl\drivers\peripheral\prot/cy_prot.c **** * settings will seize to take effect after successful completion of this 
1288:Generated_Source\PSoC6\pdl\drivers\peripheral\prot/cy_prot.c **** * function call.
1289:Generated_Source\PSoC6\pdl\drivers\peripheral\prot/cy_prot.c **** *
1290:Generated_Source\PSoC6\pdl\drivers\peripheral\prot/cy_prot.c **** * \param base
1291:Generated_Source\PSoC6\pdl\drivers\peripheral\prot/cy_prot.c **** * The base address for the protection unit structure being configured. 
1292:Generated_Source\PSoC6\pdl\drivers\peripheral\prot/cy_prot.c **** *
1293:Generated_Source\PSoC6\pdl\drivers\peripheral\prot/cy_prot.c **** * \return
1294:Generated_Source\PSoC6\pdl\drivers\peripheral\prot/cy_prot.c **** * Status of the function call.
1295:Generated_Source\PSoC6\pdl\drivers\peripheral\prot/cy_prot.c **** *
1296:Generated_Source\PSoC6\pdl\drivers\peripheral\prot/cy_prot.c **** *   Status               | Description
1297:Generated_Source\PSoC6\pdl\drivers\peripheral\prot/cy_prot.c **** *   ------------         | -----------
1298:Generated_Source\PSoC6\pdl\drivers\peripheral\prot/cy_prot.c **** *   CY_PROT_SUCCESS      | The Slave PU struct was disabled
1299:Generated_Source\PSoC6\pdl\drivers\peripheral\prot/cy_prot.c **** *   CY_PROT_FAILURE      | The Slave PU struct is enabled and possibly locked
1300:Generated_Source\PSoC6\pdl\drivers\peripheral\prot/cy_prot.c **** *  
1301:Generated_Source\PSoC6\pdl\drivers\peripheral\prot/cy_prot.c **** *******************************************************************************/
1302:Generated_Source\PSoC6\pdl\drivers\peripheral\prot/cy_prot.c **** cy_en_prot_status_t Cy_Prot_DisablePpuFixedSlSlaveStruct(PERI_GR_PPU_SL_Type* base)
1303:Generated_Source\PSoC6\pdl\drivers\peripheral\prot/cy_prot.c **** {
 1715              		.loc 1 1303 0
 1716              		.cfi_startproc
 1717              		@ args = 0, pretend = 0, frame = 0
 1718              		@ frame_needed = 0, uses_anonymous_args = 0
 1719              		@ link register save eliminated.
 1720              	.LVL188:
1304:Generated_Source\PSoC6\pdl\drivers\peripheral\prot/cy_prot.c ****     cy_en_prot_status_t status = CY_PROT_SUCCESS;
1305:Generated_Source\PSoC6\pdl\drivers\peripheral\prot/cy_prot.c ****     
1306:Generated_Source\PSoC6\pdl\drivers\peripheral\prot/cy_prot.c ****     base->ATT0 &= ~_VAL2FLD(PERI_GR_PPU_SL_ATT0_ENABLED, CY_PROT_STRUCT_ENABLE);
 1721              		.loc 1 1306 0
 1722 0000 4368     		ldr	r3, [r0, #4]
 1723 0002 23F00043 		bic	r3, r3, #-2147483648
 1724 0006 4360     		str	r3, [r0, #4]
1307:Generated_Source\PSoC6\pdl\drivers\peripheral\prot/cy_prot.c ****     status = (_FLD2VAL(PERI_GR_PPU_SL_ATT0_ENABLED, base->ATT0) == CY_PROT_STRUCT_ENABLE) ?
 1725              		.loc 1 1307 0
 1726 0008 4368     		ldr	r3, [r0, #4]
 1727 000a 002B     		cmp	r3, #0
 1728 000c 01DA     		bge	.L173
 1729 000e 0248     		ldr	r0, .L174
 1730              	.LVL189:
 1731 0010 7047     		bx	lr
 1732              	.LVL190:
 1733              	.L173:
 1734 0012 0020     		movs	r0, #0
 1735              	.LVL191:
1308:Generated_Source\PSoC6\pdl\drivers\peripheral\prot/cy_prot.c ****                 CY_PROT_FAILURE : CY_PROT_SUCCESS;
1309:Generated_Source\PSoC6\pdl\drivers\peripheral\prot/cy_prot.c ****     
1310:Generated_Source\PSoC6\pdl\drivers\peripheral\prot/cy_prot.c ****     return status;
1311:Generated_Source\PSoC6\pdl\drivers\peripheral\prot/cy_prot.c **** }
 1736              		.loc 1 1311 0
 1737 0014 7047     		bx	lr
ARM GAS  C:\Users\kiwamu\AppData\Local\Temp\ccLfX6Zi.s 			page 55


 1738              	.L175:
 1739 0016 00BF     		.align	2
 1740              	.L174:
 1741 0018 0300C200 		.word	12713987
 1742              		.cfi_endproc
 1743              	.LFE152:
 1744              		.size	Cy_Prot_DisablePpuFixedSlSlaveStruct, .-Cy_Prot_DisablePpuFixedSlSlaveStruct
 1745              		.section	.text.Cy_Prot_ConfigPpuFixedRgMasterStruct,"ax",%progbits
 1746              		.align	2
 1747              		.global	Cy_Prot_ConfigPpuFixedRgMasterStruct
 1748              		.thumb
 1749              		.thumb_func
 1750              		.type	Cy_Prot_ConfigPpuFixedRgMasterStruct, %function
 1751              	Cy_Prot_ConfigPpuFixedRgMasterStruct:
 1752              	.LFB153:
1312:Generated_Source\PSoC6\pdl\drivers\peripheral\prot/cy_prot.c **** 
1313:Generated_Source\PSoC6\pdl\drivers\peripheral\prot/cy_prot.c **** 
1314:Generated_Source\PSoC6\pdl\drivers\peripheral\prot/cy_prot.c **** /*******************************************************************************
1315:Generated_Source\PSoC6\pdl\drivers\peripheral\prot/cy_prot.c **** * Function Name: Cy_Prot_ConfigPpuFixedRgMasterStruct
1316:Generated_Source\PSoC6\pdl\drivers\peripheral\prot/cy_prot.c **** ****************************************************************************//**
1317:Generated_Source\PSoC6\pdl\drivers\peripheral\prot/cy_prot.c **** *
1318:Generated_Source\PSoC6\pdl\drivers\peripheral\prot/cy_prot.c **** * \brief Configures a Fixed Peripheral Region Protection Unit (PPU RG) master 
1319:Generated_Source\PSoC6\pdl\drivers\peripheral\prot/cy_prot.c **** * protection struct with its protection attributes. 
1320:Generated_Source\PSoC6\pdl\drivers\peripheral\prot/cy_prot.c **** *
1321:Generated_Source\PSoC6\pdl\drivers\peripheral\prot/cy_prot.c **** * This function configures the master struct governing the corresponding slave
1322:Generated_Source\PSoC6\pdl\drivers\peripheral\prot/cy_prot.c **** * struct pair. It is a mechanism to protect the slave PPU RG struct. Since
1323:Generated_Source\PSoC6\pdl\drivers\peripheral\prot/cy_prot.c **** * the memory location of the slave struct is known, the address, regionSize and
1324:Generated_Source\PSoC6\pdl\drivers\peripheral\prot/cy_prot.c **** * subregions of the configuration struct are not applicable.
1325:Generated_Source\PSoC6\pdl\drivers\peripheral\prot/cy_prot.c **** *
1326:Generated_Source\PSoC6\pdl\drivers\peripheral\prot/cy_prot.c **** * Note that only the user/privileged write permissions are configurable. The 
1327:Generated_Source\PSoC6\pdl\drivers\peripheral\prot/cy_prot.c **** * read and execute permissions are read-only and cannot be configured.
1328:Generated_Source\PSoC6\pdl\drivers\peripheral\prot/cy_prot.c **** *
1329:Generated_Source\PSoC6\pdl\drivers\peripheral\prot/cy_prot.c **** * \param base
1330:Generated_Source\PSoC6\pdl\drivers\peripheral\prot/cy_prot.c **** * The register base address of the protection struct being configured.
1331:Generated_Source\PSoC6\pdl\drivers\peripheral\prot/cy_prot.c **** * 
1332:Generated_Source\PSoC6\pdl\drivers\peripheral\prot/cy_prot.c **** * \param config
1333:Generated_Source\PSoC6\pdl\drivers\peripheral\prot/cy_prot.c **** * Initialization structure with all the protection attributes.
1334:Generated_Source\PSoC6\pdl\drivers\peripheral\prot/cy_prot.c **** * 
1335:Generated_Source\PSoC6\pdl\drivers\peripheral\prot/cy_prot.c **** * \return
1336:Generated_Source\PSoC6\pdl\drivers\peripheral\prot/cy_prot.c **** * Status of the function call.
1337:Generated_Source\PSoC6\pdl\drivers\peripheral\prot/cy_prot.c **** *
1338:Generated_Source\PSoC6\pdl\drivers\peripheral\prot/cy_prot.c **** *   Status               | Description
1339:Generated_Source\PSoC6\pdl\drivers\peripheral\prot/cy_prot.c **** *   ------------         | -----------
1340:Generated_Source\PSoC6\pdl\drivers\peripheral\prot/cy_prot.c **** *   CY_PROT_SUCCESS      | PPU RG master struct was successfully configured
1341:Generated_Source\PSoC6\pdl\drivers\peripheral\prot/cy_prot.c **** *   CY_PROT_FAILURE      | The resource is locked
1342:Generated_Source\PSoC6\pdl\drivers\peripheral\prot/cy_prot.c **** *   CY_PROT_BAD_PARAM    | An incorrect/invalid parameter was passed
1343:Generated_Source\PSoC6\pdl\drivers\peripheral\prot/cy_prot.c **** *  
1344:Generated_Source\PSoC6\pdl\drivers\peripheral\prot/cy_prot.c **** *******************************************************************************/
1345:Generated_Source\PSoC6\pdl\drivers\peripheral\prot/cy_prot.c **** cy_en_prot_status_t Cy_Prot_ConfigPpuFixedRgMasterStruct(PERI_GR_PPU_RG_Type* base, const cy_stc_pp
1346:Generated_Source\PSoC6\pdl\drivers\peripheral\prot/cy_prot.c **** {
 1753              		.loc 1 1346 0
 1754              		.cfi_startproc
 1755              		@ args = 0, pretend = 0, frame = 0
 1756              		@ frame_needed = 0, uses_anonymous_args = 0
 1757              		@ link register save eliminated.
 1758              	.LVL192:
 1759 0000 10B4     		push	{r4}
ARM GAS  C:\Users\kiwamu\AppData\Local\Temp\ccLfX6Zi.s 			page 56


 1760              		.cfi_def_cfa_offset 4
 1761              		.cfi_offset 4, -4
 1762              	.LVL193:
1347:Generated_Source\PSoC6\pdl\drivers\peripheral\prot/cy_prot.c ****     cy_en_prot_status_t status = CY_PROT_SUCCESS;
1348:Generated_Source\PSoC6\pdl\drivers\peripheral\prot/cy_prot.c ****     uint32_t attReg;
1349:Generated_Source\PSoC6\pdl\drivers\peripheral\prot/cy_prot.c ****     
1350:Generated_Source\PSoC6\pdl\drivers\peripheral\prot/cy_prot.c ****     if(((uint32_t)config->pcMask & CY_PROT_PPU_FIXED_PC_LIMIT_MASK) != 0UL) 
 1763              		.loc 1 1350 0
 1764 0002 8C88     		ldrh	r4, [r1, #4]
 1765 0004 34F07F03 		bics	r3, r4, #127
 1766 0008 23D1     		bne	.L178
1351:Generated_Source\PSoC6\pdl\drivers\peripheral\prot/cy_prot.c ****     {
1352:Generated_Source\PSoC6\pdl\drivers\peripheral\prot/cy_prot.c ****         /* PC mask out of range - not supported in device */
1353:Generated_Source\PSoC6\pdl\drivers\peripheral\prot/cy_prot.c ****         status = CY_PROT_BAD_PARAM;
1354:Generated_Source\PSoC6\pdl\drivers\peripheral\prot/cy_prot.c ****     }
1355:Generated_Source\PSoC6\pdl\drivers\peripheral\prot/cy_prot.c ****     else
1356:Generated_Source\PSoC6\pdl\drivers\peripheral\prot/cy_prot.c ****     {
1357:Generated_Source\PSoC6\pdl\drivers\peripheral\prot/cy_prot.c ****         /* ADDR1 is read only. Only configure ATT1 */
1358:Generated_Source\PSoC6\pdl\drivers\peripheral\prot/cy_prot.c ****         attReg = ((uint32_t)config->userPermission & CY_PROT_ATT_PERMISSION_MASK)
 1767              		.loc 1 1358 0
 1768 000a 0B78     		ldrb	r3, [r1]	@ zero_extendqisi2
 1769 000c 03F00703 		and	r3, r3, #7
1359:Generated_Source\PSoC6\pdl\drivers\peripheral\prot/cy_prot.c ****                     | (uint32_t)(((uint32_t)config->privPermission & CY_PROT_ATT_PERMISSION_MASK) <
 1770              		.loc 1 1359 0
 1771 0010 4A78     		ldrb	r2, [r1, #1]	@ zero_extendqisi2
 1772 0012 D200     		lsls	r2, r2, #3
 1773 0014 02F03802 		and	r2, r2, #56
 1774 0018 1343     		orrs	r3, r3, r2
1360:Generated_Source\PSoC6\pdl\drivers\peripheral\prot/cy_prot.c ****                     | _VAL2FLD(PERI_GR_PPU_RG_ATT1_NS, !(config->secure))
 1775              		.loc 1 1360 0
 1776 001a 8A78     		ldrb	r2, [r1, #2]	@ zero_extendqisi2
 1777 001c 82F00102 		eor	r2, r2, #1
 1778 0020 9201     		lsls	r2, r2, #6
 1779 0022 02F04002 		and	r2, r2, #64
 1780 0026 1343     		orrs	r3, r3, r2
1361:Generated_Source\PSoC6\pdl\drivers\peripheral\prot/cy_prot.c ****                     | _VAL2FLD(PERI_GR_PPU_RG_ATT1_PC_MASK_15_TO_1, config->pcMask)
 1781              		.loc 1 1361 0
 1782 0028 0E4A     		ldr	r2, .L182
 1783 002a 02EA4424 		and	r4, r2, r4, lsl #9
 1784 002e 2343     		orrs	r3, r3, r4
1362:Generated_Source\PSoC6\pdl\drivers\peripheral\prot/cy_prot.c ****                     /* No region size - read only for master structs */
1363:Generated_Source\PSoC6\pdl\drivers\peripheral\prot/cy_prot.c ****                     | _VAL2FLD(PERI_GR_PPU_RG_ATT1_PC_MATCH, config->pcMatch);
 1785              		.loc 1 1363 0
 1786 0030 CA78     		ldrb	r2, [r1, #3]	@ zero_extendqisi2
 1787 0032 9207     		lsls	r2, r2, #30
 1788 0034 02F08042 		and	r2, r2, #1073741824
1358:Generated_Source\PSoC6\pdl\drivers\peripheral\prot/cy_prot.c ****                     | (uint32_t)(((uint32_t)config->privPermission & CY_PROT_ATT_PERMISSION_MASK) <
 1789              		.loc 1 1358 0
 1790 0038 1343     		orrs	r3, r3, r2
 1791              	.LVL194:
1364:Generated_Source\PSoC6\pdl\drivers\peripheral\prot/cy_prot.c ****         if ((attReg & CY_PROT_PPU_RG_ATT1_MASK) != attReg)
 1792              		.loc 1 1364 0
 1793 003a 0B4A     		ldr	r2, .L182+4
 1794 003c 1A40     		ands	r2, r2, r3
 1795 003e 9342     		cmp	r3, r2
 1796 0040 09D1     		bne	.L179
1365:Generated_Source\PSoC6\pdl\drivers\peripheral\prot/cy_prot.c ****         {
ARM GAS  C:\Users\kiwamu\AppData\Local\Temp\ccLfX6Zi.s 			page 57


1366:Generated_Source\PSoC6\pdl\drivers\peripheral\prot/cy_prot.c ****             /* Invalid parameter was passed */
1367:Generated_Source\PSoC6\pdl\drivers\peripheral\prot/cy_prot.c ****             status = CY_PROT_BAD_PARAM;
1368:Generated_Source\PSoC6\pdl\drivers\peripheral\prot/cy_prot.c ****         }
1369:Generated_Source\PSoC6\pdl\drivers\peripheral\prot/cy_prot.c ****         else
1370:Generated_Source\PSoC6\pdl\drivers\peripheral\prot/cy_prot.c ****         {
1371:Generated_Source\PSoC6\pdl\drivers\peripheral\prot/cy_prot.c ****             base->ATT1 = attReg;
 1797              		.loc 1 1371 0
 1798 0042 4362     		str	r3, [r0, #36]
1372:Generated_Source\PSoC6\pdl\drivers\peripheral\prot/cy_prot.c ****             status = ((base->ATT1 & CY_PROT_PPU_RG_ATT1_MASK) != attReg) ? CY_PROT_FAILURE : CY_PRO
 1799              		.loc 1 1372 0
 1800 0044 416A     		ldr	r1, [r0, #36]
 1801              	.LVL195:
 1802 0046 094A     		ldr	r2, .L182+8
 1803 0048 0A40     		ands	r2, r2, r1
 1804 004a 9342     		cmp	r3, r2
 1805 004c 05D0     		beq	.L180
 1806 004e 0848     		ldr	r0, .L182+12
 1807              	.LVL196:
 1808 0050 04E0     		b	.L177
 1809              	.LVL197:
 1810              	.L178:
1353:Generated_Source\PSoC6\pdl\drivers\peripheral\prot/cy_prot.c ****     }
 1811              		.loc 1 1353 0
 1812 0052 0848     		ldr	r0, .L182+16
 1813              	.LVL198:
 1814 0054 02E0     		b	.L177
 1815              	.LVL199:
 1816              	.L179:
1367:Generated_Source\PSoC6\pdl\drivers\peripheral\prot/cy_prot.c ****         }
 1817              		.loc 1 1367 0
 1818 0056 0748     		ldr	r0, .L182+16
 1819              	.LVL200:
 1820 0058 00E0     		b	.L177
 1821              	.LVL201:
 1822              	.L180:
 1823              		.loc 1 1372 0
 1824 005a 0020     		movs	r0, #0
 1825              	.LVL202:
 1826              	.L177:
1373:Generated_Source\PSoC6\pdl\drivers\peripheral\prot/cy_prot.c ****         }
1374:Generated_Source\PSoC6\pdl\drivers\peripheral\prot/cy_prot.c ****     }
1375:Generated_Source\PSoC6\pdl\drivers\peripheral\prot/cy_prot.c ****     
1376:Generated_Source\PSoC6\pdl\drivers\peripheral\prot/cy_prot.c ****     return status;
1377:Generated_Source\PSoC6\pdl\drivers\peripheral\prot/cy_prot.c **** }
 1827              		.loc 1 1377 0
 1828 005c 5DF8044B 		ldr	r4, [sp], #4
 1829              		.cfi_restore 4
 1830              		.cfi_def_cfa_offset 0
 1831 0060 7047     		bx	lr
 1832              	.L183:
 1833 0062 00BF     		.align	2
 1834              	.L182:
 1835 0064 00FEFF00 		.word	16776704
 1836 0068 52FEFF40 		.word	1090518610
 1837 006c D2FEFFE0 		.word	-520093998
 1838 0070 0300C200 		.word	12713987
 1839 0074 0100C200 		.word	12713985
ARM GAS  C:\Users\kiwamu\AppData\Local\Temp\ccLfX6Zi.s 			page 58


 1840              		.cfi_endproc
 1841              	.LFE153:
 1842              		.size	Cy_Prot_ConfigPpuFixedRgMasterStruct, .-Cy_Prot_ConfigPpuFixedRgMasterStruct
 1843              		.section	.text.Cy_Prot_ConfigPpuFixedRgSlaveStruct,"ax",%progbits
 1844              		.align	2
 1845              		.global	Cy_Prot_ConfigPpuFixedRgSlaveStruct
 1846              		.thumb
 1847              		.thumb_func
 1848              		.type	Cy_Prot_ConfigPpuFixedRgSlaveStruct, %function
 1849              	Cy_Prot_ConfigPpuFixedRgSlaveStruct:
 1850              	.LFB154:
1378:Generated_Source\PSoC6\pdl\drivers\peripheral\prot/cy_prot.c **** 
1379:Generated_Source\PSoC6\pdl\drivers\peripheral\prot/cy_prot.c **** 
1380:Generated_Source\PSoC6\pdl\drivers\peripheral\prot/cy_prot.c **** /*******************************************************************************
1381:Generated_Source\PSoC6\pdl\drivers\peripheral\prot/cy_prot.c **** * Function Name: Cy_Prot_ConfigPpuFixedRgSlaveStruct
1382:Generated_Source\PSoC6\pdl\drivers\peripheral\prot/cy_prot.c **** ****************************************************************************//**
1383:Generated_Source\PSoC6\pdl\drivers\peripheral\prot/cy_prot.c **** *
1384:Generated_Source\PSoC6\pdl\drivers\peripheral\prot/cy_prot.c **** * \brief Configures a Fixed Peripheral Region Protection Unit (PPU RG) slave
1385:Generated_Source\PSoC6\pdl\drivers\peripheral\prot/cy_prot.c **** * protection struct with its protection attributes. 
1386:Generated_Source\PSoC6\pdl\drivers\peripheral\prot/cy_prot.c **** * 
1387:Generated_Source\PSoC6\pdl\drivers\peripheral\prot/cy_prot.c **** * This function configures the slave struct of a PPU RG pair, which can 
1388:Generated_Source\PSoC6\pdl\drivers\peripheral\prot/cy_prot.c **** * protect specified regions of peripheral instances. For example, individual
1389:Generated_Source\PSoC6\pdl\drivers\peripheral\prot/cy_prot.c **** * DW channel structs, SMPU structs, and IPC structs etc.
1390:Generated_Source\PSoC6\pdl\drivers\peripheral\prot/cy_prot.c **** *
1391:Generated_Source\PSoC6\pdl\drivers\peripheral\prot/cy_prot.c **** * Each fixed PPU RG is devoted to a defined peripheral region. Hence the address, 
1392:Generated_Source\PSoC6\pdl\drivers\peripheral\prot/cy_prot.c **** * regionSize and subregions of the configuration struct are not applicable.
1393:Generated_Source\PSoC6\pdl\drivers\peripheral\prot/cy_prot.c **** *
1394:Generated_Source\PSoC6\pdl\drivers\peripheral\prot/cy_prot.c **** * Note that the user/privileged execute accesses are read-only and are always 
1395:Generated_Source\PSoC6\pdl\drivers\peripheral\prot/cy_prot.c **** * enabled. 
1396:Generated_Source\PSoC6\pdl\drivers\peripheral\prot/cy_prot.c **** *
1397:Generated_Source\PSoC6\pdl\drivers\peripheral\prot/cy_prot.c **** * \param base
1398:Generated_Source\PSoC6\pdl\drivers\peripheral\prot/cy_prot.c **** * The register base address of the protection structure being configured.
1399:Generated_Source\PSoC6\pdl\drivers\peripheral\prot/cy_prot.c **** * 
1400:Generated_Source\PSoC6\pdl\drivers\peripheral\prot/cy_prot.c **** * \param config
1401:Generated_Source\PSoC6\pdl\drivers\peripheral\prot/cy_prot.c **** * Initialization structure with all the protection attributes.
1402:Generated_Source\PSoC6\pdl\drivers\peripheral\prot/cy_prot.c **** * 
1403:Generated_Source\PSoC6\pdl\drivers\peripheral\prot/cy_prot.c **** * \return
1404:Generated_Source\PSoC6\pdl\drivers\peripheral\prot/cy_prot.c **** * Status of the function call.
1405:Generated_Source\PSoC6\pdl\drivers\peripheral\prot/cy_prot.c **** *
1406:Generated_Source\PSoC6\pdl\drivers\peripheral\prot/cy_prot.c **** *   Status               | Description
1407:Generated_Source\PSoC6\pdl\drivers\peripheral\prot/cy_prot.c **** *   ------------         | -----------
1408:Generated_Source\PSoC6\pdl\drivers\peripheral\prot/cy_prot.c **** *   CY_PROT_SUCCESS      | PPU RG slave struct was successfully configured
1409:Generated_Source\PSoC6\pdl\drivers\peripheral\prot/cy_prot.c **** *   CY_PROT_FAILURE      | The resource is locked
1410:Generated_Source\PSoC6\pdl\drivers\peripheral\prot/cy_prot.c **** *   CY_PROT_BAD_PARAM    | An incorrect/invalid parameter was passed
1411:Generated_Source\PSoC6\pdl\drivers\peripheral\prot/cy_prot.c **** *  
1412:Generated_Source\PSoC6\pdl\drivers\peripheral\prot/cy_prot.c **** *******************************************************************************/
1413:Generated_Source\PSoC6\pdl\drivers\peripheral\prot/cy_prot.c **** cy_en_prot_status_t Cy_Prot_ConfigPpuFixedRgSlaveStruct(PERI_GR_PPU_RG_Type* base, const cy_stc_ppu
1414:Generated_Source\PSoC6\pdl\drivers\peripheral\prot/cy_prot.c **** {
 1851              		.loc 1 1414 0
 1852              		.cfi_startproc
 1853              		@ args = 0, pretend = 0, frame = 0
 1854              		@ frame_needed = 0, uses_anonymous_args = 0
 1855              		@ link register save eliminated.
 1856              	.LVL203:
 1857 0000 10B4     		push	{r4}
 1858              		.cfi_def_cfa_offset 4
 1859              		.cfi_offset 4, -4
ARM GAS  C:\Users\kiwamu\AppData\Local\Temp\ccLfX6Zi.s 			page 59


 1860              	.LVL204:
1415:Generated_Source\PSoC6\pdl\drivers\peripheral\prot/cy_prot.c ****     cy_en_prot_status_t status = CY_PROT_SUCCESS;
1416:Generated_Source\PSoC6\pdl\drivers\peripheral\prot/cy_prot.c ****     uint32_t attReg;
1417:Generated_Source\PSoC6\pdl\drivers\peripheral\prot/cy_prot.c ****     
1418:Generated_Source\PSoC6\pdl\drivers\peripheral\prot/cy_prot.c ****     if(((uint32_t)config->pcMask & CY_PROT_PPU_FIXED_PC_LIMIT_MASK) != 0UL) 
 1861              		.loc 1 1418 0
 1862 0002 8C88     		ldrh	r4, [r1, #4]
 1863 0004 34F07F03 		bics	r3, r4, #127
 1864 0008 27D1     		bne	.L186
1419:Generated_Source\PSoC6\pdl\drivers\peripheral\prot/cy_prot.c ****     {
1420:Generated_Source\PSoC6\pdl\drivers\peripheral\prot/cy_prot.c ****         /* PC mask out of range - not supported in device */
1421:Generated_Source\PSoC6\pdl\drivers\peripheral\prot/cy_prot.c ****         status = CY_PROT_BAD_PARAM;
1422:Generated_Source\PSoC6\pdl\drivers\peripheral\prot/cy_prot.c ****     }
1423:Generated_Source\PSoC6\pdl\drivers\peripheral\prot/cy_prot.c ****     else
1424:Generated_Source\PSoC6\pdl\drivers\peripheral\prot/cy_prot.c ****     {
1425:Generated_Source\PSoC6\pdl\drivers\peripheral\prot/cy_prot.c ****         /* ADDR0 is read only. Only configure ATT0 */
1426:Generated_Source\PSoC6\pdl\drivers\peripheral\prot/cy_prot.c ****         attReg = ((uint32_t)config->userPermission & CY_PROT_ATT_PERMISSION_MASK)
 1865              		.loc 1 1426 0
 1866 000a 0B78     		ldrb	r3, [r1]	@ zero_extendqisi2
 1867 000c 03F00703 		and	r3, r3, #7
1427:Generated_Source\PSoC6\pdl\drivers\peripheral\prot/cy_prot.c ****                     | (uint32_t)(((uint32_t)config->privPermission & CY_PROT_ATT_PERMISSION_MASK) <
 1868              		.loc 1 1427 0
 1869 0010 4A78     		ldrb	r2, [r1, #1]	@ zero_extendqisi2
 1870 0012 D200     		lsls	r2, r2, #3
 1871 0014 02F03802 		and	r2, r2, #56
 1872 0018 1343     		orrs	r3, r3, r2
1428:Generated_Source\PSoC6\pdl\drivers\peripheral\prot/cy_prot.c ****                     | _VAL2FLD(PERI_GR_PPU_RG_ATT0_NS, !(config->secure))
 1873              		.loc 1 1428 0
 1874 001a 8A78     		ldrb	r2, [r1, #2]	@ zero_extendqisi2
 1875 001c 82F00102 		eor	r2, r2, #1
 1876 0020 9201     		lsls	r2, r2, #6
 1877 0022 02F04002 		and	r2, r2, #64
 1878 0026 1343     		orrs	r3, r3, r2
1429:Generated_Source\PSoC6\pdl\drivers\peripheral\prot/cy_prot.c ****                     | _VAL2FLD(PERI_GR_PPU_RG_ATT0_PC_MASK_15_TO_1, config->pcMask)
 1879              		.loc 1 1429 0
 1880 0028 104A     		ldr	r2, .L190
 1881 002a 02EA4424 		and	r4, r2, r4, lsl #9
 1882 002e 2343     		orrs	r3, r3, r4
1430:Generated_Source\PSoC6\pdl\drivers\peripheral\prot/cy_prot.c ****                     /* No region size - read only */
1431:Generated_Source\PSoC6\pdl\drivers\peripheral\prot/cy_prot.c ****                     | _VAL2FLD(PERI_GR_PPU_RG_ATT0_PC_MATCH, config->pcMatch);
 1883              		.loc 1 1431 0
 1884 0030 CA78     		ldrb	r2, [r1, #3]	@ zero_extendqisi2
 1885 0032 9207     		lsls	r2, r2, #30
 1886 0034 02F08042 		and	r2, r2, #1073741824
1426:Generated_Source\PSoC6\pdl\drivers\peripheral\prot/cy_prot.c ****                     | (uint32_t)(((uint32_t)config->privPermission & CY_PROT_ATT_PERMISSION_MASK) <
 1887              		.loc 1 1426 0
 1888 0038 1343     		orrs	r3, r3, r2
 1889              	.LVL205:
1432:Generated_Source\PSoC6\pdl\drivers\peripheral\prot/cy_prot.c ****         if ((attReg & CY_PROT_PPU_RG_ATT0_MASK) != attReg)
 1890              		.loc 1 1432 0
 1891 003a 23F03F42 		bic	r2, r3, #-1090519040
 1892 003e 22F4D272 		bic	r2, r2, #420
 1893 0042 9342     		cmp	r3, r2
 1894 0044 0BD1     		bne	.L187
1433:Generated_Source\PSoC6\pdl\drivers\peripheral\prot/cy_prot.c ****         {
1434:Generated_Source\PSoC6\pdl\drivers\peripheral\prot/cy_prot.c ****             /* Invalid parameter was passed */
1435:Generated_Source\PSoC6\pdl\drivers\peripheral\prot/cy_prot.c ****             status = CY_PROT_BAD_PARAM;
ARM GAS  C:\Users\kiwamu\AppData\Local\Temp\ccLfX6Zi.s 			page 60


1436:Generated_Source\PSoC6\pdl\drivers\peripheral\prot/cy_prot.c ****         }
1437:Generated_Source\PSoC6\pdl\drivers\peripheral\prot/cy_prot.c ****         else
1438:Generated_Source\PSoC6\pdl\drivers\peripheral\prot/cy_prot.c ****         {
1439:Generated_Source\PSoC6\pdl\drivers\peripheral\prot/cy_prot.c ****             base->ATT0 = attReg;
 1895              		.loc 1 1439 0
 1896 0046 4360     		str	r3, [r0, #4]
1440:Generated_Source\PSoC6\pdl\drivers\peripheral\prot/cy_prot.c ****             status = ((base->ATT0 & CY_PROT_PPU_RG_ATT0_MASK) != attReg) ? CY_PROT_FAILURE : CY_PRO
 1897              		.loc 1 1440 0
 1898 0048 4268     		ldr	r2, [r0, #4]
 1899 004a 22F0F852 		bic	r2, r2, #520093696
 1900 004e 22F49272 		bic	r2, r2, #292
 1901 0052 9342     		cmp	r3, r2
 1902 0054 05D0     		beq	.L188
 1903 0056 0648     		ldr	r0, .L190+4
 1904              	.LVL206:
 1905 0058 04E0     		b	.L185
 1906              	.LVL207:
 1907              	.L186:
1421:Generated_Source\PSoC6\pdl\drivers\peripheral\prot/cy_prot.c ****     }
 1908              		.loc 1 1421 0
 1909 005a 0648     		ldr	r0, .L190+8
 1910              	.LVL208:
 1911 005c 02E0     		b	.L185
 1912              	.LVL209:
 1913              	.L187:
1435:Generated_Source\PSoC6\pdl\drivers\peripheral\prot/cy_prot.c ****         }
 1914              		.loc 1 1435 0
 1915 005e 0548     		ldr	r0, .L190+8
 1916              	.LVL210:
 1917 0060 00E0     		b	.L185
 1918              	.LVL211:
 1919              	.L188:
 1920              		.loc 1 1440 0
 1921 0062 0020     		movs	r0, #0
 1922              	.LVL212:
 1923              	.L185:
1441:Generated_Source\PSoC6\pdl\drivers\peripheral\prot/cy_prot.c ****         }
1442:Generated_Source\PSoC6\pdl\drivers\peripheral\prot/cy_prot.c ****     }
1443:Generated_Source\PSoC6\pdl\drivers\peripheral\prot/cy_prot.c ****     
1444:Generated_Source\PSoC6\pdl\drivers\peripheral\prot/cy_prot.c ****     return status;
1445:Generated_Source\PSoC6\pdl\drivers\peripheral\prot/cy_prot.c **** }
 1924              		.loc 1 1445 0
 1925 0064 5DF8044B 		ldr	r4, [sp], #4
 1926              		.cfi_restore 4
 1927              		.cfi_def_cfa_offset 0
 1928 0068 7047     		bx	lr
 1929              	.L191:
 1930 006a 00BF     		.align	2
 1931              	.L190:
 1932 006c 00FEFF00 		.word	16776704
 1933 0070 0300C200 		.word	12713987
 1934 0074 0100C200 		.word	12713985
 1935              		.cfi_endproc
 1936              	.LFE154:
 1937              		.size	Cy_Prot_ConfigPpuFixedRgSlaveStruct, .-Cy_Prot_ConfigPpuFixedRgSlaveStruct
 1938              		.section	.text.Cy_Prot_EnablePpuFixedRgMasterStruct,"ax",%progbits
 1939              		.align	2
ARM GAS  C:\Users\kiwamu\AppData\Local\Temp\ccLfX6Zi.s 			page 61


 1940              		.global	Cy_Prot_EnablePpuFixedRgMasterStruct
 1941              		.thumb
 1942              		.thumb_func
 1943              		.type	Cy_Prot_EnablePpuFixedRgMasterStruct, %function
 1944              	Cy_Prot_EnablePpuFixedRgMasterStruct:
 1945              	.LFB155:
1446:Generated_Source\PSoC6\pdl\drivers\peripheral\prot/cy_prot.c **** 
1447:Generated_Source\PSoC6\pdl\drivers\peripheral\prot/cy_prot.c **** 
1448:Generated_Source\PSoC6\pdl\drivers\peripheral\prot/cy_prot.c **** /*******************************************************************************
1449:Generated_Source\PSoC6\pdl\drivers\peripheral\prot/cy_prot.c **** * Function Name: Cy_Prot_EnablePpuFixedRgMasterStruct
1450:Generated_Source\PSoC6\pdl\drivers\peripheral\prot/cy_prot.c **** ****************************************************************************//**
1451:Generated_Source\PSoC6\pdl\drivers\peripheral\prot/cy_prot.c **** *
1452:Generated_Source\PSoC6\pdl\drivers\peripheral\prot/cy_prot.c **** * \brief Enables the Master PPU RG structure.
1453:Generated_Source\PSoC6\pdl\drivers\peripheral\prot/cy_prot.c **** *
1454:Generated_Source\PSoC6\pdl\drivers\peripheral\prot/cy_prot.c **** * This is a PPU RG master struct enable function. The PPU RG protection 
1455:Generated_Source\PSoC6\pdl\drivers\peripheral\prot/cy_prot.c **** * settings will take effect after successful completion of this function call.
1456:Generated_Source\PSoC6\pdl\drivers\peripheral\prot/cy_prot.c **** *
1457:Generated_Source\PSoC6\pdl\drivers\peripheral\prot/cy_prot.c **** * \param base
1458:Generated_Source\PSoC6\pdl\drivers\peripheral\prot/cy_prot.c **** * The base address for the protection unit structure being configured. 
1459:Generated_Source\PSoC6\pdl\drivers\peripheral\prot/cy_prot.c **** *
1460:Generated_Source\PSoC6\pdl\drivers\peripheral\prot/cy_prot.c **** * \return
1461:Generated_Source\PSoC6\pdl\drivers\peripheral\prot/cy_prot.c **** * Status of the function call.
1462:Generated_Source\PSoC6\pdl\drivers\peripheral\prot/cy_prot.c **** *
1463:Generated_Source\PSoC6\pdl\drivers\peripheral\prot/cy_prot.c **** *   Status               | Description
1464:Generated_Source\PSoC6\pdl\drivers\peripheral\prot/cy_prot.c **** *   ------------         | -----------
1465:Generated_Source\PSoC6\pdl\drivers\peripheral\prot/cy_prot.c **** *   CY_PROT_SUCCESS      | The Master PU struct was enabled
1466:Generated_Source\PSoC6\pdl\drivers\peripheral\prot/cy_prot.c **** *   CY_PROT_FAILURE      | The Master PU struct is disabled and possibly locked
1467:Generated_Source\PSoC6\pdl\drivers\peripheral\prot/cy_prot.c **** *  
1468:Generated_Source\PSoC6\pdl\drivers\peripheral\prot/cy_prot.c **** *******************************************************************************/
1469:Generated_Source\PSoC6\pdl\drivers\peripheral\prot/cy_prot.c **** cy_en_prot_status_t Cy_Prot_EnablePpuFixedRgMasterStruct(PERI_GR_PPU_RG_Type* base)
1470:Generated_Source\PSoC6\pdl\drivers\peripheral\prot/cy_prot.c **** {
 1946              		.loc 1 1470 0
 1947              		.cfi_startproc
 1948              		@ args = 0, pretend = 0, frame = 0
 1949              		@ frame_needed = 0, uses_anonymous_args = 0
 1950              		@ link register save eliminated.
 1951              	.LVL213:
1471:Generated_Source\PSoC6\pdl\drivers\peripheral\prot/cy_prot.c ****     cy_en_prot_status_t status = CY_PROT_SUCCESS;
1472:Generated_Source\PSoC6\pdl\drivers\peripheral\prot/cy_prot.c ****     
1473:Generated_Source\PSoC6\pdl\drivers\peripheral\prot/cy_prot.c ****     base->ATT1 |= _VAL2FLD(PERI_GR_PPU_RG_ATT1_ENABLED, CY_PROT_STRUCT_ENABLE);
 1952              		.loc 1 1473 0
 1953 0000 436A     		ldr	r3, [r0, #36]
 1954 0002 43F00043 		orr	r3, r3, #-2147483648
 1955 0006 4362     		str	r3, [r0, #36]
1474:Generated_Source\PSoC6\pdl\drivers\peripheral\prot/cy_prot.c ****     status = (_FLD2VAL(PERI_GR_PPU_RG_ATT1_ENABLED, base->ATT1) != CY_PROT_STRUCT_ENABLE) ?
 1956              		.loc 1 1474 0
 1957 0008 436A     		ldr	r3, [r0, #36]
 1958 000a 002B     		cmp	r3, #0
 1959 000c 01DB     		blt	.L194
 1960 000e 0248     		ldr	r0, .L195
 1961              	.LVL214:
 1962 0010 7047     		bx	lr
 1963              	.LVL215:
 1964              	.L194:
 1965 0012 0020     		movs	r0, #0
 1966              	.LVL216:
1475:Generated_Source\PSoC6\pdl\drivers\peripheral\prot/cy_prot.c ****                 CY_PROT_FAILURE : CY_PROT_SUCCESS;
ARM GAS  C:\Users\kiwamu\AppData\Local\Temp\ccLfX6Zi.s 			page 62


1476:Generated_Source\PSoC6\pdl\drivers\peripheral\prot/cy_prot.c ****     
1477:Generated_Source\PSoC6\pdl\drivers\peripheral\prot/cy_prot.c ****     return status;
1478:Generated_Source\PSoC6\pdl\drivers\peripheral\prot/cy_prot.c **** }
 1967              		.loc 1 1478 0
 1968 0014 7047     		bx	lr
 1969              	.L196:
 1970 0016 00BF     		.align	2
 1971              	.L195:
 1972 0018 0300C200 		.word	12713987
 1973              		.cfi_endproc
 1974              	.LFE155:
 1975              		.size	Cy_Prot_EnablePpuFixedRgMasterStruct, .-Cy_Prot_EnablePpuFixedRgMasterStruct
 1976              		.section	.text.Cy_Prot_DisablePpuFixedRgMasterStruct,"ax",%progbits
 1977              		.align	2
 1978              		.global	Cy_Prot_DisablePpuFixedRgMasterStruct
 1979              		.thumb
 1980              		.thumb_func
 1981              		.type	Cy_Prot_DisablePpuFixedRgMasterStruct, %function
 1982              	Cy_Prot_DisablePpuFixedRgMasterStruct:
 1983              	.LFB156:
1479:Generated_Source\PSoC6\pdl\drivers\peripheral\prot/cy_prot.c **** 
1480:Generated_Source\PSoC6\pdl\drivers\peripheral\prot/cy_prot.c **** 
1481:Generated_Source\PSoC6\pdl\drivers\peripheral\prot/cy_prot.c **** /*******************************************************************************
1482:Generated_Source\PSoC6\pdl\drivers\peripheral\prot/cy_prot.c **** * Function Name: Cy_Prot_DisablePpuFixedRgMasterStruct
1483:Generated_Source\PSoC6\pdl\drivers\peripheral\prot/cy_prot.c **** ****************************************************************************//**
1484:Generated_Source\PSoC6\pdl\drivers\peripheral\prot/cy_prot.c **** *
1485:Generated_Source\PSoC6\pdl\drivers\peripheral\prot/cy_prot.c **** * \brief Disables the Master PPU RG structure.
1486:Generated_Source\PSoC6\pdl\drivers\peripheral\prot/cy_prot.c **** *
1487:Generated_Source\PSoC6\pdl\drivers\peripheral\prot/cy_prot.c **** * This is a PPU RG master struct disable function. The PPU RG protection 
1488:Generated_Source\PSoC6\pdl\drivers\peripheral\prot/cy_prot.c **** * settings will seize to take effect after successful completion of this 
1489:Generated_Source\PSoC6\pdl\drivers\peripheral\prot/cy_prot.c **** * function call.
1490:Generated_Source\PSoC6\pdl\drivers\peripheral\prot/cy_prot.c **** *
1491:Generated_Source\PSoC6\pdl\drivers\peripheral\prot/cy_prot.c **** * \param base
1492:Generated_Source\PSoC6\pdl\drivers\peripheral\prot/cy_prot.c **** * The base address for the protection unit structure being configured. 
1493:Generated_Source\PSoC6\pdl\drivers\peripheral\prot/cy_prot.c **** *
1494:Generated_Source\PSoC6\pdl\drivers\peripheral\prot/cy_prot.c **** * \return
1495:Generated_Source\PSoC6\pdl\drivers\peripheral\prot/cy_prot.c **** * Status of the function call.
1496:Generated_Source\PSoC6\pdl\drivers\peripheral\prot/cy_prot.c **** *
1497:Generated_Source\PSoC6\pdl\drivers\peripheral\prot/cy_prot.c **** *   Status               | Description
1498:Generated_Source\PSoC6\pdl\drivers\peripheral\prot/cy_prot.c **** *   ------------         | -----------
1499:Generated_Source\PSoC6\pdl\drivers\peripheral\prot/cy_prot.c **** *   CY_PROT_SUCCESS      | The Master PU struct was disabled
1500:Generated_Source\PSoC6\pdl\drivers\peripheral\prot/cy_prot.c **** *   CY_PROT_FAILURE      | The Master PU struct is enabled and possibly locked
1501:Generated_Source\PSoC6\pdl\drivers\peripheral\prot/cy_prot.c **** *  
1502:Generated_Source\PSoC6\pdl\drivers\peripheral\prot/cy_prot.c **** *******************************************************************************/
1503:Generated_Source\PSoC6\pdl\drivers\peripheral\prot/cy_prot.c **** cy_en_prot_status_t Cy_Prot_DisablePpuFixedRgMasterStruct(PERI_GR_PPU_RG_Type* base)
1504:Generated_Source\PSoC6\pdl\drivers\peripheral\prot/cy_prot.c **** {
 1984              		.loc 1 1504 0
 1985              		.cfi_startproc
 1986              		@ args = 0, pretend = 0, frame = 0
 1987              		@ frame_needed = 0, uses_anonymous_args = 0
 1988              		@ link register save eliminated.
 1989              	.LVL217:
1505:Generated_Source\PSoC6\pdl\drivers\peripheral\prot/cy_prot.c ****     cy_en_prot_status_t status = CY_PROT_SUCCESS;
1506:Generated_Source\PSoC6\pdl\drivers\peripheral\prot/cy_prot.c ****     
1507:Generated_Source\PSoC6\pdl\drivers\peripheral\prot/cy_prot.c ****     base->ATT1 &= ~_VAL2FLD(PERI_GR_PPU_RG_ATT1_ENABLED, CY_PROT_STRUCT_ENABLE);
 1990              		.loc 1 1507 0
 1991 0000 436A     		ldr	r3, [r0, #36]
ARM GAS  C:\Users\kiwamu\AppData\Local\Temp\ccLfX6Zi.s 			page 63


 1992 0002 23F00043 		bic	r3, r3, #-2147483648
 1993 0006 4362     		str	r3, [r0, #36]
1508:Generated_Source\PSoC6\pdl\drivers\peripheral\prot/cy_prot.c ****     status = (_FLD2VAL(PERI_GR_PPU_RG_ATT1_ENABLED, base->ATT1) == CY_PROT_STRUCT_ENABLE) ?
 1994              		.loc 1 1508 0
 1995 0008 436A     		ldr	r3, [r0, #36]
 1996 000a 002B     		cmp	r3, #0
 1997 000c 01DA     		bge	.L199
 1998 000e 0248     		ldr	r0, .L200
 1999              	.LVL218:
 2000 0010 7047     		bx	lr
 2001              	.LVL219:
 2002              	.L199:
 2003 0012 0020     		movs	r0, #0
 2004              	.LVL220:
1509:Generated_Source\PSoC6\pdl\drivers\peripheral\prot/cy_prot.c ****                 CY_PROT_FAILURE : CY_PROT_SUCCESS;
1510:Generated_Source\PSoC6\pdl\drivers\peripheral\prot/cy_prot.c ****     
1511:Generated_Source\PSoC6\pdl\drivers\peripheral\prot/cy_prot.c ****     return status;
1512:Generated_Source\PSoC6\pdl\drivers\peripheral\prot/cy_prot.c **** }
 2005              		.loc 1 1512 0
 2006 0014 7047     		bx	lr
 2007              	.L201:
 2008 0016 00BF     		.align	2
 2009              	.L200:
 2010 0018 0300C200 		.word	12713987
 2011              		.cfi_endproc
 2012              	.LFE156:
 2013              		.size	Cy_Prot_DisablePpuFixedRgMasterStruct, .-Cy_Prot_DisablePpuFixedRgMasterStruct
 2014              		.section	.text.Cy_Prot_EnablePpuFixedRgSlaveStruct,"ax",%progbits
 2015              		.align	2
 2016              		.global	Cy_Prot_EnablePpuFixedRgSlaveStruct
 2017              		.thumb
 2018              		.thumb_func
 2019              		.type	Cy_Prot_EnablePpuFixedRgSlaveStruct, %function
 2020              	Cy_Prot_EnablePpuFixedRgSlaveStruct:
 2021              	.LFB157:
1513:Generated_Source\PSoC6\pdl\drivers\peripheral\prot/cy_prot.c **** 
1514:Generated_Source\PSoC6\pdl\drivers\peripheral\prot/cy_prot.c **** 
1515:Generated_Source\PSoC6\pdl\drivers\peripheral\prot/cy_prot.c **** /*******************************************************************************
1516:Generated_Source\PSoC6\pdl\drivers\peripheral\prot/cy_prot.c **** * Function Name: Cy_Prot_EnablePpuFixedRgSlaveStruct
1517:Generated_Source\PSoC6\pdl\drivers\peripheral\prot/cy_prot.c **** ****************************************************************************//**
1518:Generated_Source\PSoC6\pdl\drivers\peripheral\prot/cy_prot.c **** *
1519:Generated_Source\PSoC6\pdl\drivers\peripheral\prot/cy_prot.c **** * \brief Enables the Slave PPU RG structure.
1520:Generated_Source\PSoC6\pdl\drivers\peripheral\prot/cy_prot.c **** *
1521:Generated_Source\PSoC6\pdl\drivers\peripheral\prot/cy_prot.c **** * This is a PPU RG slave struct enable function. The PPU RG protection 
1522:Generated_Source\PSoC6\pdl\drivers\peripheral\prot/cy_prot.c **** * settings will take effect after successful completion of this function call.
1523:Generated_Source\PSoC6\pdl\drivers\peripheral\prot/cy_prot.c **** *
1524:Generated_Source\PSoC6\pdl\drivers\peripheral\prot/cy_prot.c **** * \param base
1525:Generated_Source\PSoC6\pdl\drivers\peripheral\prot/cy_prot.c **** * The base address for the protection unit structure being configured. 
1526:Generated_Source\PSoC6\pdl\drivers\peripheral\prot/cy_prot.c **** *
1527:Generated_Source\PSoC6\pdl\drivers\peripheral\prot/cy_prot.c **** * \return
1528:Generated_Source\PSoC6\pdl\drivers\peripheral\prot/cy_prot.c **** * Status of the function call.
1529:Generated_Source\PSoC6\pdl\drivers\peripheral\prot/cy_prot.c **** *
1530:Generated_Source\PSoC6\pdl\drivers\peripheral\prot/cy_prot.c **** *   Status               | Description
1531:Generated_Source\PSoC6\pdl\drivers\peripheral\prot/cy_prot.c **** *   ------------         | -----------
1532:Generated_Source\PSoC6\pdl\drivers\peripheral\prot/cy_prot.c **** *   CY_PROT_SUCCESS      | The Slave PU struct was enabled
1533:Generated_Source\PSoC6\pdl\drivers\peripheral\prot/cy_prot.c **** *   CY_PROT_FAILURE      | The Slave PU struct is disabled and possibly locked
1534:Generated_Source\PSoC6\pdl\drivers\peripheral\prot/cy_prot.c **** *  
ARM GAS  C:\Users\kiwamu\AppData\Local\Temp\ccLfX6Zi.s 			page 64


1535:Generated_Source\PSoC6\pdl\drivers\peripheral\prot/cy_prot.c **** *******************************************************************************/
1536:Generated_Source\PSoC6\pdl\drivers\peripheral\prot/cy_prot.c **** cy_en_prot_status_t Cy_Prot_EnablePpuFixedRgSlaveStruct(PERI_GR_PPU_RG_Type* base)
1537:Generated_Source\PSoC6\pdl\drivers\peripheral\prot/cy_prot.c **** {   
 2022              		.loc 1 1537 0
 2023              		.cfi_startproc
 2024              		@ args = 0, pretend = 0, frame = 0
 2025              		@ frame_needed = 0, uses_anonymous_args = 0
 2026              		@ link register save eliminated.
 2027              	.LVL221:
1538:Generated_Source\PSoC6\pdl\drivers\peripheral\prot/cy_prot.c ****     cy_en_prot_status_t status = CY_PROT_SUCCESS;
1539:Generated_Source\PSoC6\pdl\drivers\peripheral\prot/cy_prot.c ****     
1540:Generated_Source\PSoC6\pdl\drivers\peripheral\prot/cy_prot.c ****     base->ATT0 |= _VAL2FLD(PERI_GR_PPU_RG_ATT0_ENABLED, CY_PROT_STRUCT_ENABLE);
 2028              		.loc 1 1540 0
 2029 0000 4368     		ldr	r3, [r0, #4]
 2030 0002 43F00043 		orr	r3, r3, #-2147483648
 2031 0006 4360     		str	r3, [r0, #4]
1541:Generated_Source\PSoC6\pdl\drivers\peripheral\prot/cy_prot.c ****     status = (_FLD2VAL(PERI_GR_PPU_RG_ATT0_ENABLED, base->ATT0) != CY_PROT_STRUCT_ENABLE) ?
 2032              		.loc 1 1541 0
 2033 0008 4368     		ldr	r3, [r0, #4]
 2034 000a 002B     		cmp	r3, #0
 2035 000c 01DB     		blt	.L204
 2036 000e 0248     		ldr	r0, .L205
 2037              	.LVL222:
 2038 0010 7047     		bx	lr
 2039              	.LVL223:
 2040              	.L204:
 2041 0012 0020     		movs	r0, #0
 2042              	.LVL224:
1542:Generated_Source\PSoC6\pdl\drivers\peripheral\prot/cy_prot.c ****                 CY_PROT_FAILURE : CY_PROT_SUCCESS;
1543:Generated_Source\PSoC6\pdl\drivers\peripheral\prot/cy_prot.c ****     
1544:Generated_Source\PSoC6\pdl\drivers\peripheral\prot/cy_prot.c ****     return status;
1545:Generated_Source\PSoC6\pdl\drivers\peripheral\prot/cy_prot.c **** }
 2043              		.loc 1 1545 0
 2044 0014 7047     		bx	lr
 2045              	.L206:
 2046 0016 00BF     		.align	2
 2047              	.L205:
 2048 0018 0300C200 		.word	12713987
 2049              		.cfi_endproc
 2050              	.LFE157:
 2051              		.size	Cy_Prot_EnablePpuFixedRgSlaveStruct, .-Cy_Prot_EnablePpuFixedRgSlaveStruct
 2052              		.section	.text.Cy_Prot_DisablePpuFixedRgSlaveStruct,"ax",%progbits
 2053              		.align	2
 2054              		.global	Cy_Prot_DisablePpuFixedRgSlaveStruct
 2055              		.thumb
 2056              		.thumb_func
 2057              		.type	Cy_Prot_DisablePpuFixedRgSlaveStruct, %function
 2058              	Cy_Prot_DisablePpuFixedRgSlaveStruct:
 2059              	.LFB158:
1546:Generated_Source\PSoC6\pdl\drivers\peripheral\prot/cy_prot.c **** 
1547:Generated_Source\PSoC6\pdl\drivers\peripheral\prot/cy_prot.c **** 
1548:Generated_Source\PSoC6\pdl\drivers\peripheral\prot/cy_prot.c **** /*******************************************************************************
1549:Generated_Source\PSoC6\pdl\drivers\peripheral\prot/cy_prot.c **** * Function Name: Cy_Prot_DisablePpuFixedRgSlaveStruct
1550:Generated_Source\PSoC6\pdl\drivers\peripheral\prot/cy_prot.c **** ****************************************************************************//**
1551:Generated_Source\PSoC6\pdl\drivers\peripheral\prot/cy_prot.c **** *
1552:Generated_Source\PSoC6\pdl\drivers\peripheral\prot/cy_prot.c **** * \brief Disables the Slave PPU RG structure.
1553:Generated_Source\PSoC6\pdl\drivers\peripheral\prot/cy_prot.c **** *
ARM GAS  C:\Users\kiwamu\AppData\Local\Temp\ccLfX6Zi.s 			page 65


1554:Generated_Source\PSoC6\pdl\drivers\peripheral\prot/cy_prot.c **** * This is a PPU RG slave struct disable function. The PPU RG protection 
1555:Generated_Source\PSoC6\pdl\drivers\peripheral\prot/cy_prot.c **** * settings will seize to take effect after successful completion of this 
1556:Generated_Source\PSoC6\pdl\drivers\peripheral\prot/cy_prot.c **** * function call.
1557:Generated_Source\PSoC6\pdl\drivers\peripheral\prot/cy_prot.c **** *
1558:Generated_Source\PSoC6\pdl\drivers\peripheral\prot/cy_prot.c **** * \param base
1559:Generated_Source\PSoC6\pdl\drivers\peripheral\prot/cy_prot.c **** * The base address for the protection unit structure being configured. 
1560:Generated_Source\PSoC6\pdl\drivers\peripheral\prot/cy_prot.c **** *
1561:Generated_Source\PSoC6\pdl\drivers\peripheral\prot/cy_prot.c **** * \return
1562:Generated_Source\PSoC6\pdl\drivers\peripheral\prot/cy_prot.c **** * Status of the function call.
1563:Generated_Source\PSoC6\pdl\drivers\peripheral\prot/cy_prot.c **** *
1564:Generated_Source\PSoC6\pdl\drivers\peripheral\prot/cy_prot.c **** *   Status               | Description
1565:Generated_Source\PSoC6\pdl\drivers\peripheral\prot/cy_prot.c **** *   ------------         | -----------
1566:Generated_Source\PSoC6\pdl\drivers\peripheral\prot/cy_prot.c **** *   CY_PROT_SUCCESS      | The Slave PU struct was disabled
1567:Generated_Source\PSoC6\pdl\drivers\peripheral\prot/cy_prot.c **** *   CY_PROT_FAILURE      | The Slave PU struct is enabled and possibly locked
1568:Generated_Source\PSoC6\pdl\drivers\peripheral\prot/cy_prot.c **** *  
1569:Generated_Source\PSoC6\pdl\drivers\peripheral\prot/cy_prot.c **** *******************************************************************************/
1570:Generated_Source\PSoC6\pdl\drivers\peripheral\prot/cy_prot.c **** cy_en_prot_status_t Cy_Prot_DisablePpuFixedRgSlaveStruct(PERI_GR_PPU_RG_Type* base)
1571:Generated_Source\PSoC6\pdl\drivers\peripheral\prot/cy_prot.c **** {
 2060              		.loc 1 1571 0
 2061              		.cfi_startproc
 2062              		@ args = 0, pretend = 0, frame = 0
 2063              		@ frame_needed = 0, uses_anonymous_args = 0
 2064              		@ link register save eliminated.
 2065              	.LVL225:
1572:Generated_Source\PSoC6\pdl\drivers\peripheral\prot/cy_prot.c ****     cy_en_prot_status_t status = CY_PROT_SUCCESS;
1573:Generated_Source\PSoC6\pdl\drivers\peripheral\prot/cy_prot.c ****     
1574:Generated_Source\PSoC6\pdl\drivers\peripheral\prot/cy_prot.c ****     base->ATT0 &= ~_VAL2FLD(PERI_GR_PPU_RG_ATT0_ENABLED, CY_PROT_STRUCT_ENABLE);
 2066              		.loc 1 1574 0
 2067 0000 4368     		ldr	r3, [r0, #4]
 2068 0002 23F00043 		bic	r3, r3, #-2147483648
 2069 0006 4360     		str	r3, [r0, #4]
1575:Generated_Source\PSoC6\pdl\drivers\peripheral\prot/cy_prot.c ****     status = (_FLD2VAL(PERI_GR_PPU_RG_ATT0_ENABLED, base->ATT0) == CY_PROT_STRUCT_ENABLE) ?
 2070              		.loc 1 1575 0
 2071 0008 4368     		ldr	r3, [r0, #4]
 2072 000a 002B     		cmp	r3, #0
 2073 000c 01DA     		bge	.L209
 2074 000e 0248     		ldr	r0, .L210
 2075              	.LVL226:
 2076 0010 7047     		bx	lr
 2077              	.LVL227:
 2078              	.L209:
 2079 0012 0020     		movs	r0, #0
 2080              	.LVL228:
1576:Generated_Source\PSoC6\pdl\drivers\peripheral\prot/cy_prot.c ****                 CY_PROT_FAILURE : CY_PROT_SUCCESS;
1577:Generated_Source\PSoC6\pdl\drivers\peripheral\prot/cy_prot.c ****     
1578:Generated_Source\PSoC6\pdl\drivers\peripheral\prot/cy_prot.c ****     return status;
1579:Generated_Source\PSoC6\pdl\drivers\peripheral\prot/cy_prot.c **** }
 2081              		.loc 1 1579 0
 2082 0014 7047     		bx	lr
 2083              	.L211:
 2084 0016 00BF     		.align	2
 2085              	.L210:
 2086 0018 0300C200 		.word	12713987
 2087              		.cfi_endproc
 2088              	.LFE158:
 2089              		.size	Cy_Prot_DisablePpuFixedRgSlaveStruct, .-Cy_Prot_DisablePpuFixedRgSlaveStruct
 2090              		.text
ARM GAS  C:\Users\kiwamu\AppData\Local\Temp\ccLfX6Zi.s 			page 66


 2091              	.Letext0:
 2092              		.file 2 "c:\\program files (x86)\\cypress\\psoc creator\\4.2\\psoc creator\\import\\gnu\\arm\\5.4.
 2093              		.file 3 "c:\\program files (x86)\\cypress\\psoc creator\\4.2\\psoc creator\\import\\gnu\\arm\\5.4.
 2094              		.file 4 "Generated_Source\\PSoC6\\pdl\\devices/psoc6/psoc63/include/psoc63_config.h"
 2095              		.file 5 "Generated_Source\\PSoC6\\pdl\\devices/psoc6/ip/cyip_peri.h"
 2096              		.file 6 "Generated_Source\\PSoC6\\pdl\\devices/psoc6/ip/cyip_prot.h"
 2097              		.file 7 "Generated_Source\\PSoC6\\pdl\\drivers\\peripheral\\prot\\cy_prot.h"
 2098              		.file 8 "Generated_Source\\PSoC6\\pdl\\cmsis/include/core_cm4.h"
 2099              		.section	.debug_info,"",%progbits
 2100              	.Ldebug_info0:
 2101 0000 BB130000 		.4byte	0x13bb
 2102 0004 0400     		.2byte	0x4
 2103 0006 00000000 		.4byte	.Ldebug_abbrev0
 2104 000a 04       		.byte	0x4
 2105 000b 01       		.uleb128 0x1
 2106 000c D1030000 		.4byte	.LASF165
 2107 0010 0C       		.byte	0xc
 2108 0011 1E050000 		.4byte	.LASF166
 2109 0015 68060000 		.4byte	.LASF167
 2110 0019 00000000 		.4byte	.Ldebug_ranges0+0
 2111 001d 00000000 		.4byte	0
 2112 0021 00000000 		.4byte	.Ldebug_line0
 2113 0025 02       		.uleb128 0x2
 2114 0026 01       		.byte	0x1
 2115 0027 06       		.byte	0x6
 2116 0028 7A010000 		.4byte	.LASF0
 2117 002c 03       		.uleb128 0x3
 2118 002d 9B000000 		.4byte	.LASF3
 2119 0031 02       		.byte	0x2
 2120 0032 1D       		.byte	0x1d
 2121 0033 37000000 		.4byte	0x37
 2122 0037 02       		.uleb128 0x2
 2123 0038 01       		.byte	0x1
 2124 0039 08       		.byte	0x8
 2125 003a BA080000 		.4byte	.LASF1
 2126 003e 02       		.uleb128 0x2
 2127 003f 02       		.byte	0x2
 2128 0040 05       		.byte	0x5
 2129 0041 E9080000 		.4byte	.LASF2
 2130 0045 03       		.uleb128 0x3
 2131 0046 1B0A0000 		.4byte	.LASF4
 2132 004a 02       		.byte	0x2
 2133 004b 2B       		.byte	0x2b
 2134 004c 50000000 		.4byte	0x50
 2135 0050 02       		.uleb128 0x2
 2136 0051 02       		.byte	0x2
 2137 0052 07       		.byte	0x7
 2138 0053 FF040000 		.4byte	.LASF5
 2139 0057 03       		.uleb128 0x3
 2140 0058 F5050000 		.4byte	.LASF6
 2141 005c 02       		.byte	0x2
 2142 005d 3F       		.byte	0x3f
 2143 005e 62000000 		.4byte	0x62
 2144 0062 02       		.uleb128 0x2
 2145 0063 04       		.byte	0x4
 2146 0064 05       		.byte	0x5
 2147 0065 4F020000 		.4byte	.LASF7
ARM GAS  C:\Users\kiwamu\AppData\Local\Temp\ccLfX6Zi.s 			page 67


 2148 0069 03       		.uleb128 0x3
 2149 006a E4020000 		.4byte	.LASF8
 2150 006e 02       		.byte	0x2
 2151 006f 41       		.byte	0x41
 2152 0070 74000000 		.4byte	0x74
 2153 0074 02       		.uleb128 0x2
 2154 0075 04       		.byte	0x4
 2155 0076 07       		.byte	0x7
 2156 0077 96040000 		.4byte	.LASF9
 2157 007b 02       		.uleb128 0x2
 2158 007c 08       		.byte	0x8
 2159 007d 05       		.byte	0x5
 2160 007e 6C010000 		.4byte	.LASF10
 2161 0082 02       		.uleb128 0x2
 2162 0083 08       		.byte	0x8
 2163 0084 07       		.byte	0x7
 2164 0085 11010000 		.4byte	.LASF11
 2165 0089 04       		.uleb128 0x4
 2166 008a 04       		.byte	0x4
 2167 008b 05       		.byte	0x5
 2168 008c 696E7400 		.ascii	"int\000"
 2169 0090 02       		.uleb128 0x2
 2170 0091 04       		.byte	0x4
 2171 0092 07       		.byte	0x7
 2172 0093 96030000 		.4byte	.LASF12
 2173 0097 03       		.uleb128 0x3
 2174 0098 3B0B0000 		.4byte	.LASF13
 2175 009c 03       		.byte	0x3
 2176 009d 18       		.byte	0x18
 2177 009e 2C000000 		.4byte	0x2c
 2178 00a2 03       		.uleb128 0x3
 2179 00a3 70020000 		.4byte	.LASF14
 2180 00a7 03       		.byte	0x3
 2181 00a8 24       		.byte	0x24
 2182 00a9 45000000 		.4byte	0x45
 2183 00ad 03       		.uleb128 0x3
 2184 00ae B2080000 		.4byte	.LASF15
 2185 00b2 03       		.byte	0x3
 2186 00b3 2C       		.byte	0x2c
 2187 00b4 57000000 		.4byte	0x57
 2188 00b8 03       		.uleb128 0x3
 2189 00b9 BC090000 		.4byte	.LASF16
 2190 00bd 03       		.byte	0x3
 2191 00be 30       		.byte	0x30
 2192 00bf 69000000 		.4byte	0x69
 2193 00c3 02       		.uleb128 0x2
 2194 00c4 04       		.byte	0x4
 2195 00c5 07       		.byte	0x7
 2196 00c6 6D0B0000 		.4byte	.LASF17
 2197 00ca 05       		.uleb128 0x5
 2198 00cb B8000000 		.4byte	0xb8
 2199 00cf 06       		.uleb128 0x6
 2200 00d0 CA000000 		.4byte	0xca
 2201 00d4 07       		.uleb128 0x7
 2202 00d5 01       		.byte	0x1
 2203 00d6 37000000 		.4byte	0x37
 2204 00da 04       		.byte	0x4
ARM GAS  C:\Users\kiwamu\AppData\Local\Temp\ccLfX6Zi.s 			page 68


 2205 00db 1406     		.2byte	0x614
 2206 00dd 06010000 		.4byte	0x106
 2207 00e1 08       		.uleb128 0x8
 2208 00e2 260A0000 		.4byte	.LASF18
 2209 00e6 00       		.byte	0
 2210 00e7 08       		.uleb128 0x8
 2211 00e8 C4010000 		.4byte	.LASF19
 2212 00ec 01       		.byte	0x1
 2213 00ed 08       		.uleb128 0x8
 2214 00ee 760B0000 		.4byte	.LASF20
 2215 00f2 02       		.byte	0x2
 2216 00f3 08       		.uleb128 0x8
 2217 00f4 B10A0000 		.4byte	.LASF21
 2218 00f8 03       		.byte	0x3
 2219 00f9 08       		.uleb128 0x8
 2220 00fa 89070000 		.4byte	.LASF22
 2221 00fe 0E       		.byte	0xe
 2222 00ff 08       		.uleb128 0x8
 2223 0100 420C0000 		.4byte	.LASF23
 2224 0104 0F       		.byte	0xf
 2225 0105 00       		.byte	0
 2226 0106 09       		.uleb128 0x9
 2227 0107 5F020000 		.4byte	.LASF24
 2228 010b 04       		.byte	0x4
 2229 010c 1B06     		.2byte	0x61b
 2230 010e D4000000 		.4byte	0xd4
 2231 0112 0A       		.uleb128 0xa
 2232 0113 CF000000 		.4byte	0xcf
 2233 0117 22010000 		.4byte	0x122
 2234 011b 0B       		.uleb128 0xb
 2235 011c C3000000 		.4byte	0xc3
 2236 0120 05       		.byte	0x5
 2237 0121 00       		.byte	0
 2238 0122 0C       		.uleb128 0xc
 2239 0123 40       		.byte	0x40
 2240 0124 05       		.byte	0x5
 2241 0125 39       		.byte	0x39
 2242 0126 73010000 		.4byte	0x173
 2243 012a 0D       		.uleb128 0xd
 2244 012b 12050000 		.4byte	.LASF25
 2245 012f 05       		.byte	0x5
 2246 0130 3A       		.byte	0x3a
 2247 0131 CA000000 		.4byte	0xca
 2248 0135 00       		.byte	0
 2249 0136 0D       		.uleb128 0xd
 2250 0137 D7020000 		.4byte	.LASF26
 2251 013b 05       		.byte	0x5
 2252 013c 3B       		.byte	0x3b
 2253 013d CA000000 		.4byte	0xca
 2254 0141 04       		.byte	0x4
 2255 0142 0D       		.uleb128 0xd
 2256 0143 360A0000 		.4byte	.LASF27
 2257 0147 05       		.byte	0x5
 2258 0148 3C       		.byte	0x3c
 2259 0149 78010000 		.4byte	0x178
 2260 014d 08       		.byte	0x8
 2261 014e 0D       		.uleb128 0xd
ARM GAS  C:\Users\kiwamu\AppData\Local\Temp\ccLfX6Zi.s 			page 69


 2262 014f 18050000 		.4byte	.LASF28
 2263 0153 05       		.byte	0x5
 2264 0154 3D       		.byte	0x3d
 2265 0155 CF000000 		.4byte	0xcf
 2266 0159 20       		.byte	0x20
 2267 015a 0D       		.uleb128 0xd
 2268 015b C10A0000 		.4byte	.LASF29
 2269 015f 05       		.byte	0x5
 2270 0160 3E       		.byte	0x3e
 2271 0161 CA000000 		.4byte	0xca
 2272 0165 24       		.byte	0x24
 2273 0166 0D       		.uleb128 0xd
 2274 0167 37080000 		.4byte	.LASF30
 2275 016b 05       		.byte	0x5
 2276 016c 3F       		.byte	0x3f
 2277 016d 82010000 		.4byte	0x182
 2278 0171 28       		.byte	0x28
 2279 0172 00       		.byte	0
 2280 0173 05       		.uleb128 0x5
 2281 0174 12010000 		.4byte	0x112
 2282 0178 06       		.uleb128 0x6
 2283 0179 73010000 		.4byte	0x173
 2284 017d 05       		.uleb128 0x5
 2285 017e 12010000 		.4byte	0x112
 2286 0182 06       		.uleb128 0x6
 2287 0183 7D010000 		.4byte	0x17d
 2288 0187 03       		.uleb128 0x3
 2289 0188 E60A0000 		.4byte	.LASF31
 2290 018c 05       		.byte	0x5
 2291 018d 40       		.byte	0x40
 2292 018e 22010000 		.4byte	0x122
 2293 0192 0C       		.uleb128 0xc
 2294 0193 40       		.byte	0x40
 2295 0194 05       		.byte	0x5
 2296 0195 45       		.byte	0x45
 2297 0196 E3010000 		.4byte	0x1e3
 2298 019a 0D       		.uleb128 0xd
 2299 019b 12050000 		.4byte	.LASF25
 2300 019f 05       		.byte	0x5
 2301 01a0 46       		.byte	0x46
 2302 01a1 CF000000 		.4byte	0xcf
 2303 01a5 00       		.byte	0
 2304 01a6 0D       		.uleb128 0xd
 2305 01a7 D7020000 		.4byte	.LASF26
 2306 01ab 05       		.byte	0x5
 2307 01ac 47       		.byte	0x47
 2308 01ad CA000000 		.4byte	0xca
 2309 01b1 04       		.byte	0x4
 2310 01b2 0D       		.uleb128 0xd
 2311 01b3 360A0000 		.4byte	.LASF27
 2312 01b7 05       		.byte	0x5
 2313 01b8 48       		.byte	0x48
 2314 01b9 E8010000 		.4byte	0x1e8
 2315 01bd 08       		.byte	0x8
 2316 01be 0D       		.uleb128 0xd
 2317 01bf 18050000 		.4byte	.LASF28
 2318 01c3 05       		.byte	0x5
ARM GAS  C:\Users\kiwamu\AppData\Local\Temp\ccLfX6Zi.s 			page 70


 2319 01c4 49       		.byte	0x49
 2320 01c5 CF000000 		.4byte	0xcf
 2321 01c9 20       		.byte	0x20
 2322 01ca 0D       		.uleb128 0xd
 2323 01cb C10A0000 		.4byte	.LASF29
 2324 01cf 05       		.byte	0x5
 2325 01d0 4A       		.byte	0x4a
 2326 01d1 CA000000 		.4byte	0xca
 2327 01d5 24       		.byte	0x24
 2328 01d6 0D       		.uleb128 0xd
 2329 01d7 37080000 		.4byte	.LASF30
 2330 01db 05       		.byte	0x5
 2331 01dc 4B       		.byte	0x4b
 2332 01dd F2010000 		.4byte	0x1f2
 2333 01e1 28       		.byte	0x28
 2334 01e2 00       		.byte	0
 2335 01e3 05       		.uleb128 0x5
 2336 01e4 12010000 		.4byte	0x112
 2337 01e8 06       		.uleb128 0x6
 2338 01e9 E3010000 		.4byte	0x1e3
 2339 01ed 05       		.uleb128 0x5
 2340 01ee 12010000 		.4byte	0x112
 2341 01f2 06       		.uleb128 0x6
 2342 01f3 ED010000 		.4byte	0x1ed
 2343 01f7 03       		.uleb128 0x3
 2344 01f8 F8000000 		.4byte	.LASF32
 2345 01fc 05       		.byte	0x5
 2346 01fd 4C       		.byte	0x4c
 2347 01fe 92010000 		.4byte	0x192
 2348 0202 0C       		.uleb128 0xc
 2349 0203 40       		.byte	0x40
 2350 0204 05       		.byte	0x5
 2351 0205 51       		.byte	0x51
 2352 0206 53020000 		.4byte	0x253
 2353 020a 0D       		.uleb128 0xd
 2354 020b 12050000 		.4byte	.LASF25
 2355 020f 05       		.byte	0x5
 2356 0210 52       		.byte	0x52
 2357 0211 CF000000 		.4byte	0xcf
 2358 0215 00       		.byte	0
 2359 0216 0D       		.uleb128 0xd
 2360 0217 D7020000 		.4byte	.LASF26
 2361 021b 05       		.byte	0x5
 2362 021c 53       		.byte	0x53
 2363 021d CA000000 		.4byte	0xca
 2364 0221 04       		.byte	0x4
 2365 0222 0D       		.uleb128 0xd
 2366 0223 360A0000 		.4byte	.LASF27
 2367 0227 05       		.byte	0x5
 2368 0228 54       		.byte	0x54
 2369 0229 58020000 		.4byte	0x258
 2370 022d 08       		.byte	0x8
 2371 022e 0D       		.uleb128 0xd
 2372 022f 18050000 		.4byte	.LASF28
 2373 0233 05       		.byte	0x5
 2374 0234 55       		.byte	0x55
 2375 0235 CF000000 		.4byte	0xcf
ARM GAS  C:\Users\kiwamu\AppData\Local\Temp\ccLfX6Zi.s 			page 71


 2376 0239 20       		.byte	0x20
 2377 023a 0D       		.uleb128 0xd
 2378 023b C10A0000 		.4byte	.LASF29
 2379 023f 05       		.byte	0x5
 2380 0240 56       		.byte	0x56
 2381 0241 CA000000 		.4byte	0xca
 2382 0245 24       		.byte	0x24
 2383 0246 0D       		.uleb128 0xd
 2384 0247 37080000 		.4byte	.LASF30
 2385 024b 05       		.byte	0x5
 2386 024c 57       		.byte	0x57
 2387 024d 62020000 		.4byte	0x262
 2388 0251 28       		.byte	0x28
 2389 0252 00       		.byte	0
 2390 0253 05       		.uleb128 0x5
 2391 0254 12010000 		.4byte	0x112
 2392 0258 06       		.uleb128 0x6
 2393 0259 53020000 		.4byte	0x253
 2394 025d 05       		.uleb128 0x5
 2395 025e 12010000 		.4byte	0x112
 2396 0262 06       		.uleb128 0x6
 2397 0263 5D020000 		.4byte	0x25d
 2398 0267 03       		.uleb128 0x3
 2399 0268 93050000 		.4byte	.LASF33
 2400 026c 05       		.byte	0x5
 2401 026d 58       		.byte	0x58
 2402 026e 02020000 		.4byte	0x202
 2403 0272 0C       		.uleb128 0xc
 2404 0273 40       		.byte	0x40
 2405 0274 05       		.byte	0x5
 2406 0275 5D       		.byte	0x5d
 2407 0276 C3020000 		.4byte	0x2c3
 2408 027a 0D       		.uleb128 0xd
 2409 027b 12050000 		.4byte	.LASF25
 2410 027f 05       		.byte	0x5
 2411 0280 5E       		.byte	0x5e
 2412 0281 CF000000 		.4byte	0xcf
 2413 0285 00       		.byte	0
 2414 0286 0D       		.uleb128 0xd
 2415 0287 D7020000 		.4byte	.LASF26
 2416 028b 05       		.byte	0x5
 2417 028c 5F       		.byte	0x5f
 2418 028d CA000000 		.4byte	0xca
 2419 0291 04       		.byte	0x4
 2420 0292 0D       		.uleb128 0xd
 2421 0293 360A0000 		.4byte	.LASF27
 2422 0297 05       		.byte	0x5
 2423 0298 60       		.byte	0x60
 2424 0299 C8020000 		.4byte	0x2c8
 2425 029d 08       		.byte	0x8
 2426 029e 0D       		.uleb128 0xd
 2427 029f 18050000 		.4byte	.LASF28
 2428 02a3 05       		.byte	0x5
 2429 02a4 61       		.byte	0x61
 2430 02a5 CF000000 		.4byte	0xcf
 2431 02a9 20       		.byte	0x20
 2432 02aa 0D       		.uleb128 0xd
ARM GAS  C:\Users\kiwamu\AppData\Local\Temp\ccLfX6Zi.s 			page 72


 2433 02ab C10A0000 		.4byte	.LASF29
 2434 02af 05       		.byte	0x5
 2435 02b0 62       		.byte	0x62
 2436 02b1 CA000000 		.4byte	0xca
 2437 02b5 24       		.byte	0x24
 2438 02b6 0D       		.uleb128 0xd
 2439 02b7 37080000 		.4byte	.LASF30
 2440 02bb 05       		.byte	0x5
 2441 02bc 63       		.byte	0x63
 2442 02bd D2020000 		.4byte	0x2d2
 2443 02c1 28       		.byte	0x28
 2444 02c2 00       		.byte	0
 2445 02c3 05       		.uleb128 0x5
 2446 02c4 12010000 		.4byte	0x112
 2447 02c8 06       		.uleb128 0x6
 2448 02c9 C3020000 		.4byte	0x2c3
 2449 02cd 05       		.uleb128 0x5
 2450 02ce 12010000 		.4byte	0x112
 2451 02d2 06       		.uleb128 0x6
 2452 02d3 CD020000 		.4byte	0x2cd
 2453 02d7 03       		.uleb128 0x3
 2454 02d8 910C0000 		.4byte	.LASF34
 2455 02dc 05       		.byte	0x5
 2456 02dd 64       		.byte	0x64
 2457 02de 72020000 		.4byte	0x272
 2458 02e2 0C       		.uleb128 0xc
 2459 02e3 40       		.byte	0x40
 2460 02e4 06       		.byte	0x6
 2461 02e5 25       		.byte	0x25
 2462 02e6 33030000 		.4byte	0x333
 2463 02ea 0D       		.uleb128 0xd
 2464 02eb 12050000 		.4byte	.LASF25
 2465 02ef 06       		.byte	0x6
 2466 02f0 26       		.byte	0x26
 2467 02f1 CA000000 		.4byte	0xca
 2468 02f5 00       		.byte	0
 2469 02f6 0D       		.uleb128 0xd
 2470 02f7 D7020000 		.4byte	.LASF26
 2471 02fb 06       		.byte	0x6
 2472 02fc 27       		.byte	0x27
 2473 02fd CA000000 		.4byte	0xca
 2474 0301 04       		.byte	0x4
 2475 0302 0D       		.uleb128 0xd
 2476 0303 360A0000 		.4byte	.LASF27
 2477 0307 06       		.byte	0x6
 2478 0308 28       		.byte	0x28
 2479 0309 38030000 		.4byte	0x338
 2480 030d 08       		.byte	0x8
 2481 030e 0D       		.uleb128 0xd
 2482 030f 18050000 		.4byte	.LASF28
 2483 0313 06       		.byte	0x6
 2484 0314 29       		.byte	0x29
 2485 0315 CF000000 		.4byte	0xcf
 2486 0319 20       		.byte	0x20
 2487 031a 0D       		.uleb128 0xd
 2488 031b C10A0000 		.4byte	.LASF29
 2489 031f 06       		.byte	0x6
ARM GAS  C:\Users\kiwamu\AppData\Local\Temp\ccLfX6Zi.s 			page 73


 2490 0320 2A       		.byte	0x2a
 2491 0321 CA000000 		.4byte	0xca
 2492 0325 24       		.byte	0x24
 2493 0326 0D       		.uleb128 0xd
 2494 0327 37080000 		.4byte	.LASF30
 2495 032b 06       		.byte	0x6
 2496 032c 2B       		.byte	0x2b
 2497 032d 42030000 		.4byte	0x342
 2498 0331 28       		.byte	0x28
 2499 0332 00       		.byte	0
 2500 0333 05       		.uleb128 0x5
 2501 0334 12010000 		.4byte	0x112
 2502 0338 06       		.uleb128 0x6
 2503 0339 33030000 		.4byte	0x333
 2504 033d 05       		.uleb128 0x5
 2505 033e 12010000 		.4byte	0x112
 2506 0342 06       		.uleb128 0x6
 2507 0343 3D030000 		.4byte	0x33d
 2508 0347 03       		.uleb128 0x3
 2509 0348 5C080000 		.4byte	.LASF35
 2510 034c 06       		.byte	0x6
 2511 034d 2C       		.byte	0x2c
 2512 034e E2020000 		.4byte	0x2e2
 2513 0352 0E       		.uleb128 0xe
 2514 0353 0040     		.2byte	0x4000
 2515 0355 06       		.byte	0x6
 2516 0356 31       		.byte	0x31
 2517 0357 42040000 		.4byte	0x442
 2518 035b 0D       		.uleb128 0xd
 2519 035c B4090000 		.4byte	.LASF36
 2520 0360 06       		.byte	0x6
 2521 0361 32       		.byte	0x32
 2522 0362 CA000000 		.4byte	0xca
 2523 0366 00       		.byte	0
 2524 0367 0D       		.uleb128 0xd
 2525 0368 A8040000 		.4byte	.LASF37
 2526 036c 06       		.byte	0x6
 2527 036d 33       		.byte	0x33
 2528 036e CA000000 		.4byte	0xca
 2529 0372 04       		.byte	0x4
 2530 0373 0D       		.uleb128 0xd
 2531 0374 510C0000 		.4byte	.LASF38
 2532 0378 06       		.byte	0x6
 2533 0379 34       		.byte	0x34
 2534 037a CA000000 		.4byte	0xca
 2535 037e 08       		.byte	0x8
 2536 037f 0D       		.uleb128 0xd
 2537 0380 45090000 		.4byte	.LASF39
 2538 0384 06       		.byte	0x6
 2539 0385 35       		.byte	0x35
 2540 0386 CA000000 		.4byte	0xca
 2541 038a 0C       		.byte	0xc
 2542 038b 0D       		.uleb128 0xd
 2543 038c 80020000 		.4byte	.LASF40
 2544 0390 06       		.byte	0x6
 2545 0391 36       		.byte	0x36
 2546 0392 CA000000 		.4byte	0xca
ARM GAS  C:\Users\kiwamu\AppData\Local\Temp\ccLfX6Zi.s 			page 74


 2547 0396 10       		.byte	0x10
 2548 0397 0D       		.uleb128 0xd
 2549 0398 1A0B0000 		.4byte	.LASF41
 2550 039c 06       		.byte	0x6
 2551 039d 37       		.byte	0x37
 2552 039e CA000000 		.4byte	0xca
 2553 03a2 14       		.byte	0x14
 2554 03a3 0D       		.uleb128 0xd
 2555 03a4 50060000 		.4byte	.LASF42
 2556 03a8 06       		.byte	0x6
 2557 03a9 38       		.byte	0x38
 2558 03aa CA000000 		.4byte	0xca
 2559 03ae 18       		.byte	0x18
 2560 03af 0D       		.uleb128 0xd
 2561 03b0 4B010000 		.4byte	.LASF43
 2562 03b4 06       		.byte	0x6
 2563 03b5 39       		.byte	0x39
 2564 03b6 CA000000 		.4byte	0xca
 2565 03ba 1C       		.byte	0x1c
 2566 03bb 0D       		.uleb128 0xd
 2567 03bc 9A0A0000 		.4byte	.LASF44
 2568 03c0 06       		.byte	0x6
 2569 03c1 3A       		.byte	0x3a
 2570 03c2 CA000000 		.4byte	0xca
 2571 03c6 20       		.byte	0x20
 2572 03c7 0D       		.uleb128 0xd
 2573 03c8 E6040000 		.4byte	.LASF45
 2574 03cc 06       		.byte	0x6
 2575 03cd 3B       		.byte	0x3b
 2576 03ce CA000000 		.4byte	0xca
 2577 03d2 24       		.byte	0x24
 2578 03d3 0D       		.uleb128 0xd
 2579 03d4 12000000 		.4byte	.LASF46
 2580 03d8 06       		.byte	0x6
 2581 03d9 3C       		.byte	0x3c
 2582 03da CA000000 		.4byte	0xca
 2583 03de 28       		.byte	0x28
 2584 03df 0D       		.uleb128 0xd
 2585 03e0 E0080000 		.4byte	.LASF47
 2586 03e4 06       		.byte	0x6
 2587 03e5 3D       		.byte	0x3d
 2588 03e6 CA000000 		.4byte	0xca
 2589 03ea 2C       		.byte	0x2c
 2590 03eb 0D       		.uleb128 0xd
 2591 03ec 3C090000 		.4byte	.LASF48
 2592 03f0 06       		.byte	0x6
 2593 03f1 3E       		.byte	0x3e
 2594 03f2 CA000000 		.4byte	0xca
 2595 03f6 30       		.byte	0x30
 2596 03f7 0D       		.uleb128 0xd
 2597 03f8 540B0000 		.4byte	.LASF49
 2598 03fc 06       		.byte	0x6
 2599 03fd 3F       		.byte	0x3f
 2600 03fe CA000000 		.4byte	0xca
 2601 0402 34       		.byte	0x34
 2602 0403 0D       		.uleb128 0xd
 2603 0404 19070000 		.4byte	.LASF50
ARM GAS  C:\Users\kiwamu\AppData\Local\Temp\ccLfX6Zi.s 			page 75


 2604 0408 06       		.byte	0x6
 2605 0409 40       		.byte	0x40
 2606 040a CA000000 		.4byte	0xca
 2607 040e 38       		.byte	0x38
 2608 040f 0D       		.uleb128 0xd
 2609 0410 BB010000 		.4byte	.LASF51
 2610 0414 06       		.byte	0x6
 2611 0415 41       		.byte	0x41
 2612 0416 CA000000 		.4byte	0xca
 2613 041a 3C       		.byte	0x3c
 2614 041b 0D       		.uleb128 0xd
 2615 041c 360A0000 		.4byte	.LASF27
 2616 0420 06       		.byte	0x6
 2617 0421 42       		.byte	0x42
 2618 0422 58040000 		.4byte	0x458
 2619 0426 40       		.byte	0x40
 2620 0427 0F       		.uleb128 0xf
 2621 0428 580A0000 		.4byte	.LASF52
 2622 042c 06       		.byte	0x6
 2623 042d 43       		.byte	0x43
 2624 042e 5D040000 		.4byte	0x45d
 2625 0432 0020     		.2byte	0x2000
 2626 0434 0F       		.uleb128 0xf
 2627 0435 37080000 		.4byte	.LASF30
 2628 0439 06       		.byte	0x6
 2629 043a 44       		.byte	0x44
 2630 043b 83040000 		.4byte	0x483
 2631 043f 0028     		.2byte	0x2800
 2632 0441 00       		.byte	0
 2633 0442 0A       		.uleb128 0xa
 2634 0443 CF000000 		.4byte	0xcf
 2635 0447 53040000 		.4byte	0x453
 2636 044b 10       		.uleb128 0x10
 2637 044c C3000000 		.4byte	0xc3
 2638 0450 EF07     		.2byte	0x7ef
 2639 0452 00       		.byte	0
 2640 0453 05       		.uleb128 0x5
 2641 0454 42040000 		.4byte	0x442
 2642 0458 06       		.uleb128 0x6
 2643 0459 53040000 		.4byte	0x453
 2644 045d 0A       		.uleb128 0xa
 2645 045e 47030000 		.4byte	0x347
 2646 0462 6D040000 		.4byte	0x46d
 2647 0466 0B       		.uleb128 0xb
 2648 0467 C3000000 		.4byte	0xc3
 2649 046b 1F       		.byte	0x1f
 2650 046c 00       		.byte	0
 2651 046d 0A       		.uleb128 0xa
 2652 046e CF000000 		.4byte	0xcf
 2653 0472 7E040000 		.4byte	0x47e
 2654 0476 10       		.uleb128 0x10
 2655 0477 C3000000 		.4byte	0xc3
 2656 047b FF05     		.2byte	0x5ff
 2657 047d 00       		.byte	0
 2658 047e 05       		.uleb128 0x5
 2659 047f 6D040000 		.4byte	0x46d
 2660 0483 06       		.uleb128 0x6
ARM GAS  C:\Users\kiwamu\AppData\Local\Temp\ccLfX6Zi.s 			page 76


 2661 0484 7E040000 		.4byte	0x47e
 2662 0488 03       		.uleb128 0x3
 2663 0489 A20A0000 		.4byte	.LASF53
 2664 048d 06       		.byte	0x6
 2665 048e 45       		.byte	0x45
 2666 048f 52030000 		.4byte	0x352
 2667 0493 0C       		.uleb128 0xc
 2668 0494 20       		.byte	0x20
 2669 0495 06       		.byte	0x6
 2670 0496 4A       		.byte	0x4a
 2671 0497 C0040000 		.4byte	0x4c0
 2672 049b 0D       		.uleb128 0xd
 2673 049c 53010000 		.4byte	.LASF54
 2674 04a0 06       		.byte	0x6
 2675 04a1 4B       		.byte	0x4b
 2676 04a2 CA000000 		.4byte	0xca
 2677 04a6 00       		.byte	0
 2678 04a7 11       		.uleb128 0x11
 2679 04a8 41545400 		.ascii	"ATT\000"
 2680 04ac 06       		.byte	0x6
 2681 04ad 4C       		.byte	0x4c
 2682 04ae CA000000 		.4byte	0xca
 2683 04b2 04       		.byte	0x4
 2684 04b3 0D       		.uleb128 0xd
 2685 04b4 360A0000 		.4byte	.LASF27
 2686 04b8 06       		.byte	0x6
 2687 04b9 4D       		.byte	0x4d
 2688 04ba C5040000 		.4byte	0x4c5
 2689 04be 08       		.byte	0x8
 2690 04bf 00       		.byte	0
 2691 04c0 05       		.uleb128 0x5
 2692 04c1 12010000 		.4byte	0x112
 2693 04c5 06       		.uleb128 0x6
 2694 04c6 C0040000 		.4byte	0x4c0
 2695 04ca 03       		.uleb128 0x3
 2696 04cb 88020000 		.4byte	.LASF55
 2697 04cf 06       		.byte	0x6
 2698 04d0 4E       		.byte	0x4e
 2699 04d1 93040000 		.4byte	0x493
 2700 04d5 0E       		.uleb128 0xe
 2701 04d6 0004     		.2byte	0x400
 2702 04d8 06       		.byte	0x6
 2703 04d9 53       		.byte	0x53
 2704 04da 04050000 		.4byte	0x504
 2705 04de 0D       		.uleb128 0xd
 2706 04df E1060000 		.4byte	.LASF56
 2707 04e3 06       		.byte	0x6
 2708 04e4 54       		.byte	0x54
 2709 04e5 CA000000 		.4byte	0xca
 2710 04e9 00       		.byte	0
 2711 04ea 0D       		.uleb128 0xd
 2712 04eb 360A0000 		.4byte	.LASF27
 2713 04ef 06       		.byte	0x6
 2714 04f0 55       		.byte	0x55
 2715 04f1 19050000 		.4byte	0x519
 2716 04f5 04       		.byte	0x4
 2717 04f6 0F       		.uleb128 0xf
ARM GAS  C:\Users\kiwamu\AppData\Local\Temp\ccLfX6Zi.s 			page 77


 2718 04f7 EF020000 		.4byte	.LASF57
 2719 04fb 06       		.byte	0x6
 2720 04fc 56       		.byte	0x56
 2721 04fd 1E050000 		.4byte	0x51e
 2722 0501 0002     		.2byte	0x200
 2723 0503 00       		.byte	0
 2724 0504 0A       		.uleb128 0xa
 2725 0505 CF000000 		.4byte	0xcf
 2726 0509 14050000 		.4byte	0x514
 2727 050d 0B       		.uleb128 0xb
 2728 050e C3000000 		.4byte	0xc3
 2729 0512 7E       		.byte	0x7e
 2730 0513 00       		.byte	0
 2731 0514 05       		.uleb128 0x5
 2732 0515 04050000 		.4byte	0x504
 2733 0519 06       		.uleb128 0x6
 2734 051a 14050000 		.4byte	0x514
 2735 051e 0A       		.uleb128 0xa
 2736 051f CA040000 		.4byte	0x4ca
 2737 0523 2E050000 		.4byte	0x52e
 2738 0527 0B       		.uleb128 0xb
 2739 0528 C3000000 		.4byte	0xc3
 2740 052c 0F       		.byte	0xf
 2741 052d 00       		.byte	0
 2742 052e 03       		.uleb128 0x3
 2743 052f 11060000 		.4byte	.LASF58
 2744 0533 06       		.byte	0x6
 2745 0534 57       		.byte	0x57
 2746 0535 D5040000 		.4byte	0x4d5
 2747 0539 0E       		.uleb128 0xe
 2748 053a 0080     		.2byte	0x8000
 2749 053c 06       		.byte	0x6
 2750 053d 5C       		.byte	0x5c
 2751 053e 5C050000 		.4byte	0x55c
 2752 0542 0D       		.uleb128 0xd
 2753 0543 39010000 		.4byte	.LASF59
 2754 0547 06       		.byte	0x6
 2755 0548 5D       		.byte	0x5d
 2756 0549 88040000 		.4byte	0x488
 2757 054d 00       		.byte	0
 2758 054e 0F       		.uleb128 0xf
 2759 054f DB060000 		.4byte	.LASF60
 2760 0553 06       		.byte	0x6
 2761 0554 5E       		.byte	0x5e
 2762 0555 5C050000 		.4byte	0x55c
 2763 0559 0040     		.2byte	0x4000
 2764 055b 00       		.byte	0
 2765 055c 0A       		.uleb128 0xa
 2766 055d 2E050000 		.4byte	0x52e
 2767 0561 6C050000 		.4byte	0x56c
 2768 0565 0B       		.uleb128 0xb
 2769 0566 C3000000 		.4byte	0xc3
 2770 056a 0F       		.byte	0xf
 2771 056b 00       		.byte	0
 2772 056c 03       		.uleb128 0x3
 2773 056d 98010000 		.4byte	.LASF61
 2774 0571 06       		.byte	0x6
ARM GAS  C:\Users\kiwamu\AppData\Local\Temp\ccLfX6Zi.s 			page 78


 2775 0572 5F       		.byte	0x5f
 2776 0573 39050000 		.4byte	0x539
 2777 0577 02       		.uleb128 0x2
 2778 0578 01       		.byte	0x1
 2779 0579 08       		.byte	0x8
 2780 057a 0F0A0000 		.4byte	.LASF62
 2781 057e 02       		.uleb128 0x2
 2782 057f 04       		.byte	0x4
 2783 0580 04       		.byte	0x4
 2784 0581 670B0000 		.4byte	.LASF63
 2785 0585 02       		.uleb128 0x2
 2786 0586 08       		.byte	0x8
 2787 0587 04       		.byte	0x4
 2788 0588 79020000 		.4byte	.LASF64
 2789 058c 12       		.uleb128 0x12
 2790 058d 04       		.byte	0x4
 2791 058e 90000000 		.4byte	0x90
 2792 0592 07       		.byte	0x7
 2793 0593 AE       		.byte	0xae
 2794 0594 B1050000 		.4byte	0x5b1
 2795 0598 08       		.uleb128 0x8
 2796 0599 C1030000 		.4byte	.LASF65
 2797 059d 00       		.byte	0
 2798 059e 13       		.uleb128 0x13
 2799 059f 2F000000 		.4byte	.LASF66
 2800 05a3 0100C200 		.4byte	0xc20001
 2801 05a7 13       		.uleb128 0x13
 2802 05a8 8A0A0000 		.4byte	.LASF67
 2803 05ac 0300C200 		.4byte	0xc20003
 2804 05b0 00       		.byte	0
 2805 05b1 03       		.uleb128 0x3
 2806 05b2 FB090000 		.4byte	.LASF68
 2807 05b6 07       		.byte	0x7
 2808 05b7 B2       		.byte	0xb2
 2809 05b8 8C050000 		.4byte	0x58c
 2810 05bc 12       		.uleb128 0x12
 2811 05bd 01       		.byte	0x1
 2812 05be 37000000 		.4byte	0x37
 2813 05c2 07       		.byte	0x7
 2814 05c3 B8       		.byte	0xb8
 2815 05c4 F9050000 		.4byte	0x5f9
 2816 05c8 08       		.uleb128 0x8
 2817 05c9 45030000 		.4byte	.LASF69
 2818 05cd 00       		.byte	0
 2819 05ce 08       		.uleb128 0x8
 2820 05cf 7A070000 		.4byte	.LASF70
 2821 05d3 01       		.byte	0x1
 2822 05d4 08       		.uleb128 0x8
 2823 05d5 C3000000 		.4byte	.LASF71
 2824 05d9 02       		.byte	0x2
 2825 05da 08       		.uleb128 0x8
 2826 05db C60A0000 		.4byte	.LASF72
 2827 05df 03       		.byte	0x3
 2828 05e0 08       		.uleb128 0x8
 2829 05e1 DF070000 		.4byte	.LASF73
 2830 05e5 04       		.byte	0x4
 2831 05e6 08       		.uleb128 0x8
ARM GAS  C:\Users\kiwamu\AppData\Local\Temp\ccLfX6Zi.s 			page 79


 2832 05e7 D60A0000 		.4byte	.LASF74
 2833 05eb 05       		.byte	0x5
 2834 05ec 08       		.uleb128 0x8
 2835 05ed 58060000 		.4byte	.LASF75
 2836 05f1 06       		.byte	0x6
 2837 05f2 08       		.uleb128 0x8
 2838 05f3 28010000 		.4byte	.LASF76
 2839 05f7 07       		.byte	0x7
 2840 05f8 00       		.byte	0
 2841 05f9 03       		.uleb128 0x3
 2842 05fa BD0B0000 		.4byte	.LASF77
 2843 05fe 07       		.byte	0x7
 2844 05ff C1       		.byte	0xc1
 2845 0600 BC050000 		.4byte	0x5bc
 2846 0604 12       		.uleb128 0x12
 2847 0605 01       		.byte	0x1
 2848 0606 37000000 		.4byte	0x37
 2849 060a 07       		.byte	0x7
 2850 060b C7       		.byte	0xc7
 2851 060c A7060000 		.4byte	0x6a7
 2852 0610 08       		.uleb128 0x8
 2853 0611 86010000 		.4byte	.LASF78
 2854 0615 07       		.byte	0x7
 2855 0616 08       		.uleb128 0x8
 2856 0617 00000000 		.4byte	.LASF79
 2857 061b 08       		.byte	0x8
 2858 061c 08       		.uleb128 0x8
 2859 061d E4050000 		.4byte	.LASF80
 2860 0621 09       		.byte	0x9
 2861 0622 08       		.uleb128 0x8
 2862 0623 A1020000 		.4byte	.LASF81
 2863 0627 0A       		.byte	0xa
 2864 0628 08       		.uleb128 0x8
 2865 0629 430B0000 		.4byte	.LASF82
 2866 062d 0B       		.byte	0xb
 2867 062e 08       		.uleb128 0x8
 2868 062f FB010000 		.4byte	.LASF83
 2869 0633 0C       		.byte	0xc
 2870 0634 08       		.uleb128 0x8
 2871 0635 FF050000 		.4byte	.LASF84
 2872 0639 0D       		.byte	0xd
 2873 063a 08       		.uleb128 0x8
 2874 063b 84040000 		.4byte	.LASF85
 2875 063f 0E       		.byte	0xe
 2876 0640 08       		.uleb128 0x8
 2877 0641 B0040000 		.4byte	.LASF86
 2878 0645 0F       		.byte	0xf
 2879 0646 08       		.uleb128 0x8
 2880 0647 F3080000 		.4byte	.LASF87
 2881 064b 10       		.byte	0x10
 2882 064c 08       		.uleb128 0x8
 2883 064d A3030000 		.4byte	.LASF88
 2884 0651 11       		.byte	0x11
 2885 0652 08       		.uleb128 0x8
 2886 0653 D3040000 		.4byte	.LASF89
 2887 0657 12       		.byte	0x12
 2888 0658 08       		.uleb128 0x8
ARM GAS  C:\Users\kiwamu\AppData\Local\Temp\ccLfX6Zi.s 			page 80


 2889 0659 84090000 		.4byte	.LASF90
 2890 065d 13       		.byte	0x13
 2891 065e 08       		.uleb128 0x8
 2892 065f E8060000 		.4byte	.LASF91
 2893 0663 14       		.byte	0x14
 2894 0664 08       		.uleb128 0x8
 2895 0665 77080000 		.4byte	.LASF92
 2896 0669 15       		.byte	0x15
 2897 066a 08       		.uleb128 0x8
 2898 066b D3050000 		.4byte	.LASF93
 2899 066f 16       		.byte	0x16
 2900 0670 08       		.uleb128 0x8
 2901 0671 06090000 		.4byte	.LASF94
 2902 0675 17       		.byte	0x17
 2903 0676 08       		.uleb128 0x8
 2904 0677 25080000 		.4byte	.LASF95
 2905 067b 18       		.byte	0x18
 2906 067c 08       		.uleb128 0x8
 2907 067d 290B0000 		.4byte	.LASF96
 2908 0681 19       		.byte	0x19
 2909 0682 08       		.uleb128 0x8
 2910 0683 AA0B0000 		.4byte	.LASF97
 2911 0687 1A       		.byte	0x1a
 2912 0688 08       		.uleb128 0x8
 2913 0689 CC070000 		.4byte	.LASF98
 2914 068d 1B       		.byte	0x1b
 2915 068e 08       		.uleb128 0x8
 2916 068f 970B0000 		.4byte	.LASF99
 2917 0693 1C       		.byte	0x1c
 2918 0694 08       		.uleb128 0x8
 2919 0695 860B0000 		.4byte	.LASF100
 2920 0699 1D       		.byte	0x1d
 2921 069a 08       		.uleb128 0x8
 2922 069b EA090000 		.4byte	.LASF101
 2923 069f 1E       		.byte	0x1e
 2924 06a0 08       		.uleb128 0x8
 2925 06a1 C2040000 		.4byte	.LASF102
 2926 06a5 1F       		.byte	0x1f
 2927 06a6 00       		.byte	0
 2928 06a7 03       		.uleb128 0x3
 2929 06a8 4D090000 		.4byte	.LASF103
 2930 06ac 07       		.byte	0x7
 2931 06ad E1       		.byte	0xe1
 2932 06ae 04060000 		.4byte	0x604
 2933 06b2 14       		.uleb128 0x14
 2934 06b3 0C       		.byte	0xc
 2935 06b4 07       		.byte	0x7
 2936 06b5 9201     		.2byte	0x192
 2937 06b7 0A070000 		.4byte	0x70a
 2938 06bb 15       		.uleb128 0x15
 2939 06bc D3060000 		.4byte	.LASF104
 2940 06c0 07       		.byte	0x7
 2941 06c1 9401     		.2byte	0x194
 2942 06c3 0A070000 		.4byte	0x70a
 2943 06c7 00       		.byte	0
 2944 06c8 15       		.uleb128 0x15
 2945 06c9 7E0C0000 		.4byte	.LASF105
ARM GAS  C:\Users\kiwamu\AppData\Local\Temp\ccLfX6Zi.s 			page 81


 2946 06cd 07       		.byte	0x7
 2947 06ce 9501     		.2byte	0x195
 2948 06d0 A7060000 		.4byte	0x6a7
 2949 06d4 04       		.byte	0x4
 2950 06d5 15       		.uleb128 0x15
 2951 06d6 CF0B0000 		.4byte	.LASF106
 2952 06da 07       		.byte	0x7
 2953 06db 9601     		.2byte	0x196
 2954 06dd 97000000 		.4byte	0x97
 2955 06e1 05       		.byte	0x5
 2956 06e2 15       		.uleb128 0x15
 2957 06e3 C4060000 		.4byte	.LASF107
 2958 06e7 07       		.byte	0x7
 2959 06e8 9701     		.2byte	0x197
 2960 06ea F9050000 		.4byte	0x5f9
 2961 06ee 06       		.byte	0x6
 2962 06ef 15       		.uleb128 0x15
 2963 06f0 99070000 		.4byte	.LASF108
 2964 06f4 07       		.byte	0x7
 2965 06f5 9801     		.2byte	0x198
 2966 06f7 F9050000 		.4byte	0x5f9
 2967 06fb 07       		.byte	0x7
 2968 06fc 15       		.uleb128 0x15
 2969 06fd 55080000 		.4byte	.LASF109
 2970 0701 07       		.byte	0x7
 2971 0702 9901     		.2byte	0x199
 2972 0704 10070000 		.4byte	0x710
 2973 0708 08       		.byte	0x8
 2974 0709 00       		.byte	0
 2975 070a 16       		.uleb128 0x16
 2976 070b 04       		.byte	0x4
 2977 070c B8000000 		.4byte	0xb8
 2978 0710 02       		.uleb128 0x2
 2979 0711 01       		.byte	0x1
 2980 0712 02       		.byte	0x2
 2981 0713 AC080000 		.4byte	.LASF110
 2982 0717 09       		.uleb128 0x9
 2983 0718 EE040000 		.4byte	.LASF111
 2984 071c 07       		.byte	0x7
 2985 071d 9A01     		.2byte	0x19a
 2986 071f B2060000 		.4byte	0x6b2
 2987 0723 14       		.uleb128 0x14
 2988 0724 0C       		.byte	0xc
 2989 0725 07       		.byte	0x7
 2990 0726 9D01     		.2byte	0x19d
 2991 0728 95070000 		.4byte	0x795
 2992 072c 15       		.uleb128 0x15
 2993 072d D3060000 		.4byte	.LASF104
 2994 0731 07       		.byte	0x7
 2995 0732 9F01     		.2byte	0x19f
 2996 0734 0A070000 		.4byte	0x70a
 2997 0738 00       		.byte	0
 2998 0739 15       		.uleb128 0x15
 2999 073a 7E0C0000 		.4byte	.LASF105
 3000 073e 07       		.byte	0x7
 3001 073f A001     		.2byte	0x1a0
 3002 0741 A7060000 		.4byte	0x6a7
ARM GAS  C:\Users\kiwamu\AppData\Local\Temp\ccLfX6Zi.s 			page 82


 3003 0745 04       		.byte	0x4
 3004 0746 15       		.uleb128 0x15
 3005 0747 CF0B0000 		.4byte	.LASF106
 3006 074b 07       		.byte	0x7
 3007 074c A101     		.2byte	0x1a1
 3008 074e 97000000 		.4byte	0x97
 3009 0752 05       		.byte	0x5
 3010 0753 15       		.uleb128 0x15
 3011 0754 C4060000 		.4byte	.LASF107
 3012 0758 07       		.byte	0x7
 3013 0759 A201     		.2byte	0x1a2
 3014 075b F9050000 		.4byte	0x5f9
 3015 075f 06       		.byte	0x6
 3016 0760 15       		.uleb128 0x15
 3017 0761 99070000 		.4byte	.LASF108
 3018 0765 07       		.byte	0x7
 3019 0766 A301     		.2byte	0x1a3
 3020 0768 F9050000 		.4byte	0x5f9
 3021 076c 07       		.byte	0x7
 3022 076d 15       		.uleb128 0x15
 3023 076e 55080000 		.4byte	.LASF109
 3024 0772 07       		.byte	0x7
 3025 0773 A401     		.2byte	0x1a4
 3026 0775 10070000 		.4byte	0x710
 3027 0779 08       		.byte	0x8
 3028 077a 15       		.uleb128 0x15
 3029 077b 890C0000 		.4byte	.LASF112
 3030 077f 07       		.byte	0x7
 3031 0780 A501     		.2byte	0x1a5
 3032 0782 10070000 		.4byte	0x710
 3033 0786 09       		.byte	0x9
 3034 0787 15       		.uleb128 0x15
 3035 0788 58020000 		.4byte	.LASF113
 3036 078c 07       		.byte	0x7
 3037 078d A601     		.2byte	0x1a6
 3038 078f A2000000 		.4byte	0xa2
 3039 0793 0A       		.byte	0xa
 3040 0794 00       		.byte	0
 3041 0795 09       		.uleb128 0x9
 3042 0796 460A0000 		.4byte	.LASF114
 3043 079a 07       		.byte	0x7
 3044 079b A701     		.2byte	0x1a7
 3045 079d 23070000 		.4byte	0x723
 3046 07a1 14       		.uleb128 0x14
 3047 07a2 0C       		.byte	0xc
 3048 07a3 07       		.byte	0x7
 3049 07a4 AA01     		.2byte	0x1aa
 3050 07a6 13080000 		.4byte	0x813
 3051 07aa 15       		.uleb128 0x15
 3052 07ab D3060000 		.4byte	.LASF104
 3053 07af 07       		.byte	0x7
 3054 07b0 AC01     		.2byte	0x1ac
 3055 07b2 0A070000 		.4byte	0x70a
 3056 07b6 00       		.byte	0
 3057 07b7 15       		.uleb128 0x15
 3058 07b8 7E0C0000 		.4byte	.LASF105
 3059 07bc 07       		.byte	0x7
ARM GAS  C:\Users\kiwamu\AppData\Local\Temp\ccLfX6Zi.s 			page 83


 3060 07bd AD01     		.2byte	0x1ad
 3061 07bf A7060000 		.4byte	0x6a7
 3062 07c3 04       		.byte	0x4
 3063 07c4 15       		.uleb128 0x15
 3064 07c5 CF0B0000 		.4byte	.LASF106
 3065 07c9 07       		.byte	0x7
 3066 07ca AE01     		.2byte	0x1ae
 3067 07cc 97000000 		.4byte	0x97
 3068 07d0 05       		.byte	0x5
 3069 07d1 15       		.uleb128 0x15
 3070 07d2 C4060000 		.4byte	.LASF107
 3071 07d6 07       		.byte	0x7
 3072 07d7 AF01     		.2byte	0x1af
 3073 07d9 F9050000 		.4byte	0x5f9
 3074 07dd 06       		.byte	0x6
 3075 07de 15       		.uleb128 0x15
 3076 07df 99070000 		.4byte	.LASF108
 3077 07e3 07       		.byte	0x7
 3078 07e4 B001     		.2byte	0x1b0
 3079 07e6 F9050000 		.4byte	0x5f9
 3080 07ea 07       		.byte	0x7
 3081 07eb 15       		.uleb128 0x15
 3082 07ec 55080000 		.4byte	.LASF109
 3083 07f0 07       		.byte	0x7
 3084 07f1 B101     		.2byte	0x1b1
 3085 07f3 10070000 		.4byte	0x710
 3086 07f7 08       		.byte	0x8
 3087 07f8 15       		.uleb128 0x15
 3088 07f9 890C0000 		.4byte	.LASF112
 3089 07fd 07       		.byte	0x7
 3090 07fe B201     		.2byte	0x1b2
 3091 0800 10070000 		.4byte	0x710
 3092 0804 09       		.byte	0x9
 3093 0805 15       		.uleb128 0x15
 3094 0806 58020000 		.4byte	.LASF113
 3095 080a 07       		.byte	0x7
 3096 080b B301     		.2byte	0x1b3
 3097 080d A2000000 		.4byte	0xa2
 3098 0811 0A       		.byte	0xa
 3099 0812 00       		.byte	0
 3100 0813 09       		.uleb128 0x9
 3101 0814 80030000 		.4byte	.LASF115
 3102 0818 07       		.byte	0x7
 3103 0819 B401     		.2byte	0x1b4
 3104 081b A1070000 		.4byte	0x7a1
 3105 081f 14       		.uleb128 0x14
 3106 0820 06       		.byte	0x6
 3107 0821 07       		.byte	0x7
 3108 0822 B701     		.2byte	0x1b7
 3109 0824 6A080000 		.4byte	0x86a
 3110 0828 15       		.uleb128 0x15
 3111 0829 C4060000 		.4byte	.LASF107
 3112 082d 07       		.byte	0x7
 3113 082e B901     		.2byte	0x1b9
 3114 0830 F9050000 		.4byte	0x5f9
 3115 0834 00       		.byte	0
 3116 0835 15       		.uleb128 0x15
ARM GAS  C:\Users\kiwamu\AppData\Local\Temp\ccLfX6Zi.s 			page 84


 3117 0836 99070000 		.4byte	.LASF108
 3118 083a 07       		.byte	0x7
 3119 083b BA01     		.2byte	0x1ba
 3120 083d F9050000 		.4byte	0x5f9
 3121 0841 01       		.byte	0x1
 3122 0842 15       		.uleb128 0x15
 3123 0843 55080000 		.4byte	.LASF109
 3124 0847 07       		.byte	0x7
 3125 0848 BB01     		.2byte	0x1bb
 3126 084a 10070000 		.4byte	0x710
 3127 084e 02       		.byte	0x2
 3128 084f 15       		.uleb128 0x15
 3129 0850 890C0000 		.4byte	.LASF112
 3130 0854 07       		.byte	0x7
 3131 0855 BC01     		.2byte	0x1bc
 3132 0857 10070000 		.4byte	0x710
 3133 085b 03       		.byte	0x3
 3134 085c 15       		.uleb128 0x15
 3135 085d 58020000 		.4byte	.LASF113
 3136 0861 07       		.byte	0x7
 3137 0862 BD01     		.2byte	0x1bd
 3138 0864 A2000000 		.4byte	0xa2
 3139 0868 04       		.byte	0x4
 3140 0869 00       		.byte	0
 3141 086a 09       		.uleb128 0x9
 3142 086b 1B000000 		.4byte	.LASF116
 3143 086f 07       		.byte	0x7
 3144 0870 BE01     		.2byte	0x1be
 3145 0872 1F080000 		.4byte	0x81f
 3146 0876 14       		.uleb128 0x14
 3147 0877 06       		.byte	0x6
 3148 0878 07       		.byte	0x7
 3149 0879 C101     		.2byte	0x1c1
 3150 087b C1080000 		.4byte	0x8c1
 3151 087f 15       		.uleb128 0x15
 3152 0880 C4060000 		.4byte	.LASF107
 3153 0884 07       		.byte	0x7
 3154 0885 C301     		.2byte	0x1c3
 3155 0887 F9050000 		.4byte	0x5f9
 3156 088b 00       		.byte	0
 3157 088c 15       		.uleb128 0x15
 3158 088d 99070000 		.4byte	.LASF108
 3159 0891 07       		.byte	0x7
 3160 0892 C401     		.2byte	0x1c4
 3161 0894 F9050000 		.4byte	0x5f9
 3162 0898 01       		.byte	0x1
 3163 0899 15       		.uleb128 0x15
 3164 089a 55080000 		.4byte	.LASF109
 3165 089e 07       		.byte	0x7
 3166 089f C501     		.2byte	0x1c5
 3167 08a1 10070000 		.4byte	0x710
 3168 08a5 02       		.byte	0x2
 3169 08a6 15       		.uleb128 0x15
 3170 08a7 890C0000 		.4byte	.LASF112
 3171 08ab 07       		.byte	0x7
 3172 08ac C601     		.2byte	0x1c6
 3173 08ae 10070000 		.4byte	0x710
ARM GAS  C:\Users\kiwamu\AppData\Local\Temp\ccLfX6Zi.s 			page 85


 3174 08b2 03       		.byte	0x3
 3175 08b3 15       		.uleb128 0x15
 3176 08b4 58020000 		.4byte	.LASF113
 3177 08b8 07       		.byte	0x7
 3178 08b9 C701     		.2byte	0x1c7
 3179 08bb A2000000 		.4byte	0xa2
 3180 08bf 04       		.byte	0x4
 3181 08c0 00       		.byte	0
 3182 08c1 09       		.uleb128 0x9
 3183 08c2 41080000 		.4byte	.LASF117
 3184 08c6 07       		.byte	0x7
 3185 08c7 C801     		.2byte	0x1c8
 3186 08c9 76080000 		.4byte	0x876
 3187 08cd 14       		.uleb128 0x14
 3188 08ce 06       		.byte	0x6
 3189 08cf 07       		.byte	0x7
 3190 08d0 CB01     		.2byte	0x1cb
 3191 08d2 18090000 		.4byte	0x918
 3192 08d6 15       		.uleb128 0x15
 3193 08d7 C4060000 		.4byte	.LASF107
 3194 08db 07       		.byte	0x7
 3195 08dc CD01     		.2byte	0x1cd
 3196 08de F9050000 		.4byte	0x5f9
 3197 08e2 00       		.byte	0
 3198 08e3 15       		.uleb128 0x15
 3199 08e4 99070000 		.4byte	.LASF108
 3200 08e8 07       		.byte	0x7
 3201 08e9 CE01     		.2byte	0x1ce
 3202 08eb F9050000 		.4byte	0x5f9
 3203 08ef 01       		.byte	0x1
 3204 08f0 15       		.uleb128 0x15
 3205 08f1 55080000 		.4byte	.LASF109
 3206 08f5 07       		.byte	0x7
 3207 08f6 CF01     		.2byte	0x1cf
 3208 08f8 10070000 		.4byte	0x710
 3209 08fc 02       		.byte	0x2
 3210 08fd 15       		.uleb128 0x15
 3211 08fe 890C0000 		.4byte	.LASF112
 3212 0902 07       		.byte	0x7
 3213 0903 D001     		.2byte	0x1d0
 3214 0905 10070000 		.4byte	0x710
 3215 0909 03       		.byte	0x3
 3216 090a 15       		.uleb128 0x15
 3217 090b 58020000 		.4byte	.LASF113
 3218 090f 07       		.byte	0x7
 3219 0910 D101     		.2byte	0x1d1
 3220 0912 A2000000 		.4byte	0xa2
 3221 0916 04       		.byte	0x4
 3222 0917 00       		.byte	0
 3223 0918 09       		.uleb128 0x9
 3224 0919 41000000 		.4byte	.LASF118
 3225 091d 07       		.byte	0x7
 3226 091e D201     		.2byte	0x1d2
 3227 0920 CD080000 		.4byte	0x8cd
 3228 0924 17       		.uleb128 0x17
 3229 0925 62070000 		.4byte	.LASF124
 3230 0929 01       		.byte	0x1
ARM GAS  C:\Users\kiwamu\AppData\Local\Temp\ccLfX6Zi.s 			page 86


 3231 092a 39       		.byte	0x39
 3232 092b B1050000 		.4byte	0x5b1
 3233 092f 00000000 		.4byte	.LFB123
 3234 0933 34000000 		.4byte	.LFE123-.LFB123
 3235 0937 01       		.uleb128 0x1
 3236 0938 9C       		.byte	0x9c
 3237 0939 A5090000 		.4byte	0x9a5
 3238 093d 18       		.uleb128 0x18
 3239 093e 1F060000 		.4byte	.LASF119
 3240 0942 01       		.byte	0x1
 3241 0943 39       		.byte	0x39
 3242 0944 06010000 		.4byte	0x106
 3243 0948 00000000 		.4byte	.LLST0
 3244 094c 19       		.uleb128 0x19
 3245 094d B6030000 		.4byte	.LASF120
 3246 0951 01       		.byte	0x1
 3247 0952 39       		.byte	0x39
 3248 0953 10070000 		.4byte	0x710
 3249 0957 01       		.uleb128 0x1
 3250 0958 51       		.byte	0x51
 3251 0959 18       		.uleb128 0x18
 3252 095a 55080000 		.4byte	.LASF109
 3253 095e 01       		.byte	0x1
 3254 095f 39       		.byte	0x39
 3255 0960 10070000 		.4byte	0x710
 3256 0964 3A000000 		.4byte	.LLST1
 3257 0968 18       		.uleb128 0x18
 3258 0969 58020000 		.4byte	.LASF113
 3259 096d 01       		.byte	0x1
 3260 096e 39       		.byte	0x39
 3261 096f B8000000 		.4byte	0xb8
 3262 0973 66000000 		.4byte	.LLST2
 3263 0977 1A       		.uleb128 0x1a
 3264 0978 220B0000 		.4byte	.LASF121
 3265 097c 01       		.byte	0x1
 3266 097d 3B       		.byte	0x3b
 3267 097e B1050000 		.4byte	0x5b1
 3268 0982 92000000 		.4byte	.LLST3
 3269 0986 1A       		.uleb128 0x1a
 3270 0987 CC050000 		.4byte	.LASF122
 3271 098b 01       		.byte	0x1
 3272 098c 3C       		.byte	0x3c
 3273 098d B8000000 		.4byte	0xb8
 3274 0991 B1000000 		.4byte	.LLST4
 3275 0995 1A       		.uleb128 0x1a
 3276 0996 5D0B0000 		.4byte	.LASF123
 3277 099a 01       		.byte	0x1
 3278 099b 3D       		.byte	0x3d
 3279 099c 0A070000 		.4byte	0x70a
 3280 09a0 C4000000 		.4byte	.LLST5
 3281 09a4 00       		.byte	0
 3282 09a5 17       		.uleb128 0x17
 3283 09a6 7F050000 		.4byte	.LASF125
 3284 09aa 01       		.byte	0x1
 3285 09ab 6B       		.byte	0x6b
 3286 09ac B1050000 		.4byte	0x5b1
 3287 09b0 00000000 		.4byte	.LFB124
ARM GAS  C:\Users\kiwamu\AppData\Local\Temp\ccLfX6Zi.s 			page 87


 3288 09b4 3C000000 		.4byte	.LFE124-.LFB124
 3289 09b8 01       		.uleb128 0x1
 3290 09b9 9C       		.byte	0x9c
 3291 09ba F8090000 		.4byte	0x9f8
 3292 09be 18       		.uleb128 0x18
 3293 09bf 1F060000 		.4byte	.LASF119
 3294 09c3 01       		.byte	0x1
 3295 09c4 6B       		.byte	0x6b
 3296 09c5 06010000 		.4byte	0x106
 3297 09c9 22010000 		.4byte	.LLST6
 3298 09cd 1B       		.uleb128 0x1b
 3299 09ce 706300   		.ascii	"pc\000"
 3300 09d1 01       		.byte	0x1
 3301 09d2 6B       		.byte	0x6b
 3302 09d3 B8000000 		.4byte	0xb8
 3303 09d7 01       		.uleb128 0x1
 3304 09d8 51       		.byte	0x51
 3305 09d9 1A       		.uleb128 0x1a
 3306 09da 220B0000 		.4byte	.LASF121
 3307 09de 01       		.byte	0x1
 3308 09df 6D       		.byte	0x6d
 3309 09e0 B1050000 		.4byte	0x5b1
 3310 09e4 43010000 		.4byte	.LLST7
 3311 09e8 1A       		.uleb128 0x1a
 3312 09e9 DC020000 		.4byte	.LASF126
 3313 09ed 01       		.byte	0x1
 3314 09ee 6E       		.byte	0x6e
 3315 09ef F8090000 		.4byte	0x9f8
 3316 09f3 62010000 		.4byte	.LLST8
 3317 09f7 00       		.byte	0
 3318 09f8 16       		.uleb128 0x16
 3319 09f9 04       		.byte	0x4
 3320 09fa 2E050000 		.4byte	0x52e
 3321 09fe 17       		.uleb128 0x17
 3322 09ff 58010000 		.4byte	.LASF127
 3323 0a03 01       		.byte	0x1
 3324 0a04 8D       		.byte	0x8d
 3325 0a05 B8000000 		.4byte	0xb8
 3326 0a09 00000000 		.4byte	.LFB125
 3327 0a0d 12000000 		.4byte	.LFE125-.LFB125
 3328 0a11 01       		.uleb128 0x1
 3329 0a12 9C       		.byte	0x9c
 3330 0a13 360A0000 		.4byte	0xa36
 3331 0a17 18       		.uleb128 0x18
 3332 0a18 1F060000 		.4byte	.LASF119
 3333 0a1c 01       		.byte	0x1
 3334 0a1d 8D       		.byte	0x8d
 3335 0a1e 06010000 		.4byte	0x106
 3336 0a22 8B010000 		.4byte	.LLST9
 3337 0a26 1A       		.uleb128 0x1a
 3338 0a27 DC020000 		.4byte	.LASF126
 3339 0a2b 01       		.byte	0x1
 3340 0a2c 8F       		.byte	0x8f
 3341 0a2d F8090000 		.4byte	0x9f8
 3342 0a31 AC010000 		.4byte	.LLST10
 3343 0a35 00       		.byte	0
 3344 0a36 17       		.uleb128 0x17
ARM GAS  C:\Users\kiwamu\AppData\Local\Temp\ccLfX6Zi.s 			page 88


 3345 0a37 C8080000 		.4byte	.LASF128
 3346 0a3b 01       		.byte	0x1
 3347 0a3c AE       		.byte	0xae
 3348 0a3d B1050000 		.4byte	0x5b1
 3349 0a41 00000000 		.4byte	.LFB126
 3350 0a45 58000000 		.4byte	.LFE126-.LFB126
 3351 0a49 01       		.uleb128 0x1
 3352 0a4a 9C       		.byte	0x9c
 3353 0a4b 970A0000 		.4byte	0xa97
 3354 0a4f 18       		.uleb128 0x18
 3355 0a50 29060000 		.4byte	.LASF129
 3356 0a54 01       		.byte	0x1
 3357 0a55 AE       		.byte	0xae
 3358 0a56 970A0000 		.4byte	0xa97
 3359 0a5a BF010000 		.4byte	.LLST11
 3360 0a5e 19       		.uleb128 0x19
 3361 0a5f 140A0000 		.4byte	.LASF130
 3362 0a63 01       		.byte	0x1
 3363 0a64 AE       		.byte	0xae
 3364 0a65 9D0A0000 		.4byte	0xa9d
 3365 0a69 01       		.uleb128 0x1
 3366 0a6a 51       		.byte	0x51
 3367 0a6b 1A       		.uleb128 0x1a
 3368 0a6c 220B0000 		.4byte	.LASF121
 3369 0a70 01       		.byte	0x1
 3370 0a71 B0       		.byte	0xb0
 3371 0a72 B1050000 		.4byte	0x5b1
 3372 0a76 12020000 		.4byte	.LLST12
 3373 0a7a 1A       		.uleb128 0x1a
 3374 0a7b 09010000 		.4byte	.LASF131
 3375 0a7f 01       		.byte	0x1
 3376 0a80 B1       		.byte	0xb1
 3377 0a81 B8000000 		.4byte	0xb8
 3378 0a85 31020000 		.4byte	.LLST13
 3379 0a89 1C       		.uleb128 0x1c
 3380 0a8a 3F0A0000 		.4byte	.LASF132
 3381 0a8e 01       		.byte	0x1
 3382 0a8f B2       		.byte	0xb2
 3383 0a90 B8000000 		.4byte	0xb8
 3384 0a94 01       		.uleb128 0x1
 3385 0a95 53       		.byte	0x53
 3386 0a96 00       		.byte	0
 3387 0a97 16       		.uleb128 0x16
 3388 0a98 04       		.byte	0x4
 3389 0a99 CA040000 		.4byte	0x4ca
 3390 0a9d 16       		.uleb128 0x16
 3391 0a9e 04       		.byte	0x4
 3392 0a9f A30A0000 		.4byte	0xaa3
 3393 0aa3 06       		.uleb128 0x6
 3394 0aa4 17070000 		.4byte	0x717
 3395 0aa8 17       		.uleb128 0x17
 3396 0aa9 EE070000 		.4byte	.LASF133
 3397 0aad 01       		.byte	0x1
 3398 0aae D5       		.byte	0xd5
 3399 0aaf B1050000 		.4byte	0x5b1
 3400 0ab3 00000000 		.4byte	.LFB127
 3401 0ab7 1C000000 		.4byte	.LFE127-.LFB127
ARM GAS  C:\Users\kiwamu\AppData\Local\Temp\ccLfX6Zi.s 			page 89


 3402 0abb 01       		.uleb128 0x1
 3403 0abc 9C       		.byte	0x9c
 3404 0abd E00A0000 		.4byte	0xae0
 3405 0ac1 18       		.uleb128 0x18
 3406 0ac2 29060000 		.4byte	.LASF129
 3407 0ac6 01       		.byte	0x1
 3408 0ac7 D5       		.byte	0xd5
 3409 0ac8 970A0000 		.4byte	0xa97
 3410 0acc 51020000 		.4byte	.LLST14
 3411 0ad0 1A       		.uleb128 0x1a
 3412 0ad1 220B0000 		.4byte	.LASF121
 3413 0ad5 01       		.byte	0x1
 3414 0ad6 D7       		.byte	0xd7
 3415 0ad7 B1050000 		.4byte	0x5b1
 3416 0adb 8B020000 		.4byte	.LLST15
 3417 0adf 00       		.byte	0
 3418 0ae0 17       		.uleb128 0x17
 3419 0ae1 A2010000 		.4byte	.LASF134
 3420 0ae5 01       		.byte	0x1
 3421 0ae6 F4       		.byte	0xf4
 3422 0ae7 B1050000 		.4byte	0x5b1
 3423 0aeb 00000000 		.4byte	.LFB128
 3424 0aef 1C000000 		.4byte	.LFE128-.LFB128
 3425 0af3 01       		.uleb128 0x1
 3426 0af4 9C       		.byte	0x9c
 3427 0af5 180B0000 		.4byte	0xb18
 3428 0af9 18       		.uleb128 0x18
 3429 0afa 29060000 		.4byte	.LASF129
 3430 0afe 01       		.byte	0x1
 3431 0aff F4       		.byte	0xf4
 3432 0b00 970A0000 		.4byte	0xa97
 3433 0b04 AA020000 		.4byte	.LLST16
 3434 0b08 1A       		.uleb128 0x1a
 3435 0b09 220B0000 		.4byte	.LASF121
 3436 0b0d 01       		.byte	0x1
 3437 0b0e F6       		.byte	0xf6
 3438 0b0f B1050000 		.4byte	0x5b1
 3439 0b13 E4020000 		.4byte	.LLST17
 3440 0b17 00       		.byte	0
 3441 0b18 1D       		.uleb128 0x1d
 3442 0b19 30020000 		.4byte	.LASF135
 3443 0b1d 01       		.byte	0x1
 3444 0b1e 1F01     		.2byte	0x11f
 3445 0b20 B1050000 		.4byte	0x5b1
 3446 0b24 00000000 		.4byte	.LFB129
 3447 0b28 78000000 		.4byte	.LFE129-.LFB129
 3448 0b2c 01       		.uleb128 0x1
 3449 0b2d 9C       		.byte	0x9c
 3450 0b2e 730B0000 		.4byte	0xb73
 3451 0b32 1E       		.uleb128 0x1e
 3452 0b33 29060000 		.4byte	.LASF129
 3453 0b37 01       		.byte	0x1
 3454 0b38 1F01     		.2byte	0x11f
 3455 0b3a 730B0000 		.4byte	0xb73
 3456 0b3e 03030000 		.4byte	.LLST18
 3457 0b42 1E       		.uleb128 0x1e
 3458 0b43 140A0000 		.4byte	.LASF130
ARM GAS  C:\Users\kiwamu\AppData\Local\Temp\ccLfX6Zi.s 			page 90


 3459 0b47 01       		.byte	0x1
 3460 0b48 1F01     		.2byte	0x11f
 3461 0b4a 790B0000 		.4byte	0xb79
 3462 0b4e 6F030000 		.4byte	.LLST19
 3463 0b52 1F       		.uleb128 0x1f
 3464 0b53 220B0000 		.4byte	.LASF121
 3465 0b57 01       		.byte	0x1
 3466 0b58 2101     		.2byte	0x121
 3467 0b5a B1050000 		.4byte	0x5b1
 3468 0b5e A9030000 		.4byte	.LLST20
 3469 0b62 1F       		.uleb128 0x1f
 3470 0b63 3F0A0000 		.4byte	.LASF132
 3471 0b67 01       		.byte	0x1
 3472 0b68 2201     		.2byte	0x122
 3473 0b6a B8000000 		.4byte	0xb8
 3474 0b6e C8030000 		.4byte	.LLST21
 3475 0b72 00       		.byte	0
 3476 0b73 16       		.uleb128 0x16
 3477 0b74 04       		.byte	0x4
 3478 0b75 47030000 		.4byte	0x347
 3479 0b79 16       		.uleb128 0x16
 3480 0b7a 04       		.byte	0x4
 3481 0b7b 7F0B0000 		.4byte	0xb7f
 3482 0b7f 06       		.uleb128 0x6
 3483 0b80 95070000 		.4byte	0x795
 3484 0b84 1D       		.uleb128 0x1d
 3485 0b85 A5000000 		.4byte	.LASF136
 3486 0b89 01       		.byte	0x1
 3487 0b8a 5B01     		.2byte	0x15b
 3488 0b8c B1050000 		.4byte	0x5b1
 3489 0b90 00000000 		.4byte	.LFB130
 3490 0b94 80000000 		.4byte	.LFE130-.LFB130
 3491 0b98 01       		.uleb128 0x1
 3492 0b99 9C       		.byte	0x9c
 3493 0b9a ED0B0000 		.4byte	0xbed
 3494 0b9e 1E       		.uleb128 0x1e
 3495 0b9f 29060000 		.4byte	.LASF129
 3496 0ba3 01       		.byte	0x1
 3497 0ba4 5B01     		.2byte	0x15b
 3498 0ba6 730B0000 		.4byte	0xb73
 3499 0baa E6030000 		.4byte	.LLST22
 3500 0bae 20       		.uleb128 0x20
 3501 0baf 140A0000 		.4byte	.LASF130
 3502 0bb3 01       		.byte	0x1
 3503 0bb4 5B01     		.2byte	0x15b
 3504 0bb6 790B0000 		.4byte	0xb79
 3505 0bba 01       		.uleb128 0x1
 3506 0bbb 51       		.byte	0x51
 3507 0bbc 1F       		.uleb128 0x1f
 3508 0bbd 220B0000 		.4byte	.LASF121
 3509 0bc1 01       		.byte	0x1
 3510 0bc2 5D01     		.2byte	0x15d
 3511 0bc4 B1050000 		.4byte	0x5b1
 3512 0bc8 52040000 		.4byte	.LLST23
 3513 0bcc 1F       		.uleb128 0x1f
 3514 0bcd 09010000 		.4byte	.LASF131
 3515 0bd1 01       		.byte	0x1
ARM GAS  C:\Users\kiwamu\AppData\Local\Temp\ccLfX6Zi.s 			page 91


 3516 0bd2 5E01     		.2byte	0x15e
 3517 0bd4 B8000000 		.4byte	0xb8
 3518 0bd8 71040000 		.4byte	.LLST24
 3519 0bdc 1F       		.uleb128 0x1f
 3520 0bdd 3F0A0000 		.4byte	.LASF132
 3521 0be1 01       		.byte	0x1
 3522 0be2 5F01     		.2byte	0x15f
 3523 0be4 B8000000 		.4byte	0xb8
 3524 0be8 8F040000 		.4byte	.LLST25
 3525 0bec 00       		.byte	0
 3526 0bed 1D       		.uleb128 0x1d
 3527 0bee 06080000 		.4byte	.LASF137
 3528 0bf2 01       		.byte	0x1
 3529 0bf3 8F01     		.2byte	0x18f
 3530 0bf5 B1050000 		.4byte	0x5b1
 3531 0bf9 00000000 		.4byte	.LFB131
 3532 0bfd 1C000000 		.4byte	.LFE131-.LFB131
 3533 0c01 01       		.uleb128 0x1
 3534 0c02 9C       		.byte	0x9c
 3535 0c03 280C0000 		.4byte	0xc28
 3536 0c07 1E       		.uleb128 0x1e
 3537 0c08 29060000 		.4byte	.LASF129
 3538 0c0c 01       		.byte	0x1
 3539 0c0d 8F01     		.2byte	0x18f
 3540 0c0f 730B0000 		.4byte	0xb73
 3541 0c13 AD040000 		.4byte	.LLST26
 3542 0c17 1F       		.uleb128 0x1f
 3543 0c18 220B0000 		.4byte	.LASF121
 3544 0c1c 01       		.byte	0x1
 3545 0c1d 9101     		.2byte	0x191
 3546 0c1f B1050000 		.4byte	0x5b1
 3547 0c23 E7040000 		.4byte	.LLST27
 3548 0c27 00       		.byte	0
 3549 0c28 1D       		.uleb128 0x1d
 3550 0c29 F9060000 		.4byte	.LASF138
 3551 0c2d 01       		.byte	0x1
 3552 0c2e B001     		.2byte	0x1b0
 3553 0c30 B1050000 		.4byte	0x5b1
 3554 0c34 00000000 		.4byte	.LFB132
 3555 0c38 1C000000 		.4byte	.LFE132-.LFB132
 3556 0c3c 01       		.uleb128 0x1
 3557 0c3d 9C       		.byte	0x9c
 3558 0c3e 630C0000 		.4byte	0xc63
 3559 0c42 1E       		.uleb128 0x1e
 3560 0c43 29060000 		.4byte	.LASF129
 3561 0c47 01       		.byte	0x1
 3562 0c48 B001     		.2byte	0x1b0
 3563 0c4a 730B0000 		.4byte	0xb73
 3564 0c4e 06050000 		.4byte	.LLST28
 3565 0c52 1F       		.uleb128 0x1f
 3566 0c53 220B0000 		.4byte	.LASF121
 3567 0c57 01       		.byte	0x1
 3568 0c58 B201     		.2byte	0x1b2
 3569 0c5a B1050000 		.4byte	0x5b1
 3570 0c5e 40050000 		.4byte	.LLST29
 3571 0c62 00       		.byte	0
 3572 0c63 1D       		.uleb128 0x1d
ARM GAS  C:\Users\kiwamu\AppData\Local\Temp\ccLfX6Zi.s 			page 92


 3573 0c64 22070000 		.4byte	.LASF139
 3574 0c68 01       		.byte	0x1
 3575 0c69 D101     		.2byte	0x1d1
 3576 0c6b B1050000 		.4byte	0x5b1
 3577 0c6f 00000000 		.4byte	.LFB133
 3578 0c73 1C000000 		.4byte	.LFE133-.LFB133
 3579 0c77 01       		.uleb128 0x1
 3580 0c78 9C       		.byte	0x9c
 3581 0c79 9E0C0000 		.4byte	0xc9e
 3582 0c7d 1E       		.uleb128 0x1e
 3583 0c7e 29060000 		.4byte	.LASF129
 3584 0c82 01       		.byte	0x1
 3585 0c83 D101     		.2byte	0x1d1
 3586 0c85 730B0000 		.4byte	0xb73
 3587 0c89 5F050000 		.4byte	.LLST30
 3588 0c8d 1F       		.uleb128 0x1f
 3589 0c8e 220B0000 		.4byte	.LASF121
 3590 0c92 01       		.byte	0x1
 3591 0c93 D301     		.2byte	0x1d3
 3592 0c95 B1050000 		.4byte	0x5b1
 3593 0c99 99050000 		.4byte	.LLST31
 3594 0c9d 00       		.byte	0
 3595 0c9e 1D       		.uleb128 0x1d
 3596 0c9f 95090000 		.4byte	.LASF140
 3597 0ca3 01       		.byte	0x1
 3598 0ca4 F201     		.2byte	0x1f2
 3599 0ca6 B1050000 		.4byte	0x5b1
 3600 0caa 00000000 		.4byte	.LFB134
 3601 0cae 1C000000 		.4byte	.LFE134-.LFB134
 3602 0cb2 01       		.uleb128 0x1
 3603 0cb3 9C       		.byte	0x9c
 3604 0cb4 D90C0000 		.4byte	0xcd9
 3605 0cb8 1E       		.uleb128 0x1e
 3606 0cb9 29060000 		.4byte	.LASF129
 3607 0cbd 01       		.byte	0x1
 3608 0cbe F201     		.2byte	0x1f2
 3609 0cc0 730B0000 		.4byte	0xb73
 3610 0cc4 B8050000 		.4byte	.LLST32
 3611 0cc8 1F       		.uleb128 0x1f
 3612 0cc9 220B0000 		.4byte	.LASF121
 3613 0ccd 01       		.byte	0x1
 3614 0cce F401     		.2byte	0x1f4
 3615 0cd0 B1050000 		.4byte	0x5b1
 3616 0cd4 F2050000 		.4byte	.LLST33
 3617 0cd8 00       		.byte	0
 3618 0cd9 1D       		.uleb128 0x1d
 3619 0cda 2E060000 		.4byte	.LASF141
 3620 0cde 01       		.byte	0x1
 3621 0cdf 1D02     		.2byte	0x21d
 3622 0ce1 B1050000 		.4byte	0x5b1
 3623 0ce5 00000000 		.4byte	.LFB135
 3624 0ce9 78000000 		.4byte	.LFE135-.LFB135
 3625 0ced 01       		.uleb128 0x1
 3626 0cee 9C       		.byte	0x9c
 3627 0cef 340D0000 		.4byte	0xd34
 3628 0cf3 1E       		.uleb128 0x1e
 3629 0cf4 29060000 		.4byte	.LASF129
ARM GAS  C:\Users\kiwamu\AppData\Local\Temp\ccLfX6Zi.s 			page 93


 3630 0cf8 01       		.byte	0x1
 3631 0cf9 1D02     		.2byte	0x21d
 3632 0cfb 340D0000 		.4byte	0xd34
 3633 0cff 11060000 		.4byte	.LLST34
 3634 0d03 1E       		.uleb128 0x1e
 3635 0d04 140A0000 		.4byte	.LASF130
 3636 0d08 01       		.byte	0x1
 3637 0d09 1D02     		.2byte	0x21d
 3638 0d0b 3A0D0000 		.4byte	0xd3a
 3639 0d0f 7D060000 		.4byte	.LLST35
 3640 0d13 1F       		.uleb128 0x1f
 3641 0d14 220B0000 		.4byte	.LASF121
 3642 0d18 01       		.byte	0x1
 3643 0d19 1F02     		.2byte	0x21f
 3644 0d1b B1050000 		.4byte	0x5b1
 3645 0d1f B7060000 		.4byte	.LLST36
 3646 0d23 1F       		.uleb128 0x1f
 3647 0d24 3F0A0000 		.4byte	.LASF132
 3648 0d28 01       		.byte	0x1
 3649 0d29 2002     		.2byte	0x220
 3650 0d2b B8000000 		.4byte	0xb8
 3651 0d2f D6060000 		.4byte	.LLST37
 3652 0d33 00       		.byte	0
 3653 0d34 16       		.uleb128 0x16
 3654 0d35 04       		.byte	0x4
 3655 0d36 87010000 		.4byte	0x187
 3656 0d3a 16       		.uleb128 0x16
 3657 0d3b 04       		.byte	0x4
 3658 0d3c 400D0000 		.4byte	0xd40
 3659 0d40 06       		.uleb128 0x6
 3660 0d41 13080000 		.4byte	0x813
 3661 0d45 1D       		.uleb128 0x1d
 3662 0d46 55000000 		.4byte	.LASF142
 3663 0d4a 01       		.byte	0x1
 3664 0d4b 5D02     		.2byte	0x25d
 3665 0d4d B1050000 		.4byte	0x5b1
 3666 0d51 00000000 		.4byte	.LFB136
 3667 0d55 8C000000 		.4byte	.LFE136-.LFB136
 3668 0d59 01       		.uleb128 0x1
 3669 0d5a 9C       		.byte	0x9c
 3670 0d5b AE0D0000 		.4byte	0xdae
 3671 0d5f 1E       		.uleb128 0x1e
 3672 0d60 29060000 		.4byte	.LASF129
 3673 0d64 01       		.byte	0x1
 3674 0d65 5D02     		.2byte	0x25d
 3675 0d67 340D0000 		.4byte	0xd34
 3676 0d6b F4060000 		.4byte	.LLST38
 3677 0d6f 20       		.uleb128 0x20
 3678 0d70 140A0000 		.4byte	.LASF130
 3679 0d74 01       		.byte	0x1
 3680 0d75 5D02     		.2byte	0x25d
 3681 0d77 3A0D0000 		.4byte	0xd3a
 3682 0d7b 01       		.uleb128 0x1
 3683 0d7c 51       		.byte	0x51
 3684 0d7d 1F       		.uleb128 0x1f
 3685 0d7e 220B0000 		.4byte	.LASF121
 3686 0d82 01       		.byte	0x1
ARM GAS  C:\Users\kiwamu\AppData\Local\Temp\ccLfX6Zi.s 			page 94


 3687 0d83 5F02     		.2byte	0x25f
 3688 0d85 B1050000 		.4byte	0x5b1
 3689 0d89 79070000 		.4byte	.LLST39
 3690 0d8d 1F       		.uleb128 0x1f
 3691 0d8e 09010000 		.4byte	.LASF131
 3692 0d92 01       		.byte	0x1
 3693 0d93 6002     		.2byte	0x260
 3694 0d95 B8000000 		.4byte	0xb8
 3695 0d99 98070000 		.4byte	.LLST40
 3696 0d9d 1F       		.uleb128 0x1f
 3697 0d9e 3F0A0000 		.4byte	.LASF132
 3698 0da2 01       		.byte	0x1
 3699 0da3 6102     		.2byte	0x261
 3700 0da5 B8000000 		.4byte	0xb8
 3701 0da9 B6070000 		.4byte	.LLST41
 3702 0dad 00       		.byte	0
 3703 0dae 1D       		.uleb128 0x1d
 3704 0daf 40070000 		.4byte	.LASF143
 3705 0db3 01       		.byte	0x1
 3706 0db4 9902     		.2byte	0x299
 3707 0db6 B1050000 		.4byte	0x5b1
 3708 0dba 00000000 		.4byte	.LFB137
 3709 0dbe 1C000000 		.4byte	.LFE137-.LFB137
 3710 0dc2 01       		.uleb128 0x1
 3711 0dc3 9C       		.byte	0x9c
 3712 0dc4 E90D0000 		.4byte	0xde9
 3713 0dc8 1E       		.uleb128 0x1e
 3714 0dc9 29060000 		.4byte	.LASF129
 3715 0dcd 01       		.byte	0x1
 3716 0dce 9902     		.2byte	0x299
 3717 0dd0 340D0000 		.4byte	0xd34
 3718 0dd4 D4070000 		.4byte	.LLST42
 3719 0dd8 1F       		.uleb128 0x1f
 3720 0dd9 220B0000 		.4byte	.LASF121
 3721 0ddd 01       		.byte	0x1
 3722 0dde 9B02     		.2byte	0x29b
 3723 0de0 B1050000 		.4byte	0x5b1
 3724 0de4 0E080000 		.4byte	.LLST43
 3725 0de8 00       		.byte	0
 3726 0de9 1D       		.uleb128 0x1d
 3727 0dea F70A0000 		.4byte	.LASF144
 3728 0dee 01       		.byte	0x1
 3729 0def BB02     		.2byte	0x2bb
 3730 0df1 B1050000 		.4byte	0x5b1
 3731 0df5 00000000 		.4byte	.LFB138
 3732 0df9 1C000000 		.4byte	.LFE138-.LFB138
 3733 0dfd 01       		.uleb128 0x1
 3734 0dfe 9C       		.byte	0x9c
 3735 0dff 240E0000 		.4byte	0xe24
 3736 0e03 1E       		.uleb128 0x1e
 3737 0e04 29060000 		.4byte	.LASF129
 3738 0e08 01       		.byte	0x1
 3739 0e09 BB02     		.2byte	0x2bb
 3740 0e0b 340D0000 		.4byte	0xd34
 3741 0e0f 2D080000 		.4byte	.LLST44
 3742 0e13 1F       		.uleb128 0x1f
 3743 0e14 220B0000 		.4byte	.LASF121
ARM GAS  C:\Users\kiwamu\AppData\Local\Temp\ccLfX6Zi.s 			page 95


 3744 0e18 01       		.byte	0x1
 3745 0e19 BD02     		.2byte	0x2bd
 3746 0e1b B1050000 		.4byte	0x5b1
 3747 0e1f 67080000 		.4byte	.LLST45
 3748 0e23 00       		.byte	0
 3749 0e24 1D       		.uleb128 0x1d
 3750 0e25 DA0B0000 		.4byte	.LASF145
 3751 0e29 01       		.byte	0x1
 3752 0e2a DC02     		.2byte	0x2dc
 3753 0e2c B1050000 		.4byte	0x5b1
 3754 0e30 00000000 		.4byte	.LFB139
 3755 0e34 1C000000 		.4byte	.LFE139-.LFB139
 3756 0e38 01       		.uleb128 0x1
 3757 0e39 9C       		.byte	0x9c
 3758 0e3a 5F0E0000 		.4byte	0xe5f
 3759 0e3e 1E       		.uleb128 0x1e
 3760 0e3f 29060000 		.4byte	.LASF129
 3761 0e43 01       		.byte	0x1
 3762 0e44 DC02     		.2byte	0x2dc
 3763 0e46 340D0000 		.4byte	0xd34
 3764 0e4a 86080000 		.4byte	.LLST46
 3765 0e4e 1F       		.uleb128 0x1f
 3766 0e4f 220B0000 		.4byte	.LASF121
 3767 0e53 01       		.byte	0x1
 3768 0e54 DE02     		.2byte	0x2de
 3769 0e56 B1050000 		.4byte	0x5b1
 3770 0e5a C0080000 		.4byte	.LLST47
 3771 0e5e 00       		.byte	0
 3772 0e5f 1D       		.uleb128 0x1d
 3773 0e60 200C0000 		.4byte	.LASF146
 3774 0e64 01       		.byte	0x1
 3775 0e65 FE02     		.2byte	0x2fe
 3776 0e67 B1050000 		.4byte	0x5b1
 3777 0e6b 00000000 		.4byte	.LFB140
 3778 0e6f 1C000000 		.4byte	.LFE140-.LFB140
 3779 0e73 01       		.uleb128 0x1
 3780 0e74 9C       		.byte	0x9c
 3781 0e75 9A0E0000 		.4byte	0xe9a
 3782 0e79 1E       		.uleb128 0x1e
 3783 0e7a 29060000 		.4byte	.LASF129
 3784 0e7e 01       		.byte	0x1
 3785 0e7f FE02     		.2byte	0x2fe
 3786 0e81 340D0000 		.4byte	0xd34
 3787 0e85 DF080000 		.4byte	.LLST48
 3788 0e89 1F       		.uleb128 0x1f
 3789 0e8a 220B0000 		.4byte	.LASF121
 3790 0e8e 01       		.byte	0x1
 3791 0e8f 0003     		.2byte	0x300
 3792 0e91 B1050000 		.4byte	0x5b1
 3793 0e95 19090000 		.4byte	.LLST49
 3794 0e99 00       		.byte	0
 3795 0e9a 1D       		.uleb128 0x1d
 3796 0e9b FB0B0000 		.4byte	.LASF147
 3797 0e9f 01       		.byte	0x1
 3798 0ea0 2903     		.2byte	0x329
 3799 0ea2 B1050000 		.4byte	0x5b1
 3800 0ea6 00000000 		.4byte	.LFB141
ARM GAS  C:\Users\kiwamu\AppData\Local\Temp\ccLfX6Zi.s 			page 96


 3801 0eaa 78000000 		.4byte	.LFE141-.LFB141
 3802 0eae 01       		.uleb128 0x1
 3803 0eaf 9C       		.byte	0x9c
 3804 0eb0 F50E0000 		.4byte	0xef5
 3805 0eb4 1E       		.uleb128 0x1e
 3806 0eb5 29060000 		.4byte	.LASF129
 3807 0eb9 01       		.byte	0x1
 3808 0eba 2903     		.2byte	0x329
 3809 0ebc F50E0000 		.4byte	0xef5
 3810 0ec0 38090000 		.4byte	.LLST50
 3811 0ec4 1E       		.uleb128 0x1e
 3812 0ec5 140A0000 		.4byte	.LASF130
 3813 0ec9 01       		.byte	0x1
 3814 0eca 2903     		.2byte	0x329
 3815 0ecc FB0E0000 		.4byte	0xefb
 3816 0ed0 A4090000 		.4byte	.LLST51
 3817 0ed4 1F       		.uleb128 0x1f
 3818 0ed5 220B0000 		.4byte	.LASF121
 3819 0ed9 01       		.byte	0x1
 3820 0eda 2B03     		.2byte	0x32b
 3821 0edc B1050000 		.4byte	0x5b1
 3822 0ee0 DE090000 		.4byte	.LLST52
 3823 0ee4 1F       		.uleb128 0x1f
 3824 0ee5 3F0A0000 		.4byte	.LASF132
 3825 0ee9 01       		.byte	0x1
 3826 0eea 2C03     		.2byte	0x32c
 3827 0eec B8000000 		.4byte	0xb8
 3828 0ef0 FD090000 		.4byte	.LLST53
 3829 0ef4 00       		.byte	0
 3830 0ef5 16       		.uleb128 0x16
 3831 0ef6 04       		.byte	0x4
 3832 0ef7 F7010000 		.4byte	0x1f7
 3833 0efb 16       		.uleb128 0x16
 3834 0efc 04       		.byte	0x4
 3835 0efd 010F0000 		.4byte	0xf01
 3836 0f01 06       		.uleb128 0x6
 3837 0f02 6A080000 		.4byte	0x86a
 3838 0f06 1D       		.uleb128 0x1d
 3839 0f07 D7010000 		.4byte	.LASF148
 3840 0f0b 01       		.byte	0x1
 3841 0f0c 6E03     		.2byte	0x36e
 3842 0f0e B1050000 		.4byte	0x5b1
 3843 0f12 00000000 		.4byte	.LFB142
 3844 0f16 78000000 		.4byte	.LFE142-.LFB142
 3845 0f1a 01       		.uleb128 0x1
 3846 0f1b 9C       		.byte	0x9c
 3847 0f1c 5F0F0000 		.4byte	0xf5f
 3848 0f20 1E       		.uleb128 0x1e
 3849 0f21 29060000 		.4byte	.LASF129
 3850 0f25 01       		.byte	0x1
 3851 0f26 6E03     		.2byte	0x36e
 3852 0f28 F50E0000 		.4byte	0xef5
 3853 0f2c 1B0A0000 		.4byte	.LLST54
 3854 0f30 20       		.uleb128 0x20
 3855 0f31 140A0000 		.4byte	.LASF130
 3856 0f35 01       		.byte	0x1
 3857 0f36 6E03     		.2byte	0x36e
ARM GAS  C:\Users\kiwamu\AppData\Local\Temp\ccLfX6Zi.s 			page 97


 3858 0f38 FB0E0000 		.4byte	0xefb
 3859 0f3c 01       		.uleb128 0x1
 3860 0f3d 51       		.byte	0x51
 3861 0f3e 1F       		.uleb128 0x1f
 3862 0f3f 220B0000 		.4byte	.LASF121
 3863 0f43 01       		.byte	0x1
 3864 0f44 7003     		.2byte	0x370
 3865 0f46 B1050000 		.4byte	0x5b1
 3866 0f4a 870A0000 		.4byte	.LLST55
 3867 0f4e 1F       		.uleb128 0x1f
 3868 0f4f 3F0A0000 		.4byte	.LASF132
 3869 0f53 01       		.byte	0x1
 3870 0f54 7103     		.2byte	0x371
 3871 0f56 B8000000 		.4byte	0xb8
 3872 0f5a A60A0000 		.4byte	.LLST56
 3873 0f5e 00       		.byte	0
 3874 0f5f 1D       		.uleb128 0x1d
 3875 0f60 B2020000 		.4byte	.LASF149
 3876 0f64 01       		.byte	0x1
 3877 0f65 A503     		.2byte	0x3a5
 3878 0f67 B1050000 		.4byte	0x5b1
 3879 0f6b 00000000 		.4byte	.LFB143
 3880 0f6f 1C000000 		.4byte	.LFE143-.LFB143
 3881 0f73 01       		.uleb128 0x1
 3882 0f74 9C       		.byte	0x9c
 3883 0f75 9A0F0000 		.4byte	0xf9a
 3884 0f79 1E       		.uleb128 0x1e
 3885 0f7a 29060000 		.4byte	.LASF129
 3886 0f7e 01       		.byte	0x1
 3887 0f7f A503     		.2byte	0x3a5
 3888 0f81 F50E0000 		.4byte	0xef5
 3889 0f85 C40A0000 		.4byte	.LLST57
 3890 0f89 1F       		.uleb128 0x1f
 3891 0f8a 220B0000 		.4byte	.LASF121
 3892 0f8e 01       		.byte	0x1
 3893 0f8f A703     		.2byte	0x3a7
 3894 0f91 B1050000 		.4byte	0x5b1
 3895 0f95 FE0A0000 		.4byte	.LLST58
 3896 0f99 00       		.byte	0
 3897 0f9a 1D       		.uleb128 0x1d
 3898 0f9b 640A0000 		.4byte	.LASF150
 3899 0f9f 01       		.byte	0x1
 3900 0fa0 C703     		.2byte	0x3c7
 3901 0fa2 B1050000 		.4byte	0x5b1
 3902 0fa6 00000000 		.4byte	.LFB144
 3903 0faa 1C000000 		.4byte	.LFE144-.LFB144
 3904 0fae 01       		.uleb128 0x1
 3905 0faf 9C       		.byte	0x9c
 3906 0fb0 D50F0000 		.4byte	0xfd5
 3907 0fb4 1E       		.uleb128 0x1e
 3908 0fb5 29060000 		.4byte	.LASF129
 3909 0fb9 01       		.byte	0x1
 3910 0fba C703     		.2byte	0x3c7
 3911 0fbc F50E0000 		.4byte	0xef5
 3912 0fc0 1D0B0000 		.4byte	.LLST59
 3913 0fc4 1F       		.uleb128 0x1f
 3914 0fc5 220B0000 		.4byte	.LASF121
ARM GAS  C:\Users\kiwamu\AppData\Local\Temp\ccLfX6Zi.s 			page 98


 3915 0fc9 01       		.byte	0x1
 3916 0fca C903     		.2byte	0x3c9
 3917 0fcc B1050000 		.4byte	0x5b1
 3918 0fd0 570B0000 		.4byte	.LLST60
 3919 0fd4 00       		.byte	0
 3920 0fd5 1D       		.uleb128 0x1d
 3921 0fd6 A8070000 		.4byte	.LASF151
 3922 0fda 01       		.byte	0x1
 3923 0fdb E803     		.2byte	0x3e8
 3924 0fdd B1050000 		.4byte	0x5b1
 3925 0fe1 00000000 		.4byte	.LFB145
 3926 0fe5 1C000000 		.4byte	.LFE145-.LFB145
 3927 0fe9 01       		.uleb128 0x1
 3928 0fea 9C       		.byte	0x9c
 3929 0feb 10100000 		.4byte	0x1010
 3930 0fef 1E       		.uleb128 0x1e
 3931 0ff0 29060000 		.4byte	.LASF129
 3932 0ff4 01       		.byte	0x1
 3933 0ff5 E803     		.2byte	0x3e8
 3934 0ff7 F50E0000 		.4byte	0xef5
 3935 0ffb 760B0000 		.4byte	.LLST61
 3936 0fff 1F       		.uleb128 0x1f
 3937 1000 220B0000 		.4byte	.LASF121
 3938 1004 01       		.byte	0x1
 3939 1005 EA03     		.2byte	0x3ea
 3940 1007 B1050000 		.4byte	0x5b1
 3941 100b B00B0000 		.4byte	.LLST62
 3942 100f 00       		.byte	0
 3943 1010 1D       		.uleb128 0x1d
 3944 1011 5F090000 		.4byte	.LASF152
 3945 1015 01       		.byte	0x1
 3946 1016 0A04     		.2byte	0x40a
 3947 1018 B1050000 		.4byte	0x5b1
 3948 101c 00000000 		.4byte	.LFB146
 3949 1020 1C000000 		.4byte	.LFE146-.LFB146
 3950 1024 01       		.uleb128 0x1
 3951 1025 9C       		.byte	0x9c
 3952 1026 4B100000 		.4byte	0x104b
 3953 102a 1E       		.uleb128 0x1e
 3954 102b 29060000 		.4byte	.LASF129
 3955 102f 01       		.byte	0x1
 3956 1030 0A04     		.2byte	0x40a
 3957 1032 F50E0000 		.4byte	0xef5
 3958 1036 CF0B0000 		.4byte	.LLST63
 3959 103a 1F       		.uleb128 0x1f
 3960 103b 220B0000 		.4byte	.LASF121
 3961 103f 01       		.byte	0x1
 3962 1040 0C04     		.2byte	0x40c
 3963 1042 B1050000 		.4byte	0x5b1
 3964 1046 090C0000 		.4byte	.LLST64
 3965 104a 00       		.byte	0
 3966 104b 1D       		.uleb128 0x1d
 3967 104c 590C0000 		.4byte	.LASF153
 3968 1050 01       		.byte	0x1
 3969 1051 3504     		.2byte	0x435
 3970 1053 B1050000 		.4byte	0x5b1
 3971 1057 00000000 		.4byte	.LFB147
ARM GAS  C:\Users\kiwamu\AppData\Local\Temp\ccLfX6Zi.s 			page 99


 3972 105b 78000000 		.4byte	.LFE147-.LFB147
 3973 105f 01       		.uleb128 0x1
 3974 1060 9C       		.byte	0x9c
 3975 1061 A6100000 		.4byte	0x10a6
 3976 1065 1E       		.uleb128 0x1e
 3977 1066 29060000 		.4byte	.LASF129
 3978 106a 01       		.byte	0x1
 3979 106b 3504     		.2byte	0x435
 3980 106d A6100000 		.4byte	0x10a6
 3981 1071 280C0000 		.4byte	.LLST65
 3982 1075 1E       		.uleb128 0x1e
 3983 1076 140A0000 		.4byte	.LASF130
 3984 107a 01       		.byte	0x1
 3985 107b 3504     		.2byte	0x435
 3986 107d AC100000 		.4byte	0x10ac
 3987 1081 940C0000 		.4byte	.LLST66
 3988 1085 1F       		.uleb128 0x1f
 3989 1086 220B0000 		.4byte	.LASF121
 3990 108a 01       		.byte	0x1
 3991 108b 3704     		.2byte	0x437
 3992 108d B1050000 		.4byte	0x5b1
 3993 1091 CE0C0000 		.4byte	.LLST67
 3994 1095 1F       		.uleb128 0x1f
 3995 1096 3F0A0000 		.4byte	.LASF132
 3996 109a 01       		.byte	0x1
 3997 109b 3804     		.2byte	0x438
 3998 109d B8000000 		.4byte	0xb8
 3999 10a1 ED0C0000 		.4byte	.LLST68
 4000 10a5 00       		.byte	0
 4001 10a6 16       		.uleb128 0x16
 4002 10a7 04       		.byte	0x4
 4003 10a8 67020000 		.4byte	0x267
 4004 10ac 16       		.uleb128 0x16
 4005 10ad 04       		.byte	0x4
 4006 10ae B2100000 		.4byte	0x10b2
 4007 10b2 06       		.uleb128 0x6
 4008 10b3 C1080000 		.4byte	0x8c1
 4009 10b7 1D       		.uleb128 0x1d
 4010 10b8 18090000 		.4byte	.LASF154
 4011 10bc 01       		.byte	0x1
 4012 10bd 7904     		.2byte	0x479
 4013 10bf B1050000 		.4byte	0x5b1
 4014 10c3 00000000 		.4byte	.LFB148
 4015 10c7 78000000 		.4byte	.LFE148-.LFB148
 4016 10cb 01       		.uleb128 0x1
 4017 10cc 9C       		.byte	0x9c
 4018 10cd 10110000 		.4byte	0x1110
 4019 10d1 1E       		.uleb128 0x1e
 4020 10d2 29060000 		.4byte	.LASF129
 4021 10d6 01       		.byte	0x1
 4022 10d7 7904     		.2byte	0x479
 4023 10d9 A6100000 		.4byte	0x10a6
 4024 10dd 0B0D0000 		.4byte	.LLST69
 4025 10e1 20       		.uleb128 0x20
 4026 10e2 140A0000 		.4byte	.LASF130
 4027 10e6 01       		.byte	0x1
 4028 10e7 7904     		.2byte	0x479
ARM GAS  C:\Users\kiwamu\AppData\Local\Temp\ccLfX6Zi.s 			page 100


 4029 10e9 AC100000 		.4byte	0x10ac
 4030 10ed 01       		.uleb128 0x1
 4031 10ee 51       		.byte	0x51
 4032 10ef 1F       		.uleb128 0x1f
 4033 10f0 220B0000 		.4byte	.LASF121
 4034 10f4 01       		.byte	0x1
 4035 10f5 7B04     		.2byte	0x47b
 4036 10f7 B1050000 		.4byte	0x5b1
 4037 10fb 770D0000 		.4byte	.LLST70
 4038 10ff 1F       		.uleb128 0x1f
 4039 1100 3F0A0000 		.4byte	.LASF132
 4040 1104 01       		.byte	0x1
 4041 1105 7C04     		.2byte	0x47c
 4042 1107 B8000000 		.4byte	0xb8
 4043 110b 960D0000 		.4byte	.LLST71
 4044 110f 00       		.byte	0
 4045 1110 1D       		.uleb128 0x1d
 4046 1111 A7050000 		.4byte	.LASF155
 4047 1115 01       		.byte	0x1
 4048 1116 B104     		.2byte	0x4b1
 4049 1118 B1050000 		.4byte	0x5b1
 4050 111c 00000000 		.4byte	.LFB149
 4051 1120 1C000000 		.4byte	.LFE149-.LFB149
 4052 1124 01       		.uleb128 0x1
 4053 1125 9C       		.byte	0x9c
 4054 1126 4B110000 		.4byte	0x114b
 4055 112a 1E       		.uleb128 0x1e
 4056 112b 29060000 		.4byte	.LASF129
 4057 112f 01       		.byte	0x1
 4058 1130 B104     		.2byte	0x4b1
 4059 1132 A6100000 		.4byte	0x10a6
 4060 1136 B40D0000 		.4byte	.LLST72
 4061 113a 1F       		.uleb128 0x1f
 4062 113b 220B0000 		.4byte	.LASF121
 4063 113f 01       		.byte	0x1
 4064 1140 B304     		.2byte	0x4b3
 4065 1142 B1050000 		.4byte	0x5b1
 4066 1146 EE0D0000 		.4byte	.LLST73
 4067 114a 00       		.byte	0
 4068 114b 1D       		.uleb128 0x1d
 4069 114c FA020000 		.4byte	.LASF156
 4070 1150 01       		.byte	0x1
 4071 1151 D304     		.2byte	0x4d3
 4072 1153 B1050000 		.4byte	0x5b1
 4073 1157 00000000 		.4byte	.LFB150
 4074 115b 1C000000 		.4byte	.LFE150-.LFB150
 4075 115f 01       		.uleb128 0x1
 4076 1160 9C       		.byte	0x9c
 4077 1161 86110000 		.4byte	0x1186
 4078 1165 1E       		.uleb128 0x1e
 4079 1166 29060000 		.4byte	.LASF129
 4080 116a 01       		.byte	0x1
 4081 116b D304     		.2byte	0x4d3
 4082 116d A6100000 		.4byte	0x10a6
 4083 1171 0D0E0000 		.4byte	.LLST74
 4084 1175 1F       		.uleb128 0x1f
 4085 1176 220B0000 		.4byte	.LASF121
ARM GAS  C:\Users\kiwamu\AppData\Local\Temp\ccLfX6Zi.s 			page 101


 4086 117a 01       		.byte	0x1
 4087 117b D504     		.2byte	0x4d5
 4088 117d B1050000 		.4byte	0x5b1
 4089 1181 470E0000 		.4byte	.LLST75
 4090 1185 00       		.byte	0
 4091 1186 1D       		.uleb128 0x1d
 4092 1187 0C020000 		.4byte	.LASF157
 4093 118b 01       		.byte	0x1
 4094 118c F404     		.2byte	0x4f4
 4095 118e B1050000 		.4byte	0x5b1
 4096 1192 00000000 		.4byte	.LFB151
 4097 1196 1C000000 		.4byte	.LFE151-.LFB151
 4098 119a 01       		.uleb128 0x1
 4099 119b 9C       		.byte	0x9c
 4100 119c C1110000 		.4byte	0x11c1
 4101 11a0 1E       		.uleb128 0x1e
 4102 11a1 29060000 		.4byte	.LASF129
 4103 11a5 01       		.byte	0x1
 4104 11a6 F404     		.2byte	0x4f4
 4105 11a8 A6100000 		.4byte	0x10a6
 4106 11ac 660E0000 		.4byte	.LLST76
 4107 11b0 1F       		.uleb128 0x1f
 4108 11b1 220B0000 		.4byte	.LASF121
 4109 11b5 01       		.byte	0x1
 4110 11b6 F604     		.2byte	0x4f6
 4111 11b8 B1050000 		.4byte	0x5b1
 4112 11bc A00E0000 		.4byte	.LLST77
 4113 11c0 00       		.byte	0
 4114 11c1 1D       		.uleb128 0x1d
 4115 11c2 20030000 		.4byte	.LASF158
 4116 11c6 01       		.byte	0x1
 4117 11c7 1605     		.2byte	0x516
 4118 11c9 B1050000 		.4byte	0x5b1
 4119 11cd 00000000 		.4byte	.LFB152
 4120 11d1 1C000000 		.4byte	.LFE152-.LFB152
 4121 11d5 01       		.uleb128 0x1
 4122 11d6 9C       		.byte	0x9c
 4123 11d7 FC110000 		.4byte	0x11fc
 4124 11db 1E       		.uleb128 0x1e
 4125 11dc 29060000 		.4byte	.LASF129
 4126 11e0 01       		.byte	0x1
 4127 11e1 1605     		.2byte	0x516
 4128 11e3 A6100000 		.4byte	0x10a6
 4129 11e7 BF0E0000 		.4byte	.LLST78
 4130 11eb 1F       		.uleb128 0x1f
 4131 11ec 220B0000 		.4byte	.LASF121
 4132 11f0 01       		.byte	0x1
 4133 11f1 1805     		.2byte	0x518
 4134 11f3 B1050000 		.4byte	0x5b1
 4135 11f7 F90E0000 		.4byte	.LLST79
 4136 11fb 00       		.byte	0
 4137 11fc 1D       		.uleb128 0x1d
 4138 11fd C5090000 		.4byte	.LASF159
 4139 1201 01       		.byte	0x1
 4140 1202 4105     		.2byte	0x541
 4141 1204 B1050000 		.4byte	0x5b1
 4142 1208 00000000 		.4byte	.LFB153
ARM GAS  C:\Users\kiwamu\AppData\Local\Temp\ccLfX6Zi.s 			page 102


 4143 120c 78000000 		.4byte	.LFE153-.LFB153
 4144 1210 01       		.uleb128 0x1
 4145 1211 9C       		.byte	0x9c
 4146 1212 57120000 		.4byte	0x1257
 4147 1216 1E       		.uleb128 0x1e
 4148 1217 29060000 		.4byte	.LASF129
 4149 121b 01       		.byte	0x1
 4150 121c 4105     		.2byte	0x541
 4151 121e 57120000 		.4byte	0x1257
 4152 1222 180F0000 		.4byte	.LLST80
 4153 1226 1E       		.uleb128 0x1e
 4154 1227 140A0000 		.4byte	.LASF130
 4155 122b 01       		.byte	0x1
 4156 122c 4105     		.2byte	0x541
 4157 122e 5D120000 		.4byte	0x125d
 4158 1232 840F0000 		.4byte	.LLST81
 4159 1236 1F       		.uleb128 0x1f
 4160 1237 220B0000 		.4byte	.LASF121
 4161 123b 01       		.byte	0x1
 4162 123c 4305     		.2byte	0x543
 4163 123e B1050000 		.4byte	0x5b1
 4164 1242 BE0F0000 		.4byte	.LLST82
 4165 1246 1F       		.uleb128 0x1f
 4166 1247 3F0A0000 		.4byte	.LASF132
 4167 124b 01       		.byte	0x1
 4168 124c 4405     		.2byte	0x544
 4169 124e B8000000 		.4byte	0xb8
 4170 1252 DD0F0000 		.4byte	.LLST83
 4171 1256 00       		.byte	0
 4172 1257 16       		.uleb128 0x16
 4173 1258 04       		.byte	0x4
 4174 1259 D7020000 		.4byte	0x2d7
 4175 125d 16       		.uleb128 0x16
 4176 125e 04       		.byte	0x4
 4177 125f 63120000 		.4byte	0x1263
 4178 1263 06       		.uleb128 0x6
 4179 1264 18090000 		.4byte	0x918
 4180 1268 1D       		.uleb128 0x1d
 4181 1269 88080000 		.4byte	.LASF160
 4182 126d 01       		.byte	0x1
 4183 126e 8505     		.2byte	0x585
 4184 1270 B1050000 		.4byte	0x5b1
 4185 1274 00000000 		.4byte	.LFB154
 4186 1278 78000000 		.4byte	.LFE154-.LFB154
 4187 127c 01       		.uleb128 0x1
 4188 127d 9C       		.byte	0x9c
 4189 127e C1120000 		.4byte	0x12c1
 4190 1282 1E       		.uleb128 0x1e
 4191 1283 29060000 		.4byte	.LASF129
 4192 1287 01       		.byte	0x1
 4193 1288 8505     		.2byte	0x585
 4194 128a 57120000 		.4byte	0x1257
 4195 128e FB0F0000 		.4byte	.LLST84
 4196 1292 20       		.uleb128 0x20
 4197 1293 140A0000 		.4byte	.LASF130
 4198 1297 01       		.byte	0x1
 4199 1298 8505     		.2byte	0x585
ARM GAS  C:\Users\kiwamu\AppData\Local\Temp\ccLfX6Zi.s 			page 103


 4200 129a 5D120000 		.4byte	0x125d
 4201 129e 01       		.uleb128 0x1
 4202 129f 51       		.byte	0x51
 4203 12a0 1F       		.uleb128 0x1f
 4204 12a1 220B0000 		.4byte	.LASF121
 4205 12a5 01       		.byte	0x1
 4206 12a6 8705     		.2byte	0x587
 4207 12a8 B1050000 		.4byte	0x5b1
 4208 12ac 67100000 		.4byte	.LLST85
 4209 12b0 1F       		.uleb128 0x1f
 4210 12b1 3F0A0000 		.4byte	.LASF132
 4211 12b5 01       		.byte	0x1
 4212 12b6 8805     		.2byte	0x588
 4213 12b8 B8000000 		.4byte	0xb8
 4214 12bc 86100000 		.4byte	.LLST86
 4215 12c0 00       		.byte	0
 4216 12c1 1D       		.uleb128 0x1d
 4217 12c2 76000000 		.4byte	.LASF161
 4218 12c6 01       		.byte	0x1
 4219 12c7 BD05     		.2byte	0x5bd
 4220 12c9 B1050000 		.4byte	0x5b1
 4221 12cd 00000000 		.4byte	.LFB155
 4222 12d1 1C000000 		.4byte	.LFE155-.LFB155
 4223 12d5 01       		.uleb128 0x1
 4224 12d6 9C       		.byte	0x9c
 4225 12d7 FC120000 		.4byte	0x12fc
 4226 12db 1E       		.uleb128 0x1e
 4227 12dc 29060000 		.4byte	.LASF129
 4228 12e0 01       		.byte	0x1
 4229 12e1 BD05     		.2byte	0x5bd
 4230 12e3 57120000 		.4byte	0x1257
 4231 12e7 A4100000 		.4byte	.LLST87
 4232 12eb 1F       		.uleb128 0x1f
 4233 12ec 220B0000 		.4byte	.LASF121
 4234 12f0 01       		.byte	0x1
 4235 12f1 BF05     		.2byte	0x5bf
 4236 12f3 B1050000 		.4byte	0x5b1
 4237 12f7 DE100000 		.4byte	.LLST88
 4238 12fb 00       		.byte	0
 4239 12fc 1D       		.uleb128 0x1d
 4240 12fd D2000000 		.4byte	.LASF162
 4241 1301 01       		.byte	0x1
 4242 1302 DF05     		.2byte	0x5df
 4243 1304 B1050000 		.4byte	0x5b1
 4244 1308 00000000 		.4byte	.LFB156
 4245 130c 1C000000 		.4byte	.LFE156-.LFB156
 4246 1310 01       		.uleb128 0x1
 4247 1311 9C       		.byte	0x9c
 4248 1312 37130000 		.4byte	0x1337
 4249 1316 1E       		.uleb128 0x1e
 4250 1317 29060000 		.4byte	.LASF129
 4251 131b 01       		.byte	0x1
 4252 131c DF05     		.2byte	0x5df
 4253 131e 57120000 		.4byte	0x1257
 4254 1322 FD100000 		.4byte	.LLST89
 4255 1326 1F       		.uleb128 0x1f
 4256 1327 220B0000 		.4byte	.LASF121
ARM GAS  C:\Users\kiwamu\AppData\Local\Temp\ccLfX6Zi.s 			page 104


 4257 132b 01       		.byte	0x1
 4258 132c E105     		.2byte	0x5e1
 4259 132e B1050000 		.4byte	0x5b1
 4260 1332 37110000 		.4byte	.LLST90
 4261 1336 00       		.byte	0
 4262 1337 1D       		.uleb128 0x1d
 4263 1338 5B050000 		.4byte	.LASF163
 4264 133c 01       		.byte	0x1
 4265 133d 0006     		.2byte	0x600
 4266 133f B1050000 		.4byte	0x5b1
 4267 1343 00000000 		.4byte	.LFB157
 4268 1347 1C000000 		.4byte	.LFE157-.LFB157
 4269 134b 01       		.uleb128 0x1
 4270 134c 9C       		.byte	0x9c
 4271 134d 72130000 		.4byte	0x1372
 4272 1351 1E       		.uleb128 0x1e
 4273 1352 29060000 		.4byte	.LASF129
 4274 1356 01       		.byte	0x1
 4275 1357 0006     		.2byte	0x600
 4276 1359 57120000 		.4byte	0x1257
 4277 135d 56110000 		.4byte	.LLST91
 4278 1361 1F       		.uleb128 0x1f
 4279 1362 220B0000 		.4byte	.LASF121
 4280 1366 01       		.byte	0x1
 4281 1367 0206     		.2byte	0x602
 4282 1369 B1050000 		.4byte	0x5b1
 4283 136d 90110000 		.4byte	.LLST92
 4284 1371 00       		.byte	0
 4285 1372 1D       		.uleb128 0x1d
 4286 1373 5B030000 		.4byte	.LASF164
 4287 1377 01       		.byte	0x1
 4288 1378 2206     		.2byte	0x622
 4289 137a B1050000 		.4byte	0x5b1
 4290 137e 00000000 		.4byte	.LFB158
 4291 1382 1C000000 		.4byte	.LFE158-.LFB158
 4292 1386 01       		.uleb128 0x1
 4293 1387 9C       		.byte	0x9c
 4294 1388 AD130000 		.4byte	0x13ad
 4295 138c 1E       		.uleb128 0x1e
 4296 138d 29060000 		.4byte	.LASF129
 4297 1391 01       		.byte	0x1
 4298 1392 2206     		.2byte	0x622
 4299 1394 57120000 		.4byte	0x1257
 4300 1398 AF110000 		.4byte	.LLST93
 4301 139c 1F       		.uleb128 0x1f
 4302 139d 220B0000 		.4byte	.LASF121
 4303 13a1 01       		.byte	0x1
 4304 13a2 2406     		.2byte	0x624
 4305 13a4 B1050000 		.4byte	0x5b1
 4306 13a8 E9110000 		.4byte	.LLST94
 4307 13ac 00       		.byte	0
 4308 13ad 21       		.uleb128 0x21
 4309 13ae 3E010000 		.4byte	.LASF168
 4310 13b2 08       		.byte	0x8
 4311 13b3 EA07     		.2byte	0x7ea
 4312 13b5 B9130000 		.4byte	0x13b9
 4313 13b9 05       		.uleb128 0x5
ARM GAS  C:\Users\kiwamu\AppData\Local\Temp\ccLfX6Zi.s 			page 105


 4314 13ba AD000000 		.4byte	0xad
 4315 13be 00       		.byte	0
 4316              		.section	.debug_abbrev,"",%progbits
 4317              	.Ldebug_abbrev0:
 4318 0000 01       		.uleb128 0x1
 4319 0001 11       		.uleb128 0x11
 4320 0002 01       		.byte	0x1
 4321 0003 25       		.uleb128 0x25
 4322 0004 0E       		.uleb128 0xe
 4323 0005 13       		.uleb128 0x13
 4324 0006 0B       		.uleb128 0xb
 4325 0007 03       		.uleb128 0x3
 4326 0008 0E       		.uleb128 0xe
 4327 0009 1B       		.uleb128 0x1b
 4328 000a 0E       		.uleb128 0xe
 4329 000b 55       		.uleb128 0x55
 4330 000c 17       		.uleb128 0x17
 4331 000d 11       		.uleb128 0x11
 4332 000e 01       		.uleb128 0x1
 4333 000f 10       		.uleb128 0x10
 4334 0010 17       		.uleb128 0x17
 4335 0011 00       		.byte	0
 4336 0012 00       		.byte	0
 4337 0013 02       		.uleb128 0x2
 4338 0014 24       		.uleb128 0x24
 4339 0015 00       		.byte	0
 4340 0016 0B       		.uleb128 0xb
 4341 0017 0B       		.uleb128 0xb
 4342 0018 3E       		.uleb128 0x3e
 4343 0019 0B       		.uleb128 0xb
 4344 001a 03       		.uleb128 0x3
 4345 001b 0E       		.uleb128 0xe
 4346 001c 00       		.byte	0
 4347 001d 00       		.byte	0
 4348 001e 03       		.uleb128 0x3
 4349 001f 16       		.uleb128 0x16
 4350 0020 00       		.byte	0
 4351 0021 03       		.uleb128 0x3
 4352 0022 0E       		.uleb128 0xe
 4353 0023 3A       		.uleb128 0x3a
 4354 0024 0B       		.uleb128 0xb
 4355 0025 3B       		.uleb128 0x3b
 4356 0026 0B       		.uleb128 0xb
 4357 0027 49       		.uleb128 0x49
 4358 0028 13       		.uleb128 0x13
 4359 0029 00       		.byte	0
 4360 002a 00       		.byte	0
 4361 002b 04       		.uleb128 0x4
 4362 002c 24       		.uleb128 0x24
 4363 002d 00       		.byte	0
 4364 002e 0B       		.uleb128 0xb
 4365 002f 0B       		.uleb128 0xb
 4366 0030 3E       		.uleb128 0x3e
 4367 0031 0B       		.uleb128 0xb
 4368 0032 03       		.uleb128 0x3
 4369 0033 08       		.uleb128 0x8
 4370 0034 00       		.byte	0
ARM GAS  C:\Users\kiwamu\AppData\Local\Temp\ccLfX6Zi.s 			page 106


 4371 0035 00       		.byte	0
 4372 0036 05       		.uleb128 0x5
 4373 0037 35       		.uleb128 0x35
 4374 0038 00       		.byte	0
 4375 0039 49       		.uleb128 0x49
 4376 003a 13       		.uleb128 0x13
 4377 003b 00       		.byte	0
 4378 003c 00       		.byte	0
 4379 003d 06       		.uleb128 0x6
 4380 003e 26       		.uleb128 0x26
 4381 003f 00       		.byte	0
 4382 0040 49       		.uleb128 0x49
 4383 0041 13       		.uleb128 0x13
 4384 0042 00       		.byte	0
 4385 0043 00       		.byte	0
 4386 0044 07       		.uleb128 0x7
 4387 0045 04       		.uleb128 0x4
 4388 0046 01       		.byte	0x1
 4389 0047 0B       		.uleb128 0xb
 4390 0048 0B       		.uleb128 0xb
 4391 0049 49       		.uleb128 0x49
 4392 004a 13       		.uleb128 0x13
 4393 004b 3A       		.uleb128 0x3a
 4394 004c 0B       		.uleb128 0xb
 4395 004d 3B       		.uleb128 0x3b
 4396 004e 05       		.uleb128 0x5
 4397 004f 01       		.uleb128 0x1
 4398 0050 13       		.uleb128 0x13
 4399 0051 00       		.byte	0
 4400 0052 00       		.byte	0
 4401 0053 08       		.uleb128 0x8
 4402 0054 28       		.uleb128 0x28
 4403 0055 00       		.byte	0
 4404 0056 03       		.uleb128 0x3
 4405 0057 0E       		.uleb128 0xe
 4406 0058 1C       		.uleb128 0x1c
 4407 0059 0B       		.uleb128 0xb
 4408 005a 00       		.byte	0
 4409 005b 00       		.byte	0
 4410 005c 09       		.uleb128 0x9
 4411 005d 16       		.uleb128 0x16
 4412 005e 00       		.byte	0
 4413 005f 03       		.uleb128 0x3
 4414 0060 0E       		.uleb128 0xe
 4415 0061 3A       		.uleb128 0x3a
 4416 0062 0B       		.uleb128 0xb
 4417 0063 3B       		.uleb128 0x3b
 4418 0064 05       		.uleb128 0x5
 4419 0065 49       		.uleb128 0x49
 4420 0066 13       		.uleb128 0x13
 4421 0067 00       		.byte	0
 4422 0068 00       		.byte	0
 4423 0069 0A       		.uleb128 0xa
 4424 006a 01       		.uleb128 0x1
 4425 006b 01       		.byte	0x1
 4426 006c 49       		.uleb128 0x49
 4427 006d 13       		.uleb128 0x13
ARM GAS  C:\Users\kiwamu\AppData\Local\Temp\ccLfX6Zi.s 			page 107


 4428 006e 01       		.uleb128 0x1
 4429 006f 13       		.uleb128 0x13
 4430 0070 00       		.byte	0
 4431 0071 00       		.byte	0
 4432 0072 0B       		.uleb128 0xb
 4433 0073 21       		.uleb128 0x21
 4434 0074 00       		.byte	0
 4435 0075 49       		.uleb128 0x49
 4436 0076 13       		.uleb128 0x13
 4437 0077 2F       		.uleb128 0x2f
 4438 0078 0B       		.uleb128 0xb
 4439 0079 00       		.byte	0
 4440 007a 00       		.byte	0
 4441 007b 0C       		.uleb128 0xc
 4442 007c 13       		.uleb128 0x13
 4443 007d 01       		.byte	0x1
 4444 007e 0B       		.uleb128 0xb
 4445 007f 0B       		.uleb128 0xb
 4446 0080 3A       		.uleb128 0x3a
 4447 0081 0B       		.uleb128 0xb
 4448 0082 3B       		.uleb128 0x3b
 4449 0083 0B       		.uleb128 0xb
 4450 0084 01       		.uleb128 0x1
 4451 0085 13       		.uleb128 0x13
 4452 0086 00       		.byte	0
 4453 0087 00       		.byte	0
 4454 0088 0D       		.uleb128 0xd
 4455 0089 0D       		.uleb128 0xd
 4456 008a 00       		.byte	0
 4457 008b 03       		.uleb128 0x3
 4458 008c 0E       		.uleb128 0xe
 4459 008d 3A       		.uleb128 0x3a
 4460 008e 0B       		.uleb128 0xb
 4461 008f 3B       		.uleb128 0x3b
 4462 0090 0B       		.uleb128 0xb
 4463 0091 49       		.uleb128 0x49
 4464 0092 13       		.uleb128 0x13
 4465 0093 38       		.uleb128 0x38
 4466 0094 0B       		.uleb128 0xb
 4467 0095 00       		.byte	0
 4468 0096 00       		.byte	0
 4469 0097 0E       		.uleb128 0xe
 4470 0098 13       		.uleb128 0x13
 4471 0099 01       		.byte	0x1
 4472 009a 0B       		.uleb128 0xb
 4473 009b 05       		.uleb128 0x5
 4474 009c 3A       		.uleb128 0x3a
 4475 009d 0B       		.uleb128 0xb
 4476 009e 3B       		.uleb128 0x3b
 4477 009f 0B       		.uleb128 0xb
 4478 00a0 01       		.uleb128 0x1
 4479 00a1 13       		.uleb128 0x13
 4480 00a2 00       		.byte	0
 4481 00a3 00       		.byte	0
 4482 00a4 0F       		.uleb128 0xf
 4483 00a5 0D       		.uleb128 0xd
 4484 00a6 00       		.byte	0
ARM GAS  C:\Users\kiwamu\AppData\Local\Temp\ccLfX6Zi.s 			page 108


 4485 00a7 03       		.uleb128 0x3
 4486 00a8 0E       		.uleb128 0xe
 4487 00a9 3A       		.uleb128 0x3a
 4488 00aa 0B       		.uleb128 0xb
 4489 00ab 3B       		.uleb128 0x3b
 4490 00ac 0B       		.uleb128 0xb
 4491 00ad 49       		.uleb128 0x49
 4492 00ae 13       		.uleb128 0x13
 4493 00af 38       		.uleb128 0x38
 4494 00b0 05       		.uleb128 0x5
 4495 00b1 00       		.byte	0
 4496 00b2 00       		.byte	0
 4497 00b3 10       		.uleb128 0x10
 4498 00b4 21       		.uleb128 0x21
 4499 00b5 00       		.byte	0
 4500 00b6 49       		.uleb128 0x49
 4501 00b7 13       		.uleb128 0x13
 4502 00b8 2F       		.uleb128 0x2f
 4503 00b9 05       		.uleb128 0x5
 4504 00ba 00       		.byte	0
 4505 00bb 00       		.byte	0
 4506 00bc 11       		.uleb128 0x11
 4507 00bd 0D       		.uleb128 0xd
 4508 00be 00       		.byte	0
 4509 00bf 03       		.uleb128 0x3
 4510 00c0 08       		.uleb128 0x8
 4511 00c1 3A       		.uleb128 0x3a
 4512 00c2 0B       		.uleb128 0xb
 4513 00c3 3B       		.uleb128 0x3b
 4514 00c4 0B       		.uleb128 0xb
 4515 00c5 49       		.uleb128 0x49
 4516 00c6 13       		.uleb128 0x13
 4517 00c7 38       		.uleb128 0x38
 4518 00c8 0B       		.uleb128 0xb
 4519 00c9 00       		.byte	0
 4520 00ca 00       		.byte	0
 4521 00cb 12       		.uleb128 0x12
 4522 00cc 04       		.uleb128 0x4
 4523 00cd 01       		.byte	0x1
 4524 00ce 0B       		.uleb128 0xb
 4525 00cf 0B       		.uleb128 0xb
 4526 00d0 49       		.uleb128 0x49
 4527 00d1 13       		.uleb128 0x13
 4528 00d2 3A       		.uleb128 0x3a
 4529 00d3 0B       		.uleb128 0xb
 4530 00d4 3B       		.uleb128 0x3b
 4531 00d5 0B       		.uleb128 0xb
 4532 00d6 01       		.uleb128 0x1
 4533 00d7 13       		.uleb128 0x13
 4534 00d8 00       		.byte	0
 4535 00d9 00       		.byte	0
 4536 00da 13       		.uleb128 0x13
 4537 00db 28       		.uleb128 0x28
 4538 00dc 00       		.byte	0
 4539 00dd 03       		.uleb128 0x3
 4540 00de 0E       		.uleb128 0xe
 4541 00df 1C       		.uleb128 0x1c
ARM GAS  C:\Users\kiwamu\AppData\Local\Temp\ccLfX6Zi.s 			page 109


 4542 00e0 06       		.uleb128 0x6
 4543 00e1 00       		.byte	0
 4544 00e2 00       		.byte	0
 4545 00e3 14       		.uleb128 0x14
 4546 00e4 13       		.uleb128 0x13
 4547 00e5 01       		.byte	0x1
 4548 00e6 0B       		.uleb128 0xb
 4549 00e7 0B       		.uleb128 0xb
 4550 00e8 3A       		.uleb128 0x3a
 4551 00e9 0B       		.uleb128 0xb
 4552 00ea 3B       		.uleb128 0x3b
 4553 00eb 05       		.uleb128 0x5
 4554 00ec 01       		.uleb128 0x1
 4555 00ed 13       		.uleb128 0x13
 4556 00ee 00       		.byte	0
 4557 00ef 00       		.byte	0
 4558 00f0 15       		.uleb128 0x15
 4559 00f1 0D       		.uleb128 0xd
 4560 00f2 00       		.byte	0
 4561 00f3 03       		.uleb128 0x3
 4562 00f4 0E       		.uleb128 0xe
 4563 00f5 3A       		.uleb128 0x3a
 4564 00f6 0B       		.uleb128 0xb
 4565 00f7 3B       		.uleb128 0x3b
 4566 00f8 05       		.uleb128 0x5
 4567 00f9 49       		.uleb128 0x49
 4568 00fa 13       		.uleb128 0x13
 4569 00fb 38       		.uleb128 0x38
 4570 00fc 0B       		.uleb128 0xb
 4571 00fd 00       		.byte	0
 4572 00fe 00       		.byte	0
 4573 00ff 16       		.uleb128 0x16
 4574 0100 0F       		.uleb128 0xf
 4575 0101 00       		.byte	0
 4576 0102 0B       		.uleb128 0xb
 4577 0103 0B       		.uleb128 0xb
 4578 0104 49       		.uleb128 0x49
 4579 0105 13       		.uleb128 0x13
 4580 0106 00       		.byte	0
 4581 0107 00       		.byte	0
 4582 0108 17       		.uleb128 0x17
 4583 0109 2E       		.uleb128 0x2e
 4584 010a 01       		.byte	0x1
 4585 010b 3F       		.uleb128 0x3f
 4586 010c 19       		.uleb128 0x19
 4587 010d 03       		.uleb128 0x3
 4588 010e 0E       		.uleb128 0xe
 4589 010f 3A       		.uleb128 0x3a
 4590 0110 0B       		.uleb128 0xb
 4591 0111 3B       		.uleb128 0x3b
 4592 0112 0B       		.uleb128 0xb
 4593 0113 27       		.uleb128 0x27
 4594 0114 19       		.uleb128 0x19
 4595 0115 49       		.uleb128 0x49
 4596 0116 13       		.uleb128 0x13
 4597 0117 11       		.uleb128 0x11
 4598 0118 01       		.uleb128 0x1
ARM GAS  C:\Users\kiwamu\AppData\Local\Temp\ccLfX6Zi.s 			page 110


 4599 0119 12       		.uleb128 0x12
 4600 011a 06       		.uleb128 0x6
 4601 011b 40       		.uleb128 0x40
 4602 011c 18       		.uleb128 0x18
 4603 011d 9742     		.uleb128 0x2117
 4604 011f 19       		.uleb128 0x19
 4605 0120 01       		.uleb128 0x1
 4606 0121 13       		.uleb128 0x13
 4607 0122 00       		.byte	0
 4608 0123 00       		.byte	0
 4609 0124 18       		.uleb128 0x18
 4610 0125 05       		.uleb128 0x5
 4611 0126 00       		.byte	0
 4612 0127 03       		.uleb128 0x3
 4613 0128 0E       		.uleb128 0xe
 4614 0129 3A       		.uleb128 0x3a
 4615 012a 0B       		.uleb128 0xb
 4616 012b 3B       		.uleb128 0x3b
 4617 012c 0B       		.uleb128 0xb
 4618 012d 49       		.uleb128 0x49
 4619 012e 13       		.uleb128 0x13
 4620 012f 02       		.uleb128 0x2
 4621 0130 17       		.uleb128 0x17
 4622 0131 00       		.byte	0
 4623 0132 00       		.byte	0
 4624 0133 19       		.uleb128 0x19
 4625 0134 05       		.uleb128 0x5
 4626 0135 00       		.byte	0
 4627 0136 03       		.uleb128 0x3
 4628 0137 0E       		.uleb128 0xe
 4629 0138 3A       		.uleb128 0x3a
 4630 0139 0B       		.uleb128 0xb
 4631 013a 3B       		.uleb128 0x3b
 4632 013b 0B       		.uleb128 0xb
 4633 013c 49       		.uleb128 0x49
 4634 013d 13       		.uleb128 0x13
 4635 013e 02       		.uleb128 0x2
 4636 013f 18       		.uleb128 0x18
 4637 0140 00       		.byte	0
 4638 0141 00       		.byte	0
 4639 0142 1A       		.uleb128 0x1a
 4640 0143 34       		.uleb128 0x34
 4641 0144 00       		.byte	0
 4642 0145 03       		.uleb128 0x3
 4643 0146 0E       		.uleb128 0xe
 4644 0147 3A       		.uleb128 0x3a
 4645 0148 0B       		.uleb128 0xb
 4646 0149 3B       		.uleb128 0x3b
 4647 014a 0B       		.uleb128 0xb
 4648 014b 49       		.uleb128 0x49
 4649 014c 13       		.uleb128 0x13
 4650 014d 02       		.uleb128 0x2
 4651 014e 17       		.uleb128 0x17
 4652 014f 00       		.byte	0
 4653 0150 00       		.byte	0
 4654 0151 1B       		.uleb128 0x1b
 4655 0152 05       		.uleb128 0x5
ARM GAS  C:\Users\kiwamu\AppData\Local\Temp\ccLfX6Zi.s 			page 111


 4656 0153 00       		.byte	0
 4657 0154 03       		.uleb128 0x3
 4658 0155 08       		.uleb128 0x8
 4659 0156 3A       		.uleb128 0x3a
 4660 0157 0B       		.uleb128 0xb
 4661 0158 3B       		.uleb128 0x3b
 4662 0159 0B       		.uleb128 0xb
 4663 015a 49       		.uleb128 0x49
 4664 015b 13       		.uleb128 0x13
 4665 015c 02       		.uleb128 0x2
 4666 015d 18       		.uleb128 0x18
 4667 015e 00       		.byte	0
 4668 015f 00       		.byte	0
 4669 0160 1C       		.uleb128 0x1c
 4670 0161 34       		.uleb128 0x34
 4671 0162 00       		.byte	0
 4672 0163 03       		.uleb128 0x3
 4673 0164 0E       		.uleb128 0xe
 4674 0165 3A       		.uleb128 0x3a
 4675 0166 0B       		.uleb128 0xb
 4676 0167 3B       		.uleb128 0x3b
 4677 0168 0B       		.uleb128 0xb
 4678 0169 49       		.uleb128 0x49
 4679 016a 13       		.uleb128 0x13
 4680 016b 02       		.uleb128 0x2
 4681 016c 18       		.uleb128 0x18
 4682 016d 00       		.byte	0
 4683 016e 00       		.byte	0
 4684 016f 1D       		.uleb128 0x1d
 4685 0170 2E       		.uleb128 0x2e
 4686 0171 01       		.byte	0x1
 4687 0172 3F       		.uleb128 0x3f
 4688 0173 19       		.uleb128 0x19
 4689 0174 03       		.uleb128 0x3
 4690 0175 0E       		.uleb128 0xe
 4691 0176 3A       		.uleb128 0x3a
 4692 0177 0B       		.uleb128 0xb
 4693 0178 3B       		.uleb128 0x3b
 4694 0179 05       		.uleb128 0x5
 4695 017a 27       		.uleb128 0x27
 4696 017b 19       		.uleb128 0x19
 4697 017c 49       		.uleb128 0x49
 4698 017d 13       		.uleb128 0x13
 4699 017e 11       		.uleb128 0x11
 4700 017f 01       		.uleb128 0x1
 4701 0180 12       		.uleb128 0x12
 4702 0181 06       		.uleb128 0x6
 4703 0182 40       		.uleb128 0x40
 4704 0183 18       		.uleb128 0x18
 4705 0184 9742     		.uleb128 0x2117
 4706 0186 19       		.uleb128 0x19
 4707 0187 01       		.uleb128 0x1
 4708 0188 13       		.uleb128 0x13
 4709 0189 00       		.byte	0
 4710 018a 00       		.byte	0
 4711 018b 1E       		.uleb128 0x1e
 4712 018c 05       		.uleb128 0x5
ARM GAS  C:\Users\kiwamu\AppData\Local\Temp\ccLfX6Zi.s 			page 112


 4713 018d 00       		.byte	0
 4714 018e 03       		.uleb128 0x3
 4715 018f 0E       		.uleb128 0xe
 4716 0190 3A       		.uleb128 0x3a
 4717 0191 0B       		.uleb128 0xb
 4718 0192 3B       		.uleb128 0x3b
 4719 0193 05       		.uleb128 0x5
 4720 0194 49       		.uleb128 0x49
 4721 0195 13       		.uleb128 0x13
 4722 0196 02       		.uleb128 0x2
 4723 0197 17       		.uleb128 0x17
 4724 0198 00       		.byte	0
 4725 0199 00       		.byte	0
 4726 019a 1F       		.uleb128 0x1f
 4727 019b 34       		.uleb128 0x34
 4728 019c 00       		.byte	0
 4729 019d 03       		.uleb128 0x3
 4730 019e 0E       		.uleb128 0xe
 4731 019f 3A       		.uleb128 0x3a
 4732 01a0 0B       		.uleb128 0xb
 4733 01a1 3B       		.uleb128 0x3b
 4734 01a2 05       		.uleb128 0x5
 4735 01a3 49       		.uleb128 0x49
 4736 01a4 13       		.uleb128 0x13
 4737 01a5 02       		.uleb128 0x2
 4738 01a6 17       		.uleb128 0x17
 4739 01a7 00       		.byte	0
 4740 01a8 00       		.byte	0
 4741 01a9 20       		.uleb128 0x20
 4742 01aa 05       		.uleb128 0x5
 4743 01ab 00       		.byte	0
 4744 01ac 03       		.uleb128 0x3
 4745 01ad 0E       		.uleb128 0xe
 4746 01ae 3A       		.uleb128 0x3a
 4747 01af 0B       		.uleb128 0xb
 4748 01b0 3B       		.uleb128 0x3b
 4749 01b1 05       		.uleb128 0x5
 4750 01b2 49       		.uleb128 0x49
 4751 01b3 13       		.uleb128 0x13
 4752 01b4 02       		.uleb128 0x2
 4753 01b5 18       		.uleb128 0x18
 4754 01b6 00       		.byte	0
 4755 01b7 00       		.byte	0
 4756 01b8 21       		.uleb128 0x21
 4757 01b9 34       		.uleb128 0x34
 4758 01ba 00       		.byte	0
 4759 01bb 03       		.uleb128 0x3
 4760 01bc 0E       		.uleb128 0xe
 4761 01bd 3A       		.uleb128 0x3a
 4762 01be 0B       		.uleb128 0xb
 4763 01bf 3B       		.uleb128 0x3b
 4764 01c0 05       		.uleb128 0x5
 4765 01c1 49       		.uleb128 0x49
 4766 01c2 13       		.uleb128 0x13
 4767 01c3 3F       		.uleb128 0x3f
 4768 01c4 19       		.uleb128 0x19
 4769 01c5 3C       		.uleb128 0x3c
ARM GAS  C:\Users\kiwamu\AppData\Local\Temp\ccLfX6Zi.s 			page 113


 4770 01c6 19       		.uleb128 0x19
 4771 01c7 00       		.byte	0
 4772 01c8 00       		.byte	0
 4773 01c9 00       		.byte	0
 4774              		.section	.debug_loc,"",%progbits
 4775              	.Ldebug_loc0:
 4776              	.LLST0:
 4777 0000 00000000 		.4byte	.LVL0
 4778 0004 0A000000 		.4byte	.LVL2
 4779 0008 0100     		.2byte	0x1
 4780 000a 50       		.byte	0x50
 4781 000b 0A000000 		.4byte	.LVL2
 4782 000f 2A000000 		.4byte	.LVL8
 4783 0013 0400     		.2byte	0x4
 4784 0015 F3       		.byte	0xf3
 4785 0016 01       		.uleb128 0x1
 4786 0017 50       		.byte	0x50
 4787 0018 9F       		.byte	0x9f
 4788 0019 2A000000 		.4byte	.LVL8
 4789 001d 2C000000 		.4byte	.LVL9
 4790 0021 0100     		.2byte	0x1
 4791 0023 50       		.byte	0x50
 4792 0024 2C000000 		.4byte	.LVL9
 4793 0028 34000000 		.4byte	.LFE123
 4794 002c 0400     		.2byte	0x4
 4795 002e F3       		.byte	0xf3
 4796 002f 01       		.uleb128 0x1
 4797 0030 50       		.byte	0x50
 4798 0031 9F       		.byte	0x9f
 4799 0032 00000000 		.4byte	0
 4800 0036 00000000 		.4byte	0
 4801              	.LLST1:
 4802 003a 00000000 		.4byte	.LVL0
 4803 003e 16000000 		.4byte	.LVL5
 4804 0042 0100     		.2byte	0x1
 4805 0044 52       		.byte	0x52
 4806 0045 16000000 		.4byte	.LVL5
 4807 0049 2A000000 		.4byte	.LVL8
 4808 004d 0400     		.2byte	0x4
 4809 004f F3       		.byte	0xf3
 4810 0050 01       		.uleb128 0x1
 4811 0051 52       		.byte	0x52
 4812 0052 9F       		.byte	0x9f
 4813 0053 2A000000 		.4byte	.LVL8
 4814 0057 34000000 		.4byte	.LFE123
 4815 005b 0100     		.2byte	0x1
 4816 005d 52       		.byte	0x52
 4817 005e 00000000 		.4byte	0
 4818 0062 00000000 		.4byte	0
 4819              	.LLST2:
 4820 0066 00000000 		.4byte	.LVL0
 4821 006a 22000000 		.4byte	.LVL6
 4822 006e 0100     		.2byte	0x1
 4823 0070 53       		.byte	0x53
 4824 0071 22000000 		.4byte	.LVL6
 4825 0075 2A000000 		.4byte	.LVL8
 4826 0079 0400     		.2byte	0x4
ARM GAS  C:\Users\kiwamu\AppData\Local\Temp\ccLfX6Zi.s 			page 114


 4827 007b F3       		.byte	0xf3
 4828 007c 01       		.uleb128 0x1
 4829 007d 53       		.byte	0x53
 4830 007e 9F       		.byte	0x9f
 4831 007f 2A000000 		.4byte	.LVL8
 4832 0083 34000000 		.4byte	.LFE123
 4833 0087 0100     		.2byte	0x1
 4834 0089 53       		.byte	0x53
 4835 008a 00000000 		.4byte	0
 4836 008e 00000000 		.4byte	0
 4837              	.LLST3:
 4838 0092 02000000 		.4byte	.LVL1
 4839 0096 2C000000 		.4byte	.LVL9
 4840 009a 0200     		.2byte	0x2
 4841 009c 30       		.byte	0x30
 4842 009d 9F       		.byte	0x9f
 4843 009e 2C000000 		.4byte	.LVL9
 4844 00a2 34000000 		.4byte	.LFE123
 4845 00a6 0100     		.2byte	0x1
 4846 00a8 50       		.byte	0x50
 4847 00a9 00000000 		.4byte	0
 4848 00ad 00000000 		.4byte	0
 4849              	.LLST4:
 4850 00b1 22000000 		.4byte	.LVL6
 4851 00b5 2A000000 		.4byte	.LVL8
 4852 00b9 0100     		.2byte	0x1
 4853 00bb 53       		.byte	0x53
 4854 00bc 00000000 		.4byte	0
 4855 00c0 00000000 		.4byte	0
 4856              	.LLST5:
 4857 00c4 02000000 		.4byte	.LVL1
 4858 00c8 0A000000 		.4byte	.LVL2
 4859 00cc 0B00     		.2byte	0xb
 4860 00ce 70       		.byte	0x70
 4861 00cf 00       		.sleb128 0
 4862 00d0 32       		.byte	0x32
 4863 00d1 24       		.byte	0x24
 4864 00d2 23       		.byte	0x23
 4865 00d3 80809081 		.uleb128 0x40240000
 4865      04
 4866 00d8 9F       		.byte	0x9f
 4867 00d9 0A000000 		.4byte	.LVL2
 4868 00dd 0E000000 		.4byte	.LVL3
 4869 00e1 0700     		.2byte	0x7
 4870 00e3 70       		.byte	0x70
 4871 00e4 80809081 		.sleb128 1076101120
 4871      04
 4872 00e9 9F       		.byte	0x9f
 4873 00ea 0E000000 		.4byte	.LVL3
 4874 00ee 12000000 		.4byte	.LVL4
 4875 00f2 0600     		.2byte	0x6
 4876 00f4 70       		.byte	0x70
 4877 00f5 80809001 		.sleb128 2359296
 4878 00f9 9F       		.byte	0x9f
 4879 00fa 12000000 		.4byte	.LVL4
 4880 00fe 26000000 		.4byte	.LVL7
 4881 0102 0100     		.2byte	0x1
ARM GAS  C:\Users\kiwamu\AppData\Local\Temp\ccLfX6Zi.s 			page 115


 4882 0104 50       		.byte	0x50
 4883 0105 2A000000 		.4byte	.LVL8
 4884 0109 2C000000 		.4byte	.LVL9
 4885 010d 0B00     		.2byte	0xb
 4886 010f 70       		.byte	0x70
 4887 0110 00       		.sleb128 0
 4888 0111 32       		.byte	0x32
 4889 0112 24       		.byte	0x24
 4890 0113 23       		.byte	0x23
 4891 0114 80809081 		.uleb128 0x40240000
 4891      04
 4892 0119 9F       		.byte	0x9f
 4893 011a 00000000 		.4byte	0
 4894 011e 00000000 		.4byte	0
 4895              	.LLST6:
 4896 0122 00000000 		.4byte	.LVL10
 4897 0126 02000000 		.4byte	.LVL11
 4898 012a 0100     		.2byte	0x1
 4899 012c 50       		.byte	0x50
 4900 012d 02000000 		.4byte	.LVL11
 4901 0131 3C000000 		.4byte	.LFE124
 4902 0135 0400     		.2byte	0x4
 4903 0137 F3       		.byte	0xf3
 4904 0138 01       		.uleb128 0x1
 4905 0139 50       		.byte	0x50
 4906 013a 9F       		.byte	0x9f
 4907 013b 00000000 		.4byte	0
 4908 013f 00000000 		.4byte	0
 4909              	.LLST7:
 4910 0143 00000000 		.4byte	.LVL10
 4911 0147 30000000 		.4byte	.LVL17
 4912 014b 0200     		.2byte	0x2
 4913 014d 30       		.byte	0x30
 4914 014e 9F       		.byte	0x9f
 4915 014f 30000000 		.4byte	.LVL17
 4916 0153 3C000000 		.4byte	.LFE124
 4917 0157 0100     		.2byte	0x1
 4918 0159 50       		.byte	0x50
 4919 015a 00000000 		.4byte	0
 4920 015e 00000000 		.4byte	0
 4921              	.LLST8:
 4922 0162 0A000000 		.4byte	.LVL12
 4923 0166 28000000 		.4byte	.LVL13
 4924 016a 0100     		.2byte	0x1
 4925 016c 50       		.byte	0x50
 4926 016d 2A000000 		.4byte	.LVL14
 4927 0171 2C000000 		.4byte	.LVL15
 4928 0175 0100     		.2byte	0x1
 4929 0177 50       		.byte	0x50
 4930 0178 2E000000 		.4byte	.LVL16
 4931 017c 30000000 		.4byte	.LVL17
 4932 0180 0100     		.2byte	0x1
 4933 0182 50       		.byte	0x50
 4934 0183 00000000 		.4byte	0
 4935 0187 00000000 		.4byte	0
 4936              	.LLST9:
 4937 018b 00000000 		.4byte	.LVL18
ARM GAS  C:\Users\kiwamu\AppData\Local\Temp\ccLfX6Zi.s 			page 116


 4938 018f 02000000 		.4byte	.LVL19
 4939 0193 0100     		.2byte	0x1
 4940 0195 50       		.byte	0x50
 4941 0196 02000000 		.4byte	.LVL19
 4942 019a 12000000 		.4byte	.LFE125
 4943 019e 0400     		.2byte	0x4
 4944 01a0 F3       		.byte	0xf3
 4945 01a1 01       		.uleb128 0x1
 4946 01a2 50       		.byte	0x50
 4947 01a3 9F       		.byte	0x9f
 4948 01a4 00000000 		.4byte	0
 4949 01a8 00000000 		.4byte	0
 4950              	.LLST10:
 4951 01ac 0A000000 		.4byte	.LVL20
 4952 01b0 0C000000 		.4byte	.LVL21
 4953 01b4 0100     		.2byte	0x1
 4954 01b6 50       		.byte	0x50
 4955 01b7 00000000 		.4byte	0
 4956 01bb 00000000 		.4byte	0
 4957              	.LLST11:
 4958 01bf 00000000 		.4byte	.LVL22
 4959 01c3 46000000 		.4byte	.LVL26
 4960 01c7 0100     		.2byte	0x1
 4961 01c9 50       		.byte	0x50
 4962 01ca 46000000 		.4byte	.LVL26
 4963 01ce 48000000 		.4byte	.LVL27
 4964 01d2 0400     		.2byte	0x4
 4965 01d4 F3       		.byte	0xf3
 4966 01d5 01       		.uleb128 0x1
 4967 01d6 50       		.byte	0x50
 4968 01d7 9F       		.byte	0x9f
 4969 01d8 48000000 		.4byte	.LVL27
 4970 01dc 4A000000 		.4byte	.LVL28
 4971 01e0 0100     		.2byte	0x1
 4972 01e2 50       		.byte	0x50
 4973 01e3 4A000000 		.4byte	.LVL28
 4974 01e7 4C000000 		.4byte	.LVL29
 4975 01eb 0400     		.2byte	0x4
 4976 01ed F3       		.byte	0xf3
 4977 01ee 01       		.uleb128 0x1
 4978 01ef 50       		.byte	0x50
 4979 01f0 9F       		.byte	0x9f
 4980 01f1 4C000000 		.4byte	.LVL29
 4981 01f5 4E000000 		.4byte	.LVL30
 4982 01f9 0100     		.2byte	0x1
 4983 01fb 50       		.byte	0x50
 4984 01fc 4E000000 		.4byte	.LVL30
 4985 0200 58000000 		.4byte	.LFE126
 4986 0204 0400     		.2byte	0x4
 4987 0206 F3       		.byte	0xf3
 4988 0207 01       		.uleb128 0x1
 4989 0208 50       		.byte	0x50
 4990 0209 9F       		.byte	0x9f
 4991 020a 00000000 		.4byte	0
 4992 020e 00000000 		.4byte	0
 4993              	.LLST12:
 4994 0212 02000000 		.4byte	.LVL23
ARM GAS  C:\Users\kiwamu\AppData\Local\Temp\ccLfX6Zi.s 			page 117


 4995 0216 4E000000 		.4byte	.LVL30
 4996 021a 0200     		.2byte	0x2
 4997 021c 30       		.byte	0x30
 4998 021d 9F       		.byte	0x9f
 4999 021e 4E000000 		.4byte	.LVL30
 5000 0222 58000000 		.4byte	.LFE126
 5001 0226 0100     		.2byte	0x1
 5002 0228 50       		.byte	0x50
 5003 0229 00000000 		.4byte	0
 5004 022d 00000000 		.4byte	0
 5005              	.LLST13:
 5006 0231 0C000000 		.4byte	.LVL24
 5007 0235 52000000 		.4byte	.LVL31
 5008 0239 0100     		.2byte	0x1
 5009 023b 54       		.byte	0x54
 5010 023c 52000000 		.4byte	.LVL31
 5011 0240 58000000 		.4byte	.LFE126
 5012 0244 0300     		.2byte	0x3
 5013 0246 F3       		.byte	0xf3
 5014 0247 01       		.uleb128 0x1
 5015 0248 50       		.byte	0x50
 5016 0249 00000000 		.4byte	0
 5017 024d 00000000 		.4byte	0
 5018              	.LLST14:
 5019 0251 00000000 		.4byte	.LVL32
 5020 0255 10000000 		.4byte	.LVL33
 5021 0259 0100     		.2byte	0x1
 5022 025b 50       		.byte	0x50
 5023 025c 10000000 		.4byte	.LVL33
 5024 0260 12000000 		.4byte	.LVL34
 5025 0264 0400     		.2byte	0x4
 5026 0266 F3       		.byte	0xf3
 5027 0267 01       		.uleb128 0x1
 5028 0268 50       		.byte	0x50
 5029 0269 9F       		.byte	0x9f
 5030 026a 12000000 		.4byte	.LVL34
 5031 026e 14000000 		.4byte	.LVL35
 5032 0272 0100     		.2byte	0x1
 5033 0274 50       		.byte	0x50
 5034 0275 14000000 		.4byte	.LVL35
 5035 0279 1C000000 		.4byte	.LFE127
 5036 027d 0400     		.2byte	0x4
 5037 027f F3       		.byte	0xf3
 5038 0280 01       		.uleb128 0x1
 5039 0281 50       		.byte	0x50
 5040 0282 9F       		.byte	0x9f
 5041 0283 00000000 		.4byte	0
 5042 0287 00000000 		.4byte	0
 5043              	.LLST15:
 5044 028b 00000000 		.4byte	.LVL32
 5045 028f 14000000 		.4byte	.LVL35
 5046 0293 0200     		.2byte	0x2
 5047 0295 30       		.byte	0x30
 5048 0296 9F       		.byte	0x9f
 5049 0297 14000000 		.4byte	.LVL35
 5050 029b 1C000000 		.4byte	.LFE127
 5051 029f 0100     		.2byte	0x1
ARM GAS  C:\Users\kiwamu\AppData\Local\Temp\ccLfX6Zi.s 			page 118


 5052 02a1 50       		.byte	0x50
 5053 02a2 00000000 		.4byte	0
 5054 02a6 00000000 		.4byte	0
 5055              	.LLST16:
 5056 02aa 00000000 		.4byte	.LVL36
 5057 02ae 10000000 		.4byte	.LVL37
 5058 02b2 0100     		.2byte	0x1
 5059 02b4 50       		.byte	0x50
 5060 02b5 10000000 		.4byte	.LVL37
 5061 02b9 12000000 		.4byte	.LVL38
 5062 02bd 0400     		.2byte	0x4
 5063 02bf F3       		.byte	0xf3
 5064 02c0 01       		.uleb128 0x1
 5065 02c1 50       		.byte	0x50
 5066 02c2 9F       		.byte	0x9f
 5067 02c3 12000000 		.4byte	.LVL38
 5068 02c7 14000000 		.4byte	.LVL39
 5069 02cb 0100     		.2byte	0x1
 5070 02cd 50       		.byte	0x50
 5071 02ce 14000000 		.4byte	.LVL39
 5072 02d2 1C000000 		.4byte	.LFE128
 5073 02d6 0400     		.2byte	0x4
 5074 02d8 F3       		.byte	0xf3
 5075 02d9 01       		.uleb128 0x1
 5076 02da 50       		.byte	0x50
 5077 02db 9F       		.byte	0x9f
 5078 02dc 00000000 		.4byte	0
 5079 02e0 00000000 		.4byte	0
 5080              	.LLST17:
 5081 02e4 00000000 		.4byte	.LVL36
 5082 02e8 14000000 		.4byte	.LVL39
 5083 02ec 0200     		.2byte	0x2
 5084 02ee 30       		.byte	0x30
 5085 02ef 9F       		.byte	0x9f
 5086 02f0 14000000 		.4byte	.LVL39
 5087 02f4 1C000000 		.4byte	.LFE128
 5088 02f8 0100     		.2byte	0x1
 5089 02fa 50       		.byte	0x50
 5090 02fb 00000000 		.4byte	0
 5091 02ff 00000000 		.4byte	0
 5092              	.LLST18:
 5093 0303 00000000 		.4byte	.LVL40
 5094 0307 50000000 		.4byte	.LVL44
 5095 030b 0100     		.2byte	0x1
 5096 030d 50       		.byte	0x50
 5097 030e 50000000 		.4byte	.LVL44
 5098 0312 52000000 		.4byte	.LVL45
 5099 0316 0400     		.2byte	0x4
 5100 0318 F3       		.byte	0xf3
 5101 0319 01       		.uleb128 0x1
 5102 031a 50       		.byte	0x50
 5103 031b 9F       		.byte	0x9f
 5104 031c 52000000 		.4byte	.LVL45
 5105 0320 54000000 		.4byte	.LVL46
 5106 0324 0100     		.2byte	0x1
 5107 0326 50       		.byte	0x50
 5108 0327 54000000 		.4byte	.LVL46
ARM GAS  C:\Users\kiwamu\AppData\Local\Temp\ccLfX6Zi.s 			page 119


 5109 032b 56000000 		.4byte	.LVL47
 5110 032f 0400     		.2byte	0x4
 5111 0331 F3       		.byte	0xf3
 5112 0332 01       		.uleb128 0x1
 5113 0333 50       		.byte	0x50
 5114 0334 9F       		.byte	0x9f
 5115 0335 56000000 		.4byte	.LVL47
 5116 0339 58000000 		.4byte	.LVL48
 5117 033d 0100     		.2byte	0x1
 5118 033f 50       		.byte	0x50
 5119 0340 58000000 		.4byte	.LVL48
 5120 0344 5A000000 		.4byte	.LVL49
 5121 0348 0400     		.2byte	0x4
 5122 034a F3       		.byte	0xf3
 5123 034b 01       		.uleb128 0x1
 5124 034c 50       		.byte	0x50
 5125 034d 9F       		.byte	0x9f
 5126 034e 5A000000 		.4byte	.LVL49
 5127 0352 5C000000 		.4byte	.LVL50
 5128 0356 0100     		.2byte	0x1
 5129 0358 50       		.byte	0x50
 5130 0359 5C000000 		.4byte	.LVL50
 5131 035d 78000000 		.4byte	.LFE129
 5132 0361 0400     		.2byte	0x4
 5133 0363 F3       		.byte	0xf3
 5134 0364 01       		.uleb128 0x1
 5135 0365 50       		.byte	0x50
 5136 0366 9F       		.byte	0x9f
 5137 0367 00000000 		.4byte	0
 5138 036b 00000000 		.4byte	0
 5139              	.LLST19:
 5140 036f 00000000 		.4byte	.LVL40
 5141 0373 46000000 		.4byte	.LVL43
 5142 0377 0100     		.2byte	0x1
 5143 0379 51       		.byte	0x51
 5144 037a 46000000 		.4byte	.LVL43
 5145 037e 52000000 		.4byte	.LVL45
 5146 0382 0400     		.2byte	0x4
 5147 0384 F3       		.byte	0xf3
 5148 0385 01       		.uleb128 0x1
 5149 0386 51       		.byte	0x51
 5150 0387 9F       		.byte	0x9f
 5151 0388 52000000 		.4byte	.LVL45
 5152 038c 5A000000 		.4byte	.LVL49
 5153 0390 0100     		.2byte	0x1
 5154 0392 51       		.byte	0x51
 5155 0393 5A000000 		.4byte	.LVL49
 5156 0397 78000000 		.4byte	.LFE129
 5157 039b 0400     		.2byte	0x4
 5158 039d F3       		.byte	0xf3
 5159 039e 01       		.uleb128 0x1
 5160 039f 51       		.byte	0x51
 5161 03a0 9F       		.byte	0x9f
 5162 03a1 00000000 		.4byte	0
 5163 03a5 00000000 		.4byte	0
 5164              	.LLST20:
 5165 03a9 02000000 		.4byte	.LVL41
ARM GAS  C:\Users\kiwamu\AppData\Local\Temp\ccLfX6Zi.s 			page 120


 5166 03ad 5C000000 		.4byte	.LVL50
 5167 03b1 0200     		.2byte	0x2
 5168 03b3 30       		.byte	0x30
 5169 03b4 9F       		.byte	0x9f
 5170 03b5 5C000000 		.4byte	.LVL50
 5171 03b9 78000000 		.4byte	.LFE129
 5172 03bd 0100     		.2byte	0x1
 5173 03bf 50       		.byte	0x50
 5174 03c0 00000000 		.4byte	0
 5175 03c4 00000000 		.4byte	0
 5176              	.LLST21:
 5177 03c8 3A000000 		.4byte	.LVL42
 5178 03cc 52000000 		.4byte	.LVL45
 5179 03d0 0100     		.2byte	0x1
 5180 03d2 53       		.byte	0x53
 5181 03d3 56000000 		.4byte	.LVL47
 5182 03d7 5C000000 		.4byte	.LVL50
 5183 03db 0100     		.2byte	0x1
 5184 03dd 53       		.byte	0x53
 5185 03de 00000000 		.4byte	0
 5186 03e2 00000000 		.4byte	0
 5187              	.LLST22:
 5188 03e6 00000000 		.4byte	.LVL51
 5189 03ea 64000000 		.4byte	.LVL55
 5190 03ee 0100     		.2byte	0x1
 5191 03f0 50       		.byte	0x50
 5192 03f1 64000000 		.4byte	.LVL55
 5193 03f5 66000000 		.4byte	.LVL56
 5194 03f9 0400     		.2byte	0x4
 5195 03fb F3       		.byte	0xf3
 5196 03fc 01       		.uleb128 0x1
 5197 03fd 50       		.byte	0x50
 5198 03fe 9F       		.byte	0x9f
 5199 03ff 66000000 		.4byte	.LVL56
 5200 0403 68000000 		.4byte	.LVL57
 5201 0407 0100     		.2byte	0x1
 5202 0409 50       		.byte	0x50
 5203 040a 68000000 		.4byte	.LVL57
 5204 040e 6A000000 		.4byte	.LVL58
 5205 0412 0400     		.2byte	0x4
 5206 0414 F3       		.byte	0xf3
 5207 0415 01       		.uleb128 0x1
 5208 0416 50       		.byte	0x50
 5209 0417 9F       		.byte	0x9f
 5210 0418 6A000000 		.4byte	.LVL58
 5211 041c 6C000000 		.4byte	.LVL59
 5212 0420 0100     		.2byte	0x1
 5213 0422 50       		.byte	0x50
 5214 0423 6C000000 		.4byte	.LVL59
 5215 0427 6E000000 		.4byte	.LVL60
 5216 042b 0400     		.2byte	0x4
 5217 042d F3       		.byte	0xf3
 5218 042e 01       		.uleb128 0x1
 5219 042f 50       		.byte	0x50
 5220 0430 9F       		.byte	0x9f
 5221 0431 6E000000 		.4byte	.LVL60
 5222 0435 70000000 		.4byte	.LVL61
ARM GAS  C:\Users\kiwamu\AppData\Local\Temp\ccLfX6Zi.s 			page 121


 5223 0439 0100     		.2byte	0x1
 5224 043b 50       		.byte	0x50
 5225 043c 70000000 		.4byte	.LVL61
 5226 0440 80000000 		.4byte	.LFE130
 5227 0444 0400     		.2byte	0x4
 5228 0446 F3       		.byte	0xf3
 5229 0447 01       		.uleb128 0x1
 5230 0448 50       		.byte	0x50
 5231 0449 9F       		.byte	0x9f
 5232 044a 00000000 		.4byte	0
 5233 044e 00000000 		.4byte	0
 5234              	.LLST23:
 5235 0452 02000000 		.4byte	.LVL52
 5236 0456 70000000 		.4byte	.LVL61
 5237 045a 0200     		.2byte	0x2
 5238 045c 30       		.byte	0x30
 5239 045d 9F       		.byte	0x9f
 5240 045e 70000000 		.4byte	.LVL61
 5241 0462 80000000 		.4byte	.LFE130
 5242 0466 0100     		.2byte	0x1
 5243 0468 50       		.byte	0x50
 5244 0469 00000000 		.4byte	0
 5245 046d 00000000 		.4byte	0
 5246              	.LLST24:
 5247 0471 14000000 		.4byte	.LVL53
 5248 0475 66000000 		.4byte	.LVL56
 5249 0479 0100     		.2byte	0x1
 5250 047b 54       		.byte	0x54
 5251 047c 6A000000 		.4byte	.LVL58
 5252 0480 70000000 		.4byte	.LVL61
 5253 0484 0100     		.2byte	0x1
 5254 0486 54       		.byte	0x54
 5255 0487 00000000 		.4byte	0
 5256 048b 00000000 		.4byte	0
 5257              	.LLST25:
 5258 048f 4E000000 		.4byte	.LVL54
 5259 0493 66000000 		.4byte	.LVL56
 5260 0497 0100     		.2byte	0x1
 5261 0499 53       		.byte	0x53
 5262 049a 6A000000 		.4byte	.LVL58
 5263 049e 70000000 		.4byte	.LVL61
 5264 04a2 0100     		.2byte	0x1
 5265 04a4 53       		.byte	0x53
 5266 04a5 00000000 		.4byte	0
 5267 04a9 00000000 		.4byte	0
 5268              	.LLST26:
 5269 04ad 00000000 		.4byte	.LVL62
 5270 04b1 10000000 		.4byte	.LVL63
 5271 04b5 0100     		.2byte	0x1
 5272 04b7 50       		.byte	0x50
 5273 04b8 10000000 		.4byte	.LVL63
 5274 04bc 12000000 		.4byte	.LVL64
 5275 04c0 0400     		.2byte	0x4
 5276 04c2 F3       		.byte	0xf3
 5277 04c3 01       		.uleb128 0x1
 5278 04c4 50       		.byte	0x50
 5279 04c5 9F       		.byte	0x9f
ARM GAS  C:\Users\kiwamu\AppData\Local\Temp\ccLfX6Zi.s 			page 122


 5280 04c6 12000000 		.4byte	.LVL64
 5281 04ca 14000000 		.4byte	.LVL65
 5282 04ce 0100     		.2byte	0x1
 5283 04d0 50       		.byte	0x50
 5284 04d1 14000000 		.4byte	.LVL65
 5285 04d5 1C000000 		.4byte	.LFE131
 5286 04d9 0400     		.2byte	0x4
 5287 04db F3       		.byte	0xf3
 5288 04dc 01       		.uleb128 0x1
 5289 04dd 50       		.byte	0x50
 5290 04de 9F       		.byte	0x9f
 5291 04df 00000000 		.4byte	0
 5292 04e3 00000000 		.4byte	0
 5293              	.LLST27:
 5294 04e7 00000000 		.4byte	.LVL62
 5295 04eb 14000000 		.4byte	.LVL65
 5296 04ef 0200     		.2byte	0x2
 5297 04f1 30       		.byte	0x30
 5298 04f2 9F       		.byte	0x9f
 5299 04f3 14000000 		.4byte	.LVL65
 5300 04f7 1C000000 		.4byte	.LFE131
 5301 04fb 0100     		.2byte	0x1
 5302 04fd 50       		.byte	0x50
 5303 04fe 00000000 		.4byte	0
 5304 0502 00000000 		.4byte	0
 5305              	.LLST28:
 5306 0506 00000000 		.4byte	.LVL66
 5307 050a 10000000 		.4byte	.LVL67
 5308 050e 0100     		.2byte	0x1
 5309 0510 50       		.byte	0x50
 5310 0511 10000000 		.4byte	.LVL67
 5311 0515 12000000 		.4byte	.LVL68
 5312 0519 0400     		.2byte	0x4
 5313 051b F3       		.byte	0xf3
 5314 051c 01       		.uleb128 0x1
 5315 051d 50       		.byte	0x50
 5316 051e 9F       		.byte	0x9f
 5317 051f 12000000 		.4byte	.LVL68
 5318 0523 14000000 		.4byte	.LVL69
 5319 0527 0100     		.2byte	0x1
 5320 0529 50       		.byte	0x50
 5321 052a 14000000 		.4byte	.LVL69
 5322 052e 1C000000 		.4byte	.LFE132
 5323 0532 0400     		.2byte	0x4
 5324 0534 F3       		.byte	0xf3
 5325 0535 01       		.uleb128 0x1
 5326 0536 50       		.byte	0x50
 5327 0537 9F       		.byte	0x9f
 5328 0538 00000000 		.4byte	0
 5329 053c 00000000 		.4byte	0
 5330              	.LLST29:
 5331 0540 00000000 		.4byte	.LVL66
 5332 0544 14000000 		.4byte	.LVL69
 5333 0548 0200     		.2byte	0x2
 5334 054a 30       		.byte	0x30
 5335 054b 9F       		.byte	0x9f
 5336 054c 14000000 		.4byte	.LVL69
ARM GAS  C:\Users\kiwamu\AppData\Local\Temp\ccLfX6Zi.s 			page 123


 5337 0550 1C000000 		.4byte	.LFE132
 5338 0554 0100     		.2byte	0x1
 5339 0556 50       		.byte	0x50
 5340 0557 00000000 		.4byte	0
 5341 055b 00000000 		.4byte	0
 5342              	.LLST30:
 5343 055f 00000000 		.4byte	.LVL70
 5344 0563 10000000 		.4byte	.LVL71
 5345 0567 0100     		.2byte	0x1
 5346 0569 50       		.byte	0x50
 5347 056a 10000000 		.4byte	.LVL71
 5348 056e 12000000 		.4byte	.LVL72
 5349 0572 0400     		.2byte	0x4
 5350 0574 F3       		.byte	0xf3
 5351 0575 01       		.uleb128 0x1
 5352 0576 50       		.byte	0x50
 5353 0577 9F       		.byte	0x9f
 5354 0578 12000000 		.4byte	.LVL72
 5355 057c 14000000 		.4byte	.LVL73
 5356 0580 0100     		.2byte	0x1
 5357 0582 50       		.byte	0x50
 5358 0583 14000000 		.4byte	.LVL73
 5359 0587 1C000000 		.4byte	.LFE133
 5360 058b 0400     		.2byte	0x4
 5361 058d F3       		.byte	0xf3
 5362 058e 01       		.uleb128 0x1
 5363 058f 50       		.byte	0x50
 5364 0590 9F       		.byte	0x9f
 5365 0591 00000000 		.4byte	0
 5366 0595 00000000 		.4byte	0
 5367              	.LLST31:
 5368 0599 00000000 		.4byte	.LVL70
 5369 059d 14000000 		.4byte	.LVL73
 5370 05a1 0200     		.2byte	0x2
 5371 05a3 30       		.byte	0x30
 5372 05a4 9F       		.byte	0x9f
 5373 05a5 14000000 		.4byte	.LVL73
 5374 05a9 1C000000 		.4byte	.LFE133
 5375 05ad 0100     		.2byte	0x1
 5376 05af 50       		.byte	0x50
 5377 05b0 00000000 		.4byte	0
 5378 05b4 00000000 		.4byte	0
 5379              	.LLST32:
 5380 05b8 00000000 		.4byte	.LVL74
 5381 05bc 10000000 		.4byte	.LVL75
 5382 05c0 0100     		.2byte	0x1
 5383 05c2 50       		.byte	0x50
 5384 05c3 10000000 		.4byte	.LVL75
 5385 05c7 12000000 		.4byte	.LVL76
 5386 05cb 0400     		.2byte	0x4
 5387 05cd F3       		.byte	0xf3
 5388 05ce 01       		.uleb128 0x1
 5389 05cf 50       		.byte	0x50
 5390 05d0 9F       		.byte	0x9f
 5391 05d1 12000000 		.4byte	.LVL76
 5392 05d5 14000000 		.4byte	.LVL77
 5393 05d9 0100     		.2byte	0x1
ARM GAS  C:\Users\kiwamu\AppData\Local\Temp\ccLfX6Zi.s 			page 124


 5394 05db 50       		.byte	0x50
 5395 05dc 14000000 		.4byte	.LVL77
 5396 05e0 1C000000 		.4byte	.LFE134
 5397 05e4 0400     		.2byte	0x4
 5398 05e6 F3       		.byte	0xf3
 5399 05e7 01       		.uleb128 0x1
 5400 05e8 50       		.byte	0x50
 5401 05e9 9F       		.byte	0x9f
 5402 05ea 00000000 		.4byte	0
 5403 05ee 00000000 		.4byte	0
 5404              	.LLST33:
 5405 05f2 00000000 		.4byte	.LVL74
 5406 05f6 14000000 		.4byte	.LVL77
 5407 05fa 0200     		.2byte	0x2
 5408 05fc 30       		.byte	0x30
 5409 05fd 9F       		.byte	0x9f
 5410 05fe 14000000 		.4byte	.LVL77
 5411 0602 1C000000 		.4byte	.LFE134
 5412 0606 0100     		.2byte	0x1
 5413 0608 50       		.byte	0x50
 5414 0609 00000000 		.4byte	0
 5415 060d 00000000 		.4byte	0
 5416              	.LLST34:
 5417 0611 00000000 		.4byte	.LVL78
 5418 0615 50000000 		.4byte	.LVL82
 5419 0619 0100     		.2byte	0x1
 5420 061b 50       		.byte	0x50
 5421 061c 50000000 		.4byte	.LVL82
 5422 0620 52000000 		.4byte	.LVL83
 5423 0624 0400     		.2byte	0x4
 5424 0626 F3       		.byte	0xf3
 5425 0627 01       		.uleb128 0x1
 5426 0628 50       		.byte	0x50
 5427 0629 9F       		.byte	0x9f
 5428 062a 52000000 		.4byte	.LVL83
 5429 062e 54000000 		.4byte	.LVL84
 5430 0632 0100     		.2byte	0x1
 5431 0634 50       		.byte	0x50
 5432 0635 54000000 		.4byte	.LVL84
 5433 0639 56000000 		.4byte	.LVL85
 5434 063d 0400     		.2byte	0x4
 5435 063f F3       		.byte	0xf3
 5436 0640 01       		.uleb128 0x1
 5437 0641 50       		.byte	0x50
 5438 0642 9F       		.byte	0x9f
 5439 0643 56000000 		.4byte	.LVL85
 5440 0647 58000000 		.4byte	.LVL86
 5441 064b 0100     		.2byte	0x1
 5442 064d 50       		.byte	0x50
 5443 064e 58000000 		.4byte	.LVL86
 5444 0652 5A000000 		.4byte	.LVL87
 5445 0656 0400     		.2byte	0x4
 5446 0658 F3       		.byte	0xf3
 5447 0659 01       		.uleb128 0x1
 5448 065a 50       		.byte	0x50
 5449 065b 9F       		.byte	0x9f
 5450 065c 5A000000 		.4byte	.LVL87
ARM GAS  C:\Users\kiwamu\AppData\Local\Temp\ccLfX6Zi.s 			page 125


 5451 0660 5C000000 		.4byte	.LVL88
 5452 0664 0100     		.2byte	0x1
 5453 0666 50       		.byte	0x50
 5454 0667 5C000000 		.4byte	.LVL88
 5455 066b 78000000 		.4byte	.LFE135
 5456 066f 0400     		.2byte	0x4
 5457 0671 F3       		.byte	0xf3
 5458 0672 01       		.uleb128 0x1
 5459 0673 50       		.byte	0x50
 5460 0674 9F       		.byte	0x9f
 5461 0675 00000000 		.4byte	0
 5462 0679 00000000 		.4byte	0
 5463              	.LLST35:
 5464 067d 00000000 		.4byte	.LVL78
 5465 0681 46000000 		.4byte	.LVL81
 5466 0685 0100     		.2byte	0x1
 5467 0687 51       		.byte	0x51
 5468 0688 46000000 		.4byte	.LVL81
 5469 068c 52000000 		.4byte	.LVL83
 5470 0690 0400     		.2byte	0x4
 5471 0692 F3       		.byte	0xf3
 5472 0693 01       		.uleb128 0x1
 5473 0694 51       		.byte	0x51
 5474 0695 9F       		.byte	0x9f
 5475 0696 52000000 		.4byte	.LVL83
 5476 069a 5A000000 		.4byte	.LVL87
 5477 069e 0100     		.2byte	0x1
 5478 06a0 51       		.byte	0x51
 5479 06a1 5A000000 		.4byte	.LVL87
 5480 06a5 78000000 		.4byte	.LFE135
 5481 06a9 0400     		.2byte	0x4
 5482 06ab F3       		.byte	0xf3
 5483 06ac 01       		.uleb128 0x1
 5484 06ad 51       		.byte	0x51
 5485 06ae 9F       		.byte	0x9f
 5486 06af 00000000 		.4byte	0
 5487 06b3 00000000 		.4byte	0
 5488              	.LLST36:
 5489 06b7 02000000 		.4byte	.LVL79
 5490 06bb 5C000000 		.4byte	.LVL88
 5491 06bf 0200     		.2byte	0x2
 5492 06c1 30       		.byte	0x30
 5493 06c2 9F       		.byte	0x9f
 5494 06c3 5C000000 		.4byte	.LVL88
 5495 06c7 78000000 		.4byte	.LFE135
 5496 06cb 0100     		.2byte	0x1
 5497 06cd 50       		.byte	0x50
 5498 06ce 00000000 		.4byte	0
 5499 06d2 00000000 		.4byte	0
 5500              	.LLST37:
 5501 06d6 3A000000 		.4byte	.LVL80
 5502 06da 52000000 		.4byte	.LVL83
 5503 06de 0100     		.2byte	0x1
 5504 06e0 53       		.byte	0x53
 5505 06e1 56000000 		.4byte	.LVL85
 5506 06e5 5C000000 		.4byte	.LVL88
 5507 06e9 0100     		.2byte	0x1
ARM GAS  C:\Users\kiwamu\AppData\Local\Temp\ccLfX6Zi.s 			page 126


 5508 06eb 53       		.byte	0x53
 5509 06ec 00000000 		.4byte	0
 5510 06f0 00000000 		.4byte	0
 5511              	.LLST38:
 5512 06f4 00000000 		.4byte	.LVL89
 5513 06f8 6A000000 		.4byte	.LVL93
 5514 06fc 0100     		.2byte	0x1
 5515 06fe 50       		.byte	0x50
 5516 06ff 6A000000 		.4byte	.LVL93
 5517 0703 6C000000 		.4byte	.LVL94
 5518 0707 0400     		.2byte	0x4
 5519 0709 F3       		.byte	0xf3
 5520 070a 01       		.uleb128 0x1
 5521 070b 50       		.byte	0x50
 5522 070c 9F       		.byte	0x9f
 5523 070d 6C000000 		.4byte	.LVL94
 5524 0711 6E000000 		.4byte	.LVL95
 5525 0715 0100     		.2byte	0x1
 5526 0717 50       		.byte	0x50
 5527 0718 6E000000 		.4byte	.LVL95
 5528 071c 70000000 		.4byte	.LVL96
 5529 0720 0400     		.2byte	0x4
 5530 0722 F3       		.byte	0xf3
 5531 0723 01       		.uleb128 0x1
 5532 0724 50       		.byte	0x50
 5533 0725 9F       		.byte	0x9f
 5534 0726 70000000 		.4byte	.LVL96
 5535 072a 72000000 		.4byte	.LVL97
 5536 072e 0100     		.2byte	0x1
 5537 0730 50       		.byte	0x50
 5538 0731 72000000 		.4byte	.LVL97
 5539 0735 74000000 		.4byte	.LVL98
 5540 0739 0400     		.2byte	0x4
 5541 073b F3       		.byte	0xf3
 5542 073c 01       		.uleb128 0x1
 5543 073d 50       		.byte	0x50
 5544 073e 9F       		.byte	0x9f
 5545 073f 74000000 		.4byte	.LVL98
 5546 0743 76000000 		.4byte	.LVL99
 5547 0747 0100     		.2byte	0x1
 5548 0749 50       		.byte	0x50
 5549 074a 76000000 		.4byte	.LVL99
 5550 074e 78000000 		.4byte	.LVL100
 5551 0752 0400     		.2byte	0x4
 5552 0754 F3       		.byte	0xf3
 5553 0755 01       		.uleb128 0x1
 5554 0756 50       		.byte	0x50
 5555 0757 9F       		.byte	0x9f
 5556 0758 78000000 		.4byte	.LVL100
 5557 075c 7A000000 		.4byte	.LVL101
 5558 0760 0100     		.2byte	0x1
 5559 0762 50       		.byte	0x50
 5560 0763 7A000000 		.4byte	.LVL101
 5561 0767 8C000000 		.4byte	.LFE136
 5562 076b 0400     		.2byte	0x4
 5563 076d F3       		.byte	0xf3
 5564 076e 01       		.uleb128 0x1
ARM GAS  C:\Users\kiwamu\AppData\Local\Temp\ccLfX6Zi.s 			page 127


 5565 076f 50       		.byte	0x50
 5566 0770 9F       		.byte	0x9f
 5567 0771 00000000 		.4byte	0
 5568 0775 00000000 		.4byte	0
 5569              	.LLST39:
 5570 0779 02000000 		.4byte	.LVL90
 5571 077d 7A000000 		.4byte	.LVL101
 5572 0781 0200     		.2byte	0x2
 5573 0783 30       		.byte	0x30
 5574 0784 9F       		.byte	0x9f
 5575 0785 7A000000 		.4byte	.LVL101
 5576 0789 8C000000 		.4byte	.LFE136
 5577 078d 0100     		.2byte	0x1
 5578 078f 50       		.byte	0x50
 5579 0790 00000000 		.4byte	0
 5580 0794 00000000 		.4byte	0
 5581              	.LLST40:
 5582 0798 14000000 		.4byte	.LVL91
 5583 079c 6C000000 		.4byte	.LVL94
 5584 07a0 0100     		.2byte	0x1
 5585 07a2 54       		.byte	0x54
 5586 07a3 70000000 		.4byte	.LVL96
 5587 07a7 7A000000 		.4byte	.LVL101
 5588 07ab 0100     		.2byte	0x1
 5589 07ad 54       		.byte	0x54
 5590 07ae 00000000 		.4byte	0
 5591 07b2 00000000 		.4byte	0
 5592              	.LLST41:
 5593 07b6 4E000000 		.4byte	.LVL92
 5594 07ba 6C000000 		.4byte	.LVL94
 5595 07be 0100     		.2byte	0x1
 5596 07c0 53       		.byte	0x53
 5597 07c1 70000000 		.4byte	.LVL96
 5598 07c5 7A000000 		.4byte	.LVL101
 5599 07c9 0100     		.2byte	0x1
 5600 07cb 53       		.byte	0x53
 5601 07cc 00000000 		.4byte	0
 5602 07d0 00000000 		.4byte	0
 5603              	.LLST42:
 5604 07d4 00000000 		.4byte	.LVL102
 5605 07d8 10000000 		.4byte	.LVL103
 5606 07dc 0100     		.2byte	0x1
 5607 07de 50       		.byte	0x50
 5608 07df 10000000 		.4byte	.LVL103
 5609 07e3 12000000 		.4byte	.LVL104
 5610 07e7 0400     		.2byte	0x4
 5611 07e9 F3       		.byte	0xf3
 5612 07ea 01       		.uleb128 0x1
 5613 07eb 50       		.byte	0x50
 5614 07ec 9F       		.byte	0x9f
 5615 07ed 12000000 		.4byte	.LVL104
 5616 07f1 14000000 		.4byte	.LVL105
 5617 07f5 0100     		.2byte	0x1
 5618 07f7 50       		.byte	0x50
 5619 07f8 14000000 		.4byte	.LVL105
 5620 07fc 1C000000 		.4byte	.LFE137
 5621 0800 0400     		.2byte	0x4
ARM GAS  C:\Users\kiwamu\AppData\Local\Temp\ccLfX6Zi.s 			page 128


 5622 0802 F3       		.byte	0xf3
 5623 0803 01       		.uleb128 0x1
 5624 0804 50       		.byte	0x50
 5625 0805 9F       		.byte	0x9f
 5626 0806 00000000 		.4byte	0
 5627 080a 00000000 		.4byte	0
 5628              	.LLST43:
 5629 080e 00000000 		.4byte	.LVL102
 5630 0812 14000000 		.4byte	.LVL105
 5631 0816 0200     		.2byte	0x2
 5632 0818 30       		.byte	0x30
 5633 0819 9F       		.byte	0x9f
 5634 081a 14000000 		.4byte	.LVL105
 5635 081e 1C000000 		.4byte	.LFE137
 5636 0822 0100     		.2byte	0x1
 5637 0824 50       		.byte	0x50
 5638 0825 00000000 		.4byte	0
 5639 0829 00000000 		.4byte	0
 5640              	.LLST44:
 5641 082d 00000000 		.4byte	.LVL106
 5642 0831 10000000 		.4byte	.LVL107
 5643 0835 0100     		.2byte	0x1
 5644 0837 50       		.byte	0x50
 5645 0838 10000000 		.4byte	.LVL107
 5646 083c 12000000 		.4byte	.LVL108
 5647 0840 0400     		.2byte	0x4
 5648 0842 F3       		.byte	0xf3
 5649 0843 01       		.uleb128 0x1
 5650 0844 50       		.byte	0x50
 5651 0845 9F       		.byte	0x9f
 5652 0846 12000000 		.4byte	.LVL108
 5653 084a 14000000 		.4byte	.LVL109
 5654 084e 0100     		.2byte	0x1
 5655 0850 50       		.byte	0x50
 5656 0851 14000000 		.4byte	.LVL109
 5657 0855 1C000000 		.4byte	.LFE138
 5658 0859 0400     		.2byte	0x4
 5659 085b F3       		.byte	0xf3
 5660 085c 01       		.uleb128 0x1
 5661 085d 50       		.byte	0x50
 5662 085e 9F       		.byte	0x9f
 5663 085f 00000000 		.4byte	0
 5664 0863 00000000 		.4byte	0
 5665              	.LLST45:
 5666 0867 00000000 		.4byte	.LVL106
 5667 086b 14000000 		.4byte	.LVL109
 5668 086f 0200     		.2byte	0x2
 5669 0871 30       		.byte	0x30
 5670 0872 9F       		.byte	0x9f
 5671 0873 14000000 		.4byte	.LVL109
 5672 0877 1C000000 		.4byte	.LFE138
 5673 087b 0100     		.2byte	0x1
 5674 087d 50       		.byte	0x50
 5675 087e 00000000 		.4byte	0
 5676 0882 00000000 		.4byte	0
 5677              	.LLST46:
 5678 0886 00000000 		.4byte	.LVL110
ARM GAS  C:\Users\kiwamu\AppData\Local\Temp\ccLfX6Zi.s 			page 129


 5679 088a 10000000 		.4byte	.LVL111
 5680 088e 0100     		.2byte	0x1
 5681 0890 50       		.byte	0x50
 5682 0891 10000000 		.4byte	.LVL111
 5683 0895 12000000 		.4byte	.LVL112
 5684 0899 0400     		.2byte	0x4
 5685 089b F3       		.byte	0xf3
 5686 089c 01       		.uleb128 0x1
 5687 089d 50       		.byte	0x50
 5688 089e 9F       		.byte	0x9f
 5689 089f 12000000 		.4byte	.LVL112
 5690 08a3 14000000 		.4byte	.LVL113
 5691 08a7 0100     		.2byte	0x1
 5692 08a9 50       		.byte	0x50
 5693 08aa 14000000 		.4byte	.LVL113
 5694 08ae 1C000000 		.4byte	.LFE139
 5695 08b2 0400     		.2byte	0x4
 5696 08b4 F3       		.byte	0xf3
 5697 08b5 01       		.uleb128 0x1
 5698 08b6 50       		.byte	0x50
 5699 08b7 9F       		.byte	0x9f
 5700 08b8 00000000 		.4byte	0
 5701 08bc 00000000 		.4byte	0
 5702              	.LLST47:
 5703 08c0 00000000 		.4byte	.LVL110
 5704 08c4 14000000 		.4byte	.LVL113
 5705 08c8 0200     		.2byte	0x2
 5706 08ca 30       		.byte	0x30
 5707 08cb 9F       		.byte	0x9f
 5708 08cc 14000000 		.4byte	.LVL113
 5709 08d0 1C000000 		.4byte	.LFE139
 5710 08d4 0100     		.2byte	0x1
 5711 08d6 50       		.byte	0x50
 5712 08d7 00000000 		.4byte	0
 5713 08db 00000000 		.4byte	0
 5714              	.LLST48:
 5715 08df 00000000 		.4byte	.LVL114
 5716 08e3 10000000 		.4byte	.LVL115
 5717 08e7 0100     		.2byte	0x1
 5718 08e9 50       		.byte	0x50
 5719 08ea 10000000 		.4byte	.LVL115
 5720 08ee 12000000 		.4byte	.LVL116
 5721 08f2 0400     		.2byte	0x4
 5722 08f4 F3       		.byte	0xf3
 5723 08f5 01       		.uleb128 0x1
 5724 08f6 50       		.byte	0x50
 5725 08f7 9F       		.byte	0x9f
 5726 08f8 12000000 		.4byte	.LVL116
 5727 08fc 14000000 		.4byte	.LVL117
 5728 0900 0100     		.2byte	0x1
 5729 0902 50       		.byte	0x50
 5730 0903 14000000 		.4byte	.LVL117
 5731 0907 1C000000 		.4byte	.LFE140
 5732 090b 0400     		.2byte	0x4
 5733 090d F3       		.byte	0xf3
 5734 090e 01       		.uleb128 0x1
 5735 090f 50       		.byte	0x50
ARM GAS  C:\Users\kiwamu\AppData\Local\Temp\ccLfX6Zi.s 			page 130


 5736 0910 9F       		.byte	0x9f
 5737 0911 00000000 		.4byte	0
 5738 0915 00000000 		.4byte	0
 5739              	.LLST49:
 5740 0919 00000000 		.4byte	.LVL114
 5741 091d 14000000 		.4byte	.LVL117
 5742 0921 0200     		.2byte	0x2
 5743 0923 30       		.byte	0x30
 5744 0924 9F       		.byte	0x9f
 5745 0925 14000000 		.4byte	.LVL117
 5746 0929 1C000000 		.4byte	.LFE140
 5747 092d 0100     		.2byte	0x1
 5748 092f 50       		.byte	0x50
 5749 0930 00000000 		.4byte	0
 5750 0934 00000000 		.4byte	0
 5751              	.LLST50:
 5752 0938 00000000 		.4byte	.LVL118
 5753 093c 50000000 		.4byte	.LVL122
 5754 0940 0100     		.2byte	0x1
 5755 0942 50       		.byte	0x50
 5756 0943 50000000 		.4byte	.LVL122
 5757 0947 52000000 		.4byte	.LVL123
 5758 094b 0400     		.2byte	0x4
 5759 094d F3       		.byte	0xf3
 5760 094e 01       		.uleb128 0x1
 5761 094f 50       		.byte	0x50
 5762 0950 9F       		.byte	0x9f
 5763 0951 52000000 		.4byte	.LVL123
 5764 0955 54000000 		.4byte	.LVL124
 5765 0959 0100     		.2byte	0x1
 5766 095b 50       		.byte	0x50
 5767 095c 54000000 		.4byte	.LVL124
 5768 0960 56000000 		.4byte	.LVL125
 5769 0964 0400     		.2byte	0x4
 5770 0966 F3       		.byte	0xf3
 5771 0967 01       		.uleb128 0x1
 5772 0968 50       		.byte	0x50
 5773 0969 9F       		.byte	0x9f
 5774 096a 56000000 		.4byte	.LVL125
 5775 096e 58000000 		.4byte	.LVL126
 5776 0972 0100     		.2byte	0x1
 5777 0974 50       		.byte	0x50
 5778 0975 58000000 		.4byte	.LVL126
 5779 0979 5A000000 		.4byte	.LVL127
 5780 097d 0400     		.2byte	0x4
 5781 097f F3       		.byte	0xf3
 5782 0980 01       		.uleb128 0x1
 5783 0981 50       		.byte	0x50
 5784 0982 9F       		.byte	0x9f
 5785 0983 5A000000 		.4byte	.LVL127
 5786 0987 5C000000 		.4byte	.LVL128
 5787 098b 0100     		.2byte	0x1
 5788 098d 50       		.byte	0x50
 5789 098e 5C000000 		.4byte	.LVL128
 5790 0992 78000000 		.4byte	.LFE141
 5791 0996 0400     		.2byte	0x4
 5792 0998 F3       		.byte	0xf3
ARM GAS  C:\Users\kiwamu\AppData\Local\Temp\ccLfX6Zi.s 			page 131


 5793 0999 01       		.uleb128 0x1
 5794 099a 50       		.byte	0x50
 5795 099b 9F       		.byte	0x9f
 5796 099c 00000000 		.4byte	0
 5797 09a0 00000000 		.4byte	0
 5798              	.LLST51:
 5799 09a4 00000000 		.4byte	.LVL118
 5800 09a8 46000000 		.4byte	.LVL121
 5801 09ac 0100     		.2byte	0x1
 5802 09ae 51       		.byte	0x51
 5803 09af 46000000 		.4byte	.LVL121
 5804 09b3 52000000 		.4byte	.LVL123
 5805 09b7 0400     		.2byte	0x4
 5806 09b9 F3       		.byte	0xf3
 5807 09ba 01       		.uleb128 0x1
 5808 09bb 51       		.byte	0x51
 5809 09bc 9F       		.byte	0x9f
 5810 09bd 52000000 		.4byte	.LVL123
 5811 09c1 5A000000 		.4byte	.LVL127
 5812 09c5 0100     		.2byte	0x1
 5813 09c7 51       		.byte	0x51
 5814 09c8 5A000000 		.4byte	.LVL127
 5815 09cc 78000000 		.4byte	.LFE141
 5816 09d0 0400     		.2byte	0x4
 5817 09d2 F3       		.byte	0xf3
 5818 09d3 01       		.uleb128 0x1
 5819 09d4 51       		.byte	0x51
 5820 09d5 9F       		.byte	0x9f
 5821 09d6 00000000 		.4byte	0
 5822 09da 00000000 		.4byte	0
 5823              	.LLST52:
 5824 09de 02000000 		.4byte	.LVL119
 5825 09e2 5C000000 		.4byte	.LVL128
 5826 09e6 0200     		.2byte	0x2
 5827 09e8 30       		.byte	0x30
 5828 09e9 9F       		.byte	0x9f
 5829 09ea 5C000000 		.4byte	.LVL128
 5830 09ee 78000000 		.4byte	.LFE141
 5831 09f2 0100     		.2byte	0x1
 5832 09f4 50       		.byte	0x50
 5833 09f5 00000000 		.4byte	0
 5834 09f9 00000000 		.4byte	0
 5835              	.LLST53:
 5836 09fd 3A000000 		.4byte	.LVL120
 5837 0a01 52000000 		.4byte	.LVL123
 5838 0a05 0100     		.2byte	0x1
 5839 0a07 53       		.byte	0x53
 5840 0a08 56000000 		.4byte	.LVL125
 5841 0a0c 5C000000 		.4byte	.LVL128
 5842 0a10 0100     		.2byte	0x1
 5843 0a12 53       		.byte	0x53
 5844 0a13 00000000 		.4byte	0
 5845 0a17 00000000 		.4byte	0
 5846              	.LLST54:
 5847 0a1b 00000000 		.4byte	.LVL129
 5848 0a1f 58000000 		.4byte	.LVL132
 5849 0a23 0100     		.2byte	0x1
ARM GAS  C:\Users\kiwamu\AppData\Local\Temp\ccLfX6Zi.s 			page 132


 5850 0a25 50       		.byte	0x50
 5851 0a26 58000000 		.4byte	.LVL132
 5852 0a2a 5A000000 		.4byte	.LVL133
 5853 0a2e 0400     		.2byte	0x4
 5854 0a30 F3       		.byte	0xf3
 5855 0a31 01       		.uleb128 0x1
 5856 0a32 50       		.byte	0x50
 5857 0a33 9F       		.byte	0x9f
 5858 0a34 5A000000 		.4byte	.LVL133
 5859 0a38 5C000000 		.4byte	.LVL134
 5860 0a3c 0100     		.2byte	0x1
 5861 0a3e 50       		.byte	0x50
 5862 0a3f 5C000000 		.4byte	.LVL134
 5863 0a43 5E000000 		.4byte	.LVL135
 5864 0a47 0400     		.2byte	0x4
 5865 0a49 F3       		.byte	0xf3
 5866 0a4a 01       		.uleb128 0x1
 5867 0a4b 50       		.byte	0x50
 5868 0a4c 9F       		.byte	0x9f
 5869 0a4d 5E000000 		.4byte	.LVL135
 5870 0a51 60000000 		.4byte	.LVL136
 5871 0a55 0100     		.2byte	0x1
 5872 0a57 50       		.byte	0x50
 5873 0a58 60000000 		.4byte	.LVL136
 5874 0a5c 62000000 		.4byte	.LVL137
 5875 0a60 0400     		.2byte	0x4
 5876 0a62 F3       		.byte	0xf3
 5877 0a63 01       		.uleb128 0x1
 5878 0a64 50       		.byte	0x50
 5879 0a65 9F       		.byte	0x9f
 5880 0a66 62000000 		.4byte	.LVL137
 5881 0a6a 64000000 		.4byte	.LVL138
 5882 0a6e 0100     		.2byte	0x1
 5883 0a70 50       		.byte	0x50
 5884 0a71 64000000 		.4byte	.LVL138
 5885 0a75 78000000 		.4byte	.LFE142
 5886 0a79 0400     		.2byte	0x4
 5887 0a7b F3       		.byte	0xf3
 5888 0a7c 01       		.uleb128 0x1
 5889 0a7d 50       		.byte	0x50
 5890 0a7e 9F       		.byte	0x9f
 5891 0a7f 00000000 		.4byte	0
 5892 0a83 00000000 		.4byte	0
 5893              	.LLST55:
 5894 0a87 02000000 		.4byte	.LVL130
 5895 0a8b 64000000 		.4byte	.LVL138
 5896 0a8f 0200     		.2byte	0x2
 5897 0a91 30       		.byte	0x30
 5898 0a92 9F       		.byte	0x9f
 5899 0a93 64000000 		.4byte	.LVL138
 5900 0a97 78000000 		.4byte	.LFE142
 5901 0a9b 0100     		.2byte	0x1
 5902 0a9d 50       		.byte	0x50
 5903 0a9e 00000000 		.4byte	0
 5904 0aa2 00000000 		.4byte	0
 5905              	.LLST56:
 5906 0aa6 3A000000 		.4byte	.LVL131
ARM GAS  C:\Users\kiwamu\AppData\Local\Temp\ccLfX6Zi.s 			page 133


 5907 0aaa 5A000000 		.4byte	.LVL133
 5908 0aae 0100     		.2byte	0x1
 5909 0ab0 53       		.byte	0x53
 5910 0ab1 5E000000 		.4byte	.LVL135
 5911 0ab5 64000000 		.4byte	.LVL138
 5912 0ab9 0100     		.2byte	0x1
 5913 0abb 53       		.byte	0x53
 5914 0abc 00000000 		.4byte	0
 5915 0ac0 00000000 		.4byte	0
 5916              	.LLST57:
 5917 0ac4 00000000 		.4byte	.LVL139
 5918 0ac8 10000000 		.4byte	.LVL140
 5919 0acc 0100     		.2byte	0x1
 5920 0ace 50       		.byte	0x50
 5921 0acf 10000000 		.4byte	.LVL140
 5922 0ad3 12000000 		.4byte	.LVL141
 5923 0ad7 0400     		.2byte	0x4
 5924 0ad9 F3       		.byte	0xf3
 5925 0ada 01       		.uleb128 0x1
 5926 0adb 50       		.byte	0x50
 5927 0adc 9F       		.byte	0x9f
 5928 0add 12000000 		.4byte	.LVL141
 5929 0ae1 14000000 		.4byte	.LVL142
 5930 0ae5 0100     		.2byte	0x1
 5931 0ae7 50       		.byte	0x50
 5932 0ae8 14000000 		.4byte	.LVL142
 5933 0aec 1C000000 		.4byte	.LFE143
 5934 0af0 0400     		.2byte	0x4
 5935 0af2 F3       		.byte	0xf3
 5936 0af3 01       		.uleb128 0x1
 5937 0af4 50       		.byte	0x50
 5938 0af5 9F       		.byte	0x9f
 5939 0af6 00000000 		.4byte	0
 5940 0afa 00000000 		.4byte	0
 5941              	.LLST58:
 5942 0afe 00000000 		.4byte	.LVL139
 5943 0b02 14000000 		.4byte	.LVL142
 5944 0b06 0200     		.2byte	0x2
 5945 0b08 30       		.byte	0x30
 5946 0b09 9F       		.byte	0x9f
 5947 0b0a 14000000 		.4byte	.LVL142
 5948 0b0e 1C000000 		.4byte	.LFE143
 5949 0b12 0100     		.2byte	0x1
 5950 0b14 50       		.byte	0x50
 5951 0b15 00000000 		.4byte	0
 5952 0b19 00000000 		.4byte	0
 5953              	.LLST59:
 5954 0b1d 00000000 		.4byte	.LVL143
 5955 0b21 10000000 		.4byte	.LVL144
 5956 0b25 0100     		.2byte	0x1
 5957 0b27 50       		.byte	0x50
 5958 0b28 10000000 		.4byte	.LVL144
 5959 0b2c 12000000 		.4byte	.LVL145
 5960 0b30 0400     		.2byte	0x4
 5961 0b32 F3       		.byte	0xf3
 5962 0b33 01       		.uleb128 0x1
 5963 0b34 50       		.byte	0x50
ARM GAS  C:\Users\kiwamu\AppData\Local\Temp\ccLfX6Zi.s 			page 134


 5964 0b35 9F       		.byte	0x9f
 5965 0b36 12000000 		.4byte	.LVL145
 5966 0b3a 14000000 		.4byte	.LVL146
 5967 0b3e 0100     		.2byte	0x1
 5968 0b40 50       		.byte	0x50
 5969 0b41 14000000 		.4byte	.LVL146
 5970 0b45 1C000000 		.4byte	.LFE144
 5971 0b49 0400     		.2byte	0x4
 5972 0b4b F3       		.byte	0xf3
 5973 0b4c 01       		.uleb128 0x1
 5974 0b4d 50       		.byte	0x50
 5975 0b4e 9F       		.byte	0x9f
 5976 0b4f 00000000 		.4byte	0
 5977 0b53 00000000 		.4byte	0
 5978              	.LLST60:
 5979 0b57 00000000 		.4byte	.LVL143
 5980 0b5b 14000000 		.4byte	.LVL146
 5981 0b5f 0200     		.2byte	0x2
 5982 0b61 30       		.byte	0x30
 5983 0b62 9F       		.byte	0x9f
 5984 0b63 14000000 		.4byte	.LVL146
 5985 0b67 1C000000 		.4byte	.LFE144
 5986 0b6b 0100     		.2byte	0x1
 5987 0b6d 50       		.byte	0x50
 5988 0b6e 00000000 		.4byte	0
 5989 0b72 00000000 		.4byte	0
 5990              	.LLST61:
 5991 0b76 00000000 		.4byte	.LVL147
 5992 0b7a 10000000 		.4byte	.LVL148
 5993 0b7e 0100     		.2byte	0x1
 5994 0b80 50       		.byte	0x50
 5995 0b81 10000000 		.4byte	.LVL148
 5996 0b85 12000000 		.4byte	.LVL149
 5997 0b89 0400     		.2byte	0x4
 5998 0b8b F3       		.byte	0xf3
 5999 0b8c 01       		.uleb128 0x1
 6000 0b8d 50       		.byte	0x50
 6001 0b8e 9F       		.byte	0x9f
 6002 0b8f 12000000 		.4byte	.LVL149
 6003 0b93 14000000 		.4byte	.LVL150
 6004 0b97 0100     		.2byte	0x1
 6005 0b99 50       		.byte	0x50
 6006 0b9a 14000000 		.4byte	.LVL150
 6007 0b9e 1C000000 		.4byte	.LFE145
 6008 0ba2 0400     		.2byte	0x4
 6009 0ba4 F3       		.byte	0xf3
 6010 0ba5 01       		.uleb128 0x1
 6011 0ba6 50       		.byte	0x50
 6012 0ba7 9F       		.byte	0x9f
 6013 0ba8 00000000 		.4byte	0
 6014 0bac 00000000 		.4byte	0
 6015              	.LLST62:
 6016 0bb0 00000000 		.4byte	.LVL147
 6017 0bb4 14000000 		.4byte	.LVL150
 6018 0bb8 0200     		.2byte	0x2
 6019 0bba 30       		.byte	0x30
 6020 0bbb 9F       		.byte	0x9f
ARM GAS  C:\Users\kiwamu\AppData\Local\Temp\ccLfX6Zi.s 			page 135


 6021 0bbc 14000000 		.4byte	.LVL150
 6022 0bc0 1C000000 		.4byte	.LFE145
 6023 0bc4 0100     		.2byte	0x1
 6024 0bc6 50       		.byte	0x50
 6025 0bc7 00000000 		.4byte	0
 6026 0bcb 00000000 		.4byte	0
 6027              	.LLST63:
 6028 0bcf 00000000 		.4byte	.LVL151
 6029 0bd3 10000000 		.4byte	.LVL152
 6030 0bd7 0100     		.2byte	0x1
 6031 0bd9 50       		.byte	0x50
 6032 0bda 10000000 		.4byte	.LVL152
 6033 0bde 12000000 		.4byte	.LVL153
 6034 0be2 0400     		.2byte	0x4
 6035 0be4 F3       		.byte	0xf3
 6036 0be5 01       		.uleb128 0x1
 6037 0be6 50       		.byte	0x50
 6038 0be7 9F       		.byte	0x9f
 6039 0be8 12000000 		.4byte	.LVL153
 6040 0bec 14000000 		.4byte	.LVL154
 6041 0bf0 0100     		.2byte	0x1
 6042 0bf2 50       		.byte	0x50
 6043 0bf3 14000000 		.4byte	.LVL154
 6044 0bf7 1C000000 		.4byte	.LFE146
 6045 0bfb 0400     		.2byte	0x4
 6046 0bfd F3       		.byte	0xf3
 6047 0bfe 01       		.uleb128 0x1
 6048 0bff 50       		.byte	0x50
 6049 0c00 9F       		.byte	0x9f
 6050 0c01 00000000 		.4byte	0
 6051 0c05 00000000 		.4byte	0
 6052              	.LLST64:
 6053 0c09 00000000 		.4byte	.LVL151
 6054 0c0d 14000000 		.4byte	.LVL154
 6055 0c11 0200     		.2byte	0x2
 6056 0c13 30       		.byte	0x30
 6057 0c14 9F       		.byte	0x9f
 6058 0c15 14000000 		.4byte	.LVL154
 6059 0c19 1C000000 		.4byte	.LFE146
 6060 0c1d 0100     		.2byte	0x1
 6061 0c1f 50       		.byte	0x50
 6062 0c20 00000000 		.4byte	0
 6063 0c24 00000000 		.4byte	0
 6064              	.LLST65:
 6065 0c28 00000000 		.4byte	.LVL155
 6066 0c2c 50000000 		.4byte	.LVL159
 6067 0c30 0100     		.2byte	0x1
 6068 0c32 50       		.byte	0x50
 6069 0c33 50000000 		.4byte	.LVL159
 6070 0c37 52000000 		.4byte	.LVL160
 6071 0c3b 0400     		.2byte	0x4
 6072 0c3d F3       		.byte	0xf3
 6073 0c3e 01       		.uleb128 0x1
 6074 0c3f 50       		.byte	0x50
 6075 0c40 9F       		.byte	0x9f
 6076 0c41 52000000 		.4byte	.LVL160
 6077 0c45 54000000 		.4byte	.LVL161
ARM GAS  C:\Users\kiwamu\AppData\Local\Temp\ccLfX6Zi.s 			page 136


 6078 0c49 0100     		.2byte	0x1
 6079 0c4b 50       		.byte	0x50
 6080 0c4c 54000000 		.4byte	.LVL161
 6081 0c50 56000000 		.4byte	.LVL162
 6082 0c54 0400     		.2byte	0x4
 6083 0c56 F3       		.byte	0xf3
 6084 0c57 01       		.uleb128 0x1
 6085 0c58 50       		.byte	0x50
 6086 0c59 9F       		.byte	0x9f
 6087 0c5a 56000000 		.4byte	.LVL162
 6088 0c5e 58000000 		.4byte	.LVL163
 6089 0c62 0100     		.2byte	0x1
 6090 0c64 50       		.byte	0x50
 6091 0c65 58000000 		.4byte	.LVL163
 6092 0c69 5A000000 		.4byte	.LVL164
 6093 0c6d 0400     		.2byte	0x4
 6094 0c6f F3       		.byte	0xf3
 6095 0c70 01       		.uleb128 0x1
 6096 0c71 50       		.byte	0x50
 6097 0c72 9F       		.byte	0x9f
 6098 0c73 5A000000 		.4byte	.LVL164
 6099 0c77 5C000000 		.4byte	.LVL165
 6100 0c7b 0100     		.2byte	0x1
 6101 0c7d 50       		.byte	0x50
 6102 0c7e 5C000000 		.4byte	.LVL165
 6103 0c82 78000000 		.4byte	.LFE147
 6104 0c86 0400     		.2byte	0x4
 6105 0c88 F3       		.byte	0xf3
 6106 0c89 01       		.uleb128 0x1
 6107 0c8a 50       		.byte	0x50
 6108 0c8b 9F       		.byte	0x9f
 6109 0c8c 00000000 		.4byte	0
 6110 0c90 00000000 		.4byte	0
 6111              	.LLST66:
 6112 0c94 00000000 		.4byte	.LVL155
 6113 0c98 46000000 		.4byte	.LVL158
 6114 0c9c 0100     		.2byte	0x1
 6115 0c9e 51       		.byte	0x51
 6116 0c9f 46000000 		.4byte	.LVL158
 6117 0ca3 52000000 		.4byte	.LVL160
 6118 0ca7 0400     		.2byte	0x4
 6119 0ca9 F3       		.byte	0xf3
 6120 0caa 01       		.uleb128 0x1
 6121 0cab 51       		.byte	0x51
 6122 0cac 9F       		.byte	0x9f
 6123 0cad 52000000 		.4byte	.LVL160
 6124 0cb1 5A000000 		.4byte	.LVL164
 6125 0cb5 0100     		.2byte	0x1
 6126 0cb7 51       		.byte	0x51
 6127 0cb8 5A000000 		.4byte	.LVL164
 6128 0cbc 78000000 		.4byte	.LFE147
 6129 0cc0 0400     		.2byte	0x4
 6130 0cc2 F3       		.byte	0xf3
 6131 0cc3 01       		.uleb128 0x1
 6132 0cc4 51       		.byte	0x51
 6133 0cc5 9F       		.byte	0x9f
 6134 0cc6 00000000 		.4byte	0
ARM GAS  C:\Users\kiwamu\AppData\Local\Temp\ccLfX6Zi.s 			page 137


 6135 0cca 00000000 		.4byte	0
 6136              	.LLST67:
 6137 0cce 02000000 		.4byte	.LVL156
 6138 0cd2 5C000000 		.4byte	.LVL165
 6139 0cd6 0200     		.2byte	0x2
 6140 0cd8 30       		.byte	0x30
 6141 0cd9 9F       		.byte	0x9f
 6142 0cda 5C000000 		.4byte	.LVL165
 6143 0cde 78000000 		.4byte	.LFE147
 6144 0ce2 0100     		.2byte	0x1
 6145 0ce4 50       		.byte	0x50
 6146 0ce5 00000000 		.4byte	0
 6147 0ce9 00000000 		.4byte	0
 6148              	.LLST68:
 6149 0ced 3A000000 		.4byte	.LVL157
 6150 0cf1 52000000 		.4byte	.LVL160
 6151 0cf5 0100     		.2byte	0x1
 6152 0cf7 53       		.byte	0x53
 6153 0cf8 56000000 		.4byte	.LVL162
 6154 0cfc 5C000000 		.4byte	.LVL165
 6155 0d00 0100     		.2byte	0x1
 6156 0d02 53       		.byte	0x53
 6157 0d03 00000000 		.4byte	0
 6158 0d07 00000000 		.4byte	0
 6159              	.LLST69:
 6160 0d0b 00000000 		.4byte	.LVL166
 6161 0d0f 58000000 		.4byte	.LVL169
 6162 0d13 0100     		.2byte	0x1
 6163 0d15 50       		.byte	0x50
 6164 0d16 58000000 		.4byte	.LVL169
 6165 0d1a 5A000000 		.4byte	.LVL170
 6166 0d1e 0400     		.2byte	0x4
 6167 0d20 F3       		.byte	0xf3
 6168 0d21 01       		.uleb128 0x1
 6169 0d22 50       		.byte	0x50
 6170 0d23 9F       		.byte	0x9f
 6171 0d24 5A000000 		.4byte	.LVL170
 6172 0d28 5C000000 		.4byte	.LVL171
 6173 0d2c 0100     		.2byte	0x1
 6174 0d2e 50       		.byte	0x50
 6175 0d2f 5C000000 		.4byte	.LVL171
 6176 0d33 5E000000 		.4byte	.LVL172
 6177 0d37 0400     		.2byte	0x4
 6178 0d39 F3       		.byte	0xf3
 6179 0d3a 01       		.uleb128 0x1
 6180 0d3b 50       		.byte	0x50
 6181 0d3c 9F       		.byte	0x9f
 6182 0d3d 5E000000 		.4byte	.LVL172
 6183 0d41 60000000 		.4byte	.LVL173
 6184 0d45 0100     		.2byte	0x1
 6185 0d47 50       		.byte	0x50
 6186 0d48 60000000 		.4byte	.LVL173
 6187 0d4c 62000000 		.4byte	.LVL174
 6188 0d50 0400     		.2byte	0x4
 6189 0d52 F3       		.byte	0xf3
 6190 0d53 01       		.uleb128 0x1
 6191 0d54 50       		.byte	0x50
ARM GAS  C:\Users\kiwamu\AppData\Local\Temp\ccLfX6Zi.s 			page 138


 6192 0d55 9F       		.byte	0x9f
 6193 0d56 62000000 		.4byte	.LVL174
 6194 0d5a 64000000 		.4byte	.LVL175
 6195 0d5e 0100     		.2byte	0x1
 6196 0d60 50       		.byte	0x50
 6197 0d61 64000000 		.4byte	.LVL175
 6198 0d65 78000000 		.4byte	.LFE148
 6199 0d69 0400     		.2byte	0x4
 6200 0d6b F3       		.byte	0xf3
 6201 0d6c 01       		.uleb128 0x1
 6202 0d6d 50       		.byte	0x50
 6203 0d6e 9F       		.byte	0x9f
 6204 0d6f 00000000 		.4byte	0
 6205 0d73 00000000 		.4byte	0
 6206              	.LLST70:
 6207 0d77 02000000 		.4byte	.LVL167
 6208 0d7b 64000000 		.4byte	.LVL175
 6209 0d7f 0200     		.2byte	0x2
 6210 0d81 30       		.byte	0x30
 6211 0d82 9F       		.byte	0x9f
 6212 0d83 64000000 		.4byte	.LVL175
 6213 0d87 78000000 		.4byte	.LFE148
 6214 0d8b 0100     		.2byte	0x1
 6215 0d8d 50       		.byte	0x50
 6216 0d8e 00000000 		.4byte	0
 6217 0d92 00000000 		.4byte	0
 6218              	.LLST71:
 6219 0d96 3A000000 		.4byte	.LVL168
 6220 0d9a 5A000000 		.4byte	.LVL170
 6221 0d9e 0100     		.2byte	0x1
 6222 0da0 53       		.byte	0x53
 6223 0da1 5E000000 		.4byte	.LVL172
 6224 0da5 64000000 		.4byte	.LVL175
 6225 0da9 0100     		.2byte	0x1
 6226 0dab 53       		.byte	0x53
 6227 0dac 00000000 		.4byte	0
 6228 0db0 00000000 		.4byte	0
 6229              	.LLST72:
 6230 0db4 00000000 		.4byte	.LVL176
 6231 0db8 10000000 		.4byte	.LVL177
 6232 0dbc 0100     		.2byte	0x1
 6233 0dbe 50       		.byte	0x50
 6234 0dbf 10000000 		.4byte	.LVL177
 6235 0dc3 12000000 		.4byte	.LVL178
 6236 0dc7 0400     		.2byte	0x4
 6237 0dc9 F3       		.byte	0xf3
 6238 0dca 01       		.uleb128 0x1
 6239 0dcb 50       		.byte	0x50
 6240 0dcc 9F       		.byte	0x9f
 6241 0dcd 12000000 		.4byte	.LVL178
 6242 0dd1 14000000 		.4byte	.LVL179
 6243 0dd5 0100     		.2byte	0x1
 6244 0dd7 50       		.byte	0x50
 6245 0dd8 14000000 		.4byte	.LVL179
 6246 0ddc 1C000000 		.4byte	.LFE149
 6247 0de0 0400     		.2byte	0x4
 6248 0de2 F3       		.byte	0xf3
ARM GAS  C:\Users\kiwamu\AppData\Local\Temp\ccLfX6Zi.s 			page 139


 6249 0de3 01       		.uleb128 0x1
 6250 0de4 50       		.byte	0x50
 6251 0de5 9F       		.byte	0x9f
 6252 0de6 00000000 		.4byte	0
 6253 0dea 00000000 		.4byte	0
 6254              	.LLST73:
 6255 0dee 00000000 		.4byte	.LVL176
 6256 0df2 14000000 		.4byte	.LVL179
 6257 0df6 0200     		.2byte	0x2
 6258 0df8 30       		.byte	0x30
 6259 0df9 9F       		.byte	0x9f
 6260 0dfa 14000000 		.4byte	.LVL179
 6261 0dfe 1C000000 		.4byte	.LFE149
 6262 0e02 0100     		.2byte	0x1
 6263 0e04 50       		.byte	0x50
 6264 0e05 00000000 		.4byte	0
 6265 0e09 00000000 		.4byte	0
 6266              	.LLST74:
 6267 0e0d 00000000 		.4byte	.LVL180
 6268 0e11 10000000 		.4byte	.LVL181
 6269 0e15 0100     		.2byte	0x1
 6270 0e17 50       		.byte	0x50
 6271 0e18 10000000 		.4byte	.LVL181
 6272 0e1c 12000000 		.4byte	.LVL182
 6273 0e20 0400     		.2byte	0x4
 6274 0e22 F3       		.byte	0xf3
 6275 0e23 01       		.uleb128 0x1
 6276 0e24 50       		.byte	0x50
 6277 0e25 9F       		.byte	0x9f
 6278 0e26 12000000 		.4byte	.LVL182
 6279 0e2a 14000000 		.4byte	.LVL183
 6280 0e2e 0100     		.2byte	0x1
 6281 0e30 50       		.byte	0x50
 6282 0e31 14000000 		.4byte	.LVL183
 6283 0e35 1C000000 		.4byte	.LFE150
 6284 0e39 0400     		.2byte	0x4
 6285 0e3b F3       		.byte	0xf3
 6286 0e3c 01       		.uleb128 0x1
 6287 0e3d 50       		.byte	0x50
 6288 0e3e 9F       		.byte	0x9f
 6289 0e3f 00000000 		.4byte	0
 6290 0e43 00000000 		.4byte	0
 6291              	.LLST75:
 6292 0e47 00000000 		.4byte	.LVL180
 6293 0e4b 14000000 		.4byte	.LVL183
 6294 0e4f 0200     		.2byte	0x2
 6295 0e51 30       		.byte	0x30
 6296 0e52 9F       		.byte	0x9f
 6297 0e53 14000000 		.4byte	.LVL183
 6298 0e57 1C000000 		.4byte	.LFE150
 6299 0e5b 0100     		.2byte	0x1
 6300 0e5d 50       		.byte	0x50
 6301 0e5e 00000000 		.4byte	0
 6302 0e62 00000000 		.4byte	0
 6303              	.LLST76:
 6304 0e66 00000000 		.4byte	.LVL184
 6305 0e6a 10000000 		.4byte	.LVL185
ARM GAS  C:\Users\kiwamu\AppData\Local\Temp\ccLfX6Zi.s 			page 140


 6306 0e6e 0100     		.2byte	0x1
 6307 0e70 50       		.byte	0x50
 6308 0e71 10000000 		.4byte	.LVL185
 6309 0e75 12000000 		.4byte	.LVL186
 6310 0e79 0400     		.2byte	0x4
 6311 0e7b F3       		.byte	0xf3
 6312 0e7c 01       		.uleb128 0x1
 6313 0e7d 50       		.byte	0x50
 6314 0e7e 9F       		.byte	0x9f
 6315 0e7f 12000000 		.4byte	.LVL186
 6316 0e83 14000000 		.4byte	.LVL187
 6317 0e87 0100     		.2byte	0x1
 6318 0e89 50       		.byte	0x50
 6319 0e8a 14000000 		.4byte	.LVL187
 6320 0e8e 1C000000 		.4byte	.LFE151
 6321 0e92 0400     		.2byte	0x4
 6322 0e94 F3       		.byte	0xf3
 6323 0e95 01       		.uleb128 0x1
 6324 0e96 50       		.byte	0x50
 6325 0e97 9F       		.byte	0x9f
 6326 0e98 00000000 		.4byte	0
 6327 0e9c 00000000 		.4byte	0
 6328              	.LLST77:
 6329 0ea0 00000000 		.4byte	.LVL184
 6330 0ea4 14000000 		.4byte	.LVL187
 6331 0ea8 0200     		.2byte	0x2
 6332 0eaa 30       		.byte	0x30
 6333 0eab 9F       		.byte	0x9f
 6334 0eac 14000000 		.4byte	.LVL187
 6335 0eb0 1C000000 		.4byte	.LFE151
 6336 0eb4 0100     		.2byte	0x1
 6337 0eb6 50       		.byte	0x50
 6338 0eb7 00000000 		.4byte	0
 6339 0ebb 00000000 		.4byte	0
 6340              	.LLST78:
 6341 0ebf 00000000 		.4byte	.LVL188
 6342 0ec3 10000000 		.4byte	.LVL189
 6343 0ec7 0100     		.2byte	0x1
 6344 0ec9 50       		.byte	0x50
 6345 0eca 10000000 		.4byte	.LVL189
 6346 0ece 12000000 		.4byte	.LVL190
 6347 0ed2 0400     		.2byte	0x4
 6348 0ed4 F3       		.byte	0xf3
 6349 0ed5 01       		.uleb128 0x1
 6350 0ed6 50       		.byte	0x50
 6351 0ed7 9F       		.byte	0x9f
 6352 0ed8 12000000 		.4byte	.LVL190
 6353 0edc 14000000 		.4byte	.LVL191
 6354 0ee0 0100     		.2byte	0x1
 6355 0ee2 50       		.byte	0x50
 6356 0ee3 14000000 		.4byte	.LVL191
 6357 0ee7 1C000000 		.4byte	.LFE152
 6358 0eeb 0400     		.2byte	0x4
 6359 0eed F3       		.byte	0xf3
 6360 0eee 01       		.uleb128 0x1
 6361 0eef 50       		.byte	0x50
 6362 0ef0 9F       		.byte	0x9f
ARM GAS  C:\Users\kiwamu\AppData\Local\Temp\ccLfX6Zi.s 			page 141


 6363 0ef1 00000000 		.4byte	0
 6364 0ef5 00000000 		.4byte	0
 6365              	.LLST79:
 6366 0ef9 00000000 		.4byte	.LVL188
 6367 0efd 14000000 		.4byte	.LVL191
 6368 0f01 0200     		.2byte	0x2
 6369 0f03 30       		.byte	0x30
 6370 0f04 9F       		.byte	0x9f
 6371 0f05 14000000 		.4byte	.LVL191
 6372 0f09 1C000000 		.4byte	.LFE152
 6373 0f0d 0100     		.2byte	0x1
 6374 0f0f 50       		.byte	0x50
 6375 0f10 00000000 		.4byte	0
 6376 0f14 00000000 		.4byte	0
 6377              	.LLST80:
 6378 0f18 00000000 		.4byte	.LVL192
 6379 0f1c 50000000 		.4byte	.LVL196
 6380 0f20 0100     		.2byte	0x1
 6381 0f22 50       		.byte	0x50
 6382 0f23 50000000 		.4byte	.LVL196
 6383 0f27 52000000 		.4byte	.LVL197
 6384 0f2b 0400     		.2byte	0x4
 6385 0f2d F3       		.byte	0xf3
 6386 0f2e 01       		.uleb128 0x1
 6387 0f2f 50       		.byte	0x50
 6388 0f30 9F       		.byte	0x9f
 6389 0f31 52000000 		.4byte	.LVL197
 6390 0f35 54000000 		.4byte	.LVL198
 6391 0f39 0100     		.2byte	0x1
 6392 0f3b 50       		.byte	0x50
 6393 0f3c 54000000 		.4byte	.LVL198
 6394 0f40 56000000 		.4byte	.LVL199
 6395 0f44 0400     		.2byte	0x4
 6396 0f46 F3       		.byte	0xf3
 6397 0f47 01       		.uleb128 0x1
 6398 0f48 50       		.byte	0x50
 6399 0f49 9F       		.byte	0x9f
 6400 0f4a 56000000 		.4byte	.LVL199
 6401 0f4e 58000000 		.4byte	.LVL200
 6402 0f52 0100     		.2byte	0x1
 6403 0f54 50       		.byte	0x50
 6404 0f55 58000000 		.4byte	.LVL200
 6405 0f59 5A000000 		.4byte	.LVL201
 6406 0f5d 0400     		.2byte	0x4
 6407 0f5f F3       		.byte	0xf3
 6408 0f60 01       		.uleb128 0x1
 6409 0f61 50       		.byte	0x50
 6410 0f62 9F       		.byte	0x9f
 6411 0f63 5A000000 		.4byte	.LVL201
 6412 0f67 5C000000 		.4byte	.LVL202
 6413 0f6b 0100     		.2byte	0x1
 6414 0f6d 50       		.byte	0x50
 6415 0f6e 5C000000 		.4byte	.LVL202
 6416 0f72 78000000 		.4byte	.LFE153
 6417 0f76 0400     		.2byte	0x4
 6418 0f78 F3       		.byte	0xf3
 6419 0f79 01       		.uleb128 0x1
ARM GAS  C:\Users\kiwamu\AppData\Local\Temp\ccLfX6Zi.s 			page 142


 6420 0f7a 50       		.byte	0x50
 6421 0f7b 9F       		.byte	0x9f
 6422 0f7c 00000000 		.4byte	0
 6423 0f80 00000000 		.4byte	0
 6424              	.LLST81:
 6425 0f84 00000000 		.4byte	.LVL192
 6426 0f88 46000000 		.4byte	.LVL195
 6427 0f8c 0100     		.2byte	0x1
 6428 0f8e 51       		.byte	0x51
 6429 0f8f 46000000 		.4byte	.LVL195
 6430 0f93 52000000 		.4byte	.LVL197
 6431 0f97 0400     		.2byte	0x4
 6432 0f99 F3       		.byte	0xf3
 6433 0f9a 01       		.uleb128 0x1
 6434 0f9b 51       		.byte	0x51
 6435 0f9c 9F       		.byte	0x9f
 6436 0f9d 52000000 		.4byte	.LVL197
 6437 0fa1 5A000000 		.4byte	.LVL201
 6438 0fa5 0100     		.2byte	0x1
 6439 0fa7 51       		.byte	0x51
 6440 0fa8 5A000000 		.4byte	.LVL201
 6441 0fac 78000000 		.4byte	.LFE153
 6442 0fb0 0400     		.2byte	0x4
 6443 0fb2 F3       		.byte	0xf3
 6444 0fb3 01       		.uleb128 0x1
 6445 0fb4 51       		.byte	0x51
 6446 0fb5 9F       		.byte	0x9f
 6447 0fb6 00000000 		.4byte	0
 6448 0fba 00000000 		.4byte	0
 6449              	.LLST82:
 6450 0fbe 02000000 		.4byte	.LVL193
 6451 0fc2 5C000000 		.4byte	.LVL202
 6452 0fc6 0200     		.2byte	0x2
 6453 0fc8 30       		.byte	0x30
 6454 0fc9 9F       		.byte	0x9f
 6455 0fca 5C000000 		.4byte	.LVL202
 6456 0fce 78000000 		.4byte	.LFE153
 6457 0fd2 0100     		.2byte	0x1
 6458 0fd4 50       		.byte	0x50
 6459 0fd5 00000000 		.4byte	0
 6460 0fd9 00000000 		.4byte	0
 6461              	.LLST83:
 6462 0fdd 3A000000 		.4byte	.LVL194
 6463 0fe1 52000000 		.4byte	.LVL197
 6464 0fe5 0100     		.2byte	0x1
 6465 0fe7 53       		.byte	0x53
 6466 0fe8 56000000 		.4byte	.LVL199
 6467 0fec 5C000000 		.4byte	.LVL202
 6468 0ff0 0100     		.2byte	0x1
 6469 0ff2 53       		.byte	0x53
 6470 0ff3 00000000 		.4byte	0
 6471 0ff7 00000000 		.4byte	0
 6472              	.LLST84:
 6473 0ffb 00000000 		.4byte	.LVL203
 6474 0fff 58000000 		.4byte	.LVL206
 6475 1003 0100     		.2byte	0x1
 6476 1005 50       		.byte	0x50
ARM GAS  C:\Users\kiwamu\AppData\Local\Temp\ccLfX6Zi.s 			page 143


 6477 1006 58000000 		.4byte	.LVL206
 6478 100a 5A000000 		.4byte	.LVL207
 6479 100e 0400     		.2byte	0x4
 6480 1010 F3       		.byte	0xf3
 6481 1011 01       		.uleb128 0x1
 6482 1012 50       		.byte	0x50
 6483 1013 9F       		.byte	0x9f
 6484 1014 5A000000 		.4byte	.LVL207
 6485 1018 5C000000 		.4byte	.LVL208
 6486 101c 0100     		.2byte	0x1
 6487 101e 50       		.byte	0x50
 6488 101f 5C000000 		.4byte	.LVL208
 6489 1023 5E000000 		.4byte	.LVL209
 6490 1027 0400     		.2byte	0x4
 6491 1029 F3       		.byte	0xf3
 6492 102a 01       		.uleb128 0x1
 6493 102b 50       		.byte	0x50
 6494 102c 9F       		.byte	0x9f
 6495 102d 5E000000 		.4byte	.LVL209
 6496 1031 60000000 		.4byte	.LVL210
 6497 1035 0100     		.2byte	0x1
 6498 1037 50       		.byte	0x50
 6499 1038 60000000 		.4byte	.LVL210
 6500 103c 62000000 		.4byte	.LVL211
 6501 1040 0400     		.2byte	0x4
 6502 1042 F3       		.byte	0xf3
 6503 1043 01       		.uleb128 0x1
 6504 1044 50       		.byte	0x50
 6505 1045 9F       		.byte	0x9f
 6506 1046 62000000 		.4byte	.LVL211
 6507 104a 64000000 		.4byte	.LVL212
 6508 104e 0100     		.2byte	0x1
 6509 1050 50       		.byte	0x50
 6510 1051 64000000 		.4byte	.LVL212
 6511 1055 78000000 		.4byte	.LFE154
 6512 1059 0400     		.2byte	0x4
 6513 105b F3       		.byte	0xf3
 6514 105c 01       		.uleb128 0x1
 6515 105d 50       		.byte	0x50
 6516 105e 9F       		.byte	0x9f
 6517 105f 00000000 		.4byte	0
 6518 1063 00000000 		.4byte	0
 6519              	.LLST85:
 6520 1067 02000000 		.4byte	.LVL204
 6521 106b 64000000 		.4byte	.LVL212
 6522 106f 0200     		.2byte	0x2
 6523 1071 30       		.byte	0x30
 6524 1072 9F       		.byte	0x9f
 6525 1073 64000000 		.4byte	.LVL212
 6526 1077 78000000 		.4byte	.LFE154
 6527 107b 0100     		.2byte	0x1
 6528 107d 50       		.byte	0x50
 6529 107e 00000000 		.4byte	0
 6530 1082 00000000 		.4byte	0
 6531              	.LLST86:
 6532 1086 3A000000 		.4byte	.LVL205
 6533 108a 5A000000 		.4byte	.LVL207
ARM GAS  C:\Users\kiwamu\AppData\Local\Temp\ccLfX6Zi.s 			page 144


 6534 108e 0100     		.2byte	0x1
 6535 1090 53       		.byte	0x53
 6536 1091 5E000000 		.4byte	.LVL209
 6537 1095 64000000 		.4byte	.LVL212
 6538 1099 0100     		.2byte	0x1
 6539 109b 53       		.byte	0x53
 6540 109c 00000000 		.4byte	0
 6541 10a0 00000000 		.4byte	0
 6542              	.LLST87:
 6543 10a4 00000000 		.4byte	.LVL213
 6544 10a8 10000000 		.4byte	.LVL214
 6545 10ac 0100     		.2byte	0x1
 6546 10ae 50       		.byte	0x50
 6547 10af 10000000 		.4byte	.LVL214
 6548 10b3 12000000 		.4byte	.LVL215
 6549 10b7 0400     		.2byte	0x4
 6550 10b9 F3       		.byte	0xf3
 6551 10ba 01       		.uleb128 0x1
 6552 10bb 50       		.byte	0x50
 6553 10bc 9F       		.byte	0x9f
 6554 10bd 12000000 		.4byte	.LVL215
 6555 10c1 14000000 		.4byte	.LVL216
 6556 10c5 0100     		.2byte	0x1
 6557 10c7 50       		.byte	0x50
 6558 10c8 14000000 		.4byte	.LVL216
 6559 10cc 1C000000 		.4byte	.LFE155
 6560 10d0 0400     		.2byte	0x4
 6561 10d2 F3       		.byte	0xf3
 6562 10d3 01       		.uleb128 0x1
 6563 10d4 50       		.byte	0x50
 6564 10d5 9F       		.byte	0x9f
 6565 10d6 00000000 		.4byte	0
 6566 10da 00000000 		.4byte	0
 6567              	.LLST88:
 6568 10de 00000000 		.4byte	.LVL213
 6569 10e2 14000000 		.4byte	.LVL216
 6570 10e6 0200     		.2byte	0x2
 6571 10e8 30       		.byte	0x30
 6572 10e9 9F       		.byte	0x9f
 6573 10ea 14000000 		.4byte	.LVL216
 6574 10ee 1C000000 		.4byte	.LFE155
 6575 10f2 0100     		.2byte	0x1
 6576 10f4 50       		.byte	0x50
 6577 10f5 00000000 		.4byte	0
 6578 10f9 00000000 		.4byte	0
 6579              	.LLST89:
 6580 10fd 00000000 		.4byte	.LVL217
 6581 1101 10000000 		.4byte	.LVL218
 6582 1105 0100     		.2byte	0x1
 6583 1107 50       		.byte	0x50
 6584 1108 10000000 		.4byte	.LVL218
 6585 110c 12000000 		.4byte	.LVL219
 6586 1110 0400     		.2byte	0x4
 6587 1112 F3       		.byte	0xf3
 6588 1113 01       		.uleb128 0x1
 6589 1114 50       		.byte	0x50
 6590 1115 9F       		.byte	0x9f
ARM GAS  C:\Users\kiwamu\AppData\Local\Temp\ccLfX6Zi.s 			page 145


 6591 1116 12000000 		.4byte	.LVL219
 6592 111a 14000000 		.4byte	.LVL220
 6593 111e 0100     		.2byte	0x1
 6594 1120 50       		.byte	0x50
 6595 1121 14000000 		.4byte	.LVL220
 6596 1125 1C000000 		.4byte	.LFE156
 6597 1129 0400     		.2byte	0x4
 6598 112b F3       		.byte	0xf3
 6599 112c 01       		.uleb128 0x1
 6600 112d 50       		.byte	0x50
 6601 112e 9F       		.byte	0x9f
 6602 112f 00000000 		.4byte	0
 6603 1133 00000000 		.4byte	0
 6604              	.LLST90:
 6605 1137 00000000 		.4byte	.LVL217
 6606 113b 14000000 		.4byte	.LVL220
 6607 113f 0200     		.2byte	0x2
 6608 1141 30       		.byte	0x30
 6609 1142 9F       		.byte	0x9f
 6610 1143 14000000 		.4byte	.LVL220
 6611 1147 1C000000 		.4byte	.LFE156
 6612 114b 0100     		.2byte	0x1
 6613 114d 50       		.byte	0x50
 6614 114e 00000000 		.4byte	0
 6615 1152 00000000 		.4byte	0
 6616              	.LLST91:
 6617 1156 00000000 		.4byte	.LVL221
 6618 115a 10000000 		.4byte	.LVL222
 6619 115e 0100     		.2byte	0x1
 6620 1160 50       		.byte	0x50
 6621 1161 10000000 		.4byte	.LVL222
 6622 1165 12000000 		.4byte	.LVL223
 6623 1169 0400     		.2byte	0x4
 6624 116b F3       		.byte	0xf3
 6625 116c 01       		.uleb128 0x1
 6626 116d 50       		.byte	0x50
 6627 116e 9F       		.byte	0x9f
 6628 116f 12000000 		.4byte	.LVL223
 6629 1173 14000000 		.4byte	.LVL224
 6630 1177 0100     		.2byte	0x1
 6631 1179 50       		.byte	0x50
 6632 117a 14000000 		.4byte	.LVL224
 6633 117e 1C000000 		.4byte	.LFE157
 6634 1182 0400     		.2byte	0x4
 6635 1184 F3       		.byte	0xf3
 6636 1185 01       		.uleb128 0x1
 6637 1186 50       		.byte	0x50
 6638 1187 9F       		.byte	0x9f
 6639 1188 00000000 		.4byte	0
 6640 118c 00000000 		.4byte	0
 6641              	.LLST92:
 6642 1190 00000000 		.4byte	.LVL221
 6643 1194 14000000 		.4byte	.LVL224
 6644 1198 0200     		.2byte	0x2
 6645 119a 30       		.byte	0x30
 6646 119b 9F       		.byte	0x9f
 6647 119c 14000000 		.4byte	.LVL224
ARM GAS  C:\Users\kiwamu\AppData\Local\Temp\ccLfX6Zi.s 			page 146


 6648 11a0 1C000000 		.4byte	.LFE157
 6649 11a4 0100     		.2byte	0x1
 6650 11a6 50       		.byte	0x50
 6651 11a7 00000000 		.4byte	0
 6652 11ab 00000000 		.4byte	0
 6653              	.LLST93:
 6654 11af 00000000 		.4byte	.LVL225
 6655 11b3 10000000 		.4byte	.LVL226
 6656 11b7 0100     		.2byte	0x1
 6657 11b9 50       		.byte	0x50
 6658 11ba 10000000 		.4byte	.LVL226
 6659 11be 12000000 		.4byte	.LVL227
 6660 11c2 0400     		.2byte	0x4
 6661 11c4 F3       		.byte	0xf3
 6662 11c5 01       		.uleb128 0x1
 6663 11c6 50       		.byte	0x50
 6664 11c7 9F       		.byte	0x9f
 6665 11c8 12000000 		.4byte	.LVL227
 6666 11cc 14000000 		.4byte	.LVL228
 6667 11d0 0100     		.2byte	0x1
 6668 11d2 50       		.byte	0x50
 6669 11d3 14000000 		.4byte	.LVL228
 6670 11d7 1C000000 		.4byte	.LFE158
 6671 11db 0400     		.2byte	0x4
 6672 11dd F3       		.byte	0xf3
 6673 11de 01       		.uleb128 0x1
 6674 11df 50       		.byte	0x50
 6675 11e0 9F       		.byte	0x9f
 6676 11e1 00000000 		.4byte	0
 6677 11e5 00000000 		.4byte	0
 6678              	.LLST94:
 6679 11e9 00000000 		.4byte	.LVL225
 6680 11ed 14000000 		.4byte	.LVL228
 6681 11f1 0200     		.2byte	0x2
 6682 11f3 30       		.byte	0x30
 6683 11f4 9F       		.byte	0x9f
 6684 11f5 14000000 		.4byte	.LVL228
 6685 11f9 1C000000 		.4byte	.LFE158
 6686 11fd 0100     		.2byte	0x1
 6687 11ff 50       		.byte	0x50
 6688 1200 00000000 		.4byte	0
 6689 1204 00000000 		.4byte	0
 6690              		.section	.debug_aranges,"",%progbits
 6691 0000 34010000 		.4byte	0x134
 6692 0004 0200     		.2byte	0x2
 6693 0006 00000000 		.4byte	.Ldebug_info0
 6694 000a 04       		.byte	0x4
 6695 000b 00       		.byte	0
 6696 000c 0000     		.2byte	0
 6697 000e 0000     		.2byte	0
 6698 0010 00000000 		.4byte	.LFB123
 6699 0014 34000000 		.4byte	.LFE123-.LFB123
 6700 0018 00000000 		.4byte	.LFB124
 6701 001c 3C000000 		.4byte	.LFE124-.LFB124
 6702 0020 00000000 		.4byte	.LFB125
 6703 0024 12000000 		.4byte	.LFE125-.LFB125
 6704 0028 00000000 		.4byte	.LFB126
ARM GAS  C:\Users\kiwamu\AppData\Local\Temp\ccLfX6Zi.s 			page 147


 6705 002c 58000000 		.4byte	.LFE126-.LFB126
 6706 0030 00000000 		.4byte	.LFB127
 6707 0034 1C000000 		.4byte	.LFE127-.LFB127
 6708 0038 00000000 		.4byte	.LFB128
 6709 003c 1C000000 		.4byte	.LFE128-.LFB128
 6710 0040 00000000 		.4byte	.LFB129
 6711 0044 78000000 		.4byte	.LFE129-.LFB129
 6712 0048 00000000 		.4byte	.LFB130
 6713 004c 80000000 		.4byte	.LFE130-.LFB130
 6714 0050 00000000 		.4byte	.LFB131
 6715 0054 1C000000 		.4byte	.LFE131-.LFB131
 6716 0058 00000000 		.4byte	.LFB132
 6717 005c 1C000000 		.4byte	.LFE132-.LFB132
 6718 0060 00000000 		.4byte	.LFB133
 6719 0064 1C000000 		.4byte	.LFE133-.LFB133
 6720 0068 00000000 		.4byte	.LFB134
 6721 006c 1C000000 		.4byte	.LFE134-.LFB134
 6722 0070 00000000 		.4byte	.LFB135
 6723 0074 78000000 		.4byte	.LFE135-.LFB135
 6724 0078 00000000 		.4byte	.LFB136
 6725 007c 8C000000 		.4byte	.LFE136-.LFB136
 6726 0080 00000000 		.4byte	.LFB137
 6727 0084 1C000000 		.4byte	.LFE137-.LFB137
 6728 0088 00000000 		.4byte	.LFB138
 6729 008c 1C000000 		.4byte	.LFE138-.LFB138
 6730 0090 00000000 		.4byte	.LFB139
 6731 0094 1C000000 		.4byte	.LFE139-.LFB139
 6732 0098 00000000 		.4byte	.LFB140
 6733 009c 1C000000 		.4byte	.LFE140-.LFB140
 6734 00a0 00000000 		.4byte	.LFB141
 6735 00a4 78000000 		.4byte	.LFE141-.LFB141
 6736 00a8 00000000 		.4byte	.LFB142
 6737 00ac 78000000 		.4byte	.LFE142-.LFB142
 6738 00b0 00000000 		.4byte	.LFB143
 6739 00b4 1C000000 		.4byte	.LFE143-.LFB143
 6740 00b8 00000000 		.4byte	.LFB144
 6741 00bc 1C000000 		.4byte	.LFE144-.LFB144
 6742 00c0 00000000 		.4byte	.LFB145
 6743 00c4 1C000000 		.4byte	.LFE145-.LFB145
 6744 00c8 00000000 		.4byte	.LFB146
 6745 00cc 1C000000 		.4byte	.LFE146-.LFB146
 6746 00d0 00000000 		.4byte	.LFB147
 6747 00d4 78000000 		.4byte	.LFE147-.LFB147
 6748 00d8 00000000 		.4byte	.LFB148
 6749 00dc 78000000 		.4byte	.LFE148-.LFB148
 6750 00e0 00000000 		.4byte	.LFB149
 6751 00e4 1C000000 		.4byte	.LFE149-.LFB149
 6752 00e8 00000000 		.4byte	.LFB150
 6753 00ec 1C000000 		.4byte	.LFE150-.LFB150
 6754 00f0 00000000 		.4byte	.LFB151
 6755 00f4 1C000000 		.4byte	.LFE151-.LFB151
 6756 00f8 00000000 		.4byte	.LFB152
 6757 00fc 1C000000 		.4byte	.LFE152-.LFB152
 6758 0100 00000000 		.4byte	.LFB153
 6759 0104 78000000 		.4byte	.LFE153-.LFB153
 6760 0108 00000000 		.4byte	.LFB154
 6761 010c 78000000 		.4byte	.LFE154-.LFB154
ARM GAS  C:\Users\kiwamu\AppData\Local\Temp\ccLfX6Zi.s 			page 148


 6762 0110 00000000 		.4byte	.LFB155
 6763 0114 1C000000 		.4byte	.LFE155-.LFB155
 6764 0118 00000000 		.4byte	.LFB156
 6765 011c 1C000000 		.4byte	.LFE156-.LFB156
 6766 0120 00000000 		.4byte	.LFB157
 6767 0124 1C000000 		.4byte	.LFE157-.LFB157
 6768 0128 00000000 		.4byte	.LFB158
 6769 012c 1C000000 		.4byte	.LFE158-.LFB158
 6770 0130 00000000 		.4byte	0
 6771 0134 00000000 		.4byte	0
 6772              		.section	.debug_ranges,"",%progbits
 6773              	.Ldebug_ranges0:
 6774 0000 00000000 		.4byte	.LFB123
 6775 0004 34000000 		.4byte	.LFE123
 6776 0008 00000000 		.4byte	.LFB124
 6777 000c 3C000000 		.4byte	.LFE124
 6778 0010 00000000 		.4byte	.LFB125
 6779 0014 12000000 		.4byte	.LFE125
 6780 0018 00000000 		.4byte	.LFB126
 6781 001c 58000000 		.4byte	.LFE126
 6782 0020 00000000 		.4byte	.LFB127
 6783 0024 1C000000 		.4byte	.LFE127
 6784 0028 00000000 		.4byte	.LFB128
 6785 002c 1C000000 		.4byte	.LFE128
 6786 0030 00000000 		.4byte	.LFB129
 6787 0034 78000000 		.4byte	.LFE129
 6788 0038 00000000 		.4byte	.LFB130
 6789 003c 80000000 		.4byte	.LFE130
 6790 0040 00000000 		.4byte	.LFB131
 6791 0044 1C000000 		.4byte	.LFE131
 6792 0048 00000000 		.4byte	.LFB132
 6793 004c 1C000000 		.4byte	.LFE132
 6794 0050 00000000 		.4byte	.LFB133
 6795 0054 1C000000 		.4byte	.LFE133
 6796 0058 00000000 		.4byte	.LFB134
 6797 005c 1C000000 		.4byte	.LFE134
 6798 0060 00000000 		.4byte	.LFB135
 6799 0064 78000000 		.4byte	.LFE135
 6800 0068 00000000 		.4byte	.LFB136
 6801 006c 8C000000 		.4byte	.LFE136
 6802 0070 00000000 		.4byte	.LFB137
 6803 0074 1C000000 		.4byte	.LFE137
 6804 0078 00000000 		.4byte	.LFB138
 6805 007c 1C000000 		.4byte	.LFE138
 6806 0080 00000000 		.4byte	.LFB139
 6807 0084 1C000000 		.4byte	.LFE139
 6808 0088 00000000 		.4byte	.LFB140
 6809 008c 1C000000 		.4byte	.LFE140
 6810 0090 00000000 		.4byte	.LFB141
 6811 0094 78000000 		.4byte	.LFE141
 6812 0098 00000000 		.4byte	.LFB142
 6813 009c 78000000 		.4byte	.LFE142
 6814 00a0 00000000 		.4byte	.LFB143
 6815 00a4 1C000000 		.4byte	.LFE143
 6816 00a8 00000000 		.4byte	.LFB144
 6817 00ac 1C000000 		.4byte	.LFE144
 6818 00b0 00000000 		.4byte	.LFB145
ARM GAS  C:\Users\kiwamu\AppData\Local\Temp\ccLfX6Zi.s 			page 149


 6819 00b4 1C000000 		.4byte	.LFE145
 6820 00b8 00000000 		.4byte	.LFB146
 6821 00bc 1C000000 		.4byte	.LFE146
 6822 00c0 00000000 		.4byte	.LFB147
 6823 00c4 78000000 		.4byte	.LFE147
 6824 00c8 00000000 		.4byte	.LFB148
 6825 00cc 78000000 		.4byte	.LFE148
 6826 00d0 00000000 		.4byte	.LFB149
 6827 00d4 1C000000 		.4byte	.LFE149
 6828 00d8 00000000 		.4byte	.LFB150
 6829 00dc 1C000000 		.4byte	.LFE150
 6830 00e0 00000000 		.4byte	.LFB151
 6831 00e4 1C000000 		.4byte	.LFE151
 6832 00e8 00000000 		.4byte	.LFB152
 6833 00ec 1C000000 		.4byte	.LFE152
 6834 00f0 00000000 		.4byte	.LFB153
 6835 00f4 78000000 		.4byte	.LFE153
 6836 00f8 00000000 		.4byte	.LFB154
 6837 00fc 78000000 		.4byte	.LFE154
 6838 0100 00000000 		.4byte	.LFB155
 6839 0104 1C000000 		.4byte	.LFE155
 6840 0108 00000000 		.4byte	.LFB156
 6841 010c 1C000000 		.4byte	.LFE156
 6842 0110 00000000 		.4byte	.LFB157
 6843 0114 1C000000 		.4byte	.LFE157
 6844 0118 00000000 		.4byte	.LFB158
 6845 011c 1C000000 		.4byte	.LFE158
 6846 0120 00000000 		.4byte	0
 6847 0124 00000000 		.4byte	0
 6848              		.section	.debug_line,"",%progbits
 6849              	.Ldebug_line0:
 6850 0000 AA050000 		.section	.debug_str,"MS",%progbits,1
 6850      02002902 
 6850      00000201 
 6850      FB0E0D00 
 6850      01010101 
 6851              	.LASF79:
 6852 0000 43595F50 		.ascii	"CY_PROT_SIZE_512B\000"
 6852      524F545F 
 6852      53495A45 
 6852      5F353132 
 6852      4200
 6853              	.LASF46:
 6854 0012 4D533130 		.ascii	"MS10_CTL\000"
 6854      5F43544C 
 6854      00
 6855              	.LASF116:
 6856 001b 63795F73 		.ascii	"cy_stc_ppu_gr_cfg_t\000"
 6856      74635F70 
 6856      70755F67 
 6856      725F6366 
 6856      675F7400 
 6857              	.LASF66:
 6858 002f 43595F50 		.ascii	"CY_PROT_BAD_PARAM\000"
 6858      524F545F 
 6858      4241445F 
 6858      50415241 
ARM GAS  C:\Users\kiwamu\AppData\Local\Temp\ccLfX6Zi.s 			page 150


 6858      4D00
 6859              	.LASF118:
 6860 0041 63795F73 		.ascii	"cy_stc_ppu_rg_cfg_t\000"
 6860      74635F70 
 6860      70755F72 
 6860      675F6366 
 6860      675F7400 
 6861              	.LASF142:
 6862 0055 43795F50 		.ascii	"Cy_Prot_ConfigPpuProgSlaveStruct\000"
 6862      726F745F 
 6862      436F6E66 
 6862      69675070 
 6862      7550726F 
 6863              	.LASF161:
 6864 0076 43795F50 		.ascii	"Cy_Prot_EnablePpuFixedRgMasterStruct\000"
 6864      726F745F 
 6864      456E6162 
 6864      6C655070 
 6864      75466978 
 6865              	.LASF3:
 6866 009b 5F5F7569 		.ascii	"__uint8_t\000"
 6866      6E74385F 
 6866      7400
 6867              	.LASF136:
 6868 00a5 43795F50 		.ascii	"Cy_Prot_ConfigSmpuSlaveStruct\000"
 6868      726F745F 
 6868      436F6E66 
 6868      6967536D 
 6868      7075536C 
 6869              	.LASF71:
 6870 00c3 43595F50 		.ascii	"CY_PROT_PERM_W\000"
 6870      524F545F 
 6870      5045524D 
 6870      5F5700
 6871              	.LASF162:
 6872 00d2 43795F50 		.ascii	"Cy_Prot_DisablePpuFixedRgMasterStruct\000"
 6872      726F745F 
 6872      44697361 
 6872      626C6550 
 6872      70754669 
 6873              	.LASF32:
 6874 00f8 50455249 		.ascii	"PERI_PPU_GR_Type\000"
 6874      5F505055 
 6874      5F47525F 
 6874      54797065 
 6874      00
 6875              	.LASF131:
 6876 0109 61646472 		.ascii	"addrReg\000"
 6876      52656700 
 6877              	.LASF11:
 6878 0111 6C6F6E67 		.ascii	"long long unsigned int\000"
 6878      206C6F6E 
 6878      6720756E 
 6878      7369676E 
 6878      65642069 
 6879              	.LASF76:
 6880 0128 43595F50 		.ascii	"CY_PROT_PERM_RWX\000"
ARM GAS  C:\Users\kiwamu\AppData\Local\Temp\ccLfX6Zi.s 			page 151


 6880      524F545F 
 6880      5045524D 
 6880      5F525758 
 6880      00
 6881              	.LASF59:
 6882 0139 534D5055 		.ascii	"SMPU\000"
 6882      00
 6883              	.LASF168:
 6884 013e 49544D5F 		.ascii	"ITM_RxBuffer\000"
 6884      52784275 
 6884      66666572 
 6884      00
 6885              	.LASF43:
 6886 014b 4D53375F 		.ascii	"MS7_CTL\000"
 6886      43544C00 
 6887              	.LASF54:
 6888 0153 41444452 		.ascii	"ADDR\000"
 6888      00
 6889              	.LASF127:
 6890 0158 43795F50 		.ascii	"Cy_Prot_GetActivePC\000"
 6890      726F745F 
 6890      47657441 
 6890      63746976 
 6890      65504300 
 6891              	.LASF10:
 6892 016c 6C6F6E67 		.ascii	"long long int\000"
 6892      206C6F6E 
 6892      6720696E 
 6892      7400
 6893              	.LASF0:
 6894 017a 7369676E 		.ascii	"signed char\000"
 6894      65642063 
 6894      68617200 
 6895              	.LASF78:
 6896 0186 43595F50 		.ascii	"CY_PROT_SIZE_256B\000"
 6896      524F545F 
 6896      53495A45 
 6896      5F323536 
 6896      4200
 6897              	.LASF61:
 6898 0198 50524F54 		.ascii	"PROT_Type\000"
 6898      5F547970 
 6898      6500
 6899              	.LASF134:
 6900 01a2 43795F50 		.ascii	"Cy_Prot_DisableMpuStruct\000"
 6900      726F745F 
 6900      44697361 
 6900      626C654D 
 6900      70755374 
 6901              	.LASF51:
 6902 01bb 4D533135 		.ascii	"MS15_CTL\000"
 6902      5F43544C 
 6902      00
 6903              	.LASF19:
 6904 01c4 43505553 		.ascii	"CPUSS_MS_ID_CRYPTO\000"
 6904      535F4D53 
 6904      5F49445F 
ARM GAS  C:\Users\kiwamu\AppData\Local\Temp\ccLfX6Zi.s 			page 152


 6904      43525950 
 6904      544F00
 6905              	.LASF148:
 6906 01d7 43795F50 		.ascii	"Cy_Prot_ConfigPpuFixedGrSlaveStruct\000"
 6906      726F745F 
 6906      436F6E66 
 6906      69675070 
 6906      75466978 
 6907              	.LASF83:
 6908 01fb 43595F50 		.ascii	"CY_PROT_SIZE_8KB\000"
 6908      524F545F 
 6908      53495A45 
 6908      5F384B42 
 6908      00
 6909              	.LASF157:
 6910 020c 43795F50 		.ascii	"Cy_Prot_EnablePpuFixedSlSlaveStruct\000"
 6910      726F745F 
 6910      456E6162 
 6910      6C655070 
 6910      75466978 
 6911              	.LASF135:
 6912 0230 43795F50 		.ascii	"Cy_Prot_ConfigSmpuMasterStruct\000"
 6912      726F745F 
 6912      436F6E66 
 6912      6967536D 
 6912      70754D61 
 6913              	.LASF7:
 6914 024f 6C6F6E67 		.ascii	"long int\000"
 6914      20696E74 
 6914      00
 6915              	.LASF113:
 6916 0258 70634D61 		.ascii	"pcMask\000"
 6916      736B00
 6917              	.LASF24:
 6918 025f 656E5F70 		.ascii	"en_prot_master_t\000"
 6918      726F745F 
 6918      6D617374 
 6918      65725F74 
 6918      00
 6919              	.LASF14:
 6920 0270 75696E74 		.ascii	"uint16_t\000"
 6920      31365F74 
 6920      00
 6921              	.LASF64:
 6922 0279 646F7562 		.ascii	"double\000"
 6922      6C6500
 6923              	.LASF40:
 6924 0280 4D53345F 		.ascii	"MS4_CTL\000"
 6924      43544C00 
 6925              	.LASF55:
 6926 0288 50524F54 		.ascii	"PROT_MPU_MPU_STRUCT_Type\000"
 6926      5F4D5055 
 6926      5F4D5055 
 6926      5F535452 
 6926      5543545F 
 6927              	.LASF81:
 6928 02a1 43595F50 		.ascii	"CY_PROT_SIZE_2KB\000"
ARM GAS  C:\Users\kiwamu\AppData\Local\Temp\ccLfX6Zi.s 			page 153


 6928      524F545F 
 6928      53495A45 
 6928      5F324B42 
 6928      00
 6929              	.LASF149:
 6930 02b2 43795F50 		.ascii	"Cy_Prot_EnablePpuFixedGrMasterStruct\000"
 6930      726F745F 
 6930      456E6162 
 6930      6C655070 
 6930      75466978 
 6931              	.LASF26:
 6932 02d7 41545430 		.ascii	"ATT0\000"
 6932      00
 6933              	.LASF126:
 6934 02dc 61646472 		.ascii	"addrMpu\000"
 6934      4D707500 
 6935              	.LASF8:
 6936 02e4 5F5F7569 		.ascii	"__uint32_t\000"
 6936      6E743332 
 6936      5F7400
 6937              	.LASF57:
 6938 02ef 4D50555F 		.ascii	"MPU_STRUCT\000"
 6938      53545255 
 6938      435400
 6939              	.LASF156:
 6940 02fa 43795F50 		.ascii	"Cy_Prot_DisablePpuFixedSlMasterStruct\000"
 6940      726F745F 
 6940      44697361 
 6940      626C6550 
 6940      70754669 
 6941              	.LASF158:
 6942 0320 43795F50 		.ascii	"Cy_Prot_DisablePpuFixedSlSlaveStruct\000"
 6942      726F745F 
 6942      44697361 
 6942      626C6550 
 6942      70754669 
 6943              	.LASF69:
 6944 0345 43595F50 		.ascii	"CY_PROT_PERM_DISABLED\000"
 6944      524F545F 
 6944      5045524D 
 6944      5F444953 
 6944      41424C45 
 6945              	.LASF164:
 6946 035b 43795F50 		.ascii	"Cy_Prot_DisablePpuFixedRgSlaveStruct\000"
 6946      726F745F 
 6946      44697361 
 6946      626C6550 
 6946      70754669 
 6947              	.LASF115:
 6948 0380 63795F73 		.ascii	"cy_stc_ppu_prog_cfg_t\000"
 6948      74635F70 
 6948      70755F70 
 6948      726F675F 
 6948      6366675F 
 6949              	.LASF12:
 6950 0396 756E7369 		.ascii	"unsigned int\000"
 6950      676E6564 
ARM GAS  C:\Users\kiwamu\AppData\Local\Temp\ccLfX6Zi.s 			page 154


 6950      20696E74 
 6950      00
 6951              	.LASF88:
 6952 03a3 43595F50 		.ascii	"CY_PROT_SIZE_256KB\000"
 6952      524F545F 
 6952      53495A45 
 6952      5F323536 
 6952      4B4200
 6953              	.LASF120:
 6954 03b6 70726976 		.ascii	"privileged\000"
 6954      696C6567 
 6954      656400
 6955              	.LASF65:
 6956 03c1 43595F50 		.ascii	"CY_PROT_SUCCESS\000"
 6956      524F545F 
 6956      53554343 
 6956      45535300 
 6957              	.LASF165:
 6958 03d1 474E5520 		.ascii	"GNU C11 5.4.1 20160609 (release) [ARM/embedded-5-br"
 6958      43313120 
 6958      352E342E 
 6958      31203230 
 6958      31363036 
 6959 0404 616E6368 		.ascii	"anch revision 237715] -mcpu=cortex-m4 -mfloat-abi=s"
 6959      20726576 
 6959      6973696F 
 6959      6E203233 
 6959      37373135 
 6960 0437 6F667466 		.ascii	"oftfp -mfpu=fpv4-sp-d16 -mthumb -g -Og -ffunction-s"
 6960      70202D6D 
 6960      6670753D 
 6960      66707634 
 6960      2D73702D 
 6961 046a 65637469 		.ascii	"ections -ffat-lto-objects\000"
 6961      6F6E7320 
 6961      2D666661 
 6961      742D6C74 
 6961      6F2D6F62 
 6962              	.LASF85:
 6963 0484 43595F50 		.ascii	"CY_PROT_SIZE_32KB\000"
 6963      524F545F 
 6963      53495A45 
 6963      5F33324B 
 6963      4200
 6964              	.LASF9:
 6965 0496 6C6F6E67 		.ascii	"long unsigned int\000"
 6965      20756E73 
 6965      69676E65 
 6965      6420696E 
 6965      7400
 6966              	.LASF37:
 6967 04a8 4D53315F 		.ascii	"MS1_CTL\000"
 6967      43544C00 
 6968              	.LASF86:
 6969 04b0 43595F50 		.ascii	"CY_PROT_SIZE_64KB\000"
 6969      524F545F 
 6969      53495A45 
ARM GAS  C:\Users\kiwamu\AppData\Local\Temp\ccLfX6Zi.s 			page 155


 6969      5F36344B 
 6969      4200
 6970              	.LASF102:
 6971 04c2 43595F50 		.ascii	"CY_PROT_SIZE_4GB\000"
 6971      524F545F 
 6971      53495A45 
 6971      5F344742 
 6971      00
 6972              	.LASF89:
 6973 04d3 43595F50 		.ascii	"CY_PROT_SIZE_512KB\000"
 6973      524F545F 
 6973      53495A45 
 6973      5F353132 
 6973      4B4200
 6974              	.LASF45:
 6975 04e6 4D53395F 		.ascii	"MS9_CTL\000"
 6975      43544C00 
 6976              	.LASF111:
 6977 04ee 63795F73 		.ascii	"cy_stc_mpu_cfg_t\000"
 6977      74635F6D 
 6977      70755F63 
 6977      66675F74 
 6977      00
 6978              	.LASF5:
 6979 04ff 73686F72 		.ascii	"short unsigned int\000"
 6979      7420756E 
 6979      7369676E 
 6979      65642069 
 6979      6E7400
 6980              	.LASF25:
 6981 0512 41444452 		.ascii	"ADDR0\000"
 6981      3000
 6982              	.LASF28:
 6983 0518 41444452 		.ascii	"ADDR1\000"
 6983      3100
 6984              	.LASF166:
 6985 051e 47656E65 		.ascii	"Generated_Source\\PSoC6\\pdl\\drivers\\peripheral\\"
 6985      72617465 
 6985      645F536F 
 6985      75726365 
 6985      5C50536F 
 6986 054c 70726F74 		.ascii	"prot\\cy_prot.c\000"
 6986      5C63795F 
 6986      70726F74 
 6986      2E6300
 6987              	.LASF163:
 6988 055b 43795F50 		.ascii	"Cy_Prot_EnablePpuFixedRgSlaveStruct\000"
 6988      726F745F 
 6988      456E6162 
 6988      6C655070 
 6988      75466978 
 6989              	.LASF125:
 6990 057f 43795F50 		.ascii	"Cy_Prot_SetActivePC\000"
 6990      726F745F 
 6990      53657441 
 6990      63746976 
 6990      65504300 
ARM GAS  C:\Users\kiwamu\AppData\Local\Temp\ccLfX6Zi.s 			page 156


 6991              	.LASF33:
 6992 0593 50455249 		.ascii	"PERI_GR_PPU_SL_Type\000"
 6992      5F47525F 
 6992      5050555F 
 6992      534C5F54 
 6992      79706500 
 6993              	.LASF155:
 6994 05a7 43795F50 		.ascii	"Cy_Prot_EnablePpuFixedSlMasterStruct\000"
 6994      726F745F 
 6994      456E6162 
 6994      6C655070 
 6994      75466978 
 6995              	.LASF122:
 6996 05cc 72656756 		.ascii	"regVal\000"
 6996      616C00
 6997              	.LASF93:
 6998 05d3 43595F50 		.ascii	"CY_PROT_SIZE_8MB\000"
 6998      524F545F 
 6998      53495A45 
 6998      5F384D42 
 6998      00
 6999              	.LASF80:
 7000 05e4 43595F50 		.ascii	"CY_PROT_SIZE_1KB\000"
 7000      524F545F 
 7000      53495A45 
 7000      5F314B42 
 7000      00
 7001              	.LASF6:
 7002 05f5 5F5F696E 		.ascii	"__int32_t\000"
 7002      7433325F 
 7002      7400
 7003              	.LASF84:
 7004 05ff 43595F50 		.ascii	"CY_PROT_SIZE_16KB\000"
 7004      524F545F 
 7004      53495A45 
 7004      5F31364B 
 7004      4200
 7005              	.LASF58:
 7006 0611 50524F54 		.ascii	"PROT_MPU_Type\000"
 7006      5F4D5055 
 7006      5F547970 
 7006      6500
 7007              	.LASF119:
 7008 061f 6275734D 		.ascii	"busMaster\000"
 7008      61737465 
 7008      7200
 7009              	.LASF129:
 7010 0629 62617365 		.ascii	"base\000"
 7010      00
 7011              	.LASF141:
 7012 062e 43795F50 		.ascii	"Cy_Prot_ConfigPpuProgMasterStruct\000"
 7012      726F745F 
 7012      436F6E66 
 7012      69675070 
 7012      7550726F 
 7013              	.LASF42:
 7014 0650 4D53365F 		.ascii	"MS6_CTL\000"
ARM GAS  C:\Users\kiwamu\AppData\Local\Temp\ccLfX6Zi.s 			page 157


 7014      43544C00 
 7015              	.LASF75:
 7016 0658 43595F50 		.ascii	"CY_PROT_PERM_WX\000"
 7016      524F545F 
 7016      5045524D 
 7016      5F575800 
 7017              	.LASF167:
 7018 0668 433A5C55 		.ascii	"C:\\Users\\kiwamu\\Downloads\\CE220465\\CE220465_PS"
 7018      73657273 
 7018      5C6B6977 
 7018      616D755C 
 7018      446F776E 
 7019 0696 6F435F36 		.ascii	"oC_6_MCU_Cryptography_AES_Demonstration.cydsn\000"
 7019      5F4D4355 
 7019      5F437279 
 7019      70746F67 
 7019      72617068 
 7020              	.LASF107:
 7021 06c4 75736572 		.ascii	"userPermission\000"
 7021      5065726D 
 7021      69737369 
 7021      6F6E00
 7022              	.LASF104:
 7023 06d3 61646472 		.ascii	"address\000"
 7023      65737300 
 7024              	.LASF60:
 7025 06db 43594D50 		.ascii	"CYMPU\000"
 7025      5500
 7026              	.LASF56:
 7027 06e1 4D535F43 		.ascii	"MS_CTL\000"
 7027      544C00
 7028              	.LASF91:
 7029 06e8 43595F50 		.ascii	"CY_PROT_SIZE_2MB\000"
 7029      524F545F 
 7029      53495A45 
 7029      5F324D42 
 7029      00
 7030              	.LASF138:
 7031 06f9 43795F50 		.ascii	"Cy_Prot_DisableSmpuMasterStruct\000"
 7031      726F745F 
 7031      44697361 
 7031      626C6553 
 7031      6D70754D 
 7032              	.LASF50:
 7033 0719 4D533134 		.ascii	"MS14_CTL\000"
 7033      5F43544C 
 7033      00
 7034              	.LASF139:
 7035 0722 43795F50 		.ascii	"Cy_Prot_EnableSmpuSlaveStruct\000"
 7035      726F745F 
 7035      456E6162 
 7035      6C65536D 
 7035      7075536C 
 7036              	.LASF143:
 7037 0740 43795F50 		.ascii	"Cy_Prot_EnablePpuProgMasterStruct\000"
 7037      726F745F 
 7037      456E6162 
ARM GAS  C:\Users\kiwamu\AppData\Local\Temp\ccLfX6Zi.s 			page 158


 7037      6C655070 
 7037      7550726F 
 7038              	.LASF124:
 7039 0762 43795F50 		.ascii	"Cy_Prot_ConfigBusMaster\000"
 7039      726F745F 
 7039      436F6E66 
 7039      69674275 
 7039      734D6173 
 7040              	.LASF70:
 7041 077a 43595F50 		.ascii	"CY_PROT_PERM_R\000"
 7041      524F545F 
 7041      5045524D 
 7041      5F5200
 7042              	.LASF22:
 7043 0789 43505553 		.ascii	"CPUSS_MS_ID_CM4\000"
 7043      535F4D53 
 7043      5F49445F 
 7043      434D3400 
 7044              	.LASF108:
 7045 0799 70726976 		.ascii	"privPermission\000"
 7045      5065726D 
 7045      69737369 
 7045      6F6E00
 7046              	.LASF151:
 7047 07a8 43795F50 		.ascii	"Cy_Prot_EnablePpuFixedGrSlaveStruct\000"
 7047      726F745F 
 7047      456E6162 
 7047      6C655070 
 7047      75466978 
 7048              	.LASF98:
 7049 07cc 43595F50 		.ascii	"CY_PROT_SIZE_256MB\000"
 7049      524F545F 
 7049      53495A45 
 7049      5F323536 
 7049      4D4200
 7050              	.LASF73:
 7051 07df 43595F50 		.ascii	"CY_PROT_PERM_X\000"
 7051      524F545F 
 7051      5045524D 
 7051      5F5800
 7052              	.LASF133:
 7053 07ee 43795F50 		.ascii	"Cy_Prot_EnableMpuStruct\000"
 7053      726F745F 
 7053      456E6162 
 7053      6C654D70 
 7053      75537472 
 7054              	.LASF137:
 7055 0806 43795F50 		.ascii	"Cy_Prot_EnableSmpuMasterStruct\000"
 7055      726F745F 
 7055      456E6162 
 7055      6C65536D 
 7055      70754D61 
 7056              	.LASF95:
 7057 0825 43595F50 		.ascii	"CY_PROT_SIZE_32MB\000"
 7057      524F545F 
 7057      53495A45 
 7057      5F33324D 
ARM GAS  C:\Users\kiwamu\AppData\Local\Temp\ccLfX6Zi.s 			page 159


 7057      4200
 7058              	.LASF30:
 7059 0837 52455345 		.ascii	"RESERVED1\000"
 7059      52564544 
 7059      3100
 7060              	.LASF117:
 7061 0841 63795F73 		.ascii	"cy_stc_ppu_sl_cfg_t\000"
 7061      74635F70 
 7061      70755F73 
 7061      6C5F6366 
 7061      675F7400 
 7062              	.LASF109:
 7063 0855 73656375 		.ascii	"secure\000"
 7063      726500
 7064              	.LASF35:
 7065 085c 50524F54 		.ascii	"PROT_SMPU_SMPU_STRUCT_Type\000"
 7065      5F534D50 
 7065      555F534D 
 7065      50555F53 
 7065      54525543 
 7066              	.LASF92:
 7067 0877 43595F50 		.ascii	"CY_PROT_SIZE_4MB\000"
 7067      524F545F 
 7067      53495A45 
 7067      5F344D42 
 7067      00
 7068              	.LASF160:
 7069 0888 43795F50 		.ascii	"Cy_Prot_ConfigPpuFixedRgSlaveStruct\000"
 7069      726F745F 
 7069      436F6E66 
 7069      69675070 
 7069      75466978 
 7070              	.LASF110:
 7071 08ac 5F426F6F 		.ascii	"_Bool\000"
 7071      6C00
 7072              	.LASF15:
 7073 08b2 696E7433 		.ascii	"int32_t\000"
 7073      325F7400 
 7074              	.LASF1:
 7075 08ba 756E7369 		.ascii	"unsigned char\000"
 7075      676E6564 
 7075      20636861 
 7075      7200
 7076              	.LASF128:
 7077 08c8 43795F50 		.ascii	"Cy_Prot_ConfigMpuStruct\000"
 7077      726F745F 
 7077      436F6E66 
 7077      69674D70 
 7077      75537472 
 7078              	.LASF47:
 7079 08e0 4D533131 		.ascii	"MS11_CTL\000"
 7079      5F43544C 
 7079      00
 7080              	.LASF2:
 7081 08e9 73686F72 		.ascii	"short int\000"
 7081      7420696E 
 7081      7400
ARM GAS  C:\Users\kiwamu\AppData\Local\Temp\ccLfX6Zi.s 			page 160


 7082              	.LASF87:
 7083 08f3 43595F50 		.ascii	"CY_PROT_SIZE_128KB\000"
 7083      524F545F 
 7083      53495A45 
 7083      5F313238 
 7083      4B4200
 7084              	.LASF94:
 7085 0906 43595F50 		.ascii	"CY_PROT_SIZE_16MB\000"
 7085      524F545F 
 7085      53495A45 
 7085      5F31364D 
 7085      4200
 7086              	.LASF154:
 7087 0918 43795F50 		.ascii	"Cy_Prot_ConfigPpuFixedSlSlaveStruct\000"
 7087      726F745F 
 7087      436F6E66 
 7087      69675070 
 7087      75466978 
 7088              	.LASF48:
 7089 093c 4D533132 		.ascii	"MS12_CTL\000"
 7089      5F43544C 
 7089      00
 7090              	.LASF39:
 7091 0945 4D53335F 		.ascii	"MS3_CTL\000"
 7091      43544C00 
 7092              	.LASF103:
 7093 094d 63795F65 		.ascii	"cy_en_prot_size_t\000"
 7093      6E5F7072 
 7093      6F745F73 
 7093      697A655F 
 7093      7400
 7094              	.LASF152:
 7095 095f 43795F50 		.ascii	"Cy_Prot_DisablePpuFixedGrSlaveStruct\000"
 7095      726F745F 
 7095      44697361 
 7095      626C6550 
 7095      70754669 
 7096              	.LASF90:
 7097 0984 43595F50 		.ascii	"CY_PROT_SIZE_1MB\000"
 7097      524F545F 
 7097      53495A45 
 7097      5F314D42 
 7097      00
 7098              	.LASF140:
 7099 0995 43795F50 		.ascii	"Cy_Prot_DisableSmpuSlaveStruct\000"
 7099      726F745F 
 7099      44697361 
 7099      626C6553 
 7099      6D707553 
 7100              	.LASF36:
 7101 09b4 4D53305F 		.ascii	"MS0_CTL\000"
 7101      43544C00 
 7102              	.LASF16:
 7103 09bc 75696E74 		.ascii	"uint32_t\000"
 7103      33325F74 
 7103      00
 7104              	.LASF159:
ARM GAS  C:\Users\kiwamu\AppData\Local\Temp\ccLfX6Zi.s 			page 161


 7105 09c5 43795F50 		.ascii	"Cy_Prot_ConfigPpuFixedRgMasterStruct\000"
 7105      726F745F 
 7105      436F6E66 
 7105      69675070 
 7105      75466978 
 7106              	.LASF101:
 7107 09ea 43595F50 		.ascii	"CY_PROT_SIZE_2GB\000"
 7107      524F545F 
 7107      53495A45 
 7107      5F324742 
 7107      00
 7108              	.LASF68:
 7109 09fb 63795F65 		.ascii	"cy_en_prot_status_t\000"
 7109      6E5F7072 
 7109      6F745F73 
 7109      74617475 
 7109      735F7400 
 7110              	.LASF62:
 7111 0a0f 63686172 		.ascii	"char\000"
 7111      00
 7112              	.LASF130:
 7113 0a14 636F6E66 		.ascii	"config\000"
 7113      696700
 7114              	.LASF4:
 7115 0a1b 5F5F7569 		.ascii	"__uint16_t\000"
 7115      6E743136 
 7115      5F7400
 7116              	.LASF18:
 7117 0a26 43505553 		.ascii	"CPUSS_MS_ID_CM0\000"
 7117      535F4D53 
 7117      5F49445F 
 7117      434D3000 
 7118              	.LASF27:
 7119 0a36 52455345 		.ascii	"RESERVED\000"
 7119      52564544 
 7119      00
 7120              	.LASF132:
 7121 0a3f 61747452 		.ascii	"attReg\000"
 7121      656700
 7122              	.LASF114:
 7123 0a46 63795F73 		.ascii	"cy_stc_smpu_cfg_t\000"
 7123      74635F73 
 7123      6D70755F 
 7123      6366675F 
 7123      7400
 7124              	.LASF52:
 7125 0a58 534D5055 		.ascii	"SMPU_STRUCT\000"
 7125      5F535452 
 7125      55435400 
 7126              	.LASF150:
 7127 0a64 43795F50 		.ascii	"Cy_Prot_DisablePpuFixedGrMasterStruct\000"
 7127      726F745F 
 7127      44697361 
 7127      626C6550 
 7127      70754669 
 7128              	.LASF67:
 7129 0a8a 43595F50 		.ascii	"CY_PROT_FAILURE\000"
ARM GAS  C:\Users\kiwamu\AppData\Local\Temp\ccLfX6Zi.s 			page 162


 7129      524F545F 
 7129      4641494C 
 7129      55524500 
 7130              	.LASF44:
 7131 0a9a 4D53385F 		.ascii	"MS8_CTL\000"
 7131      43544C00 
 7132              	.LASF53:
 7133 0aa2 50524F54 		.ascii	"PROT_SMPU_Type\000"
 7133      5F534D50 
 7133      555F5479 
 7133      706500
 7134              	.LASF21:
 7135 0ab1 43505553 		.ascii	"CPUSS_MS_ID_DW1\000"
 7135      535F4D53 
 7135      5F49445F 
 7135      44573100 
 7136              	.LASF29:
 7137 0ac1 41545431 		.ascii	"ATT1\000"
 7137      00
 7138              	.LASF72:
 7139 0ac6 43595F50 		.ascii	"CY_PROT_PERM_RW\000"
 7139      524F545F 
 7139      5045524D 
 7139      5F525700 
 7140              	.LASF74:
 7141 0ad6 43595F50 		.ascii	"CY_PROT_PERM_RX\000"
 7141      524F545F 
 7141      5045524D 
 7141      5F525800 
 7142              	.LASF31:
 7143 0ae6 50455249 		.ascii	"PERI_PPU_PR_Type\000"
 7143      5F505055 
 7143      5F50525F 
 7143      54797065 
 7143      00
 7144              	.LASF144:
 7145 0af7 43795F50 		.ascii	"Cy_Prot_DisablePpuProgMasterStruct\000"
 7145      726F745F 
 7145      44697361 
 7145      626C6550 
 7145      70755072 
 7146              	.LASF41:
 7147 0b1a 4D53355F 		.ascii	"MS5_CTL\000"
 7147      43544C00 
 7148              	.LASF121:
 7149 0b22 73746174 		.ascii	"status\000"
 7149      757300
 7150              	.LASF96:
 7151 0b29 43595F50 		.ascii	"CY_PROT_SIZE_64MB\000"
 7151      524F545F 
 7151      53495A45 
 7151      5F36344D 
 7151      4200
 7152              	.LASF13:
 7153 0b3b 75696E74 		.ascii	"uint8_t\000"
 7153      385F7400 
 7154              	.LASF82:
ARM GAS  C:\Users\kiwamu\AppData\Local\Temp\ccLfX6Zi.s 			page 163


 7155 0b43 43595F50 		.ascii	"CY_PROT_SIZE_4KB\000"
 7155      524F545F 
 7155      53495A45 
 7155      5F344B42 
 7155      00
 7156              	.LASF49:
 7157 0b54 4D533133 		.ascii	"MS13_CTL\000"
 7157      5F43544C 
 7157      00
 7158              	.LASF123:
 7159 0b5d 61646472 		.ascii	"addrMsCtl\000"
 7159      4D734374 
 7159      6C00
 7160              	.LASF63:
 7161 0b67 666C6F61 		.ascii	"float\000"
 7161      7400
 7162              	.LASF17:
 7163 0b6d 73697A65 		.ascii	"sizetype\000"
 7163      74797065 
 7163      00
 7164              	.LASF20:
 7165 0b76 43505553 		.ascii	"CPUSS_MS_ID_DW0\000"
 7165      535F4D53 
 7165      5F49445F 
 7165      44573000 
 7166              	.LASF100:
 7167 0b86 43595F50 		.ascii	"CY_PROT_SIZE_1GB\000"
 7167      524F545F 
 7167      53495A45 
 7167      5F314742 
 7167      00
 7168              	.LASF99:
 7169 0b97 43595F50 		.ascii	"CY_PROT_SIZE_512MB\000"
 7169      524F545F 
 7169      53495A45 
 7169      5F353132 
 7169      4D4200
 7170              	.LASF97:
 7171 0baa 43595F50 		.ascii	"CY_PROT_SIZE_128MB\000"
 7171      524F545F 
 7171      53495A45 
 7171      5F313238 
 7171      4D4200
 7172              	.LASF77:
 7173 0bbd 63795F65 		.ascii	"cy_en_prot_perm_t\000"
 7173      6E5F7072 
 7173      6F745F70 
 7173      65726D5F 
 7173      7400
 7174              	.LASF106:
 7175 0bcf 73756272 		.ascii	"subregions\000"
 7175      6567696F 
 7175      6E7300
 7176              	.LASF145:
 7177 0bda 43795F50 		.ascii	"Cy_Prot_EnablePpuProgSlaveStruct\000"
 7177      726F745F 
 7177      456E6162 
ARM GAS  C:\Users\kiwamu\AppData\Local\Temp\ccLfX6Zi.s 			page 164


 7177      6C655070 
 7177      7550726F 
 7178              	.LASF147:
 7179 0bfb 43795F50 		.ascii	"Cy_Prot_ConfigPpuFixedGrMasterStruct\000"
 7179      726F745F 
 7179      436F6E66 
 7179      69675070 
 7179      75466978 
 7180              	.LASF146:
 7181 0c20 43795F50 		.ascii	"Cy_Prot_DisablePpuProgSlaveStruct\000"
 7181      726F745F 
 7181      44697361 
 7181      626C6550 
 7181      70755072 
 7182              	.LASF23:
 7183 0c42 43505553 		.ascii	"CPUSS_MS_ID_TC\000"
 7183      535F4D53 
 7183      5F49445F 
 7183      544300
 7184              	.LASF38:
 7185 0c51 4D53325F 		.ascii	"MS2_CTL\000"
 7185      43544C00 
 7186              	.LASF153:
 7187 0c59 43795F50 		.ascii	"Cy_Prot_ConfigPpuFixedSlMasterStruct\000"
 7187      726F745F 
 7187      436F6E66 
 7187      69675070 
 7187      75466978 
 7188              	.LASF105:
 7189 0c7e 72656769 		.ascii	"regionSize\000"
 7189      6F6E5369 
 7189      7A6500
 7190              	.LASF112:
 7191 0c89 70634D61 		.ascii	"pcMatch\000"
 7191      74636800 
 7192              	.LASF34:
 7193 0c91 50455249 		.ascii	"PERI_GR_PPU_RG_Type\000"
 7193      5F47525F 
 7193      5050555F 
 7193      52475F54 
 7193      79706500 
 7194              		.ident	"GCC: (GNU Tools for ARM Embedded Processors) 5.4.1 20160609 (release) [ARM/embedded-5-bran
