ARM GAS  C:\Users\kiwamu\AppData\Local\Temp\ccE2Z6Jb.s 			page 1


   1              		.syntax unified
   2              		.cpu cortex-m4
   3              		.eabi_attribute 27, 1
   4              		.fpu fpv4-sp-d16
   5              		.eabi_attribute 20, 1
   6              		.eabi_attribute 21, 1
   7              		.eabi_attribute 23, 3
   8              		.eabi_attribute 24, 1
   9              		.eabi_attribute 25, 1
  10              		.eabi_attribute 26, 1
  11              		.eabi_attribute 30, 1
  12              		.eabi_attribute 34, 1
  13              		.eabi_attribute 18, 4
  14              		.thumb
  15              		.syntax unified
  16              		.file	"cy_syslib.c"
  17              		.text
  18              	.Ltext0:
  19              		.cfi_sections	.debug_frame
  20              		.section	.text.Cy_SysLib_SetWaitStates_LP,"ax",%progbits
  21              		.align	2
  22              		.thumb
  23              		.thumb_func
  24              		.type	Cy_SysLib_SetWaitStates_LP, %function
  25              	Cy_SysLib_SetWaitStates_LP:
  26              	.LFB154:
  27              		.file 1 "Generated_Source\\PSoC6\\pdl\\drivers\\peripheral\\syslib\\cy_syslib.c"
   1:Generated_Source\PSoC6\pdl\drivers\peripheral\syslib/cy_syslib.c **** /***************************************************************************//**
   2:Generated_Source\PSoC6\pdl\drivers\peripheral\syslib/cy_syslib.c **** * \file cy_syslib.c
   3:Generated_Source\PSoC6\pdl\drivers\peripheral\syslib/cy_syslib.c **** * \version 2.0
   4:Generated_Source\PSoC6\pdl\drivers\peripheral\syslib/cy_syslib.c **** *
   5:Generated_Source\PSoC6\pdl\drivers\peripheral\syslib/cy_syslib.c **** *  Description:
   6:Generated_Source\PSoC6\pdl\drivers\peripheral\syslib/cy_syslib.c **** *   Provides system API implementation for the syslib driver.
   7:Generated_Source\PSoC6\pdl\drivers\peripheral\syslib/cy_syslib.c **** *
   8:Generated_Source\PSoC6\pdl\drivers\peripheral\syslib/cy_syslib.c **** ********************************************************************************
   9:Generated_Source\PSoC6\pdl\drivers\peripheral\syslib/cy_syslib.c **** * Copyright 2016-2017, Cypress Semiconductor Corporation. All rights reserved.
  10:Generated_Source\PSoC6\pdl\drivers\peripheral\syslib/cy_syslib.c **** * You may use this file only in accordance with the license, terms, conditions,
  11:Generated_Source\PSoC6\pdl\drivers\peripheral\syslib/cy_syslib.c **** * disclaimers, and limitations in the end user license agreement accompanying
  12:Generated_Source\PSoC6\pdl\drivers\peripheral\syslib/cy_syslib.c **** * the software package with which this file was provided.
  13:Generated_Source\PSoC6\pdl\drivers\peripheral\syslib/cy_syslib.c **** *******************************************************************************/
  14:Generated_Source\PSoC6\pdl\drivers\peripheral\syslib/cy_syslib.c **** 
  15:Generated_Source\PSoC6\pdl\drivers\peripheral\syslib/cy_syslib.c **** #include "cy_syslib.h"
  16:Generated_Source\PSoC6\pdl\drivers\peripheral\syslib/cy_syslib.c **** #include "ipc/cy_ipc_drv.h"
  17:Generated_Source\PSoC6\pdl\drivers\peripheral\syslib/cy_syslib.c **** #if !defined(NDEBUG)
  18:Generated_Source\PSoC6\pdl\drivers\peripheral\syslib/cy_syslib.c ****     #include <string.h>
  19:Generated_Source\PSoC6\pdl\drivers\peripheral\syslib/cy_syslib.c **** #endif /* NDEBUG */
  20:Generated_Source\PSoC6\pdl\drivers\peripheral\syslib/cy_syslib.c **** 
  21:Generated_Source\PSoC6\pdl\drivers\peripheral\syslib/cy_syslib.c **** /* Flash wait states (LP mode at 1.1v) */
  22:Generated_Source\PSoC6\pdl\drivers\peripheral\syslib/cy_syslib.c **** #define CY_SYSLIB_FLASH_LP_WS_0_FREQ_MAX     ( 29UL)
  23:Generated_Source\PSoC6\pdl\drivers\peripheral\syslib/cy_syslib.c **** #define CY_SYSLIB_FLASH_LP_WS_1_FREQ_MAX     ( 58UL)
  24:Generated_Source\PSoC6\pdl\drivers\peripheral\syslib/cy_syslib.c **** #define CY_SYSLIB_FLASH_LP_WS_2_FREQ_MAX     ( 87UL)
  25:Generated_Source\PSoC6\pdl\drivers\peripheral\syslib/cy_syslib.c **** #define CY_SYSLIB_FLASH_LP_WS_3_FREQ_MAX     (120UL)
  26:Generated_Source\PSoC6\pdl\drivers\peripheral\syslib/cy_syslib.c **** #define CY_SYSLIB_FLASH_LP_WS_4_FREQ_MAX     (150UL)
  27:Generated_Source\PSoC6\pdl\drivers\peripheral\syslib/cy_syslib.c **** 
  28:Generated_Source\PSoC6\pdl\drivers\peripheral\syslib/cy_syslib.c **** /* Flash wait states (ULP mode at 0.9v) */
  29:Generated_Source\PSoC6\pdl\drivers\peripheral\syslib/cy_syslib.c **** #define CY_SYSLIB_FLASH_ULP_WS_0_FREQ_MAX    ( 16UL)
  30:Generated_Source\PSoC6\pdl\drivers\peripheral\syslib/cy_syslib.c **** #define CY_SYSLIB_FLASH_ULP_WS_1_FREQ_MAX    ( 33UL)
ARM GAS  C:\Users\kiwamu\AppData\Local\Temp\ccE2Z6Jb.s 			page 2


  31:Generated_Source\PSoC6\pdl\drivers\peripheral\syslib/cy_syslib.c **** #define CY_SYSLIB_FLASH_ULP_WS_2_FREQ_MAX    ( 50UL)
  32:Generated_Source\PSoC6\pdl\drivers\peripheral\syslib/cy_syslib.c **** 
  33:Generated_Source\PSoC6\pdl\drivers\peripheral\syslib/cy_syslib.c **** /* ROM wait states for the slow clock domain (LP mode at 1.1v) */
  34:Generated_Source\PSoC6\pdl\drivers\peripheral\syslib/cy_syslib.c **** #define CY_SYSLIB_ROM_LP_SLOW_WS_0_FREQ_MAX  (100UL)
  35:Generated_Source\PSoC6\pdl\drivers\peripheral\syslib/cy_syslib.c **** #define CY_SYSLIB_ROM_LP_SLOW_WS_1_FREQ_MAX  (120UL)
  36:Generated_Source\PSoC6\pdl\drivers\peripheral\syslib/cy_syslib.c **** 
  37:Generated_Source\PSoC6\pdl\drivers\peripheral\syslib/cy_syslib.c **** /* ROM wait states for the slow clock domain (ULP mode at 0.9v) */
  38:Generated_Source\PSoC6\pdl\drivers\peripheral\syslib/cy_syslib.c **** #define CY_SYSLIB_ROM_ULP_SLOW_WS_0_FREQ_MAX ( 25UL)
  39:Generated_Source\PSoC6\pdl\drivers\peripheral\syslib/cy_syslib.c **** #define CY_SYSLIB_ROM_ULP_SLOW_WS_1_FREQ_MAX ( 50UL)
  40:Generated_Source\PSoC6\pdl\drivers\peripheral\syslib/cy_syslib.c **** 
  41:Generated_Source\PSoC6\pdl\drivers\peripheral\syslib/cy_syslib.c **** /* ROM wait states for the fast clock domain (LP mode at 1.1v) */
  42:Generated_Source\PSoC6\pdl\drivers\peripheral\syslib/cy_syslib.c **** #define CY_SYSLIB_ROM_LP_FAST_WS_0_FREQ_MAX  (120UL)
  43:Generated_Source\PSoC6\pdl\drivers\peripheral\syslib/cy_syslib.c **** 
  44:Generated_Source\PSoC6\pdl\drivers\peripheral\syslib/cy_syslib.c **** /* ROM wait states for the slow clock domain (ULP mode at 0.9v) */
  45:Generated_Source\PSoC6\pdl\drivers\peripheral\syslib/cy_syslib.c **** #define CY_SYSLIB_ROM_ULP_FAST_WS_0_FREQ_MAX ( 50UL)
  46:Generated_Source\PSoC6\pdl\drivers\peripheral\syslib/cy_syslib.c **** 
  47:Generated_Source\PSoC6\pdl\drivers\peripheral\syslib/cy_syslib.c **** /* SRAM wait states for the slow clock domain (LP mode at 1.1v) */
  48:Generated_Source\PSoC6\pdl\drivers\peripheral\syslib/cy_syslib.c **** #define CY_SYSLIB_RAM_LP_SLOW_WS_0_FREQ_MAX  (100UL)
  49:Generated_Source\PSoC6\pdl\drivers\peripheral\syslib/cy_syslib.c **** #define CY_SYSLIB_RAM_LP_SLOW_WS_1_FREQ_MAX  (120UL)
  50:Generated_Source\PSoC6\pdl\drivers\peripheral\syslib/cy_syslib.c **** 
  51:Generated_Source\PSoC6\pdl\drivers\peripheral\syslib/cy_syslib.c **** /* SRAM wait states for the slow clock domain (ULP mode at 0.9v) */
  52:Generated_Source\PSoC6\pdl\drivers\peripheral\syslib/cy_syslib.c **** #define CY_SYSLIB_RAM_ULP_SLOW_WS_0_FREQ_MAX ( 25UL)
  53:Generated_Source\PSoC6\pdl\drivers\peripheral\syslib/cy_syslib.c **** #define CY_SYSLIB_RAM_ULP_SLOW_WS_1_FREQ_MAX ( 50UL)
  54:Generated_Source\PSoC6\pdl\drivers\peripheral\syslib/cy_syslib.c **** 
  55:Generated_Source\PSoC6\pdl\drivers\peripheral\syslib/cy_syslib.c **** /* SRAM wait states for the fast clock domain (LP mode at 1.1v) */
  56:Generated_Source\PSoC6\pdl\drivers\peripheral\syslib/cy_syslib.c **** #define CY_SYSLIB_RAM_LP_FAST_WS_0_FREQ_MAX  (120UL)
  57:Generated_Source\PSoC6\pdl\drivers\peripheral\syslib/cy_syslib.c **** 
  58:Generated_Source\PSoC6\pdl\drivers\peripheral\syslib/cy_syslib.c **** /* SRAM wait states for the fast clock domain (ULP mode at 0.9v) */
  59:Generated_Source\PSoC6\pdl\drivers\peripheral\syslib/cy_syslib.c **** #define CY_SYSLIB_RAM_ULP_FAST_WS_0_FREQ_MAX ( 50UL)
  60:Generated_Source\PSoC6\pdl\drivers\peripheral\syslib/cy_syslib.c **** 
  61:Generated_Source\PSoC6\pdl\drivers\peripheral\syslib/cy_syslib.c **** 
  62:Generated_Source\PSoC6\pdl\drivers\peripheral\syslib/cy_syslib.c **** #if !defined(NDEBUG)
  63:Generated_Source\PSoC6\pdl\drivers\peripheral\syslib/cy_syslib.c ****     CY_NOINIT char_t cy_assertFileName[CY_MAX_FILE_NAME_SIZE];
  64:Generated_Source\PSoC6\pdl\drivers\peripheral\syslib/cy_syslib.c ****     CY_NOINIT uint32_t cy_assertLine;
  65:Generated_Source\PSoC6\pdl\drivers\peripheral\syslib/cy_syslib.c **** #endif /* NDEBUG */
  66:Generated_Source\PSoC6\pdl\drivers\peripheral\syslib/cy_syslib.c **** 
  67:Generated_Source\PSoC6\pdl\drivers\peripheral\syslib/cy_syslib.c **** #if (CY_ARM_FAULT_DEBUG == CY_ARM_FAULT_DEBUG_ENABLED)
  68:Generated_Source\PSoC6\pdl\drivers\peripheral\syslib/cy_syslib.c ****     CY_NOINIT cy_stc_fault_frame_t cy_faultFrame;
  69:Generated_Source\PSoC6\pdl\drivers\peripheral\syslib/cy_syslib.c **** #endif /* (CY_ARM_FAULT_DEBUG == CY_ARM_FAULT_DEBUG_ENABLED) */
  70:Generated_Source\PSoC6\pdl\drivers\peripheral\syslib/cy_syslib.c **** 
  71:Generated_Source\PSoC6\pdl\drivers\peripheral\syslib/cy_syslib.c **** static void Cy_SysLib_SetWaitStates_ULP(uint32_t clkHfMHz);
  72:Generated_Source\PSoC6\pdl\drivers\peripheral\syslib/cy_syslib.c **** static void Cy_SysLib_SetWaitStates_LP(uint32_t clkHfMHz);
  73:Generated_Source\PSoC6\pdl\drivers\peripheral\syslib/cy_syslib.c **** 
  74:Generated_Source\PSoC6\pdl\drivers\peripheral\syslib/cy_syslib.c **** #if defined(__ARMCC_VERSION)
  75:Generated_Source\PSoC6\pdl\drivers\peripheral\syslib/cy_syslib.c ****     static __ASM void Cy_SysLib_AsmInfiniteLoop(void) { b . };
  76:Generated_Source\PSoC6\pdl\drivers\peripheral\syslib/cy_syslib.c **** #endif  /* (__ARMCC_VERSION) */
  77:Generated_Source\PSoC6\pdl\drivers\peripheral\syslib/cy_syslib.c **** 
  78:Generated_Source\PSoC6\pdl\drivers\peripheral\syslib/cy_syslib.c **** 
  79:Generated_Source\PSoC6\pdl\drivers\peripheral\syslib/cy_syslib.c **** /*******************************************************************************
  80:Generated_Source\PSoC6\pdl\drivers\peripheral\syslib/cy_syslib.c **** * Function Name: Cy_SysLib_Delay
  81:Generated_Source\PSoC6\pdl\drivers\peripheral\syslib/cy_syslib.c **** ****************************************************************************//**
  82:Generated_Source\PSoC6\pdl\drivers\peripheral\syslib/cy_syslib.c **** *
  83:Generated_Source\PSoC6\pdl\drivers\peripheral\syslib/cy_syslib.c **** * The function delays by the specified number of milliseconds.
  84:Generated_Source\PSoC6\pdl\drivers\peripheral\syslib/cy_syslib.c **** * By default, the number of cycles to delay is calculated based on the
  85:Generated_Source\PSoC6\pdl\drivers\peripheral\syslib/cy_syslib.c **** * \ref SystemCoreClock.
  86:Generated_Source\PSoC6\pdl\drivers\peripheral\syslib/cy_syslib.c **** *
  87:Generated_Source\PSoC6\pdl\drivers\peripheral\syslib/cy_syslib.c **** * \param milliseconds  The number of milliseconds to delay.
ARM GAS  C:\Users\kiwamu\AppData\Local\Temp\ccE2Z6Jb.s 			page 3


  88:Generated_Source\PSoC6\pdl\drivers\peripheral\syslib/cy_syslib.c **** *
  89:Generated_Source\PSoC6\pdl\drivers\peripheral\syslib/cy_syslib.c **** * \note The function calls \ref Cy_SysLib_DelayCycles() API to generate a delay.
  90:Generated_Source\PSoC6\pdl\drivers\peripheral\syslib/cy_syslib.c **** *       If the function parameter (milliseconds) is bigger than 
  91:Generated_Source\PSoC6\pdl\drivers\peripheral\syslib/cy_syslib.c **** *       CY_DELAY_MS_OVERFLOW constant, then an additional loop runs to prevent
  92:Generated_Source\PSoC6\pdl\drivers\peripheral\syslib/cy_syslib.c **** *       an overflow in parameter passed to \ref Cy_SysLib_DelayCycles() API.
  93:Generated_Source\PSoC6\pdl\drivers\peripheral\syslib/cy_syslib.c **** *
  94:Generated_Source\PSoC6\pdl\drivers\peripheral\syslib/cy_syslib.c **** *******************************************************************************/
  95:Generated_Source\PSoC6\pdl\drivers\peripheral\syslib/cy_syslib.c **** void Cy_SysLib_Delay(uint32_t milliseconds)
  96:Generated_Source\PSoC6\pdl\drivers\peripheral\syslib/cy_syslib.c **** {
  97:Generated_Source\PSoC6\pdl\drivers\peripheral\syslib/cy_syslib.c ****     while(milliseconds > CY_DELAY_MS_OVERFLOW)
  98:Generated_Source\PSoC6\pdl\drivers\peripheral\syslib/cy_syslib.c ****     {
  99:Generated_Source\PSoC6\pdl\drivers\peripheral\syslib/cy_syslib.c ****         /* This loop prevents an overflow in value passed to Cy_SysLib_DelayCycles() API.
 100:Generated_Source\PSoC6\pdl\drivers\peripheral\syslib/cy_syslib.c ****          * At 100 MHz, (milliseconds * cy_delayFreqKhz) product overflows
 101:Generated_Source\PSoC6\pdl\drivers\peripheral\syslib/cy_syslib.c ****          * in case if milliseconds parameter is more than 42 seconds.
 102:Generated_Source\PSoC6\pdl\drivers\peripheral\syslib/cy_syslib.c ****          */
 103:Generated_Source\PSoC6\pdl\drivers\peripheral\syslib/cy_syslib.c ****         Cy_SysLib_DelayCycles(cy_delay32kMs);
 104:Generated_Source\PSoC6\pdl\drivers\peripheral\syslib/cy_syslib.c ****         milliseconds -= CY_DELAY_MS_OVERFLOW;
 105:Generated_Source\PSoC6\pdl\drivers\peripheral\syslib/cy_syslib.c ****     }
 106:Generated_Source\PSoC6\pdl\drivers\peripheral\syslib/cy_syslib.c **** 
 107:Generated_Source\PSoC6\pdl\drivers\peripheral\syslib/cy_syslib.c ****     Cy_SysLib_DelayCycles(milliseconds * cy_delayFreqKhz);
 108:Generated_Source\PSoC6\pdl\drivers\peripheral\syslib/cy_syslib.c **** }
 109:Generated_Source\PSoC6\pdl\drivers\peripheral\syslib/cy_syslib.c **** 
 110:Generated_Source\PSoC6\pdl\drivers\peripheral\syslib/cy_syslib.c **** 
 111:Generated_Source\PSoC6\pdl\drivers\peripheral\syslib/cy_syslib.c **** /*******************************************************************************
 112:Generated_Source\PSoC6\pdl\drivers\peripheral\syslib/cy_syslib.c **** * Function Name: Cy_SysLib_DelayUs
 113:Generated_Source\PSoC6\pdl\drivers\peripheral\syslib/cy_syslib.c **** ****************************************************************************//**
 114:Generated_Source\PSoC6\pdl\drivers\peripheral\syslib/cy_syslib.c **** *
 115:Generated_Source\PSoC6\pdl\drivers\peripheral\syslib/cy_syslib.c **** * The function delays by the specified number of microseconds.
 116:Generated_Source\PSoC6\pdl\drivers\peripheral\syslib/cy_syslib.c **** * By default, the number of cycles to delay is calculated based on the
 117:Generated_Source\PSoC6\pdl\drivers\peripheral\syslib/cy_syslib.c **** * \ref SystemCoreClock.
 118:Generated_Source\PSoC6\pdl\drivers\peripheral\syslib/cy_syslib.c **** *
 119:Generated_Source\PSoC6\pdl\drivers\peripheral\syslib/cy_syslib.c **** * \param microseconds  The number of microseconds to delay.
 120:Generated_Source\PSoC6\pdl\drivers\peripheral\syslib/cy_syslib.c **** *
 121:Generated_Source\PSoC6\pdl\drivers\peripheral\syslib/cy_syslib.c **** * \note If the CPU frequency is a small non-integer number, the actual delay
 122:Generated_Source\PSoC6\pdl\drivers\peripheral\syslib/cy_syslib.c **** *       can be up to twice as long as the nominal value. The actual delay
 123:Generated_Source\PSoC6\pdl\drivers\peripheral\syslib/cy_syslib.c **** *       cannot be shorter than the nominal one.
 124:Generated_Source\PSoC6\pdl\drivers\peripheral\syslib/cy_syslib.c **** *
 125:Generated_Source\PSoC6\pdl\drivers\peripheral\syslib/cy_syslib.c **** *******************************************************************************/
 126:Generated_Source\PSoC6\pdl\drivers\peripheral\syslib/cy_syslib.c **** void Cy_SysLib_DelayUs(uint16_t microseconds)
 127:Generated_Source\PSoC6\pdl\drivers\peripheral\syslib/cy_syslib.c **** {
 128:Generated_Source\PSoC6\pdl\drivers\peripheral\syslib/cy_syslib.c ****     Cy_SysLib_DelayCycles((uint32_t) microseconds * cy_delayFreqMhz);
 129:Generated_Source\PSoC6\pdl\drivers\peripheral\syslib/cy_syslib.c **** }
 130:Generated_Source\PSoC6\pdl\drivers\peripheral\syslib/cy_syslib.c **** 
 131:Generated_Source\PSoC6\pdl\drivers\peripheral\syslib/cy_syslib.c **** 
 132:Generated_Source\PSoC6\pdl\drivers\peripheral\syslib/cy_syslib.c **** /*******************************************************************************
 133:Generated_Source\PSoC6\pdl\drivers\peripheral\syslib/cy_syslib.c **** * Function Name: Cy_SysLib_Halt
 134:Generated_Source\PSoC6\pdl\drivers\peripheral\syslib/cy_syslib.c **** ****************************************************************************//**
 135:Generated_Source\PSoC6\pdl\drivers\peripheral\syslib/cy_syslib.c **** *
 136:Generated_Source\PSoC6\pdl\drivers\peripheral\syslib/cy_syslib.c **** * This function halts the CPU but only the CPU which calls the function.
 137:Generated_Source\PSoC6\pdl\drivers\peripheral\syslib/cy_syslib.c **** * It doesn't affect other CPUs.
 138:Generated_Source\PSoC6\pdl\drivers\peripheral\syslib/cy_syslib.c **** *
 139:Generated_Source\PSoC6\pdl\drivers\peripheral\syslib/cy_syslib.c **** * \param reason  The value to be used during debugging.
 140:Generated_Source\PSoC6\pdl\drivers\peripheral\syslib/cy_syslib.c **** *
 141:Generated_Source\PSoC6\pdl\drivers\peripheral\syslib/cy_syslib.c **** * \note The function executes the BKPT instruction for halting CPU and is
 142:Generated_Source\PSoC6\pdl\drivers\peripheral\syslib/cy_syslib.c **** *       intended to be used for the debug purpose. A regular use case requires
 143:Generated_Source\PSoC6\pdl\drivers\peripheral\syslib/cy_syslib.c **** *       Debugger attachment before the function call.
 144:Generated_Source\PSoC6\pdl\drivers\peripheral\syslib/cy_syslib.c **** *       The BKPT instruction causes the CPU to enter the Debug state. Debug
ARM GAS  C:\Users\kiwamu\AppData\Local\Temp\ccE2Z6Jb.s 			page 4


 145:Generated_Source\PSoC6\pdl\drivers\peripheral\syslib/cy_syslib.c **** *       tools can use this to investigate the system state, when the
 146:Generated_Source\PSoC6\pdl\drivers\peripheral\syslib/cy_syslib.c **** *       instruction at a particular address is reached.
 147:Generated_Source\PSoC6\pdl\drivers\peripheral\syslib/cy_syslib.c **** *
 148:Generated_Source\PSoC6\pdl\drivers\peripheral\syslib/cy_syslib.c **** * \note Execution of a BKPT instruction without a debugger attached produces
 149:Generated_Source\PSoC6\pdl\drivers\peripheral\syslib/cy_syslib.c **** *       a fault. The fault results in the HardFault exception being taken
 150:Generated_Source\PSoC6\pdl\drivers\peripheral\syslib/cy_syslib.c **** *       or causes a Lockup state if it occurs in the NMI or HardFault handler.
 151:Generated_Source\PSoC6\pdl\drivers\peripheral\syslib/cy_syslib.c **** *       The default HardFault handler make a software reset if the build option
 152:Generated_Source\PSoC6\pdl\drivers\peripheral\syslib/cy_syslib.c **** *       is the release mode (NDEBUG). If the build option is the debug mode,
 153:Generated_Source\PSoC6\pdl\drivers\peripheral\syslib/cy_syslib.c **** *       the system will stay in the infinite loop of the
 154:Generated_Source\PSoC6\pdl\drivers\peripheral\syslib/cy_syslib.c **** *       \ref Cy_SysLib_ProcessingFault() function.
 155:Generated_Source\PSoC6\pdl\drivers\peripheral\syslib/cy_syslib.c **** *
 156:Generated_Source\PSoC6\pdl\drivers\peripheral\syslib/cy_syslib.c **** *******************************************************************************/
 157:Generated_Source\PSoC6\pdl\drivers\peripheral\syslib/cy_syslib.c **** __NO_RETURN void Cy_SysLib_Halt(uint32_t reason)
 158:Generated_Source\PSoC6\pdl\drivers\peripheral\syslib/cy_syslib.c **** {
 159:Generated_Source\PSoC6\pdl\drivers\peripheral\syslib/cy_syslib.c ****     if(0u != reason)
 160:Generated_Source\PSoC6\pdl\drivers\peripheral\syslib/cy_syslib.c ****     {
 161:Generated_Source\PSoC6\pdl\drivers\peripheral\syslib/cy_syslib.c ****         /* To remove an unreferenced local variable warning */
 162:Generated_Source\PSoC6\pdl\drivers\peripheral\syslib/cy_syslib.c ****     }
 163:Generated_Source\PSoC6\pdl\drivers\peripheral\syslib/cy_syslib.c **** 
 164:Generated_Source\PSoC6\pdl\drivers\peripheral\syslib/cy_syslib.c ****     #if defined (__ARMCC_VERSION)
 165:Generated_Source\PSoC6\pdl\drivers\peripheral\syslib/cy_syslib.c ****         __breakpoint(0x0);
 166:Generated_Source\PSoC6\pdl\drivers\peripheral\syslib/cy_syslib.c ****     #elif defined(__GNUC__)
 167:Generated_Source\PSoC6\pdl\drivers\peripheral\syslib/cy_syslib.c ****         __asm("    bkpt    1");
 168:Generated_Source\PSoC6\pdl\drivers\peripheral\syslib/cy_syslib.c ****     #elif defined (__ICCARM__)
 169:Generated_Source\PSoC6\pdl\drivers\peripheral\syslib/cy_syslib.c ****         __asm("    bkpt    1");
 170:Generated_Source\PSoC6\pdl\drivers\peripheral\syslib/cy_syslib.c ****     #else
 171:Generated_Source\PSoC6\pdl\drivers\peripheral\syslib/cy_syslib.c ****         #error "An unsupported toolchain"
 172:Generated_Source\PSoC6\pdl\drivers\peripheral\syslib/cy_syslib.c ****     #endif  /* (__ARMCC_VERSION) */
 173:Generated_Source\PSoC6\pdl\drivers\peripheral\syslib/cy_syslib.c **** 
 174:Generated_Source\PSoC6\pdl\drivers\peripheral\syslib/cy_syslib.c ****     while(1) {}
 175:Generated_Source\PSoC6\pdl\drivers\peripheral\syslib/cy_syslib.c **** }
 176:Generated_Source\PSoC6\pdl\drivers\peripheral\syslib/cy_syslib.c **** 
 177:Generated_Source\PSoC6\pdl\drivers\peripheral\syslib/cy_syslib.c **** 
 178:Generated_Source\PSoC6\pdl\drivers\peripheral\syslib/cy_syslib.c **** #if !defined(NDEBUG) || defined(CY_DOXYGEN)
 179:Generated_Source\PSoC6\pdl\drivers\peripheral\syslib/cy_syslib.c **** /*******************************************************************************
 180:Generated_Source\PSoC6\pdl\drivers\peripheral\syslib/cy_syslib.c **** * Macro Name: Cy_SysLib_AssertFailed
 181:Generated_Source\PSoC6\pdl\drivers\peripheral\syslib/cy_syslib.c **** ****************************************************************************//**
 182:Generated_Source\PSoC6\pdl\drivers\peripheral\syslib/cy_syslib.c **** *
 183:Generated_Source\PSoC6\pdl\drivers\peripheral\syslib/cy_syslib.c **** * This function stores the ASSERT location of the file name (including path
 184:Generated_Source\PSoC6\pdl\drivers\peripheral\syslib/cy_syslib.c **** * to file) and line number in a non-zero init area for debugging. Also it calls
 185:Generated_Source\PSoC6\pdl\drivers\peripheral\syslib/cy_syslib.c **** * the \ref Cy_SysLib_Halt() function to halt the processor.
 186:Generated_Source\PSoC6\pdl\drivers\peripheral\syslib/cy_syslib.c **** *
 187:Generated_Source\PSoC6\pdl\drivers\peripheral\syslib/cy_syslib.c **** * \param file  The file name of the ASSERT location.
 188:Generated_Source\PSoC6\pdl\drivers\peripheral\syslib/cy_syslib.c **** * \param line  The line number of the ASSERT location.
 189:Generated_Source\PSoC6\pdl\drivers\peripheral\syslib/cy_syslib.c **** *
 190:Generated_Source\PSoC6\pdl\drivers\peripheral\syslib/cy_syslib.c **** * \note A stored file name and line number could be accessed by
 191:Generated_Source\PSoC6\pdl\drivers\peripheral\syslib/cy_syslib.c **** *       cy_assertFileName and cy_assertLine global variables.
 192:Generated_Source\PSoC6\pdl\drivers\peripheral\syslib/cy_syslib.c **** * \note This function has the WEAK option, so the user can redefine
 193:Generated_Source\PSoC6\pdl\drivers\peripheral\syslib/cy_syslib.c **** *       the function for a custom processing.
 194:Generated_Source\PSoC6\pdl\drivers\peripheral\syslib/cy_syslib.c **** *
 195:Generated_Source\PSoC6\pdl\drivers\peripheral\syslib/cy_syslib.c **** *******************************************************************************/
 196:Generated_Source\PSoC6\pdl\drivers\peripheral\syslib/cy_syslib.c **** __WEAK void Cy_SysLib_AssertFailed(const char_t * file, uint32_t line)
 197:Generated_Source\PSoC6\pdl\drivers\peripheral\syslib/cy_syslib.c **** {
 198:Generated_Source\PSoC6\pdl\drivers\peripheral\syslib/cy_syslib.c ****     (void) strncpy(cy_assertFileName, file, CY_MAX_FILE_NAME_SIZE);
 199:Generated_Source\PSoC6\pdl\drivers\peripheral\syslib/cy_syslib.c ****     cy_assertLine = line;
 200:Generated_Source\PSoC6\pdl\drivers\peripheral\syslib/cy_syslib.c ****     Cy_SysLib_Halt(0UL);
 201:Generated_Source\PSoC6\pdl\drivers\peripheral\syslib/cy_syslib.c **** }
ARM GAS  C:\Users\kiwamu\AppData\Local\Temp\ccE2Z6Jb.s 			page 5


 202:Generated_Source\PSoC6\pdl\drivers\peripheral\syslib/cy_syslib.c **** #endif  /* !defined(NDEBUG) || defined(CY_DOXYGEN) */
 203:Generated_Source\PSoC6\pdl\drivers\peripheral\syslib/cy_syslib.c **** 
 204:Generated_Source\PSoC6\pdl\drivers\peripheral\syslib/cy_syslib.c **** 
 205:Generated_Source\PSoC6\pdl\drivers\peripheral\syslib/cy_syslib.c **** /*******************************************************************************
 206:Generated_Source\PSoC6\pdl\drivers\peripheral\syslib/cy_syslib.c **** * Function Name: Cy_SysLib_ClearFlashCacheAndBuffer
 207:Generated_Source\PSoC6\pdl\drivers\peripheral\syslib/cy_syslib.c **** ****************************************************************************//**
 208:Generated_Source\PSoC6\pdl\drivers\peripheral\syslib/cy_syslib.c **** *
 209:Generated_Source\PSoC6\pdl\drivers\peripheral\syslib/cy_syslib.c **** * This function invalidates the flash cache and buffer. It ensures the valid
 210:Generated_Source\PSoC6\pdl\drivers\peripheral\syslib/cy_syslib.c **** * data is read from flash instead of using outdated data from the cache.
 211:Generated_Source\PSoC6\pdl\drivers\peripheral\syslib/cy_syslib.c **** * The caches' LRU structure is also reset to their default state.
 212:Generated_Source\PSoC6\pdl\drivers\peripheral\syslib/cy_syslib.c **** *
 213:Generated_Source\PSoC6\pdl\drivers\peripheral\syslib/cy_syslib.c **** * \note The operation takes a maximum of three clock cycles on the slowest of
 214:Generated_Source\PSoC6\pdl\drivers\peripheral\syslib/cy_syslib.c **** *       the clk_slow and clk_fast clocks.
 215:Generated_Source\PSoC6\pdl\drivers\peripheral\syslib/cy_syslib.c **** *
 216:Generated_Source\PSoC6\pdl\drivers\peripheral\syslib/cy_syslib.c **** *******************************************************************************/
 217:Generated_Source\PSoC6\pdl\drivers\peripheral\syslib/cy_syslib.c **** void Cy_SysLib_ClearFlashCacheAndBuffer(void)
 218:Generated_Source\PSoC6\pdl\drivers\peripheral\syslib/cy_syslib.c **** {
 219:Generated_Source\PSoC6\pdl\drivers\peripheral\syslib/cy_syslib.c ****     FLASHC->FLASH_CMD = FLASHC_FLASH_CMD_INV_Msk;
 220:Generated_Source\PSoC6\pdl\drivers\peripheral\syslib/cy_syslib.c **** }
 221:Generated_Source\PSoC6\pdl\drivers\peripheral\syslib/cy_syslib.c **** 
 222:Generated_Source\PSoC6\pdl\drivers\peripheral\syslib/cy_syslib.c **** 
 223:Generated_Source\PSoC6\pdl\drivers\peripheral\syslib/cy_syslib.c **** /*******************************************************************************
 224:Generated_Source\PSoC6\pdl\drivers\peripheral\syslib/cy_syslib.c **** * Function Name: Cy_SysLib_ResetBackupDomain
 225:Generated_Source\PSoC6\pdl\drivers\peripheral\syslib/cy_syslib.c **** ****************************************************************************//**
 226:Generated_Source\PSoC6\pdl\drivers\peripheral\syslib/cy_syslib.c **** *
 227:Generated_Source\PSoC6\pdl\drivers\peripheral\syslib/cy_syslib.c **** * This function resets the backup domain power to avoid the ILO glitch. The
 228:Generated_Source\PSoC6\pdl\drivers\peripheral\syslib/cy_syslib.c **** * glitch can occur when the device is reset due to POR/BOD/XRES while
 229:Generated_Source\PSoC6\pdl\drivers\peripheral\syslib/cy_syslib.c **** * the backup voltage is supplied into the system.
 230:Generated_Source\PSoC6\pdl\drivers\peripheral\syslib/cy_syslib.c **** *
 231:Generated_Source\PSoC6\pdl\drivers\peripheral\syslib/cy_syslib.c **** * \note Writing 1 to BACKUP->RESET resets the backup logic. Hardware clears it
 232:Generated_Source\PSoC6\pdl\drivers\peripheral\syslib/cy_syslib.c **** *       when the reset is complete. After setting the register, this function
 233:Generated_Source\PSoC6\pdl\drivers\peripheral\syslib/cy_syslib.c **** *       reads the register immediately for returning the result of the backup
 234:Generated_Source\PSoC6\pdl\drivers\peripheral\syslib/cy_syslib.c **** *       domain reset state. The reading register is important because the Read
 235:Generated_Source\PSoC6\pdl\drivers\peripheral\syslib/cy_syslib.c **** *       itself takes multiple AHB clock cycles, and the reset is actually
 236:Generated_Source\PSoC6\pdl\drivers\peripheral\syslib/cy_syslib.c **** *       finishing during that time.
 237:Generated_Source\PSoC6\pdl\drivers\peripheral\syslib/cy_syslib.c **** *
 238:Generated_Source\PSoC6\pdl\drivers\peripheral\syslib/cy_syslib.c **** * \return CY_SYSLIB_SUCCESS, if BACKUP->RESET read-back is 0.
 239:Generated_Source\PSoC6\pdl\drivers\peripheral\syslib/cy_syslib.c **** *         Otherwise returns CY_SYSLIB_INVALID_STATE.
 240:Generated_Source\PSoC6\pdl\drivers\peripheral\syslib/cy_syslib.c **** *
 241:Generated_Source\PSoC6\pdl\drivers\peripheral\syslib/cy_syslib.c **** *******************************************************************************/
 242:Generated_Source\PSoC6\pdl\drivers\peripheral\syslib/cy_syslib.c **** cy_en_syslib_status_t Cy_SysLib_ResetBackupDomain(void)
 243:Generated_Source\PSoC6\pdl\drivers\peripheral\syslib/cy_syslib.c **** {
 244:Generated_Source\PSoC6\pdl\drivers\peripheral\syslib/cy_syslib.c ****     BACKUP->RESET = BACKUP_RESET_RESET_Msk;
 245:Generated_Source\PSoC6\pdl\drivers\peripheral\syslib/cy_syslib.c **** 
 246:Generated_Source\PSoC6\pdl\drivers\peripheral\syslib/cy_syslib.c ****     return ( ((BACKUP->RESET & BACKUP_RESET_RESET_Msk) == 0UL) ? CY_SYSLIB_SUCCESS : CY_SYSLIB_INVA
 247:Generated_Source\PSoC6\pdl\drivers\peripheral\syslib/cy_syslib.c **** }
 248:Generated_Source\PSoC6\pdl\drivers\peripheral\syslib/cy_syslib.c **** 
 249:Generated_Source\PSoC6\pdl\drivers\peripheral\syslib/cy_syslib.c **** 
 250:Generated_Source\PSoC6\pdl\drivers\peripheral\syslib/cy_syslib.c **** /*******************************************************************************
 251:Generated_Source\PSoC6\pdl\drivers\peripheral\syslib/cy_syslib.c **** * Function Name: Cy_SysLib_GetResetReason
 252:Generated_Source\PSoC6\pdl\drivers\peripheral\syslib/cy_syslib.c **** ****************************************************************************//**
 253:Generated_Source\PSoC6\pdl\drivers\peripheral\syslib/cy_syslib.c **** *
 254:Generated_Source\PSoC6\pdl\drivers\peripheral\syslib/cy_syslib.c **** * The function returns the cause for the latest reset(s) that occurred in
 255:Generated_Source\PSoC6\pdl\drivers\peripheral\syslib/cy_syslib.c **** * the system. The reset causes include an HFCLK error, system faults, and
 256:Generated_Source\PSoC6\pdl\drivers\peripheral\syslib/cy_syslib.c **** * device reset on a wakeup from Hibernate mode.
 257:Generated_Source\PSoC6\pdl\drivers\peripheral\syslib/cy_syslib.c **** * The return results are consolidated reset causes from reading RES_CAUSE,
 258:Generated_Source\PSoC6\pdl\drivers\peripheral\syslib/cy_syslib.c **** * RES_CAUSE2 and PWR_HIBERNATE token registers.
ARM GAS  C:\Users\kiwamu\AppData\Local\Temp\ccE2Z6Jb.s 			page 6


 259:Generated_Source\PSoC6\pdl\drivers\peripheral\syslib/cy_syslib.c **** *
 260:Generated_Source\PSoC6\pdl\drivers\peripheral\syslib/cy_syslib.c **** * \return The cause of a system reset.
 261:Generated_Source\PSoC6\pdl\drivers\peripheral\syslib/cy_syslib.c **** *
 262:Generated_Source\PSoC6\pdl\drivers\peripheral\syslib/cy_syslib.c **** * | Name                          | Value
 263:Generated_Source\PSoC6\pdl\drivers\peripheral\syslib/cy_syslib.c **** * |-------------------------------|---------------------
 264:Generated_Source\PSoC6\pdl\drivers\peripheral\syslib/cy_syslib.c **** * | CY_SYSLIB_RESET_HWWDT         | 0x00001 (bit0)
 265:Generated_Source\PSoC6\pdl\drivers\peripheral\syslib/cy_syslib.c **** * | CY_SYSLIB_RESET_ACT_FAULT     | 0x00002 (bit1)
 266:Generated_Source\PSoC6\pdl\drivers\peripheral\syslib/cy_syslib.c **** * | CY_SYSLIB_RESET_DPSLP_FAULT   | 0x00004 (bit2)
 267:Generated_Source\PSoC6\pdl\drivers\peripheral\syslib/cy_syslib.c **** * | CY_SYSLIB_RESET_CSV_WCO_LOSS  | 0x00008 (bit3)
 268:Generated_Source\PSoC6\pdl\drivers\peripheral\syslib/cy_syslib.c **** * | CY_SYSLIB_RESET_SOFT          | 0x00010 (bit4)
 269:Generated_Source\PSoC6\pdl\drivers\peripheral\syslib/cy_syslib.c **** * | CY_SYSLIB_RESET_SWWDT0        | 0x00020 (bit5)
 270:Generated_Source\PSoC6\pdl\drivers\peripheral\syslib/cy_syslib.c **** * | CY_SYSLIB_RESET_SWWDT1        | 0x00040 (bit6)
 271:Generated_Source\PSoC6\pdl\drivers\peripheral\syslib/cy_syslib.c **** * | CY_SYSLIB_RESET_SWWDT2        | 0x00080 (bit7)
 272:Generated_Source\PSoC6\pdl\drivers\peripheral\syslib/cy_syslib.c **** * | CY_SYSLIB_RESET_SWWDT3        | 0x00100 (bit8)
 273:Generated_Source\PSoC6\pdl\drivers\peripheral\syslib/cy_syslib.c **** * | CY_SYSLIB_RESET_HFCLK_LOSS    | 0x10000 (bit16)
 274:Generated_Source\PSoC6\pdl\drivers\peripheral\syslib/cy_syslib.c **** * | CY_SYSLIB_RESET_HFCLK_ERR     | 0x20000 (bit17)
 275:Generated_Source\PSoC6\pdl\drivers\peripheral\syslib/cy_syslib.c **** * | CY_SYSLIB_RESET_HIB_WAKEUP    | 0x40000 (bit18)
 276:Generated_Source\PSoC6\pdl\drivers\peripheral\syslib/cy_syslib.c **** *
 277:Generated_Source\PSoC6\pdl\drivers\peripheral\syslib/cy_syslib.c **** * \note CY_SYSLIB_RESET_CSV_WCO_LOSS, CY_SYSLIB_RESET_HFCLK_LOSS and
 278:Generated_Source\PSoC6\pdl\drivers\peripheral\syslib/cy_syslib.c **** *       CY_SYSLIB_RESET_HFCLK_ERR causes of a system reset available only if
 279:Generated_Source\PSoC6\pdl\drivers\peripheral\syslib/cy_syslib.c **** *       WCO CSV present in the device.
 280:Generated_Source\PSoC6\pdl\drivers\peripheral\syslib/cy_syslib.c **** *
 281:Generated_Source\PSoC6\pdl\drivers\peripheral\syslib/cy_syslib.c **** *******************************************************************************/
 282:Generated_Source\PSoC6\pdl\drivers\peripheral\syslib/cy_syslib.c **** uint32_t Cy_SysLib_GetResetReason(void)
 283:Generated_Source\PSoC6\pdl\drivers\peripheral\syslib/cy_syslib.c **** {
 284:Generated_Source\PSoC6\pdl\drivers\peripheral\syslib/cy_syslib.c ****     uint32_t retVal;
 285:Generated_Source\PSoC6\pdl\drivers\peripheral\syslib/cy_syslib.c **** 
 286:Generated_Source\PSoC6\pdl\drivers\peripheral\syslib/cy_syslib.c ****     retVal = SRSS->RES_CAUSE;
 287:Generated_Source\PSoC6\pdl\drivers\peripheral\syslib/cy_syslib.c **** 
 288:Generated_Source\PSoC6\pdl\drivers\peripheral\syslib/cy_syslib.c **** #if (SRSS_WCOCSV_PRESENT != 0u)
 289:Generated_Source\PSoC6\pdl\drivers\peripheral\syslib/cy_syslib.c ****     retVal |= ((CY_LO16(SRSS->RES_CAUSE2) > 0u) ? CY_SYSLIB_RESET_HFCLK_LOSS : 0u) |
 290:Generated_Source\PSoC6\pdl\drivers\peripheral\syslib/cy_syslib.c ****               ((CY_HI16(SRSS->RES_CAUSE2) > 0u) ? CY_SYSLIB_RESET_HFCLK_ERR  : 0u);
 291:Generated_Source\PSoC6\pdl\drivers\peripheral\syslib/cy_syslib.c **** #endif /* (SRSS_WCOCSV_PRESENT != 0u) */
 292:Generated_Source\PSoC6\pdl\drivers\peripheral\syslib/cy_syslib.c **** 
 293:Generated_Source\PSoC6\pdl\drivers\peripheral\syslib/cy_syslib.c ****     if(0u != _FLD2VAL(SRSS_PWR_HIBERNATE_TOKEN, SRSS->PWR_HIBERNATE))
 294:Generated_Source\PSoC6\pdl\drivers\peripheral\syslib/cy_syslib.c ****     {
 295:Generated_Source\PSoC6\pdl\drivers\peripheral\syslib/cy_syslib.c ****         retVal |= CY_SYSLIB_RESET_HIB_WAKEUP;
 296:Generated_Source\PSoC6\pdl\drivers\peripheral\syslib/cy_syslib.c ****     }
 297:Generated_Source\PSoC6\pdl\drivers\peripheral\syslib/cy_syslib.c **** 
 298:Generated_Source\PSoC6\pdl\drivers\peripheral\syslib/cy_syslib.c ****     return (retVal);
 299:Generated_Source\PSoC6\pdl\drivers\peripheral\syslib/cy_syslib.c **** }
 300:Generated_Source\PSoC6\pdl\drivers\peripheral\syslib/cy_syslib.c **** 
 301:Generated_Source\PSoC6\pdl\drivers\peripheral\syslib/cy_syslib.c **** 
 302:Generated_Source\PSoC6\pdl\drivers\peripheral\syslib/cy_syslib.c **** #if (SRSS_WCOCSV_PRESENT != 0u) || defined(CY_DOXYGEN)
 303:Generated_Source\PSoC6\pdl\drivers\peripheral\syslib/cy_syslib.c **** /*******************************************************************************
 304:Generated_Source\PSoC6\pdl\drivers\peripheral\syslib/cy_syslib.c **** * Function Name: Cy_SysLib_GetNumHfclkResetCause
 305:Generated_Source\PSoC6\pdl\drivers\peripheral\syslib/cy_syslib.c **** ****************************************************************************//**
 306:Generated_Source\PSoC6\pdl\drivers\peripheral\syslib/cy_syslib.c **** *
 307:Generated_Source\PSoC6\pdl\drivers\peripheral\syslib/cy_syslib.c **** * This function returns the number of HF_CLK which is a reset cause (RES_CAUSE2)
 308:Generated_Source\PSoC6\pdl\drivers\peripheral\syslib/cy_syslib.c **** * by a loss or an error of the high frequency clock.
 309:Generated_Source\PSoC6\pdl\drivers\peripheral\syslib/cy_syslib.c **** *
 310:Generated_Source\PSoC6\pdl\drivers\peripheral\syslib/cy_syslib.c **** * The Clock supervisors (CSV) can make a reset as CSV_FREQ_ACTION setting
 311:Generated_Source\PSoC6\pdl\drivers\peripheral\syslib/cy_syslib.c **** * when a CSV frequency anomaly is detected. The function returns the index
 312:Generated_Source\PSoC6\pdl\drivers\peripheral\syslib/cy_syslib.c **** * of HF_CLK, if a reset occurred due to an anomaly HF_CLK. There are two
 313:Generated_Source\PSoC6\pdl\drivers\peripheral\syslib/cy_syslib.c **** * different options for monitoring on HF_CLK which are a frequency loss
 314:Generated_Source\PSoC6\pdl\drivers\peripheral\syslib/cy_syslib.c **** * and a frequency error.
 315:Generated_Source\PSoC6\pdl\drivers\peripheral\syslib/cy_syslib.c **** *
ARM GAS  C:\Users\kiwamu\AppData\Local\Temp\ccE2Z6Jb.s 			page 7


 316:Generated_Source\PSoC6\pdl\drivers\peripheral\syslib/cy_syslib.c **** * \return
 317:Generated_Source\PSoC6\pdl\drivers\peripheral\syslib/cy_syslib.c **** *   - The number HF_CLK from Clock Supervisor High Frequency Loss:  Bits[15:0]
 318:Generated_Source\PSoC6\pdl\drivers\peripheral\syslib/cy_syslib.c **** *   - The number HF_CLK from Clock Supervisor High Frequency error: Bits[31:16]
 319:Generated_Source\PSoC6\pdl\drivers\peripheral\syslib/cy_syslib.c **** *
 320:Generated_Source\PSoC6\pdl\drivers\peripheral\syslib/cy_syslib.c **** *******************************************************************************/
 321:Generated_Source\PSoC6\pdl\drivers\peripheral\syslib/cy_syslib.c **** uint32_t Cy_SysLib_GetNumHfclkResetCause(void)
 322:Generated_Source\PSoC6\pdl\drivers\peripheral\syslib/cy_syslib.c **** {
 323:Generated_Source\PSoC6\pdl\drivers\peripheral\syslib/cy_syslib.c ****     return (SRSS->RES_CAUSE2);
 324:Generated_Source\PSoC6\pdl\drivers\peripheral\syslib/cy_syslib.c **** }
 325:Generated_Source\PSoC6\pdl\drivers\peripheral\syslib/cy_syslib.c **** #endif /* (SRSS_WCOCSV_PRESENT != 0u) || defined(CY_DOXYGEN) */
 326:Generated_Source\PSoC6\pdl\drivers\peripheral\syslib/cy_syslib.c **** 
 327:Generated_Source\PSoC6\pdl\drivers\peripheral\syslib/cy_syslib.c **** 
 328:Generated_Source\PSoC6\pdl\drivers\peripheral\syslib/cy_syslib.c **** /*******************************************************************************
 329:Generated_Source\PSoC6\pdl\drivers\peripheral\syslib/cy_syslib.c **** * Function Name: Cy_SysLib_ClearResetReason
 330:Generated_Source\PSoC6\pdl\drivers\peripheral\syslib/cy_syslib.c **** ****************************************************************************//**
 331:Generated_Source\PSoC6\pdl\drivers\peripheral\syslib/cy_syslib.c **** *
 332:Generated_Source\PSoC6\pdl\drivers\peripheral\syslib/cy_syslib.c **** * This function clears the values of RES_CAUSE and RES_CAUSE2. Also it clears
 333:Generated_Source\PSoC6\pdl\drivers\peripheral\syslib/cy_syslib.c **** * PWR_HIBERNATE token, which indicates reset event on waking up from HIBERNATE.
 334:Generated_Source\PSoC6\pdl\drivers\peripheral\syslib/cy_syslib.c **** *
 335:Generated_Source\PSoC6\pdl\drivers\peripheral\syslib/cy_syslib.c **** *******************************************************************************/
 336:Generated_Source\PSoC6\pdl\drivers\peripheral\syslib/cy_syslib.c **** void Cy_SysLib_ClearResetReason(void)
 337:Generated_Source\PSoC6\pdl\drivers\peripheral\syslib/cy_syslib.c **** {
 338:Generated_Source\PSoC6\pdl\drivers\peripheral\syslib/cy_syslib.c ****     /* RES_CAUSE and RES_CAUSE2 register's bits are RW1C (every bit is cleared upon writing 1),
 339:Generated_Source\PSoC6\pdl\drivers\peripheral\syslib/cy_syslib.c ****      * so write all ones to clear all the reset reasons.
 340:Generated_Source\PSoC6\pdl\drivers\peripheral\syslib/cy_syslib.c ****      */
 341:Generated_Source\PSoC6\pdl\drivers\peripheral\syslib/cy_syslib.c ****     SRSS->RES_CAUSE  = 0xFFFFFFFFu;
 342:Generated_Source\PSoC6\pdl\drivers\peripheral\syslib/cy_syslib.c ****     SRSS->RES_CAUSE2 = 0xFFFFFFFFu;
 343:Generated_Source\PSoC6\pdl\drivers\peripheral\syslib/cy_syslib.c ****     
 344:Generated_Source\PSoC6\pdl\drivers\peripheral\syslib/cy_syslib.c ****     if(0u != _FLD2VAL(SRSS_PWR_HIBERNATE_TOKEN, SRSS->PWR_HIBERNATE))
 345:Generated_Source\PSoC6\pdl\drivers\peripheral\syslib/cy_syslib.c ****     {
 346:Generated_Source\PSoC6\pdl\drivers\peripheral\syslib/cy_syslib.c ****         /* Clears PWR_HIBERNATE token */
 347:Generated_Source\PSoC6\pdl\drivers\peripheral\syslib/cy_syslib.c ****         SRSS->PWR_HIBERNATE &= ~SRSS_PWR_HIBERNATE_TOKEN_Msk;
 348:Generated_Source\PSoC6\pdl\drivers\peripheral\syslib/cy_syslib.c ****     }
 349:Generated_Source\PSoC6\pdl\drivers\peripheral\syslib/cy_syslib.c **** }
 350:Generated_Source\PSoC6\pdl\drivers\peripheral\syslib/cy_syslib.c **** 
 351:Generated_Source\PSoC6\pdl\drivers\peripheral\syslib/cy_syslib.c **** 
 352:Generated_Source\PSoC6\pdl\drivers\peripheral\syslib/cy_syslib.c **** #if (CY_CPU_CORTEX_M0P) || defined(CY_DOXYGEN)
 353:Generated_Source\PSoC6\pdl\drivers\peripheral\syslib/cy_syslib.c **** /*******************************************************************************
 354:Generated_Source\PSoC6\pdl\drivers\peripheral\syslib/cy_syslib.c **** * Function Name: Cy_SysLib_SoftResetCM4
 355:Generated_Source\PSoC6\pdl\drivers\peripheral\syslib/cy_syslib.c **** ****************************************************************************//**
 356:Generated_Source\PSoC6\pdl\drivers\peripheral\syslib/cy_syslib.c **** *
 357:Generated_Source\PSoC6\pdl\drivers\peripheral\syslib/cy_syslib.c **** * This function performs a CM4 Core software reset using the CM4_PWR_CTL
 358:Generated_Source\PSoC6\pdl\drivers\peripheral\syslib/cy_syslib.c **** * register. The register is accessed by CM0 Core by using a command transferred
 359:Generated_Source\PSoC6\pdl\drivers\peripheral\syslib/cy_syslib.c **** * to SROM API through the IPC channel. When the command is sent, the API waits
 360:Generated_Source\PSoC6\pdl\drivers\peripheral\syslib/cy_syslib.c **** * for the IPC channel release.
 361:Generated_Source\PSoC6\pdl\drivers\peripheral\syslib/cy_syslib.c **** *
 362:Generated_Source\PSoC6\pdl\drivers\peripheral\syslib/cy_syslib.c **** * \note This function should be called only when the CM4 core is in Deep
 363:Generated_Source\PSoC6\pdl\drivers\peripheral\syslib/cy_syslib.c **** *       Sleep mode.
 364:Generated_Source\PSoC6\pdl\drivers\peripheral\syslib/cy_syslib.c **** * \note This function will not reset CM0+ Core.
 365:Generated_Source\PSoC6\pdl\drivers\peripheral\syslib/cy_syslib.c **** * \note This function waits for an IPC channel release state.
 366:Generated_Source\PSoC6\pdl\drivers\peripheral\syslib/cy_syslib.c **** *
 367:Generated_Source\PSoC6\pdl\drivers\peripheral\syslib/cy_syslib.c **** *******************************************************************************/
 368:Generated_Source\PSoC6\pdl\drivers\peripheral\syslib/cy_syslib.c **** void Cy_SysLib_SoftResetCM4(void)
 369:Generated_Source\PSoC6\pdl\drivers\peripheral\syslib/cy_syslib.c **** {
 370:Generated_Source\PSoC6\pdl\drivers\peripheral\syslib/cy_syslib.c ****     volatile uint32_t msg = CY_IPC_DATA_FOR_CM4_SOFT_RESET;
 371:Generated_Source\PSoC6\pdl\drivers\peripheral\syslib/cy_syslib.c **** 
 372:Generated_Source\PSoC6\pdl\drivers\peripheral\syslib/cy_syslib.c ****     /* Tries to acquire the IPC structure and pass the arguments to SROM API.
ARM GAS  C:\Users\kiwamu\AppData\Local\Temp\ccE2Z6Jb.s 			page 8


 373:Generated_Source\PSoC6\pdl\drivers\peripheral\syslib/cy_syslib.c ****     *  SROM API parameters:
 374:Generated_Source\PSoC6\pdl\drivers\peripheral\syslib/cy_syslib.c ****     *   ipcPtr: IPC_STRUCT0 - IPC Structure 0 reserved for M0+ Secure Access.
 375:Generated_Source\PSoC6\pdl\drivers\peripheral\syslib/cy_syslib.c ****     *   notifyEvent_Intr: 1u - IPC Interrupt Structure 1 is used for Releasing IPC 0 (M0+ NMI Handl
 376:Generated_Source\PSoC6\pdl\drivers\peripheral\syslib/cy_syslib.c ****     *   msgPtr: &msg - The address of SRAM with the API's parameters.
 377:Generated_Source\PSoC6\pdl\drivers\peripheral\syslib/cy_syslib.c ****     */
 378:Generated_Source\PSoC6\pdl\drivers\peripheral\syslib/cy_syslib.c ****     if(CY_IPC_DRV_SUCCESS != Cy_IPC_Drv_SendMsgPtr(IPC_STRUCT0, 1u, (void *) &msg))
 379:Generated_Source\PSoC6\pdl\drivers\peripheral\syslib/cy_syslib.c ****     {
 380:Generated_Source\PSoC6\pdl\drivers\peripheral\syslib/cy_syslib.c ****         CY_ASSERT(0u != 0u);
 381:Generated_Source\PSoC6\pdl\drivers\peripheral\syslib/cy_syslib.c ****     }
 382:Generated_Source\PSoC6\pdl\drivers\peripheral\syslib/cy_syslib.c **** 
 383:Generated_Source\PSoC6\pdl\drivers\peripheral\syslib/cy_syslib.c ****     while(Cy_IPC_Drv_IsLockAcquired(IPC_STRUCT0))
 384:Generated_Source\PSoC6\pdl\drivers\peripheral\syslib/cy_syslib.c ****     {
 385:Generated_Source\PSoC6\pdl\drivers\peripheral\syslib/cy_syslib.c ****         /* Waits until SROM API runs the command (sent over the IPC channel) and releases the IPC_S
 386:Generated_Source\PSoC6\pdl\drivers\peripheral\syslib/cy_syslib.c ****     }
 387:Generated_Source\PSoC6\pdl\drivers\peripheral\syslib/cy_syslib.c **** }
 388:Generated_Source\PSoC6\pdl\drivers\peripheral\syslib/cy_syslib.c **** #endif /* CY_CPU_CORTEX_M0P || defined(CY_DOXYGEN) */
 389:Generated_Source\PSoC6\pdl\drivers\peripheral\syslib/cy_syslib.c **** 
 390:Generated_Source\PSoC6\pdl\drivers\peripheral\syslib/cy_syslib.c **** 
 391:Generated_Source\PSoC6\pdl\drivers\peripheral\syslib/cy_syslib.c **** /*******************************************************************************
 392:Generated_Source\PSoC6\pdl\drivers\peripheral\syslib/cy_syslib.c **** * Function Name: Cy_SysLib_GetUniqueId
 393:Generated_Source\PSoC6\pdl\drivers\peripheral\syslib/cy_syslib.c **** ****************************************************************************//**
 394:Generated_Source\PSoC6\pdl\drivers\peripheral\syslib/cy_syslib.c **** *
 395:Generated_Source\PSoC6\pdl\drivers\peripheral\syslib/cy_syslib.c **** * This function returns the silicon unique ID.
 396:Generated_Source\PSoC6\pdl\drivers\peripheral\syslib/cy_syslib.c **** * The ID includes Die lot[3]#, Die Wafer#, Die X, Die Y, Die Sort#, Die Minor
 397:Generated_Source\PSoC6\pdl\drivers\peripheral\syslib/cy_syslib.c **** * and Die Year.
 398:Generated_Source\PSoC6\pdl\drivers\peripheral\syslib/cy_syslib.c **** *
 399:Generated_Source\PSoC6\pdl\drivers\peripheral\syslib/cy_syslib.c **** * \return  A combined 64-bit unique ID.
 400:Generated_Source\PSoC6\pdl\drivers\peripheral\syslib/cy_syslib.c **** *          [63:57] - DIE_YEAR
 401:Generated_Source\PSoC6\pdl\drivers\peripheral\syslib/cy_syslib.c **** *          [56:56] - DIE_MINOR
 402:Generated_Source\PSoC6\pdl\drivers\peripheral\syslib/cy_syslib.c **** *          [55:48] - DIE_SORT
 403:Generated_Source\PSoC6\pdl\drivers\peripheral\syslib/cy_syslib.c **** *          [47:40] - DIE_Y
 404:Generated_Source\PSoC6\pdl\drivers\peripheral\syslib/cy_syslib.c **** *          [39:32] - DIE_X
 405:Generated_Source\PSoC6\pdl\drivers\peripheral\syslib/cy_syslib.c **** *          [31:24] - DIE_WAFER
 406:Generated_Source\PSoC6\pdl\drivers\peripheral\syslib/cy_syslib.c **** *          [23:16] - DIE_LOT[2]
 407:Generated_Source\PSoC6\pdl\drivers\peripheral\syslib/cy_syslib.c **** *          [15: 8] - DIE_LOT[1]
 408:Generated_Source\PSoC6\pdl\drivers\peripheral\syslib/cy_syslib.c **** *          [ 7: 0] - DIE_LOT[0]
 409:Generated_Source\PSoC6\pdl\drivers\peripheral\syslib/cy_syslib.c **** *
 410:Generated_Source\PSoC6\pdl\drivers\peripheral\syslib/cy_syslib.c **** *******************************************************************************/
 411:Generated_Source\PSoC6\pdl\drivers\peripheral\syslib/cy_syslib.c **** uint64_t Cy_SysLib_GetUniqueId(void)
 412:Generated_Source\PSoC6\pdl\drivers\peripheral\syslib/cy_syslib.c **** {
 413:Generated_Source\PSoC6\pdl\drivers\peripheral\syslib/cy_syslib.c ****     uint64_t uniqueId;
 414:Generated_Source\PSoC6\pdl\drivers\peripheral\syslib/cy_syslib.c **** 
 415:Generated_Source\PSoC6\pdl\drivers\peripheral\syslib/cy_syslib.c ****     uniqueId = ((uint64_t)SFLASH->DIE_YEAR         << CY_UNIQUE_ID_DIE_YEAR_Pos)  |
 416:Generated_Source\PSoC6\pdl\drivers\peripheral\syslib/cy_syslib.c ****                (((uint64_t)SFLASH->DIE_MINOR & 1u) << CY_UNIQUE_ID_DIE_MINOR_Pos) |
 417:Generated_Source\PSoC6\pdl\drivers\peripheral\syslib/cy_syslib.c ****                ((uint64_t)SFLASH->DIE_SORT         << CY_UNIQUE_ID_DIE_SORT_Pos)  |
 418:Generated_Source\PSoC6\pdl\drivers\peripheral\syslib/cy_syslib.c ****                ((uint64_t)SFLASH->DIE_Y            << CY_UNIQUE_ID_DIE_Y_Pos)     |
 419:Generated_Source\PSoC6\pdl\drivers\peripheral\syslib/cy_syslib.c ****                ((uint64_t)SFLASH->DIE_X            << CY_UNIQUE_ID_DIE_X_Pos)     |
 420:Generated_Source\PSoC6\pdl\drivers\peripheral\syslib/cy_syslib.c ****                ((uint64_t)SFLASH->DIE_WAFER        << CY_UNIQUE_ID_DIE_WAFER_Pos) |
 421:Generated_Source\PSoC6\pdl\drivers\peripheral\syslib/cy_syslib.c ****                ((uint64_t)SFLASH->DIE_LOT[2u]      << CY_UNIQUE_ID_DIE_LOT_2_Pos) |
 422:Generated_Source\PSoC6\pdl\drivers\peripheral\syslib/cy_syslib.c ****                ((uint64_t)SFLASH->DIE_LOT[1u]      << CY_UNIQUE_ID_DIE_LOT_1_Pos) |
 423:Generated_Source\PSoC6\pdl\drivers\peripheral\syslib/cy_syslib.c ****                ((uint64_t)SFLASH->DIE_LOT[0u]      << CY_UNIQUE_ID_DIE_LOT_0_Pos);
 424:Generated_Source\PSoC6\pdl\drivers\peripheral\syslib/cy_syslib.c **** 
 425:Generated_Source\PSoC6\pdl\drivers\peripheral\syslib/cy_syslib.c ****     return (uniqueId);
 426:Generated_Source\PSoC6\pdl\drivers\peripheral\syslib/cy_syslib.c **** }
 427:Generated_Source\PSoC6\pdl\drivers\peripheral\syslib/cy_syslib.c **** 
 428:Generated_Source\PSoC6\pdl\drivers\peripheral\syslib/cy_syslib.c **** 
 429:Generated_Source\PSoC6\pdl\drivers\peripheral\syslib/cy_syslib.c **** #if (CY_ARM_FAULT_DEBUG == CY_ARM_FAULT_DEBUG_ENABLED) || defined(CY_DOXYGEN)
ARM GAS  C:\Users\kiwamu\AppData\Local\Temp\ccE2Z6Jb.s 			page 9


 430:Generated_Source\PSoC6\pdl\drivers\peripheral\syslib/cy_syslib.c **** /*******************************************************************************
 431:Generated_Source\PSoC6\pdl\drivers\peripheral\syslib/cy_syslib.c **** * Function Name: Cy_SysLib_FaultHandler
 432:Generated_Source\PSoC6\pdl\drivers\peripheral\syslib/cy_syslib.c **** ****************************************************************************//**
 433:Generated_Source\PSoC6\pdl\drivers\peripheral\syslib/cy_syslib.c **** *
 434:Generated_Source\PSoC6\pdl\drivers\peripheral\syslib/cy_syslib.c **** * This function stores the ARM Cortex registers into a non-zero init area for
 435:Generated_Source\PSoC6\pdl\drivers\peripheral\syslib/cy_syslib.c **** * debugging. This function calls Cy_SysLib_ProcessingFault() after storing all
 436:Generated_Source\PSoC6\pdl\drivers\peripheral\syslib/cy_syslib.c **** * information.
 437:Generated_Source\PSoC6\pdl\drivers\peripheral\syslib/cy_syslib.c **** *
 438:Generated_Source\PSoC6\pdl\drivers\peripheral\syslib/cy_syslib.c **** * \param faultStackAddr The address of the stack pointer, indicates the lowest
 439:Generated_Source\PSoC6\pdl\drivers\peripheral\syslib/cy_syslib.c **** *                       address in the fault stack frame to be stored.
 440:Generated_Source\PSoC6\pdl\drivers\peripheral\syslib/cy_syslib.c **** * \note This function stores the fault stack frame only for the first occurred
 441:Generated_Source\PSoC6\pdl\drivers\peripheral\syslib/cy_syslib.c **** *       fault.
 442:Generated_Source\PSoC6\pdl\drivers\peripheral\syslib/cy_syslib.c **** * \note This function sets two flags into the fault structure: one flag checks
 443:Generated_Source\PSoC6\pdl\drivers\peripheral\syslib/cy_syslib.c **** *       which core caused the fault, another checks the type of the fault for
 444:Generated_Source\PSoC6\pdl\drivers\peripheral\syslib/cy_syslib.c **** *       the CM4 core. The flags should be cleared after analysis of the stored
 445:Generated_Source\PSoC6\pdl\drivers\peripheral\syslib/cy_syslib.c **** *       register values, to have a possibility to distinguish the next fault.
 446:Generated_Source\PSoC6\pdl\drivers\peripheral\syslib/cy_syslib.c **** * \note The PDL doesn't provide an API to analyse the stored register
 447:Generated_Source\PSoC6\pdl\drivers\peripheral\syslib/cy_syslib.c **** *       values. The user has to add additional functions for the analysis,
 448:Generated_Source\PSoC6\pdl\drivers\peripheral\syslib/cy_syslib.c **** *       if necessary.
 449:Generated_Source\PSoC6\pdl\drivers\peripheral\syslib/cy_syslib.c **** * \note The CY_ARM_FAULT_DEBUG macro defines if the Fault Handler is enabled.
 450:Generated_Source\PSoC6\pdl\drivers\peripheral\syslib/cy_syslib.c **** *       By default it is set to CY_ARM_FAULT_DEBUG_ENABLED and enables the
 451:Generated_Source\PSoC6\pdl\drivers\peripheral\syslib/cy_syslib.c **** *       Fault Handler.
 452:Generated_Source\PSoC6\pdl\drivers\peripheral\syslib/cy_syslib.c **** *       If there is a necessity to save memory or have some specific custom
 453:Generated_Source\PSoC6\pdl\drivers\peripheral\syslib/cy_syslib.c **** *       handler, etc. then CY_ARM_FAULT_DEBUG should be redefined as
 454:Generated_Source\PSoC6\pdl\drivers\peripheral\syslib/cy_syslib.c **** *       CY_ARM_FAULT_DEBUG_DISABLED. To do this, the following definition should
 455:Generated_Source\PSoC6\pdl\drivers\peripheral\syslib/cy_syslib.c **** *       be added to the compiler Command Line (through the project Build
 456:Generated_Source\PSoC6\pdl\drivers\peripheral\syslib/cy_syslib.c **** *       Settings): "-D CY_ARM_FAULT_DEBUG=0".
 457:Generated_Source\PSoC6\pdl\drivers\peripheral\syslib/cy_syslib.c **** *
 458:Generated_Source\PSoC6\pdl\drivers\peripheral\syslib/cy_syslib.c **** *******************************************************************************/
 459:Generated_Source\PSoC6\pdl\drivers\peripheral\syslib/cy_syslib.c **** void Cy_SysLib_FaultHandler(uint32_t const *faultStackAddr)
 460:Generated_Source\PSoC6\pdl\drivers\peripheral\syslib/cy_syslib.c **** {
 461:Generated_Source\PSoC6\pdl\drivers\peripheral\syslib/cy_syslib.c ****     /* Stores general registers */
 462:Generated_Source\PSoC6\pdl\drivers\peripheral\syslib/cy_syslib.c ****     cy_faultFrame.r0  = faultStackAddr[CY_R0_Pos];
 463:Generated_Source\PSoC6\pdl\drivers\peripheral\syslib/cy_syslib.c ****     cy_faultFrame.r1  = faultStackAddr[CY_R1_Pos];
 464:Generated_Source\PSoC6\pdl\drivers\peripheral\syslib/cy_syslib.c ****     cy_faultFrame.r2  = faultStackAddr[CY_R2_Pos];
 465:Generated_Source\PSoC6\pdl\drivers\peripheral\syslib/cy_syslib.c ****     cy_faultFrame.r3  = faultStackAddr[CY_R3_Pos];
 466:Generated_Source\PSoC6\pdl\drivers\peripheral\syslib/cy_syslib.c ****     cy_faultFrame.r12 = faultStackAddr[CY_R12_Pos];
 467:Generated_Source\PSoC6\pdl\drivers\peripheral\syslib/cy_syslib.c ****     cy_faultFrame.lr  = faultStackAddr[CY_LR_Pos];
 468:Generated_Source\PSoC6\pdl\drivers\peripheral\syslib/cy_syslib.c ****     cy_faultFrame.pc  = faultStackAddr[CY_PC_Pos];
 469:Generated_Source\PSoC6\pdl\drivers\peripheral\syslib/cy_syslib.c ****     cy_faultFrame.psr = faultStackAddr[CY_PSR_Pos];
 470:Generated_Source\PSoC6\pdl\drivers\peripheral\syslib/cy_syslib.c **** 
 471:Generated_Source\PSoC6\pdl\drivers\peripheral\syslib/cy_syslib.c ****     #if (CY_CPU_CORTEX_M4)
 472:Generated_Source\PSoC6\pdl\drivers\peripheral\syslib/cy_syslib.c ****         /* Stores the Configurable Fault Status Register state with the fault cause */
 473:Generated_Source\PSoC6\pdl\drivers\peripheral\syslib/cy_syslib.c ****         cy_faultFrame.cfsr.cfsrReg = SCB->CFSR;
 474:Generated_Source\PSoC6\pdl\drivers\peripheral\syslib/cy_syslib.c ****         /* Stores the Hard Fault Status Register */
 475:Generated_Source\PSoC6\pdl\drivers\peripheral\syslib/cy_syslib.c ****         cy_faultFrame.hfsr.hfsrReg = SCB->HFSR;
 476:Generated_Source\PSoC6\pdl\drivers\peripheral\syslib/cy_syslib.c ****         /* Stores the System Handler Control and State Register */
 477:Generated_Source\PSoC6\pdl\drivers\peripheral\syslib/cy_syslib.c ****         cy_faultFrame.shcsr.shcsrReg = SCB->SHCSR;
 478:Generated_Source\PSoC6\pdl\drivers\peripheral\syslib/cy_syslib.c ****         /* Store MemMange fault address */
 479:Generated_Source\PSoC6\pdl\drivers\peripheral\syslib/cy_syslib.c ****         cy_faultFrame.mmfar = SCB->MMFAR;
 480:Generated_Source\PSoC6\pdl\drivers\peripheral\syslib/cy_syslib.c ****         /* Store Bus fault address */
 481:Generated_Source\PSoC6\pdl\drivers\peripheral\syslib/cy_syslib.c ****         cy_faultFrame.bfar = SCB->BFAR;
 482:Generated_Source\PSoC6\pdl\drivers\peripheral\syslib/cy_syslib.c **** 
 483:Generated_Source\PSoC6\pdl\drivers\peripheral\syslib/cy_syslib.c ****         #if ((defined (__FPU_PRESENT) && (__FPU_PRESENT == 1U)) && \
 484:Generated_Source\PSoC6\pdl\drivers\peripheral\syslib/cy_syslib.c ****              (defined (__FPU_USED   ) && (__FPU_USED    == 1U)))
 485:Generated_Source\PSoC6\pdl\drivers\peripheral\syslib/cy_syslib.c ****             /* Checks cumulative exception bits for floating-point exceptions */
 486:Generated_Source\PSoC6\pdl\drivers\peripheral\syslib/cy_syslib.c ****             if(0U != (__get_FPSCR() & (CY_FPSCR_IXC_Msk | CY_FPSCR_IDC_Msk)))
ARM GAS  C:\Users\kiwamu\AppData\Local\Temp\ccE2Z6Jb.s 			page 10


 487:Generated_Source\PSoC6\pdl\drivers\peripheral\syslib/cy_syslib.c ****             {
 488:Generated_Source\PSoC6\pdl\drivers\peripheral\syslib/cy_syslib.c ****                 cy_faultFrame.s0    = faultStackAddr[CY_S0_Pos];
 489:Generated_Source\PSoC6\pdl\drivers\peripheral\syslib/cy_syslib.c ****                 cy_faultFrame.s1    = faultStackAddr[CY_S1_Pos];
 490:Generated_Source\PSoC6\pdl\drivers\peripheral\syslib/cy_syslib.c ****                 cy_faultFrame.s2    = faultStackAddr[CY_S2_Pos];
 491:Generated_Source\PSoC6\pdl\drivers\peripheral\syslib/cy_syslib.c ****                 cy_faultFrame.s3    = faultStackAddr[CY_S3_Pos];
 492:Generated_Source\PSoC6\pdl\drivers\peripheral\syslib/cy_syslib.c ****                 cy_faultFrame.s4    = faultStackAddr[CY_S4_Pos];
 493:Generated_Source\PSoC6\pdl\drivers\peripheral\syslib/cy_syslib.c ****                 cy_faultFrame.s5    = faultStackAddr[CY_S5_Pos];
 494:Generated_Source\PSoC6\pdl\drivers\peripheral\syslib/cy_syslib.c ****                 cy_faultFrame.s6    = faultStackAddr[CY_S6_Pos];
 495:Generated_Source\PSoC6\pdl\drivers\peripheral\syslib/cy_syslib.c ****                 cy_faultFrame.s7    = faultStackAddr[CY_S7_Pos];
 496:Generated_Source\PSoC6\pdl\drivers\peripheral\syslib/cy_syslib.c ****                 cy_faultFrame.s8    = faultStackAddr[CY_S8_Pos];
 497:Generated_Source\PSoC6\pdl\drivers\peripheral\syslib/cy_syslib.c ****                 cy_faultFrame.s9    = faultStackAddr[CY_S9_Pos];
 498:Generated_Source\PSoC6\pdl\drivers\peripheral\syslib/cy_syslib.c ****                 cy_faultFrame.s10   = faultStackAddr[CY_S10_Pos];
 499:Generated_Source\PSoC6\pdl\drivers\peripheral\syslib/cy_syslib.c ****                 cy_faultFrame.s11   = faultStackAddr[CY_S11_Pos];
 500:Generated_Source\PSoC6\pdl\drivers\peripheral\syslib/cy_syslib.c ****                 cy_faultFrame.s12   = faultStackAddr[CY_S12_Pos];
 501:Generated_Source\PSoC6\pdl\drivers\peripheral\syslib/cy_syslib.c ****                 cy_faultFrame.s13   = faultStackAddr[CY_S13_Pos];
 502:Generated_Source\PSoC6\pdl\drivers\peripheral\syslib/cy_syslib.c ****                 cy_faultFrame.s14   = faultStackAddr[CY_S14_Pos];
 503:Generated_Source\PSoC6\pdl\drivers\peripheral\syslib/cy_syslib.c ****                 cy_faultFrame.s15   = faultStackAddr[CY_S15_Pos];
 504:Generated_Source\PSoC6\pdl\drivers\peripheral\syslib/cy_syslib.c ****                 cy_faultFrame.fpscr = faultStackAddr[CY_FPSCR_Pos];
 505:Generated_Source\PSoC6\pdl\drivers\peripheral\syslib/cy_syslib.c ****             }
 506:Generated_Source\PSoC6\pdl\drivers\peripheral\syslib/cy_syslib.c ****         #endif /* __FPU_PRESENT */
 507:Generated_Source\PSoC6\pdl\drivers\peripheral\syslib/cy_syslib.c ****     #endif /* CY_CPU_CORTEX_M4 */
 508:Generated_Source\PSoC6\pdl\drivers\peripheral\syslib/cy_syslib.c **** 
 509:Generated_Source\PSoC6\pdl\drivers\peripheral\syslib/cy_syslib.c ****     Cy_SysLib_ProcessingFault();
 510:Generated_Source\PSoC6\pdl\drivers\peripheral\syslib/cy_syslib.c **** }
 511:Generated_Source\PSoC6\pdl\drivers\peripheral\syslib/cy_syslib.c **** 
 512:Generated_Source\PSoC6\pdl\drivers\peripheral\syslib/cy_syslib.c **** 
 513:Generated_Source\PSoC6\pdl\drivers\peripheral\syslib/cy_syslib.c **** /*******************************************************************************
 514:Generated_Source\PSoC6\pdl\drivers\peripheral\syslib/cy_syslib.c **** * Function Name: Cy_SysLib_ProcessingFault
 515:Generated_Source\PSoC6\pdl\drivers\peripheral\syslib/cy_syslib.c **** ****************************************************************************//**
 516:Generated_Source\PSoC6\pdl\drivers\peripheral\syslib/cy_syslib.c **** *
 517:Generated_Source\PSoC6\pdl\drivers\peripheral\syslib/cy_syslib.c **** * This function determines how to process the current fault state. By default
 518:Generated_Source\PSoC6\pdl\drivers\peripheral\syslib/cy_syslib.c **** * in case of exception the system will stay in the infinite loop of this
 519:Generated_Source\PSoC6\pdl\drivers\peripheral\syslib/cy_syslib.c **** * function.
 520:Generated_Source\PSoC6\pdl\drivers\peripheral\syslib/cy_syslib.c **** *
 521:Generated_Source\PSoC6\pdl\drivers\peripheral\syslib/cy_syslib.c **** * \note This function has the WEAK option, so the user can redefine the function
 522:Generated_Source\PSoC6\pdl\drivers\peripheral\syslib/cy_syslib.c **** *       behaviour for a custom processing.
 523:Generated_Source\PSoC6\pdl\drivers\peripheral\syslib/cy_syslib.c **** *       For example, the function redefinition could be constructed from fault
 524:Generated_Source\PSoC6\pdl\drivers\peripheral\syslib/cy_syslib.c **** *       stack processing and NVIC_SystemReset() function call.
 525:Generated_Source\PSoC6\pdl\drivers\peripheral\syslib/cy_syslib.c **** *
 526:Generated_Source\PSoC6\pdl\drivers\peripheral\syslib/cy_syslib.c **** *******************************************************************************/
 527:Generated_Source\PSoC6\pdl\drivers\peripheral\syslib/cy_syslib.c **** __WEAK void Cy_SysLib_ProcessingFault(void)
 528:Generated_Source\PSoC6\pdl\drivers\peripheral\syslib/cy_syslib.c **** {
 529:Generated_Source\PSoC6\pdl\drivers\peripheral\syslib/cy_syslib.c ****     #if defined(__ARMCC_VERSION)
 530:Generated_Source\PSoC6\pdl\drivers\peripheral\syslib/cy_syslib.c ****         /* Assembly implementation of an infinite loop
 531:Generated_Source\PSoC6\pdl\drivers\peripheral\syslib/cy_syslib.c ****          * is used for the armcc compiler to preserve the call stack.
 532:Generated_Source\PSoC6\pdl\drivers\peripheral\syslib/cy_syslib.c ****          * Otherwise, the compiler destroys the call stack,
 533:Generated_Source\PSoC6\pdl\drivers\peripheral\syslib/cy_syslib.c ****          * because treats this API as a no return function.
 534:Generated_Source\PSoC6\pdl\drivers\peripheral\syslib/cy_syslib.c ****          */
 535:Generated_Source\PSoC6\pdl\drivers\peripheral\syslib/cy_syslib.c ****         Cy_SysLib_AsmInfiniteLoop();
 536:Generated_Source\PSoC6\pdl\drivers\peripheral\syslib/cy_syslib.c ****     #else
 537:Generated_Source\PSoC6\pdl\drivers\peripheral\syslib/cy_syslib.c ****         while(1) {}
 538:Generated_Source\PSoC6\pdl\drivers\peripheral\syslib/cy_syslib.c ****     #endif  /* (__ARMCC_VERSION) */
 539:Generated_Source\PSoC6\pdl\drivers\peripheral\syslib/cy_syslib.c **** }
 540:Generated_Source\PSoC6\pdl\drivers\peripheral\syslib/cy_syslib.c **** #endif /* (CY_ARM_FAULT_DEBUG == CY_ARM_FAULT_DEBUG_ENABLED) || defined(CY_DOXYGEN) */
 541:Generated_Source\PSoC6\pdl\drivers\peripheral\syslib/cy_syslib.c **** 
 542:Generated_Source\PSoC6\pdl\drivers\peripheral\syslib/cy_syslib.c **** 
 543:Generated_Source\PSoC6\pdl\drivers\peripheral\syslib/cy_syslib.c **** /*******************************************************************************
ARM GAS  C:\Users\kiwamu\AppData\Local\Temp\ccE2Z6Jb.s 			page 11


 544:Generated_Source\PSoC6\pdl\drivers\peripheral\syslib/cy_syslib.c **** * Function Name: Cy_SysLib_SetWaitStates
 545:Generated_Source\PSoC6\pdl\drivers\peripheral\syslib/cy_syslib.c **** ****************************************************************************//**
 546:Generated_Source\PSoC6\pdl\drivers\peripheral\syslib/cy_syslib.c **** *
 547:Generated_Source\PSoC6\pdl\drivers\peripheral\syslib/cy_syslib.c **** * Sets the number of clock cycles the cache will wait for, before it samples
 548:Generated_Source\PSoC6\pdl\drivers\peripheral\syslib/cy_syslib.c **** * data coming back from ROM, SRAM, and Flash.
 549:Generated_Source\PSoC6\pdl\drivers\peripheral\syslib/cy_syslib.c **** *
 550:Generated_Source\PSoC6\pdl\drivers\peripheral\syslib/cy_syslib.c **** * Call this function before increasing the HFClk0 High Frequency clock.
 551:Generated_Source\PSoC6\pdl\drivers\peripheral\syslib/cy_syslib.c **** * Call this function optionally after lowering the HFClk0 High Frequency clock
 552:Generated_Source\PSoC6\pdl\drivers\peripheral\syslib/cy_syslib.c **** * in order to improve the CPU performance.
 553:Generated_Source\PSoC6\pdl\drivers\peripheral\syslib/cy_syslib.c **** *
 554:Generated_Source\PSoC6\pdl\drivers\peripheral\syslib/cy_syslib.c **** * Also, call this function before switching the core supply regulator voltage
 555:Generated_Source\PSoC6\pdl\drivers\peripheral\syslib/cy_syslib.c **** * (LDO or SIMO Buck) from 1.1V to 0.9V.
 556:Generated_Source\PSoC6\pdl\drivers\peripheral\syslib/cy_syslib.c **** * Call this function optionally after switching the core supply regulator
 557:Generated_Source\PSoC6\pdl\drivers\peripheral\syslib/cy_syslib.c **** * voltage from 0.9V to 1.1V in order to improve the CPU performance.
 558:Generated_Source\PSoC6\pdl\drivers\peripheral\syslib/cy_syslib.c **** *
 559:Generated_Source\PSoC6\pdl\drivers\peripheral\syslib/cy_syslib.c **** * \param ulpMode  The device power mode.
 560:Generated_Source\PSoC6\pdl\drivers\peripheral\syslib/cy_syslib.c **** *        true  if the device should be switched to the ULP mode (nominal
 561:Generated_Source\PSoC6\pdl\drivers\peripheral\syslib/cy_syslib.c **** *              voltage of the core supply regulator should be switched to 0.9V);
 562:Generated_Source\PSoC6\pdl\drivers\peripheral\syslib/cy_syslib.c **** *        false if the device should be switched to the LP mode (nominal
 563:Generated_Source\PSoC6\pdl\drivers\peripheral\syslib/cy_syslib.c **** *              voltage of the core supply regulator should be switched to 1.1V).
 564:Generated_Source\PSoC6\pdl\drivers\peripheral\syslib/cy_syslib.c **** *
 565:Generated_Source\PSoC6\pdl\drivers\peripheral\syslib/cy_syslib.c **** * \note Refer to the device TRM for the low power modes description.
 566:Generated_Source\PSoC6\pdl\drivers\peripheral\syslib/cy_syslib.c **** *
 567:Generated_Source\PSoC6\pdl\drivers\peripheral\syslib/cy_syslib.c **** * \param clkHfMHz  The HFClk0 clock frequency in MHz. Specifying a frequency
 568:Generated_Source\PSoC6\pdl\drivers\peripheral\syslib/cy_syslib.c **** *                  above the supported maximum will set the Wait states as for
 569:Generated_Source\PSoC6\pdl\drivers\peripheral\syslib/cy_syslib.c **** *                  the maximum frequency.
 570:Generated_Source\PSoC6\pdl\drivers\peripheral\syslib/cy_syslib.c **** *
 571:Generated_Source\PSoC6\pdl\drivers\peripheral\syslib/cy_syslib.c **** *******************************************************************************/
 572:Generated_Source\PSoC6\pdl\drivers\peripheral\syslib/cy_syslib.c **** void Cy_SysLib_SetWaitStates(bool ulpMode, uint32_t clkHfMHz)
 573:Generated_Source\PSoC6\pdl\drivers\peripheral\syslib/cy_syslib.c **** {
 574:Generated_Source\PSoC6\pdl\drivers\peripheral\syslib/cy_syslib.c ****     if (ulpMode)
 575:Generated_Source\PSoC6\pdl\drivers\peripheral\syslib/cy_syslib.c ****     {
 576:Generated_Source\PSoC6\pdl\drivers\peripheral\syslib/cy_syslib.c ****         Cy_SysLib_SetWaitStates_ULP(clkHfMHz);
 577:Generated_Source\PSoC6\pdl\drivers\peripheral\syslib/cy_syslib.c ****     }
 578:Generated_Source\PSoC6\pdl\drivers\peripheral\syslib/cy_syslib.c ****     else
 579:Generated_Source\PSoC6\pdl\drivers\peripheral\syslib/cy_syslib.c ****     {
 580:Generated_Source\PSoC6\pdl\drivers\peripheral\syslib/cy_syslib.c ****         Cy_SysLib_SetWaitStates_LP(clkHfMHz);
 581:Generated_Source\PSoC6\pdl\drivers\peripheral\syslib/cy_syslib.c ****     }
 582:Generated_Source\PSoC6\pdl\drivers\peripheral\syslib/cy_syslib.c **** }
 583:Generated_Source\PSoC6\pdl\drivers\peripheral\syslib/cy_syslib.c **** 
 584:Generated_Source\PSoC6\pdl\drivers\peripheral\syslib/cy_syslib.c **** 
 585:Generated_Source\PSoC6\pdl\drivers\peripheral\syslib/cy_syslib.c **** /*******************************************************************************
 586:Generated_Source\PSoC6\pdl\drivers\peripheral\syslib/cy_syslib.c **** * Function Name: Cy_SysLib_SetWaitStates_LP
 587:Generated_Source\PSoC6\pdl\drivers\peripheral\syslib/cy_syslib.c **** ****************************************************************************//**
 588:Generated_Source\PSoC6\pdl\drivers\peripheral\syslib/cy_syslib.c **** *
 589:Generated_Source\PSoC6\pdl\drivers\peripheral\syslib/cy_syslib.c **** * Sets the ROM, SRAM, and Flash Wait states for the low power mode.
 590:Generated_Source\PSoC6\pdl\drivers\peripheral\syslib/cy_syslib.c **** * This function is called by \ref Cy_SysLib_SetWaitStates().
 591:Generated_Source\PSoC6\pdl\drivers\peripheral\syslib/cy_syslib.c **** *
 592:Generated_Source\PSoC6\pdl\drivers\peripheral\syslib/cy_syslib.c **** * \param clkHfMHz  The HFClk0 clock frequency in MHz. Specifying a frequency
 593:Generated_Source\PSoC6\pdl\drivers\peripheral\syslib/cy_syslib.c **** *                  above the supported maximum will set the Wait states as for
 594:Generated_Source\PSoC6\pdl\drivers\peripheral\syslib/cy_syslib.c **** *                  the maximum frequency.
 595:Generated_Source\PSoC6\pdl\drivers\peripheral\syslib/cy_syslib.c **** *
 596:Generated_Source\PSoC6\pdl\drivers\peripheral\syslib/cy_syslib.c **** *******************************************************************************/
 597:Generated_Source\PSoC6\pdl\drivers\peripheral\syslib/cy_syslib.c **** static void Cy_SysLib_SetWaitStates_LP(uint32_t clkHfMHz)
 598:Generated_Source\PSoC6\pdl\drivers\peripheral\syslib/cy_syslib.c **** {
  28              		.loc 1 598 0
  29              		.cfi_startproc
ARM GAS  C:\Users\kiwamu\AppData\Local\Temp\ccE2Z6Jb.s 			page 12


  30              		@ args = 0, pretend = 0, frame = 0
  31              		@ frame_needed = 0, uses_anonymous_args = 0
  32              		@ link register save eliminated.
  33              	.LVL0:
 599:Generated_Source\PSoC6\pdl\drivers\peripheral\syslib/cy_syslib.c ****     uint32_t waitStates;
 600:Generated_Source\PSoC6\pdl\drivers\peripheral\syslib/cy_syslib.c **** 
 601:Generated_Source\PSoC6\pdl\drivers\peripheral\syslib/cy_syslib.c ****     /* ROM */
 602:Generated_Source\PSoC6\pdl\drivers\peripheral\syslib/cy_syslib.c ****     if (clkHfMHz < CY_SYSLIB_ROM_LP_SLOW_WS_0_FREQ_MAX)
  34              		.loc 1 602 0
  35 0000 6328     		cmp	r0, #99
  36 0002 01D8     		bhi	.L5
 603:Generated_Source\PSoC6\pdl\drivers\peripheral\syslib/cy_syslib.c ****     {
 604:Generated_Source\PSoC6\pdl\drivers\peripheral\syslib/cy_syslib.c ****         waitStates = 0UL;
  37              		.loc 1 604 0
  38 0004 0021     		movs	r1, #0
  39 0006 00E0     		b	.L2
  40              	.L5:
 605:Generated_Source\PSoC6\pdl\drivers\peripheral\syslib/cy_syslib.c ****     } else
 606:Generated_Source\PSoC6\pdl\drivers\peripheral\syslib/cy_syslib.c ****     {
 607:Generated_Source\PSoC6\pdl\drivers\peripheral\syslib/cy_syslib.c ****         waitStates = 1UL;
  41              		.loc 1 607 0
  42 0008 0121     		movs	r1, #1
  43              	.L2:
  44              	.LVL1:
 608:Generated_Source\PSoC6\pdl\drivers\peripheral\syslib/cy_syslib.c ****     }
 609:Generated_Source\PSoC6\pdl\drivers\peripheral\syslib/cy_syslib.c ****     CPUSS->ROM_CTL = _CLR_SET_FLD32U(CPUSS->ROM_CTL, CPUSS_ROM_CTL_SLOW_WS, waitStates);
  45              		.loc 1 609 0
  46 000a 1C4A     		ldr	r2, .L11
  47 000c D2F8D031 		ldr	r3, [r2, #464]
  48 0010 23F00303 		bic	r3, r3, #3
  49 0014 0B43     		orrs	r3, r3, r1
  50 0016 C2F8D031 		str	r3, [r2, #464]
  51              	.LVL2:
 610:Generated_Source\PSoC6\pdl\drivers\peripheral\syslib/cy_syslib.c **** 
 611:Generated_Source\PSoC6\pdl\drivers\peripheral\syslib/cy_syslib.c ****     waitStates = 0UL;
 612:Generated_Source\PSoC6\pdl\drivers\peripheral\syslib/cy_syslib.c ****     CPUSS->ROM_CTL = _CLR_SET_FLD32U(CPUSS->ROM_CTL, CPUSS_ROM_CTL_FAST_WS, waitStates);
  52              		.loc 1 612 0
  53 001a D2F8D031 		ldr	r3, [r2, #464]
  54 001e 23F44073 		bic	r3, r3, #768
  55 0022 C2F8D031 		str	r3, [r2, #464]
 613:Generated_Source\PSoC6\pdl\drivers\peripheral\syslib/cy_syslib.c **** 
 614:Generated_Source\PSoC6\pdl\drivers\peripheral\syslib/cy_syslib.c ****     /* SRAM */
 615:Generated_Source\PSoC6\pdl\drivers\peripheral\syslib/cy_syslib.c ****     if (clkHfMHz < CY_SYSLIB_RAM_LP_SLOW_WS_0_FREQ_MAX)
  56              		.loc 1 615 0
  57 0026 6328     		cmp	r0, #99
  58 0028 01D8     		bhi	.L6
 616:Generated_Source\PSoC6\pdl\drivers\peripheral\syslib/cy_syslib.c ****     {
 617:Generated_Source\PSoC6\pdl\drivers\peripheral\syslib/cy_syslib.c ****         waitStates = 0UL;
  59              		.loc 1 617 0
  60 002a 0021     		movs	r1, #0
  61 002c 00E0     		b	.L3
  62              	.L6:
 618:Generated_Source\PSoC6\pdl\drivers\peripheral\syslib/cy_syslib.c ****     } else
 619:Generated_Source\PSoC6\pdl\drivers\peripheral\syslib/cy_syslib.c ****     {
 620:Generated_Source\PSoC6\pdl\drivers\peripheral\syslib/cy_syslib.c ****         waitStates = 1UL;
  63              		.loc 1 620 0
  64 002e 0121     		movs	r1, #1
ARM GAS  C:\Users\kiwamu\AppData\Local\Temp\ccE2Z6Jb.s 			page 13


  65              	.L3:
  66              	.LVL3:
 621:Generated_Source\PSoC6\pdl\drivers\peripheral\syslib/cy_syslib.c ****     }
 622:Generated_Source\PSoC6\pdl\drivers\peripheral\syslib/cy_syslib.c ****     CPUSS->RAM0_CTL0 = _CLR_SET_FLD32U(CPUSS->RAM0_CTL0, CPUSS_RAM0_CTL0_SLOW_WS, waitStates);
  67              		.loc 1 622 0
  68 0030 124A     		ldr	r2, .L11
  69 0032 D2F80031 		ldr	r3, [r2, #256]
  70 0036 23F00303 		bic	r3, r3, #3
  71 003a 0B43     		orrs	r3, r3, r1
  72 003c C2F80031 		str	r3, [r2, #256]
  73              	.LVL4:
 623:Generated_Source\PSoC6\pdl\drivers\peripheral\syslib/cy_syslib.c ****     #if defined (RAMC1_PRESENT) && (RAMC1_PRESENT == 1UL)
 624:Generated_Source\PSoC6\pdl\drivers\peripheral\syslib/cy_syslib.c ****         CPUSS->RAM1_CTL0 = _CLR_SET_FLD32U(CPUSS->RAM1_CTL0, CPUSS_RAM1_CTL0_SLOW_WS, waitStates);
 625:Generated_Source\PSoC6\pdl\drivers\peripheral\syslib/cy_syslib.c ****     #endif /* defined (RAMC1_PRESENT) && (RAMC1_PRESENT == 1UL) */
 626:Generated_Source\PSoC6\pdl\drivers\peripheral\syslib/cy_syslib.c ****     #if defined (RAMC2_PRESENT) && (RAMC2_PRESENT == 1UL)
 627:Generated_Source\PSoC6\pdl\drivers\peripheral\syslib/cy_syslib.c ****         CPUSS->RAM2_CTL0 = _CLR_SET_FLD32U(CPUSS->RAM2_CTL0, CPUSS_RAM2_CTL0_SLOW_WS, waitStates);
 628:Generated_Source\PSoC6\pdl\drivers\peripheral\syslib/cy_syslib.c ****     #endif /* defined (RAMC2_PRESENT) && (RAMC2_PRESENT == 1UL) */
 629:Generated_Source\PSoC6\pdl\drivers\peripheral\syslib/cy_syslib.c **** 
 630:Generated_Source\PSoC6\pdl\drivers\peripheral\syslib/cy_syslib.c ****     waitStates = 0UL;
 631:Generated_Source\PSoC6\pdl\drivers\peripheral\syslib/cy_syslib.c ****     CPUSS->RAM0_CTL0 = _CLR_SET_FLD32U(CPUSS->RAM0_CTL0, CPUSS_RAM0_CTL0_FAST_WS, waitStates);
  74              		.loc 1 631 0
  75 0040 D2F80031 		ldr	r3, [r2, #256]
  76 0044 23F44073 		bic	r3, r3, #768
  77 0048 C2F80031 		str	r3, [r2, #256]
 632:Generated_Source\PSoC6\pdl\drivers\peripheral\syslib/cy_syslib.c ****     #if defined (RAMC1_PRESENT) && (RAMC1_PRESENT == 1UL)
 633:Generated_Source\PSoC6\pdl\drivers\peripheral\syslib/cy_syslib.c ****         CPUSS->RAM1_CTL0 = _CLR_SET_FLD32U(CPUSS->RAM1_CTL0, CPUSS_RAM1_CTL0_SLOW_WS, waitStates);
 634:Generated_Source\PSoC6\pdl\drivers\peripheral\syslib/cy_syslib.c ****     #endif /* defined (RAMC1_PRESENT) && (RAMC1_PRESENT == 1UL) */
 635:Generated_Source\PSoC6\pdl\drivers\peripheral\syslib/cy_syslib.c ****     #if defined (RAMC2_PRESENT) && (RAMC2_PRESENT == 1UL)
 636:Generated_Source\PSoC6\pdl\drivers\peripheral\syslib/cy_syslib.c ****         CPUSS->RAM2_CTL0 = _CLR_SET_FLD32U(CPUSS->RAM2_CTL0, CPUSS_RAM2_CTL0_SLOW_WS, waitStates);
 637:Generated_Source\PSoC6\pdl\drivers\peripheral\syslib/cy_syslib.c ****     #endif /* defined (RAMC2_PRESENT) && (RAMC2_PRESENT == 1UL) */
 638:Generated_Source\PSoC6\pdl\drivers\peripheral\syslib/cy_syslib.c **** 
 639:Generated_Source\PSoC6\pdl\drivers\peripheral\syslib/cy_syslib.c ****     /* Flash */
 640:Generated_Source\PSoC6\pdl\drivers\peripheral\syslib/cy_syslib.c ****     if (clkHfMHz <= CY_SYSLIB_FLASH_LP_WS_0_FREQ_MAX)
  78              		.loc 1 640 0
  79 004c 1D28     		cmp	r0, #29
  80 004e 07D9     		bls	.L7
 641:Generated_Source\PSoC6\pdl\drivers\peripheral\syslib/cy_syslib.c ****     {
 642:Generated_Source\PSoC6\pdl\drivers\peripheral\syslib/cy_syslib.c ****         waitStates = 0UL;
 643:Generated_Source\PSoC6\pdl\drivers\peripheral\syslib/cy_syslib.c ****     } else if (clkHfMHz <= CY_SYSLIB_FLASH_LP_WS_1_FREQ_MAX)
  81              		.loc 1 643 0
  82 0050 3A28     		cmp	r0, #58
  83 0052 07D9     		bls	.L8
 644:Generated_Source\PSoC6\pdl\drivers\peripheral\syslib/cy_syslib.c ****     {
 645:Generated_Source\PSoC6\pdl\drivers\peripheral\syslib/cy_syslib.c ****         waitStates = 1UL;
 646:Generated_Source\PSoC6\pdl\drivers\peripheral\syslib/cy_syslib.c ****     } else if (clkHfMHz <= CY_SYSLIB_FLASH_LP_WS_2_FREQ_MAX)
  84              		.loc 1 646 0
  85 0054 5728     		cmp	r0, #87
  86 0056 07D9     		bls	.L9
 647:Generated_Source\PSoC6\pdl\drivers\peripheral\syslib/cy_syslib.c ****     {
 648:Generated_Source\PSoC6\pdl\drivers\peripheral\syslib/cy_syslib.c ****         waitStates = 2UL;
 649:Generated_Source\PSoC6\pdl\drivers\peripheral\syslib/cy_syslib.c ****     } else if (clkHfMHz <= CY_SYSLIB_FLASH_LP_WS_3_FREQ_MAX)
  87              		.loc 1 649 0
  88 0058 7828     		cmp	r0, #120
  89 005a 07D8     		bhi	.L10
 650:Generated_Source\PSoC6\pdl\drivers\peripheral\syslib/cy_syslib.c ****     {
 651:Generated_Source\PSoC6\pdl\drivers\peripheral\syslib/cy_syslib.c ****         waitStates = 3UL;
  90              		.loc 1 651 0
ARM GAS  C:\Users\kiwamu\AppData\Local\Temp\ccE2Z6Jb.s 			page 14


  91 005c 0321     		movs	r1, #3
  92 005e 06E0     		b	.L4
  93              	.L7:
 642:Generated_Source\PSoC6\pdl\drivers\peripheral\syslib/cy_syslib.c ****     } else if (clkHfMHz <= CY_SYSLIB_FLASH_LP_WS_1_FREQ_MAX)
  94              		.loc 1 642 0
  95 0060 0021     		movs	r1, #0
  96 0062 04E0     		b	.L4
  97              	.L8:
 645:Generated_Source\PSoC6\pdl\drivers\peripheral\syslib/cy_syslib.c ****     } else if (clkHfMHz <= CY_SYSLIB_FLASH_LP_WS_2_FREQ_MAX)
  98              		.loc 1 645 0
  99 0064 0121     		movs	r1, #1
 100 0066 02E0     		b	.L4
 101              	.L9:
 648:Generated_Source\PSoC6\pdl\drivers\peripheral\syslib/cy_syslib.c ****     } else if (clkHfMHz <= CY_SYSLIB_FLASH_LP_WS_3_FREQ_MAX)
 102              		.loc 1 648 0
 103 0068 0221     		movs	r1, #2
 104 006a 00E0     		b	.L4
 105              	.L10:
 652:Generated_Source\PSoC6\pdl\drivers\peripheral\syslib/cy_syslib.c ****     } else
 653:Generated_Source\PSoC6\pdl\drivers\peripheral\syslib/cy_syslib.c ****     {
 654:Generated_Source\PSoC6\pdl\drivers\peripheral\syslib/cy_syslib.c ****         waitStates = 4UL;
 106              		.loc 1 654 0
 107 006c 0421     		movs	r1, #4
 108              	.L4:
 109              	.LVL5:
 655:Generated_Source\PSoC6\pdl\drivers\peripheral\syslib/cy_syslib.c ****     }
 656:Generated_Source\PSoC6\pdl\drivers\peripheral\syslib/cy_syslib.c **** 
 657:Generated_Source\PSoC6\pdl\drivers\peripheral\syslib/cy_syslib.c ****     FLASHC->FLASH_CTL = _CLR_SET_FLD32U(FLASHC->FLASH_CTL, FLASHC_FLASH_CTL_MAIN_WS, waitStates);
 110              		.loc 1 657 0
 111 006e 044A     		ldr	r2, .L11+4
 112 0070 1368     		ldr	r3, [r2]
 113 0072 23F00F03 		bic	r3, r3, #15
 114 0076 0B43     		orrs	r3, r3, r1
 115 0078 1360     		str	r3, [r2]
 116 007a 7047     		bx	lr
 117              	.L12:
 118              		.align	2
 119              	.L11:
 120 007c 00002140 		.word	1075904512
 121 0080 00002540 		.word	1076166656
 122              		.cfi_endproc
 123              	.LFE154:
 124              		.size	Cy_SysLib_SetWaitStates_LP, .-Cy_SysLib_SetWaitStates_LP
 125              		.section	.text.Cy_SysLib_SetWaitStates_ULP,"ax",%progbits
 126              		.align	2
 127              		.thumb
 128              		.thumb_func
 129              		.type	Cy_SysLib_SetWaitStates_ULP, %function
 130              	Cy_SysLib_SetWaitStates_ULP:
 131              	.LFB155:
 658:Generated_Source\PSoC6\pdl\drivers\peripheral\syslib/cy_syslib.c **** }
 659:Generated_Source\PSoC6\pdl\drivers\peripheral\syslib/cy_syslib.c **** 
 660:Generated_Source\PSoC6\pdl\drivers\peripheral\syslib/cy_syslib.c **** 
 661:Generated_Source\PSoC6\pdl\drivers\peripheral\syslib/cy_syslib.c **** /*******************************************************************************
 662:Generated_Source\PSoC6\pdl\drivers\peripheral\syslib/cy_syslib.c **** * Function Name: Cy_SysLib_SetWaitStates_ULP
 663:Generated_Source\PSoC6\pdl\drivers\peripheral\syslib/cy_syslib.c **** ****************************************************************************//**
 664:Generated_Source\PSoC6\pdl\drivers\peripheral\syslib/cy_syslib.c **** *
ARM GAS  C:\Users\kiwamu\AppData\Local\Temp\ccE2Z6Jb.s 			page 15


 665:Generated_Source\PSoC6\pdl\drivers\peripheral\syslib/cy_syslib.c **** * Sets the ROM, SRAM, and Flash Wait states for the ultra-low power mode.
 666:Generated_Source\PSoC6\pdl\drivers\peripheral\syslib/cy_syslib.c **** * This function is called by \ref Cy_SysLib_SetWaitStates().
 667:Generated_Source\PSoC6\pdl\drivers\peripheral\syslib/cy_syslib.c **** *
 668:Generated_Source\PSoC6\pdl\drivers\peripheral\syslib/cy_syslib.c **** * \param clkHfMHz  The HFClk0 clock frequency in MHz. Specifying a frequency
 669:Generated_Source\PSoC6\pdl\drivers\peripheral\syslib/cy_syslib.c **** *                  above the supported maximum will set the Wait states as for
 670:Generated_Source\PSoC6\pdl\drivers\peripheral\syslib/cy_syslib.c **** *                  the maximum frequency.
 671:Generated_Source\PSoC6\pdl\drivers\peripheral\syslib/cy_syslib.c **** *
 672:Generated_Source\PSoC6\pdl\drivers\peripheral\syslib/cy_syslib.c **** *******************************************************************************/
 673:Generated_Source\PSoC6\pdl\drivers\peripheral\syslib/cy_syslib.c **** static void Cy_SysLib_SetWaitStates_ULP(uint32_t clkHfMHz)
 674:Generated_Source\PSoC6\pdl\drivers\peripheral\syslib/cy_syslib.c **** {
 132              		.loc 1 674 0
 133              		.cfi_startproc
 134              		@ args = 0, pretend = 0, frame = 0
 135              		@ frame_needed = 0, uses_anonymous_args = 0
 136              		@ link register save eliminated.
 137              	.LVL6:
 675:Generated_Source\PSoC6\pdl\drivers\peripheral\syslib/cy_syslib.c ****     uint32_t waitStates;
 676:Generated_Source\PSoC6\pdl\drivers\peripheral\syslib/cy_syslib.c **** 
 677:Generated_Source\PSoC6\pdl\drivers\peripheral\syslib/cy_syslib.c ****     /* ROM */
 678:Generated_Source\PSoC6\pdl\drivers\peripheral\syslib/cy_syslib.c ****     if (clkHfMHz < CY_SYSLIB_ROM_ULP_SLOW_WS_0_FREQ_MAX)
 138              		.loc 1 678 0
 139 0000 1828     		cmp	r0, #24
 140 0002 01D8     		bhi	.L17
 679:Generated_Source\PSoC6\pdl\drivers\peripheral\syslib/cy_syslib.c ****     {
 680:Generated_Source\PSoC6\pdl\drivers\peripheral\syslib/cy_syslib.c ****         waitStates = 0UL;
 141              		.loc 1 680 0
 142 0004 0021     		movs	r1, #0
 143 0006 00E0     		b	.L14
 144              	.L17:
 681:Generated_Source\PSoC6\pdl\drivers\peripheral\syslib/cy_syslib.c ****     } else
 682:Generated_Source\PSoC6\pdl\drivers\peripheral\syslib/cy_syslib.c ****     {
 683:Generated_Source\PSoC6\pdl\drivers\peripheral\syslib/cy_syslib.c ****         waitStates = 1UL;
 145              		.loc 1 683 0
 146 0008 0121     		movs	r1, #1
 147              	.L14:
 148              	.LVL7:
 684:Generated_Source\PSoC6\pdl\drivers\peripheral\syslib/cy_syslib.c ****     }
 685:Generated_Source\PSoC6\pdl\drivers\peripheral\syslib/cy_syslib.c ****     CPUSS->ROM_CTL = _CLR_SET_FLD32U(CPUSS->ROM_CTL, CPUSS_ROM_CTL_SLOW_WS, waitStates);
 149              		.loc 1 685 0
 150 000a 184A     		ldr	r2, .L21
 151 000c D2F8D031 		ldr	r3, [r2, #464]
 152 0010 23F00303 		bic	r3, r3, #3
 153 0014 0B43     		orrs	r3, r3, r1
 154 0016 C2F8D031 		str	r3, [r2, #464]
 155              	.LVL8:
 686:Generated_Source\PSoC6\pdl\drivers\peripheral\syslib/cy_syslib.c **** 
 687:Generated_Source\PSoC6\pdl\drivers\peripheral\syslib/cy_syslib.c ****     waitStates = 0UL;
 688:Generated_Source\PSoC6\pdl\drivers\peripheral\syslib/cy_syslib.c ****     CPUSS->ROM_CTL = _CLR_SET_FLD32U(CPUSS->ROM_CTL, CPUSS_ROM_CTL_FAST_WS, waitStates);
 156              		.loc 1 688 0
 157 001a D2F8D031 		ldr	r3, [r2, #464]
 158 001e 23F44073 		bic	r3, r3, #768
 159 0022 C2F8D031 		str	r3, [r2, #464]
 689:Generated_Source\PSoC6\pdl\drivers\peripheral\syslib/cy_syslib.c **** 
 690:Generated_Source\PSoC6\pdl\drivers\peripheral\syslib/cy_syslib.c ****     /* SRAM */
 691:Generated_Source\PSoC6\pdl\drivers\peripheral\syslib/cy_syslib.c ****     if (clkHfMHz < CY_SYSLIB_RAM_ULP_SLOW_WS_0_FREQ_MAX)
 160              		.loc 1 691 0
 161 0026 1828     		cmp	r0, #24
ARM GAS  C:\Users\kiwamu\AppData\Local\Temp\ccE2Z6Jb.s 			page 16


 162 0028 01D8     		bhi	.L18
 692:Generated_Source\PSoC6\pdl\drivers\peripheral\syslib/cy_syslib.c ****     {
 693:Generated_Source\PSoC6\pdl\drivers\peripheral\syslib/cy_syslib.c ****         waitStates = 0UL;
 163              		.loc 1 693 0
 164 002a 0021     		movs	r1, #0
 165 002c 00E0     		b	.L15
 166              	.L18:
 694:Generated_Source\PSoC6\pdl\drivers\peripheral\syslib/cy_syslib.c ****     } else
 695:Generated_Source\PSoC6\pdl\drivers\peripheral\syslib/cy_syslib.c ****     {
 696:Generated_Source\PSoC6\pdl\drivers\peripheral\syslib/cy_syslib.c ****         waitStates = 1UL;
 167              		.loc 1 696 0
 168 002e 0121     		movs	r1, #1
 169              	.L15:
 170              	.LVL9:
 697:Generated_Source\PSoC6\pdl\drivers\peripheral\syslib/cy_syslib.c ****     }
 698:Generated_Source\PSoC6\pdl\drivers\peripheral\syslib/cy_syslib.c ****     CPUSS->RAM0_CTL0 = _CLR_SET_FLD32U(CPUSS->RAM0_CTL0, CPUSS_RAM0_CTL0_SLOW_WS, waitStates);
 171              		.loc 1 698 0
 172 0030 0E4A     		ldr	r2, .L21
 173 0032 D2F80031 		ldr	r3, [r2, #256]
 174 0036 23F00303 		bic	r3, r3, #3
 175 003a 0B43     		orrs	r3, r3, r1
 176 003c C2F80031 		str	r3, [r2, #256]
 177              	.LVL10:
 699:Generated_Source\PSoC6\pdl\drivers\peripheral\syslib/cy_syslib.c ****     #if defined (RAMC1_PRESENT) && (RAMC1_PRESENT == 1UL)
 700:Generated_Source\PSoC6\pdl\drivers\peripheral\syslib/cy_syslib.c ****         CPUSS->RAM1_CTL0 = _CLR_SET_FLD32U(CPUSS->RAM1_CTL0, CPUSS_RAM1_CTL0_SLOW_WS, waitStates);
 701:Generated_Source\PSoC6\pdl\drivers\peripheral\syslib/cy_syslib.c ****     #endif /* defined (RAMC1_PRESENT) && (RAMC1_PRESENT == 1UL) */
 702:Generated_Source\PSoC6\pdl\drivers\peripheral\syslib/cy_syslib.c ****     #if defined (RAMC2_PRESENT) && (RAMC2_PRESENT == 1UL)
 703:Generated_Source\PSoC6\pdl\drivers\peripheral\syslib/cy_syslib.c ****         CPUSS->RAM2_CTL0 = _CLR_SET_FLD32U(CPUSS->RAM2_CTL0, CPUSS_RAM2_CTL0_SLOW_WS, waitStates);
 704:Generated_Source\PSoC6\pdl\drivers\peripheral\syslib/cy_syslib.c ****     #endif /* defined (RAMC2_PRESENT) && (RAMC2_PRESENT == 1UL) */
 705:Generated_Source\PSoC6\pdl\drivers\peripheral\syslib/cy_syslib.c **** 
 706:Generated_Source\PSoC6\pdl\drivers\peripheral\syslib/cy_syslib.c ****     waitStates = 0UL;
 707:Generated_Source\PSoC6\pdl\drivers\peripheral\syslib/cy_syslib.c ****     CPUSS->RAM0_CTL0 = _CLR_SET_FLD32U(CPUSS->RAM0_CTL0, CPUSS_RAM0_CTL0_FAST_WS, waitStates);
 178              		.loc 1 707 0
 179 0040 D2F80031 		ldr	r3, [r2, #256]
 180 0044 23F44073 		bic	r3, r3, #768
 181 0048 C2F80031 		str	r3, [r2, #256]
 708:Generated_Source\PSoC6\pdl\drivers\peripheral\syslib/cy_syslib.c ****     #if defined (RAMC1_PRESENT) && (RAMC1_PRESENT == 1UL)
 709:Generated_Source\PSoC6\pdl\drivers\peripheral\syslib/cy_syslib.c ****         CPUSS->RAM1_CTL0 = _CLR_SET_FLD32U(CPUSS->RAM1_CTL0, CPUSS_RAM1_CTL0_SLOW_WS, waitStates);
 710:Generated_Source\PSoC6\pdl\drivers\peripheral\syslib/cy_syslib.c ****     #endif /* defined (RAMC1_PRESENT) && (RAMC1_PRESENT == 1UL) */
 711:Generated_Source\PSoC6\pdl\drivers\peripheral\syslib/cy_syslib.c ****     #if defined (RAMC2_PRESENT) && (RAMC2_PRESENT == 1UL)
 712:Generated_Source\PSoC6\pdl\drivers\peripheral\syslib/cy_syslib.c ****         CPUSS->RAM2_CTL0 = _CLR_SET_FLD32U(CPUSS->RAM2_CTL0, CPUSS_RAM2_CTL0_SLOW_WS, waitStates);
 713:Generated_Source\PSoC6\pdl\drivers\peripheral\syslib/cy_syslib.c ****     #endif /* defined (RAMC2_PRESENT) && (RAMC2_PRESENT == 1UL) */
 714:Generated_Source\PSoC6\pdl\drivers\peripheral\syslib/cy_syslib.c **** 
 715:Generated_Source\PSoC6\pdl\drivers\peripheral\syslib/cy_syslib.c ****     /* Flash */
 716:Generated_Source\PSoC6\pdl\drivers\peripheral\syslib/cy_syslib.c ****     if (clkHfMHz <= CY_SYSLIB_FLASH_ULP_WS_0_FREQ_MAX)
 182              		.loc 1 716 0
 183 004c 1028     		cmp	r0, #16
 184 004e 03D9     		bls	.L19
 717:Generated_Source\PSoC6\pdl\drivers\peripheral\syslib/cy_syslib.c ****     {
 718:Generated_Source\PSoC6\pdl\drivers\peripheral\syslib/cy_syslib.c ****         waitStates = 0UL;
 719:Generated_Source\PSoC6\pdl\drivers\peripheral\syslib/cy_syslib.c ****     } else if (clkHfMHz <= CY_SYSLIB_FLASH_ULP_WS_1_FREQ_MAX)
 185              		.loc 1 719 0
 186 0050 2128     		cmp	r0, #33
 187 0052 03D8     		bhi	.L20
 720:Generated_Source\PSoC6\pdl\drivers\peripheral\syslib/cy_syslib.c ****     {
 721:Generated_Source\PSoC6\pdl\drivers\peripheral\syslib/cy_syslib.c ****         waitStates = 1UL;
 188              		.loc 1 721 0
ARM GAS  C:\Users\kiwamu\AppData\Local\Temp\ccE2Z6Jb.s 			page 17


 189 0054 0121     		movs	r1, #1
 190 0056 02E0     		b	.L16
 191              	.L19:
 718:Generated_Source\PSoC6\pdl\drivers\peripheral\syslib/cy_syslib.c ****     } else if (clkHfMHz <= CY_SYSLIB_FLASH_ULP_WS_1_FREQ_MAX)
 192              		.loc 1 718 0
 193 0058 0021     		movs	r1, #0
 194 005a 00E0     		b	.L16
 195              	.L20:
 722:Generated_Source\PSoC6\pdl\drivers\peripheral\syslib/cy_syslib.c ****     } else
 723:Generated_Source\PSoC6\pdl\drivers\peripheral\syslib/cy_syslib.c ****     {
 724:Generated_Source\PSoC6\pdl\drivers\peripheral\syslib/cy_syslib.c ****         waitStates = 2UL;
 196              		.loc 1 724 0
 197 005c 0221     		movs	r1, #2
 198              	.L16:
 199              	.LVL11:
 725:Generated_Source\PSoC6\pdl\drivers\peripheral\syslib/cy_syslib.c ****     }
 726:Generated_Source\PSoC6\pdl\drivers\peripheral\syslib/cy_syslib.c ****     FLASHC->FLASH_CTL = _CLR_SET_FLD32U(FLASHC->FLASH_CTL, FLASHC_FLASH_CTL_MAIN_WS, waitStates);
 200              		.loc 1 726 0
 201 005e 044A     		ldr	r2, .L21+4
 202 0060 1368     		ldr	r3, [r2]
 203 0062 23F00F03 		bic	r3, r3, #15
 204 0066 0B43     		orrs	r3, r3, r1
 205 0068 1360     		str	r3, [r2]
 206 006a 7047     		bx	lr
 207              	.L22:
 208              		.align	2
 209              	.L21:
 210 006c 00002140 		.word	1075904512
 211 0070 00002540 		.word	1076166656
 212              		.cfi_endproc
 213              	.LFE155:
 214              		.size	Cy_SysLib_SetWaitStates_ULP, .-Cy_SysLib_SetWaitStates_ULP
 215              		.section	.text.Cy_SysLib_Delay,"ax",%progbits
 216              		.align	2
 217              		.global	Cy_SysLib_Delay
 218              		.thumb
 219              		.thumb_func
 220              		.type	Cy_SysLib_Delay, %function
 221              	Cy_SysLib_Delay:
 222              	.LFB142:
  96:Generated_Source\PSoC6\pdl\drivers\peripheral\syslib/cy_syslib.c ****     while(milliseconds > CY_DELAY_MS_OVERFLOW)
 223              		.loc 1 96 0
 224              		.cfi_startproc
 225              		@ args = 0, pretend = 0, frame = 0
 226              		@ frame_needed = 0, uses_anonymous_args = 0
 227              	.LVL12:
 228 0000 10B5     		push	{r4, lr}
 229              		.cfi_def_cfa_offset 8
 230              		.cfi_offset 4, -8
 231              		.cfi_offset 14, -4
 232 0002 0446     		mov	r4, r0
  97:Generated_Source\PSoC6\pdl\drivers\peripheral\syslib/cy_syslib.c ****     {
 233              		.loc 1 97 0
 234 0004 05E0     		b	.L24
 235              	.LVL13:
 236              	.L25:
 103:Generated_Source\PSoC6\pdl\drivers\peripheral\syslib/cy_syslib.c ****         milliseconds -= CY_DELAY_MS_OVERFLOW;
ARM GAS  C:\Users\kiwamu\AppData\Local\Temp\ccE2Z6Jb.s 			page 18


 237              		.loc 1 103 0
 238 0006 084B     		ldr	r3, .L27
 239 0008 1868     		ldr	r0, [r3]
 240 000a FFF7FEFF 		bl	Cy_SysLib_DelayCycles
 241              	.LVL14:
 104:Generated_Source\PSoC6\pdl\drivers\peripheral\syslib/cy_syslib.c ****     }
 242              		.loc 1 104 0
 243 000e A4F50044 		sub	r4, r4, #32768
 244              	.LVL15:
 245              	.L24:
  97:Generated_Source\PSoC6\pdl\drivers\peripheral\syslib/cy_syslib.c ****     {
 246              		.loc 1 97 0
 247 0012 B4F5004F 		cmp	r4, #32768
 248 0016 F6D8     		bhi	.L25
 107:Generated_Source\PSoC6\pdl\drivers\peripheral\syslib/cy_syslib.c **** }
 249              		.loc 1 107 0
 250 0018 044B     		ldr	r3, .L27+4
 251 001a 1868     		ldr	r0, [r3]
 252 001c 00FB04F0 		mul	r0, r0, r4
 253 0020 FFF7FEFF 		bl	Cy_SysLib_DelayCycles
 254              	.LVL16:
 255 0024 10BD     		pop	{r4, pc}
 256              	.LVL17:
 257              	.L28:
 258 0026 00BF     		.align	2
 259              	.L27:
 260 0028 00000000 		.word	cy_delay32kMs
 261 002c 00000000 		.word	cy_delayFreqKhz
 262              		.cfi_endproc
 263              	.LFE142:
 264              		.size	Cy_SysLib_Delay, .-Cy_SysLib_Delay
 265              		.section	.text.Cy_SysLib_DelayUs,"ax",%progbits
 266              		.align	2
 267              		.global	Cy_SysLib_DelayUs
 268              		.thumb
 269              		.thumb_func
 270              		.type	Cy_SysLib_DelayUs, %function
 271              	Cy_SysLib_DelayUs:
 272              	.LFB143:
 127:Generated_Source\PSoC6\pdl\drivers\peripheral\syslib/cy_syslib.c ****     Cy_SysLib_DelayCycles((uint32_t) microseconds * cy_delayFreqMhz);
 273              		.loc 1 127 0
 274              		.cfi_startproc
 275              		@ args = 0, pretend = 0, frame = 0
 276              		@ frame_needed = 0, uses_anonymous_args = 0
 277              	.LVL18:
 278 0000 08B5     		push	{r3, lr}
 279              		.cfi_def_cfa_offset 8
 280              		.cfi_offset 3, -8
 281              		.cfi_offset 14, -4
 128:Generated_Source\PSoC6\pdl\drivers\peripheral\syslib/cy_syslib.c **** }
 282              		.loc 1 128 0
 283 0002 034B     		ldr	r3, .L31
 284 0004 1B78     		ldrb	r3, [r3]	@ zero_extendqisi2
 285 0006 00FB03F0 		mul	r0, r0, r3
 286              	.LVL19:
 287 000a FFF7FEFF 		bl	Cy_SysLib_DelayCycles
 288              	.LVL20:
ARM GAS  C:\Users\kiwamu\AppData\Local\Temp\ccE2Z6Jb.s 			page 19


 289 000e 08BD     		pop	{r3, pc}
 290              	.L32:
 291              		.align	2
 292              	.L31:
 293 0010 00000000 		.word	cy_delayFreqMhz
 294              		.cfi_endproc
 295              	.LFE143:
 296              		.size	Cy_SysLib_DelayUs, .-Cy_SysLib_DelayUs
 297              		.section	.text.Cy_SysLib_Halt,"ax",%progbits
 298              		.align	2
 299              		.global	Cy_SysLib_Halt
 300              		.thumb
 301              		.thumb_func
 302              		.type	Cy_SysLib_Halt, %function
 303              	Cy_SysLib_Halt:
 304              	.LFB144:
 158:Generated_Source\PSoC6\pdl\drivers\peripheral\syslib/cy_syslib.c ****     if(0u != reason)
 305              		.loc 1 158 0
 306              		.cfi_startproc
 307              		@ Volatile: function does not return.
 308              		@ args = 0, pretend = 0, frame = 0
 309              		@ frame_needed = 0, uses_anonymous_args = 0
 310              		@ link register save eliminated.
 311              	.LVL21:
 167:Generated_Source\PSoC6\pdl\drivers\peripheral\syslib/cy_syslib.c ****     #elif defined (__ICCARM__)
 312              		.loc 1 167 0
 313              		.syntax unified
 314              	@ 167 "Generated_Source\PSoC6\pdl\drivers\peripheral\syslib\cy_syslib.c" 1
 315 0000 01BE     		    bkpt    1
 316              	@ 0 "" 2
 317              		.thumb
 318              		.syntax unified
 319              	.L34:
 320 0002 FEE7     		b	.L34
 321              		.cfi_endproc
 322              	.LFE144:
 323              		.size	Cy_SysLib_Halt, .-Cy_SysLib_Halt
 324              		.section	.text.Cy_SysLib_AssertFailed,"ax",%progbits
 325              		.align	2
 326              		.weak	Cy_SysLib_AssertFailed
 327              		.thumb
 328              		.thumb_func
 329              		.type	Cy_SysLib_AssertFailed, %function
 330              	Cy_SysLib_AssertFailed:
 331              	.LFB145:
 197:Generated_Source\PSoC6\pdl\drivers\peripheral\syslib/cy_syslib.c ****     (void) strncpy(cy_assertFileName, file, CY_MAX_FILE_NAME_SIZE);
 332              		.loc 1 197 0
 333              		.cfi_startproc
 334              		@ args = 0, pretend = 0, frame = 0
 335              		@ frame_needed = 0, uses_anonymous_args = 0
 336              	.LVL22:
 337 0000 38B5     		push	{r3, r4, r5, lr}
 338              		.cfi_def_cfa_offset 16
 339              		.cfi_offset 3, -16
 340              		.cfi_offset 4, -12
 341              		.cfi_offset 5, -8
 342              		.cfi_offset 14, -4
ARM GAS  C:\Users\kiwamu\AppData\Local\Temp\ccE2Z6Jb.s 			page 20


 343 0002 0D46     		mov	r5, r1
 198:Generated_Source\PSoC6\pdl\drivers\peripheral\syslib/cy_syslib.c ****     cy_assertLine = line;
 344              		.loc 1 198 0
 345 0004 044C     		ldr	r4, .L37
 346 0006 1822     		movs	r2, #24
 347 0008 0146     		mov	r1, r0
 348              	.LVL23:
 349 000a 2046     		mov	r0, r4
 350              	.LVL24:
 351 000c FFF7FEFF 		bl	strncpy
 352              	.LVL25:
 199:Generated_Source\PSoC6\pdl\drivers\peripheral\syslib/cy_syslib.c ****     Cy_SysLib_Halt(0UL);
 353              		.loc 1 199 0
 354 0010 A561     		str	r5, [r4, #24]
 200:Generated_Source\PSoC6\pdl\drivers\peripheral\syslib/cy_syslib.c **** }
 355              		.loc 1 200 0
 356 0012 0020     		movs	r0, #0
 357 0014 FFF7FEFF 		bl	Cy_SysLib_Halt
 358              	.LVL26:
 359              	.L38:
 360              		.align	2
 361              	.L37:
 362 0018 00000000 		.word	.LANCHOR0
 363              		.cfi_endproc
 364              	.LFE145:
 365              		.size	Cy_SysLib_AssertFailed, .-Cy_SysLib_AssertFailed
 366              		.section	.text.Cy_SysLib_ClearFlashCacheAndBuffer,"ax",%progbits
 367              		.align	2
 368              		.global	Cy_SysLib_ClearFlashCacheAndBuffer
 369              		.thumb
 370              		.thumb_func
 371              		.type	Cy_SysLib_ClearFlashCacheAndBuffer, %function
 372              	Cy_SysLib_ClearFlashCacheAndBuffer:
 373              	.LFB146:
 218:Generated_Source\PSoC6\pdl\drivers\peripheral\syslib/cy_syslib.c ****     FLASHC->FLASH_CMD = FLASHC_FLASH_CMD_INV_Msk;
 374              		.loc 1 218 0
 375              		.cfi_startproc
 376              		@ args = 0, pretend = 0, frame = 0
 377              		@ frame_needed = 0, uses_anonymous_args = 0
 378              		@ link register save eliminated.
 219:Generated_Source\PSoC6\pdl\drivers\peripheral\syslib/cy_syslib.c **** }
 379              		.loc 1 219 0
 380 0000 0122     		movs	r2, #1
 381 0002 014B     		ldr	r3, .L40
 382 0004 9A60     		str	r2, [r3, #8]
 383 0006 7047     		bx	lr
 384              	.L41:
 385              		.align	2
 386              	.L40:
 387 0008 00002540 		.word	1076166656
 388              		.cfi_endproc
 389              	.LFE146:
 390              		.size	Cy_SysLib_ClearFlashCacheAndBuffer, .-Cy_SysLib_ClearFlashCacheAndBuffer
 391              		.section	.text.Cy_SysLib_ResetBackupDomain,"ax",%progbits
 392              		.align	2
 393              		.global	Cy_SysLib_ResetBackupDomain
 394              		.thumb
ARM GAS  C:\Users\kiwamu\AppData\Local\Temp\ccE2Z6Jb.s 			page 21


 395              		.thumb_func
 396              		.type	Cy_SysLib_ResetBackupDomain, %function
 397              	Cy_SysLib_ResetBackupDomain:
 398              	.LFB147:
 243:Generated_Source\PSoC6\pdl\drivers\peripheral\syslib/cy_syslib.c ****     BACKUP->RESET = BACKUP_RESET_RESET_Msk;
 399              		.loc 1 243 0
 400              		.cfi_startproc
 401              		@ args = 0, pretend = 0, frame = 0
 402              		@ frame_needed = 0, uses_anonymous_args = 0
 403              		@ link register save eliminated.
 244:Generated_Source\PSoC6\pdl\drivers\peripheral\syslib/cy_syslib.c **** 
 404              		.loc 1 244 0
 405 0000 054B     		ldr	r3, .L45
 406 0002 4FF00042 		mov	r2, #-2147483648
 407 0006 9A64     		str	r2, [r3, #72]
 246:Generated_Source\PSoC6\pdl\drivers\peripheral\syslib/cy_syslib.c **** }
 408              		.loc 1 246 0
 409 0008 9B6C     		ldr	r3, [r3, #72]
 410 000a 002B     		cmp	r3, #0
 411 000c 01DB     		blt	.L44
 412 000e 0020     		movs	r0, #0
 413 0010 7047     		bx	lr
 414              	.L44:
 415 0012 0248     		ldr	r0, .L45+4
 247:Generated_Source\PSoC6\pdl\drivers\peripheral\syslib/cy_syslib.c **** 
 416              		.loc 1 247 0
 417 0014 7047     		bx	lr
 418              	.L46:
 419 0016 00BF     		.align	2
 420              	.L45:
 421 0018 00002740 		.word	1076297728
 422 001c 03004600 		.word	4587523
 423              		.cfi_endproc
 424              	.LFE147:
 425              		.size	Cy_SysLib_ResetBackupDomain, .-Cy_SysLib_ResetBackupDomain
 426              		.section	.text.Cy_SysLib_GetResetReason,"ax",%progbits
 427              		.align	2
 428              		.global	Cy_SysLib_GetResetReason
 429              		.thumb
 430              		.thumb_func
 431              		.type	Cy_SysLib_GetResetReason, %function
 432              	Cy_SysLib_GetResetReason:
 433              	.LFB148:
 283:Generated_Source\PSoC6\pdl\drivers\peripheral\syslib/cy_syslib.c ****     uint32_t retVal;
 434              		.loc 1 283 0
 435              		.cfi_startproc
 436              		@ args = 0, pretend = 0, frame = 0
 437              		@ frame_needed = 0, uses_anonymous_args = 0
 438              		@ link register save eliminated.
 286:Generated_Source\PSoC6\pdl\drivers\peripheral\syslib/cy_syslib.c **** 
 439              		.loc 1 286 0
 440 0000 044B     		ldr	r3, .L49
 441 0002 D3F80008 		ldr	r0, [r3, #2048]
 442              	.LVL27:
 293:Generated_Source\PSoC6\pdl\drivers\peripheral\syslib/cy_syslib.c ****     {
 443              		.loc 1 293 0
 444 0006 5B68     		ldr	r3, [r3, #4]
ARM GAS  C:\Users\kiwamu\AppData\Local\Temp\ccE2Z6Jb.s 			page 22


 445 0008 13F0FF0F 		tst	r3, #255
 446 000c 01D0     		beq	.L48
 295:Generated_Source\PSoC6\pdl\drivers\peripheral\syslib/cy_syslib.c ****     }
 447              		.loc 1 295 0
 448 000e 40F48020 		orr	r0, r0, #262144
 449              	.LVL28:
 450              	.L48:
 299:Generated_Source\PSoC6\pdl\drivers\peripheral\syslib/cy_syslib.c **** 
 451              		.loc 1 299 0
 452 0012 7047     		bx	lr
 453              	.L50:
 454              		.align	2
 455              	.L49:
 456 0014 00002640 		.word	1076232192
 457              		.cfi_endproc
 458              	.LFE148:
 459              		.size	Cy_SysLib_GetResetReason, .-Cy_SysLib_GetResetReason
 460              		.section	.text.Cy_SysLib_ClearResetReason,"ax",%progbits
 461              		.align	2
 462              		.global	Cy_SysLib_ClearResetReason
 463              		.thumb
 464              		.thumb_func
 465              		.type	Cy_SysLib_ClearResetReason, %function
 466              	Cy_SysLib_ClearResetReason:
 467              	.LFB149:
 337:Generated_Source\PSoC6\pdl\drivers\peripheral\syslib/cy_syslib.c ****     /* RES_CAUSE and RES_CAUSE2 register's bits are RW1C (every bit is cleared upon writing 1),
 468              		.loc 1 337 0
 469              		.cfi_startproc
 470              		@ args = 0, pretend = 0, frame = 0
 471              		@ frame_needed = 0, uses_anonymous_args = 0
 472              		@ link register save eliminated.
 341:Generated_Source\PSoC6\pdl\drivers\peripheral\syslib/cy_syslib.c ****     SRSS->RES_CAUSE2 = 0xFFFFFFFFu;
 473              		.loc 1 341 0
 474 0000 084B     		ldr	r3, .L53
 475 0002 4FF0FF32 		mov	r2, #-1
 476 0006 C3F80028 		str	r2, [r3, #2048]
 342:Generated_Source\PSoC6\pdl\drivers\peripheral\syslib/cy_syslib.c ****     
 477              		.loc 1 342 0
 478 000a C3F80428 		str	r2, [r3, #2052]
 344:Generated_Source\PSoC6\pdl\drivers\peripheral\syslib/cy_syslib.c ****     {
 479              		.loc 1 344 0
 480 000e 5B68     		ldr	r3, [r3, #4]
 481 0010 13F0FF0F 		tst	r3, #255
 482 0014 04D0     		beq	.L51
 347:Generated_Source\PSoC6\pdl\drivers\peripheral\syslib/cy_syslib.c ****     }
 483              		.loc 1 347 0
 484 0016 034A     		ldr	r2, .L53
 485 0018 5368     		ldr	r3, [r2, #4]
 486 001a 23F0FF03 		bic	r3, r3, #255
 487 001e 5360     		str	r3, [r2, #4]
 488              	.L51:
 489 0020 7047     		bx	lr
 490              	.L54:
 491 0022 00BF     		.align	2
 492              	.L53:
 493 0024 00002640 		.word	1076232192
 494              		.cfi_endproc
ARM GAS  C:\Users\kiwamu\AppData\Local\Temp\ccE2Z6Jb.s 			page 23


 495              	.LFE149:
 496              		.size	Cy_SysLib_ClearResetReason, .-Cy_SysLib_ClearResetReason
 497              		.section	.text.Cy_SysLib_GetUniqueId,"ax",%progbits
 498              		.align	2
 499              		.global	Cy_SysLib_GetUniqueId
 500              		.thumb
 501              		.thumb_func
 502              		.type	Cy_SysLib_GetUniqueId, %function
 503              	Cy_SysLib_GetUniqueId:
 504              	.LFB150:
 412:Generated_Source\PSoC6\pdl\drivers\peripheral\syslib/cy_syslib.c ****     uint64_t uniqueId;
 505              		.loc 1 412 0
 506              		.cfi_startproc
 507              		@ args = 0, pretend = 0, frame = 0
 508              		@ frame_needed = 0, uses_anonymous_args = 0
 509              		@ link register save eliminated.
 510 0000 F0B4     		push	{r4, r5, r6, r7}
 511              		.cfi_def_cfa_offset 16
 512              		.cfi_offset 4, -16
 513              		.cfi_offset 5, -12
 514              		.cfi_offset 6, -8
 515              		.cfi_offset 7, -4
 415:Generated_Source\PSoC6\pdl\drivers\peripheral\syslib/cy_syslib.c ****                (((uint64_t)SFLASH->DIE_MINOR & 1u) << CY_UNIQUE_ID_DIE_MINOR_Pos) |
 516              		.loc 1 415 0
 517 0002 4FF0B051 		mov	r1, #369098752
 518 0006 91F80A36 		ldrb	r3, [r1, #1546]	@ zero_extendqisi2
 519 000a 0024     		movs	r4, #0
 520 000c 5D06     		lsls	r5, r3, #25
 416:Generated_Source\PSoC6\pdl\drivers\peripheral\syslib/cy_syslib.c ****                ((uint64_t)SFLASH->DIE_SORT         << CY_UNIQUE_ID_DIE_SORT_Pos)  |
 521              		.loc 1 416 0
 522 000e 91F80706 		ldrb	r0, [r1, #1543]	@ zero_extendqisi2
 523 0012 00F00100 		and	r0, r0, #1
 524 0016 0306     		lsls	r3, r0, #24
 525 0018 2246     		mov	r2, r4
 415:Generated_Source\PSoC6\pdl\drivers\peripheral\syslib/cy_syslib.c ****                (((uint64_t)SFLASH->DIE_MINOR & 1u) << CY_UNIQUE_ID_DIE_MINOR_Pos) |
 526              		.loc 1 415 0
 527 001a 2243     		orrs	r2, r2, r4
 528 001c 2B43     		orrs	r3, r3, r5
 417:Generated_Source\PSoC6\pdl\drivers\peripheral\syslib/cy_syslib.c ****                ((uint64_t)SFLASH->DIE_Y            << CY_UNIQUE_ID_DIE_Y_Pos)     |
 529              		.loc 1 417 0
 530 001e 91F80606 		ldrb	r0, [r1, #1542]	@ zero_extendqisi2
 531 0022 0704     		lsls	r7, r0, #16
 416:Generated_Source\PSoC6\pdl\drivers\peripheral\syslib/cy_syslib.c ****                ((uint64_t)SFLASH->DIE_SORT         << CY_UNIQUE_ID_DIE_SORT_Pos)  |
 532              		.loc 1 416 0
 533 0024 2243     		orrs	r2, r2, r4
 534 0026 3B43     		orrs	r3, r3, r7
 418:Generated_Source\PSoC6\pdl\drivers\peripheral\syslib/cy_syslib.c ****                ((uint64_t)SFLASH->DIE_X            << CY_UNIQUE_ID_DIE_X_Pos)     |
 535              		.loc 1 418 0
 536 0028 91F80506 		ldrb	r0, [r1, #1541]	@ zero_extendqisi2
 537 002c 0702     		lsls	r7, r0, #8
 417:Generated_Source\PSoC6\pdl\drivers\peripheral\syslib/cy_syslib.c ****                ((uint64_t)SFLASH->DIE_Y            << CY_UNIQUE_ID_DIE_Y_Pos)     |
 538              		.loc 1 417 0
 539 002e 2243     		orrs	r2, r2, r4
 540 0030 3B43     		orrs	r3, r3, r7
 419:Generated_Source\PSoC6\pdl\drivers\peripheral\syslib/cy_syslib.c ****                ((uint64_t)SFLASH->DIE_WAFER        << CY_UNIQUE_ID_DIE_WAFER_Pos) |
 541              		.loc 1 419 0
 542 0032 91F80406 		ldrb	r0, [r1, #1540]	@ zero_extendqisi2
ARM GAS  C:\Users\kiwamu\AppData\Local\Temp\ccE2Z6Jb.s 			page 24


 418:Generated_Source\PSoC6\pdl\drivers\peripheral\syslib/cy_syslib.c ****                ((uint64_t)SFLASH->DIE_X            << CY_UNIQUE_ID_DIE_X_Pos)     |
 543              		.loc 1 418 0
 544 0036 2243     		orrs	r2, r2, r4
 545 0038 0343     		orrs	r3, r3, r0
 420:Generated_Source\PSoC6\pdl\drivers\peripheral\syslib/cy_syslib.c ****                ((uint64_t)SFLASH->DIE_LOT[2u]      << CY_UNIQUE_ID_DIE_LOT_2_Pos) |
 546              		.loc 1 420 0
 547 003a 91F80306 		ldrb	r0, [r1, #1539]	@ zero_extendqisi2
 548 003e 0025     		movs	r5, #0
 549 0040 0406     		lsls	r4, r0, #24
 419:Generated_Source\PSoC6\pdl\drivers\peripheral\syslib/cy_syslib.c ****                ((uint64_t)SFLASH->DIE_WAFER        << CY_UNIQUE_ID_DIE_WAFER_Pos) |
 550              		.loc 1 419 0
 551 0042 2243     		orrs	r2, r2, r4
 552 0044 2B43     		orrs	r3, r3, r5
 421:Generated_Source\PSoC6\pdl\drivers\peripheral\syslib/cy_syslib.c ****                ((uint64_t)SFLASH->DIE_LOT[1u]      << CY_UNIQUE_ID_DIE_LOT_1_Pos) |
 553              		.loc 1 421 0
 554 0046 91F80206 		ldrb	r0, [r1, #1538]	@ zero_extendqisi2
 555 004a 0025     		movs	r5, #0
 556 004c 0404     		lsls	r4, r0, #16
 420:Generated_Source\PSoC6\pdl\drivers\peripheral\syslib/cy_syslib.c ****                ((uint64_t)SFLASH->DIE_LOT[2u]      << CY_UNIQUE_ID_DIE_LOT_2_Pos) |
 557              		.loc 1 420 0
 558 004e 2243     		orrs	r2, r2, r4
 559 0050 2B43     		orrs	r3, r3, r5
 422:Generated_Source\PSoC6\pdl\drivers\peripheral\syslib/cy_syslib.c ****                ((uint64_t)SFLASH->DIE_LOT[0u]      << CY_UNIQUE_ID_DIE_LOT_0_Pos);
 560              		.loc 1 422 0
 561 0052 91F80106 		ldrb	r0, [r1, #1537]	@ zero_extendqisi2
 562 0056 0025     		movs	r5, #0
 563 0058 0402     		lsls	r4, r0, #8
 421:Generated_Source\PSoC6\pdl\drivers\peripheral\syslib/cy_syslib.c ****                ((uint64_t)SFLASH->DIE_LOT[1u]      << CY_UNIQUE_ID_DIE_LOT_1_Pos) |
 564              		.loc 1 421 0
 565 005a 2243     		orrs	r2, r2, r4
 566 005c 2B43     		orrs	r3, r3, r5
 423:Generated_Source\PSoC6\pdl\drivers\peripheral\syslib/cy_syslib.c **** 
 567              		.loc 1 423 0
 568 005e 91F80006 		ldrb	r0, [r1, #1536]	@ zero_extendqisi2
 569              	.LVL29:
 426:Generated_Source\PSoC6\pdl\drivers\peripheral\syslib/cy_syslib.c **** 
 570              		.loc 1 426 0
 571 0062 42EA0002 		orr	r2, r2, r0
 572              	.LVL30:
 573 0066 1046     		mov	r0, r2
 574 0068 1946     		mov	r1, r3
 575 006a F0BC     		pop	{r4, r5, r6, r7}
 576              		.cfi_restore 7
 577              		.cfi_restore 6
 578              		.cfi_restore 5
 579              		.cfi_restore 4
 580              		.cfi_def_cfa_offset 0
 581 006c 7047     		bx	lr
 582              		.cfi_endproc
 583              	.LFE150:
 584              		.size	Cy_SysLib_GetUniqueId, .-Cy_SysLib_GetUniqueId
 585 006e 00BF     		.section	.text.Cy_SysLib_ProcessingFault,"ax",%progbits
 586              		.align	2
 587              		.weak	Cy_SysLib_ProcessingFault
 588              		.thumb
 589              		.thumb_func
 590              		.type	Cy_SysLib_ProcessingFault, %function
ARM GAS  C:\Users\kiwamu\AppData\Local\Temp\ccE2Z6Jb.s 			page 25


 591              	Cy_SysLib_ProcessingFault:
 592              	.LFB152:
 528:Generated_Source\PSoC6\pdl\drivers\peripheral\syslib/cy_syslib.c ****     #if defined(__ARMCC_VERSION)
 593              		.loc 1 528 0
 594              		.cfi_startproc
 595              		@ args = 0, pretend = 0, frame = 0
 596              		@ frame_needed = 0, uses_anonymous_args = 0
 597              		@ link register save eliminated.
 598              	.L58:
 599 0000 FEE7     		b	.L58
 600              		.cfi_endproc
 601              	.LFE152:
 602              		.size	Cy_SysLib_ProcessingFault, .-Cy_SysLib_ProcessingFault
 603 0002 00BF     		.section	.text.Cy_SysLib_FaultHandler,"ax",%progbits
 604              		.align	2
 605              		.global	Cy_SysLib_FaultHandler
 606              		.thumb
 607              		.thumb_func
 608              		.type	Cy_SysLib_FaultHandler, %function
 609              	Cy_SysLib_FaultHandler:
 610              	.LFB151:
 460:Generated_Source\PSoC6\pdl\drivers\peripheral\syslib/cy_syslib.c ****     /* Stores general registers */
 611              		.loc 1 460 0
 612              		.cfi_startproc
 613              		@ args = 0, pretend = 0, frame = 0
 614              		@ frame_needed = 0, uses_anonymous_args = 0
 615              	.LVL31:
 460:Generated_Source\PSoC6\pdl\drivers\peripheral\syslib/cy_syslib.c ****     /* Stores general registers */
 616              		.loc 1 460 0
 617 0000 08B5     		push	{r3, lr}
 618              		.cfi_def_cfa_offset 8
 619              		.cfi_offset 3, -8
 620              		.cfi_offset 14, -4
 462:Generated_Source\PSoC6\pdl\drivers\peripheral\syslib/cy_syslib.c ****     cy_faultFrame.r1  = faultStackAddr[CY_R1_Pos];
 621              		.loc 1 462 0
 622 0002 0268     		ldr	r2, [r0]
 623 0004 254B     		ldr	r3, .L62
 624 0006 DA61     		str	r2, [r3, #28]
 463:Generated_Source\PSoC6\pdl\drivers\peripheral\syslib/cy_syslib.c ****     cy_faultFrame.r2  = faultStackAddr[CY_R2_Pos];
 625              		.loc 1 463 0
 626 0008 4268     		ldr	r2, [r0, #4]
 627 000a 1A62     		str	r2, [r3, #32]
 464:Generated_Source\PSoC6\pdl\drivers\peripheral\syslib/cy_syslib.c ****     cy_faultFrame.r3  = faultStackAddr[CY_R3_Pos];
 628              		.loc 1 464 0
 629 000c 8268     		ldr	r2, [r0, #8]
 630 000e 5A62     		str	r2, [r3, #36]
 465:Generated_Source\PSoC6\pdl\drivers\peripheral\syslib/cy_syslib.c ****     cy_faultFrame.r12 = faultStackAddr[CY_R12_Pos];
 631              		.loc 1 465 0
 632 0010 C268     		ldr	r2, [r0, #12]
 633 0012 9A62     		str	r2, [r3, #40]
 466:Generated_Source\PSoC6\pdl\drivers\peripheral\syslib/cy_syslib.c ****     cy_faultFrame.lr  = faultStackAddr[CY_LR_Pos];
 634              		.loc 1 466 0
 635 0014 0269     		ldr	r2, [r0, #16]
 636 0016 DA62     		str	r2, [r3, #44]
 467:Generated_Source\PSoC6\pdl\drivers\peripheral\syslib/cy_syslib.c ****     cy_faultFrame.pc  = faultStackAddr[CY_PC_Pos];
 637              		.loc 1 467 0
 638 0018 4269     		ldr	r2, [r0, #20]
ARM GAS  C:\Users\kiwamu\AppData\Local\Temp\ccE2Z6Jb.s 			page 26


 639 001a 1A63     		str	r2, [r3, #48]
 468:Generated_Source\PSoC6\pdl\drivers\peripheral\syslib/cy_syslib.c ****     cy_faultFrame.psr = faultStackAddr[CY_PSR_Pos];
 640              		.loc 1 468 0
 641 001c 8269     		ldr	r2, [r0, #24]
 642 001e 5A63     		str	r2, [r3, #52]
 469:Generated_Source\PSoC6\pdl\drivers\peripheral\syslib/cy_syslib.c **** 
 643              		.loc 1 469 0
 644 0020 C269     		ldr	r2, [r0, #28]
 645 0022 9A63     		str	r2, [r3, #56]
 473:Generated_Source\PSoC6\pdl\drivers\peripheral\syslib/cy_syslib.c ****         /* Stores the Hard Fault Status Register */
 646              		.loc 1 473 0
 647 0024 1E4A     		ldr	r2, .L62+4
 648 0026 916A     		ldr	r1, [r2, #40]
 649 0028 D963     		str	r1, [r3, #60]
 475:Generated_Source\PSoC6\pdl\drivers\peripheral\syslib/cy_syslib.c ****         /* Stores the System Handler Control and State Register */
 650              		.loc 1 475 0
 651 002a D16A     		ldr	r1, [r2, #44]
 652 002c 1964     		str	r1, [r3, #64]
 477:Generated_Source\PSoC6\pdl\drivers\peripheral\syslib/cy_syslib.c ****         /* Store MemMange fault address */
 653              		.loc 1 477 0
 654 002e 516A     		ldr	r1, [r2, #36]
 655 0030 5964     		str	r1, [r3, #68]
 479:Generated_Source\PSoC6\pdl\drivers\peripheral\syslib/cy_syslib.c ****         /* Store Bus fault address */
 656              		.loc 1 479 0
 657 0032 516B     		ldr	r1, [r2, #52]
 658 0034 9964     		str	r1, [r3, #72]
 481:Generated_Source\PSoC6\pdl\drivers\peripheral\syslib/cy_syslib.c **** 
 659              		.loc 1 481 0
 660 0036 926B     		ldr	r2, [r2, #56]
 661 0038 DA64     		str	r2, [r3, #76]
 662              	.LBB4:
 663              	.LBB5:
 664              		.file 2 "Generated_Source\\PSoC6\\pdl\\cmsis/include/cmsis_gcc.h"
   1:Generated_Source\PSoC6\pdl\cmsis/include/cmsis_gcc.h **** /**************************************************************************//**
   2:Generated_Source\PSoC6\pdl\cmsis/include/cmsis_gcc.h ****  * @file     cmsis_gcc.h
   3:Generated_Source\PSoC6\pdl\cmsis/include/cmsis_gcc.h ****  * @brief    CMSIS compiler GCC header file
   4:Generated_Source\PSoC6\pdl\cmsis/include/cmsis_gcc.h ****  * @version  V5.0.1
   5:Generated_Source\PSoC6\pdl\cmsis/include/cmsis_gcc.h ****  * @date     02. February 2017
   6:Generated_Source\PSoC6\pdl\cmsis/include/cmsis_gcc.h ****  ******************************************************************************/
   7:Generated_Source\PSoC6\pdl\cmsis/include/cmsis_gcc.h **** /*
   8:Generated_Source\PSoC6\pdl\cmsis/include/cmsis_gcc.h ****  * Copyright (c) 2009-2017 ARM Limited. All rights reserved.
   9:Generated_Source\PSoC6\pdl\cmsis/include/cmsis_gcc.h ****  *
  10:Generated_Source\PSoC6\pdl\cmsis/include/cmsis_gcc.h ****  * SPDX-License-Identifier: Apache-2.0
  11:Generated_Source\PSoC6\pdl\cmsis/include/cmsis_gcc.h ****  *
  12:Generated_Source\PSoC6\pdl\cmsis/include/cmsis_gcc.h ****  * Licensed under the Apache License, Version 2.0 (the License); you may
  13:Generated_Source\PSoC6\pdl\cmsis/include/cmsis_gcc.h ****  * not use this file except in compliance with the License.
  14:Generated_Source\PSoC6\pdl\cmsis/include/cmsis_gcc.h ****  * You may obtain a copy of the License at
  15:Generated_Source\PSoC6\pdl\cmsis/include/cmsis_gcc.h ****  *
  16:Generated_Source\PSoC6\pdl\cmsis/include/cmsis_gcc.h ****  * www.apache.org/licenses/LICENSE-2.0
  17:Generated_Source\PSoC6\pdl\cmsis/include/cmsis_gcc.h ****  *
  18:Generated_Source\PSoC6\pdl\cmsis/include/cmsis_gcc.h ****  * Unless required by applicable law or agreed to in writing, software
  19:Generated_Source\PSoC6\pdl\cmsis/include/cmsis_gcc.h ****  * distributed under the License is distributed on an AS IS BASIS, WITHOUT
  20:Generated_Source\PSoC6\pdl\cmsis/include/cmsis_gcc.h ****  * WARRANTIES OR CONDITIONS OF ANY KIND, either express or implied.
  21:Generated_Source\PSoC6\pdl\cmsis/include/cmsis_gcc.h ****  * See the License for the specific language governing permissions and
  22:Generated_Source\PSoC6\pdl\cmsis/include/cmsis_gcc.h ****  * limitations under the License.
  23:Generated_Source\PSoC6\pdl\cmsis/include/cmsis_gcc.h ****  */
  24:Generated_Source\PSoC6\pdl\cmsis/include/cmsis_gcc.h **** 
ARM GAS  C:\Users\kiwamu\AppData\Local\Temp\ccE2Z6Jb.s 			page 27


  25:Generated_Source\PSoC6\pdl\cmsis/include/cmsis_gcc.h **** #ifndef __CMSIS_GCC_H
  26:Generated_Source\PSoC6\pdl\cmsis/include/cmsis_gcc.h **** #define __CMSIS_GCC_H
  27:Generated_Source\PSoC6\pdl\cmsis/include/cmsis_gcc.h **** 
  28:Generated_Source\PSoC6\pdl\cmsis/include/cmsis_gcc.h **** /* ignore some GCC warnings */
  29:Generated_Source\PSoC6\pdl\cmsis/include/cmsis_gcc.h **** #pragma GCC diagnostic push
  30:Generated_Source\PSoC6\pdl\cmsis/include/cmsis_gcc.h **** #pragma GCC diagnostic ignored "-Wsign-conversion"
  31:Generated_Source\PSoC6\pdl\cmsis/include/cmsis_gcc.h **** #pragma GCC diagnostic ignored "-Wconversion"
  32:Generated_Source\PSoC6\pdl\cmsis/include/cmsis_gcc.h **** #pragma GCC diagnostic ignored "-Wunused-parameter"
  33:Generated_Source\PSoC6\pdl\cmsis/include/cmsis_gcc.h **** 
  34:Generated_Source\PSoC6\pdl\cmsis/include/cmsis_gcc.h **** /* CMSIS compiler specific defines */
  35:Generated_Source\PSoC6\pdl\cmsis/include/cmsis_gcc.h **** #ifndef   __ASM
  36:Generated_Source\PSoC6\pdl\cmsis/include/cmsis_gcc.h ****   #define __ASM                     __asm
  37:Generated_Source\PSoC6\pdl\cmsis/include/cmsis_gcc.h **** #endif
  38:Generated_Source\PSoC6\pdl\cmsis/include/cmsis_gcc.h **** #ifndef   __INLINE
  39:Generated_Source\PSoC6\pdl\cmsis/include/cmsis_gcc.h ****   #define __INLINE                  inline
  40:Generated_Source\PSoC6\pdl\cmsis/include/cmsis_gcc.h **** #endif
  41:Generated_Source\PSoC6\pdl\cmsis/include/cmsis_gcc.h **** #ifndef   __STATIC_INLINE
  42:Generated_Source\PSoC6\pdl\cmsis/include/cmsis_gcc.h ****   #define __STATIC_INLINE           static inline
  43:Generated_Source\PSoC6\pdl\cmsis/include/cmsis_gcc.h **** #endif
  44:Generated_Source\PSoC6\pdl\cmsis/include/cmsis_gcc.h **** #ifndef   __NO_RETURN
  45:Generated_Source\PSoC6\pdl\cmsis/include/cmsis_gcc.h ****   #define __NO_RETURN               __attribute__((noreturn))
  46:Generated_Source\PSoC6\pdl\cmsis/include/cmsis_gcc.h **** #endif
  47:Generated_Source\PSoC6\pdl\cmsis/include/cmsis_gcc.h **** #ifndef   __USED
  48:Generated_Source\PSoC6\pdl\cmsis/include/cmsis_gcc.h ****   #define __USED                    __attribute__((used))
  49:Generated_Source\PSoC6\pdl\cmsis/include/cmsis_gcc.h **** #endif
  50:Generated_Source\PSoC6\pdl\cmsis/include/cmsis_gcc.h **** #ifndef   __WEAK
  51:Generated_Source\PSoC6\pdl\cmsis/include/cmsis_gcc.h ****   #define __WEAK                    __attribute__((weak))
  52:Generated_Source\PSoC6\pdl\cmsis/include/cmsis_gcc.h **** #endif
  53:Generated_Source\PSoC6\pdl\cmsis/include/cmsis_gcc.h **** #ifndef   __UNALIGNED_UINT32
  54:Generated_Source\PSoC6\pdl\cmsis/include/cmsis_gcc.h **** #pragma GCC diagnostic push
  55:Generated_Source\PSoC6\pdl\cmsis/include/cmsis_gcc.h **** #pragma GCC diagnostic ignored "-Wpacked"
  56:Generated_Source\PSoC6\pdl\cmsis/include/cmsis_gcc.h **** #pragma GCC diagnostic ignored "-Wattributes"
  57:Generated_Source\PSoC6\pdl\cmsis/include/cmsis_gcc.h ****   struct __attribute__((packed)) T_UINT32 { uint32_t v; };
  58:Generated_Source\PSoC6\pdl\cmsis/include/cmsis_gcc.h **** #pragma GCC diagnostic pop
  59:Generated_Source\PSoC6\pdl\cmsis/include/cmsis_gcc.h ****   #define __UNALIGNED_UINT32(x)     (((struct T_UINT32 *)(x))->v)
  60:Generated_Source\PSoC6\pdl\cmsis/include/cmsis_gcc.h **** #endif
  61:Generated_Source\PSoC6\pdl\cmsis/include/cmsis_gcc.h **** #ifndef   __ALIGNED
  62:Generated_Source\PSoC6\pdl\cmsis/include/cmsis_gcc.h ****   #define __ALIGNED(x)              __attribute__((aligned(x)))
  63:Generated_Source\PSoC6\pdl\cmsis/include/cmsis_gcc.h **** #endif
  64:Generated_Source\PSoC6\pdl\cmsis/include/cmsis_gcc.h **** #ifndef   __PACKED
  65:Generated_Source\PSoC6\pdl\cmsis/include/cmsis_gcc.h ****   #define __PACKED                  __attribute__((packed, aligned(1)))
  66:Generated_Source\PSoC6\pdl\cmsis/include/cmsis_gcc.h **** #endif
  67:Generated_Source\PSoC6\pdl\cmsis/include/cmsis_gcc.h **** #ifndef   __PACKED_STRUCT
  68:Generated_Source\PSoC6\pdl\cmsis/include/cmsis_gcc.h ****   #define __PACKED_STRUCT           struct __attribute__((packed, aligned(1)))
  69:Generated_Source\PSoC6\pdl\cmsis/include/cmsis_gcc.h **** #endif
  70:Generated_Source\PSoC6\pdl\cmsis/include/cmsis_gcc.h **** 
  71:Generated_Source\PSoC6\pdl\cmsis/include/cmsis_gcc.h **** 
  72:Generated_Source\PSoC6\pdl\cmsis/include/cmsis_gcc.h **** /* ###########################  Core Function Access  ########################### */
  73:Generated_Source\PSoC6\pdl\cmsis/include/cmsis_gcc.h **** /** \ingroup  CMSIS_Core_FunctionInterface
  74:Generated_Source\PSoC6\pdl\cmsis/include/cmsis_gcc.h ****     \defgroup CMSIS_Core_RegAccFunctions CMSIS Core Register Access Functions
  75:Generated_Source\PSoC6\pdl\cmsis/include/cmsis_gcc.h ****   @{
  76:Generated_Source\PSoC6\pdl\cmsis/include/cmsis_gcc.h ****  */
  77:Generated_Source\PSoC6\pdl\cmsis/include/cmsis_gcc.h **** 
  78:Generated_Source\PSoC6\pdl\cmsis/include/cmsis_gcc.h **** /**
  79:Generated_Source\PSoC6\pdl\cmsis/include/cmsis_gcc.h ****   \brief   Enable IRQ Interrupts
  80:Generated_Source\PSoC6\pdl\cmsis/include/cmsis_gcc.h ****   \details Enables IRQ interrupts by clearing the I-bit in the CPSR.
  81:Generated_Source\PSoC6\pdl\cmsis/include/cmsis_gcc.h ****            Can only be executed in Privileged modes.
ARM GAS  C:\Users\kiwamu\AppData\Local\Temp\ccE2Z6Jb.s 			page 28


  82:Generated_Source\PSoC6\pdl\cmsis/include/cmsis_gcc.h ****  */
  83:Generated_Source\PSoC6\pdl\cmsis/include/cmsis_gcc.h **** __attribute__((always_inline)) __STATIC_INLINE void __enable_irq(void)
  84:Generated_Source\PSoC6\pdl\cmsis/include/cmsis_gcc.h **** {
  85:Generated_Source\PSoC6\pdl\cmsis/include/cmsis_gcc.h ****   __ASM volatile ("cpsie i" : : : "memory");
  86:Generated_Source\PSoC6\pdl\cmsis/include/cmsis_gcc.h **** }
  87:Generated_Source\PSoC6\pdl\cmsis/include/cmsis_gcc.h **** 
  88:Generated_Source\PSoC6\pdl\cmsis/include/cmsis_gcc.h **** 
  89:Generated_Source\PSoC6\pdl\cmsis/include/cmsis_gcc.h **** /**
  90:Generated_Source\PSoC6\pdl\cmsis/include/cmsis_gcc.h ****   \brief   Disable IRQ Interrupts
  91:Generated_Source\PSoC6\pdl\cmsis/include/cmsis_gcc.h ****   \details Disables IRQ interrupts by setting the I-bit in the CPSR.
  92:Generated_Source\PSoC6\pdl\cmsis/include/cmsis_gcc.h ****            Can only be executed in Privileged modes.
  93:Generated_Source\PSoC6\pdl\cmsis/include/cmsis_gcc.h ****  */
  94:Generated_Source\PSoC6\pdl\cmsis/include/cmsis_gcc.h **** __attribute__((always_inline)) __STATIC_INLINE void __disable_irq(void)
  95:Generated_Source\PSoC6\pdl\cmsis/include/cmsis_gcc.h **** {
  96:Generated_Source\PSoC6\pdl\cmsis/include/cmsis_gcc.h ****   __ASM volatile ("cpsid i" : : : "memory");
  97:Generated_Source\PSoC6\pdl\cmsis/include/cmsis_gcc.h **** }
  98:Generated_Source\PSoC6\pdl\cmsis/include/cmsis_gcc.h **** 
  99:Generated_Source\PSoC6\pdl\cmsis/include/cmsis_gcc.h **** 
 100:Generated_Source\PSoC6\pdl\cmsis/include/cmsis_gcc.h **** /**
 101:Generated_Source\PSoC6\pdl\cmsis/include/cmsis_gcc.h ****   \brief   Get Control Register
 102:Generated_Source\PSoC6\pdl\cmsis/include/cmsis_gcc.h ****   \details Returns the content of the Control Register.
 103:Generated_Source\PSoC6\pdl\cmsis/include/cmsis_gcc.h ****   \return               Control Register value
 104:Generated_Source\PSoC6\pdl\cmsis/include/cmsis_gcc.h ****  */
 105:Generated_Source\PSoC6\pdl\cmsis/include/cmsis_gcc.h **** __attribute__((always_inline)) __STATIC_INLINE uint32_t __get_CONTROL(void)
 106:Generated_Source\PSoC6\pdl\cmsis/include/cmsis_gcc.h **** {
 107:Generated_Source\PSoC6\pdl\cmsis/include/cmsis_gcc.h ****   uint32_t result;
 108:Generated_Source\PSoC6\pdl\cmsis/include/cmsis_gcc.h **** 
 109:Generated_Source\PSoC6\pdl\cmsis/include/cmsis_gcc.h ****   __ASM volatile ("MRS %0, control" : "=r" (result) );
 110:Generated_Source\PSoC6\pdl\cmsis/include/cmsis_gcc.h ****   return(result);
 111:Generated_Source\PSoC6\pdl\cmsis/include/cmsis_gcc.h **** }
 112:Generated_Source\PSoC6\pdl\cmsis/include/cmsis_gcc.h **** 
 113:Generated_Source\PSoC6\pdl\cmsis/include/cmsis_gcc.h **** 
 114:Generated_Source\PSoC6\pdl\cmsis/include/cmsis_gcc.h **** #if (defined (__ARM_FEATURE_CMSE ) && (__ARM_FEATURE_CMSE == 3))
 115:Generated_Source\PSoC6\pdl\cmsis/include/cmsis_gcc.h **** /**
 116:Generated_Source\PSoC6\pdl\cmsis/include/cmsis_gcc.h ****   \brief   Get Control Register (non-secure)
 117:Generated_Source\PSoC6\pdl\cmsis/include/cmsis_gcc.h ****   \details Returns the content of the non-secure Control Register when in secure mode.
 118:Generated_Source\PSoC6\pdl\cmsis/include/cmsis_gcc.h ****   \return               non-secure Control Register value
 119:Generated_Source\PSoC6\pdl\cmsis/include/cmsis_gcc.h ****  */
 120:Generated_Source\PSoC6\pdl\cmsis/include/cmsis_gcc.h **** __attribute__((always_inline)) __STATIC_INLINE uint32_t __TZ_get_CONTROL_NS(void)
 121:Generated_Source\PSoC6\pdl\cmsis/include/cmsis_gcc.h **** {
 122:Generated_Source\PSoC6\pdl\cmsis/include/cmsis_gcc.h ****   uint32_t result;
 123:Generated_Source\PSoC6\pdl\cmsis/include/cmsis_gcc.h **** 
 124:Generated_Source\PSoC6\pdl\cmsis/include/cmsis_gcc.h ****   __ASM volatile ("MRS %0, control_ns" : "=r" (result) );
 125:Generated_Source\PSoC6\pdl\cmsis/include/cmsis_gcc.h ****   return(result);
 126:Generated_Source\PSoC6\pdl\cmsis/include/cmsis_gcc.h **** }
 127:Generated_Source\PSoC6\pdl\cmsis/include/cmsis_gcc.h **** #endif
 128:Generated_Source\PSoC6\pdl\cmsis/include/cmsis_gcc.h **** 
 129:Generated_Source\PSoC6\pdl\cmsis/include/cmsis_gcc.h **** 
 130:Generated_Source\PSoC6\pdl\cmsis/include/cmsis_gcc.h **** /**
 131:Generated_Source\PSoC6\pdl\cmsis/include/cmsis_gcc.h ****   \brief   Set Control Register
 132:Generated_Source\PSoC6\pdl\cmsis/include/cmsis_gcc.h ****   \details Writes the given value to the Control Register.
 133:Generated_Source\PSoC6\pdl\cmsis/include/cmsis_gcc.h ****   \param [in]    control  Control Register value to set
 134:Generated_Source\PSoC6\pdl\cmsis/include/cmsis_gcc.h ****  */
 135:Generated_Source\PSoC6\pdl\cmsis/include/cmsis_gcc.h **** __attribute__((always_inline)) __STATIC_INLINE void __set_CONTROL(uint32_t control)
 136:Generated_Source\PSoC6\pdl\cmsis/include/cmsis_gcc.h **** {
 137:Generated_Source\PSoC6\pdl\cmsis/include/cmsis_gcc.h ****   __ASM volatile ("MSR control, %0" : : "r" (control) : "memory");
 138:Generated_Source\PSoC6\pdl\cmsis/include/cmsis_gcc.h **** }
ARM GAS  C:\Users\kiwamu\AppData\Local\Temp\ccE2Z6Jb.s 			page 29


 139:Generated_Source\PSoC6\pdl\cmsis/include/cmsis_gcc.h **** 
 140:Generated_Source\PSoC6\pdl\cmsis/include/cmsis_gcc.h **** 
 141:Generated_Source\PSoC6\pdl\cmsis/include/cmsis_gcc.h **** #if (defined (__ARM_FEATURE_CMSE ) && (__ARM_FEATURE_CMSE == 3))
 142:Generated_Source\PSoC6\pdl\cmsis/include/cmsis_gcc.h **** /**
 143:Generated_Source\PSoC6\pdl\cmsis/include/cmsis_gcc.h ****   \brief   Set Control Register (non-secure)
 144:Generated_Source\PSoC6\pdl\cmsis/include/cmsis_gcc.h ****   \details Writes the given value to the non-secure Control Register when in secure state.
 145:Generated_Source\PSoC6\pdl\cmsis/include/cmsis_gcc.h ****   \param [in]    control  Control Register value to set
 146:Generated_Source\PSoC6\pdl\cmsis/include/cmsis_gcc.h ****  */
 147:Generated_Source\PSoC6\pdl\cmsis/include/cmsis_gcc.h **** __attribute__((always_inline)) __STATIC_INLINE void __TZ_set_CONTROL_NS(uint32_t control)
 148:Generated_Source\PSoC6\pdl\cmsis/include/cmsis_gcc.h **** {
 149:Generated_Source\PSoC6\pdl\cmsis/include/cmsis_gcc.h ****   __ASM volatile ("MSR control_ns, %0" : : "r" (control) : "memory");
 150:Generated_Source\PSoC6\pdl\cmsis/include/cmsis_gcc.h **** }
 151:Generated_Source\PSoC6\pdl\cmsis/include/cmsis_gcc.h **** #endif
 152:Generated_Source\PSoC6\pdl\cmsis/include/cmsis_gcc.h **** 
 153:Generated_Source\PSoC6\pdl\cmsis/include/cmsis_gcc.h **** 
 154:Generated_Source\PSoC6\pdl\cmsis/include/cmsis_gcc.h **** /**
 155:Generated_Source\PSoC6\pdl\cmsis/include/cmsis_gcc.h ****   \brief   Get IPSR Register
 156:Generated_Source\PSoC6\pdl\cmsis/include/cmsis_gcc.h ****   \details Returns the content of the IPSR Register.
 157:Generated_Source\PSoC6\pdl\cmsis/include/cmsis_gcc.h ****   \return               IPSR Register value
 158:Generated_Source\PSoC6\pdl\cmsis/include/cmsis_gcc.h ****  */
 159:Generated_Source\PSoC6\pdl\cmsis/include/cmsis_gcc.h **** __attribute__((always_inline)) __STATIC_INLINE uint32_t __get_IPSR(void)
 160:Generated_Source\PSoC6\pdl\cmsis/include/cmsis_gcc.h **** {
 161:Generated_Source\PSoC6\pdl\cmsis/include/cmsis_gcc.h ****   uint32_t result;
 162:Generated_Source\PSoC6\pdl\cmsis/include/cmsis_gcc.h **** 
 163:Generated_Source\PSoC6\pdl\cmsis/include/cmsis_gcc.h ****   __ASM volatile ("MRS %0, ipsr" : "=r" (result) );
 164:Generated_Source\PSoC6\pdl\cmsis/include/cmsis_gcc.h ****   return(result);
 165:Generated_Source\PSoC6\pdl\cmsis/include/cmsis_gcc.h **** }
 166:Generated_Source\PSoC6\pdl\cmsis/include/cmsis_gcc.h **** 
 167:Generated_Source\PSoC6\pdl\cmsis/include/cmsis_gcc.h **** 
 168:Generated_Source\PSoC6\pdl\cmsis/include/cmsis_gcc.h **** /**
 169:Generated_Source\PSoC6\pdl\cmsis/include/cmsis_gcc.h ****   \brief   Get APSR Register
 170:Generated_Source\PSoC6\pdl\cmsis/include/cmsis_gcc.h ****   \details Returns the content of the APSR Register.
 171:Generated_Source\PSoC6\pdl\cmsis/include/cmsis_gcc.h ****   \return               APSR Register value
 172:Generated_Source\PSoC6\pdl\cmsis/include/cmsis_gcc.h ****  */
 173:Generated_Source\PSoC6\pdl\cmsis/include/cmsis_gcc.h **** __attribute__((always_inline)) __STATIC_INLINE uint32_t __get_APSR(void)
 174:Generated_Source\PSoC6\pdl\cmsis/include/cmsis_gcc.h **** {
 175:Generated_Source\PSoC6\pdl\cmsis/include/cmsis_gcc.h ****   uint32_t result;
 176:Generated_Source\PSoC6\pdl\cmsis/include/cmsis_gcc.h **** 
 177:Generated_Source\PSoC6\pdl\cmsis/include/cmsis_gcc.h ****   __ASM volatile ("MRS %0, apsr" : "=r" (result) );
 178:Generated_Source\PSoC6\pdl\cmsis/include/cmsis_gcc.h ****   return(result);
 179:Generated_Source\PSoC6\pdl\cmsis/include/cmsis_gcc.h **** }
 180:Generated_Source\PSoC6\pdl\cmsis/include/cmsis_gcc.h **** 
 181:Generated_Source\PSoC6\pdl\cmsis/include/cmsis_gcc.h **** 
 182:Generated_Source\PSoC6\pdl\cmsis/include/cmsis_gcc.h **** /**
 183:Generated_Source\PSoC6\pdl\cmsis/include/cmsis_gcc.h ****   \brief   Get xPSR Register
 184:Generated_Source\PSoC6\pdl\cmsis/include/cmsis_gcc.h ****   \details Returns the content of the xPSR Register.
 185:Generated_Source\PSoC6\pdl\cmsis/include/cmsis_gcc.h ****   \return               xPSR Register value
 186:Generated_Source\PSoC6\pdl\cmsis/include/cmsis_gcc.h ****  */
 187:Generated_Source\PSoC6\pdl\cmsis/include/cmsis_gcc.h **** __attribute__((always_inline)) __STATIC_INLINE uint32_t __get_xPSR(void)
 188:Generated_Source\PSoC6\pdl\cmsis/include/cmsis_gcc.h **** {
 189:Generated_Source\PSoC6\pdl\cmsis/include/cmsis_gcc.h ****   uint32_t result;
 190:Generated_Source\PSoC6\pdl\cmsis/include/cmsis_gcc.h **** 
 191:Generated_Source\PSoC6\pdl\cmsis/include/cmsis_gcc.h ****   __ASM volatile ("MRS %0, xpsr" : "=r" (result) );
 192:Generated_Source\PSoC6\pdl\cmsis/include/cmsis_gcc.h ****   return(result);
 193:Generated_Source\PSoC6\pdl\cmsis/include/cmsis_gcc.h **** }
 194:Generated_Source\PSoC6\pdl\cmsis/include/cmsis_gcc.h **** 
 195:Generated_Source\PSoC6\pdl\cmsis/include/cmsis_gcc.h **** 
ARM GAS  C:\Users\kiwamu\AppData\Local\Temp\ccE2Z6Jb.s 			page 30


 196:Generated_Source\PSoC6\pdl\cmsis/include/cmsis_gcc.h **** /**
 197:Generated_Source\PSoC6\pdl\cmsis/include/cmsis_gcc.h ****   \brief   Get Process Stack Pointer
 198:Generated_Source\PSoC6\pdl\cmsis/include/cmsis_gcc.h ****   \details Returns the current value of the Process Stack Pointer (PSP).
 199:Generated_Source\PSoC6\pdl\cmsis/include/cmsis_gcc.h ****   \return               PSP Register value
 200:Generated_Source\PSoC6\pdl\cmsis/include/cmsis_gcc.h ****  */
 201:Generated_Source\PSoC6\pdl\cmsis/include/cmsis_gcc.h **** __attribute__((always_inline)) __STATIC_INLINE uint32_t __get_PSP(void)
 202:Generated_Source\PSoC6\pdl\cmsis/include/cmsis_gcc.h **** {
 203:Generated_Source\PSoC6\pdl\cmsis/include/cmsis_gcc.h ****   register uint32_t result;
 204:Generated_Source\PSoC6\pdl\cmsis/include/cmsis_gcc.h **** 
 205:Generated_Source\PSoC6\pdl\cmsis/include/cmsis_gcc.h ****   __ASM volatile ("MRS %0, psp"  : "=r" (result) );
 206:Generated_Source\PSoC6\pdl\cmsis/include/cmsis_gcc.h ****   return(result);
 207:Generated_Source\PSoC6\pdl\cmsis/include/cmsis_gcc.h **** }
 208:Generated_Source\PSoC6\pdl\cmsis/include/cmsis_gcc.h **** 
 209:Generated_Source\PSoC6\pdl\cmsis/include/cmsis_gcc.h **** 
 210:Generated_Source\PSoC6\pdl\cmsis/include/cmsis_gcc.h **** #if (defined (__ARM_FEATURE_CMSE ) && (__ARM_FEATURE_CMSE == 3))
 211:Generated_Source\PSoC6\pdl\cmsis/include/cmsis_gcc.h **** /**
 212:Generated_Source\PSoC6\pdl\cmsis/include/cmsis_gcc.h ****   \brief   Get Process Stack Pointer (non-secure)
 213:Generated_Source\PSoC6\pdl\cmsis/include/cmsis_gcc.h ****   \details Returns the current value of the non-secure Process Stack Pointer (PSP) when in secure s
 214:Generated_Source\PSoC6\pdl\cmsis/include/cmsis_gcc.h ****   \return               PSP Register value
 215:Generated_Source\PSoC6\pdl\cmsis/include/cmsis_gcc.h ****  */
 216:Generated_Source\PSoC6\pdl\cmsis/include/cmsis_gcc.h **** __attribute__((always_inline)) __STATIC_INLINE uint32_t __TZ_get_PSP_NS(void)
 217:Generated_Source\PSoC6\pdl\cmsis/include/cmsis_gcc.h **** {
 218:Generated_Source\PSoC6\pdl\cmsis/include/cmsis_gcc.h ****   register uint32_t result;
 219:Generated_Source\PSoC6\pdl\cmsis/include/cmsis_gcc.h **** 
 220:Generated_Source\PSoC6\pdl\cmsis/include/cmsis_gcc.h ****   __ASM volatile ("MRS %0, psp_ns"  : "=r" (result) );
 221:Generated_Source\PSoC6\pdl\cmsis/include/cmsis_gcc.h ****   return(result);
 222:Generated_Source\PSoC6\pdl\cmsis/include/cmsis_gcc.h **** }
 223:Generated_Source\PSoC6\pdl\cmsis/include/cmsis_gcc.h **** #endif
 224:Generated_Source\PSoC6\pdl\cmsis/include/cmsis_gcc.h **** 
 225:Generated_Source\PSoC6\pdl\cmsis/include/cmsis_gcc.h **** 
 226:Generated_Source\PSoC6\pdl\cmsis/include/cmsis_gcc.h **** /**
 227:Generated_Source\PSoC6\pdl\cmsis/include/cmsis_gcc.h ****   \brief   Set Process Stack Pointer
 228:Generated_Source\PSoC6\pdl\cmsis/include/cmsis_gcc.h ****   \details Assigns the given value to the Process Stack Pointer (PSP).
 229:Generated_Source\PSoC6\pdl\cmsis/include/cmsis_gcc.h ****   \param [in]    topOfProcStack  Process Stack Pointer value to set
 230:Generated_Source\PSoC6\pdl\cmsis/include/cmsis_gcc.h ****  */
 231:Generated_Source\PSoC6\pdl\cmsis/include/cmsis_gcc.h **** __attribute__((always_inline)) __STATIC_INLINE void __set_PSP(uint32_t topOfProcStack)
 232:Generated_Source\PSoC6\pdl\cmsis/include/cmsis_gcc.h **** {
 233:Generated_Source\PSoC6\pdl\cmsis/include/cmsis_gcc.h ****   __ASM volatile ("MSR psp, %0" : : "r" (topOfProcStack) : );
 234:Generated_Source\PSoC6\pdl\cmsis/include/cmsis_gcc.h **** }
 235:Generated_Source\PSoC6\pdl\cmsis/include/cmsis_gcc.h **** 
 236:Generated_Source\PSoC6\pdl\cmsis/include/cmsis_gcc.h **** 
 237:Generated_Source\PSoC6\pdl\cmsis/include/cmsis_gcc.h **** #if (defined (__ARM_FEATURE_CMSE ) && (__ARM_FEATURE_CMSE == 3))
 238:Generated_Source\PSoC6\pdl\cmsis/include/cmsis_gcc.h **** /**
 239:Generated_Source\PSoC6\pdl\cmsis/include/cmsis_gcc.h ****   \brief   Set Process Stack Pointer (non-secure)
 240:Generated_Source\PSoC6\pdl\cmsis/include/cmsis_gcc.h ****   \details Assigns the given value to the non-secure Process Stack Pointer (PSP) when in secure sta
 241:Generated_Source\PSoC6\pdl\cmsis/include/cmsis_gcc.h ****   \param [in]    topOfProcStack  Process Stack Pointer value to set
 242:Generated_Source\PSoC6\pdl\cmsis/include/cmsis_gcc.h ****  */
 243:Generated_Source\PSoC6\pdl\cmsis/include/cmsis_gcc.h **** __attribute__((always_inline)) __STATIC_INLINE void __TZ_set_PSP_NS(uint32_t topOfProcStack)
 244:Generated_Source\PSoC6\pdl\cmsis/include/cmsis_gcc.h **** {
 245:Generated_Source\PSoC6\pdl\cmsis/include/cmsis_gcc.h ****   __ASM volatile ("MSR psp_ns, %0" : : "r" (topOfProcStack) : );
 246:Generated_Source\PSoC6\pdl\cmsis/include/cmsis_gcc.h **** }
 247:Generated_Source\PSoC6\pdl\cmsis/include/cmsis_gcc.h **** #endif
 248:Generated_Source\PSoC6\pdl\cmsis/include/cmsis_gcc.h **** 
 249:Generated_Source\PSoC6\pdl\cmsis/include/cmsis_gcc.h **** 
 250:Generated_Source\PSoC6\pdl\cmsis/include/cmsis_gcc.h **** /**
 251:Generated_Source\PSoC6\pdl\cmsis/include/cmsis_gcc.h ****   \brief   Get Main Stack Pointer
 252:Generated_Source\PSoC6\pdl\cmsis/include/cmsis_gcc.h ****   \details Returns the current value of the Main Stack Pointer (MSP).
ARM GAS  C:\Users\kiwamu\AppData\Local\Temp\ccE2Z6Jb.s 			page 31


 253:Generated_Source\PSoC6\pdl\cmsis/include/cmsis_gcc.h ****   \return               MSP Register value
 254:Generated_Source\PSoC6\pdl\cmsis/include/cmsis_gcc.h ****  */
 255:Generated_Source\PSoC6\pdl\cmsis/include/cmsis_gcc.h **** __attribute__((always_inline)) __STATIC_INLINE uint32_t __get_MSP(void)
 256:Generated_Source\PSoC6\pdl\cmsis/include/cmsis_gcc.h **** {
 257:Generated_Source\PSoC6\pdl\cmsis/include/cmsis_gcc.h ****   register uint32_t result;
 258:Generated_Source\PSoC6\pdl\cmsis/include/cmsis_gcc.h **** 
 259:Generated_Source\PSoC6\pdl\cmsis/include/cmsis_gcc.h ****   __ASM volatile ("MRS %0, msp" : "=r" (result) );
 260:Generated_Source\PSoC6\pdl\cmsis/include/cmsis_gcc.h ****   return(result);
 261:Generated_Source\PSoC6\pdl\cmsis/include/cmsis_gcc.h **** }
 262:Generated_Source\PSoC6\pdl\cmsis/include/cmsis_gcc.h **** 
 263:Generated_Source\PSoC6\pdl\cmsis/include/cmsis_gcc.h **** 
 264:Generated_Source\PSoC6\pdl\cmsis/include/cmsis_gcc.h **** #if (defined (__ARM_FEATURE_CMSE ) && (__ARM_FEATURE_CMSE == 3))
 265:Generated_Source\PSoC6\pdl\cmsis/include/cmsis_gcc.h **** /**
 266:Generated_Source\PSoC6\pdl\cmsis/include/cmsis_gcc.h ****   \brief   Get Main Stack Pointer (non-secure)
 267:Generated_Source\PSoC6\pdl\cmsis/include/cmsis_gcc.h ****   \details Returns the current value of the non-secure Main Stack Pointer (MSP) when in secure stat
 268:Generated_Source\PSoC6\pdl\cmsis/include/cmsis_gcc.h ****   \return               MSP Register value
 269:Generated_Source\PSoC6\pdl\cmsis/include/cmsis_gcc.h ****  */
 270:Generated_Source\PSoC6\pdl\cmsis/include/cmsis_gcc.h **** __attribute__((always_inline)) __STATIC_INLINE uint32_t __TZ_get_MSP_NS(void)
 271:Generated_Source\PSoC6\pdl\cmsis/include/cmsis_gcc.h **** {
 272:Generated_Source\PSoC6\pdl\cmsis/include/cmsis_gcc.h ****   register uint32_t result;
 273:Generated_Source\PSoC6\pdl\cmsis/include/cmsis_gcc.h **** 
 274:Generated_Source\PSoC6\pdl\cmsis/include/cmsis_gcc.h ****   __ASM volatile ("MRS %0, msp_ns" : "=r" (result) );
 275:Generated_Source\PSoC6\pdl\cmsis/include/cmsis_gcc.h ****   return(result);
 276:Generated_Source\PSoC6\pdl\cmsis/include/cmsis_gcc.h **** }
 277:Generated_Source\PSoC6\pdl\cmsis/include/cmsis_gcc.h **** #endif
 278:Generated_Source\PSoC6\pdl\cmsis/include/cmsis_gcc.h **** 
 279:Generated_Source\PSoC6\pdl\cmsis/include/cmsis_gcc.h **** 
 280:Generated_Source\PSoC6\pdl\cmsis/include/cmsis_gcc.h **** /**
 281:Generated_Source\PSoC6\pdl\cmsis/include/cmsis_gcc.h ****   \brief   Set Main Stack Pointer
 282:Generated_Source\PSoC6\pdl\cmsis/include/cmsis_gcc.h ****   \details Assigns the given value to the Main Stack Pointer (MSP).
 283:Generated_Source\PSoC6\pdl\cmsis/include/cmsis_gcc.h ****   \param [in]    topOfMainStack  Main Stack Pointer value to set
 284:Generated_Source\PSoC6\pdl\cmsis/include/cmsis_gcc.h ****  */
 285:Generated_Source\PSoC6\pdl\cmsis/include/cmsis_gcc.h **** __attribute__((always_inline)) __STATIC_INLINE void __set_MSP(uint32_t topOfMainStack)
 286:Generated_Source\PSoC6\pdl\cmsis/include/cmsis_gcc.h **** {
 287:Generated_Source\PSoC6\pdl\cmsis/include/cmsis_gcc.h ****   __ASM volatile ("MSR msp, %0" : : "r" (topOfMainStack) : );
 288:Generated_Source\PSoC6\pdl\cmsis/include/cmsis_gcc.h **** }
 289:Generated_Source\PSoC6\pdl\cmsis/include/cmsis_gcc.h **** 
 290:Generated_Source\PSoC6\pdl\cmsis/include/cmsis_gcc.h **** 
 291:Generated_Source\PSoC6\pdl\cmsis/include/cmsis_gcc.h **** #if (defined (__ARM_FEATURE_CMSE ) && (__ARM_FEATURE_CMSE == 3))
 292:Generated_Source\PSoC6\pdl\cmsis/include/cmsis_gcc.h **** /**
 293:Generated_Source\PSoC6\pdl\cmsis/include/cmsis_gcc.h ****   \brief   Set Main Stack Pointer (non-secure)
 294:Generated_Source\PSoC6\pdl\cmsis/include/cmsis_gcc.h ****   \details Assigns the given value to the non-secure Main Stack Pointer (MSP) when in secure state.
 295:Generated_Source\PSoC6\pdl\cmsis/include/cmsis_gcc.h ****   \param [in]    topOfMainStack  Main Stack Pointer value to set
 296:Generated_Source\PSoC6\pdl\cmsis/include/cmsis_gcc.h ****  */
 297:Generated_Source\PSoC6\pdl\cmsis/include/cmsis_gcc.h **** __attribute__((always_inline)) __STATIC_INLINE void __TZ_set_MSP_NS(uint32_t topOfMainStack)
 298:Generated_Source\PSoC6\pdl\cmsis/include/cmsis_gcc.h **** {
 299:Generated_Source\PSoC6\pdl\cmsis/include/cmsis_gcc.h ****   __ASM volatile ("MSR msp_ns, %0" : : "r" (topOfMainStack) : );
 300:Generated_Source\PSoC6\pdl\cmsis/include/cmsis_gcc.h **** }
 301:Generated_Source\PSoC6\pdl\cmsis/include/cmsis_gcc.h **** #endif
 302:Generated_Source\PSoC6\pdl\cmsis/include/cmsis_gcc.h **** 
 303:Generated_Source\PSoC6\pdl\cmsis/include/cmsis_gcc.h **** 
 304:Generated_Source\PSoC6\pdl\cmsis/include/cmsis_gcc.h **** /**
 305:Generated_Source\PSoC6\pdl\cmsis/include/cmsis_gcc.h ****   \brief   Get Priority Mask
 306:Generated_Source\PSoC6\pdl\cmsis/include/cmsis_gcc.h ****   \details Returns the current state of the priority mask bit from the Priority Mask Register.
 307:Generated_Source\PSoC6\pdl\cmsis/include/cmsis_gcc.h ****   \return               Priority Mask value
 308:Generated_Source\PSoC6\pdl\cmsis/include/cmsis_gcc.h ****  */
 309:Generated_Source\PSoC6\pdl\cmsis/include/cmsis_gcc.h **** __attribute__((always_inline)) __STATIC_INLINE uint32_t __get_PRIMASK(void)
ARM GAS  C:\Users\kiwamu\AppData\Local\Temp\ccE2Z6Jb.s 			page 32


 310:Generated_Source\PSoC6\pdl\cmsis/include/cmsis_gcc.h **** {
 311:Generated_Source\PSoC6\pdl\cmsis/include/cmsis_gcc.h ****   uint32_t result;
 312:Generated_Source\PSoC6\pdl\cmsis/include/cmsis_gcc.h **** 
 313:Generated_Source\PSoC6\pdl\cmsis/include/cmsis_gcc.h ****   __ASM volatile ("MRS %0, primask" : "=r" (result) );
 314:Generated_Source\PSoC6\pdl\cmsis/include/cmsis_gcc.h ****   return(result);
 315:Generated_Source\PSoC6\pdl\cmsis/include/cmsis_gcc.h **** }
 316:Generated_Source\PSoC6\pdl\cmsis/include/cmsis_gcc.h **** 
 317:Generated_Source\PSoC6\pdl\cmsis/include/cmsis_gcc.h **** 
 318:Generated_Source\PSoC6\pdl\cmsis/include/cmsis_gcc.h **** #if (defined (__ARM_FEATURE_CMSE ) && (__ARM_FEATURE_CMSE == 3))
 319:Generated_Source\PSoC6\pdl\cmsis/include/cmsis_gcc.h **** /**
 320:Generated_Source\PSoC6\pdl\cmsis/include/cmsis_gcc.h ****   \brief   Get Priority Mask (non-secure)
 321:Generated_Source\PSoC6\pdl\cmsis/include/cmsis_gcc.h ****   \details Returns the current state of the non-secure priority mask bit from the Priority Mask Reg
 322:Generated_Source\PSoC6\pdl\cmsis/include/cmsis_gcc.h ****   \return               Priority Mask value
 323:Generated_Source\PSoC6\pdl\cmsis/include/cmsis_gcc.h ****  */
 324:Generated_Source\PSoC6\pdl\cmsis/include/cmsis_gcc.h **** __attribute__((always_inline)) __STATIC_INLINE uint32_t __TZ_get_PRIMASK_NS(void)
 325:Generated_Source\PSoC6\pdl\cmsis/include/cmsis_gcc.h **** {
 326:Generated_Source\PSoC6\pdl\cmsis/include/cmsis_gcc.h ****   uint32_t result;
 327:Generated_Source\PSoC6\pdl\cmsis/include/cmsis_gcc.h **** 
 328:Generated_Source\PSoC6\pdl\cmsis/include/cmsis_gcc.h ****   __ASM volatile ("MRS %0, primask_ns" : "=r" (result) );
 329:Generated_Source\PSoC6\pdl\cmsis/include/cmsis_gcc.h ****   return(result);
 330:Generated_Source\PSoC6\pdl\cmsis/include/cmsis_gcc.h **** }
 331:Generated_Source\PSoC6\pdl\cmsis/include/cmsis_gcc.h **** #endif
 332:Generated_Source\PSoC6\pdl\cmsis/include/cmsis_gcc.h **** 
 333:Generated_Source\PSoC6\pdl\cmsis/include/cmsis_gcc.h **** 
 334:Generated_Source\PSoC6\pdl\cmsis/include/cmsis_gcc.h **** /**
 335:Generated_Source\PSoC6\pdl\cmsis/include/cmsis_gcc.h ****   \brief   Set Priority Mask
 336:Generated_Source\PSoC6\pdl\cmsis/include/cmsis_gcc.h ****   \details Assigns the given value to the Priority Mask Register.
 337:Generated_Source\PSoC6\pdl\cmsis/include/cmsis_gcc.h ****   \param [in]    priMask  Priority Mask
 338:Generated_Source\PSoC6\pdl\cmsis/include/cmsis_gcc.h ****  */
 339:Generated_Source\PSoC6\pdl\cmsis/include/cmsis_gcc.h **** __attribute__((always_inline)) __STATIC_INLINE void __set_PRIMASK(uint32_t priMask)
 340:Generated_Source\PSoC6\pdl\cmsis/include/cmsis_gcc.h **** {
 341:Generated_Source\PSoC6\pdl\cmsis/include/cmsis_gcc.h ****   __ASM volatile ("MSR primask, %0" : : "r" (priMask) : "memory");
 342:Generated_Source\PSoC6\pdl\cmsis/include/cmsis_gcc.h **** }
 343:Generated_Source\PSoC6\pdl\cmsis/include/cmsis_gcc.h **** 
 344:Generated_Source\PSoC6\pdl\cmsis/include/cmsis_gcc.h **** 
 345:Generated_Source\PSoC6\pdl\cmsis/include/cmsis_gcc.h **** #if (defined (__ARM_FEATURE_CMSE ) && (__ARM_FEATURE_CMSE == 3))
 346:Generated_Source\PSoC6\pdl\cmsis/include/cmsis_gcc.h **** /**
 347:Generated_Source\PSoC6\pdl\cmsis/include/cmsis_gcc.h ****   \brief   Set Priority Mask (non-secure)
 348:Generated_Source\PSoC6\pdl\cmsis/include/cmsis_gcc.h ****   \details Assigns the given value to the non-secure Priority Mask Register when in secure state.
 349:Generated_Source\PSoC6\pdl\cmsis/include/cmsis_gcc.h ****   \param [in]    priMask  Priority Mask
 350:Generated_Source\PSoC6\pdl\cmsis/include/cmsis_gcc.h ****  */
 351:Generated_Source\PSoC6\pdl\cmsis/include/cmsis_gcc.h **** __attribute__((always_inline)) __STATIC_INLINE void __TZ_set_PRIMASK_NS(uint32_t priMask)
 352:Generated_Source\PSoC6\pdl\cmsis/include/cmsis_gcc.h **** {
 353:Generated_Source\PSoC6\pdl\cmsis/include/cmsis_gcc.h ****   __ASM volatile ("MSR primask_ns, %0" : : "r" (priMask) : "memory");
 354:Generated_Source\PSoC6\pdl\cmsis/include/cmsis_gcc.h **** }
 355:Generated_Source\PSoC6\pdl\cmsis/include/cmsis_gcc.h **** #endif
 356:Generated_Source\PSoC6\pdl\cmsis/include/cmsis_gcc.h **** 
 357:Generated_Source\PSoC6\pdl\cmsis/include/cmsis_gcc.h **** 
 358:Generated_Source\PSoC6\pdl\cmsis/include/cmsis_gcc.h **** #if ((defined (__ARM_ARCH_7M__      ) && (__ARM_ARCH_7M__      == 1)) || \
 359:Generated_Source\PSoC6\pdl\cmsis/include/cmsis_gcc.h ****      (defined (__ARM_ARCH_7EM__     ) && (__ARM_ARCH_7EM__     == 1)) || \
 360:Generated_Source\PSoC6\pdl\cmsis/include/cmsis_gcc.h ****      (defined (__ARM_ARCH_8M_MAIN__ ) && (__ARM_ARCH_8M_MAIN__ == 1))    )
 361:Generated_Source\PSoC6\pdl\cmsis/include/cmsis_gcc.h **** /**
 362:Generated_Source\PSoC6\pdl\cmsis/include/cmsis_gcc.h ****   \brief   Enable FIQ
 363:Generated_Source\PSoC6\pdl\cmsis/include/cmsis_gcc.h ****   \details Enables FIQ interrupts by clearing the F-bit in the CPSR.
 364:Generated_Source\PSoC6\pdl\cmsis/include/cmsis_gcc.h ****            Can only be executed in Privileged modes.
 365:Generated_Source\PSoC6\pdl\cmsis/include/cmsis_gcc.h ****  */
 366:Generated_Source\PSoC6\pdl\cmsis/include/cmsis_gcc.h **** __attribute__((always_inline)) __STATIC_INLINE void __enable_fault_irq(void)
ARM GAS  C:\Users\kiwamu\AppData\Local\Temp\ccE2Z6Jb.s 			page 33


 367:Generated_Source\PSoC6\pdl\cmsis/include/cmsis_gcc.h **** {
 368:Generated_Source\PSoC6\pdl\cmsis/include/cmsis_gcc.h ****   __ASM volatile ("cpsie f" : : : "memory");
 369:Generated_Source\PSoC6\pdl\cmsis/include/cmsis_gcc.h **** }
 370:Generated_Source\PSoC6\pdl\cmsis/include/cmsis_gcc.h **** 
 371:Generated_Source\PSoC6\pdl\cmsis/include/cmsis_gcc.h **** 
 372:Generated_Source\PSoC6\pdl\cmsis/include/cmsis_gcc.h **** /**
 373:Generated_Source\PSoC6\pdl\cmsis/include/cmsis_gcc.h ****   \brief   Disable FIQ
 374:Generated_Source\PSoC6\pdl\cmsis/include/cmsis_gcc.h ****   \details Disables FIQ interrupts by setting the F-bit in the CPSR.
 375:Generated_Source\PSoC6\pdl\cmsis/include/cmsis_gcc.h ****            Can only be executed in Privileged modes.
 376:Generated_Source\PSoC6\pdl\cmsis/include/cmsis_gcc.h ****  */
 377:Generated_Source\PSoC6\pdl\cmsis/include/cmsis_gcc.h **** __attribute__((always_inline)) __STATIC_INLINE void __disable_fault_irq(void)
 378:Generated_Source\PSoC6\pdl\cmsis/include/cmsis_gcc.h **** {
 379:Generated_Source\PSoC6\pdl\cmsis/include/cmsis_gcc.h ****   __ASM volatile ("cpsid f" : : : "memory");
 380:Generated_Source\PSoC6\pdl\cmsis/include/cmsis_gcc.h **** }
 381:Generated_Source\PSoC6\pdl\cmsis/include/cmsis_gcc.h **** 
 382:Generated_Source\PSoC6\pdl\cmsis/include/cmsis_gcc.h **** 
 383:Generated_Source\PSoC6\pdl\cmsis/include/cmsis_gcc.h **** /**
 384:Generated_Source\PSoC6\pdl\cmsis/include/cmsis_gcc.h ****   \brief   Get Base Priority
 385:Generated_Source\PSoC6\pdl\cmsis/include/cmsis_gcc.h ****   \details Returns the current value of the Base Priority register.
 386:Generated_Source\PSoC6\pdl\cmsis/include/cmsis_gcc.h ****   \return               Base Priority register value
 387:Generated_Source\PSoC6\pdl\cmsis/include/cmsis_gcc.h ****  */
 388:Generated_Source\PSoC6\pdl\cmsis/include/cmsis_gcc.h **** __attribute__((always_inline)) __STATIC_INLINE uint32_t __get_BASEPRI(void)
 389:Generated_Source\PSoC6\pdl\cmsis/include/cmsis_gcc.h **** {
 390:Generated_Source\PSoC6\pdl\cmsis/include/cmsis_gcc.h ****   uint32_t result;
 391:Generated_Source\PSoC6\pdl\cmsis/include/cmsis_gcc.h **** 
 392:Generated_Source\PSoC6\pdl\cmsis/include/cmsis_gcc.h ****   __ASM volatile ("MRS %0, basepri" : "=r" (result) );
 393:Generated_Source\PSoC6\pdl\cmsis/include/cmsis_gcc.h ****   return(result);
 394:Generated_Source\PSoC6\pdl\cmsis/include/cmsis_gcc.h **** }
 395:Generated_Source\PSoC6\pdl\cmsis/include/cmsis_gcc.h **** 
 396:Generated_Source\PSoC6\pdl\cmsis/include/cmsis_gcc.h **** 
 397:Generated_Source\PSoC6\pdl\cmsis/include/cmsis_gcc.h **** #if (defined (__ARM_FEATURE_CMSE ) && (__ARM_FEATURE_CMSE == 3))
 398:Generated_Source\PSoC6\pdl\cmsis/include/cmsis_gcc.h **** /**
 399:Generated_Source\PSoC6\pdl\cmsis/include/cmsis_gcc.h ****   \brief   Get Base Priority (non-secure)
 400:Generated_Source\PSoC6\pdl\cmsis/include/cmsis_gcc.h ****   \details Returns the current value of the non-secure Base Priority register when in secure state.
 401:Generated_Source\PSoC6\pdl\cmsis/include/cmsis_gcc.h ****   \return               Base Priority register value
 402:Generated_Source\PSoC6\pdl\cmsis/include/cmsis_gcc.h ****  */
 403:Generated_Source\PSoC6\pdl\cmsis/include/cmsis_gcc.h **** __attribute__((always_inline)) __STATIC_INLINE uint32_t __TZ_get_BASEPRI_NS(void)
 404:Generated_Source\PSoC6\pdl\cmsis/include/cmsis_gcc.h **** {
 405:Generated_Source\PSoC6\pdl\cmsis/include/cmsis_gcc.h ****   uint32_t result;
 406:Generated_Source\PSoC6\pdl\cmsis/include/cmsis_gcc.h **** 
 407:Generated_Source\PSoC6\pdl\cmsis/include/cmsis_gcc.h ****   __ASM volatile ("MRS %0, basepri_ns" : "=r" (result) );
 408:Generated_Source\PSoC6\pdl\cmsis/include/cmsis_gcc.h ****   return(result);
 409:Generated_Source\PSoC6\pdl\cmsis/include/cmsis_gcc.h **** }
 410:Generated_Source\PSoC6\pdl\cmsis/include/cmsis_gcc.h **** #endif
 411:Generated_Source\PSoC6\pdl\cmsis/include/cmsis_gcc.h **** 
 412:Generated_Source\PSoC6\pdl\cmsis/include/cmsis_gcc.h **** 
 413:Generated_Source\PSoC6\pdl\cmsis/include/cmsis_gcc.h **** /**
 414:Generated_Source\PSoC6\pdl\cmsis/include/cmsis_gcc.h ****   \brief   Set Base Priority
 415:Generated_Source\PSoC6\pdl\cmsis/include/cmsis_gcc.h ****   \details Assigns the given value to the Base Priority register.
 416:Generated_Source\PSoC6\pdl\cmsis/include/cmsis_gcc.h ****   \param [in]    basePri  Base Priority value to set
 417:Generated_Source\PSoC6\pdl\cmsis/include/cmsis_gcc.h ****  */
 418:Generated_Source\PSoC6\pdl\cmsis/include/cmsis_gcc.h **** __attribute__((always_inline)) __STATIC_INLINE void __set_BASEPRI(uint32_t basePri)
 419:Generated_Source\PSoC6\pdl\cmsis/include/cmsis_gcc.h **** {
 420:Generated_Source\PSoC6\pdl\cmsis/include/cmsis_gcc.h ****   __ASM volatile ("MSR basepri, %0" : : "r" (basePri) : "memory");
 421:Generated_Source\PSoC6\pdl\cmsis/include/cmsis_gcc.h **** }
 422:Generated_Source\PSoC6\pdl\cmsis/include/cmsis_gcc.h **** 
 423:Generated_Source\PSoC6\pdl\cmsis/include/cmsis_gcc.h **** 
ARM GAS  C:\Users\kiwamu\AppData\Local\Temp\ccE2Z6Jb.s 			page 34


 424:Generated_Source\PSoC6\pdl\cmsis/include/cmsis_gcc.h **** #if (defined (__ARM_FEATURE_CMSE ) && (__ARM_FEATURE_CMSE == 3))
 425:Generated_Source\PSoC6\pdl\cmsis/include/cmsis_gcc.h **** /**
 426:Generated_Source\PSoC6\pdl\cmsis/include/cmsis_gcc.h ****   \brief   Set Base Priority (non-secure)
 427:Generated_Source\PSoC6\pdl\cmsis/include/cmsis_gcc.h ****   \details Assigns the given value to the non-secure Base Priority register when in secure state.
 428:Generated_Source\PSoC6\pdl\cmsis/include/cmsis_gcc.h ****   \param [in]    basePri  Base Priority value to set
 429:Generated_Source\PSoC6\pdl\cmsis/include/cmsis_gcc.h ****  */
 430:Generated_Source\PSoC6\pdl\cmsis/include/cmsis_gcc.h **** __attribute__((always_inline)) __STATIC_INLINE void __TZ_set_BASEPRI_NS(uint32_t basePri)
 431:Generated_Source\PSoC6\pdl\cmsis/include/cmsis_gcc.h **** {
 432:Generated_Source\PSoC6\pdl\cmsis/include/cmsis_gcc.h ****   __ASM volatile ("MSR basepri_ns, %0" : : "r" (basePri) : "memory");
 433:Generated_Source\PSoC6\pdl\cmsis/include/cmsis_gcc.h **** }
 434:Generated_Source\PSoC6\pdl\cmsis/include/cmsis_gcc.h **** #endif
 435:Generated_Source\PSoC6\pdl\cmsis/include/cmsis_gcc.h **** 
 436:Generated_Source\PSoC6\pdl\cmsis/include/cmsis_gcc.h **** 
 437:Generated_Source\PSoC6\pdl\cmsis/include/cmsis_gcc.h **** /**
 438:Generated_Source\PSoC6\pdl\cmsis/include/cmsis_gcc.h ****   \brief   Set Base Priority with condition
 439:Generated_Source\PSoC6\pdl\cmsis/include/cmsis_gcc.h ****   \details Assigns the given value to the Base Priority register only if BASEPRI masking is disable
 440:Generated_Source\PSoC6\pdl\cmsis/include/cmsis_gcc.h ****            or the new value increases the BASEPRI priority level.
 441:Generated_Source\PSoC6\pdl\cmsis/include/cmsis_gcc.h ****   \param [in]    basePri  Base Priority value to set
 442:Generated_Source\PSoC6\pdl\cmsis/include/cmsis_gcc.h ****  */
 443:Generated_Source\PSoC6\pdl\cmsis/include/cmsis_gcc.h **** __attribute__((always_inline)) __STATIC_INLINE void __set_BASEPRI_MAX(uint32_t basePri)
 444:Generated_Source\PSoC6\pdl\cmsis/include/cmsis_gcc.h **** {
 445:Generated_Source\PSoC6\pdl\cmsis/include/cmsis_gcc.h ****   __ASM volatile ("MSR basepri_max, %0" : : "r" (basePri) : "memory");
 446:Generated_Source\PSoC6\pdl\cmsis/include/cmsis_gcc.h **** }
 447:Generated_Source\PSoC6\pdl\cmsis/include/cmsis_gcc.h **** 
 448:Generated_Source\PSoC6\pdl\cmsis/include/cmsis_gcc.h **** 
 449:Generated_Source\PSoC6\pdl\cmsis/include/cmsis_gcc.h **** /**
 450:Generated_Source\PSoC6\pdl\cmsis/include/cmsis_gcc.h ****   \brief   Get Fault Mask
 451:Generated_Source\PSoC6\pdl\cmsis/include/cmsis_gcc.h ****   \details Returns the current value of the Fault Mask register.
 452:Generated_Source\PSoC6\pdl\cmsis/include/cmsis_gcc.h ****   \return               Fault Mask register value
 453:Generated_Source\PSoC6\pdl\cmsis/include/cmsis_gcc.h ****  */
 454:Generated_Source\PSoC6\pdl\cmsis/include/cmsis_gcc.h **** __attribute__((always_inline)) __STATIC_INLINE uint32_t __get_FAULTMASK(void)
 455:Generated_Source\PSoC6\pdl\cmsis/include/cmsis_gcc.h **** {
 456:Generated_Source\PSoC6\pdl\cmsis/include/cmsis_gcc.h ****   uint32_t result;
 457:Generated_Source\PSoC6\pdl\cmsis/include/cmsis_gcc.h **** 
 458:Generated_Source\PSoC6\pdl\cmsis/include/cmsis_gcc.h ****   __ASM volatile ("MRS %0, faultmask" : "=r" (result) );
 459:Generated_Source\PSoC6\pdl\cmsis/include/cmsis_gcc.h ****   return(result);
 460:Generated_Source\PSoC6\pdl\cmsis/include/cmsis_gcc.h **** }
 461:Generated_Source\PSoC6\pdl\cmsis/include/cmsis_gcc.h **** 
 462:Generated_Source\PSoC6\pdl\cmsis/include/cmsis_gcc.h **** 
 463:Generated_Source\PSoC6\pdl\cmsis/include/cmsis_gcc.h **** #if (defined (__ARM_FEATURE_CMSE ) && (__ARM_FEATURE_CMSE == 3))
 464:Generated_Source\PSoC6\pdl\cmsis/include/cmsis_gcc.h **** /**
 465:Generated_Source\PSoC6\pdl\cmsis/include/cmsis_gcc.h ****   \brief   Get Fault Mask (non-secure)
 466:Generated_Source\PSoC6\pdl\cmsis/include/cmsis_gcc.h ****   \details Returns the current value of the non-secure Fault Mask register when in secure state.
 467:Generated_Source\PSoC6\pdl\cmsis/include/cmsis_gcc.h ****   \return               Fault Mask register value
 468:Generated_Source\PSoC6\pdl\cmsis/include/cmsis_gcc.h ****  */
 469:Generated_Source\PSoC6\pdl\cmsis/include/cmsis_gcc.h **** __attribute__((always_inline)) __STATIC_INLINE uint32_t __TZ_get_FAULTMASK_NS(void)
 470:Generated_Source\PSoC6\pdl\cmsis/include/cmsis_gcc.h **** {
 471:Generated_Source\PSoC6\pdl\cmsis/include/cmsis_gcc.h ****   uint32_t result;
 472:Generated_Source\PSoC6\pdl\cmsis/include/cmsis_gcc.h **** 
 473:Generated_Source\PSoC6\pdl\cmsis/include/cmsis_gcc.h ****   __ASM volatile ("MRS %0, faultmask_ns" : "=r" (result) );
 474:Generated_Source\PSoC6\pdl\cmsis/include/cmsis_gcc.h ****   return(result);
 475:Generated_Source\PSoC6\pdl\cmsis/include/cmsis_gcc.h **** }
 476:Generated_Source\PSoC6\pdl\cmsis/include/cmsis_gcc.h **** #endif
 477:Generated_Source\PSoC6\pdl\cmsis/include/cmsis_gcc.h **** 
 478:Generated_Source\PSoC6\pdl\cmsis/include/cmsis_gcc.h **** 
 479:Generated_Source\PSoC6\pdl\cmsis/include/cmsis_gcc.h **** /**
 480:Generated_Source\PSoC6\pdl\cmsis/include/cmsis_gcc.h ****   \brief   Set Fault Mask
ARM GAS  C:\Users\kiwamu\AppData\Local\Temp\ccE2Z6Jb.s 			page 35


 481:Generated_Source\PSoC6\pdl\cmsis/include/cmsis_gcc.h ****   \details Assigns the given value to the Fault Mask register.
 482:Generated_Source\PSoC6\pdl\cmsis/include/cmsis_gcc.h ****   \param [in]    faultMask  Fault Mask value to set
 483:Generated_Source\PSoC6\pdl\cmsis/include/cmsis_gcc.h ****  */
 484:Generated_Source\PSoC6\pdl\cmsis/include/cmsis_gcc.h **** __attribute__((always_inline)) __STATIC_INLINE void __set_FAULTMASK(uint32_t faultMask)
 485:Generated_Source\PSoC6\pdl\cmsis/include/cmsis_gcc.h **** {
 486:Generated_Source\PSoC6\pdl\cmsis/include/cmsis_gcc.h ****   __ASM volatile ("MSR faultmask, %0" : : "r" (faultMask) : "memory");
 487:Generated_Source\PSoC6\pdl\cmsis/include/cmsis_gcc.h **** }
 488:Generated_Source\PSoC6\pdl\cmsis/include/cmsis_gcc.h **** 
 489:Generated_Source\PSoC6\pdl\cmsis/include/cmsis_gcc.h **** 
 490:Generated_Source\PSoC6\pdl\cmsis/include/cmsis_gcc.h **** #if (defined (__ARM_FEATURE_CMSE ) && (__ARM_FEATURE_CMSE == 3))
 491:Generated_Source\PSoC6\pdl\cmsis/include/cmsis_gcc.h **** /**
 492:Generated_Source\PSoC6\pdl\cmsis/include/cmsis_gcc.h ****   \brief   Set Fault Mask (non-secure)
 493:Generated_Source\PSoC6\pdl\cmsis/include/cmsis_gcc.h ****   \details Assigns the given value to the non-secure Fault Mask register when in secure state.
 494:Generated_Source\PSoC6\pdl\cmsis/include/cmsis_gcc.h ****   \param [in]    faultMask  Fault Mask value to set
 495:Generated_Source\PSoC6\pdl\cmsis/include/cmsis_gcc.h ****  */
 496:Generated_Source\PSoC6\pdl\cmsis/include/cmsis_gcc.h **** __attribute__((always_inline)) __STATIC_INLINE void __TZ_set_FAULTMASK_NS(uint32_t faultMask)
 497:Generated_Source\PSoC6\pdl\cmsis/include/cmsis_gcc.h **** {
 498:Generated_Source\PSoC6\pdl\cmsis/include/cmsis_gcc.h ****   __ASM volatile ("MSR faultmask_ns, %0" : : "r" (faultMask) : "memory");
 499:Generated_Source\PSoC6\pdl\cmsis/include/cmsis_gcc.h **** }
 500:Generated_Source\PSoC6\pdl\cmsis/include/cmsis_gcc.h **** #endif
 501:Generated_Source\PSoC6\pdl\cmsis/include/cmsis_gcc.h **** 
 502:Generated_Source\PSoC6\pdl\cmsis/include/cmsis_gcc.h **** #endif /* ((defined (__ARM_ARCH_7M__      ) && (__ARM_ARCH_7M__      == 1)) || \
 503:Generated_Source\PSoC6\pdl\cmsis/include/cmsis_gcc.h ****            (defined (__ARM_ARCH_7EM__     ) && (__ARM_ARCH_7EM__     == 1)) || \
 504:Generated_Source\PSoC6\pdl\cmsis/include/cmsis_gcc.h ****            (defined (__ARM_ARCH_8M_MAIN__ ) && (__ARM_ARCH_8M_MAIN__ == 1))    ) */
 505:Generated_Source\PSoC6\pdl\cmsis/include/cmsis_gcc.h **** 
 506:Generated_Source\PSoC6\pdl\cmsis/include/cmsis_gcc.h **** 
 507:Generated_Source\PSoC6\pdl\cmsis/include/cmsis_gcc.h **** #if ((defined (__ARM_ARCH_8M_MAIN__ ) && (__ARM_ARCH_8M_MAIN__ == 1)) || \
 508:Generated_Source\PSoC6\pdl\cmsis/include/cmsis_gcc.h ****      (defined (__ARM_ARCH_8M_BASE__ ) && (__ARM_ARCH_8M_BASE__ == 1))    )
 509:Generated_Source\PSoC6\pdl\cmsis/include/cmsis_gcc.h **** 
 510:Generated_Source\PSoC6\pdl\cmsis/include/cmsis_gcc.h **** /**
 511:Generated_Source\PSoC6\pdl\cmsis/include/cmsis_gcc.h ****   \brief   Get Process Stack Pointer Limit
 512:Generated_Source\PSoC6\pdl\cmsis/include/cmsis_gcc.h ****   \details Returns the current value of the Process Stack Pointer Limit (PSPLIM).
 513:Generated_Source\PSoC6\pdl\cmsis/include/cmsis_gcc.h ****   \return               PSPLIM Register value
 514:Generated_Source\PSoC6\pdl\cmsis/include/cmsis_gcc.h ****  */
 515:Generated_Source\PSoC6\pdl\cmsis/include/cmsis_gcc.h **** __attribute__((always_inline)) __STATIC_INLINE uint32_t __get_PSPLIM(void)
 516:Generated_Source\PSoC6\pdl\cmsis/include/cmsis_gcc.h **** {
 517:Generated_Source\PSoC6\pdl\cmsis/include/cmsis_gcc.h ****   register uint32_t result;
 518:Generated_Source\PSoC6\pdl\cmsis/include/cmsis_gcc.h **** 
 519:Generated_Source\PSoC6\pdl\cmsis/include/cmsis_gcc.h ****   __ASM volatile ("MRS %0, psplim"  : "=r" (result) );
 520:Generated_Source\PSoC6\pdl\cmsis/include/cmsis_gcc.h ****   return(result);
 521:Generated_Source\PSoC6\pdl\cmsis/include/cmsis_gcc.h **** }
 522:Generated_Source\PSoC6\pdl\cmsis/include/cmsis_gcc.h **** 
 523:Generated_Source\PSoC6\pdl\cmsis/include/cmsis_gcc.h **** 
 524:Generated_Source\PSoC6\pdl\cmsis/include/cmsis_gcc.h **** #if ((defined (__ARM_FEATURE_CMSE  ) && (__ARM_FEATURE_CMSE   == 3)) && \
 525:Generated_Source\PSoC6\pdl\cmsis/include/cmsis_gcc.h ****      (defined (__ARM_ARCH_8M_MAIN__) && (__ARM_ARCH_8M_MAIN__ == 1))    )
 526:Generated_Source\PSoC6\pdl\cmsis/include/cmsis_gcc.h **** /**
 527:Generated_Source\PSoC6\pdl\cmsis/include/cmsis_gcc.h ****   \brief   Get Process Stack Pointer Limit (non-secure)
 528:Generated_Source\PSoC6\pdl\cmsis/include/cmsis_gcc.h ****   \details Returns the current value of the non-secure Process Stack Pointer Limit (PSPLIM) when in
 529:Generated_Source\PSoC6\pdl\cmsis/include/cmsis_gcc.h ****   \return               PSPLIM Register value
 530:Generated_Source\PSoC6\pdl\cmsis/include/cmsis_gcc.h ****  */
 531:Generated_Source\PSoC6\pdl\cmsis/include/cmsis_gcc.h **** __attribute__((always_inline)) __STATIC_INLINE uint32_t __TZ_get_PSPLIM_NS(void)
 532:Generated_Source\PSoC6\pdl\cmsis/include/cmsis_gcc.h **** {
 533:Generated_Source\PSoC6\pdl\cmsis/include/cmsis_gcc.h ****   register uint32_t result;
 534:Generated_Source\PSoC6\pdl\cmsis/include/cmsis_gcc.h **** 
 535:Generated_Source\PSoC6\pdl\cmsis/include/cmsis_gcc.h ****   __ASM volatile ("MRS %0, psplim_ns"  : "=r" (result) );
 536:Generated_Source\PSoC6\pdl\cmsis/include/cmsis_gcc.h ****   return(result);
 537:Generated_Source\PSoC6\pdl\cmsis/include/cmsis_gcc.h **** }
ARM GAS  C:\Users\kiwamu\AppData\Local\Temp\ccE2Z6Jb.s 			page 36


 538:Generated_Source\PSoC6\pdl\cmsis/include/cmsis_gcc.h **** #endif
 539:Generated_Source\PSoC6\pdl\cmsis/include/cmsis_gcc.h **** 
 540:Generated_Source\PSoC6\pdl\cmsis/include/cmsis_gcc.h **** 
 541:Generated_Source\PSoC6\pdl\cmsis/include/cmsis_gcc.h **** /**
 542:Generated_Source\PSoC6\pdl\cmsis/include/cmsis_gcc.h ****   \brief   Set Process Stack Pointer Limit
 543:Generated_Source\PSoC6\pdl\cmsis/include/cmsis_gcc.h ****   \details Assigns the given value to the Process Stack Pointer Limit (PSPLIM).
 544:Generated_Source\PSoC6\pdl\cmsis/include/cmsis_gcc.h ****   \param [in]    ProcStackPtrLimit  Process Stack Pointer Limit value to set
 545:Generated_Source\PSoC6\pdl\cmsis/include/cmsis_gcc.h ****  */
 546:Generated_Source\PSoC6\pdl\cmsis/include/cmsis_gcc.h **** __attribute__((always_inline)) __STATIC_INLINE void __set_PSPLIM(uint32_t ProcStackPtrLimit)
 547:Generated_Source\PSoC6\pdl\cmsis/include/cmsis_gcc.h **** {
 548:Generated_Source\PSoC6\pdl\cmsis/include/cmsis_gcc.h ****   __ASM volatile ("MSR psplim, %0" : : "r" (ProcStackPtrLimit));
 549:Generated_Source\PSoC6\pdl\cmsis/include/cmsis_gcc.h **** }
 550:Generated_Source\PSoC6\pdl\cmsis/include/cmsis_gcc.h **** 
 551:Generated_Source\PSoC6\pdl\cmsis/include/cmsis_gcc.h **** 
 552:Generated_Source\PSoC6\pdl\cmsis/include/cmsis_gcc.h **** #if ((defined (__ARM_FEATURE_CMSE  ) && (__ARM_FEATURE_CMSE   == 3)) && \
 553:Generated_Source\PSoC6\pdl\cmsis/include/cmsis_gcc.h ****      (defined (__ARM_ARCH_8M_MAIN__) && (__ARM_ARCH_8M_MAIN__ == 1))    )
 554:Generated_Source\PSoC6\pdl\cmsis/include/cmsis_gcc.h **** /**
 555:Generated_Source\PSoC6\pdl\cmsis/include/cmsis_gcc.h ****   \brief   Set Process Stack Pointer (non-secure)
 556:Generated_Source\PSoC6\pdl\cmsis/include/cmsis_gcc.h ****   \details Assigns the given value to the non-secure Process Stack Pointer Limit (PSPLIM) when in s
 557:Generated_Source\PSoC6\pdl\cmsis/include/cmsis_gcc.h ****   \param [in]    ProcStackPtrLimit  Process Stack Pointer Limit value to set
 558:Generated_Source\PSoC6\pdl\cmsis/include/cmsis_gcc.h ****  */
 559:Generated_Source\PSoC6\pdl\cmsis/include/cmsis_gcc.h **** __attribute__((always_inline)) __STATIC_INLINE void __TZ_set_PSPLIM_NS(uint32_t ProcStackPtrLimit)
 560:Generated_Source\PSoC6\pdl\cmsis/include/cmsis_gcc.h **** {
 561:Generated_Source\PSoC6\pdl\cmsis/include/cmsis_gcc.h ****   __ASM volatile ("MSR psplim_ns, %0\n" : : "r" (ProcStackPtrLimit));
 562:Generated_Source\PSoC6\pdl\cmsis/include/cmsis_gcc.h **** }
 563:Generated_Source\PSoC6\pdl\cmsis/include/cmsis_gcc.h **** #endif
 564:Generated_Source\PSoC6\pdl\cmsis/include/cmsis_gcc.h **** 
 565:Generated_Source\PSoC6\pdl\cmsis/include/cmsis_gcc.h **** 
 566:Generated_Source\PSoC6\pdl\cmsis/include/cmsis_gcc.h **** /**
 567:Generated_Source\PSoC6\pdl\cmsis/include/cmsis_gcc.h ****   \brief   Get Main Stack Pointer Limit
 568:Generated_Source\PSoC6\pdl\cmsis/include/cmsis_gcc.h ****   \details Returns the current value of the Main Stack Pointer Limit (MSPLIM).
 569:Generated_Source\PSoC6\pdl\cmsis/include/cmsis_gcc.h ****   \return               MSPLIM Register value
 570:Generated_Source\PSoC6\pdl\cmsis/include/cmsis_gcc.h ****  */
 571:Generated_Source\PSoC6\pdl\cmsis/include/cmsis_gcc.h **** __attribute__((always_inline)) __STATIC_INLINE uint32_t __get_MSPLIM(void)
 572:Generated_Source\PSoC6\pdl\cmsis/include/cmsis_gcc.h **** {
 573:Generated_Source\PSoC6\pdl\cmsis/include/cmsis_gcc.h ****   register uint32_t result;
 574:Generated_Source\PSoC6\pdl\cmsis/include/cmsis_gcc.h **** 
 575:Generated_Source\PSoC6\pdl\cmsis/include/cmsis_gcc.h ****   __ASM volatile ("MRS %0, msplim" : "=r" (result) );
 576:Generated_Source\PSoC6\pdl\cmsis/include/cmsis_gcc.h **** 
 577:Generated_Source\PSoC6\pdl\cmsis/include/cmsis_gcc.h ****   return(result);
 578:Generated_Source\PSoC6\pdl\cmsis/include/cmsis_gcc.h **** }
 579:Generated_Source\PSoC6\pdl\cmsis/include/cmsis_gcc.h **** 
 580:Generated_Source\PSoC6\pdl\cmsis/include/cmsis_gcc.h **** 
 581:Generated_Source\PSoC6\pdl\cmsis/include/cmsis_gcc.h **** #if ((defined (__ARM_FEATURE_CMSE  ) && (__ARM_FEATURE_CMSE   == 3)) && \
 582:Generated_Source\PSoC6\pdl\cmsis/include/cmsis_gcc.h ****      (defined (__ARM_ARCH_8M_MAIN__) && (__ARM_ARCH_8M_MAIN__ == 1))    )
 583:Generated_Source\PSoC6\pdl\cmsis/include/cmsis_gcc.h **** /**
 584:Generated_Source\PSoC6\pdl\cmsis/include/cmsis_gcc.h ****   \brief   Get Main Stack Pointer Limit (non-secure)
 585:Generated_Source\PSoC6\pdl\cmsis/include/cmsis_gcc.h ****   \details Returns the current value of the non-secure Main Stack Pointer Limit(MSPLIM) when in sec
 586:Generated_Source\PSoC6\pdl\cmsis/include/cmsis_gcc.h ****   \return               MSPLIM Register value
 587:Generated_Source\PSoC6\pdl\cmsis/include/cmsis_gcc.h ****  */
 588:Generated_Source\PSoC6\pdl\cmsis/include/cmsis_gcc.h **** __attribute__((always_inline)) __STATIC_INLINE uint32_t __TZ_get_MSPLIM_NS(void)
 589:Generated_Source\PSoC6\pdl\cmsis/include/cmsis_gcc.h **** {
 590:Generated_Source\PSoC6\pdl\cmsis/include/cmsis_gcc.h ****   register uint32_t result;
 591:Generated_Source\PSoC6\pdl\cmsis/include/cmsis_gcc.h **** 
 592:Generated_Source\PSoC6\pdl\cmsis/include/cmsis_gcc.h ****   __ASM volatile ("MRS %0, msplim_ns" : "=r" (result) );
 593:Generated_Source\PSoC6\pdl\cmsis/include/cmsis_gcc.h ****   return(result);
 594:Generated_Source\PSoC6\pdl\cmsis/include/cmsis_gcc.h **** }
ARM GAS  C:\Users\kiwamu\AppData\Local\Temp\ccE2Z6Jb.s 			page 37


 595:Generated_Source\PSoC6\pdl\cmsis/include/cmsis_gcc.h **** #endif
 596:Generated_Source\PSoC6\pdl\cmsis/include/cmsis_gcc.h **** 
 597:Generated_Source\PSoC6\pdl\cmsis/include/cmsis_gcc.h **** 
 598:Generated_Source\PSoC6\pdl\cmsis/include/cmsis_gcc.h **** /**
 599:Generated_Source\PSoC6\pdl\cmsis/include/cmsis_gcc.h ****   \brief   Set Main Stack Pointer Limit
 600:Generated_Source\PSoC6\pdl\cmsis/include/cmsis_gcc.h ****   \details Assigns the given value to the Main Stack Pointer Limit (MSPLIM).
 601:Generated_Source\PSoC6\pdl\cmsis/include/cmsis_gcc.h ****   \param [in]    MainStackPtrLimit  Main Stack Pointer Limit value to set
 602:Generated_Source\PSoC6\pdl\cmsis/include/cmsis_gcc.h ****  */
 603:Generated_Source\PSoC6\pdl\cmsis/include/cmsis_gcc.h **** __attribute__((always_inline)) __STATIC_INLINE void __set_MSPLIM(uint32_t MainStackPtrLimit)
 604:Generated_Source\PSoC6\pdl\cmsis/include/cmsis_gcc.h **** {
 605:Generated_Source\PSoC6\pdl\cmsis/include/cmsis_gcc.h ****   __ASM volatile ("MSR msplim, %0" : : "r" (MainStackPtrLimit));
 606:Generated_Source\PSoC6\pdl\cmsis/include/cmsis_gcc.h **** }
 607:Generated_Source\PSoC6\pdl\cmsis/include/cmsis_gcc.h **** 
 608:Generated_Source\PSoC6\pdl\cmsis/include/cmsis_gcc.h **** 
 609:Generated_Source\PSoC6\pdl\cmsis/include/cmsis_gcc.h **** #if ((defined (__ARM_FEATURE_CMSE  ) && (__ARM_FEATURE_CMSE   == 3)) && \
 610:Generated_Source\PSoC6\pdl\cmsis/include/cmsis_gcc.h ****      (defined (__ARM_ARCH_8M_MAIN__) && (__ARM_ARCH_8M_MAIN__ == 1))    )
 611:Generated_Source\PSoC6\pdl\cmsis/include/cmsis_gcc.h **** /**
 612:Generated_Source\PSoC6\pdl\cmsis/include/cmsis_gcc.h ****   \brief   Set Main Stack Pointer Limit (non-secure)
 613:Generated_Source\PSoC6\pdl\cmsis/include/cmsis_gcc.h ****   \details Assigns the given value to the non-secure Main Stack Pointer Limit (MSPLIM) when in secu
 614:Generated_Source\PSoC6\pdl\cmsis/include/cmsis_gcc.h ****   \param [in]    MainStackPtrLimit  Main Stack Pointer value to set
 615:Generated_Source\PSoC6\pdl\cmsis/include/cmsis_gcc.h ****  */
 616:Generated_Source\PSoC6\pdl\cmsis/include/cmsis_gcc.h **** __attribute__((always_inline)) __STATIC_INLINE void __TZ_set_MSPLIM_NS(uint32_t MainStackPtrLimit)
 617:Generated_Source\PSoC6\pdl\cmsis/include/cmsis_gcc.h **** {
 618:Generated_Source\PSoC6\pdl\cmsis/include/cmsis_gcc.h ****   __ASM volatile ("MSR msplim_ns, %0" : : "r" (MainStackPtrLimit));
 619:Generated_Source\PSoC6\pdl\cmsis/include/cmsis_gcc.h **** }
 620:Generated_Source\PSoC6\pdl\cmsis/include/cmsis_gcc.h **** #endif
 621:Generated_Source\PSoC6\pdl\cmsis/include/cmsis_gcc.h **** 
 622:Generated_Source\PSoC6\pdl\cmsis/include/cmsis_gcc.h **** #endif /* ((defined (__ARM_ARCH_8M_MAIN__ ) && (__ARM_ARCH_8M_MAIN__ == 1)) || \
 623:Generated_Source\PSoC6\pdl\cmsis/include/cmsis_gcc.h ****            (defined (__ARM_ARCH_8M_BASE__ ) && (__ARM_ARCH_8M_BASE__ == 1))    ) */
 624:Generated_Source\PSoC6\pdl\cmsis/include/cmsis_gcc.h **** 
 625:Generated_Source\PSoC6\pdl\cmsis/include/cmsis_gcc.h **** 
 626:Generated_Source\PSoC6\pdl\cmsis/include/cmsis_gcc.h **** #if ((defined (__ARM_ARCH_7EM__     ) && (__ARM_ARCH_7EM__     == 1)) || \
 627:Generated_Source\PSoC6\pdl\cmsis/include/cmsis_gcc.h ****      (defined (__ARM_ARCH_8M_MAIN__ ) && (__ARM_ARCH_8M_MAIN__ == 1))    )
 628:Generated_Source\PSoC6\pdl\cmsis/include/cmsis_gcc.h **** 
 629:Generated_Source\PSoC6\pdl\cmsis/include/cmsis_gcc.h **** /**
 630:Generated_Source\PSoC6\pdl\cmsis/include/cmsis_gcc.h ****   \brief   Get FPSCR
 631:Generated_Source\PSoC6\pdl\cmsis/include/cmsis_gcc.h ****   \details Returns the current value of the Floating Point Status/Control register.
 632:Generated_Source\PSoC6\pdl\cmsis/include/cmsis_gcc.h ****   \return               Floating Point Status/Control register value
 633:Generated_Source\PSoC6\pdl\cmsis/include/cmsis_gcc.h ****  */
 634:Generated_Source\PSoC6\pdl\cmsis/include/cmsis_gcc.h **** __attribute__((always_inline)) __STATIC_INLINE uint32_t __get_FPSCR(void)
 635:Generated_Source\PSoC6\pdl\cmsis/include/cmsis_gcc.h **** {
 636:Generated_Source\PSoC6\pdl\cmsis/include/cmsis_gcc.h **** #if ((defined (__FPU_PRESENT) && (__FPU_PRESENT == 1U)) && \
 637:Generated_Source\PSoC6\pdl\cmsis/include/cmsis_gcc.h ****      (defined (__FPU_USED   ) && (__FPU_USED    == 1U))     )
 638:Generated_Source\PSoC6\pdl\cmsis/include/cmsis_gcc.h ****   uint32_t result;
 639:Generated_Source\PSoC6\pdl\cmsis/include/cmsis_gcc.h **** 
 640:Generated_Source\PSoC6\pdl\cmsis/include/cmsis_gcc.h ****   __ASM volatile ("VMRS %0, fpscr" : "=r" (result) );
 665              		.loc 2 640 0
 666              		.syntax unified
 667              	@ 640 "Generated_Source\PSoC6\pdl\cmsis/include/cmsis_gcc.h" 1
 668 003a F1EE103A 		VMRS r3, fpscr
 669              	@ 0 "" 2
 670              		.thumb
 671              		.syntax unified
 672              	.LBE5:
 673              	.LBE4:
 486:Generated_Source\PSoC6\pdl\drivers\peripheral\syslib/cy_syslib.c ****             {
 674              		.loc 1 486 0
ARM GAS  C:\Users\kiwamu\AppData\Local\Temp\ccE2Z6Jb.s 			page 38


 675 003e 13F0900F 		tst	r3, #144
 676 0042 27D0     		beq	.L60
 488:Generated_Source\PSoC6\pdl\drivers\peripheral\syslib/cy_syslib.c ****                 cy_faultFrame.s1    = faultStackAddr[CY_S1_Pos];
 677              		.loc 1 488 0
 678 0044 026A     		ldr	r2, [r0, #32]
 679 0046 154B     		ldr	r3, .L62
 680 0048 1A65     		str	r2, [r3, #80]
 489:Generated_Source\PSoC6\pdl\drivers\peripheral\syslib/cy_syslib.c ****                 cy_faultFrame.s2    = faultStackAddr[CY_S2_Pos];
 681              		.loc 1 489 0
 682 004a 426A     		ldr	r2, [r0, #36]
 683 004c 5A65     		str	r2, [r3, #84]
 490:Generated_Source\PSoC6\pdl\drivers\peripheral\syslib/cy_syslib.c ****                 cy_faultFrame.s3    = faultStackAddr[CY_S3_Pos];
 684              		.loc 1 490 0
 685 004e 826A     		ldr	r2, [r0, #40]
 686 0050 9A65     		str	r2, [r3, #88]
 491:Generated_Source\PSoC6\pdl\drivers\peripheral\syslib/cy_syslib.c ****                 cy_faultFrame.s4    = faultStackAddr[CY_S4_Pos];
 687              		.loc 1 491 0
 688 0052 C26A     		ldr	r2, [r0, #44]
 689 0054 DA65     		str	r2, [r3, #92]
 492:Generated_Source\PSoC6\pdl\drivers\peripheral\syslib/cy_syslib.c ****                 cy_faultFrame.s5    = faultStackAddr[CY_S5_Pos];
 690              		.loc 1 492 0
 691 0056 026B     		ldr	r2, [r0, #48]
 692 0058 1A66     		str	r2, [r3, #96]
 493:Generated_Source\PSoC6\pdl\drivers\peripheral\syslib/cy_syslib.c ****                 cy_faultFrame.s6    = faultStackAddr[CY_S6_Pos];
 693              		.loc 1 493 0
 694 005a 426B     		ldr	r2, [r0, #52]
 695 005c 5A66     		str	r2, [r3, #100]
 494:Generated_Source\PSoC6\pdl\drivers\peripheral\syslib/cy_syslib.c ****                 cy_faultFrame.s7    = faultStackAddr[CY_S7_Pos];
 696              		.loc 1 494 0
 697 005e 826B     		ldr	r2, [r0, #56]
 698 0060 9A66     		str	r2, [r3, #104]
 495:Generated_Source\PSoC6\pdl\drivers\peripheral\syslib/cy_syslib.c ****                 cy_faultFrame.s8    = faultStackAddr[CY_S8_Pos];
 699              		.loc 1 495 0
 700 0062 C26B     		ldr	r2, [r0, #60]
 701 0064 DA66     		str	r2, [r3, #108]
 496:Generated_Source\PSoC6\pdl\drivers\peripheral\syslib/cy_syslib.c ****                 cy_faultFrame.s9    = faultStackAddr[CY_S9_Pos];
 702              		.loc 1 496 0
 703 0066 026C     		ldr	r2, [r0, #64]
 704 0068 1A67     		str	r2, [r3, #112]
 497:Generated_Source\PSoC6\pdl\drivers\peripheral\syslib/cy_syslib.c ****                 cy_faultFrame.s10   = faultStackAddr[CY_S10_Pos];
 705              		.loc 1 497 0
 706 006a 426C     		ldr	r2, [r0, #68]
 707 006c 5A67     		str	r2, [r3, #116]
 498:Generated_Source\PSoC6\pdl\drivers\peripheral\syslib/cy_syslib.c ****                 cy_faultFrame.s11   = faultStackAddr[CY_S11_Pos];
 708              		.loc 1 498 0
 709 006e 826C     		ldr	r2, [r0, #72]
 710 0070 9A67     		str	r2, [r3, #120]
 499:Generated_Source\PSoC6\pdl\drivers\peripheral\syslib/cy_syslib.c ****                 cy_faultFrame.s12   = faultStackAddr[CY_S12_Pos];
 711              		.loc 1 499 0
 712 0072 C26C     		ldr	r2, [r0, #76]
 713 0074 DA67     		str	r2, [r3, #124]
 500:Generated_Source\PSoC6\pdl\drivers\peripheral\syslib/cy_syslib.c ****                 cy_faultFrame.s13   = faultStackAddr[CY_S13_Pos];
 714              		.loc 1 500 0
 715 0076 026D     		ldr	r2, [r0, #80]
 716 0078 C3F88020 		str	r2, [r3, #128]
 501:Generated_Source\PSoC6\pdl\drivers\peripheral\syslib/cy_syslib.c ****                 cy_faultFrame.s14   = faultStackAddr[CY_S14_Pos];
 717              		.loc 1 501 0
ARM GAS  C:\Users\kiwamu\AppData\Local\Temp\ccE2Z6Jb.s 			page 39


 718 007c 426D     		ldr	r2, [r0, #84]
 719 007e C3F88420 		str	r2, [r3, #132]
 502:Generated_Source\PSoC6\pdl\drivers\peripheral\syslib/cy_syslib.c ****                 cy_faultFrame.s15   = faultStackAddr[CY_S15_Pos];
 720              		.loc 1 502 0
 721 0082 826D     		ldr	r2, [r0, #88]
 722 0084 C3F88820 		str	r2, [r3, #136]
 503:Generated_Source\PSoC6\pdl\drivers\peripheral\syslib/cy_syslib.c ****                 cy_faultFrame.fpscr = faultStackAddr[CY_FPSCR_Pos];
 723              		.loc 1 503 0
 724 0088 C26D     		ldr	r2, [r0, #92]
 725 008a C3F88C20 		str	r2, [r3, #140]
 504:Generated_Source\PSoC6\pdl\drivers\peripheral\syslib/cy_syslib.c ****             }
 726              		.loc 1 504 0
 727 008e 026E     		ldr	r2, [r0, #96]
 728 0090 C3F89020 		str	r2, [r3, #144]
 729              	.L60:
 509:Generated_Source\PSoC6\pdl\drivers\peripheral\syslib/cy_syslib.c **** }
 730              		.loc 1 509 0
 731 0094 FFF7FEFF 		bl	Cy_SysLib_ProcessingFault
 732              	.LVL32:
 733 0098 08BD     		pop	{r3, pc}
 734              	.L63:
 735 009a 00BF     		.align	2
 736              	.L62:
 737 009c 00000000 		.word	.LANCHOR0
 738 00a0 00ED00E0 		.word	-536810240
 739              		.cfi_endproc
 740              	.LFE151:
 741              		.size	Cy_SysLib_FaultHandler, .-Cy_SysLib_FaultHandler
 742              		.section	.text.Cy_SysLib_SetWaitStates,"ax",%progbits
 743              		.align	2
 744              		.global	Cy_SysLib_SetWaitStates
 745              		.thumb
 746              		.thumb_func
 747              		.type	Cy_SysLib_SetWaitStates, %function
 748              	Cy_SysLib_SetWaitStates:
 749              	.LFB153:
 573:Generated_Source\PSoC6\pdl\drivers\peripheral\syslib/cy_syslib.c ****     if (ulpMode)
 750              		.loc 1 573 0
 751              		.cfi_startproc
 752              		@ args = 0, pretend = 0, frame = 0
 753              		@ frame_needed = 0, uses_anonymous_args = 0
 754              	.LVL33:
 755 0000 08B5     		push	{r3, lr}
 756              		.cfi_def_cfa_offset 8
 757              		.cfi_offset 3, -8
 758              		.cfi_offset 14, -4
 574:Generated_Source\PSoC6\pdl\drivers\peripheral\syslib/cy_syslib.c ****     {
 759              		.loc 1 574 0
 760 0002 18B1     		cbz	r0, .L65
 576:Generated_Source\PSoC6\pdl\drivers\peripheral\syslib/cy_syslib.c ****     }
 761              		.loc 1 576 0
 762 0004 0846     		mov	r0, r1
 763              	.LVL34:
 764 0006 FFF7FEFF 		bl	Cy_SysLib_SetWaitStates_ULP
 765              	.LVL35:
 766 000a 08BD     		pop	{r3, pc}
 767              	.LVL36:
ARM GAS  C:\Users\kiwamu\AppData\Local\Temp\ccE2Z6Jb.s 			page 40


 768              	.L65:
 580:Generated_Source\PSoC6\pdl\drivers\peripheral\syslib/cy_syslib.c ****     }
 769              		.loc 1 580 0
 770 000c 0846     		mov	r0, r1
 771              	.LVL37:
 772 000e FFF7FEFF 		bl	Cy_SysLib_SetWaitStates_LP
 773              	.LVL38:
 774 0012 08BD     		pop	{r3, pc}
 775              		.cfi_endproc
 776              	.LFE153:
 777              		.size	Cy_SysLib_SetWaitStates, .-Cy_SysLib_SetWaitStates
 778              		.global	cy_faultFrame
 779              		.global	cy_assertLine
 780              		.global	cy_assertFileName
 781              		.section	.noinit,"aw",%progbits
 782              		.align	2
 783              		.set	.LANCHOR0,. + 0
 784              		.type	cy_assertFileName, %object
 785              		.size	cy_assertFileName, 24
 786              	cy_assertFileName:
 787 0000 00000000 		.space	24
 787      00000000 
 787      00000000 
 787      00000000 
 787      00000000 
 788              		.type	cy_assertLine, %object
 789              		.size	cy_assertLine, 4
 790              	cy_assertLine:
 791 0018 00000000 		.space	4
 792              		.type	cy_faultFrame, %object
 793              		.size	cy_faultFrame, 120
 794              	cy_faultFrame:
 795 001c 00000000 		.space	120
 795      00000000 
 795      00000000 
 795      00000000 
 795      00000000 
 796              		.text
 797              	.Letext0:
 798              		.file 3 "c:\\program files (x86)\\cypress\\psoc creator\\4.2\\psoc creator\\import\\gnu\\arm\\5.4.
 799              		.file 4 "c:\\program files (x86)\\cypress\\psoc creator\\4.2\\psoc creator\\import\\gnu\\arm\\5.4.
 800              		.file 5 "Generated_Source\\PSoC6\\pdl\\cmsis/include/core_cm4.h"
 801              		.file 6 "Generated_Source\\PSoC6\\pdl\\devices/psoc6/ip/cyip_sflash.h"
 802              		.file 7 "Generated_Source\\PSoC6\\pdl\\devices/psoc6/ip/cyip_cpuss.h"
 803              		.file 8 "Generated_Source\\PSoC6\\pdl\\devices/psoc6/ip/cyip_flashc.h"
 804              		.file 9 "Generated_Source\\PSoC6\\pdl\\devices/psoc6/ip/cyip_srss.h"
 805              		.file 10 "Generated_Source\\PSoC6\\pdl\\devices/psoc6/ip/cyip_backup.h"
 806              		.file 11 "Generated_Source\\PSoC6\\pdl\\drivers\\peripheral\\syslib\\cy_syslib.h"
 807              		.file 12 "./system_psoc63.h"
 808              		.file 13 "c:\\program files (x86)\\cypress\\psoc creator\\4.2\\psoc creator\\import\\gnu\\arm\\5.4
 809              		.section	.debug_info,"",%progbits
 810              	.Ldebug_info0:
 811 0000 D4230000 		.4byte	0x23d4
 812 0004 0400     		.2byte	0x4
 813 0006 00000000 		.4byte	.Ldebug_abbrev0
 814 000a 04       		.byte	0x4
 815 000b 01       		.uleb128 0x1
ARM GAS  C:\Users\kiwamu\AppData\Local\Temp\ccE2Z6Jb.s 			page 41


 816 000c 12040000 		.4byte	.LASF429
 817 0010 0C       		.byte	0xc
 818 0011 40020000 		.4byte	.LASF430
 819 0015 AB070000 		.4byte	.LASF431
 820 0019 00000000 		.4byte	.Ldebug_ranges0+0
 821 001d 00000000 		.4byte	0
 822 0021 00000000 		.4byte	.Ldebug_line0
 823 0025 02       		.uleb128 0x2
 824 0026 08       		.byte	0x8
 825 0027 07       		.byte	0x7
 826 0028 3C070000 		.4byte	.LASF0
 827 002c 02       		.uleb128 0x2
 828 002d 04       		.byte	0x4
 829 002e 07       		.byte	0x7
 830 002f 44120000 		.4byte	.LASF1
 831 0033 02       		.uleb128 0x2
 832 0034 01       		.byte	0x1
 833 0035 06       		.byte	0x6
 834 0036 1E160000 		.4byte	.LASF2
 835 003a 03       		.uleb128 0x3
 836 003b F5110000 		.4byte	.LASF5
 837 003f 03       		.byte	0x3
 838 0040 1D       		.byte	0x1d
 839 0041 45000000 		.4byte	0x45
 840 0045 02       		.uleb128 0x2
 841 0046 01       		.byte	0x1
 842 0047 08       		.byte	0x8
 843 0048 2E140000 		.4byte	.LASF3
 844 004c 02       		.uleb128 0x2
 845 004d 02       		.byte	0x2
 846 004e 05       		.byte	0x5
 847 004f 550E0000 		.4byte	.LASF4
 848 0053 03       		.uleb128 0x3
 849 0054 07080000 		.4byte	.LASF6
 850 0058 03       		.byte	0x3
 851 0059 2B       		.byte	0x2b
 852 005a 5E000000 		.4byte	0x5e
 853 005e 02       		.uleb128 0x2
 854 005f 02       		.byte	0x2
 855 0060 07       		.byte	0x7
 856 0061 61160000 		.4byte	.LASF7
 857 0065 03       		.uleb128 0x3
 858 0066 36020000 		.4byte	.LASF8
 859 006a 03       		.byte	0x3
 860 006b 3F       		.byte	0x3f
 861 006c 70000000 		.4byte	0x70
 862 0070 02       		.uleb128 0x2
 863 0071 04       		.byte	0x4
 864 0072 05       		.byte	0x5
 865 0073 D2100000 		.4byte	.LASF9
 866 0077 03       		.uleb128 0x3
 867 0078 3C140000 		.4byte	.LASF10
 868 007c 03       		.byte	0x3
 869 007d 41       		.byte	0x41
 870 007e 82000000 		.4byte	0x82
 871 0082 02       		.uleb128 0x2
 872 0083 04       		.byte	0x4
ARM GAS  C:\Users\kiwamu\AppData\Local\Temp\ccE2Z6Jb.s 			page 42


 873 0084 07       		.byte	0x7
 874 0085 E9120000 		.4byte	.LASF11
 875 0089 02       		.uleb128 0x2
 876 008a 08       		.byte	0x8
 877 008b 05       		.byte	0x5
 878 008c B90C0000 		.4byte	.LASF12
 879 0090 03       		.uleb128 0x3
 880 0091 110F0000 		.4byte	.LASF13
 881 0095 03       		.byte	0x3
 882 0096 5B       		.byte	0x5b
 883 0097 25000000 		.4byte	0x25
 884 009b 04       		.uleb128 0x4
 885 009c 04       		.byte	0x4
 886 009d 05       		.byte	0x5
 887 009e 696E7400 		.ascii	"int\000"
 888 00a2 03       		.uleb128 0x3
 889 00a3 420C0000 		.4byte	.LASF14
 890 00a7 04       		.byte	0x4
 891 00a8 18       		.byte	0x18
 892 00a9 3A000000 		.4byte	0x3a
 893 00ad 03       		.uleb128 0x3
 894 00ae 470F0000 		.4byte	.LASF15
 895 00b2 04       		.byte	0x4
 896 00b3 24       		.byte	0x24
 897 00b4 53000000 		.4byte	0x53
 898 00b8 03       		.uleb128 0x3
 899 00b9 4D130000 		.4byte	.LASF16
 900 00bd 04       		.byte	0x4
 901 00be 2C       		.byte	0x2c
 902 00bf 65000000 		.4byte	0x65
 903 00c3 03       		.uleb128 0x3
 904 00c4 ED050000 		.4byte	.LASF17
 905 00c8 04       		.byte	0x4
 906 00c9 30       		.byte	0x30
 907 00ca 77000000 		.4byte	0x77
 908 00ce 03       		.uleb128 0x3
 909 00cf 90110000 		.4byte	.LASF18
 910 00d3 04       		.byte	0x4
 911 00d4 3C       		.byte	0x3c
 912 00d5 90000000 		.4byte	0x90
 913 00d9 05       		.uleb128 0x5
 914 00da F0000000 		.4byte	0xf0
 915 00de E9000000 		.4byte	0xe9
 916 00e2 06       		.uleb128 0x6
 917 00e3 E9000000 		.4byte	0xe9
 918 00e7 07       		.byte	0x7
 919 00e8 00       		.byte	0
 920 00e9 02       		.uleb128 0x2
 921 00ea 04       		.byte	0x4
 922 00eb 07       		.byte	0x7
 923 00ec 11100000 		.4byte	.LASF19
 924 00f0 07       		.uleb128 0x7
 925 00f1 C3000000 		.4byte	0xc3
 926 00f5 07       		.uleb128 0x7
 927 00f6 A2000000 		.4byte	0xa2
 928 00fa 08       		.uleb128 0x8
 929 00fb 8C       		.byte	0x8c
ARM GAS  C:\Users\kiwamu\AppData\Local\Temp\ccE2Z6Jb.s 			page 43


 930 00fc 05       		.byte	0x5
 931 00fd B601     		.2byte	0x1b6
 932 00ff 15020000 		.4byte	0x215
 933 0103 09       		.uleb128 0x9
 934 0104 41090000 		.4byte	.LASF20
 935 0108 05       		.byte	0x5
 936 0109 B801     		.2byte	0x1b8
 937 010b 15020000 		.4byte	0x215
 938 010f 00       		.byte	0
 939 0110 09       		.uleb128 0x9
 940 0111 F90B0000 		.4byte	.LASF21
 941 0115 05       		.byte	0x5
 942 0116 B901     		.2byte	0x1b9
 943 0118 F0000000 		.4byte	0xf0
 944 011c 04       		.byte	0x4
 945 011d 09       		.uleb128 0x9
 946 011e 62120000 		.4byte	.LASF22
 947 0122 05       		.byte	0x5
 948 0123 BA01     		.2byte	0x1ba
 949 0125 F0000000 		.4byte	0xf0
 950 0129 08       		.byte	0x8
 951 012a 09       		.uleb128 0x9
 952 012b C00B0000 		.4byte	.LASF23
 953 012f 05       		.byte	0x5
 954 0130 BB01     		.2byte	0x1bb
 955 0132 F0000000 		.4byte	0xf0
 956 0136 0C       		.byte	0xc
 957 0137 0A       		.uleb128 0xa
 958 0138 53435200 		.ascii	"SCR\000"
 959 013c 05       		.byte	0x5
 960 013d BC01     		.2byte	0x1bc
 961 013f F0000000 		.4byte	0xf0
 962 0143 10       		.byte	0x10
 963 0144 0A       		.uleb128 0xa
 964 0145 43435200 		.ascii	"CCR\000"
 965 0149 05       		.byte	0x5
 966 014a BD01     		.2byte	0x1bd
 967 014c F0000000 		.4byte	0xf0
 968 0150 14       		.byte	0x14
 969 0151 0A       		.uleb128 0xa
 970 0152 53485000 		.ascii	"SHP\000"
 971 0156 05       		.byte	0x5
 972 0157 BE01     		.2byte	0x1be
 973 0159 2A020000 		.4byte	0x22a
 974 015d 18       		.byte	0x18
 975 015e 09       		.uleb128 0x9
 976 015f D40C0000 		.4byte	.LASF24
 977 0163 05       		.byte	0x5
 978 0164 BF01     		.2byte	0x1bf
 979 0166 F0000000 		.4byte	0xf0
 980 016a 24       		.byte	0x24
 981 016b 09       		.uleb128 0x9
 982 016c 220C0000 		.4byte	.LASF25
 983 0170 05       		.byte	0x5
 984 0171 C001     		.2byte	0x1c0
 985 0173 F0000000 		.4byte	0xf0
 986 0177 28       		.byte	0x28
ARM GAS  C:\Users\kiwamu\AppData\Local\Temp\ccE2Z6Jb.s 			page 44


 987 0178 09       		.uleb128 0x9
 988 0179 370B0000 		.4byte	.LASF26
 989 017d 05       		.byte	0x5
 990 017e C101     		.2byte	0x1c1
 991 0180 F0000000 		.4byte	0xf0
 992 0184 2C       		.byte	0x2c
 993 0185 09       		.uleb128 0x9
 994 0186 FB010000 		.4byte	.LASF27
 995 018a 05       		.byte	0x5
 996 018b C201     		.2byte	0x1c2
 997 018d F0000000 		.4byte	0xf0
 998 0191 30       		.byte	0x30
 999 0192 09       		.uleb128 0x9
 1000 0193 E80F0000 		.4byte	.LASF28
 1001 0197 05       		.byte	0x5
 1002 0198 C301     		.2byte	0x1c3
 1003 019a F0000000 		.4byte	0xf0
 1004 019e 34       		.byte	0x34
 1005 019f 09       		.uleb128 0x9
 1006 01a0 28120000 		.4byte	.LASF29
 1007 01a4 05       		.byte	0x5
 1008 01a5 C401     		.2byte	0x1c4
 1009 01a7 F0000000 		.4byte	0xf0
 1010 01ab 38       		.byte	0x38
 1011 01ac 09       		.uleb128 0x9
 1012 01ad 90170000 		.4byte	.LASF30
 1013 01b1 05       		.byte	0x5
 1014 01b2 C501     		.2byte	0x1c5
 1015 01b4 F0000000 		.4byte	0xf0
 1016 01b8 3C       		.byte	0x3c
 1017 01b9 0A       		.uleb128 0xa
 1018 01ba 50465200 		.ascii	"PFR\000"
 1019 01be 05       		.byte	0x5
 1020 01bf C601     		.2byte	0x1c6
 1021 01c1 44020000 		.4byte	0x244
 1022 01c5 40       		.byte	0x40
 1023 01c6 0A       		.uleb128 0xa
 1024 01c7 44465200 		.ascii	"DFR\000"
 1025 01cb 05       		.byte	0x5
 1026 01cc C701     		.2byte	0x1c7
 1027 01ce 15020000 		.4byte	0x215
 1028 01d2 48       		.byte	0x48
 1029 01d3 0A       		.uleb128 0xa
 1030 01d4 41445200 		.ascii	"ADR\000"
 1031 01d8 05       		.byte	0x5
 1032 01d9 C801     		.2byte	0x1c8
 1033 01db 15020000 		.4byte	0x215
 1034 01df 4C       		.byte	0x4c
 1035 01e0 09       		.uleb128 0x9
 1036 01e1 16060000 		.4byte	.LASF31
 1037 01e5 05       		.byte	0x5
 1038 01e6 C901     		.2byte	0x1c9
 1039 01e8 5E020000 		.4byte	0x25e
 1040 01ec 50       		.byte	0x50
 1041 01ed 09       		.uleb128 0x9
 1042 01ee 35170000 		.4byte	.LASF32
 1043 01f2 05       		.byte	0x5
ARM GAS  C:\Users\kiwamu\AppData\Local\Temp\ccE2Z6Jb.s 			page 45


 1044 01f3 CA01     		.2byte	0x1ca
 1045 01f5 78020000 		.4byte	0x278
 1046 01f9 60       		.byte	0x60
 1047 01fa 09       		.uleb128 0x9
 1048 01fb 1A100000 		.4byte	.LASF33
 1049 01ff 05       		.byte	0x5
 1050 0200 CB01     		.2byte	0x1cb
 1051 0202 7D020000 		.4byte	0x27d
 1052 0206 74       		.byte	0x74
 1053 0207 09       		.uleb128 0x9
 1054 0208 52000000 		.4byte	.LASF34
 1055 020c 05       		.byte	0x5
 1056 020d CC01     		.2byte	0x1cc
 1057 020f F0000000 		.4byte	0xf0
 1058 0213 88       		.byte	0x88
 1059 0214 00       		.byte	0
 1060 0215 0B       		.uleb128 0xb
 1061 0216 F0000000 		.4byte	0xf0
 1062 021a 05       		.uleb128 0x5
 1063 021b F5000000 		.4byte	0xf5
 1064 021f 2A020000 		.4byte	0x22a
 1065 0223 06       		.uleb128 0x6
 1066 0224 E9000000 		.4byte	0xe9
 1067 0228 0B       		.byte	0xb
 1068 0229 00       		.byte	0
 1069 022a 07       		.uleb128 0x7
 1070 022b 1A020000 		.4byte	0x21a
 1071 022f 05       		.uleb128 0x5
 1072 0230 15020000 		.4byte	0x215
 1073 0234 3F020000 		.4byte	0x23f
 1074 0238 06       		.uleb128 0x6
 1075 0239 E9000000 		.4byte	0xe9
 1076 023d 01       		.byte	0x1
 1077 023e 00       		.byte	0
 1078 023f 07       		.uleb128 0x7
 1079 0240 2F020000 		.4byte	0x22f
 1080 0244 0B       		.uleb128 0xb
 1081 0245 3F020000 		.4byte	0x23f
 1082 0249 05       		.uleb128 0x5
 1083 024a 15020000 		.4byte	0x215
 1084 024e 59020000 		.4byte	0x259
 1085 0252 06       		.uleb128 0x6
 1086 0253 E9000000 		.4byte	0xe9
 1087 0257 03       		.byte	0x3
 1088 0258 00       		.byte	0
 1089 0259 07       		.uleb128 0x7
 1090 025a 49020000 		.4byte	0x249
 1091 025e 0B       		.uleb128 0xb
 1092 025f 59020000 		.4byte	0x259
 1093 0263 05       		.uleb128 0x5
 1094 0264 15020000 		.4byte	0x215
 1095 0268 73020000 		.4byte	0x273
 1096 026c 06       		.uleb128 0x6
 1097 026d E9000000 		.4byte	0xe9
 1098 0271 04       		.byte	0x4
 1099 0272 00       		.byte	0
 1100 0273 07       		.uleb128 0x7
ARM GAS  C:\Users\kiwamu\AppData\Local\Temp\ccE2Z6Jb.s 			page 46


 1101 0274 63020000 		.4byte	0x263
 1102 0278 0B       		.uleb128 0xb
 1103 0279 73020000 		.4byte	0x273
 1104 027d 05       		.uleb128 0x5
 1105 027e C3000000 		.4byte	0xc3
 1106 0282 8D020000 		.4byte	0x28d
 1107 0286 06       		.uleb128 0x6
 1108 0287 E9000000 		.4byte	0xe9
 1109 028b 04       		.byte	0x4
 1110 028c 00       		.byte	0
 1111 028d 0C       		.uleb128 0xc
 1112 028e 11120000 		.4byte	.LASF35
 1113 0292 05       		.byte	0x5
 1114 0293 CD01     		.2byte	0x1cd
 1115 0295 FA000000 		.4byte	0xfa
 1116 0299 07       		.uleb128 0x7
 1117 029a AD000000 		.4byte	0xad
 1118 029e 0D       		.uleb128 0xd
 1119 029f 0080     		.2byte	0x8000
 1120 02a1 06       		.byte	0x6
 1121 02a2 21       		.byte	0x21
 1122 02a3 1D070000 		.4byte	0x71d
 1123 02a7 0E       		.uleb128 0xe
 1124 02a8 E3040000 		.4byte	.LASF36
 1125 02ac 06       		.byte	0x6
 1126 02ad 22       		.byte	0x22
 1127 02ae 1D070000 		.4byte	0x71d
 1128 02b2 00       		.byte	0
 1129 02b3 0E       		.uleb128 0xe
 1130 02b4 17090000 		.4byte	.LASF37
 1131 02b8 06       		.byte	0x6
 1132 02b9 23       		.byte	0x23
 1133 02ba 99020000 		.4byte	0x299
 1134 02be 02       		.byte	0x2
 1135 02bf 0E       		.uleb128 0xe
 1136 02c0 24100000 		.4byte	.LASF38
 1137 02c4 06       		.byte	0x6
 1138 02c5 24       		.byte	0x24
 1139 02c6 38070000 		.4byte	0x738
 1140 02ca 04       		.byte	0x4
 1141 02cb 0F       		.uleb128 0xf
 1142 02cc C9120000 		.4byte	.LASF39
 1143 02d0 06       		.byte	0x6
 1144 02d1 25       		.byte	0x25
 1145 02d2 4D070000 		.4byte	0x74d
 1146 02d6 0006     		.2byte	0x600
 1147 02d8 0F       		.uleb128 0xf
 1148 02d9 900F0000 		.4byte	.LASF40
 1149 02dd 06       		.byte	0x6
 1150 02de 26       		.byte	0x26
 1151 02df F5000000 		.4byte	0xf5
 1152 02e3 0306     		.2byte	0x603
 1153 02e5 0F       		.uleb128 0xf
 1154 02e6 7C010000 		.4byte	.LASF41
 1155 02ea 06       		.byte	0x6
 1156 02eb 27       		.byte	0x27
 1157 02ec F5000000 		.4byte	0xf5
ARM GAS  C:\Users\kiwamu\AppData\Local\Temp\ccE2Z6Jb.s 			page 47


 1158 02f0 0406     		.2byte	0x604
 1159 02f2 0F       		.uleb128 0xf
 1160 02f3 82010000 		.4byte	.LASF42
 1161 02f7 06       		.byte	0x6
 1162 02f8 28       		.byte	0x28
 1163 02f9 F5000000 		.4byte	0xf5
 1164 02fd 0506     		.2byte	0x605
 1165 02ff 0F       		.uleb128 0xf
 1166 0300 0D060000 		.4byte	.LASF43
 1167 0304 06       		.byte	0x6
 1168 0305 29       		.byte	0x29
 1169 0306 F5000000 		.4byte	0xf5
 1170 030a 0606     		.2byte	0x606
 1171 030c 0F       		.uleb128 0xf
 1172 030d 6B0E0000 		.4byte	.LASF44
 1173 0311 06       		.byte	0x6
 1174 0312 2A       		.byte	0x2a
 1175 0313 F5000000 		.4byte	0xf5
 1176 0317 0706     		.2byte	0x607
 1177 0319 0F       		.uleb128 0xf
 1178 031a B8080000 		.4byte	.LASF45
 1179 031e 06       		.byte	0x6
 1180 031f 2B       		.byte	0x2b
 1181 0320 F5000000 		.4byte	0xf5
 1182 0324 0806     		.2byte	0x608
 1183 0326 0F       		.uleb128 0xf
 1184 0327 FE090000 		.4byte	.LASF46
 1185 032b 06       		.byte	0x6
 1186 032c 2C       		.byte	0x2c
 1187 032d F5000000 		.4byte	0xf5
 1188 0331 0906     		.2byte	0x609
 1189 0333 0F       		.uleb128 0xf
 1190 0334 8E0E0000 		.4byte	.LASF47
 1191 0338 06       		.byte	0x6
 1192 0339 2D       		.byte	0x2d
 1193 033a F5000000 		.4byte	0xf5
 1194 033e 0A06     		.2byte	0x60a
 1195 0340 0F       		.uleb128 0xf
 1196 0341 2E100000 		.4byte	.LASF48
 1197 0345 06       		.byte	0x6
 1198 0346 2E       		.byte	0x2e
 1199 0347 6C070000 		.4byte	0x76c
 1200 034b 0B06     		.2byte	0x60b
 1201 034d 0F       		.uleb128 0xf
 1202 034e DA0C0000 		.4byte	.LASF49
 1203 0352 06       		.byte	0x6
 1204 0353 2F       		.byte	0x2f
 1205 0354 F0000000 		.4byte	0xf0
 1206 0358 6C06     		.2byte	0x66c
 1207 035a 0F       		.uleb128 0xf
 1208 035b 38100000 		.4byte	.LASF50
 1209 035f 06       		.byte	0x6
 1210 0360 30       		.byte	0x30
 1211 0361 86070000 		.4byte	0x786
 1212 0365 7006     		.2byte	0x670
 1213 0367 0F       		.uleb128 0xf
 1214 0368 2B050000 		.4byte	.LASF51
ARM GAS  C:\Users\kiwamu\AppData\Local\Temp\ccE2Z6Jb.s 			page 48


 1215 036c 06       		.byte	0x6
 1216 036d 31       		.byte	0x31
 1217 036e 9B070000 		.4byte	0x79b
 1218 0372 0008     		.2byte	0x800
 1219 0374 0F       		.uleb128 0xf
 1220 0375 56140000 		.4byte	.LASF52
 1221 0379 06       		.byte	0x6
 1222 037a 32       		.byte	0x32
 1223 037b A0070000 		.4byte	0x7a0
 1224 037f 000A     		.2byte	0xa00
 1225 0381 0F       		.uleb128 0xf
 1226 0382 65140000 		.4byte	.LASF53
 1227 0386 06       		.byte	0x6
 1228 0387 33       		.byte	0x33
 1229 0388 A5070000 		.4byte	0x7a5
 1230 038c 000C     		.2byte	0xc00
 1231 038e 0F       		.uleb128 0xf
 1232 038f 74140000 		.4byte	.LASF54
 1233 0393 06       		.byte	0x6
 1234 0394 34       		.byte	0x34
 1235 0395 AA070000 		.4byte	0x7aa
 1236 0399 000E     		.2byte	0xe00
 1237 039b 0F       		.uleb128 0xf
 1238 039c 42100000 		.4byte	.LASF55
 1239 03a0 06       		.byte	0x6
 1240 03a1 35       		.byte	0x35
 1241 03a2 C5070000 		.4byte	0x7c5
 1242 03a6 0010     		.2byte	0x1000
 1243 03a8 0F       		.uleb128 0xf
 1244 03a9 71010000 		.4byte	.LASF56
 1245 03ad 06       		.byte	0x6
 1246 03ae 36       		.byte	0x36
 1247 03af DA070000 		.4byte	0x7da
 1248 03b3 B814     		.2byte	0x14b8
 1249 03b5 0F       		.uleb128 0xf
 1250 03b6 41170000 		.4byte	.LASF57
 1251 03ba 06       		.byte	0x6
 1252 03bb 37       		.byte	0x37
 1253 03bc DF070000 		.4byte	0x7df
 1254 03c0 C814     		.2byte	0x14c8
 1255 03c2 0F       		.uleb128 0xf
 1256 03c3 500F0000 		.4byte	.LASF58
 1257 03c7 06       		.byte	0x6
 1258 03c8 38       		.byte	0x38
 1259 03c9 F4070000 		.4byte	0x7f4
 1260 03cd D814     		.2byte	0x14d8
 1261 03cf 0F       		.uleb128 0xf
 1262 03d0 AD000000 		.4byte	.LASF59
 1263 03d4 06       		.byte	0x6
 1264 03d5 39       		.byte	0x39
 1265 03d6 F9070000 		.4byte	0x7f9
 1266 03da 1815     		.2byte	0x1518
 1267 03dc 0F       		.uleb128 0xf
 1268 03dd CE030000 		.4byte	.LASF60
 1269 03e1 06       		.byte	0x6
 1270 03e2 3A       		.byte	0x3a
 1271 03e3 FE070000 		.4byte	0x7fe
ARM GAS  C:\Users\kiwamu\AppData\Local\Temp\ccE2Z6Jb.s 			page 49


 1272 03e7 5815     		.2byte	0x1558
 1273 03e9 0F       		.uleb128 0xf
 1274 03ea 9A0F0000 		.4byte	.LASF61
 1275 03ee 06       		.byte	0x6
 1276 03ef 3B       		.byte	0x3b
 1277 03f0 03080000 		.4byte	0x803
 1278 03f4 9815     		.2byte	0x1598
 1279 03f6 0F       		.uleb128 0xf
 1280 03f7 2D090000 		.4byte	.LASF62
 1281 03fb 06       		.byte	0x6
 1282 03fc 3C       		.byte	0x3c
 1283 03fd 08080000 		.4byte	0x808
 1284 0401 D815     		.2byte	0x15d8
 1285 0403 0F       		.uleb128 0xf
 1286 0404 4C100000 		.4byte	.LASF63
 1287 0408 06       		.byte	0x6
 1288 0409 3D       		.byte	0x3d
 1289 040a 22080000 		.4byte	0x822
 1290 040e 1816     		.2byte	0x1618
 1291 0410 0F       		.uleb128 0xf
 1292 0411 700F0000 		.4byte	.LASF64
 1293 0415 06       		.byte	0x6
 1294 0416 3E       		.byte	0x3e
 1295 0417 99020000 		.4byte	0x299
 1296 041b 0018     		.2byte	0x1800
 1297 041d 0F       		.uleb128 0xf
 1298 041e 56100000 		.4byte	.LASF65
 1299 0422 06       		.byte	0x6
 1300 0423 3F       		.byte	0x3f
 1301 0424 1D070000 		.4byte	0x71d
 1302 0428 0218     		.2byte	0x1802
 1303 042a 0F       		.uleb128 0xf
 1304 042b 7E100000 		.4byte	.LASF66
 1305 042f 06       		.byte	0x6
 1306 0430 40       		.byte	0x40
 1307 0431 F0000000 		.4byte	0xf0
 1308 0435 0418     		.2byte	0x1804
 1309 0437 0F       		.uleb128 0xf
 1310 0438 93100000 		.4byte	.LASF67
 1311 043c 06       		.byte	0x6
 1312 043d 41       		.byte	0x41
 1313 043e F0000000 		.4byte	0xf0
 1314 0442 0818     		.2byte	0x1808
 1315 0444 0F       		.uleb128 0xf
 1316 0445 A8100000 		.4byte	.LASF68
 1317 0449 06       		.byte	0x6
 1318 044a 42       		.byte	0x42
 1319 044b F0000000 		.4byte	0xf0
 1320 044f 0C18     		.2byte	0x180c
 1321 0451 0F       		.uleb128 0xf
 1322 0452 60100000 		.4byte	.LASF69
 1323 0456 06       		.byte	0x6
 1324 0457 43       		.byte	0x43
 1325 0458 3D080000 		.4byte	0x83d
 1326 045c 1018     		.2byte	0x1810
 1327 045e 0F       		.uleb128 0xf
 1328 045f 20080000 		.4byte	.LASF70
ARM GAS  C:\Users\kiwamu\AppData\Local\Temp\ccE2Z6Jb.s 			page 50


 1329 0463 06       		.byte	0x6
 1330 0464 44       		.byte	0x44
 1331 0465 F0000000 		.4byte	0xf0
 1332 0469 0020     		.2byte	0x2000
 1333 046b 0F       		.uleb128 0xf
 1334 046c 880B0000 		.4byte	.LASF71
 1335 0470 06       		.byte	0x6
 1336 0471 45       		.byte	0x45
 1337 0472 F0000000 		.4byte	0xf0
 1338 0476 0420     		.2byte	0x2004
 1339 0478 0F       		.uleb128 0xf
 1340 0479 CA0F0000 		.4byte	.LASF72
 1341 047d 06       		.byte	0x6
 1342 047e 46       		.byte	0x46
 1343 047f F0000000 		.4byte	0xf0
 1344 0483 0820     		.2byte	0x2008
 1345 0485 0F       		.uleb128 0xf
 1346 0486 2E030000 		.4byte	.LASF73
 1347 048a 06       		.byte	0x6
 1348 048b 47       		.byte	0x47
 1349 048c F0000000 		.4byte	0xf0
 1350 0490 0C20     		.2byte	0x200c
 1351 0492 0F       		.uleb128 0xf
 1352 0493 000E0000 		.4byte	.LASF74
 1353 0497 06       		.byte	0x6
 1354 0498 48       		.byte	0x48
 1355 0499 F0000000 		.4byte	0xf0
 1356 049d 1020     		.2byte	0x2010
 1357 049f 0F       		.uleb128 0xf
 1358 04a0 8A0D0000 		.4byte	.LASF75
 1359 04a4 06       		.byte	0x6
 1360 04a5 49       		.byte	0x49
 1361 04a6 F0000000 		.4byte	0xf0
 1362 04aa 1420     		.2byte	0x2014
 1363 04ac 0F       		.uleb128 0xf
 1364 04ad 4E110000 		.4byte	.LASF76
 1365 04b1 06       		.byte	0x6
 1366 04b2 4A       		.byte	0x4a
 1367 04b3 52080000 		.4byte	0x852
 1368 04b7 1820     		.2byte	0x2018
 1369 04b9 0F       		.uleb128 0xf
 1370 04ba 3D130000 		.4byte	.LASF77
 1371 04be 06       		.byte	0x6
 1372 04bf 4B       		.byte	0x4b
 1373 04c0 68080000 		.4byte	0x868
 1374 04c4 D820     		.2byte	0x20d8
 1375 04c6 0F       		.uleb128 0xf
 1376 04c7 66110000 		.4byte	.LASF78
 1377 04cb 06       		.byte	0x6
 1378 04cc 4C       		.byte	0x4c
 1379 04cd 6D080000 		.4byte	0x86d
 1380 04d1 D840     		.2byte	0x40d8
 1381 04d3 0F       		.uleb128 0xf
 1382 04d4 6A100000 		.4byte	.LASF79
 1383 04d8 06       		.byte	0x6
 1384 04d9 4D       		.byte	0x4d
 1385 04da 88080000 		.4byte	0x888
ARM GAS  C:\Users\kiwamu\AppData\Local\Temp\ccE2Z6Jb.s 			page 51


 1386 04de E840     		.2byte	0x40e8
 1387 04e0 0F       		.uleb128 0xf
 1388 04e1 7F0C0000 		.4byte	.LASF80
 1389 04e5 06       		.byte	0x6
 1390 04e6 4E       		.byte	0x4e
 1391 04e7 9E080000 		.4byte	0x89e
 1392 04eb 005A     		.2byte	0x5a00
 1393 04ed 0F       		.uleb128 0xf
 1394 04ee 74100000 		.4byte	.LASF81
 1395 04f2 06       		.byte	0x6
 1396 04f3 4F       		.byte	0x4f
 1397 04f4 B9080000 		.4byte	0x8b9
 1398 04f8 0066     		.2byte	0x6600
 1399 04fa 0F       		.uleb128 0xf
 1400 04fb 09140000 		.4byte	.LASF82
 1401 04ff 06       		.byte	0x6
 1402 0500 50       		.byte	0x50
 1403 0501 F0000000 		.4byte	0xf0
 1404 0505 0078     		.2byte	0x7800
 1405 0507 0F       		.uleb128 0xf
 1406 0508 96050000 		.4byte	.LASF83
 1407 050c 06       		.byte	0x6
 1408 050d 52       		.byte	0x52
 1409 050e F0000000 		.4byte	0xf0
 1410 0512 0478     		.2byte	0x7804
 1411 0514 0F       		.uleb128 0xf
 1412 0515 2A130000 		.4byte	.LASF84
 1413 0519 06       		.byte	0x6
 1414 051a 53       		.byte	0x53
 1415 051b F0000000 		.4byte	0xf0
 1416 051f 0878     		.2byte	0x7808
 1417 0521 0F       		.uleb128 0xf
 1418 0522 47090000 		.4byte	.LASF85
 1419 0526 06       		.byte	0x6
 1420 0527 55       		.byte	0x55
 1421 0528 F0000000 		.4byte	0xf0
 1422 052c 0C78     		.2byte	0x780c
 1423 052e 0F       		.uleb128 0xf
 1424 052f 7A000000 		.4byte	.LASF86
 1425 0533 06       		.byte	0x6
 1426 0534 56       		.byte	0x56
 1427 0535 F0000000 		.4byte	0xf0
 1428 0539 1078     		.2byte	0x7810
 1429 053b 0F       		.uleb128 0xf
 1430 053c 79070000 		.4byte	.LASF87
 1431 0540 06       		.byte	0x6
 1432 0541 57       		.byte	0x57
 1433 0542 F0000000 		.4byte	0xf0
 1434 0546 1478     		.2byte	0x7814
 1435 0548 0F       		.uleb128 0xf
 1436 0549 160D0000 		.4byte	.LASF88
 1437 054d 06       		.byte	0x6
 1438 054e 58       		.byte	0x58
 1439 054f F0000000 		.4byte	0xf0
 1440 0553 1878     		.2byte	0x7818
 1441 0555 0F       		.uleb128 0xf
 1442 0556 AC140000 		.4byte	.LASF89
ARM GAS  C:\Users\kiwamu\AppData\Local\Temp\ccE2Z6Jb.s 			page 52


 1443 055a 06       		.byte	0x6
 1444 055b 59       		.byte	0x59
 1445 055c D3080000 		.4byte	0x8d3
 1446 0560 1C78     		.2byte	0x781c
 1447 0562 0F       		.uleb128 0xf
 1448 0563 220E0000 		.4byte	.LASF90
 1449 0567 06       		.byte	0x6
 1450 0568 5A       		.byte	0x5a
 1451 0569 F0000000 		.4byte	0xf0
 1452 056d FC79     		.2byte	0x79fc
 1453 056f 0F       		.uleb128 0xf
 1454 0570 9B000000 		.4byte	.LASF91
 1455 0574 06       		.byte	0x6
 1456 0575 5B       		.byte	0x5b
 1457 0576 F0000000 		.4byte	0xf0
 1458 057a 007A     		.2byte	0x7a00
 1459 057c 0F       		.uleb128 0xf
 1460 057d E0160000 		.4byte	.LASF92
 1461 0581 06       		.byte	0x6
 1462 0582 5D       		.byte	0x5d
 1463 0583 F0000000 		.4byte	0xf0
 1464 0587 047A     		.2byte	0x7a04
 1465 0589 0F       		.uleb128 0xf
 1466 058a 4D160000 		.4byte	.LASF93
 1467 058e 06       		.byte	0x6
 1468 058f 5E       		.byte	0x5e
 1469 0590 F0000000 		.4byte	0xf0
 1470 0594 087A     		.2byte	0x7a08
 1471 0596 0F       		.uleb128 0xf
 1472 0597 B6060000 		.4byte	.LASF94
 1473 059b 06       		.byte	0x6
 1474 059c 60       		.byte	0x60
 1475 059d F0000000 		.4byte	0xf0
 1476 05a1 0C7A     		.2byte	0x7a0c
 1477 05a3 0F       		.uleb128 0xf
 1478 05a4 4D010000 		.4byte	.LASF95
 1479 05a8 06       		.byte	0x6
 1480 05a9 61       		.byte	0x61
 1481 05aa F0000000 		.4byte	0xf0
 1482 05ae 107A     		.2byte	0x7a10
 1483 05b0 0F       		.uleb128 0xf
 1484 05b1 000B0000 		.4byte	.LASF96
 1485 05b5 06       		.byte	0x6
 1486 05b6 62       		.byte	0x62
 1487 05b7 F0000000 		.4byte	0xf0
 1488 05bb 147A     		.2byte	0x7a14
 1489 05bd 0F       		.uleb128 0xf
 1490 05be D00B0000 		.4byte	.LASF97
 1491 05c2 06       		.byte	0x6
 1492 05c3 64       		.byte	0x64
 1493 05c4 F0000000 		.4byte	0xf0
 1494 05c8 187A     		.2byte	0x7a18
 1495 05ca 0F       		.uleb128 0xf
 1496 05cb B7140000 		.4byte	.LASF98
 1497 05cf 06       		.byte	0x6
 1498 05d0 65       		.byte	0x65
 1499 05d1 DD080000 		.4byte	0x8dd
ARM GAS  C:\Users\kiwamu\AppData\Local\Temp\ccE2Z6Jb.s 			page 53


 1500 05d5 1C7A     		.2byte	0x7a1c
 1501 05d7 0F       		.uleb128 0xf
 1502 05d8 81170000 		.4byte	.LASF99
 1503 05dc 06       		.byte	0x6
 1504 05dd 66       		.byte	0x66
 1505 05de F0000000 		.4byte	0xf0
 1506 05e2 FC7B     		.2byte	0x7bfc
 1507 05e4 0F       		.uleb128 0xf
 1508 05e5 ED090000 		.4byte	.LASF100
 1509 05e9 06       		.byte	0x6
 1510 05ea 68       		.byte	0x68
 1511 05eb F0000000 		.4byte	0xf0
 1512 05ef 007C     		.2byte	0x7c00
 1513 05f1 0F       		.uleb128 0xf
 1514 05f2 24020000 		.4byte	.LASF101
 1515 05f6 06       		.byte	0x6
 1516 05f7 6A       		.byte	0x6a
 1517 05f8 F0000000 		.4byte	0xf0
 1518 05fc 047C     		.2byte	0x7c04
 1519 05fe 0F       		.uleb128 0xf
 1520 05ff 92120000 		.4byte	.LASF102
 1521 0603 06       		.byte	0x6
 1522 0604 6B       		.byte	0x6b
 1523 0605 F0000000 		.4byte	0xf0
 1524 0609 087C     		.2byte	0x7c08
 1525 060b 0F       		.uleb128 0xf
 1526 060c C0080000 		.4byte	.LASF103
 1527 0610 06       		.byte	0x6
 1528 0611 6C       		.byte	0x6c
 1529 0612 F0000000 		.4byte	0xf0
 1530 0616 0C7C     		.2byte	0x7c0c
 1531 0618 0F       		.uleb128 0xf
 1532 0619 D5060000 		.4byte	.LASF104
 1533 061d 06       		.byte	0x6
 1534 061e 6E       		.byte	0x6e
 1535 061f F0000000 		.4byte	0xf0
 1536 0623 107C     		.2byte	0x7c10
 1537 0625 0F       		.uleb128 0xf
 1538 0626 EA000000 		.4byte	.LASF105
 1539 062a 06       		.byte	0x6
 1540 062b 6F       		.byte	0x6f
 1541 062c F0000000 		.4byte	0xf0
 1542 0630 147C     		.2byte	0x7c14
 1543 0632 0F       		.uleb128 0xf
 1544 0633 0A170000 		.4byte	.LASF106
 1545 0637 06       		.byte	0x6
 1546 0638 71       		.byte	0x71
 1547 0639 F0000000 		.4byte	0xf0
 1548 063d 187C     		.2byte	0x7c18
 1549 063f 0F       		.uleb128 0xf
 1550 0640 63060000 		.4byte	.LASF107
 1551 0644 06       		.byte	0x6
 1552 0645 72       		.byte	0x72
 1553 0646 F0000000 		.4byte	0xf0
 1554 064a 1C7C     		.2byte	0x7c1c
 1555 064c 0F       		.uleb128 0xf
 1556 064d 73120000 		.4byte	.LASF108
ARM GAS  C:\Users\kiwamu\AppData\Local\Temp\ccE2Z6Jb.s 			page 54


 1557 0651 06       		.byte	0x6
 1558 0652 74       		.byte	0x74
 1559 0653 F0000000 		.4byte	0xf0
 1560 0657 207C     		.2byte	0x7c20
 1561 0659 0F       		.uleb128 0xf
 1562 065a E70A0000 		.4byte	.LASF109
 1563 065e 06       		.byte	0x6
 1564 065f 77       		.byte	0x77
 1565 0660 F0000000 		.4byte	0xf0
 1566 0664 247C     		.2byte	0x7c24
 1567 0666 0F       		.uleb128 0xf
 1568 0667 C2140000 		.4byte	.LASF110
 1569 066b 06       		.byte	0x6
 1570 066c 79       		.byte	0x79
 1571 066d F7080000 		.4byte	0x8f7
 1572 0671 287C     		.2byte	0x7c28
 1573 0673 0F       		.uleb128 0xf
 1574 0674 DB120000 		.4byte	.LASF111
 1575 0678 06       		.byte	0x6
 1576 0679 7A       		.byte	0x7a
 1577 067a F0000000 		.4byte	0xf0
 1578 067e FC7D     		.2byte	0x7dfc
 1579 0680 0F       		.uleb128 0xf
 1580 0681 B1010000 		.4byte	.LASF112
 1581 0685 06       		.byte	0x6
 1582 0686 7B       		.byte	0x7b
 1583 0687 F0000000 		.4byte	0xf0
 1584 068b 007E     		.2byte	0x7e00
 1585 068d 0F       		.uleb128 0xf
 1586 068e 5F030000 		.4byte	.LASF113
 1587 0692 06       		.byte	0x6
 1588 0693 7D       		.byte	0x7d
 1589 0694 F0000000 		.4byte	0xf0
 1590 0698 047E     		.2byte	0x7e04
 1591 069a 0F       		.uleb128 0xf
 1592 069b 720A0000 		.4byte	.LASF114
 1593 069f 06       		.byte	0x6
 1594 06a0 7E       		.byte	0x7e
 1595 06a1 F0000000 		.4byte	0xf0
 1596 06a5 087E     		.2byte	0x7e08
 1597 06a7 0F       		.uleb128 0xf
 1598 06a8 BD0A0000 		.4byte	.LASF115
 1599 06ac 06       		.byte	0x6
 1600 06ad 7F       		.byte	0x7f
 1601 06ae F0000000 		.4byte	0xf0
 1602 06b2 0C7E     		.2byte	0x7e0c
 1603 06b4 0F       		.uleb128 0xf
 1604 06b5 38000000 		.4byte	.LASF116
 1605 06b9 06       		.byte	0x6
 1606 06ba 81       		.byte	0x81
 1607 06bb F0000000 		.4byte	0xf0
 1608 06bf 107E     		.2byte	0x7e10
 1609 06c1 0F       		.uleb128 0xf
 1610 06c2 F5150000 		.4byte	.LASF117
 1611 06c6 06       		.byte	0x6
 1612 06c7 82       		.byte	0x82
 1613 06c8 F0000000 		.4byte	0xf0
ARM GAS  C:\Users\kiwamu\AppData\Local\Temp\ccE2Z6Jb.s 			page 55


 1614 06cc 147E     		.2byte	0x7e14
 1615 06ce 0F       		.uleb128 0xf
 1616 06cf C3010000 		.4byte	.LASF118
 1617 06d3 06       		.byte	0x6
 1618 06d4 84       		.byte	0x84
 1619 06d5 F0000000 		.4byte	0xf0
 1620 06d9 187E     		.2byte	0x7e18
 1621 06db 0F       		.uleb128 0xf
 1622 06dc AD020000 		.4byte	.LASF119
 1623 06e0 06       		.byte	0x6
 1624 06e1 85       		.byte	0x85
 1625 06e2 F0000000 		.4byte	0xf0
 1626 06e6 1C7E     		.2byte	0x7e1c
 1627 06e8 0F       		.uleb128 0xf
 1628 06e9 8D070000 		.4byte	.LASF120
 1629 06ed 06       		.byte	0x6
 1630 06ee 87       		.byte	0x87
 1631 06ef F0000000 		.4byte	0xf0
 1632 06f3 207E     		.2byte	0x7e20
 1633 06f5 0F       		.uleb128 0xf
 1634 06f6 7B030000 		.4byte	.LASF121
 1635 06fa 06       		.byte	0x6
 1636 06fb 8A       		.byte	0x8a
 1637 06fc F0000000 		.4byte	0xf0
 1638 0700 247E     		.2byte	0x7e24
 1639 0702 0F       		.uleb128 0xf
 1640 0703 CD140000 		.4byte	.LASF122
 1641 0707 06       		.byte	0x6
 1642 0708 8D       		.byte	0x8d
 1643 0709 01090000 		.4byte	0x901
 1644 070d 287E     		.2byte	0x7e28
 1645 070f 0F       		.uleb128 0xf
 1646 0710 FE050000 		.4byte	.LASF123
 1647 0714 06       		.byte	0x6
 1648 0715 8E       		.byte	0x8e
 1649 0716 F0000000 		.4byte	0xf0
 1650 071a FC7F     		.2byte	0x7ffc
 1651 071c 00       		.byte	0
 1652 071d 0B       		.uleb128 0xb
 1653 071e 99020000 		.4byte	0x299
 1654 0722 05       		.uleb128 0x5
 1655 0723 15020000 		.4byte	0x215
 1656 0727 33070000 		.4byte	0x733
 1657 072b 10       		.uleb128 0x10
 1658 072c E9000000 		.4byte	0xe9
 1659 0730 7E01     		.2byte	0x17e
 1660 0732 00       		.byte	0
 1661 0733 07       		.uleb128 0x7
 1662 0734 22070000 		.4byte	0x722
 1663 0738 0B       		.uleb128 0xb
 1664 0739 33070000 		.4byte	0x733
 1665 073d 05       		.uleb128 0x5
 1666 073e F5000000 		.4byte	0xf5
 1667 0742 4D070000 		.4byte	0x74d
 1668 0746 06       		.uleb128 0x6
 1669 0747 E9000000 		.4byte	0xe9
 1670 074b 02       		.byte	0x2
ARM GAS  C:\Users\kiwamu\AppData\Local\Temp\ccE2Z6Jb.s 			page 56


 1671 074c 00       		.byte	0
 1672 074d 07       		.uleb128 0x7
 1673 074e 3D070000 		.4byte	0x73d
 1674 0752 05       		.uleb128 0x5
 1675 0753 62070000 		.4byte	0x762
 1676 0757 62070000 		.4byte	0x762
 1677 075b 06       		.uleb128 0x6
 1678 075c E9000000 		.4byte	0xe9
 1679 0760 60       		.byte	0x60
 1680 0761 00       		.byte	0
 1681 0762 0B       		.uleb128 0xb
 1682 0763 F5000000 		.4byte	0xf5
 1683 0767 07       		.uleb128 0x7
 1684 0768 52070000 		.4byte	0x752
 1685 076c 0B       		.uleb128 0xb
 1686 076d 67070000 		.4byte	0x767
 1687 0771 05       		.uleb128 0x5
 1688 0772 15020000 		.4byte	0x215
 1689 0776 81070000 		.4byte	0x781
 1690 077a 06       		.uleb128 0x6
 1691 077b E9000000 		.4byte	0xe9
 1692 077f 63       		.byte	0x63
 1693 0780 00       		.byte	0
 1694 0781 07       		.uleb128 0x7
 1695 0782 71070000 		.4byte	0x771
 1696 0786 0B       		.uleb128 0xb
 1697 0787 81070000 		.4byte	0x781
 1698 078b 05       		.uleb128 0x5
 1699 078c F0000000 		.4byte	0xf0
 1700 0790 9B070000 		.4byte	0x79b
 1701 0794 06       		.uleb128 0x6
 1702 0795 E9000000 		.4byte	0xe9
 1703 0799 7F       		.byte	0x7f
 1704 079a 00       		.byte	0
 1705 079b 07       		.uleb128 0x7
 1706 079c 8B070000 		.4byte	0x78b
 1707 07a0 07       		.uleb128 0x7
 1708 07a1 8B070000 		.4byte	0x78b
 1709 07a5 07       		.uleb128 0x7
 1710 07a6 8B070000 		.4byte	0x78b
 1711 07aa 07       		.uleb128 0x7
 1712 07ab 8B070000 		.4byte	0x78b
 1713 07af 05       		.uleb128 0x5
 1714 07b0 15020000 		.4byte	0x215
 1715 07b4 C0070000 		.4byte	0x7c0
 1716 07b8 10       		.uleb128 0x10
 1717 07b9 E9000000 		.4byte	0xe9
 1718 07bd 2D01     		.2byte	0x12d
 1719 07bf 00       		.byte	0
 1720 07c0 07       		.uleb128 0x7
 1721 07c1 AF070000 		.4byte	0x7af
 1722 07c5 0B       		.uleb128 0xb
 1723 07c6 C0070000 		.4byte	0x7c0
 1724 07ca 05       		.uleb128 0x5
 1725 07cb F5000000 		.4byte	0xf5
 1726 07cf DA070000 		.4byte	0x7da
 1727 07d3 06       		.uleb128 0x6
ARM GAS  C:\Users\kiwamu\AppData\Local\Temp\ccE2Z6Jb.s 			page 57


 1728 07d4 E9000000 		.4byte	0xe9
 1729 07d8 0F       		.byte	0xf
 1730 07d9 00       		.byte	0
 1731 07da 07       		.uleb128 0x7
 1732 07db CA070000 		.4byte	0x7ca
 1733 07df 07       		.uleb128 0x7
 1734 07e0 CA070000 		.4byte	0x7ca
 1735 07e4 05       		.uleb128 0x5
 1736 07e5 F0000000 		.4byte	0xf0
 1737 07e9 F4070000 		.4byte	0x7f4
 1738 07ed 06       		.uleb128 0x6
 1739 07ee E9000000 		.4byte	0xe9
 1740 07f2 0F       		.byte	0xf
 1741 07f3 00       		.byte	0
 1742 07f4 07       		.uleb128 0x7
 1743 07f5 E4070000 		.4byte	0x7e4
 1744 07f9 07       		.uleb128 0x7
 1745 07fa E4070000 		.4byte	0x7e4
 1746 07fe 07       		.uleb128 0x7
 1747 07ff E4070000 		.4byte	0x7e4
 1748 0803 07       		.uleb128 0x7
 1749 0804 E4070000 		.4byte	0x7e4
 1750 0808 07       		.uleb128 0x7
 1751 0809 E4070000 		.4byte	0x7e4
 1752 080d 05       		.uleb128 0x5
 1753 080e 15020000 		.4byte	0x215
 1754 0812 1D080000 		.4byte	0x81d
 1755 0816 06       		.uleb128 0x6
 1756 0817 E9000000 		.4byte	0xe9
 1757 081b 79       		.byte	0x79
 1758 081c 00       		.byte	0
 1759 081d 07       		.uleb128 0x7
 1760 081e 0D080000 		.4byte	0x80d
 1761 0822 0B       		.uleb128 0xb
 1762 0823 1D080000 		.4byte	0x81d
 1763 0827 05       		.uleb128 0x5
 1764 0828 15020000 		.4byte	0x215
 1765 082c 38080000 		.4byte	0x838
 1766 0830 10       		.uleb128 0x10
 1767 0831 E9000000 		.4byte	0xe9
 1768 0835 FB01     		.2byte	0x1fb
 1769 0837 00       		.byte	0
 1770 0838 07       		.uleb128 0x7
 1771 0839 27080000 		.4byte	0x827
 1772 083d 0B       		.uleb128 0xb
 1773 083e 38080000 		.4byte	0x838
 1774 0842 05       		.uleb128 0x5
 1775 0843 F0000000 		.4byte	0xf0
 1776 0847 52080000 		.4byte	0x852
 1777 084b 06       		.uleb128 0x6
 1778 084c E9000000 		.4byte	0xe9
 1779 0850 2F       		.byte	0x2f
 1780 0851 00       		.byte	0
 1781 0852 07       		.uleb128 0x7
 1782 0853 42080000 		.4byte	0x842
 1783 0857 05       		.uleb128 0x5
 1784 0858 F5000000 		.4byte	0xf5
ARM GAS  C:\Users\kiwamu\AppData\Local\Temp\ccE2Z6Jb.s 			page 58


 1785 085c 68080000 		.4byte	0x868
 1786 0860 10       		.uleb128 0x10
 1787 0861 E9000000 		.4byte	0xe9
 1788 0865 FF1F     		.2byte	0x1fff
 1789 0867 00       		.byte	0
 1790 0868 07       		.uleb128 0x7
 1791 0869 57080000 		.4byte	0x857
 1792 086d 07       		.uleb128 0x7
 1793 086e CA070000 		.4byte	0x7ca
 1794 0872 05       		.uleb128 0x5
 1795 0873 15020000 		.4byte	0x215
 1796 0877 83080000 		.4byte	0x883
 1797 087b 10       		.uleb128 0x10
 1798 087c E9000000 		.4byte	0xe9
 1799 0880 4506     		.2byte	0x645
 1800 0882 00       		.byte	0
 1801 0883 07       		.uleb128 0x7
 1802 0884 72080000 		.4byte	0x872
 1803 0888 0B       		.uleb128 0xb
 1804 0889 83080000 		.4byte	0x883
 1805 088d 05       		.uleb128 0x5
 1806 088e F5000000 		.4byte	0xf5
 1807 0892 9E080000 		.4byte	0x89e
 1808 0896 10       		.uleb128 0x10
 1809 0897 E9000000 		.4byte	0xe9
 1810 089b FF0B     		.2byte	0xbff
 1811 089d 00       		.byte	0
 1812 089e 07       		.uleb128 0x7
 1813 089f 8D080000 		.4byte	0x88d
 1814 08a3 05       		.uleb128 0x5
 1815 08a4 15020000 		.4byte	0x215
 1816 08a8 B4080000 		.4byte	0x8b4
 1817 08ac 10       		.uleb128 0x10
 1818 08ad E9000000 		.4byte	0xe9
 1819 08b1 7F04     		.2byte	0x47f
 1820 08b3 00       		.byte	0
 1821 08b4 07       		.uleb128 0x7
 1822 08b5 A3080000 		.4byte	0x8a3
 1823 08b9 0B       		.uleb128 0xb
 1824 08ba B4080000 		.4byte	0x8b4
 1825 08be 05       		.uleb128 0x5
 1826 08bf 15020000 		.4byte	0x215
 1827 08c3 CE080000 		.4byte	0x8ce
 1828 08c7 06       		.uleb128 0x6
 1829 08c8 E9000000 		.4byte	0xe9
 1830 08cc 77       		.byte	0x77
 1831 08cd 00       		.byte	0
 1832 08ce 07       		.uleb128 0x7
 1833 08cf BE080000 		.4byte	0x8be
 1834 08d3 0B       		.uleb128 0xb
 1835 08d4 CE080000 		.4byte	0x8ce
 1836 08d8 07       		.uleb128 0x7
 1837 08d9 BE080000 		.4byte	0x8be
 1838 08dd 0B       		.uleb128 0xb
 1839 08de D8080000 		.4byte	0x8d8
 1840 08e2 05       		.uleb128 0x5
 1841 08e3 15020000 		.4byte	0x215
ARM GAS  C:\Users\kiwamu\AppData\Local\Temp\ccE2Z6Jb.s 			page 59


 1842 08e7 F2080000 		.4byte	0x8f2
 1843 08eb 06       		.uleb128 0x6
 1844 08ec E9000000 		.4byte	0xe9
 1845 08f0 74       		.byte	0x74
 1846 08f1 00       		.byte	0
 1847 08f2 07       		.uleb128 0x7
 1848 08f3 E2080000 		.4byte	0x8e2
 1849 08f7 0B       		.uleb128 0xb
 1850 08f8 F2080000 		.4byte	0x8f2
 1851 08fc 07       		.uleb128 0x7
 1852 08fd E2080000 		.4byte	0x8e2
 1853 0901 0B       		.uleb128 0xb
 1854 0902 FC080000 		.4byte	0x8fc
 1855 0906 03       		.uleb128 0x3
 1856 0907 99060000 		.4byte	.LASF124
 1857 090b 06       		.byte	0x6
 1858 090c 90       		.byte	0x90
 1859 090d 9E020000 		.4byte	0x29e
 1860 0911 05       		.uleb128 0x5
 1861 0912 15020000 		.4byte	0x215
 1862 0916 21090000 		.4byte	0x921
 1863 091a 06       		.uleb128 0x6
 1864 091b E9000000 		.4byte	0xe9
 1865 091f 06       		.byte	0x6
 1866 0920 00       		.byte	0
 1867 0921 05       		.uleb128 0x5
 1868 0922 F0000000 		.4byte	0xf0
 1869 0926 31090000 		.4byte	0x931
 1870 092a 06       		.uleb128 0x6
 1871 092b E9000000 		.4byte	0xe9
 1872 092f 3F       		.byte	0x3f
 1873 0930 00       		.byte	0
 1874 0931 0D       		.uleb128 0xd
 1875 0932 08F0     		.2byte	0xf008
 1876 0934 07       		.byte	0x7
 1877 0935 21       		.byte	0x21
 1878 0936 710C0000 		.4byte	0xc71
 1879 093a 0E       		.uleb128 0xe
 1880 093b C1110000 		.4byte	.LASF125
 1881 093f 07       		.byte	0x7
 1882 0940 22       		.byte	0x22
 1883 0941 F0000000 		.4byte	0xf0
 1884 0945 00       		.byte	0
 1885 0946 0E       		.uleb128 0xe
 1886 0947 E3040000 		.4byte	.LASF36
 1887 094b 07       		.byte	0x7
 1888 094c 23       		.byte	0x23
 1889 094d 15020000 		.4byte	0x215
 1890 0951 04       		.byte	0x4
 1891 0952 0E       		.uleb128 0xe
 1892 0953 D8040000 		.4byte	.LASF126
 1893 0957 07       		.byte	0x7
 1894 0958 24       		.byte	0x24
 1895 0959 15020000 		.4byte	0x215
 1896 095d 08       		.byte	0x8
 1897 095e 0E       		.uleb128 0xe
 1898 095f 24100000 		.4byte	.LASF38
ARM GAS  C:\Users\kiwamu\AppData\Local\Temp\ccE2Z6Jb.s 			page 60


 1899 0963 07       		.byte	0x7
 1900 0964 25       		.byte	0x25
 1901 0965 15020000 		.4byte	0x215
 1902 0969 0C       		.byte	0xc
 1903 096a 0E       		.uleb128 0xe
 1904 096b DE010000 		.4byte	.LASF127
 1905 096f 07       		.byte	0x7
 1906 0970 26       		.byte	0x26
 1907 0971 F0000000 		.4byte	0xf0
 1908 0975 10       		.byte	0x10
 1909 0976 0E       		.uleb128 0xe
 1910 0977 2E100000 		.4byte	.LASF48
 1911 097b 07       		.byte	0x7
 1912 097c 27       		.byte	0x27
 1913 097d 860C0000 		.4byte	0xc86
 1914 0981 14       		.byte	0x14
 1915 0982 0E       		.uleb128 0xe
 1916 0983 9F140000 		.4byte	.LASF128
 1917 0987 07       		.byte	0x7
 1918 0988 28       		.byte	0x28
 1919 0989 F0000000 		.4byte	0xf0
 1920 098d 20       		.byte	0x20
 1921 098e 0E       		.uleb128 0xe
 1922 098f 37120000 		.4byte	.LASF129
 1923 0993 07       		.byte	0x7
 1924 0994 29       		.byte	0x29
 1925 0995 F0000000 		.4byte	0xf0
 1926 0999 24       		.byte	0x24
 1927 099a 0E       		.uleb128 0xe
 1928 099b 77130000 		.4byte	.LASF130
 1929 099f 07       		.byte	0x7
 1930 09a0 2A       		.byte	0x2a
 1931 09a1 F0000000 		.4byte	0xf0
 1932 09a5 28       		.byte	0x28
 1933 09a6 0E       		.uleb128 0xe
 1934 09a7 84130000 		.4byte	.LASF131
 1935 09ab 07       		.byte	0x7
 1936 09ac 2B       		.byte	0x2b
 1937 09ad F0000000 		.4byte	0xf0
 1938 09b1 2C       		.byte	0x2c
 1939 09b2 0E       		.uleb128 0xe
 1940 09b3 91130000 		.4byte	.LASF132
 1941 09b7 07       		.byte	0x7
 1942 09b8 2C       		.byte	0x2c
 1943 09b9 F0000000 		.4byte	0xf0
 1944 09bd 30       		.byte	0x30
 1945 09be 0E       		.uleb128 0xe
 1946 09bf 9E130000 		.4byte	.LASF133
 1947 09c3 07       		.byte	0x7
 1948 09c4 2D       		.byte	0x2d
 1949 09c5 F0000000 		.4byte	0xf0
 1950 09c9 34       		.byte	0x34
 1951 09ca 0E       		.uleb128 0xe
 1952 09cb A6120000 		.4byte	.LASF134
 1953 09cf 07       		.byte	0x7
 1954 09d0 2E       		.byte	0x2e
 1955 09d1 F0000000 		.4byte	0xf0
ARM GAS  C:\Users\kiwamu\AppData\Local\Temp\ccE2Z6Jb.s 			page 61


 1956 09d5 38       		.byte	0x38
 1957 09d6 0E       		.uleb128 0xe
 1958 09d7 BD130000 		.4byte	.LASF135
 1959 09db 07       		.byte	0x7
 1960 09dc 2F       		.byte	0x2f
 1961 09dd F0000000 		.4byte	0xf0
 1962 09e1 3C       		.byte	0x3c
 1963 09e2 0E       		.uleb128 0xe
 1964 09e3 38100000 		.4byte	.LASF50
 1965 09e7 07       		.byte	0x7
 1966 09e8 30       		.byte	0x30
 1967 09e9 A00C0000 		.4byte	0xca0
 1968 09ed 40       		.byte	0x40
 1969 09ee 0E       		.uleb128 0xe
 1970 09ef E40E0000 		.4byte	.LASF136
 1971 09f3 07       		.byte	0x7
 1972 09f4 31       		.byte	0x31
 1973 09f5 F0000000 		.4byte	0xf0
 1974 09f9 80       		.byte	0x80
 1975 09fa 0E       		.uleb128 0xe
 1976 09fb 2E0D0000 		.4byte	.LASF137
 1977 09ff 07       		.byte	0x7
 1978 0a00 32       		.byte	0x32
 1979 0a01 F0000000 		.4byte	0xf0
 1980 0a05 84       		.byte	0x84
 1981 0a06 0E       		.uleb128 0xe
 1982 0a07 06100000 		.4byte	.LASF138
 1983 0a0b 07       		.byte	0x7
 1984 0a0c 33       		.byte	0x33
 1985 0a0d 15020000 		.4byte	0x215
 1986 0a11 88       		.byte	0x88
 1987 0a12 0E       		.uleb128 0xe
 1988 0a13 42100000 		.4byte	.LASF55
 1989 0a17 07       		.byte	0x7
 1990 0a18 34       		.byte	0x34
 1991 0a19 15020000 		.4byte	0x215
 1992 0a1d 8C       		.byte	0x8c
 1993 0a1e 0E       		.uleb128 0xe
 1994 0a1f 9A0B0000 		.4byte	.LASF139
 1995 0a23 07       		.byte	0x7
 1996 0a24 35       		.byte	0x35
 1997 0a25 F0000000 		.4byte	0xf0
 1998 0a29 90       		.byte	0x90
 1999 0a2a 0E       		.uleb128 0xe
 2000 0a2b 4C100000 		.4byte	.LASF63
 2001 0a2f 07       		.byte	0x7
 2002 0a30 36       		.byte	0x36
 2003 0a31 AA0C0000 		.4byte	0xcaa
 2004 0a35 94       		.byte	0x94
 2005 0a36 0E       		.uleb128 0xe
 2006 0a37 B3120000 		.4byte	.LASF140
 2007 0a3b 07       		.byte	0x7
 2008 0a3c 37       		.byte	0x37
 2009 0a3d F0000000 		.4byte	0xf0
 2010 0a41 A0       		.byte	0xa0
 2011 0a42 0E       		.uleb128 0xe
 2012 0a43 56100000 		.4byte	.LASF65
ARM GAS  C:\Users\kiwamu\AppData\Local\Temp\ccE2Z6Jb.s 			page 62


 2013 0a47 07       		.byte	0x7
 2014 0a48 38       		.byte	0x38
 2015 0a49 C40C0000 		.4byte	0xcc4
 2016 0a4d A4       		.byte	0xa4
 2017 0a4e 0F       		.uleb128 0xf
 2018 0a4f 9C090000 		.4byte	.LASF141
 2019 0a53 07       		.byte	0x7
 2020 0a54 39       		.byte	0x39
 2021 0a55 F0000000 		.4byte	0xf0
 2022 0a59 0001     		.2byte	0x100
 2023 0a5b 0F       		.uleb128 0xf
 2024 0a5c 60100000 		.4byte	.LASF69
 2025 0a60 07       		.byte	0x7
 2026 0a61 3A       		.byte	0x3a
 2027 0a62 DE0C0000 		.4byte	0xcde
 2028 0a66 0401     		.2byte	0x104
 2029 0a68 0F       		.uleb128 0xf
 2030 0a69 29070000 		.4byte	.LASF142
 2031 0a6d 07       		.byte	0x7
 2032 0a6e 3B       		.byte	0x3b
 2033 0a6f E30C0000 		.4byte	0xce3
 2034 0a73 4001     		.2byte	0x140
 2035 0a75 0F       		.uleb128 0xf
 2036 0a76 A3110000 		.4byte	.LASF143
 2037 0a7a 07       		.byte	0x7
 2038 0a7b 3C       		.byte	0x3c
 2039 0a7c F0000000 		.4byte	0xf0
 2040 0a80 8001     		.2byte	0x180
 2041 0a82 0F       		.uleb128 0xf
 2042 0a83 6A100000 		.4byte	.LASF79
 2043 0a87 07       		.byte	0x7
 2044 0a88 3D       		.byte	0x3d
 2045 0a89 ED0C0000 		.4byte	0xced
 2046 0a8d 8401     		.2byte	0x184
 2047 0a8f 0F       		.uleb128 0xf
 2048 0a90 D1050000 		.4byte	.LASF144
 2049 0a94 07       		.byte	0x7
 2050 0a95 3E       		.byte	0x3e
 2051 0a96 F0000000 		.4byte	0xf0
 2052 0a9a 9001     		.2byte	0x190
 2053 0a9c 0F       		.uleb128 0xf
 2054 0a9d 74100000 		.4byte	.LASF81
 2055 0aa1 07       		.byte	0x7
 2056 0aa2 3F       		.byte	0x3f
 2057 0aa3 F70C0000 		.4byte	0xcf7
 2058 0aa7 9401     		.2byte	0x194
 2059 0aa9 0F       		.uleb128 0xf
 2060 0aaa A1070000 		.4byte	.LASF145
 2061 0aae 07       		.byte	0x7
 2062 0aaf 40       		.byte	0x40
 2063 0ab0 F0000000 		.4byte	0xf0
 2064 0ab4 A001     		.2byte	0x1a0
 2065 0ab6 0F       		.uleb128 0xf
 2066 0ab7 AC140000 		.4byte	.LASF89
 2067 0abb 07       		.byte	0x7
 2068 0abc 41       		.byte	0x41
 2069 0abd 010D0000 		.4byte	0xd01
ARM GAS  C:\Users\kiwamu\AppData\Local\Temp\ccE2Z6Jb.s 			page 63


 2070 0ac1 A401     		.2byte	0x1a4
 2071 0ac3 0F       		.uleb128 0xf
 2072 0ac4 9F0C0000 		.4byte	.LASF146
 2073 0ac8 07       		.byte	0x7
 2074 0ac9 42       		.byte	0x42
 2075 0aca F0000000 		.4byte	0xf0
 2076 0ace B001     		.2byte	0x1b0
 2077 0ad0 0F       		.uleb128 0xf
 2078 0ad1 B7140000 		.4byte	.LASF98
 2079 0ad5 07       		.byte	0x7
 2080 0ad6 43       		.byte	0x43
 2081 0ad7 0B0D0000 		.4byte	0xd0b
 2082 0adb B401     		.2byte	0x1b4
 2083 0add 0F       		.uleb128 0xf
 2084 0ade 6F170000 		.4byte	.LASF147
 2085 0ae2 07       		.byte	0x7
 2086 0ae3 44       		.byte	0x44
 2087 0ae4 F0000000 		.4byte	0xf0
 2088 0ae8 C001     		.2byte	0x1c0
 2089 0aea 0F       		.uleb128 0xf
 2090 0aeb C2140000 		.4byte	.LASF110
 2091 0aef 07       		.byte	0x7
 2092 0af0 45       		.byte	0x45
 2093 0af1 150D0000 		.4byte	0xd15
 2094 0af5 C401     		.2byte	0x1c4
 2095 0af7 0F       		.uleb128 0xf
 2096 0af8 C5040000 		.4byte	.LASF148
 2097 0afc 07       		.byte	0x7
 2098 0afd 46       		.byte	0x46
 2099 0afe F0000000 		.4byte	0xf0
 2100 0b02 D001     		.2byte	0x1d0
 2101 0b04 0F       		.uleb128 0xf
 2102 0b05 CD140000 		.4byte	.LASF122
 2103 0b09 07       		.byte	0x7
 2104 0b0a 47       		.byte	0x47
 2105 0b0b 1F0D0000 		.4byte	0xd1f
 2106 0b0f D401     		.2byte	0x1d4
 2107 0b11 0F       		.uleb128 0xf
 2108 0b12 670B0000 		.4byte	.LASF149
 2109 0b16 07       		.byte	0x7
 2110 0b17 48       		.byte	0x48
 2111 0b18 F0000000 		.4byte	0xf0
 2112 0b1c F001     		.2byte	0x1f0
 2113 0b1e 0F       		.uleb128 0xf
 2114 0b1f 05010000 		.4byte	.LASF150
 2115 0b23 07       		.byte	0x7
 2116 0b24 49       		.byte	0x49
 2117 0b25 F0000000 		.4byte	0xf0
 2118 0b29 F401     		.2byte	0x1f4
 2119 0b2b 0F       		.uleb128 0xf
 2120 0b2c D8140000 		.4byte	.LASF151
 2121 0b30 07       		.byte	0x7
 2122 0b31 4A       		.byte	0x4a
 2123 0b32 290D0000 		.4byte	0xd29
 2124 0b36 F801     		.2byte	0x1f8
 2125 0b38 0F       		.uleb128 0xf
 2126 0b39 E0000000 		.4byte	.LASF152
ARM GAS  C:\Users\kiwamu\AppData\Local\Temp\ccE2Z6Jb.s 			page 64


 2127 0b3d 07       		.byte	0x7
 2128 0b3e 4B       		.byte	0x4b
 2129 0b3f 15020000 		.4byte	0x215
 2130 0b43 0802     		.2byte	0x208
 2131 0b45 0F       		.uleb128 0xf
 2132 0b46 E3140000 		.4byte	.LASF153
 2133 0b4a 07       		.byte	0x7
 2134 0b4b 4C       		.byte	0x4c
 2135 0b4c 330D0000 		.4byte	0xd33
 2136 0b50 0C02     		.2byte	0x20c
 2137 0b52 0F       		.uleb128 0xf
 2138 0b53 CE150000 		.4byte	.LASF154
 2139 0b57 07       		.byte	0x7
 2140 0b58 4D       		.byte	0x4d
 2141 0b59 F0000000 		.4byte	0xf0
 2142 0b5d 2002     		.2byte	0x220
 2143 0b5f 0F       		.uleb128 0xf
 2144 0b60 EE140000 		.4byte	.LASF155
 2145 0b64 07       		.byte	0x7
 2146 0b65 4E       		.byte	0x4e
 2147 0b66 3D0D0000 		.4byte	0xd3d
 2148 0b6a 2402     		.2byte	0x224
 2149 0b6c 0F       		.uleb128 0xf
 2150 0b6d 95030000 		.4byte	.LASF156
 2151 0b71 07       		.byte	0x7
 2152 0b72 4F       		.byte	0x4f
 2153 0b73 F0000000 		.4byte	0xf0
 2154 0b77 3002     		.2byte	0x230
 2155 0b79 0F       		.uleb128 0xf
 2156 0b7a F9140000 		.4byte	.LASF157
 2157 0b7e 07       		.byte	0x7
 2158 0b7f 50       		.byte	0x50
 2159 0b80 470D0000 		.4byte	0xd47
 2160 0b84 3402     		.2byte	0x234
 2161 0b86 0F       		.uleb128 0xf
 2162 0b87 B4170000 		.4byte	.LASF158
 2163 0b8b 07       		.byte	0x7
 2164 0b8c 51       		.byte	0x51
 2165 0b8d F0000000 		.4byte	0xf0
 2166 0b91 4002     		.2byte	0x240
 2167 0b93 0F       		.uleb128 0xf
 2168 0b94 04150000 		.4byte	.LASF159
 2169 0b98 07       		.byte	0x7
 2170 0b99 52       		.byte	0x52
 2171 0b9a 610D0000 		.4byte	0xd61
 2172 0b9e 4402     		.2byte	0x244
 2173 0ba0 0F       		.uleb128 0xf
 2174 0ba1 1C110000 		.4byte	.LASF160
 2175 0ba5 07       		.byte	0x7
 2176 0ba6 53       		.byte	0x53
 2177 0ba7 F0000000 		.4byte	0xf0
 2178 0bab B002     		.2byte	0x2b0
 2179 0bad 0F       		.uleb128 0xf
 2180 0bae 0F150000 		.4byte	.LASF161
 2181 0bb2 07       		.byte	0x7
 2182 0bb3 54       		.byte	0x54
 2183 0bb4 6B0D0000 		.4byte	0xd6b
ARM GAS  C:\Users\kiwamu\AppData\Local\Temp\ccE2Z6Jb.s 			page 65


 2184 0bb8 B402     		.2byte	0x2b4
 2185 0bba 0F       		.uleb128 0xf
 2186 0bbb 08020000 		.4byte	.LASF162
 2187 0bbf 07       		.byte	0x7
 2188 0bc0 55       		.byte	0x55
 2189 0bc1 F0000000 		.4byte	0xf0
 2190 0bc5 C002     		.2byte	0x2c0
 2191 0bc7 0F       		.uleb128 0xf
 2192 0bc8 74160000 		.4byte	.LASF163
 2193 0bcc 07       		.byte	0x7
 2194 0bcd 56       		.byte	0x56
 2195 0bce 750D0000 		.4byte	0xd75
 2196 0bd2 C402     		.2byte	0x2c4
 2197 0bd4 0F       		.uleb128 0xf
 2198 0bd5 0F0A0000 		.4byte	.LASF164
 2199 0bd9 07       		.byte	0x7
 2200 0bda 57       		.byte	0x57
 2201 0bdb F0000000 		.4byte	0xf0
 2202 0bdf 2003     		.2byte	0x320
 2203 0be1 0F       		.uleb128 0xf
 2204 0be2 7F160000 		.4byte	.LASF165
 2205 0be6 07       		.byte	0x7
 2206 0be7 58       		.byte	0x58
 2207 0be8 8F0D0000 		.4byte	0xd8f
 2208 0bec 2403     		.2byte	0x324
 2209 0bee 0F       		.uleb128 0xf
 2210 0bef 580D0000 		.4byte	.LASF166
 2211 0bf3 07       		.byte	0x7
 2212 0bf4 59       		.byte	0x59
 2213 0bf5 15020000 		.4byte	0x215
 2214 0bf9 0004     		.2byte	0x400
 2215 0bfb 0F       		.uleb128 0xf
 2216 0bfc 8A160000 		.4byte	.LASF167
 2217 0c00 07       		.byte	0x7
 2218 0c01 5A       		.byte	0x5a
 2219 0c02 A90D0000 		.4byte	0xda9
 2220 0c06 0404     		.2byte	0x404
 2221 0c08 0F       		.uleb128 0xf
 2222 0c09 8A0C0000 		.4byte	.LASF168
 2223 0c0d 07       		.byte	0x7
 2224 0c0e 5B       		.byte	0x5b
 2225 0c0f F0000000 		.4byte	0xf0
 2226 0c13 0005     		.2byte	0x500
 2227 0c15 0F       		.uleb128 0xf
 2228 0c16 95160000 		.4byte	.LASF169
 2229 0c1a 07       		.byte	0x7
 2230 0c1b 5C       		.byte	0x5c
 2231 0c1c B30D0000 		.4byte	0xdb3
 2232 0c20 0405     		.2byte	0x504
 2233 0c22 0F       		.uleb128 0xf
 2234 0c23 4D0B0000 		.4byte	.LASF170
 2235 0c27 07       		.byte	0x7
 2236 0c28 5D       		.byte	0x5d
 2237 0c29 F0000000 		.4byte	0xf0
 2238 0c2d 2005     		.2byte	0x520
 2239 0c2f 0F       		.uleb128 0xf
 2240 0c30 A0160000 		.4byte	.LASF171
ARM GAS  C:\Users\kiwamu\AppData\Local\Temp\ccE2Z6Jb.s 			page 66


 2241 0c34 07       		.byte	0x7
 2242 0c35 5E       		.byte	0x5e
 2243 0c36 CD0D0000 		.4byte	0xdcd
 2244 0c3a 2405     		.2byte	0x524
 2245 0c3c 0F       		.uleb128 0xf
 2246 0c3d D60D0000 		.4byte	.LASF172
 2247 0c41 07       		.byte	0x7
 2248 0c42 5F       		.byte	0x5f
 2249 0c43 15020000 		.4byte	0x215
 2250 0c47 A005     		.2byte	0x5a0
 2251 0c49 0F       		.uleb128 0xf
 2252 0c4a AB160000 		.4byte	.LASF173
 2253 0c4e 07       		.byte	0x7
 2254 0c4f 60       		.byte	0x60
 2255 0c50 E80D0000 		.4byte	0xde8
 2256 0c54 A405     		.2byte	0x5a4
 2257 0c56 0F       		.uleb128 0xf
 2258 0c57 52030000 		.4byte	.LASF174
 2259 0c5b 07       		.byte	0x7
 2260 0c5c 61       		.byte	0x61
 2261 0c5d F0000000 		.4byte	0xf0
 2262 0c61 00F0     		.2byte	0xf000
 2263 0c63 0F       		.uleb128 0xf
 2264 0c64 040F0000 		.4byte	.LASF175
 2265 0c68 07       		.byte	0x7
 2266 0c69 62       		.byte	0x62
 2267 0c6a F0000000 		.4byte	0xf0
 2268 0c6e 04F0     		.2byte	0xf004
 2269 0c70 00       		.byte	0
 2270 0c71 05       		.uleb128 0x5
 2271 0c72 15020000 		.4byte	0x215
 2272 0c76 810C0000 		.4byte	0xc81
 2273 0c7a 06       		.uleb128 0x6
 2274 0c7b E9000000 		.4byte	0xe9
 2275 0c7f 02       		.byte	0x2
 2276 0c80 00       		.byte	0
 2277 0c81 07       		.uleb128 0x7
 2278 0c82 710C0000 		.4byte	0xc71
 2279 0c86 0B       		.uleb128 0xb
 2280 0c87 810C0000 		.4byte	0xc81
 2281 0c8b 05       		.uleb128 0x5
 2282 0c8c 15020000 		.4byte	0x215
 2283 0c90 9B0C0000 		.4byte	0xc9b
 2284 0c94 06       		.uleb128 0x6
 2285 0c95 E9000000 		.4byte	0xe9
 2286 0c99 0F       		.byte	0xf
 2287 0c9a 00       		.byte	0
 2288 0c9b 07       		.uleb128 0x7
 2289 0c9c 8B0C0000 		.4byte	0xc8b
 2290 0ca0 0B       		.uleb128 0xb
 2291 0ca1 9B0C0000 		.4byte	0xc9b
 2292 0ca5 07       		.uleb128 0x7
 2293 0ca6 710C0000 		.4byte	0xc71
 2294 0caa 0B       		.uleb128 0xb
 2295 0cab A50C0000 		.4byte	0xca5
 2296 0caf 05       		.uleb128 0x5
 2297 0cb0 15020000 		.4byte	0x215
ARM GAS  C:\Users\kiwamu\AppData\Local\Temp\ccE2Z6Jb.s 			page 67


 2298 0cb4 BF0C0000 		.4byte	0xcbf
 2299 0cb8 06       		.uleb128 0x6
 2300 0cb9 E9000000 		.4byte	0xe9
 2301 0cbd 16       		.byte	0x16
 2302 0cbe 00       		.byte	0
 2303 0cbf 07       		.uleb128 0x7
 2304 0cc0 AF0C0000 		.4byte	0xcaf
 2305 0cc4 0B       		.uleb128 0xb
 2306 0cc5 BF0C0000 		.4byte	0xcbf
 2307 0cc9 05       		.uleb128 0x5
 2308 0cca 15020000 		.4byte	0x215
 2309 0cce D90C0000 		.4byte	0xcd9
 2310 0cd2 06       		.uleb128 0x6
 2311 0cd3 E9000000 		.4byte	0xe9
 2312 0cd7 0E       		.byte	0xe
 2313 0cd8 00       		.byte	0
 2314 0cd9 07       		.uleb128 0x7
 2315 0cda C90C0000 		.4byte	0xcc9
 2316 0cde 0B       		.uleb128 0xb
 2317 0cdf D90C0000 		.4byte	0xcd9
 2318 0ce3 07       		.uleb128 0x7
 2319 0ce4 E4070000 		.4byte	0x7e4
 2320 0ce8 07       		.uleb128 0x7
 2321 0ce9 710C0000 		.4byte	0xc71
 2322 0ced 0B       		.uleb128 0xb
 2323 0cee E80C0000 		.4byte	0xce8
 2324 0cf2 07       		.uleb128 0x7
 2325 0cf3 710C0000 		.4byte	0xc71
 2326 0cf7 0B       		.uleb128 0xb
 2327 0cf8 F20C0000 		.4byte	0xcf2
 2328 0cfc 07       		.uleb128 0x7
 2329 0cfd 710C0000 		.4byte	0xc71
 2330 0d01 0B       		.uleb128 0xb
 2331 0d02 FC0C0000 		.4byte	0xcfc
 2332 0d06 07       		.uleb128 0x7
 2333 0d07 710C0000 		.4byte	0xc71
 2334 0d0b 0B       		.uleb128 0xb
 2335 0d0c 060D0000 		.4byte	0xd06
 2336 0d10 07       		.uleb128 0x7
 2337 0d11 710C0000 		.4byte	0xc71
 2338 0d15 0B       		.uleb128 0xb
 2339 0d16 100D0000 		.4byte	0xd10
 2340 0d1a 07       		.uleb128 0x7
 2341 0d1b 11090000 		.4byte	0x911
 2342 0d1f 0B       		.uleb128 0xb
 2343 0d20 1A0D0000 		.4byte	0xd1a
 2344 0d24 07       		.uleb128 0x7
 2345 0d25 49020000 		.4byte	0x249
 2346 0d29 0B       		.uleb128 0xb
 2347 0d2a 240D0000 		.4byte	0xd24
 2348 0d2e 07       		.uleb128 0x7
 2349 0d2f 63020000 		.4byte	0x263
 2350 0d33 0B       		.uleb128 0xb
 2351 0d34 2E0D0000 		.4byte	0xd2e
 2352 0d38 07       		.uleb128 0x7
 2353 0d39 710C0000 		.4byte	0xc71
 2354 0d3d 0B       		.uleb128 0xb
ARM GAS  C:\Users\kiwamu\AppData\Local\Temp\ccE2Z6Jb.s 			page 68


 2355 0d3e 380D0000 		.4byte	0xd38
 2356 0d42 07       		.uleb128 0x7
 2357 0d43 710C0000 		.4byte	0xc71
 2358 0d47 0B       		.uleb128 0xb
 2359 0d48 420D0000 		.4byte	0xd42
 2360 0d4c 05       		.uleb128 0x5
 2361 0d4d 15020000 		.4byte	0x215
 2362 0d51 5C0D0000 		.4byte	0xd5c
 2363 0d55 06       		.uleb128 0x6
 2364 0d56 E9000000 		.4byte	0xe9
 2365 0d5a 1A       		.byte	0x1a
 2366 0d5b 00       		.byte	0
 2367 0d5c 07       		.uleb128 0x7
 2368 0d5d 4C0D0000 		.4byte	0xd4c
 2369 0d61 0B       		.uleb128 0xb
 2370 0d62 5C0D0000 		.4byte	0xd5c
 2371 0d66 07       		.uleb128 0x7
 2372 0d67 710C0000 		.4byte	0xc71
 2373 0d6b 0B       		.uleb128 0xb
 2374 0d6c 660D0000 		.4byte	0xd66
 2375 0d70 07       		.uleb128 0x7
 2376 0d71 AF0C0000 		.4byte	0xcaf
 2377 0d75 0B       		.uleb128 0xb
 2378 0d76 700D0000 		.4byte	0xd70
 2379 0d7a 05       		.uleb128 0x5
 2380 0d7b 15020000 		.4byte	0x215
 2381 0d7f 8A0D0000 		.4byte	0xd8a
 2382 0d83 06       		.uleb128 0x6
 2383 0d84 E9000000 		.4byte	0xe9
 2384 0d88 36       		.byte	0x36
 2385 0d89 00       		.byte	0
 2386 0d8a 07       		.uleb128 0x7
 2387 0d8b 7A0D0000 		.4byte	0xd7a
 2388 0d8f 0B       		.uleb128 0xb
 2389 0d90 8A0D0000 		.4byte	0xd8a
 2390 0d94 05       		.uleb128 0x5
 2391 0d95 15020000 		.4byte	0x215
 2392 0d99 A40D0000 		.4byte	0xda4
 2393 0d9d 06       		.uleb128 0x6
 2394 0d9e E9000000 		.4byte	0xe9
 2395 0da2 3E       		.byte	0x3e
 2396 0da3 00       		.byte	0
 2397 0da4 07       		.uleb128 0x7
 2398 0da5 940D0000 		.4byte	0xd94
 2399 0da9 0B       		.uleb128 0xb
 2400 0daa A40D0000 		.4byte	0xda4
 2401 0dae 07       		.uleb128 0x7
 2402 0daf 11090000 		.4byte	0x911
 2403 0db3 0B       		.uleb128 0xb
 2404 0db4 AE0D0000 		.4byte	0xdae
 2405 0db8 05       		.uleb128 0x5
 2406 0db9 15020000 		.4byte	0x215
 2407 0dbd C80D0000 		.4byte	0xdc8
 2408 0dc1 06       		.uleb128 0x6
 2409 0dc2 E9000000 		.4byte	0xe9
 2410 0dc6 1E       		.byte	0x1e
 2411 0dc7 00       		.byte	0
ARM GAS  C:\Users\kiwamu\AppData\Local\Temp\ccE2Z6Jb.s 			page 69


 2412 0dc8 07       		.uleb128 0x7
 2413 0dc9 B80D0000 		.4byte	0xdb8
 2414 0dcd 0B       		.uleb128 0xb
 2415 0dce C80D0000 		.4byte	0xdc8
 2416 0dd2 05       		.uleb128 0x5
 2417 0dd3 15020000 		.4byte	0x215
 2418 0dd7 E30D0000 		.4byte	0xde3
 2419 0ddb 10       		.uleb128 0x10
 2420 0ddc E9000000 		.4byte	0xe9
 2421 0de0 963A     		.2byte	0x3a96
 2422 0de2 00       		.byte	0
 2423 0de3 07       		.uleb128 0x7
 2424 0de4 D20D0000 		.4byte	0xdd2
 2425 0de8 0B       		.uleb128 0xb
 2426 0de9 E30D0000 		.4byte	0xde3
 2427 0ded 03       		.uleb128 0x3
 2428 0dee 95080000 		.4byte	.LASF176
 2429 0df2 07       		.byte	0x7
 2430 0df3 63       		.byte	0x63
 2431 0df4 31090000 		.4byte	0x931
 2432 0df8 05       		.uleb128 0x5
 2433 0df9 15020000 		.4byte	0x215
 2434 0dfd 080E0000 		.4byte	0xe08
 2435 0e01 06       		.uleb128 0x6
 2436 0e02 E9000000 		.4byte	0xe9
 2437 0e06 07       		.byte	0x7
 2438 0e07 00       		.byte	0
 2439 0e08 05       		.uleb128 0x5
 2440 0e09 15020000 		.4byte	0x215
 2441 0e0d 180E0000 		.4byte	0xe18
 2442 0e11 06       		.uleb128 0x6
 2443 0e12 E9000000 		.4byte	0xe9
 2444 0e16 0B       		.byte	0xb
 2445 0e17 00       		.byte	0
 2446 0e18 0D       		.uleb128 0xd
 2447 0e19 0010     		.2byte	0x1000
 2448 0e1b 08       		.byte	0x8
 2449 0e1c 22       		.byte	0x22
 2450 0e1d D60F0000 		.4byte	0xfd6
 2451 0e21 0E       		.uleb128 0xe
 2452 0e22 D7150000 		.4byte	.LASF177
 2453 0e26 08       		.byte	0x8
 2454 0e27 23       		.byte	0x23
 2455 0e28 F0000000 		.4byte	0xf0
 2456 0e2c 00       		.byte	0
 2457 0e2d 0E       		.uleb128 0xe
 2458 0e2e 3A170000 		.4byte	.LASF178
 2459 0e32 08       		.byte	0x8
 2460 0e33 24       		.byte	0x24
 2461 0e34 15020000 		.4byte	0x215
 2462 0e38 04       		.byte	0x4
 2463 0e39 0E       		.uleb128 0xe
 2464 0e3a 00020000 		.4byte	.LASF179
 2465 0e3e 08       		.byte	0x8
 2466 0e3f 25       		.byte	0x25
 2467 0e40 F0000000 		.4byte	0xf0
 2468 0e44 08       		.byte	0x8
ARM GAS  C:\Users\kiwamu\AppData\Local\Temp\ccE2Z6Jb.s 			page 70


 2469 0e45 0E       		.uleb128 0xe
 2470 0e46 B40A0000 		.4byte	.LASF180
 2471 0e4a 08       		.byte	0x8
 2472 0e4b 26       		.byte	0x26
 2473 0e4c 15020000 		.4byte	0x215
 2474 0e50 0C       		.byte	0xc
 2475 0e51 0E       		.uleb128 0xe
 2476 0e52 A5030000 		.4byte	.LASF181
 2477 0e56 08       		.byte	0x8
 2478 0e57 27       		.byte	0x27
 2479 0e58 15020000 		.4byte	0x215
 2480 0e5c 10       		.byte	0x10
 2481 0e5d 0E       		.uleb128 0xe
 2482 0e5e 99110000 		.4byte	.LASF182
 2483 0e62 08       		.byte	0x8
 2484 0e63 28       		.byte	0x28
 2485 0e64 F0000000 		.4byte	0xf0
 2486 0e68 14       		.byte	0x14
 2487 0e69 0E       		.uleb128 0xe
 2488 0e6a 7F150000 		.4byte	.LASF183
 2489 0e6e 08       		.byte	0x8
 2490 0e6f 29       		.byte	0x29
 2491 0e70 F0000000 		.4byte	0xf0
 2492 0e74 18       		.byte	0x18
 2493 0e75 0E       		.uleb128 0xe
 2494 0e76 88150000 		.4byte	.LASF184
 2495 0e7a 08       		.byte	0x8
 2496 0e7b 2A       		.byte	0x2a
 2497 0e7c F0000000 		.4byte	0xf0
 2498 0e80 1C       		.byte	0x1c
 2499 0e81 0E       		.uleb128 0xe
 2500 0e82 150E0000 		.4byte	.LASF185
 2501 0e86 08       		.byte	0x8
 2502 0e87 2B       		.byte	0x2b
 2503 0e88 15020000 		.4byte	0x215
 2504 0e8c 20       		.byte	0x20
 2505 0e8d 0E       		.uleb128 0xe
 2506 0e8e 5C0A0000 		.4byte	.LASF186
 2507 0e92 08       		.byte	0x8
 2508 0e93 2C       		.byte	0x2c
 2509 0e94 F0000000 		.4byte	0xf0
 2510 0e98 24       		.byte	0x24
 2511 0e99 0E       		.uleb128 0xe
 2512 0e9a 22050000 		.4byte	.LASF187
 2513 0e9e 08       		.byte	0x8
 2514 0e9f 2D       		.byte	0x2d
 2515 0ea0 F0000000 		.4byte	0xf0
 2516 0ea4 28       		.byte	0x28
 2517 0ea5 0E       		.uleb128 0xe
 2518 0ea6 A00D0000 		.4byte	.LASF188
 2519 0eaa 08       		.byte	0x8
 2520 0eab 2E       		.byte	0x2e
 2521 0eac 15020000 		.4byte	0x215
 2522 0eb0 2C       		.byte	0x2c
 2523 0eb1 0E       		.uleb128 0xe
 2524 0eb2 1A140000 		.4byte	.LASF189
 2525 0eb6 08       		.byte	0x8
ARM GAS  C:\Users\kiwamu\AppData\Local\Temp\ccE2Z6Jb.s 			page 71


 2526 0eb7 2F       		.byte	0x2f
 2527 0eb8 F0000000 		.4byte	0xf0
 2528 0ebc 30       		.byte	0x30
 2529 0ebd 0E       		.uleb128 0xe
 2530 0ebe 9E030000 		.4byte	.LASF190
 2531 0ec2 08       		.byte	0x8
 2532 0ec3 30       		.byte	0x30
 2533 0ec4 F0000000 		.4byte	0xf0
 2534 0ec8 34       		.byte	0x34
 2535 0ec9 0E       		.uleb128 0xe
 2536 0eca DA080000 		.4byte	.LASF191
 2537 0ece 08       		.byte	0x8
 2538 0ecf 31       		.byte	0x31
 2539 0ed0 F0000000 		.4byte	0xf0
 2540 0ed4 38       		.byte	0x38
 2541 0ed5 0E       		.uleb128 0xe
 2542 0ed6 23060000 		.4byte	.LASF192
 2543 0eda 08       		.byte	0x8
 2544 0edb 32       		.byte	0x32
 2545 0edc F0000000 		.4byte	0xf0
 2546 0ee0 3C       		.byte	0x3c
 2547 0ee1 0E       		.uleb128 0xe
 2548 0ee2 72030000 		.4byte	.LASF193
 2549 0ee6 08       		.byte	0x8
 2550 0ee7 33       		.byte	0x33
 2551 0ee8 F0000000 		.4byte	0xf0
 2552 0eec 40       		.byte	0x40
 2553 0eed 0E       		.uleb128 0xe
 2554 0eee F60D0000 		.4byte	.LASF194
 2555 0ef2 08       		.byte	0x8
 2556 0ef3 34       		.byte	0x34
 2557 0ef4 F0000000 		.4byte	0xf0
 2558 0ef8 44       		.byte	0x44
 2559 0ef9 0E       		.uleb128 0xe
 2560 0efa 86120000 		.4byte	.LASF195
 2561 0efe 08       		.byte	0x8
 2562 0eff 35       		.byte	0x35
 2563 0f00 15020000 		.4byte	0x215
 2564 0f04 48       		.byte	0x48
 2565 0f05 0E       		.uleb128 0xe
 2566 0f06 610D0000 		.4byte	.LASF196
 2567 0f0a 08       		.byte	0x8
 2568 0f0b 36       		.byte	0x36
 2569 0f0c F0000000 		.4byte	0xf0
 2570 0f10 4C       		.byte	0x4c
 2571 0f11 0E       		.uleb128 0xe
 2572 0f12 AD0E0000 		.4byte	.LASF197
 2573 0f16 08       		.byte	0x8
 2574 0f17 38       		.byte	0x38
 2575 0f18 F0000000 		.4byte	0xf0
 2576 0f1c 50       		.byte	0x50
 2577 0f1d 0E       		.uleb128 0xe
 2578 0f1e DF0F0000 		.4byte	.LASF198
 2579 0f22 08       		.byte	0x8
 2580 0f23 39       		.byte	0x39
 2581 0f24 F0000000 		.4byte	0xf0
 2582 0f28 54       		.byte	0x54
ARM GAS  C:\Users\kiwamu\AppData\Local\Temp\ccE2Z6Jb.s 			page 72


 2583 0f29 0E       		.uleb128 0xe
 2584 0f2a AF080000 		.4byte	.LASF199
 2585 0f2e 08       		.byte	0x8
 2586 0f2f 3A       		.byte	0x3a
 2587 0f30 F0000000 		.4byte	0xf0
 2588 0f34 58       		.byte	0x58
 2589 0f35 0E       		.uleb128 0xe
 2590 0f36 EE0F0000 		.4byte	.LASF200
 2591 0f3a 08       		.byte	0x8
 2592 0f3b 3B       		.byte	0x3b
 2593 0f3c F0000000 		.4byte	0xf0
 2594 0f40 5C       		.byte	0x5c
 2595 0f41 0E       		.uleb128 0xe
 2596 0f42 10130000 		.4byte	.LASF201
 2597 0f46 08       		.byte	0x8
 2598 0f47 3C       		.byte	0x3c
 2599 0f48 F0000000 		.4byte	0xf0
 2600 0f4c 60       		.byte	0x60
 2601 0f4d 0E       		.uleb128 0xe
 2602 0f4e E3040000 		.4byte	.LASF36
 2603 0f52 08       		.byte	0x8
 2604 0f53 3D       		.byte	0x3d
 2605 0f54 DB0F0000 		.4byte	0xfdb
 2606 0f58 64       		.byte	0x64
 2607 0f59 0E       		.uleb128 0xe
 2608 0f5a E70C0000 		.4byte	.LASF202
 2609 0f5e 08       		.byte	0x8
 2610 0f5f 3E       		.byte	0x3e
 2611 0f60 F0000000 		.4byte	0xf0
 2612 0f64 80       		.byte	0x80
 2613 0f65 0E       		.uleb128 0xe
 2614 0f66 7F0F0000 		.4byte	.LASF203
 2615 0f6a 08       		.byte	0x8
 2616 0f6b 3F       		.byte	0x3f
 2617 0f6c F0000000 		.4byte	0xf0
 2618 0f70 84       		.byte	0x84
 2619 0f71 0E       		.uleb128 0xe
 2620 0f72 B0150000 		.4byte	.LASF204
 2621 0f76 08       		.byte	0x8
 2622 0f77 40       		.byte	0x40
 2623 0f78 F0000000 		.4byte	0xf0
 2624 0f7c 88       		.byte	0x88
 2625 0f7d 0E       		.uleb128 0xe
 2626 0f7e DE150000 		.4byte	.LASF205
 2627 0f82 08       		.byte	0x8
 2628 0f83 41       		.byte	0x41
 2629 0f84 F0000000 		.4byte	0xf0
 2630 0f88 8C       		.byte	0x8c
 2631 0f89 0E       		.uleb128 0xe
 2632 0f8a 11160000 		.4byte	.LASF206
 2633 0f8e 08       		.byte	0x8
 2634 0f8f 42       		.byte	0x42
 2635 0f90 F0000000 		.4byte	0xf0
 2636 0f94 90       		.byte	0x90
 2637 0f95 0E       		.uleb128 0xe
 2638 0f96 24100000 		.4byte	.LASF38
 2639 0f9a 08       		.byte	0x8
ARM GAS  C:\Users\kiwamu\AppData\Local\Temp\ccE2Z6Jb.s 			page 73


 2640 0f9b 43       		.byte	0x43
 2641 0f9c E50F0000 		.4byte	0xfe5
 2642 0fa0 94       		.byte	0x94
 2643 0fa1 0F       		.uleb128 0xf
 2644 0fa2 2F0B0000 		.4byte	.LASF207
 2645 0fa6 08       		.byte	0x8
 2646 0fa7 44       		.byte	0x44
 2647 0fa8 FF0F0000 		.4byte	0xfff
 2648 0fac 0001     		.2byte	0x100
 2649 0fae 0F       		.uleb128 0xf
 2650 0faf 2E100000 		.4byte	.LASF48
 2651 0fb3 08       		.byte	0x8
 2652 0fb4 45       		.byte	0x45
 2653 0fb5 1A100000 		.4byte	0x101a
 2654 0fb9 8001     		.2byte	0x180
 2655 0fbb 0F       		.uleb128 0xf
 2656 0fbc CD040000 		.4byte	.LASF208
 2657 0fc0 08       		.byte	0x8
 2658 0fc1 46       		.byte	0x46
 2659 0fc2 2F100000 		.4byte	0x102f
 2660 0fc6 0008     		.2byte	0x800
 2661 0fc8 0F       		.uleb128 0xf
 2662 0fc9 19130000 		.4byte	.LASF209
 2663 0fcd 08       		.byte	0x8
 2664 0fce 47       		.byte	0x47
 2665 0fcf 49100000 		.4byte	0x1049
 2666 0fd3 000C     		.2byte	0xc00
 2667 0fd5 00       		.byte	0
 2668 0fd6 07       		.uleb128 0x7
 2669 0fd7 11090000 		.4byte	0x911
 2670 0fdb 0B       		.uleb128 0xb
 2671 0fdc D60F0000 		.4byte	0xfd6
 2672 0fe0 07       		.uleb128 0x7
 2673 0fe1 4C0D0000 		.4byte	0xd4c
 2674 0fe5 0B       		.uleb128 0xb
 2675 0fe6 E00F0000 		.4byte	0xfe0
 2676 0fea 05       		.uleb128 0x5
 2677 0feb 15020000 		.4byte	0x215
 2678 0fef FA0F0000 		.4byte	0xffa
 2679 0ff3 06       		.uleb128 0x6
 2680 0ff4 E9000000 		.4byte	0xe9
 2681 0ff8 1F       		.byte	0x1f
 2682 0ff9 00       		.byte	0
 2683 0ffa 07       		.uleb128 0x7
 2684 0ffb EA0F0000 		.4byte	0xfea
 2685 0fff 0B       		.uleb128 0xb
 2686 1000 FA0F0000 		.4byte	0xffa
 2687 1004 05       		.uleb128 0x5
 2688 1005 15020000 		.4byte	0x215
 2689 1009 15100000 		.4byte	0x1015
 2690 100d 10       		.uleb128 0x10
 2691 100e E9000000 		.4byte	0xe9
 2692 1012 9F01     		.2byte	0x19f
 2693 1014 00       		.byte	0
 2694 1015 07       		.uleb128 0x7
 2695 1016 04100000 		.4byte	0x1004
 2696 101a 0B       		.uleb128 0xb
ARM GAS  C:\Users\kiwamu\AppData\Local\Temp\ccE2Z6Jb.s 			page 74


 2697 101b 15100000 		.4byte	0x1015
 2698 101f 05       		.uleb128 0x5
 2699 1020 F0000000 		.4byte	0xf0
 2700 1024 2F100000 		.4byte	0x102f
 2701 1028 06       		.uleb128 0x6
 2702 1029 E9000000 		.4byte	0xe9
 2703 102d FF       		.byte	0xff
 2704 102e 00       		.byte	0
 2705 102f 07       		.uleb128 0x7
 2706 1030 1F100000 		.4byte	0x101f
 2707 1034 05       		.uleb128 0x5
 2708 1035 15020000 		.4byte	0x215
 2709 1039 44100000 		.4byte	0x1044
 2710 103d 06       		.uleb128 0x6
 2711 103e E9000000 		.4byte	0xe9
 2712 1042 FF       		.byte	0xff
 2713 1043 00       		.byte	0
 2714 1044 07       		.uleb128 0x7
 2715 1045 34100000 		.4byte	0x1034
 2716 1049 0B       		.uleb128 0xb
 2717 104a 44100000 		.4byte	0x1044
 2718 104e 03       		.uleb128 0x3
 2719 104f 64050000 		.4byte	.LASF210
 2720 1053 08       		.byte	0x8
 2721 1054 48       		.byte	0x48
 2722 1055 180E0000 		.4byte	0xe18
 2723 1059 11       		.uleb128 0x11
 2724 105a 00000100 		.4byte	0x10000
 2725 105e 08       		.byte	0x8
 2726 105f 4D       		.byte	0x4d
 2727 1060 39130000 		.4byte	0x1339
 2728 1064 0E       		.uleb128 0xe
 2729 1065 7F060000 		.4byte	.LASF211
 2730 1069 08       		.byte	0x8
 2731 106a 4E       		.byte	0x4e
 2732 106b F0000000 		.4byte	0xf0
 2733 106f 00       		.byte	0
 2734 1070 0E       		.uleb128 0xe
 2735 1071 95170000 		.4byte	.LASF212
 2736 1075 08       		.byte	0x8
 2737 1076 4F       		.byte	0x4f
 2738 1077 F0000000 		.4byte	0xf0
 2739 107b 04       		.byte	0x4
 2740 107c 0E       		.uleb128 0xe
 2741 107d DA0E0000 		.4byte	.LASF213
 2742 1081 08       		.byte	0x8
 2743 1082 50       		.byte	0x50
 2744 1083 F0000000 		.4byte	0xf0
 2745 1087 08       		.byte	0x8
 2746 1088 0E       		.uleb128 0xe
 2747 1089 E3040000 		.4byte	.LASF36
 2748 108d 08       		.byte	0x8
 2749 108e 51       		.byte	0x51
 2750 108f 4E130000 		.4byte	0x134e
 2751 1093 0C       		.byte	0xc
 2752 1094 0F       		.uleb128 0xf
 2753 1095 B70B0000 		.4byte	.LASF214
ARM GAS  C:\Users\kiwamu\AppData\Local\Temp\ccE2Z6Jb.s 			page 75


 2754 1099 08       		.byte	0x8
 2755 109a 52       		.byte	0x52
 2756 109b F0000000 		.4byte	0xf0
 2757 109f 0001     		.2byte	0x100
 2758 10a1 0F       		.uleb128 0xf
 2759 10a2 320F0000 		.4byte	.LASF215
 2760 10a6 08       		.byte	0x8
 2761 10a7 53       		.byte	0x53
 2762 10a8 F0000000 		.4byte	0xf0
 2763 10ac 0401     		.2byte	0x104
 2764 10ae 0F       		.uleb128 0xf
 2765 10af 730B0000 		.4byte	.LASF216
 2766 10b3 08       		.byte	0x8
 2767 10b4 54       		.byte	0x54
 2768 10b5 F0000000 		.4byte	0xf0
 2769 10b9 0801     		.2byte	0x108
 2770 10bb 0F       		.uleb128 0xf
 2771 10bc C60B0000 		.4byte	.LASF217
 2772 10c0 08       		.byte	0x8
 2773 10c1 55       		.byte	0x55
 2774 10c2 53130000 		.4byte	0x1353
 2775 10c6 0C01     		.2byte	0x10c
 2776 10c8 0F       		.uleb128 0xf
 2777 10c9 02130000 		.4byte	.LASF218
 2778 10cd 08       		.byte	0x8
 2779 10ce 56       		.byte	0x56
 2780 10cf 5D130000 		.4byte	0x135d
 2781 10d3 2C01     		.2byte	0x12c
 2782 10d5 0F       		.uleb128 0xf
 2783 10d6 1A120000 		.4byte	.LASF219
 2784 10da 08       		.byte	0x8
 2785 10db 57       		.byte	0x57
 2786 10dc 67130000 		.4byte	0x1367
 2787 10e0 4C01     		.2byte	0x14c
 2788 10e2 0F       		.uleb128 0xf
 2789 10e3 0C0D0000 		.4byte	.LASF220
 2790 10e7 08       		.byte	0x8
 2791 10e8 58       		.byte	0x58
 2792 10e9 15020000 		.4byte	0x215
 2793 10ed 6C01     		.2byte	0x16c
 2794 10ef 0F       		.uleb128 0xf
 2795 10f0 AF0D0000 		.4byte	.LASF221
 2796 10f4 08       		.byte	0x8
 2797 10f5 59       		.byte	0x59
 2798 10f6 F0000000 		.4byte	0xf0
 2799 10fa 7001     		.2byte	0x170
 2800 10fc 0F       		.uleb128 0xf
 2801 10fd 24100000 		.4byte	.LASF38
 2802 1101 08       		.byte	0x8
 2803 1102 5A       		.byte	0x5a
 2804 1103 81130000 		.4byte	0x1381
 2805 1107 7401     		.2byte	0x174
 2806 1109 0F       		.uleb128 0xf
 2807 110a FE0B0000 		.4byte	.LASF222
 2808 110e 08       		.byte	0x8
 2809 110f 5B       		.byte	0x5b
 2810 1110 F0000000 		.4byte	0xf0
ARM GAS  C:\Users\kiwamu\AppData\Local\Temp\ccE2Z6Jb.s 			page 76


 2811 1114 0004     		.2byte	0x400
 2812 1116 0F       		.uleb128 0xf
 2813 1117 0A0C0000 		.4byte	.LASF223
 2814 111b 08       		.byte	0x8
 2815 111c 5C       		.byte	0x5c
 2816 111d F0000000 		.4byte	0xf0
 2817 1121 0404     		.2byte	0x404
 2818 1123 0F       		.uleb128 0xf
 2819 1124 AD110000 		.4byte	.LASF224
 2820 1128 08       		.byte	0x8
 2821 1129 5D       		.byte	0x5d
 2822 112a F0000000 		.4byte	0xf0
 2823 112e 0804     		.2byte	0x408
 2824 1130 0F       		.uleb128 0xf
 2825 1131 1A030000 		.4byte	.LASF225
 2826 1135 08       		.byte	0x8
 2827 1136 5E       		.byte	0x5e
 2828 1137 F0000000 		.4byte	0xf0
 2829 113b 0C04     		.2byte	0x40c
 2830 113d 0F       		.uleb128 0xf
 2831 113e 2E100000 		.4byte	.LASF48
 2832 1142 08       		.byte	0x8
 2833 1143 5F       		.byte	0x5f
 2834 1144 8B130000 		.4byte	0x138b
 2835 1148 1004     		.2byte	0x410
 2836 114a 0F       		.uleb128 0xf
 2837 114b 65090000 		.4byte	.LASF226
 2838 114f 08       		.byte	0x8
 2839 1150 60       		.byte	0x60
 2840 1151 15020000 		.4byte	0x215
 2841 1155 4004     		.2byte	0x440
 2842 1157 0F       		.uleb128 0xf
 2843 1158 1A150000 		.4byte	.LASF227
 2844 115c 08       		.byte	0x8
 2845 115d 61       		.byte	0x61
 2846 115e 15020000 		.4byte	0x215
 2847 1162 4404     		.2byte	0x444
 2848 1164 0F       		.uleb128 0xf
 2849 1165 84090000 		.4byte	.LASF228
 2850 1169 08       		.byte	0x8
 2851 116a 62       		.byte	0x62
 2852 116b 15020000 		.4byte	0x215
 2853 116f 4804     		.2byte	0x448
 2854 1171 0F       		.uleb128 0xf
 2855 1172 38100000 		.4byte	.LASF50
 2856 1176 08       		.byte	0x8
 2857 1177 63       		.byte	0x63
 2858 1178 A5130000 		.4byte	0x13a5
 2859 117c 4C04     		.2byte	0x44c
 2860 117e 0F       		.uleb128 0xf
 2861 117f 5F0E0000 		.4byte	.LASF229
 2862 1183 08       		.byte	0x8
 2863 1184 64       		.byte	0x64
 2864 1185 F0000000 		.4byte	0xf0
 2865 1189 8004     		.2byte	0x480
 2866 118b 0F       		.uleb128 0xf
 2867 118c 700D0000 		.4byte	.LASF230
ARM GAS  C:\Users\kiwamu\AppData\Local\Temp\ccE2Z6Jb.s 			page 77


 2868 1190 08       		.byte	0x8
 2869 1191 65       		.byte	0x65
 2870 1192 F0000000 		.4byte	0xf0
 2871 1196 8404     		.2byte	0x484
 2872 1198 0F       		.uleb128 0xf
 2873 1199 750E0000 		.4byte	.LASF231
 2874 119d 08       		.byte	0x8
 2875 119e 66       		.byte	0x66
 2876 119f F0000000 		.4byte	0xf0
 2877 11a3 8804     		.2byte	0x488
 2878 11a5 0F       		.uleb128 0xf
 2879 11a6 270F0000 		.4byte	.LASF232
 2880 11aa 08       		.byte	0x8
 2881 11ab 67       		.byte	0x67
 2882 11ac F0000000 		.4byte	0xf0
 2883 11b0 8C04     		.2byte	0x48c
 2884 11b2 0F       		.uleb128 0xf
 2885 11b3 42100000 		.4byte	.LASF55
 2886 11b7 08       		.byte	0x8
 2887 11b8 68       		.byte	0x68
 2888 11b9 AF130000 		.4byte	0x13af
 2889 11bd 9004     		.2byte	0x490
 2890 11bf 0F       		.uleb128 0xf
 2891 11c0 3E050000 		.4byte	.LASF233
 2892 11c4 08       		.byte	0x8
 2893 11c5 69       		.byte	0x69
 2894 11c6 15020000 		.4byte	0x215
 2895 11ca C004     		.2byte	0x4c0
 2896 11cc 0F       		.uleb128 0xf
 2897 11cd 4D050000 		.4byte	.LASF234
 2898 11d1 08       		.byte	0x8
 2899 11d2 6A       		.byte	0x6a
 2900 11d3 15020000 		.4byte	0x215
 2901 11d7 C404     		.2byte	0x4c4
 2902 11d9 0F       		.uleb128 0xf
 2903 11da DE050000 		.4byte	.LASF235
 2904 11de 08       		.byte	0x8
 2905 11df 6B       		.byte	0x6b
 2906 11e0 15020000 		.4byte	0x215
 2907 11e4 C804     		.2byte	0x4c8
 2908 11e6 0F       		.uleb128 0xf
 2909 11e7 4C100000 		.4byte	.LASF63
 2910 11eb 08       		.byte	0x8
 2911 11ec 6C       		.byte	0x6c
 2912 11ed B9130000 		.4byte	0x13b9
 2913 11f1 CC04     		.2byte	0x4cc
 2914 11f3 0F       		.uleb128 0xf
 2915 11f4 74090000 		.4byte	.LASF236
 2916 11f8 08       		.byte	0x8
 2917 11f9 6D       		.byte	0x6d
 2918 11fa F0000000 		.4byte	0xf0
 2919 11fe 0005     		.2byte	0x500
 2920 1200 0F       		.uleb128 0xf
 2921 1201 56100000 		.4byte	.LASF65
 2922 1205 08       		.byte	0x8
 2923 1206 6E       		.byte	0x6e
 2924 1207 15020000 		.4byte	0x215
ARM GAS  C:\Users\kiwamu\AppData\Local\Temp\ccE2Z6Jb.s 			page 78


 2925 120b 0405     		.2byte	0x504
 2926 120d 0F       		.uleb128 0xf
 2927 120e 65150000 		.4byte	.LASF237
 2928 1212 08       		.byte	0x8
 2929 1213 6F       		.byte	0x6f
 2930 1214 F0000000 		.4byte	0xf0
 2931 1218 0805     		.2byte	0x508
 2932 121a 0F       		.uleb128 0xf
 2933 121b 60100000 		.4byte	.LASF69
 2934 121f 08       		.byte	0x8
 2935 1220 70       		.byte	0x70
 2936 1221 D3130000 		.4byte	0x13d3
 2937 1225 0C05     		.2byte	0x50c
 2938 1227 0F       		.uleb128 0xf
 2939 1228 37010000 		.4byte	.LASF238
 2940 122c 08       		.byte	0x8
 2941 122d 71       		.byte	0x71
 2942 122e F0000000 		.4byte	0xf0
 2943 1232 8005     		.2byte	0x580
 2944 1234 0F       		.uleb128 0xf
 2945 1235 6A100000 		.4byte	.LASF79
 2946 1239 08       		.byte	0x8
 2947 123a 72       		.byte	0x72
 2948 123b 15020000 		.4byte	0x215
 2949 123f 8405     		.2byte	0x584
 2950 1241 0F       		.uleb128 0xf
 2951 1242 810E0000 		.4byte	.LASF239
 2952 1246 08       		.byte	0x8
 2953 1247 73       		.byte	0x73
 2954 1248 F0000000 		.4byte	0xf0
 2955 124c 8805     		.2byte	0x588
 2956 124e 0F       		.uleb128 0xf
 2957 124f 74100000 		.4byte	.LASF81
 2958 1253 08       		.byte	0x8
 2959 1254 74       		.byte	0x74
 2960 1255 DD130000 		.4byte	0x13dd
 2961 1259 8C05     		.2byte	0x58c
 2962 125b 0F       		.uleb128 0xf
 2963 125c 37080000 		.4byte	.LASF240
 2964 1260 08       		.byte	0x8
 2965 1261 75       		.byte	0x75
 2966 1262 F0000000 		.4byte	0xf0
 2967 1266 0006     		.2byte	0x600
 2968 1268 0F       		.uleb128 0xf
 2969 1269 AC140000 		.4byte	.LASF89
 2970 126d 08       		.byte	0x8
 2971 126e 76       		.byte	0x76
 2972 126f 15020000 		.4byte	0x215
 2973 1273 0406     		.2byte	0x604
 2974 1275 0F       		.uleb128 0xf
 2975 1276 5C130000 		.4byte	.LASF241
 2976 127a 08       		.byte	0x8
 2977 127b 77       		.byte	0x77
 2978 127c F0000000 		.4byte	0xf0
 2979 1280 0806     		.2byte	0x608
 2980 1282 0F       		.uleb128 0xf
 2981 1283 B7140000 		.4byte	.LASF98
ARM GAS  C:\Users\kiwamu\AppData\Local\Temp\ccE2Z6Jb.s 			page 79


 2982 1287 08       		.byte	0x8
 2983 1288 78       		.byte	0x78
 2984 1289 E7130000 		.4byte	0x13e7
 2985 128d 0C06     		.2byte	0x60c
 2986 128f 0F       		.uleb128 0xf
 2987 1290 C70C0000 		.4byte	.LASF242
 2988 1294 08       		.byte	0x8
 2989 1295 79       		.byte	0x79
 2990 1296 F0000000 		.4byte	0xf0
 2991 129a 8006     		.2byte	0x680
 2992 129c 0F       		.uleb128 0xf
 2993 129d C2140000 		.4byte	.LASF110
 2994 12a1 08       		.byte	0x8
 2995 12a2 7A       		.byte	0x7a
 2996 12a3 15020000 		.4byte	0x215
 2997 12a7 8406     		.2byte	0x684
 2998 12a9 0F       		.uleb128 0xf
 2999 12aa E8150000 		.4byte	.LASF243
 3000 12ae 08       		.byte	0x8
 3001 12af 7B       		.byte	0x7b
 3002 12b0 F0000000 		.4byte	0xf0
 3003 12b4 8806     		.2byte	0x688
 3004 12b6 0F       		.uleb128 0xf
 3005 12b7 CD140000 		.4byte	.LASF122
 3006 12bb 08       		.byte	0x8
 3007 12bc 7C       		.byte	0x7c
 3008 12bd F1130000 		.4byte	0x13f1
 3009 12c1 8C06     		.2byte	0x68c
 3010 12c3 0F       		.uleb128 0xf
 3011 12c4 A5060000 		.4byte	.LASF244
 3012 12c8 08       		.byte	0x8
 3013 12c9 7D       		.byte	0x7d
 3014 12ca F0000000 		.4byte	0xf0
 3015 12ce 0007     		.2byte	0x700
 3016 12d0 0F       		.uleb128 0xf
 3017 12d1 D8140000 		.4byte	.LASF151
 3018 12d5 08       		.byte	0x8
 3019 12d6 7E       		.byte	0x7e
 3020 12d7 15020000 		.4byte	0x215
 3021 12db 0407     		.2byte	0x704
 3022 12dd 0F       		.uleb128 0xf
 3023 12de 51120000 		.4byte	.LASF245
 3024 12e2 08       		.byte	0x8
 3025 12e3 7F       		.byte	0x7f
 3026 12e4 F0000000 		.4byte	0xf0
 3027 12e8 0807     		.2byte	0x708
 3028 12ea 0F       		.uleb128 0xf
 3029 12eb E3140000 		.4byte	.LASF153
 3030 12ef 08       		.byte	0x8
 3031 12f0 80       		.byte	0x80
 3032 12f1 FB130000 		.4byte	0x13fb
 3033 12f5 0C07     		.2byte	0x70c
 3034 12f7 0F       		.uleb128 0xf
 3035 12f8 580C0000 		.4byte	.LASF246
 3036 12fc 08       		.byte	0x8
 3037 12fd 81       		.byte	0x81
 3038 12fe F0000000 		.4byte	0xf0
ARM GAS  C:\Users\kiwamu\AppData\Local\Temp\ccE2Z6Jb.s 			page 80


 3039 1302 8007     		.2byte	0x780
 3040 1304 0F       		.uleb128 0xf
 3041 1305 EE140000 		.4byte	.LASF155
 3042 1309 08       		.byte	0x8
 3043 130a 82       		.byte	0x82
 3044 130b 15020000 		.4byte	0x215
 3045 130f 8407     		.2byte	0x784
 3046 1311 0F       		.uleb128 0xf
 3047 1312 A3170000 		.4byte	.LASF247
 3048 1316 08       		.byte	0x8
 3049 1317 83       		.byte	0x83
 3050 1318 F0000000 		.4byte	0xf0
 3051 131c 8807     		.2byte	0x788
 3052 131e 0F       		.uleb128 0xf
 3053 131f F9140000 		.4byte	.LASF157
 3054 1323 08       		.byte	0x8
 3055 1324 84       		.byte	0x84
 3056 1325 16140000 		.4byte	0x1416
 3057 1329 8C07     		.2byte	0x78c
 3058 132b 0F       		.uleb128 0xf
 3059 132c D7150000 		.4byte	.LASF177
 3060 1330 08       		.byte	0x8
 3061 1331 85       		.byte	0x85
 3062 1332 4E100000 		.4byte	0x104e
 3063 1336 00F0     		.2byte	0xf000
 3064 1338 00       		.byte	0
 3065 1339 05       		.uleb128 0x5
 3066 133a 15020000 		.4byte	0x215
 3067 133e 49130000 		.4byte	0x1349
 3068 1342 06       		.uleb128 0x6
 3069 1343 E9000000 		.4byte	0xe9
 3070 1347 3C       		.byte	0x3c
 3071 1348 00       		.byte	0
 3072 1349 07       		.uleb128 0x7
 3073 134a 39130000 		.4byte	0x1339
 3074 134e 0B       		.uleb128 0xb
 3075 134f 49130000 		.4byte	0x1349
 3076 1353 07       		.uleb128 0x7
 3077 1354 D9000000 		.4byte	0xd9
 3078 1358 07       		.uleb128 0x7
 3079 1359 F80D0000 		.4byte	0xdf8
 3080 135d 0B       		.uleb128 0xb
 3081 135e 58130000 		.4byte	0x1358
 3082 1362 07       		.uleb128 0x7
 3083 1363 F80D0000 		.4byte	0xdf8
 3084 1367 0B       		.uleb128 0xb
 3085 1368 62130000 		.4byte	0x1362
 3086 136c 05       		.uleb128 0x5
 3087 136d 15020000 		.4byte	0x215
 3088 1371 7C130000 		.4byte	0x137c
 3089 1375 06       		.uleb128 0x6
 3090 1376 E9000000 		.4byte	0xe9
 3091 137a A2       		.byte	0xa2
 3092 137b 00       		.byte	0
 3093 137c 07       		.uleb128 0x7
 3094 137d 6C130000 		.4byte	0x136c
 3095 1381 0B       		.uleb128 0xb
ARM GAS  C:\Users\kiwamu\AppData\Local\Temp\ccE2Z6Jb.s 			page 81


 3096 1382 7C130000 		.4byte	0x137c
 3097 1386 07       		.uleb128 0x7
 3098 1387 080E0000 		.4byte	0xe08
 3099 138b 0B       		.uleb128 0xb
 3100 138c 86130000 		.4byte	0x1386
 3101 1390 05       		.uleb128 0x5
 3102 1391 15020000 		.4byte	0x215
 3103 1395 A0130000 		.4byte	0x13a0
 3104 1399 06       		.uleb128 0x6
 3105 139a E9000000 		.4byte	0xe9
 3106 139e 0C       		.byte	0xc
 3107 139f 00       		.byte	0
 3108 13a0 07       		.uleb128 0x7
 3109 13a1 90130000 		.4byte	0x1390
 3110 13a5 0B       		.uleb128 0xb
 3111 13a6 A0130000 		.4byte	0x13a0
 3112 13aa 07       		.uleb128 0x7
 3113 13ab 080E0000 		.4byte	0xe08
 3114 13af 0B       		.uleb128 0xb
 3115 13b0 AA130000 		.4byte	0x13aa
 3116 13b4 07       		.uleb128 0x7
 3117 13b5 90130000 		.4byte	0x1390
 3118 13b9 0B       		.uleb128 0xb
 3119 13ba B4130000 		.4byte	0x13b4
 3120 13be 05       		.uleb128 0x5
 3121 13bf 15020000 		.4byte	0x215
 3122 13c3 CE130000 		.4byte	0x13ce
 3123 13c7 06       		.uleb128 0x6
 3124 13c8 E9000000 		.4byte	0xe9
 3125 13cc 1C       		.byte	0x1c
 3126 13cd 00       		.byte	0
 3127 13ce 07       		.uleb128 0x7
 3128 13cf BE130000 		.4byte	0x13be
 3129 13d3 0B       		.uleb128 0xb
 3130 13d4 CE130000 		.4byte	0x13ce
 3131 13d8 07       		.uleb128 0x7
 3132 13d9 BE130000 		.4byte	0x13be
 3133 13dd 0B       		.uleb128 0xb
 3134 13de D8130000 		.4byte	0x13d8
 3135 13e2 07       		.uleb128 0x7
 3136 13e3 BE130000 		.4byte	0x13be
 3137 13e7 0B       		.uleb128 0xb
 3138 13e8 E2130000 		.4byte	0x13e2
 3139 13ec 07       		.uleb128 0x7
 3140 13ed BE130000 		.4byte	0x13be
 3141 13f1 0B       		.uleb128 0xb
 3142 13f2 EC130000 		.4byte	0x13ec
 3143 13f6 07       		.uleb128 0x7
 3144 13f7 BE130000 		.4byte	0x13be
 3145 13fb 0B       		.uleb128 0xb
 3146 13fc F6130000 		.4byte	0x13f6
 3147 1400 05       		.uleb128 0x5
 3148 1401 15020000 		.4byte	0x215
 3149 1405 11140000 		.4byte	0x1411
 3150 1409 10       		.uleb128 0x10
 3151 140a E9000000 		.4byte	0xe9
 3152 140e 1C3A     		.2byte	0x3a1c
ARM GAS  C:\Users\kiwamu\AppData\Local\Temp\ccE2Z6Jb.s 			page 82


 3153 1410 00       		.byte	0
 3154 1411 07       		.uleb128 0x7
 3155 1412 00140000 		.4byte	0x1400
 3156 1416 0B       		.uleb128 0xb
 3157 1417 11140000 		.4byte	0x1411
 3158 141b 03       		.uleb128 0x3
 3159 141c 2B010000 		.4byte	.LASF248
 3160 1420 08       		.byte	0x8
 3161 1421 86       		.byte	0x86
 3162 1422 59100000 		.4byte	0x1059
 3163 1426 12       		.uleb128 0x12
 3164 1427 40       		.byte	0x40
 3165 1428 09       		.byte	0x9
 3166 1429 22       		.byte	0x22
 3167 142a BF140000 		.4byte	0x14bf
 3168 142e 0E       		.uleb128 0xe
 3169 142f E3040000 		.4byte	.LASF36
 3170 1433 09       		.byte	0x9
 3171 1434 23       		.byte	0x23
 3172 1435 15020000 		.4byte	0x215
 3173 1439 00       		.byte	0
 3174 143a 0E       		.uleb128 0xe
 3175 143b AC0C0000 		.4byte	.LASF249
 3176 143f 09       		.byte	0x9
 3177 1440 24       		.byte	0x24
 3178 1441 F0000000 		.4byte	0xf0
 3179 1445 04       		.byte	0x4
 3180 1446 0E       		.uleb128 0xe
 3181 1447 A8050000 		.4byte	.LASF250
 3182 144b 09       		.byte	0x9
 3183 144c 25       		.byte	0x25
 3184 144d F0000000 		.4byte	0xf0
 3185 1451 08       		.byte	0x8
 3186 1452 0E       		.uleb128 0xe
 3187 1453 29170000 		.4byte	.LASF251
 3188 1457 09       		.byte	0x9
 3189 1458 26       		.byte	0x26
 3190 1459 F0000000 		.4byte	0xf0
 3191 145d 0C       		.byte	0xc
 3192 145e 0E       		.uleb128 0xe
 3193 145f A3150000 		.4byte	.LASF252
 3194 1463 09       		.byte	0x9
 3195 1464 27       		.byte	0x27
 3196 1465 F0000000 		.4byte	0xf0
 3197 1469 10       		.byte	0x10
 3198 146a 0E       		.uleb128 0xe
 3199 146b 75150000 		.4byte	.LASF253
 3200 146f 09       		.byte	0x9
 3201 1470 28       		.byte	0x28
 3202 1471 F0000000 		.4byte	0xf0
 3203 1475 14       		.byte	0x14
 3204 1476 0E       		.uleb128 0xe
 3205 1477 F10C0000 		.4byte	.LASF254
 3206 147b 09       		.byte	0x9
 3207 147c 29       		.byte	0x29
 3208 147d F0000000 		.4byte	0xf0
 3209 1481 18       		.byte	0x18
ARM GAS  C:\Users\kiwamu\AppData\Local\Temp\ccE2Z6Jb.s 			page 83


 3210 1482 0E       		.uleb128 0xe
 3211 1483 A80B0000 		.4byte	.LASF255
 3212 1487 09       		.byte	0x9
 3213 1488 2A       		.byte	0x2a
 3214 1489 F0000000 		.4byte	0xf0
 3215 148d 1C       		.byte	0x1c
 3216 148e 0E       		.uleb128 0xe
 3217 148f C9090000 		.4byte	.LASF256
 3218 1493 09       		.byte	0x9
 3219 1494 2B       		.byte	0x2b
 3220 1495 F0000000 		.4byte	0xf0
 3221 1499 20       		.byte	0x20
 3222 149a 0E       		.uleb128 0xe
 3223 149b 39060000 		.4byte	.LASF257
 3224 149f 09       		.byte	0x9
 3225 14a0 2C       		.byte	0x2c
 3226 14a1 15020000 		.4byte	0x215
 3227 14a5 24       		.byte	0x24
 3228 14a6 0E       		.uleb128 0xe
 3229 14a7 1C0F0000 		.4byte	.LASF258
 3230 14ab 09       		.byte	0x9
 3231 14ac 2D       		.byte	0x2d
 3232 14ad F0000000 		.4byte	0xf0
 3233 14b1 28       		.byte	0x28
 3234 14b2 0E       		.uleb128 0xe
 3235 14b3 24100000 		.4byte	.LASF38
 3236 14b7 09       		.byte	0x9
 3237 14b8 2E       		.byte	0x2e
 3238 14b9 C4140000 		.4byte	0x14c4
 3239 14bd 2C       		.byte	0x2c
 3240 14be 00       		.byte	0
 3241 14bf 07       		.uleb128 0x7
 3242 14c0 63020000 		.4byte	0x263
 3243 14c4 0B       		.uleb128 0xb
 3244 14c5 BF140000 		.4byte	0x14bf
 3245 14c9 03       		.uleb128 0x3
 3246 14ca B6050000 		.4byte	.LASF259
 3247 14ce 09       		.byte	0x9
 3248 14cf 2F       		.byte	0x2f
 3249 14d0 26140000 		.4byte	0x1426
 3250 14d4 0D       		.uleb128 0xd
 3251 14d5 30FF     		.2byte	0xff30
 3252 14d7 09       		.byte	0x9
 3253 14d8 34       		.byte	0x34
 3254 14d9 48180000 		.4byte	0x1848
 3255 14dd 0E       		.uleb128 0xe
 3256 14de 5C050000 		.4byte	.LASF260
 3257 14e2 09       		.byte	0x9
 3258 14e3 35       		.byte	0x35
 3259 14e4 F0000000 		.4byte	0xf0
 3260 14e8 00       		.byte	0
 3261 14e9 0E       		.uleb128 0xe
 3262 14ea 590B0000 		.4byte	.LASF261
 3263 14ee 09       		.byte	0x9
 3264 14ef 36       		.byte	0x36
 3265 14f0 F0000000 		.4byte	0xf0
 3266 14f4 04       		.byte	0x4
ARM GAS  C:\Users\kiwamu\AppData\Local\Temp\ccE2Z6Jb.s 			page 84


 3267 14f5 0E       		.uleb128 0xe
 3268 14f6 160C0000 		.4byte	.LASF262
 3269 14fa 09       		.byte	0x9
 3270 14fb 37       		.byte	0x37
 3271 14fc F0000000 		.4byte	0xf0
 3272 1500 08       		.byte	0x8
 3273 1501 0E       		.uleb128 0xe
 3274 1502 E3040000 		.4byte	.LASF36
 3275 1506 09       		.byte	0x9
 3276 1507 38       		.byte	0x38
 3277 1508 4D180000 		.4byte	0x184d
 3278 150c 0C       		.byte	0xc
 3279 150d 0E       		.uleb128 0xe
 3280 150e 0F110000 		.4byte	.LASF263
 3281 1512 09       		.byte	0x9
 3282 1513 39       		.byte	0x39
 3283 1514 F0000000 		.4byte	0xf0
 3284 1518 14       		.byte	0x14
 3285 1519 0E       		.uleb128 0xe
 3286 151a 12080000 		.4byte	.LASF264
 3287 151e 09       		.byte	0x9
 3288 151f 3A       		.byte	0x3a
 3289 1520 F0000000 		.4byte	0xf0
 3290 1524 18       		.byte	0x18
 3291 1525 0E       		.uleb128 0xe
 3292 1526 97010000 		.4byte	.LASF265
 3293 152a 09       		.byte	0x9
 3294 152b 3B       		.byte	0x3b
 3295 152c 15020000 		.4byte	0x215
 3296 1530 1C       		.byte	0x1c
 3297 1531 0E       		.uleb128 0xe
 3298 1532 24100000 		.4byte	.LASF38
 3299 1536 09       		.byte	0x9
 3300 1537 3C       		.byte	0x3c
 3301 1538 67180000 		.4byte	0x1867
 3302 153c 20       		.byte	0x20
 3303 153d 0E       		.uleb128 0xe
 3304 153e 89050000 		.4byte	.LASF266
 3305 1542 09       		.byte	0x9
 3306 1543 3D       		.byte	0x3d
 3307 1544 6C180000 		.4byte	0x186c
 3308 1548 80       		.byte	0x80
 3309 1549 0E       		.uleb128 0xe
 3310 154a 2E100000 		.4byte	.LASF48
 3311 154e 09       		.byte	0x9
 3312 154f 3E       		.byte	0x3e
 3313 1550 86180000 		.4byte	0x1886
 3314 1554 C0       		.byte	0xc0
 3315 1555 0F       		.uleb128 0xf
 3316 1556 26140000 		.4byte	.LASF267
 3317 155a 09       		.byte	0x9
 3318 155b 3F       		.byte	0x3f
 3319 155c F0000000 		.4byte	0xf0
 3320 1560 8001     		.2byte	0x180
 3321 1562 0F       		.uleb128 0xf
 3322 1563 270C0000 		.4byte	.LASF268
 3323 1567 09       		.byte	0x9
ARM GAS  C:\Users\kiwamu\AppData\Local\Temp\ccE2Z6Jb.s 			page 85


 3324 1568 40       		.byte	0x40
 3325 1569 F0000000 		.4byte	0xf0
 3326 156d 8401     		.2byte	0x184
 3327 156f 0F       		.uleb128 0xf
 3328 1570 950C0000 		.4byte	.LASF269
 3329 1574 09       		.byte	0x9
 3330 1575 41       		.byte	0x41
 3331 1576 F0000000 		.4byte	0xf0
 3332 157a 8801     		.2byte	0x188
 3333 157c 0F       		.uleb128 0xf
 3334 157d 38100000 		.4byte	.LASF50
 3335 1581 09       		.byte	0x9
 3336 1582 42       		.byte	0x42
 3337 1583 90180000 		.4byte	0x1890
 3338 1587 8C01     		.2byte	0x18c
 3339 1589 0F       		.uleb128 0xf
 3340 158a 76110000 		.4byte	.LASF270
 3341 158e 09       		.byte	0x9
 3342 158f 43       		.byte	0x43
 3343 1590 95180000 		.4byte	0x1895
 3344 1594 0002     		.2byte	0x200
 3345 1596 0F       		.uleb128 0xf
 3346 1597 60170000 		.4byte	.LASF271
 3347 159b 09       		.byte	0x9
 3348 159c 44       		.byte	0x44
 3349 159d A5180000 		.4byte	0x18a5
 3350 15a1 0003     		.2byte	0x300
 3351 15a3 0F       		.uleb128 0xf
 3352 15a4 BD100000 		.4byte	.LASF272
 3353 15a8 09       		.byte	0x9
 3354 15a9 45       		.byte	0x45
 3355 15aa AA180000 		.4byte	0x18aa
 3356 15ae 4003     		.2byte	0x340
 3357 15b0 0F       		.uleb128 0xf
 3358 15b1 AE0F0000 		.4byte	.LASF273
 3359 15b5 09       		.byte	0x9
 3360 15b6 46       		.byte	0x46
 3361 15b7 AF180000 		.4byte	0x18af
 3362 15bb 8003     		.2byte	0x380
 3363 15bd 0F       		.uleb128 0xf
 3364 15be 42100000 		.4byte	.LASF55
 3365 15c2 09       		.byte	0x9
 3366 15c3 47       		.byte	0x47
 3367 15c4 C9180000 		.4byte	0x18c9
 3368 15c8 C003     		.2byte	0x3c0
 3369 15ca 0F       		.uleb128 0xf
 3370 15cb 47030000 		.4byte	.LASF274
 3371 15cf 09       		.byte	0x9
 3372 15d0 48       		.byte	0x48
 3373 15d1 F0000000 		.4byte	0xf0
 3374 15d5 0005     		.2byte	0x500
 3375 15d7 0F       		.uleb128 0xf
 3376 15d8 4A0C0000 		.4byte	.LASF275
 3377 15dc 09       		.byte	0x9
 3378 15dd 49       		.byte	0x49
 3379 15de F0000000 		.4byte	0xf0
 3380 15e2 0405     		.2byte	0x504
ARM GAS  C:\Users\kiwamu\AppData\Local\Temp\ccE2Z6Jb.s 			page 86


 3381 15e4 0F       		.uleb128 0xf
 3382 15e5 4C100000 		.4byte	.LASF63
 3383 15e9 09       		.byte	0x9
 3384 15ea 4A       		.byte	0x4a
 3385 15eb 15020000 		.4byte	0x215
 3386 15ef 0805     		.2byte	0x508
 3387 15f1 0F       		.uleb128 0xf
 3388 15f2 81020000 		.4byte	.LASF276
 3389 15f6 09       		.byte	0x9
 3390 15f7 4B       		.byte	0x4b
 3391 15f8 F0000000 		.4byte	0xf0
 3392 15fc 0C05     		.2byte	0x50c
 3393 15fe 0F       		.uleb128 0xf
 3394 15ff D80A0000 		.4byte	.LASF277
 3395 1603 09       		.byte	0x9
 3396 1604 4C       		.byte	0x4c
 3397 1605 F0000000 		.4byte	0xf0
 3398 1609 1005     		.2byte	0x510
 3399 160b 0F       		.uleb128 0xf
 3400 160c BF0E0000 		.4byte	.LASF278
 3401 1610 09       		.byte	0x9
 3402 1611 4D       		.byte	0x4d
 3403 1612 F0000000 		.4byte	0xf0
 3404 1616 1405     		.2byte	0x514
 3405 1618 0F       		.uleb128 0xf
 3406 1619 0A030000 		.4byte	.LASF279
 3407 161d 09       		.byte	0x9
 3408 161e 4E       		.byte	0x4e
 3409 161f F0000000 		.4byte	0xf0
 3410 1623 1805     		.2byte	0x518
 3411 1625 0F       		.uleb128 0xf
 3412 1626 0A090000 		.4byte	.LASF280
 3413 162a 09       		.byte	0x9
 3414 162b 4F       		.byte	0x4f
 3415 162c F0000000 		.4byte	0xf0
 3416 1630 1C05     		.2byte	0x51c
 3417 1632 0F       		.uleb128 0xf
 3418 1633 05040000 		.4byte	.LASF281
 3419 1637 09       		.byte	0x9
 3420 1638 50       		.byte	0x50
 3421 1639 15020000 		.4byte	0x215
 3422 163d 2005     		.2byte	0x520
 3423 163f 0F       		.uleb128 0xf
 3424 1640 56100000 		.4byte	.LASF65
 3425 1644 09       		.byte	0x9
 3426 1645 51       		.byte	0x51
 3427 1646 D3180000 		.4byte	0x18d3
 3428 164a 2405     		.2byte	0x524
 3429 164c 0F       		.uleb128 0xf
 3430 164d DA020000 		.4byte	.LASF282
 3431 1651 09       		.byte	0x9
 3432 1652 52       		.byte	0x52
 3433 1653 F0000000 		.4byte	0xf0
 3434 1657 2C05     		.2byte	0x52c
 3435 1659 0F       		.uleb128 0xf
 3436 165a A0080000 		.4byte	.LASF283
 3437 165e 09       		.byte	0x9
ARM GAS  C:\Users\kiwamu\AppData\Local\Temp\ccE2Z6Jb.s 			page 87


 3438 165f 53       		.byte	0x53
 3439 1660 15020000 		.4byte	0x215
 3440 1664 3005     		.2byte	0x530
 3441 1666 0F       		.uleb128 0xf
 3442 1667 60100000 		.4byte	.LASF69
 3443 166b 09       		.byte	0x9
 3444 166c 54       		.byte	0x54
 3445 166d DD180000 		.4byte	0x18dd
 3446 1671 3405     		.2byte	0x534
 3447 1673 0F       		.uleb128 0xf
 3448 1674 970E0000 		.4byte	.LASF284
 3449 1678 09       		.byte	0x9
 3450 1679 55       		.byte	0x55
 3451 167a F0000000 		.4byte	0xf0
 3452 167e 3C05     		.2byte	0x53c
 3453 1680 0F       		.uleb128 0xf
 3454 1681 6A100000 		.4byte	.LASF79
 3455 1685 09       		.byte	0x9
 3456 1686 56       		.byte	0x56
 3457 1687 E7180000 		.4byte	0x18e7
 3458 168b 4005     		.2byte	0x540
 3459 168d 0F       		.uleb128 0xf
 3460 168e 63080000 		.4byte	.LASF285
 3461 1692 09       		.byte	0x9
 3462 1693 57       		.byte	0x57
 3463 1694 F0000000 		.4byte	0xf0
 3464 1698 8005     		.2byte	0x580
 3465 169a 0F       		.uleb128 0xf
 3466 169b E3080000 		.4byte	.LASF286
 3467 169f 09       		.byte	0x9
 3468 16a0 58       		.byte	0x58
 3469 16a1 F0000000 		.4byte	0xf0
 3470 16a5 8405     		.2byte	0x584
 3471 16a7 0F       		.uleb128 0xf
 3472 16a8 CA020000 		.4byte	.LASF287
 3473 16ac 09       		.byte	0x9
 3474 16ad 59       		.byte	0x59
 3475 16ae F0000000 		.4byte	0xf0
 3476 16b2 8805     		.2byte	0x588
 3477 16b4 0F       		.uleb128 0xf
 3478 16b5 FA080000 		.4byte	.LASF288
 3479 16b9 09       		.byte	0x9
 3480 16ba 5A       		.byte	0x5a
 3481 16bb F0000000 		.4byte	0xf0
 3482 16bf 8C05     		.2byte	0x58c
 3483 16c1 0F       		.uleb128 0xf
 3484 16c2 88010000 		.4byte	.LASF289
 3485 16c6 09       		.byte	0x9
 3486 16c7 5B       		.byte	0x5b
 3487 16c8 F0000000 		.4byte	0xf0
 3488 16cc 9005     		.2byte	0x590
 3489 16ce 0F       		.uleb128 0xf
 3490 16cf 74100000 		.4byte	.LASF81
 3491 16d3 09       		.byte	0x9
 3492 16d4 5C       		.byte	0x5c
 3493 16d5 F1180000 		.4byte	0x18f1
 3494 16d9 9405     		.2byte	0x594
ARM GAS  C:\Users\kiwamu\AppData\Local\Temp\ccE2Z6Jb.s 			page 88


 3495 16db 0F       		.uleb128 0xf
 3496 16dc 300E0000 		.4byte	.LASF290
 3497 16e0 09       		.byte	0x9
 3498 16e1 5D       		.byte	0x5d
 3499 16e2 06190000 		.4byte	0x1906
 3500 16e6 0006     		.2byte	0x600
 3501 16e8 0F       		.uleb128 0xf
 3502 16e9 AC140000 		.4byte	.LASF89
 3503 16ed 09       		.byte	0x9
 3504 16ee 5E       		.byte	0x5e
 3505 16ef 15020000 		.4byte	0x215
 3506 16f3 3C06     		.2byte	0x63c
 3507 16f5 0F       		.uleb128 0xf
 3508 16f6 2B0A0000 		.4byte	.LASF291
 3509 16fa 09       		.byte	0x9
 3510 16fb 5F       		.byte	0x5f
 3511 16fc 0B190000 		.4byte	0x190b
 3512 1700 4006     		.2byte	0x640
 3513 1702 0F       		.uleb128 0xf
 3514 1703 B7140000 		.4byte	.LASF98
 3515 1707 09       		.byte	0x9
 3516 1708 60       		.byte	0x60
 3517 1709 25190000 		.4byte	0x1925
 3518 170d 7C06     		.2byte	0x67c
 3519 170f 0F       		.uleb128 0xf
 3520 1710 2D120000 		.4byte	.LASF292
 3521 1714 09       		.byte	0x9
 3522 1715 61       		.byte	0x61
 3523 1716 F0000000 		.4byte	0xf0
 3524 171a 0007     		.2byte	0x700
 3525 171c 0F       		.uleb128 0xf
 3526 171d 340C0000 		.4byte	.LASF293
 3527 1721 09       		.byte	0x9
 3528 1722 62       		.byte	0x62
 3529 1723 F0000000 		.4byte	0xf0
 3530 1727 0407     		.2byte	0x704
 3531 1729 0F       		.uleb128 0xf
 3532 172a EC010000 		.4byte	.LASF294
 3533 172e 09       		.byte	0x9
 3534 172f 63       		.byte	0x63
 3535 1730 F0000000 		.4byte	0xf0
 3536 1734 0807     		.2byte	0x708
 3537 1736 0F       		.uleb128 0xf
 3538 1737 FE100000 		.4byte	.LASF295
 3539 173b 09       		.byte	0x9
 3540 173c 64       		.byte	0x64
 3541 173d 15020000 		.4byte	0x215
 3542 1741 0C07     		.2byte	0x70c
 3543 1743 0F       		.uleb128 0xf
 3544 1744 480A0000 		.4byte	.LASF296
 3545 1748 09       		.byte	0x9
 3546 1749 65       		.byte	0x65
 3547 174a F0000000 		.4byte	0xf0
 3548 174e 1007     		.2byte	0x710
 3549 1750 0F       		.uleb128 0xf
 3550 1751 C2140000 		.4byte	.LASF110
 3551 1755 09       		.byte	0x9
ARM GAS  C:\Users\kiwamu\AppData\Local\Temp\ccE2Z6Jb.s 			page 89


 3552 1756 66       		.byte	0x66
 3553 1757 3F190000 		.4byte	0x193f
 3554 175b 1407     		.2byte	0x714
 3555 175d 0F       		.uleb128 0xf
 3556 175e D1120000 		.4byte	.LASF297
 3557 1762 09       		.byte	0x9
 3558 1763 67       		.byte	0x67
 3559 1764 F0000000 		.4byte	0xf0
 3560 1768 0008     		.2byte	0x800
 3561 176a 0F       		.uleb128 0xf
 3562 176b A6010000 		.4byte	.LASF298
 3563 176f 09       		.byte	0x9
 3564 1770 68       		.byte	0x68
 3565 1771 F0000000 		.4byte	0xf0
 3566 1775 0408     		.2byte	0x804
 3567 1777 0F       		.uleb128 0xf
 3568 1778 CD140000 		.4byte	.LASF122
 3569 177c 09       		.byte	0x9
 3570 177d 69       		.byte	0x69
 3571 177e 5A190000 		.4byte	0x195a
 3572 1782 0808     		.2byte	0x808
 3573 1784 0F       		.uleb128 0xf
 3574 1785 2A160000 		.4byte	.LASF299
 3575 1789 09       		.byte	0x9
 3576 178a 6A       		.byte	0x6a
 3577 178b F0000000 		.4byte	0xf0
 3578 178f 007F     		.2byte	0x7f00
 3579 1791 0F       		.uleb128 0xf
 3580 1792 BA030000 		.4byte	.LASF300
 3581 1796 09       		.byte	0x9
 3582 1797 6B       		.byte	0x6b
 3583 1798 F0000000 		.4byte	0xf0
 3584 179c 047F     		.2byte	0x7f04
 3585 179e 0F       		.uleb128 0xf
 3586 179f 3C0B0000 		.4byte	.LASF301
 3587 17a3 09       		.byte	0x9
 3588 17a4 6C       		.byte	0x6c
 3589 17a5 F0000000 		.4byte	0xf0
 3590 17a9 087F     		.2byte	0x7f08
 3591 17ab 0F       		.uleb128 0xf
 3592 17ac 3B160000 		.4byte	.LASF302
 3593 17b0 09       		.byte	0x9
 3594 17b1 6D       		.byte	0x6d
 3595 17b2 F0000000 		.4byte	0xf0
 3596 17b6 0C7F     		.2byte	0x7f0c
 3597 17b8 0F       		.uleb128 0xf
 3598 17b9 D8140000 		.4byte	.LASF151
 3599 17bd 09       		.byte	0x9
 3600 17be 6E       		.byte	0x6e
 3601 17bf 64190000 		.4byte	0x1964
 3602 17c3 107F     		.2byte	0x7f10
 3603 17c5 0F       		.uleb128 0xf
 3604 17c6 77050000 		.4byte	.LASF303
 3605 17ca 09       		.byte	0x9
 3606 17cb 6F       		.byte	0x6f
 3607 17cc F0000000 		.4byte	0xf0
 3608 17d0 307F     		.2byte	0x7f30
ARM GAS  C:\Users\kiwamu\AppData\Local\Temp\ccE2Z6Jb.s 			page 90


 3609 17d2 0F       		.uleb128 0xf
 3610 17d3 E3140000 		.4byte	.LASF153
 3611 17d7 09       		.byte	0x9
 3612 17d8 70       		.byte	0x70
 3613 17d9 7F190000 		.4byte	0x197f
 3614 17dd 347F     		.2byte	0x7f34
 3615 17df 0F       		.uleb128 0xf
 3616 17e0 18070000 		.4byte	.LASF304
 3617 17e4 09       		.byte	0x9
 3618 17e5 71       		.byte	0x71
 3619 17e6 F0000000 		.4byte	0xf0
 3620 17ea 10FF     		.2byte	0xff10
 3621 17ec 0F       		.uleb128 0xf
 3622 17ed EE140000 		.4byte	.LASF155
 3623 17f1 09       		.byte	0x9
 3624 17f2 72       		.byte	0x72
 3625 17f3 15020000 		.4byte	0x215
 3626 17f7 14FF     		.2byte	0xff14
 3627 17f9 0F       		.uleb128 0xf
 3628 17fa 28060000 		.4byte	.LASF305
 3629 17fe 09       		.byte	0x9
 3630 17ff 73       		.byte	0x73
 3631 1800 F0000000 		.4byte	0xf0
 3632 1804 18FF     		.2byte	0xff18
 3633 1806 0F       		.uleb128 0xf
 3634 1807 BA150000 		.4byte	.LASF306
 3635 180b 09       		.byte	0x9
 3636 180c 74       		.byte	0x74
 3637 180d F0000000 		.4byte	0xf0
 3638 1811 1CFF     		.2byte	0xff1c
 3639 1813 0F       		.uleb128 0xf
 3640 1814 00070000 		.4byte	.LASF307
 3641 1818 09       		.byte	0x9
 3642 1819 75       		.byte	0x75
 3643 181a F0000000 		.4byte	0xf0
 3644 181e 20FF     		.2byte	0xff20
 3645 1820 0F       		.uleb128 0xf
 3646 1821 EC100000 		.4byte	.LASF308
 3647 1825 09       		.byte	0x9
 3648 1826 76       		.byte	0x76
 3649 1827 F0000000 		.4byte	0xf0
 3650 182b 24FF     		.2byte	0xff24
 3651 182d 0F       		.uleb128 0xf
 3652 182e 870A0000 		.4byte	.LASF309
 3653 1832 09       		.byte	0x9
 3654 1833 77       		.byte	0x77
 3655 1834 F0000000 		.4byte	0xf0
 3656 1838 28FF     		.2byte	0xff28
 3657 183a 0F       		.uleb128 0xf
 3658 183b 9A0A0000 		.4byte	.LASF310
 3659 183f 09       		.byte	0x9
 3660 1840 78       		.byte	0x78
 3661 1841 F0000000 		.4byte	0xf0
 3662 1845 2CFF     		.2byte	0xff2c
 3663 1847 00       		.byte	0
 3664 1848 07       		.uleb128 0x7
 3665 1849 2F020000 		.4byte	0x22f
ARM GAS  C:\Users\kiwamu\AppData\Local\Temp\ccE2Z6Jb.s 			page 91


 3666 184d 0B       		.uleb128 0xb
 3667 184e 48180000 		.4byte	0x1848
 3668 1852 05       		.uleb128 0x5
 3669 1853 15020000 		.4byte	0x215
 3670 1857 62180000 		.4byte	0x1862
 3671 185b 06       		.uleb128 0x6
 3672 185c E9000000 		.4byte	0xe9
 3673 1860 17       		.byte	0x17
 3674 1861 00       		.byte	0
 3675 1862 07       		.uleb128 0x7
 3676 1863 52180000 		.4byte	0x1852
 3677 1867 0B       		.uleb128 0xb
 3678 1868 62180000 		.4byte	0x1862
 3679 186c 07       		.uleb128 0x7
 3680 186d E4070000 		.4byte	0x7e4
 3681 1871 05       		.uleb128 0x5
 3682 1872 15020000 		.4byte	0x215
 3683 1876 81180000 		.4byte	0x1881
 3684 187a 06       		.uleb128 0x6
 3685 187b E9000000 		.4byte	0xe9
 3686 187f 2F       		.byte	0x2f
 3687 1880 00       		.byte	0
 3688 1881 07       		.uleb128 0x7
 3689 1882 71180000 		.4byte	0x1871
 3690 1886 0B       		.uleb128 0xb
 3691 1887 81180000 		.4byte	0x1881
 3692 188b 07       		.uleb128 0x7
 3693 188c BE130000 		.4byte	0x13be
 3694 1890 0B       		.uleb128 0xb
 3695 1891 8B180000 		.4byte	0x188b
 3696 1895 05       		.uleb128 0x5
 3697 1896 C9140000 		.4byte	0x14c9
 3698 189a A5180000 		.4byte	0x18a5
 3699 189e 06       		.uleb128 0x6
 3700 189f E9000000 		.4byte	0xe9
 3701 18a3 03       		.byte	0x3
 3702 18a4 00       		.byte	0
 3703 18a5 07       		.uleb128 0x7
 3704 18a6 E4070000 		.4byte	0x7e4
 3705 18aa 07       		.uleb128 0x7
 3706 18ab E4070000 		.4byte	0x7e4
 3707 18af 07       		.uleb128 0x7
 3708 18b0 E4070000 		.4byte	0x7e4
 3709 18b4 05       		.uleb128 0x5
 3710 18b5 15020000 		.4byte	0x215
 3711 18b9 C4180000 		.4byte	0x18c4
 3712 18bd 06       		.uleb128 0x6
 3713 18be E9000000 		.4byte	0xe9
 3714 18c2 4F       		.byte	0x4f
 3715 18c3 00       		.byte	0
 3716 18c4 07       		.uleb128 0x7
 3717 18c5 B4180000 		.4byte	0x18b4
 3718 18c9 0B       		.uleb128 0xb
 3719 18ca C4180000 		.4byte	0x18c4
 3720 18ce 07       		.uleb128 0x7
 3721 18cf 2F020000 		.4byte	0x22f
 3722 18d3 0B       		.uleb128 0xb
ARM GAS  C:\Users\kiwamu\AppData\Local\Temp\ccE2Z6Jb.s 			page 92


 3723 18d4 CE180000 		.4byte	0x18ce
 3724 18d8 07       		.uleb128 0x7
 3725 18d9 2F020000 		.4byte	0x22f
 3726 18dd 0B       		.uleb128 0xb
 3727 18de D8180000 		.4byte	0x18d8
 3728 18e2 07       		.uleb128 0x7
 3729 18e3 8B0C0000 		.4byte	0xc8b
 3730 18e7 0B       		.uleb128 0xb
 3731 18e8 E2180000 		.4byte	0x18e2
 3732 18ec 07       		.uleb128 0x7
 3733 18ed 4C0D0000 		.4byte	0xd4c
 3734 18f1 0B       		.uleb128 0xb
 3735 18f2 EC180000 		.4byte	0x18ec
 3736 18f6 05       		.uleb128 0x5
 3737 18f7 F0000000 		.4byte	0xf0
 3738 18fb 06190000 		.4byte	0x1906
 3739 18ff 06       		.uleb128 0x6
 3740 1900 E9000000 		.4byte	0xe9
 3741 1904 0E       		.byte	0xe
 3742 1905 00       		.byte	0
 3743 1906 07       		.uleb128 0x7
 3744 1907 F6180000 		.4byte	0x18f6
 3745 190b 07       		.uleb128 0x7
 3746 190c F6180000 		.4byte	0x18f6
 3747 1910 05       		.uleb128 0x5
 3748 1911 15020000 		.4byte	0x215
 3749 1915 20190000 		.4byte	0x1920
 3750 1919 06       		.uleb128 0x6
 3751 191a E9000000 		.4byte	0xe9
 3752 191e 20       		.byte	0x20
 3753 191f 00       		.byte	0
 3754 1920 07       		.uleb128 0x7
 3755 1921 10190000 		.4byte	0x1910
 3756 1925 0B       		.uleb128 0xb
 3757 1926 20190000 		.4byte	0x1920
 3758 192a 05       		.uleb128 0x5
 3759 192b 15020000 		.4byte	0x215
 3760 192f 3A190000 		.4byte	0x193a
 3761 1933 06       		.uleb128 0x6
 3762 1934 E9000000 		.4byte	0xe9
 3763 1938 3A       		.byte	0x3a
 3764 1939 00       		.byte	0
 3765 193a 07       		.uleb128 0x7
 3766 193b 2A190000 		.4byte	0x192a
 3767 193f 0B       		.uleb128 0xb
 3768 1940 3A190000 		.4byte	0x193a
 3769 1944 05       		.uleb128 0x5
 3770 1945 15020000 		.4byte	0x215
 3771 1949 55190000 		.4byte	0x1955
 3772 194d 10       		.uleb128 0x10
 3773 194e E9000000 		.4byte	0xe9
 3774 1952 BD1D     		.2byte	0x1dbd
 3775 1954 00       		.byte	0
 3776 1955 07       		.uleb128 0x7
 3777 1956 44190000 		.4byte	0x1944
 3778 195a 0B       		.uleb128 0xb
 3779 195b 55190000 		.4byte	0x1955
ARM GAS  C:\Users\kiwamu\AppData\Local\Temp\ccE2Z6Jb.s 			page 93


 3780 195f 07       		.uleb128 0x7
 3781 1960 F80D0000 		.4byte	0xdf8
 3782 1964 0B       		.uleb128 0xb
 3783 1965 5F190000 		.4byte	0x195f
 3784 1969 05       		.uleb128 0x5
 3785 196a 15020000 		.4byte	0x215
 3786 196e 7A190000 		.4byte	0x197a
 3787 1972 10       		.uleb128 0x10
 3788 1973 E9000000 		.4byte	0xe9
 3789 1977 F61F     		.2byte	0x1ff6
 3790 1979 00       		.byte	0
 3791 197a 07       		.uleb128 0x7
 3792 197b 69190000 		.4byte	0x1969
 3793 197f 0B       		.uleb128 0xb
 3794 1980 7A190000 		.4byte	0x197a
 3795 1984 03       		.uleb128 0x3
 3796 1985 2E000000 		.4byte	.LASF311
 3797 1989 09       		.byte	0x9
 3798 198a 79       		.byte	0x79
 3799 198b D4140000 		.4byte	0x14d4
 3800 198f 0D       		.uleb128 0xd
 3801 1990 04FF     		.2byte	0xff04
 3802 1992 0A       		.byte	0xa
 3803 1993 21       		.byte	0x21
 3804 1994 B01A0000 		.4byte	0x1ab0
 3805 1998 13       		.uleb128 0x13
 3806 1999 43544C00 		.ascii	"CTL\000"
 3807 199d 0A       		.byte	0xa
 3808 199e 22       		.byte	0x22
 3809 199f F0000000 		.4byte	0xf0
 3810 19a3 00       		.byte	0
 3811 19a4 0E       		.uleb128 0xe
 3812 19a5 E3040000 		.4byte	.LASF36
 3813 19a9 0A       		.byte	0xa
 3814 19aa 23       		.byte	0x23
 3815 19ab 15020000 		.4byte	0x215
 3816 19af 04       		.byte	0x4
 3817 19b0 0E       		.uleb128 0xe
 3818 19b1 890F0000 		.4byte	.LASF312
 3819 19b5 0A       		.byte	0xa
 3820 19b6 24       		.byte	0x24
 3821 19b7 F0000000 		.4byte	0xf0
 3822 19bb 08       		.byte	0x8
 3823 19bc 0E       		.uleb128 0xe
 3824 19bd B9110000 		.4byte	.LASF313
 3825 19c1 0A       		.byte	0xa
 3826 19c2 25       		.byte	0x25
 3827 19c3 F0000000 		.4byte	0xf0
 3828 19c7 0C       		.byte	0xc
 3829 19c8 0E       		.uleb128 0xe
 3830 19c9 3A170000 		.4byte	.LASF178
 3831 19cd 0A       		.byte	0xa
 3832 19ce 26       		.byte	0x26
 3833 19cf 15020000 		.4byte	0x215
 3834 19d3 10       		.byte	0x10
 3835 19d4 0E       		.uleb128 0xe
 3836 19d5 93090000 		.4byte	.LASF314
ARM GAS  C:\Users\kiwamu\AppData\Local\Temp\ccE2Z6Jb.s 			page 94


 3837 19d9 0A       		.byte	0xa
 3838 19da 27       		.byte	0x27
 3839 19db F0000000 		.4byte	0xf0
 3840 19df 14       		.byte	0x14
 3841 19e0 0E       		.uleb128 0xe
 3842 19e1 CD000000 		.4byte	.LASF315
 3843 19e5 0A       		.byte	0xa
 3844 19e6 28       		.byte	0x28
 3845 19e7 F0000000 		.4byte	0xf0
 3846 19eb 18       		.byte	0x18
 3847 19ec 0E       		.uleb128 0xe
 3848 19ed 8B080000 		.4byte	.LASF316
 3849 19f1 0A       		.byte	0xa
 3850 19f2 29       		.byte	0x29
 3851 19f3 F0000000 		.4byte	0xf0
 3852 19f7 1C       		.byte	0x1c
 3853 19f8 0E       		.uleb128 0xe
 3854 19f9 E3090000 		.4byte	.LASF317
 3855 19fd 0A       		.byte	0xa
 3856 19fe 2A       		.byte	0x2a
 3857 19ff F0000000 		.4byte	0xf0
 3858 1a03 20       		.byte	0x20
 3859 1a04 0E       		.uleb128 0xe
 3860 1a05 F3160000 		.4byte	.LASF318
 3861 1a09 0A       		.byte	0xa
 3862 1a0a 2B       		.byte	0x2b
 3863 1a0b F0000000 		.4byte	0xf0
 3864 1a0f 24       		.byte	0x24
 3865 1a10 0E       		.uleb128 0xe
 3866 1a11 C0170000 		.4byte	.LASF319
 3867 1a15 0A       		.byte	0xa
 3868 1a16 2C       		.byte	0x2c
 3869 1a17 F0000000 		.4byte	0xf0
 3870 1a1b 28       		.byte	0x28
 3871 1a1c 0E       		.uleb128 0xe
 3872 1a1d 23060000 		.4byte	.LASF192
 3873 1a21 0A       		.byte	0xa
 3874 1a22 2D       		.byte	0x2d
 3875 1a23 F0000000 		.4byte	0xf0
 3876 1a27 2C       		.byte	0x2c
 3877 1a28 0E       		.uleb128 0xe
 3878 1a29 72030000 		.4byte	.LASF193
 3879 1a2d 0A       		.byte	0xa
 3880 1a2e 2E       		.byte	0x2e
 3881 1a2f F0000000 		.4byte	0xf0
 3882 1a33 30       		.byte	0x30
 3883 1a34 0E       		.uleb128 0xe
 3884 1a35 F60D0000 		.4byte	.LASF194
 3885 1a39 0A       		.byte	0xa
 3886 1a3a 2F       		.byte	0x2f
 3887 1a3b F0000000 		.4byte	0xf0
 3888 1a3f 34       		.byte	0x34
 3889 1a40 0E       		.uleb128 0xe
 3890 1a41 86120000 		.4byte	.LASF195
 3891 1a45 0A       		.byte	0xa
 3892 1a46 30       		.byte	0x30
 3893 1a47 15020000 		.4byte	0x215
ARM GAS  C:\Users\kiwamu\AppData\Local\Temp\ccE2Z6Jb.s 			page 95


 3894 1a4b 38       		.byte	0x38
 3895 1a4c 0E       		.uleb128 0xe
 3896 1a4d 55130000 		.4byte	.LASF320
 3897 1a51 0A       		.byte	0xa
 3898 1a52 31       		.byte	0x31
 3899 1a53 15020000 		.4byte	0x215
 3900 1a57 3C       		.byte	0x3c
 3901 1a58 0E       		.uleb128 0xe
 3902 1a59 560A0000 		.4byte	.LASF321
 3903 1a5d 0A       		.byte	0xa
 3904 1a5e 32       		.byte	0x32
 3905 1a5f 15020000 		.4byte	0x215
 3906 1a63 40       		.byte	0x40
 3907 1a64 0E       		.uleb128 0xe
 3908 1a65 53070000 		.4byte	.LASF322
 3909 1a69 0A       		.byte	0xa
 3910 1a6a 33       		.byte	0x33
 3911 1a6b F0000000 		.4byte	0xf0
 3912 1a6f 44       		.byte	0x44
 3913 1a70 0E       		.uleb128 0xe
 3914 1a71 8A110000 		.4byte	.LASF323
 3915 1a75 0A       		.byte	0xa
 3916 1a76 34       		.byte	0x34
 3917 1a77 F0000000 		.4byte	0xf0
 3918 1a7b 48       		.byte	0x48
 3919 1a7c 0E       		.uleb128 0xe
 3920 1a7d 24100000 		.4byte	.LASF38
 3921 1a81 0A       		.byte	0xa
 3922 1a82 35       		.byte	0x35
 3923 1a83 C61A0000 		.4byte	0x1ac6
 3924 1a87 4C       		.byte	0x4c
 3925 1a88 0F       		.uleb128 0xf
 3926 1a89 7A0C0000 		.4byte	.LASF324
 3927 1a8d 0A       		.byte	0xa
 3928 1a8e 36       		.byte	0x36
 3929 1a8f CB1A0000 		.4byte	0x1acb
 3930 1a93 0010     		.2byte	0x1000
 3931 1a95 0F       		.uleb128 0xf
 3932 1a96 2E100000 		.4byte	.LASF48
 3933 1a9a 0A       		.byte	0xa
 3934 1a9b 37       		.byte	0x37
 3935 1a9c E61A0000 		.4byte	0x1ae6
 3936 1aa0 0011     		.2byte	0x1100
 3937 1aa2 0F       		.uleb128 0xf
 3938 1aa3 24170000 		.4byte	.LASF325
 3939 1aa7 0A       		.byte	0xa
 3940 1aa8 38       		.byte	0x38
 3941 1aa9 F0000000 		.4byte	0xf0
 3942 1aad 00FF     		.2byte	0xff00
 3943 1aaf 00       		.byte	0
 3944 1ab0 05       		.uleb128 0x5
 3945 1ab1 15020000 		.4byte	0x215
 3946 1ab5 C11A0000 		.4byte	0x1ac1
 3947 1ab9 10       		.uleb128 0x10
 3948 1aba E9000000 		.4byte	0xe9
 3949 1abe EC03     		.2byte	0x3ec
 3950 1ac0 00       		.byte	0
ARM GAS  C:\Users\kiwamu\AppData\Local\Temp\ccE2Z6Jb.s 			page 96


 3951 1ac1 07       		.uleb128 0x7
 3952 1ac2 B01A0000 		.4byte	0x1ab0
 3953 1ac6 0B       		.uleb128 0xb
 3954 1ac7 C11A0000 		.4byte	0x1ac1
 3955 1acb 07       		.uleb128 0x7
 3956 1acc 21090000 		.4byte	0x921
 3957 1ad0 05       		.uleb128 0x5
 3958 1ad1 15020000 		.4byte	0x215
 3959 1ad5 E11A0000 		.4byte	0x1ae1
 3960 1ad9 10       		.uleb128 0x10
 3961 1ada E9000000 		.4byte	0xe9
 3962 1ade 7F3B     		.2byte	0x3b7f
 3963 1ae0 00       		.byte	0
 3964 1ae1 07       		.uleb128 0x7
 3965 1ae2 D01A0000 		.4byte	0x1ad0
 3966 1ae6 0B       		.uleb128 0xb
 3967 1ae7 E11A0000 		.4byte	0x1ae1
 3968 1aeb 03       		.uleb128 0x3
 3969 1aec 0C000000 		.4byte	.LASF326
 3970 1af0 0A       		.byte	0xa
 3971 1af1 39       		.byte	0x39
 3972 1af2 8F190000 		.4byte	0x198f
 3973 1af6 14       		.uleb128 0x14
 3974 1af7 04       		.byte	0x4
 3975 1af8 2C000000 		.4byte	0x2c
 3976 1afc 0B       		.byte	0xb
 3977 1afd CE       		.byte	0xce
 3978 1afe 2D1B0000 		.4byte	0x1b2d
 3979 1b02 15       		.uleb128 0x15
 3980 1b03 EE060000 		.4byte	.LASF327
 3981 1b07 00       		.byte	0
 3982 1b08 16       		.uleb128 0x16
 3983 1b09 F00E0000 		.4byte	.LASF328
 3984 1b0d 01004600 		.4byte	0x460001
 3985 1b11 16       		.uleb128 0x16
 3986 1b12 51060000 		.4byte	.LASF329
 3987 1b16 02004600 		.4byte	0x460002
 3988 1b1a 16       		.uleb128 0x16
 3989 1b1b 400D0000 		.4byte	.LASF330
 3990 1b1f 03004600 		.4byte	0x460003
 3991 1b23 16       		.uleb128 0x16
 3992 1b24 91150000 		.4byte	.LASF331
 3993 1b28 FF004600 		.4byte	0x4600ff
 3994 1b2c 00       		.byte	0
 3995 1b2d 03       		.uleb128 0x3
 3996 1b2e 29150000 		.4byte	.LASF332
 3997 1b32 0B       		.byte	0xb
 3998 1b33 D4       		.byte	0xd4
 3999 1b34 F61A0000 		.4byte	0x1af6
 4000 1b38 12       		.uleb128 0x12
 4001 1b39 04       		.byte	0x4
 4002 1b3a 0B       		.byte	0xb
 4003 1b3b DF       		.byte	0xdf
 4004 1b3c A91C0000 		.4byte	0x1ca9
 4005 1b40 17       		.uleb128 0x17
 4006 1b41 25030000 		.4byte	.LASF333
 4007 1b45 0B       		.byte	0xb
ARM GAS  C:\Users\kiwamu\AppData\Local\Temp\ccE2Z6Jb.s 			page 97


 4008 1b46 E2       		.byte	0xe2
 4009 1b47 C3000000 		.4byte	0xc3
 4010 1b4b 04       		.byte	0x4
 4011 1b4c 01       		.byte	0x1
 4012 1b4d 1F       		.byte	0x1f
 4013 1b4e 00       		.byte	0
 4014 1b4f 17       		.uleb128 0x17
 4015 1b50 E0170000 		.4byte	.LASF334
 4016 1b54 0B       		.byte	0xb
 4017 1b55 E3       		.byte	0xe3
 4018 1b56 C3000000 		.4byte	0xc3
 4019 1b5a 04       		.byte	0x4
 4020 1b5b 01       		.byte	0x1
 4021 1b5c 1E       		.byte	0x1e
 4022 1b5d 00       		.byte	0
 4023 1b5e 17       		.uleb128 0x17
 4024 1b5f E1110000 		.4byte	.LASF335
 4025 1b63 0B       		.byte	0xb
 4026 1b64 E4       		.byte	0xe4
 4027 1b65 C3000000 		.4byte	0xc3
 4028 1b69 04       		.byte	0x4
 4029 1b6a 01       		.byte	0x1
 4030 1b6b 1D       		.byte	0x1d
 4031 1b6c 00       		.byte	0
 4032 1b6d 17       		.uleb128 0x17
 4033 1b6e D6160000 		.4byte	.LASF336
 4034 1b72 0B       		.byte	0xb
 4035 1b73 E5       		.byte	0xe5
 4036 1b74 C3000000 		.4byte	0xc3
 4037 1b78 04       		.byte	0x4
 4038 1b79 01       		.byte	0x1
 4039 1b7a 1C       		.byte	0x1c
 4040 1b7b 00       		.byte	0
 4041 1b7c 17       		.uleb128 0x17
 4042 1b7d 09120000 		.4byte	.LASF337
 4043 1b81 0B       		.byte	0xb
 4044 1b82 E6       		.byte	0xe6
 4045 1b83 C3000000 		.4byte	0xc3
 4046 1b87 04       		.byte	0x4
 4047 1b88 01       		.byte	0x1
 4048 1b89 1B       		.byte	0x1b
 4049 1b8a 00       		.byte	0
 4050 1b8b 17       		.uleb128 0x17
 4051 1b8c 90020000 		.4byte	.LASF338
 4052 1b90 0B       		.byte	0xb
 4053 1b91 E7       		.byte	0xe7
 4054 1b92 C3000000 		.4byte	0xc3
 4055 1b96 04       		.byte	0x4
 4056 1b97 01       		.byte	0x1
 4057 1b98 1A       		.byte	0x1a
 4058 1b99 00       		.byte	0
 4059 1b9a 17       		.uleb128 0x17
 4060 1b9b EB110000 		.4byte	.LASF339
 4061 1b9f 0B       		.byte	0xb
 4062 1ba0 E8       		.byte	0xe8
 4063 1ba1 C3000000 		.4byte	0xc3
 4064 1ba5 04       		.byte	0x4
ARM GAS  C:\Users\kiwamu\AppData\Local\Temp\ccE2Z6Jb.s 			page 98


 4065 1ba6 01       		.byte	0x1
 4066 1ba7 19       		.byte	0x19
 4067 1ba8 00       		.byte	0
 4068 1ba9 17       		.uleb128 0x17
 4069 1baa 47140000 		.4byte	.LASF340
 4070 1bae 0B       		.byte	0xb
 4071 1baf E9       		.byte	0xe9
 4072 1bb0 C3000000 		.4byte	0xc3
 4073 1bb4 04       		.byte	0x4
 4074 1bb5 01       		.byte	0x1
 4075 1bb6 18       		.byte	0x18
 4076 1bb7 00       		.byte	0
 4077 1bb8 17       		.uleb128 0x17
 4078 1bb9 CA130000 		.4byte	.LASF341
 4079 1bbd 0B       		.byte	0xb
 4080 1bbe EB       		.byte	0xeb
 4081 1bbf C3000000 		.4byte	0xc3
 4082 1bc3 04       		.byte	0x4
 4083 1bc4 01       		.byte	0x1
 4084 1bc5 17       		.byte	0x17
 4085 1bc6 00       		.byte	0
 4086 1bc7 17       		.uleb128 0x17
 4087 1bc8 3F0E0000 		.4byte	.LASF342
 4088 1bcc 0B       		.byte	0xb
 4089 1bcd EC       		.byte	0xec
 4090 1bce C3000000 		.4byte	0xc3
 4091 1bd2 04       		.byte	0x4
 4092 1bd3 01       		.byte	0x1
 4093 1bd4 16       		.byte	0x16
 4094 1bd5 00       		.byte	0
 4095 1bd6 17       		.uleb128 0x17
 4096 1bd7 00000000 		.4byte	.LASF343
 4097 1bdb 0B       		.byte	0xb
 4098 1bdc ED       		.byte	0xed
 4099 1bdd C3000000 		.4byte	0xc3
 4100 1be1 04       		.byte	0x4
 4101 1be2 01       		.byte	0x1
 4102 1be3 15       		.byte	0x15
 4103 1be4 00       		.byte	0
 4104 1be5 17       		.uleb128 0x17
 4105 1be6 C8050000 		.4byte	.LASF344
 4106 1bea 0B       		.byte	0xb
 4107 1beb EE       		.byte	0xee
 4108 1bec C3000000 		.4byte	0xc3
 4109 1bf0 04       		.byte	0x4
 4110 1bf1 01       		.byte	0x1
 4111 1bf2 14       		.byte	0x14
 4112 1bf3 00       		.byte	0
 4113 1bf4 17       		.uleb128 0x17
 4114 1bf5 AD0A0000 		.4byte	.LASF345
 4115 1bf9 0B       		.byte	0xb
 4116 1bfa EF       		.byte	0xef
 4117 1bfb C3000000 		.4byte	0xc3
 4118 1bff 04       		.byte	0x4
 4119 1c00 01       		.byte	0x1
 4120 1c01 13       		.byte	0x13
 4121 1c02 00       		.byte	0
ARM GAS  C:\Users\kiwamu\AppData\Local\Temp\ccE2Z6Jb.s 			page 99


 4122 1c03 17       		.uleb128 0x17
 4123 1c04 080A0000 		.4byte	.LASF346
 4124 1c08 0B       		.byte	0xb
 4125 1c09 F0       		.byte	0xf0
 4126 1c0a C3000000 		.4byte	0xc3
 4127 1c0e 04       		.byte	0x4
 4128 1c0f 01       		.byte	0x1
 4129 1c10 12       		.byte	0x12
 4130 1c11 00       		.byte	0
 4131 1c12 17       		.uleb128 0x17
 4132 1c13 05050000 		.4byte	.LASF347
 4133 1c17 0B       		.byte	0xb
 4134 1c18 F1       		.byte	0xf1
 4135 1c19 C3000000 		.4byte	0xc3
 4136 1c1d 04       		.byte	0x4
 4137 1c1e 01       		.byte	0x1
 4138 1c1f 11       		.byte	0x11
 4139 1c20 00       		.byte	0
 4140 1c21 17       		.uleb128 0x17
 4141 1c22 EC040000 		.4byte	.LASF348
 4142 1c26 0B       		.byte	0xb
 4143 1c27 F2       		.byte	0xf2
 4144 1c28 C3000000 		.4byte	0xc3
 4145 1c2c 04       		.byte	0x4
 4146 1c2d 01       		.byte	0x1
 4147 1c2e 10       		.byte	0x10
 4148 1c2f 00       		.byte	0
 4149 1c30 17       		.uleb128 0x17
 4150 1c31 22090000 		.4byte	.LASF349
 4151 1c35 0B       		.byte	0xb
 4152 1c36 F4       		.byte	0xf4
 4153 1c37 C3000000 		.4byte	0xc3
 4154 1c3b 04       		.byte	0x4
 4155 1c3c 01       		.byte	0x1
 4156 1c3d 0F       		.byte	0xf
 4157 1c3e 00       		.byte	0
 4158 1c3f 17       		.uleb128 0x17
 4159 1c40 7C0D0000 		.4byte	.LASF350
 4160 1c44 0B       		.byte	0xb
 4161 1c45 F5       		.byte	0xf5
 4162 1c46 C3000000 		.4byte	0xc3
 4163 1c4a 04       		.byte	0x4
 4164 1c4b 01       		.byte	0x1
 4165 1c4c 0E       		.byte	0xe
 4166 1c4d 00       		.byte	0
 4167 1c4e 17       		.uleb128 0x17
 4168 1c4f FD160000 		.4byte	.LASF351
 4169 1c53 0B       		.byte	0xb
 4170 1c54 F6       		.byte	0xf6
 4171 1c55 C3000000 		.4byte	0xc3
 4172 1c59 04       		.byte	0x4
 4173 1c5a 01       		.byte	0x1
 4174 1c5b 0D       		.byte	0xd
 4175 1c5c 00       		.byte	0
 4176 1c5d 17       		.uleb128 0x17
 4177 1c5e 850D0000 		.4byte	.LASF352
 4178 1c62 0B       		.byte	0xb
ARM GAS  C:\Users\kiwamu\AppData\Local\Temp\ccE2Z6Jb.s 			page 100


 4179 1c63 F7       		.byte	0xf7
 4180 1c64 C3000000 		.4byte	0xc3
 4181 1c68 04       		.byte	0x4
 4182 1c69 01       		.byte	0x1
 4183 1c6a 0C       		.byte	0xc
 4184 1c6b 00       		.byte	0
 4185 1c6c 17       		.uleb128 0x17
 4186 1c6d FF110000 		.4byte	.LASF353
 4187 1c71 0B       		.byte	0xb
 4188 1c72 F8       		.byte	0xf8
 4189 1c73 C3000000 		.4byte	0xc3
 4190 1c77 04       		.byte	0x4
 4191 1c78 04       		.byte	0x4
 4192 1c79 08       		.byte	0x8
 4193 1c7a 00       		.byte	0
 4194 1c7b 17       		.uleb128 0x17
 4195 1c7c FB030000 		.4byte	.LASF354
 4196 1c80 0B       		.byte	0xb
 4197 1c81 F9       		.byte	0xf9
 4198 1c82 C3000000 		.4byte	0xc3
 4199 1c86 04       		.byte	0x4
 4200 1c87 01       		.byte	0x1
 4201 1c88 07       		.byte	0x7
 4202 1c89 00       		.byte	0
 4203 1c8a 17       		.uleb128 0x17
 4204 1c8b 24000000 		.4byte	.LASF355
 4205 1c8f 0B       		.byte	0xb
 4206 1c90 FA       		.byte	0xfa
 4207 1c91 C3000000 		.4byte	0xc3
 4208 1c95 04       		.byte	0x4
 4209 1c96 01       		.byte	0x1
 4210 1c97 06       		.byte	0x6
 4211 1c98 00       		.byte	0
 4212 1c99 17       		.uleb128 0x17
 4213 1c9a 18050000 		.4byte	.LASF356
 4214 1c9e 0B       		.byte	0xb
 4215 1c9f FB       		.byte	0xfb
 4216 1ca0 C3000000 		.4byte	0xc3
 4217 1ca4 04       		.byte	0x4
 4218 1ca5 06       		.byte	0x6
 4219 1ca6 00       		.byte	0
 4220 1ca7 00       		.byte	0
 4221 1ca8 00       		.byte	0
 4222 1ca9 03       		.uleb128 0x3
 4223 1caa 3F150000 		.4byte	.LASF357
 4224 1cae 0B       		.byte	0xb
 4225 1caf FC       		.byte	0xfc
 4226 1cb0 381B0000 		.4byte	0x1b38
 4227 1cb4 12       		.uleb128 0x12
 4228 1cb5 04       		.byte	0x4
 4229 1cb6 0B       		.byte	0xb
 4230 1cb7 FF       		.byte	0xff
 4231 1cb8 0D1D0000 		.4byte	0x1d0d
 4232 1cbc 18       		.uleb128 0x18
 4233 1cbd E1110000 		.4byte	.LASF335
 4234 1cc1 0B       		.byte	0xb
 4235 1cc2 0101     		.2byte	0x101
ARM GAS  C:\Users\kiwamu\AppData\Local\Temp\ccE2Z6Jb.s 			page 101


 4236 1cc4 C3000000 		.4byte	0xc3
 4237 1cc8 04       		.byte	0x4
 4238 1cc9 01       		.byte	0x1
 4239 1cca 1F       		.byte	0x1f
 4240 1ccb 00       		.byte	0
 4241 1ccc 18       		.uleb128 0x18
 4242 1ccd 690C0000 		.4byte	.LASF358
 4243 1cd1 0B       		.byte	0xb
 4244 1cd2 0201     		.2byte	0x102
 4245 1cd4 C3000000 		.4byte	0xc3
 4246 1cd8 04       		.byte	0x4
 4247 1cd9 01       		.byte	0x1
 4248 1cda 1E       		.byte	0x1e
 4249 1cdb 00       		.byte	0
 4250 1cdc 18       		.uleb128 0x18
 4251 1cdd EB110000 		.4byte	.LASF339
 4252 1ce1 0B       		.byte	0xb
 4253 1ce2 0301     		.2byte	0x103
 4254 1ce4 C3000000 		.4byte	0xc3
 4255 1ce8 04       		.byte	0x4
 4256 1ce9 1C       		.byte	0x1c
 4257 1cea 02       		.byte	0x2
 4258 1ceb 00       		.byte	0
 4259 1cec 18       		.uleb128 0x18
 4260 1ced F3080000 		.4byte	.LASF359
 4261 1cf1 0B       		.byte	0xb
 4262 1cf2 0401     		.2byte	0x104
 4263 1cf4 C3000000 		.4byte	0xc3
 4264 1cf8 04       		.byte	0x4
 4265 1cf9 01       		.byte	0x1
 4266 1cfa 01       		.byte	0x1
 4267 1cfb 00       		.byte	0
 4268 1cfc 18       		.uleb128 0x18
 4269 1cfd E10D0000 		.4byte	.LASF360
 4270 1d01 0B       		.byte	0xb
 4271 1d02 0501     		.2byte	0x105
 4272 1d04 C3000000 		.4byte	0xc3
 4273 1d08 04       		.byte	0x4
 4274 1d09 01       		.byte	0x1
 4275 1d0a 00       		.byte	0
 4276 1d0b 00       		.byte	0
 4277 1d0c 00       		.byte	0
 4278 1d0d 0C       		.uleb128 0xc
 4279 1d0e 4C170000 		.4byte	.LASF361
 4280 1d12 0B       		.byte	0xb
 4281 1d13 0601     		.2byte	0x106
 4282 1d15 B41C0000 		.4byte	0x1cb4
 4283 1d19 08       		.uleb128 0x8
 4284 1d1a 04       		.byte	0x4
 4285 1d1b 0B       		.byte	0xb
 4286 1d1c 0901     		.2byte	0x109
 4287 1d1e 431E0000 		.4byte	0x1e43
 4288 1d22 18       		.uleb128 0x18
 4289 1d23 EF030000 		.4byte	.LASF362
 4290 1d27 0B       		.byte	0xb
 4291 1d28 0B01     		.2byte	0x10b
 4292 1d2a C3000000 		.4byte	0xc3
ARM GAS  C:\Users\kiwamu\AppData\Local\Temp\ccE2Z6Jb.s 			page 102


 4293 1d2e 04       		.byte	0x4
 4294 1d2f 01       		.byte	0x1
 4295 1d30 1F       		.byte	0x1f
 4296 1d31 00       		.byte	0
 4297 1d32 18       		.uleb128 0x18
 4298 1d33 490E0000 		.4byte	.LASF363
 4299 1d37 0B       		.byte	0xb
 4300 1d38 0C01     		.2byte	0x10c
 4301 1d3a C3000000 		.4byte	0xc3
 4302 1d3e 04       		.byte	0x4
 4303 1d3f 01       		.byte	0x1
 4304 1d40 1E       		.byte	0x1e
 4305 1d41 00       		.byte	0
 4306 1d42 18       		.uleb128 0x18
 4307 1d43 E1110000 		.4byte	.LASF335
 4308 1d47 0B       		.byte	0xb
 4309 1d48 0D01     		.2byte	0x10d
 4310 1d4a C3000000 		.4byte	0xc3
 4311 1d4e 04       		.byte	0x4
 4312 1d4f 01       		.byte	0x1
 4313 1d50 1D       		.byte	0x1d
 4314 1d51 00       		.byte	0
 4315 1d52 18       		.uleb128 0x18
 4316 1d53 1F0A0000 		.4byte	.LASF364
 4317 1d57 0B       		.byte	0xb
 4318 1d58 0E01     		.2byte	0x10e
 4319 1d5a C3000000 		.4byte	0xc3
 4320 1d5e 04       		.byte	0x4
 4321 1d5f 01       		.byte	0x1
 4322 1d60 1C       		.byte	0x1c
 4323 1d61 00       		.byte	0
 4324 1d62 18       		.uleb128 0x18
 4325 1d63 EB110000 		.4byte	.LASF339
 4326 1d67 0B       		.byte	0xb
 4327 1d68 0F01     		.2byte	0x10f
 4328 1d6a C3000000 		.4byte	0xc3
 4329 1d6e 04       		.byte	0x4
 4330 1d6f 03       		.byte	0x3
 4331 1d70 19       		.byte	0x19
 4332 1d71 00       		.byte	0
 4333 1d72 18       		.uleb128 0x18
 4334 1d73 D6000000 		.4byte	.LASF365
 4335 1d77 0B       		.byte	0xb
 4336 1d78 1001     		.2byte	0x110
 4337 1d7a C3000000 		.4byte	0xc3
 4338 1d7e 04       		.byte	0x4
 4339 1d7f 01       		.byte	0x1
 4340 1d80 18       		.byte	0x18
 4341 1d81 00       		.byte	0
 4342 1d82 18       		.uleb128 0x18
 4343 1d83 FF020000 		.4byte	.LASF366
 4344 1d87 0B       		.byte	0xb
 4345 1d88 1101     		.2byte	0x111
 4346 1d8a C3000000 		.4byte	0xc3
 4347 1d8e 04       		.byte	0x4
 4348 1d8f 01       		.byte	0x1
 4349 1d90 17       		.byte	0x17
ARM GAS  C:\Users\kiwamu\AppData\Local\Temp\ccE2Z6Jb.s 			page 103


 4350 1d91 00       		.byte	0
 4351 1d92 18       		.uleb128 0x18
 4352 1d93 05050000 		.4byte	.LASF347
 4353 1d97 0B       		.byte	0xb
 4354 1d98 1201     		.2byte	0x112
 4355 1d9a C3000000 		.4byte	0xc3
 4356 1d9e 04       		.byte	0x4
 4357 1d9f 01       		.byte	0x1
 4358 1da0 16       		.byte	0x16
 4359 1da1 00       		.byte	0
 4360 1da2 18       		.uleb128 0x18
 4361 1da3 BF120000 		.4byte	.LASF367
 4362 1da7 0B       		.byte	0xb
 4363 1da8 1301     		.2byte	0x113
 4364 1daa C3000000 		.4byte	0xc3
 4365 1dae 04       		.byte	0x4
 4366 1daf 01       		.byte	0x1
 4367 1db0 15       		.byte	0x15
 4368 1db1 00       		.byte	0
 4369 1db2 18       		.uleb128 0x18
 4370 1db3 E1100000 		.4byte	.LASF368
 4371 1db7 0B       		.byte	0xb
 4372 1db8 1401     		.2byte	0x114
 4373 1dba C3000000 		.4byte	0xc3
 4374 1dbe 04       		.byte	0x4
 4375 1dbf 01       		.byte	0x1
 4376 1dc0 14       		.byte	0x14
 4377 1dc1 00       		.byte	0
 4378 1dc2 18       		.uleb128 0x18
 4379 1dc3 F70F0000 		.4byte	.LASF369
 4380 1dc7 0B       		.byte	0xb
 4381 1dc8 1501     		.2byte	0x115
 4382 1dca C3000000 		.4byte	0xc3
 4383 1dce 04       		.byte	0x4
 4384 1dcf 01       		.byte	0x1
 4385 1dd0 13       		.byte	0x13
 4386 1dd1 00       		.byte	0
 4387 1dd2 18       		.uleb128 0x18
 4388 1dd3 1C010000 		.4byte	.LASF370
 4389 1dd7 0B       		.byte	0xb
 4390 1dd8 1601     		.2byte	0x116
 4391 1dda C3000000 		.4byte	0xc3
 4392 1dde 04       		.byte	0x4
 4393 1ddf 01       		.byte	0x1
 4394 1de0 12       		.byte	0x12
 4395 1de1 00       		.byte	0
 4396 1de2 18       		.uleb128 0x18
 4397 1de3 F6040000 		.4byte	.LASF371
 4398 1de7 0B       		.byte	0xb
 4399 1de8 1701     		.2byte	0x117
 4400 1dea C3000000 		.4byte	0xc3
 4401 1dee 04       		.byte	0x4
 4402 1def 01       		.byte	0x1
 4403 1df0 11       		.byte	0x11
 4404 1df1 00       		.byte	0
 4405 1df2 18       		.uleb128 0x18
 4406 1df3 650A0000 		.4byte	.LASF372
ARM GAS  C:\Users\kiwamu\AppData\Local\Temp\ccE2Z6Jb.s 			page 104


 4407 1df7 0B       		.byte	0xb
 4408 1df8 1801     		.2byte	0x118
 4409 1dfa C3000000 		.4byte	0xc3
 4410 1dfe 04       		.byte	0x4
 4411 1dff 01       		.byte	0x1
 4412 1e00 10       		.byte	0x10
 4413 1e01 00       		.byte	0
 4414 1e02 18       		.uleb128 0x18
 4415 1e03 67120000 		.4byte	.LASF373
 4416 1e07 0B       		.byte	0xb
 4417 1e08 1901     		.2byte	0x119
 4418 1e0a C3000000 		.4byte	0xc3
 4419 1e0e 04       		.byte	0x4
 4420 1e0f 01       		.byte	0x1
 4421 1e10 0F       		.byte	0xf
 4422 1e11 00       		.byte	0
 4423 1e12 18       		.uleb128 0x18
 4424 1e13 18000000 		.4byte	.LASF374
 4425 1e17 0B       		.byte	0xb
 4426 1e18 1A01     		.2byte	0x11a
 4427 1e1a C3000000 		.4byte	0xc3
 4428 1e1e 04       		.byte	0x4
 4429 1e1f 01       		.byte	0x1
 4430 1e20 0E       		.byte	0xe
 4431 1e21 00       		.byte	0
 4432 1e22 18       		.uleb128 0x18
 4433 1e23 BE0F0000 		.4byte	.LASF375
 4434 1e27 0B       		.byte	0xb
 4435 1e28 1B01     		.2byte	0x11b
 4436 1e2a C3000000 		.4byte	0xc3
 4437 1e2e 04       		.byte	0x4
 4438 1e2f 01       		.byte	0x1
 4439 1e30 0D       		.byte	0xd
 4440 1e31 00       		.byte	0
 4441 1e32 18       		.uleb128 0x18
 4442 1e33 FF110000 		.4byte	.LASF353
 4443 1e37 0B       		.byte	0xb
 4444 1e38 1C01     		.2byte	0x11c
 4445 1e3a C3000000 		.4byte	0xc3
 4446 1e3e 04       		.byte	0x4
 4447 1e3f 0D       		.byte	0xd
 4448 1e40 00       		.byte	0
 4449 1e41 00       		.byte	0
 4450 1e42 00       		.byte	0
 4451 1e43 0C       		.uleb128 0xc
 4452 1e44 98020000 		.4byte	.LASF376
 4453 1e48 0B       		.byte	0xb
 4454 1e49 1D01     		.2byte	0x11d
 4455 1e4b 191D0000 		.4byte	0x1d19
 4456 1e4f 19       		.uleb128 0x19
 4457 1e50 04       		.byte	0x4
 4458 1e51 0B       		.byte	0xb
 4459 1e52 2C01     		.2byte	0x12c
 4460 1e54 711E0000 		.4byte	0x1e71
 4461 1e58 1A       		.uleb128 0x1a
 4462 1e59 44080000 		.4byte	.LASF377
 4463 1e5d 0B       		.byte	0xb
ARM GAS  C:\Users\kiwamu\AppData\Local\Temp\ccE2Z6Jb.s 			page 105


 4464 1e5e 2E01     		.2byte	0x12e
 4465 1e60 C3000000 		.4byte	0xc3
 4466 1e64 1A       		.uleb128 0x1a
 4467 1e65 B60E0000 		.4byte	.LASF378
 4468 1e69 0B       		.byte	0xb
 4469 1e6a 2F01     		.2byte	0x12f
 4470 1e6c A91C0000 		.4byte	0x1ca9
 4471 1e70 00       		.byte	0
 4472 1e71 19       		.uleb128 0x19
 4473 1e72 04       		.byte	0x4
 4474 1e73 0B       		.byte	0xb
 4475 1e74 3101     		.2byte	0x131
 4476 1e76 931E0000 		.4byte	0x1e93
 4477 1e7a 1A       		.uleb128 0x1a
 4478 1e7b 1B060000 		.4byte	.LASF379
 4479 1e7f 0B       		.byte	0xb
 4480 1e80 3301     		.2byte	0x133
 4481 1e82 C3000000 		.4byte	0xc3
 4482 1e86 1A       		.uleb128 0x1a
 4483 1e87 710C0000 		.4byte	.LASF380
 4484 1e8b 0B       		.byte	0xb
 4485 1e8c 3401     		.2byte	0x134
 4486 1e8e 0D1D0000 		.4byte	0x1d0d
 4487 1e92 00       		.byte	0
 4488 1e93 19       		.uleb128 0x19
 4489 1e94 04       		.byte	0x4
 4490 1e95 0B       		.byte	0xb
 4491 1e96 3601     		.2byte	0x136
 4492 1e98 B51E0000 		.4byte	0x1eb5
 4493 1e9c 1A       		.uleb128 0x1a
 4494 1e9d 44010000 		.4byte	.LASF381
 4495 1ea1 0B       		.byte	0xb
 4496 1ea2 3801     		.2byte	0x138
 4497 1ea4 C3000000 		.4byte	0xc3
 4498 1ea8 1A       		.uleb128 0x1a
 4499 1ea9 D9090000 		.4byte	.LASF382
 4500 1ead 0B       		.byte	0xb
 4501 1eae 3901     		.2byte	0x139
 4502 1eb0 431E0000 		.4byte	0x1e43
 4503 1eb4 00       		.byte	0
 4504 1eb5 08       		.uleb128 0x8
 4505 1eb6 78       		.byte	0x78
 4506 1eb7 0B       		.byte	0xb
 4507 1eb8 2101     		.2byte	0x121
 4508 1eba 35200000 		.4byte	0x2035
 4509 1ebe 0A       		.uleb128 0xa
 4510 1ebf 723000   		.ascii	"r0\000"
 4511 1ec2 0B       		.byte	0xb
 4512 1ec3 2301     		.2byte	0x123
 4513 1ec5 C3000000 		.4byte	0xc3
 4514 1ec9 00       		.byte	0
 4515 1eca 0A       		.uleb128 0xa
 4516 1ecb 723100   		.ascii	"r1\000"
 4517 1ece 0B       		.byte	0xb
 4518 1ecf 2401     		.2byte	0x124
 4519 1ed1 C3000000 		.4byte	0xc3
 4520 1ed5 04       		.byte	0x4
ARM GAS  C:\Users\kiwamu\AppData\Local\Temp\ccE2Z6Jb.s 			page 106


 4521 1ed6 0A       		.uleb128 0xa
 4522 1ed7 723200   		.ascii	"r2\000"
 4523 1eda 0B       		.byte	0xb
 4524 1edb 2501     		.2byte	0x125
 4525 1edd C3000000 		.4byte	0xc3
 4526 1ee1 08       		.byte	0x8
 4527 1ee2 0A       		.uleb128 0xa
 4528 1ee3 723300   		.ascii	"r3\000"
 4529 1ee6 0B       		.byte	0xb
 4530 1ee7 2601     		.2byte	0x126
 4531 1ee9 C3000000 		.4byte	0xc3
 4532 1eed 0C       		.byte	0xc
 4533 1eee 0A       		.uleb128 0xa
 4534 1eef 72313200 		.ascii	"r12\000"
 4535 1ef3 0B       		.byte	0xb
 4536 1ef4 2701     		.2byte	0x127
 4537 1ef6 C3000000 		.4byte	0xc3
 4538 1efa 10       		.byte	0x10
 4539 1efb 0A       		.uleb128 0xa
 4540 1efc 6C7200   		.ascii	"lr\000"
 4541 1eff 0B       		.byte	0xb
 4542 1f00 2801     		.2byte	0x128
 4543 1f02 C3000000 		.4byte	0xc3
 4544 1f06 14       		.byte	0x14
 4545 1f07 0A       		.uleb128 0xa
 4546 1f08 706300   		.ascii	"pc\000"
 4547 1f0b 0B       		.byte	0xb
 4548 1f0c 2901     		.2byte	0x129
 4549 1f0e C3000000 		.4byte	0xc3
 4550 1f12 18       		.byte	0x18
 4551 1f13 0A       		.uleb128 0xa
 4552 1f14 70737200 		.ascii	"psr\000"
 4553 1f18 0B       		.byte	0xb
 4554 1f19 2A01     		.2byte	0x12a
 4555 1f1b C3000000 		.4byte	0xc3
 4556 1f1f 1C       		.byte	0x1c
 4557 1f20 09       		.uleb128 0x9
 4558 1f21 25130000 		.4byte	.LASF383
 4559 1f25 0B       		.byte	0xb
 4560 1f26 3001     		.2byte	0x130
 4561 1f28 4F1E0000 		.4byte	0x1e4f
 4562 1f2c 20       		.byte	0x20
 4563 1f2d 09       		.uleb128 0x9
 4564 1f2e CD100000 		.4byte	.LASF384
 4565 1f32 0B       		.byte	0xb
 4566 1f33 3501     		.2byte	0x135
 4567 1f35 711E0000 		.4byte	0x1e71
 4568 1f39 24       		.byte	0x24
 4569 1f3a 09       		.uleb128 0x9
 4570 1f3b DB100000 		.4byte	.LASF385
 4571 1f3f 0B       		.byte	0xb
 4572 1f40 3A01     		.2byte	0x13a
 4573 1f42 931E0000 		.4byte	0x1e93
 4574 1f46 28       		.byte	0x28
 4575 1f47 09       		.uleb128 0x9
 4576 1f48 A70E0000 		.4byte	.LASF386
 4577 1f4c 0B       		.byte	0xb
ARM GAS  C:\Users\kiwamu\AppData\Local\Temp\ccE2Z6Jb.s 			page 107


 4578 1f4d 3B01     		.2byte	0x13b
 4579 1f4f C3000000 		.4byte	0xc3
 4580 1f53 2C       		.byte	0x2c
 4581 1f54 09       		.uleb128 0x9
 4582 1f55 17010000 		.4byte	.LASF387
 4583 1f59 0B       		.byte	0xb
 4584 1f5a 3C01     		.2byte	0x13c
 4585 1f5c C3000000 		.4byte	0xc3
 4586 1f60 30       		.byte	0x30
 4587 1f61 0A       		.uleb128 0xa
 4588 1f62 733000   		.ascii	"s0\000"
 4589 1f65 0B       		.byte	0xb
 4590 1f66 3F01     		.2byte	0x13f
 4591 1f68 C3000000 		.4byte	0xc3
 4592 1f6c 34       		.byte	0x34
 4593 1f6d 0A       		.uleb128 0xa
 4594 1f6e 733100   		.ascii	"s1\000"
 4595 1f71 0B       		.byte	0xb
 4596 1f72 4001     		.2byte	0x140
 4597 1f74 C3000000 		.4byte	0xc3
 4598 1f78 38       		.byte	0x38
 4599 1f79 0A       		.uleb128 0xa
 4600 1f7a 733200   		.ascii	"s2\000"
 4601 1f7d 0B       		.byte	0xb
 4602 1f7e 4101     		.2byte	0x141
 4603 1f80 C3000000 		.4byte	0xc3
 4604 1f84 3C       		.byte	0x3c
 4605 1f85 0A       		.uleb128 0xa
 4606 1f86 733300   		.ascii	"s3\000"
 4607 1f89 0B       		.byte	0xb
 4608 1f8a 4201     		.2byte	0x142
 4609 1f8c C3000000 		.4byte	0xc3
 4610 1f90 40       		.byte	0x40
 4611 1f91 0A       		.uleb128 0xa
 4612 1f92 733400   		.ascii	"s4\000"
 4613 1f95 0B       		.byte	0xb
 4614 1f96 4301     		.2byte	0x143
 4615 1f98 C3000000 		.4byte	0xc3
 4616 1f9c 44       		.byte	0x44
 4617 1f9d 0A       		.uleb128 0xa
 4618 1f9e 733500   		.ascii	"s5\000"
 4619 1fa1 0B       		.byte	0xb
 4620 1fa2 4401     		.2byte	0x144
 4621 1fa4 C3000000 		.4byte	0xc3
 4622 1fa8 48       		.byte	0x48
 4623 1fa9 0A       		.uleb128 0xa
 4624 1faa 733600   		.ascii	"s6\000"
 4625 1fad 0B       		.byte	0xb
 4626 1fae 4501     		.2byte	0x145
 4627 1fb0 C3000000 		.4byte	0xc3
 4628 1fb4 4C       		.byte	0x4c
 4629 1fb5 0A       		.uleb128 0xa
 4630 1fb6 733700   		.ascii	"s7\000"
 4631 1fb9 0B       		.byte	0xb
 4632 1fba 4601     		.2byte	0x146
 4633 1fbc C3000000 		.4byte	0xc3
 4634 1fc0 50       		.byte	0x50
ARM GAS  C:\Users\kiwamu\AppData\Local\Temp\ccE2Z6Jb.s 			page 108


 4635 1fc1 0A       		.uleb128 0xa
 4636 1fc2 733800   		.ascii	"s8\000"
 4637 1fc5 0B       		.byte	0xb
 4638 1fc6 4701     		.2byte	0x147
 4639 1fc8 C3000000 		.4byte	0xc3
 4640 1fcc 54       		.byte	0x54
 4641 1fcd 0A       		.uleb128 0xa
 4642 1fce 733900   		.ascii	"s9\000"
 4643 1fd1 0B       		.byte	0xb
 4644 1fd2 4801     		.2byte	0x148
 4645 1fd4 C3000000 		.4byte	0xc3
 4646 1fd8 58       		.byte	0x58
 4647 1fd9 0A       		.uleb128 0xa
 4648 1fda 73313000 		.ascii	"s10\000"
 4649 1fde 0B       		.byte	0xb
 4650 1fdf 4901     		.2byte	0x149
 4651 1fe1 C3000000 		.4byte	0xc3
 4652 1fe5 5C       		.byte	0x5c
 4653 1fe6 0A       		.uleb128 0xa
 4654 1fe7 73313100 		.ascii	"s11\000"
 4655 1feb 0B       		.byte	0xb
 4656 1fec 4A01     		.2byte	0x14a
 4657 1fee C3000000 		.4byte	0xc3
 4658 1ff2 60       		.byte	0x60
 4659 1ff3 0A       		.uleb128 0xa
 4660 1ff4 73313200 		.ascii	"s12\000"
 4661 1ff8 0B       		.byte	0xb
 4662 1ff9 4B01     		.2byte	0x14b
 4663 1ffb C3000000 		.4byte	0xc3
 4664 1fff 64       		.byte	0x64
 4665 2000 0A       		.uleb128 0xa
 4666 2001 73313300 		.ascii	"s13\000"
 4667 2005 0B       		.byte	0xb
 4668 2006 4C01     		.2byte	0x14c
 4669 2008 C3000000 		.4byte	0xc3
 4670 200c 68       		.byte	0x68
 4671 200d 0A       		.uleb128 0xa
 4672 200e 73313400 		.ascii	"s14\000"
 4673 2012 0B       		.byte	0xb
 4674 2013 4D01     		.2byte	0x14d
 4675 2015 C3000000 		.4byte	0xc3
 4676 2019 6C       		.byte	0x6c
 4677 201a 0A       		.uleb128 0xa
 4678 201b 73313500 		.ascii	"s15\000"
 4679 201f 0B       		.byte	0xb
 4680 2020 4E01     		.2byte	0x14e
 4681 2022 C3000000 		.4byte	0xc3
 4682 2026 70       		.byte	0x70
 4683 2027 09       		.uleb128 0x9
 4684 2028 1E020000 		.4byte	.LASF388
 4685 202c 0B       		.byte	0xb
 4686 202d 4F01     		.2byte	0x14f
 4687 202f C3000000 		.4byte	0xc3
 4688 2033 74       		.byte	0x74
 4689 2034 00       		.byte	0
 4690 2035 0C       		.uleb128 0xc
 4691 2036 65000000 		.4byte	.LASF389
ARM GAS  C:\Users\kiwamu\AppData\Local\Temp\ccE2Z6Jb.s 			page 109


 4692 203a 0B       		.byte	0xb
 4693 203b 5201     		.2byte	0x152
 4694 203d B51E0000 		.4byte	0x1eb5
 4695 2041 0C       		.uleb128 0xc
 4696 2042 83110000 		.4byte	.LASF390
 4697 2046 0B       		.byte	0xb
 4698 2047 A401     		.2byte	0x1a4
 4699 2049 4D200000 		.4byte	0x204d
 4700 204d 02       		.uleb128 0x2
 4701 204e 01       		.byte	0x1
 4702 204f 08       		.byte	0x8
 4703 2050 830B0000 		.4byte	.LASF391
 4704 2054 02       		.uleb128 0x2
 4705 2055 04       		.byte	0x4
 4706 2056 04       		.byte	0x4
 4707 2057 4B060000 		.4byte	.LASF392
 4708 205b 02       		.uleb128 0x2
 4709 205c 08       		.byte	0x8
 4710 205d 04       		.byte	0x4
 4711 205e 03170000 		.4byte	.LASF393
 4712 2062 02       		.uleb128 0x2
 4713 2063 08       		.byte	0x8
 4714 2064 04       		.byte	0x4
 4715 2065 3B0F0000 		.4byte	.LASF394
 4716 2069 1B       		.uleb128 0x1b
 4717 206a EA0D0000 		.4byte	.LASF432
 4718 206e 02       		.byte	0x2
 4719 206f 7A02     		.2byte	0x27a
 4720 2071 C3000000 		.4byte	0xc3
 4721 2075 03       		.byte	0x3
 4722 2076 87200000 		.4byte	0x2087
 4723 207a 1C       		.uleb128 0x1c
 4724 207b 11070000 		.4byte	.LASF433
 4725 207f 02       		.byte	0x2
 4726 2080 7E02     		.2byte	0x27e
 4727 2082 C3000000 		.4byte	0xc3
 4728 2086 00       		.byte	0
 4729 2087 1D       		.uleb128 0x1d
 4730 2088 BB0D0000 		.4byte	.LASF395
 4731 208c 01       		.byte	0x1
 4732 208d 5502     		.2byte	0x255
 4733 208f 00000000 		.4byte	.LFB154
 4734 2093 84000000 		.4byte	.LFE154-.LFB154
 4735 2097 01       		.uleb128 0x1
 4736 2098 9C       		.byte	0x9c
 4737 2099 BC200000 		.4byte	0x20bc
 4738 209d 1E       		.uleb128 0x1e
 4739 209e 0F050000 		.4byte	.LASF397
 4740 20a2 01       		.byte	0x1
 4741 20a3 5502     		.2byte	0x255
 4742 20a5 C3000000 		.4byte	0xc3
 4743 20a9 01       		.uleb128 0x1
 4744 20aa 50       		.byte	0x50
 4745 20ab 1F       		.uleb128 0x1f
 4746 20ac CF0E0000 		.4byte	.LASF398
 4747 20b0 01       		.byte	0x1
 4748 20b1 5702     		.2byte	0x257
ARM GAS  C:\Users\kiwamu\AppData\Local\Temp\ccE2Z6Jb.s 			page 110


 4749 20b3 C3000000 		.4byte	0xc3
 4750 20b7 00000000 		.4byte	.LLST0
 4751 20bb 00       		.byte	0
 4752 20bc 1D       		.uleb128 0x1d
 4753 20bd ED130000 		.4byte	.LASF396
 4754 20c1 01       		.byte	0x1
 4755 20c2 A102     		.2byte	0x2a1
 4756 20c4 00000000 		.4byte	.LFB155
 4757 20c8 74000000 		.4byte	.LFE155-.LFB155
 4758 20cc 01       		.uleb128 0x1
 4759 20cd 9C       		.byte	0x9c
 4760 20ce F1200000 		.4byte	0x20f1
 4761 20d2 1E       		.uleb128 0x1e
 4762 20d3 0F050000 		.4byte	.LASF397
 4763 20d7 01       		.byte	0x1
 4764 20d8 A102     		.2byte	0x2a1
 4765 20da C3000000 		.4byte	0xc3
 4766 20de 01       		.uleb128 0x1
 4767 20df 50       		.byte	0x50
 4768 20e0 1F       		.uleb128 0x1f
 4769 20e1 CF0E0000 		.4byte	.LASF398
 4770 20e5 01       		.byte	0x1
 4771 20e6 A302     		.2byte	0x2a3
 4772 20e8 C3000000 		.4byte	0xc3
 4773 20ec 41000000 		.4byte	.LLST1
 4774 20f0 00       		.byte	0
 4775 20f1 20       		.uleb128 0x20
 4776 20f2 89060000 		.4byte	.LASF400
 4777 20f6 01       		.byte	0x1
 4778 20f7 5F       		.byte	0x5f
 4779 20f8 00000000 		.4byte	.LFB142
 4780 20fc 30000000 		.4byte	.LFE142-.LFB142
 4781 2100 01       		.uleb128 0x1
 4782 2101 9C       		.byte	0x9c
 4783 2102 28210000 		.4byte	0x2128
 4784 2106 21       		.uleb128 0x21
 4785 2107 8E000000 		.4byte	.LASF399
 4786 210b 01       		.byte	0x1
 4787 210c 5F       		.byte	0x5f
 4788 210d C3000000 		.4byte	0xc3
 4789 2111 82000000 		.4byte	.LLST2
 4790 2115 22       		.uleb128 0x22
 4791 2116 0E000000 		.4byte	.LVL14
 4792 211a C0230000 		.4byte	0x23c0
 4793 211e 22       		.uleb128 0x22
 4794 211f 24000000 		.4byte	.LVL16
 4795 2123 C0230000 		.4byte	0x23c0
 4796 2127 00       		.byte	0
 4797 2128 20       		.uleb128 0x20
 4798 2129 AB130000 		.4byte	.LASF401
 4799 212d 01       		.byte	0x1
 4800 212e 7E       		.byte	0x7e
 4801 212f 00000000 		.4byte	.LFB143
 4802 2133 14000000 		.4byte	.LFE143-.LFB143
 4803 2137 01       		.uleb128 0x1
 4804 2138 9C       		.byte	0x9c
 4805 2139 56210000 		.4byte	0x2156
ARM GAS  C:\Users\kiwamu\AppData\Local\Temp\ccE2Z6Jb.s 			page 111


 4806 213d 21       		.uleb128 0x21
 4807 213e 92140000 		.4byte	.LASF402
 4808 2142 01       		.byte	0x1
 4809 2143 7E       		.byte	0x7e
 4810 2144 AD000000 		.4byte	0xad
 4811 2148 A0000000 		.4byte	.LLST3
 4812 214c 22       		.uleb128 0x22
 4813 214d 0E000000 		.4byte	.LVL20
 4814 2151 C0230000 		.4byte	0x23c0
 4815 2155 00       		.byte	0
 4816 2156 23       		.uleb128 0x23
 4817 2157 62010000 		.4byte	.LASF407
 4818 215b 01       		.byte	0x1
 4819 215c 9D       		.byte	0x9d
 4820 215d 00000000 		.4byte	.LFB144
 4821 2161 04000000 		.4byte	.LFE144-.LFB144
 4822 2165 01       		.uleb128 0x1
 4823 2166 9C       		.byte	0x9c
 4824 2167 79210000 		.4byte	0x2179
 4825 216b 24       		.uleb128 0x24
 4826 216c 64070000 		.4byte	.LASF403
 4827 2170 01       		.byte	0x1
 4828 2171 9D       		.byte	0x9d
 4829 2172 C3000000 		.4byte	0xc3
 4830 2176 01       		.uleb128 0x1
 4831 2177 50       		.byte	0x50
 4832 2178 00       		.byte	0
 4833 2179 20       		.uleb128 0x20
 4834 217a 4C080000 		.4byte	.LASF404
 4835 217e 01       		.byte	0x1
 4836 217f C4       		.byte	0xc4
 4837 2180 00000000 		.4byte	.LFB145
 4838 2184 1C000000 		.4byte	.LFE145-.LFB145
 4839 2188 01       		.uleb128 0x1
 4840 2189 9C       		.byte	0x9c
 4841 218a DC210000 		.4byte	0x21dc
 4842 218e 21       		.uleb128 0x21
 4843 218f 2F0C0000 		.4byte	.LASF405
 4844 2193 01       		.byte	0x1
 4845 2194 C4       		.byte	0xc4
 4846 2195 DC210000 		.4byte	0x21dc
 4847 2199 C1000000 		.4byte	.LLST4
 4848 219d 21       		.uleb128 0x21
 4849 219e 51140000 		.4byte	.LASF406
 4850 21a2 01       		.byte	0x1
 4851 21a3 C4       		.byte	0xc4
 4852 21a4 C3000000 		.4byte	0xc3
 4853 21a8 ED000000 		.4byte	.LLST5
 4854 21ac 25       		.uleb128 0x25
 4855 21ad 10000000 		.4byte	.LVL25
 4856 21b1 CC230000 		.4byte	0x23cc
 4857 21b5 CC210000 		.4byte	0x21cc
 4858 21b9 26       		.uleb128 0x26
 4859 21ba 01       		.uleb128 0x1
 4860 21bb 50       		.byte	0x50
 4861 21bc 02       		.uleb128 0x2
 4862 21bd 74       		.byte	0x74
ARM GAS  C:\Users\kiwamu\AppData\Local\Temp\ccE2Z6Jb.s 			page 112


 4863 21be 00       		.sleb128 0
 4864 21bf 26       		.uleb128 0x26
 4865 21c0 01       		.uleb128 0x1
 4866 21c1 51       		.byte	0x51
 4867 21c2 03       		.uleb128 0x3
 4868 21c3 F3       		.byte	0xf3
 4869 21c4 01       		.uleb128 0x1
 4870 21c5 50       		.byte	0x50
 4871 21c6 26       		.uleb128 0x26
 4872 21c7 01       		.uleb128 0x1
 4873 21c8 52       		.byte	0x52
 4874 21c9 01       		.uleb128 0x1
 4875 21ca 48       		.byte	0x48
 4876 21cb 00       		.byte	0
 4877 21cc 27       		.uleb128 0x27
 4878 21cd 18000000 		.4byte	.LVL26
 4879 21d1 56210000 		.4byte	0x2156
 4880 21d5 26       		.uleb128 0x26
 4881 21d6 01       		.uleb128 0x1
 4882 21d7 50       		.byte	0x50
 4883 21d8 01       		.uleb128 0x1
 4884 21d9 30       		.byte	0x30
 4885 21da 00       		.byte	0
 4886 21db 00       		.byte	0
 4887 21dc 28       		.uleb128 0x28
 4888 21dd 04       		.byte	0x4
 4889 21de E2210000 		.4byte	0x21e2
 4890 21e2 0B       		.uleb128 0xb
 4891 21e3 41200000 		.4byte	0x2041
 4892 21e7 29       		.uleb128 0x29
 4893 21e8 A6090000 		.4byte	.LASF410
 4894 21ec 01       		.byte	0x1
 4895 21ed D9       		.byte	0xd9
 4896 21ee 00000000 		.4byte	.LFB146
 4897 21f2 0C000000 		.4byte	.LFE146-.LFB146
 4898 21f6 01       		.uleb128 0x1
 4899 21f7 9C       		.byte	0x9c
 4900 21f8 2A       		.uleb128 0x2a
 4901 21f9 32110000 		.4byte	.LASF434
 4902 21fd 01       		.byte	0x1
 4903 21fe F2       		.byte	0xf2
 4904 21ff 2D1B0000 		.4byte	0x1b2d
 4905 2203 00000000 		.4byte	.LFB147
 4906 2207 20000000 		.4byte	.LFE147-.LFB147
 4907 220b 01       		.uleb128 0x1
 4908 220c 9C       		.byte	0x9c
 4909 220d 2B       		.uleb128 0x2b
 4910 220e 72080000 		.4byte	.LASF408
 4911 2212 01       		.byte	0x1
 4912 2213 1A01     		.2byte	0x11a
 4913 2215 C3000000 		.4byte	0xc3
 4914 2219 00000000 		.4byte	.LFB148
 4915 221d 18000000 		.4byte	.LFE148-.LFB148
 4916 2221 01       		.uleb128 0x1
 4917 2222 9C       		.byte	0x9c
 4918 2223 36220000 		.4byte	0x2236
 4919 2227 2C       		.uleb128 0x2c
ARM GAS  C:\Users\kiwamu\AppData\Local\Temp\ccE2Z6Jb.s 			page 113


 4920 2228 FB120000 		.4byte	.LASF409
 4921 222c 01       		.byte	0x1
 4922 222d 1C01     		.2byte	0x11c
 4923 222f C3000000 		.4byte	0xc3
 4924 2233 01       		.uleb128 0x1
 4925 2234 50       		.byte	0x50
 4926 2235 00       		.byte	0
 4927 2236 2D       		.uleb128 0x2d
 4928 2237 D2130000 		.4byte	.LASF411
 4929 223b 01       		.byte	0x1
 4930 223c 5001     		.2byte	0x150
 4931 223e 00000000 		.4byte	.LFB149
 4932 2242 28000000 		.4byte	.LFE149-.LFB149
 4933 2246 01       		.uleb128 0x1
 4934 2247 9C       		.byte	0x9c
 4935 2248 2B       		.uleb128 0x2b
 4936 2249 E9020000 		.4byte	.LASF412
 4937 224d 01       		.byte	0x1
 4938 224e 9B01     		.2byte	0x19b
 4939 2250 CE000000 		.4byte	0xce
 4940 2254 00000000 		.4byte	.LFB150
 4941 2258 6E000000 		.4byte	.LFE150-.LFB150
 4942 225c 01       		.uleb128 0x1
 4943 225d 9C       		.byte	0x9c
 4944 225e 73220000 		.4byte	0x2273
 4945 2262 1F       		.uleb128 0x1f
 4946 2263 B6160000 		.4byte	.LASF413
 4947 2267 01       		.byte	0x1
 4948 2268 9D01     		.2byte	0x19d
 4949 226a CE000000 		.4byte	0xce
 4950 226e 0B010000 		.4byte	.LLST6
 4951 2272 00       		.byte	0
 4952 2273 2D       		.uleb128 0x2d
 4953 2274 150B0000 		.4byte	.LASF414
 4954 2278 01       		.byte	0x1
 4955 2279 0F02     		.2byte	0x20f
 4956 227b 00000000 		.4byte	.LFB152
 4957 227f 02000000 		.4byte	.LFE152-.LFB152
 4958 2283 01       		.uleb128 0x1
 4959 2284 9C       		.byte	0x9c
 4960 2285 2E       		.uleb128 0x2e
 4961 2286 BF160000 		.4byte	.LASF415
 4962 228a 01       		.byte	0x1
 4963 228b CB01     		.2byte	0x1cb
 4964 228d 00000000 		.4byte	.LFB151
 4965 2291 A4000000 		.4byte	.LFE151-.LFB151
 4966 2295 01       		.uleb128 0x1
 4967 2296 9C       		.byte	0x9c
 4968 2297 D9220000 		.4byte	0x22d9
 4969 229b 2F       		.uleb128 0x2f
 4970 229c 83140000 		.4byte	.LASF416
 4971 22a0 01       		.byte	0x1
 4972 22a1 CB01     		.2byte	0x1cb
 4973 22a3 D9220000 		.4byte	0x22d9
 4974 22a7 38010000 		.4byte	.LLST7
 4975 22ab 30       		.uleb128 0x30
 4976 22ac 69200000 		.4byte	0x2069
ARM GAS  C:\Users\kiwamu\AppData\Local\Temp\ccE2Z6Jb.s 			page 114


 4977 22b0 3A000000 		.4byte	.LBB4
 4978 22b4 04000000 		.4byte	.LBE4-.LBB4
 4979 22b8 01       		.byte	0x1
 4980 22b9 E601     		.2byte	0x1e6
 4981 22bb CF220000 		.4byte	0x22cf
 4982 22bf 31       		.uleb128 0x31
 4983 22c0 3A000000 		.4byte	.LBB5
 4984 22c4 04000000 		.4byte	.LBE5-.LBB5
 4985 22c8 32       		.uleb128 0x32
 4986 22c9 7A200000 		.4byte	0x207a
 4987 22cd 00       		.byte	0
 4988 22ce 00       		.byte	0
 4989 22cf 22       		.uleb128 0x22
 4990 22d0 98000000 		.4byte	.LVL32
 4991 22d4 73220000 		.4byte	0x2273
 4992 22d8 00       		.byte	0
 4993 22d9 28       		.uleb128 0x28
 4994 22da 04       		.byte	0x4
 4995 22db DF220000 		.4byte	0x22df
 4996 22df 0B       		.uleb128 0xb
 4997 22e0 C3000000 		.4byte	0xc3
 4998 22e4 2E       		.uleb128 0x2e
 4999 22e5 C9110000 		.4byte	.LASF417
 5000 22e9 01       		.byte	0x1
 5001 22ea 3C02     		.2byte	0x23c
 5002 22ec 00000000 		.4byte	.LFB153
 5003 22f0 14000000 		.4byte	.LFE153-.LFB153
 5004 22f4 01       		.uleb128 0x1
 5005 22f5 9C       		.byte	0x9c
 5006 22f6 41230000 		.4byte	0x2341
 5007 22fa 2F       		.uleb128 0x2f
 5008 22fb F6050000 		.4byte	.LASF418
 5009 22ff 01       		.byte	0x1
 5010 2300 3C02     		.2byte	0x23c
 5011 2302 41230000 		.4byte	0x2341
 5012 2306 59010000 		.4byte	.LLST8
 5013 230a 2F       		.uleb128 0x2f
 5014 230b 0F050000 		.4byte	.LASF397
 5015 230f 01       		.byte	0x1
 5016 2310 3C02     		.2byte	0x23c
 5017 2312 C3000000 		.4byte	0xc3
 5018 2316 93010000 		.4byte	.LLST9
 5019 231a 25       		.uleb128 0x25
 5020 231b 0A000000 		.4byte	.LVL35
 5021 231f BC200000 		.4byte	0x20bc
 5022 2323 2F230000 		.4byte	0x232f
 5023 2327 26       		.uleb128 0x26
 5024 2328 01       		.uleb128 0x1
 5025 2329 50       		.byte	0x50
 5026 232a 03       		.uleb128 0x3
 5027 232b F3       		.byte	0xf3
 5028 232c 01       		.uleb128 0x1
 5029 232d 51       		.byte	0x51
 5030 232e 00       		.byte	0
 5031 232f 27       		.uleb128 0x27
 5032 2330 12000000 		.4byte	.LVL38
 5033 2334 87200000 		.4byte	0x2087
ARM GAS  C:\Users\kiwamu\AppData\Local\Temp\ccE2Z6Jb.s 			page 115


 5034 2338 26       		.uleb128 0x26
 5035 2339 01       		.uleb128 0x1
 5036 233a 50       		.byte	0x50
 5037 233b 03       		.uleb128 0x3
 5038 233c F3       		.byte	0xf3
 5039 233d 01       		.uleb128 0x1
 5040 233e 51       		.byte	0x51
 5041 233f 00       		.byte	0
 5042 2340 00       		.byte	0
 5043 2341 02       		.uleb128 0x2
 5044 2342 01       		.byte	0x1
 5045 2343 02       		.byte	0x2
 5046 2344 41030000 		.4byte	.LASF419
 5047 2348 33       		.uleb128 0x33
 5048 2349 58000000 		.4byte	.LASF420
 5049 234d 05       		.byte	0x5
 5050 234e EA07     		.2byte	0x7ea
 5051 2350 54230000 		.4byte	0x2354
 5052 2354 07       		.uleb128 0x7
 5053 2355 B8000000 		.4byte	0xb8
 5054 2359 33       		.uleb128 0x33
 5055 235a FC0C0000 		.4byte	.LASF421
 5056 235e 0C       		.byte	0xc
 5057 235f C901     		.2byte	0x1c9
 5058 2361 C3000000 		.4byte	0xc3
 5059 2365 33       		.uleb128 0x33
 5060 2366 E90B0000 		.4byte	.LASF422
 5061 236a 0C       		.byte	0xc
 5062 236b CA01     		.2byte	0x1ca
 5063 236d A2000000 		.4byte	0xa2
 5064 2371 33       		.uleb128 0x33
 5065 2372 6B070000 		.4byte	.LASF423
 5066 2376 0C       		.byte	0xc
 5067 2377 CB01     		.2byte	0x1cb
 5068 2379 C3000000 		.4byte	0xc3
 5069 237d 05       		.uleb128 0x5
 5070 237e 41200000 		.4byte	0x2041
 5071 2382 8D230000 		.4byte	0x238d
 5072 2386 06       		.uleb128 0x6
 5073 2387 E9000000 		.4byte	0xe9
 5074 238b 17       		.byte	0x17
 5075 238c 00       		.byte	0
 5076 238d 34       		.uleb128 0x34
 5077 238e 53150000 		.4byte	.LASF424
 5078 2392 01       		.byte	0x1
 5079 2393 3F       		.byte	0x3f
 5080 2394 7D230000 		.4byte	0x237d
 5081 2398 05       		.uleb128 0x5
 5082 2399 03       		.byte	0x3
 5083 239a 00000000 		.4byte	cy_assertFileName
 5084 239e 34       		.uleb128 0x34
 5085 239f 69130000 		.4byte	.LASF425
 5086 23a3 01       		.byte	0x1
 5087 23a4 40       		.byte	0x40
 5088 23a5 C3000000 		.4byte	0xc3
 5089 23a9 05       		.uleb128 0x5
 5090 23aa 03       		.byte	0x3
ARM GAS  C:\Users\kiwamu\AppData\Local\Temp\ccE2Z6Jb.s 			page 116


 5091 23ab 00000000 		.4byte	cy_assertLine
 5092 23af 34       		.uleb128 0x34
 5093 23b0 3A0A0000 		.4byte	.LASF426
 5094 23b4 01       		.byte	0x1
 5095 23b5 44       		.byte	0x44
 5096 23b6 35200000 		.4byte	0x2035
 5097 23ba 05       		.uleb128 0x5
 5098 23bb 03       		.byte	0x3
 5099 23bc 00000000 		.4byte	cy_faultFrame
 5100 23c0 35       		.uleb128 0x35
 5101 23c1 CA170000 		.4byte	.LASF427
 5102 23c5 CA170000 		.4byte	.LASF427
 5103 23c9 0B       		.byte	0xb
 5104 23ca 0703     		.2byte	0x307
 5105 23cc 36       		.uleb128 0x36
 5106 23cd 5C070000 		.4byte	.LASF428
 5107 23d1 5C070000 		.4byte	.LASF428
 5108 23d5 0D       		.byte	0xd
 5109 23d6 24       		.byte	0x24
 5110 23d7 00       		.byte	0
 5111              		.section	.debug_abbrev,"",%progbits
 5112              	.Ldebug_abbrev0:
 5113 0000 01       		.uleb128 0x1
 5114 0001 11       		.uleb128 0x11
 5115 0002 01       		.byte	0x1
 5116 0003 25       		.uleb128 0x25
 5117 0004 0E       		.uleb128 0xe
 5118 0005 13       		.uleb128 0x13
 5119 0006 0B       		.uleb128 0xb
 5120 0007 03       		.uleb128 0x3
 5121 0008 0E       		.uleb128 0xe
 5122 0009 1B       		.uleb128 0x1b
 5123 000a 0E       		.uleb128 0xe
 5124 000b 55       		.uleb128 0x55
 5125 000c 17       		.uleb128 0x17
 5126 000d 11       		.uleb128 0x11
 5127 000e 01       		.uleb128 0x1
 5128 000f 10       		.uleb128 0x10
 5129 0010 17       		.uleb128 0x17
 5130 0011 00       		.byte	0
 5131 0012 00       		.byte	0
 5132 0013 02       		.uleb128 0x2
 5133 0014 24       		.uleb128 0x24
 5134 0015 00       		.byte	0
 5135 0016 0B       		.uleb128 0xb
 5136 0017 0B       		.uleb128 0xb
 5137 0018 3E       		.uleb128 0x3e
 5138 0019 0B       		.uleb128 0xb
 5139 001a 03       		.uleb128 0x3
 5140 001b 0E       		.uleb128 0xe
 5141 001c 00       		.byte	0
 5142 001d 00       		.byte	0
 5143 001e 03       		.uleb128 0x3
 5144 001f 16       		.uleb128 0x16
 5145 0020 00       		.byte	0
 5146 0021 03       		.uleb128 0x3
 5147 0022 0E       		.uleb128 0xe
ARM GAS  C:\Users\kiwamu\AppData\Local\Temp\ccE2Z6Jb.s 			page 117


 5148 0023 3A       		.uleb128 0x3a
 5149 0024 0B       		.uleb128 0xb
 5150 0025 3B       		.uleb128 0x3b
 5151 0026 0B       		.uleb128 0xb
 5152 0027 49       		.uleb128 0x49
 5153 0028 13       		.uleb128 0x13
 5154 0029 00       		.byte	0
 5155 002a 00       		.byte	0
 5156 002b 04       		.uleb128 0x4
 5157 002c 24       		.uleb128 0x24
 5158 002d 00       		.byte	0
 5159 002e 0B       		.uleb128 0xb
 5160 002f 0B       		.uleb128 0xb
 5161 0030 3E       		.uleb128 0x3e
 5162 0031 0B       		.uleb128 0xb
 5163 0032 03       		.uleb128 0x3
 5164 0033 08       		.uleb128 0x8
 5165 0034 00       		.byte	0
 5166 0035 00       		.byte	0
 5167 0036 05       		.uleb128 0x5
 5168 0037 01       		.uleb128 0x1
 5169 0038 01       		.byte	0x1
 5170 0039 49       		.uleb128 0x49
 5171 003a 13       		.uleb128 0x13
 5172 003b 01       		.uleb128 0x1
 5173 003c 13       		.uleb128 0x13
 5174 003d 00       		.byte	0
 5175 003e 00       		.byte	0
 5176 003f 06       		.uleb128 0x6
 5177 0040 21       		.uleb128 0x21
 5178 0041 00       		.byte	0
 5179 0042 49       		.uleb128 0x49
 5180 0043 13       		.uleb128 0x13
 5181 0044 2F       		.uleb128 0x2f
 5182 0045 0B       		.uleb128 0xb
 5183 0046 00       		.byte	0
 5184 0047 00       		.byte	0
 5185 0048 07       		.uleb128 0x7
 5186 0049 35       		.uleb128 0x35
 5187 004a 00       		.byte	0
 5188 004b 49       		.uleb128 0x49
 5189 004c 13       		.uleb128 0x13
 5190 004d 00       		.byte	0
 5191 004e 00       		.byte	0
 5192 004f 08       		.uleb128 0x8
 5193 0050 13       		.uleb128 0x13
 5194 0051 01       		.byte	0x1
 5195 0052 0B       		.uleb128 0xb
 5196 0053 0B       		.uleb128 0xb
 5197 0054 3A       		.uleb128 0x3a
 5198 0055 0B       		.uleb128 0xb
 5199 0056 3B       		.uleb128 0x3b
 5200 0057 05       		.uleb128 0x5
 5201 0058 01       		.uleb128 0x1
 5202 0059 13       		.uleb128 0x13
 5203 005a 00       		.byte	0
 5204 005b 00       		.byte	0
ARM GAS  C:\Users\kiwamu\AppData\Local\Temp\ccE2Z6Jb.s 			page 118


 5205 005c 09       		.uleb128 0x9
 5206 005d 0D       		.uleb128 0xd
 5207 005e 00       		.byte	0
 5208 005f 03       		.uleb128 0x3
 5209 0060 0E       		.uleb128 0xe
 5210 0061 3A       		.uleb128 0x3a
 5211 0062 0B       		.uleb128 0xb
 5212 0063 3B       		.uleb128 0x3b
 5213 0064 05       		.uleb128 0x5
 5214 0065 49       		.uleb128 0x49
 5215 0066 13       		.uleb128 0x13
 5216 0067 38       		.uleb128 0x38
 5217 0068 0B       		.uleb128 0xb
 5218 0069 00       		.byte	0
 5219 006a 00       		.byte	0
 5220 006b 0A       		.uleb128 0xa
 5221 006c 0D       		.uleb128 0xd
 5222 006d 00       		.byte	0
 5223 006e 03       		.uleb128 0x3
 5224 006f 08       		.uleb128 0x8
 5225 0070 3A       		.uleb128 0x3a
 5226 0071 0B       		.uleb128 0xb
 5227 0072 3B       		.uleb128 0x3b
 5228 0073 05       		.uleb128 0x5
 5229 0074 49       		.uleb128 0x49
 5230 0075 13       		.uleb128 0x13
 5231 0076 38       		.uleb128 0x38
 5232 0077 0B       		.uleb128 0xb
 5233 0078 00       		.byte	0
 5234 0079 00       		.byte	0
 5235 007a 0B       		.uleb128 0xb
 5236 007b 26       		.uleb128 0x26
 5237 007c 00       		.byte	0
 5238 007d 49       		.uleb128 0x49
 5239 007e 13       		.uleb128 0x13
 5240 007f 00       		.byte	0
 5241 0080 00       		.byte	0
 5242 0081 0C       		.uleb128 0xc
 5243 0082 16       		.uleb128 0x16
 5244 0083 00       		.byte	0
 5245 0084 03       		.uleb128 0x3
 5246 0085 0E       		.uleb128 0xe
 5247 0086 3A       		.uleb128 0x3a
 5248 0087 0B       		.uleb128 0xb
 5249 0088 3B       		.uleb128 0x3b
 5250 0089 05       		.uleb128 0x5
 5251 008a 49       		.uleb128 0x49
 5252 008b 13       		.uleb128 0x13
 5253 008c 00       		.byte	0
 5254 008d 00       		.byte	0
 5255 008e 0D       		.uleb128 0xd
 5256 008f 13       		.uleb128 0x13
 5257 0090 01       		.byte	0x1
 5258 0091 0B       		.uleb128 0xb
 5259 0092 05       		.uleb128 0x5
 5260 0093 3A       		.uleb128 0x3a
 5261 0094 0B       		.uleb128 0xb
ARM GAS  C:\Users\kiwamu\AppData\Local\Temp\ccE2Z6Jb.s 			page 119


 5262 0095 3B       		.uleb128 0x3b
 5263 0096 0B       		.uleb128 0xb
 5264 0097 01       		.uleb128 0x1
 5265 0098 13       		.uleb128 0x13
 5266 0099 00       		.byte	0
 5267 009a 00       		.byte	0
 5268 009b 0E       		.uleb128 0xe
 5269 009c 0D       		.uleb128 0xd
 5270 009d 00       		.byte	0
 5271 009e 03       		.uleb128 0x3
 5272 009f 0E       		.uleb128 0xe
 5273 00a0 3A       		.uleb128 0x3a
 5274 00a1 0B       		.uleb128 0xb
 5275 00a2 3B       		.uleb128 0x3b
 5276 00a3 0B       		.uleb128 0xb
 5277 00a4 49       		.uleb128 0x49
 5278 00a5 13       		.uleb128 0x13
 5279 00a6 38       		.uleb128 0x38
 5280 00a7 0B       		.uleb128 0xb
 5281 00a8 00       		.byte	0
 5282 00a9 00       		.byte	0
 5283 00aa 0F       		.uleb128 0xf
 5284 00ab 0D       		.uleb128 0xd
 5285 00ac 00       		.byte	0
 5286 00ad 03       		.uleb128 0x3
 5287 00ae 0E       		.uleb128 0xe
 5288 00af 3A       		.uleb128 0x3a
 5289 00b0 0B       		.uleb128 0xb
 5290 00b1 3B       		.uleb128 0x3b
 5291 00b2 0B       		.uleb128 0xb
 5292 00b3 49       		.uleb128 0x49
 5293 00b4 13       		.uleb128 0x13
 5294 00b5 38       		.uleb128 0x38
 5295 00b6 05       		.uleb128 0x5
 5296 00b7 00       		.byte	0
 5297 00b8 00       		.byte	0
 5298 00b9 10       		.uleb128 0x10
 5299 00ba 21       		.uleb128 0x21
 5300 00bb 00       		.byte	0
 5301 00bc 49       		.uleb128 0x49
 5302 00bd 13       		.uleb128 0x13
 5303 00be 2F       		.uleb128 0x2f
 5304 00bf 05       		.uleb128 0x5
 5305 00c0 00       		.byte	0
 5306 00c1 00       		.byte	0
 5307 00c2 11       		.uleb128 0x11
 5308 00c3 13       		.uleb128 0x13
 5309 00c4 01       		.byte	0x1
 5310 00c5 0B       		.uleb128 0xb
 5311 00c6 06       		.uleb128 0x6
 5312 00c7 3A       		.uleb128 0x3a
 5313 00c8 0B       		.uleb128 0xb
 5314 00c9 3B       		.uleb128 0x3b
 5315 00ca 0B       		.uleb128 0xb
 5316 00cb 01       		.uleb128 0x1
 5317 00cc 13       		.uleb128 0x13
 5318 00cd 00       		.byte	0
ARM GAS  C:\Users\kiwamu\AppData\Local\Temp\ccE2Z6Jb.s 			page 120


 5319 00ce 00       		.byte	0
 5320 00cf 12       		.uleb128 0x12
 5321 00d0 13       		.uleb128 0x13
 5322 00d1 01       		.byte	0x1
 5323 00d2 0B       		.uleb128 0xb
 5324 00d3 0B       		.uleb128 0xb
 5325 00d4 3A       		.uleb128 0x3a
 5326 00d5 0B       		.uleb128 0xb
 5327 00d6 3B       		.uleb128 0x3b
 5328 00d7 0B       		.uleb128 0xb
 5329 00d8 01       		.uleb128 0x1
 5330 00d9 13       		.uleb128 0x13
 5331 00da 00       		.byte	0
 5332 00db 00       		.byte	0
 5333 00dc 13       		.uleb128 0x13
 5334 00dd 0D       		.uleb128 0xd
 5335 00de 00       		.byte	0
 5336 00df 03       		.uleb128 0x3
 5337 00e0 08       		.uleb128 0x8
 5338 00e1 3A       		.uleb128 0x3a
 5339 00e2 0B       		.uleb128 0xb
 5340 00e3 3B       		.uleb128 0x3b
 5341 00e4 0B       		.uleb128 0xb
 5342 00e5 49       		.uleb128 0x49
 5343 00e6 13       		.uleb128 0x13
 5344 00e7 38       		.uleb128 0x38
 5345 00e8 0B       		.uleb128 0xb
 5346 00e9 00       		.byte	0
 5347 00ea 00       		.byte	0
 5348 00eb 14       		.uleb128 0x14
 5349 00ec 04       		.uleb128 0x4
 5350 00ed 01       		.byte	0x1
 5351 00ee 0B       		.uleb128 0xb
 5352 00ef 0B       		.uleb128 0xb
 5353 00f0 49       		.uleb128 0x49
 5354 00f1 13       		.uleb128 0x13
 5355 00f2 3A       		.uleb128 0x3a
 5356 00f3 0B       		.uleb128 0xb
 5357 00f4 3B       		.uleb128 0x3b
 5358 00f5 0B       		.uleb128 0xb
 5359 00f6 01       		.uleb128 0x1
 5360 00f7 13       		.uleb128 0x13
 5361 00f8 00       		.byte	0
 5362 00f9 00       		.byte	0
 5363 00fa 15       		.uleb128 0x15
 5364 00fb 28       		.uleb128 0x28
 5365 00fc 00       		.byte	0
 5366 00fd 03       		.uleb128 0x3
 5367 00fe 0E       		.uleb128 0xe
 5368 00ff 1C       		.uleb128 0x1c
 5369 0100 0B       		.uleb128 0xb
 5370 0101 00       		.byte	0
 5371 0102 00       		.byte	0
 5372 0103 16       		.uleb128 0x16
 5373 0104 28       		.uleb128 0x28
 5374 0105 00       		.byte	0
 5375 0106 03       		.uleb128 0x3
ARM GAS  C:\Users\kiwamu\AppData\Local\Temp\ccE2Z6Jb.s 			page 121


 5376 0107 0E       		.uleb128 0xe
 5377 0108 1C       		.uleb128 0x1c
 5378 0109 06       		.uleb128 0x6
 5379 010a 00       		.byte	0
 5380 010b 00       		.byte	0
 5381 010c 17       		.uleb128 0x17
 5382 010d 0D       		.uleb128 0xd
 5383 010e 00       		.byte	0
 5384 010f 03       		.uleb128 0x3
 5385 0110 0E       		.uleb128 0xe
 5386 0111 3A       		.uleb128 0x3a
 5387 0112 0B       		.uleb128 0xb
 5388 0113 3B       		.uleb128 0x3b
 5389 0114 0B       		.uleb128 0xb
 5390 0115 49       		.uleb128 0x49
 5391 0116 13       		.uleb128 0x13
 5392 0117 0B       		.uleb128 0xb
 5393 0118 0B       		.uleb128 0xb
 5394 0119 0D       		.uleb128 0xd
 5395 011a 0B       		.uleb128 0xb
 5396 011b 0C       		.uleb128 0xc
 5397 011c 0B       		.uleb128 0xb
 5398 011d 38       		.uleb128 0x38
 5399 011e 0B       		.uleb128 0xb
 5400 011f 00       		.byte	0
 5401 0120 00       		.byte	0
 5402 0121 18       		.uleb128 0x18
 5403 0122 0D       		.uleb128 0xd
 5404 0123 00       		.byte	0
 5405 0124 03       		.uleb128 0x3
 5406 0125 0E       		.uleb128 0xe
 5407 0126 3A       		.uleb128 0x3a
 5408 0127 0B       		.uleb128 0xb
 5409 0128 3B       		.uleb128 0x3b
 5410 0129 05       		.uleb128 0x5
 5411 012a 49       		.uleb128 0x49
 5412 012b 13       		.uleb128 0x13
 5413 012c 0B       		.uleb128 0xb
 5414 012d 0B       		.uleb128 0xb
 5415 012e 0D       		.uleb128 0xd
 5416 012f 0B       		.uleb128 0xb
 5417 0130 0C       		.uleb128 0xc
 5418 0131 0B       		.uleb128 0xb
 5419 0132 38       		.uleb128 0x38
 5420 0133 0B       		.uleb128 0xb
 5421 0134 00       		.byte	0
 5422 0135 00       		.byte	0
 5423 0136 19       		.uleb128 0x19
 5424 0137 17       		.uleb128 0x17
 5425 0138 01       		.byte	0x1
 5426 0139 0B       		.uleb128 0xb
 5427 013a 0B       		.uleb128 0xb
 5428 013b 3A       		.uleb128 0x3a
 5429 013c 0B       		.uleb128 0xb
 5430 013d 3B       		.uleb128 0x3b
 5431 013e 05       		.uleb128 0x5
 5432 013f 01       		.uleb128 0x1
ARM GAS  C:\Users\kiwamu\AppData\Local\Temp\ccE2Z6Jb.s 			page 122


 5433 0140 13       		.uleb128 0x13
 5434 0141 00       		.byte	0
 5435 0142 00       		.byte	0
 5436 0143 1A       		.uleb128 0x1a
 5437 0144 0D       		.uleb128 0xd
 5438 0145 00       		.byte	0
 5439 0146 03       		.uleb128 0x3
 5440 0147 0E       		.uleb128 0xe
 5441 0148 3A       		.uleb128 0x3a
 5442 0149 0B       		.uleb128 0xb
 5443 014a 3B       		.uleb128 0x3b
 5444 014b 05       		.uleb128 0x5
 5445 014c 49       		.uleb128 0x49
 5446 014d 13       		.uleb128 0x13
 5447 014e 00       		.byte	0
 5448 014f 00       		.byte	0
 5449 0150 1B       		.uleb128 0x1b
 5450 0151 2E       		.uleb128 0x2e
 5451 0152 01       		.byte	0x1
 5452 0153 03       		.uleb128 0x3
 5453 0154 0E       		.uleb128 0xe
 5454 0155 3A       		.uleb128 0x3a
 5455 0156 0B       		.uleb128 0xb
 5456 0157 3B       		.uleb128 0x3b
 5457 0158 05       		.uleb128 0x5
 5458 0159 27       		.uleb128 0x27
 5459 015a 19       		.uleb128 0x19
 5460 015b 49       		.uleb128 0x49
 5461 015c 13       		.uleb128 0x13
 5462 015d 20       		.uleb128 0x20
 5463 015e 0B       		.uleb128 0xb
 5464 015f 01       		.uleb128 0x1
 5465 0160 13       		.uleb128 0x13
 5466 0161 00       		.byte	0
 5467 0162 00       		.byte	0
 5468 0163 1C       		.uleb128 0x1c
 5469 0164 34       		.uleb128 0x34
 5470 0165 00       		.byte	0
 5471 0166 03       		.uleb128 0x3
 5472 0167 0E       		.uleb128 0xe
 5473 0168 3A       		.uleb128 0x3a
 5474 0169 0B       		.uleb128 0xb
 5475 016a 3B       		.uleb128 0x3b
 5476 016b 05       		.uleb128 0x5
 5477 016c 49       		.uleb128 0x49
 5478 016d 13       		.uleb128 0x13
 5479 016e 00       		.byte	0
 5480 016f 00       		.byte	0
 5481 0170 1D       		.uleb128 0x1d
 5482 0171 2E       		.uleb128 0x2e
 5483 0172 01       		.byte	0x1
 5484 0173 03       		.uleb128 0x3
 5485 0174 0E       		.uleb128 0xe
 5486 0175 3A       		.uleb128 0x3a
 5487 0176 0B       		.uleb128 0xb
 5488 0177 3B       		.uleb128 0x3b
 5489 0178 05       		.uleb128 0x5
ARM GAS  C:\Users\kiwamu\AppData\Local\Temp\ccE2Z6Jb.s 			page 123


 5490 0179 27       		.uleb128 0x27
 5491 017a 19       		.uleb128 0x19
 5492 017b 11       		.uleb128 0x11
 5493 017c 01       		.uleb128 0x1
 5494 017d 12       		.uleb128 0x12
 5495 017e 06       		.uleb128 0x6
 5496 017f 40       		.uleb128 0x40
 5497 0180 18       		.uleb128 0x18
 5498 0181 9742     		.uleb128 0x2117
 5499 0183 19       		.uleb128 0x19
 5500 0184 01       		.uleb128 0x1
 5501 0185 13       		.uleb128 0x13
 5502 0186 00       		.byte	0
 5503 0187 00       		.byte	0
 5504 0188 1E       		.uleb128 0x1e
 5505 0189 05       		.uleb128 0x5
 5506 018a 00       		.byte	0
 5507 018b 03       		.uleb128 0x3
 5508 018c 0E       		.uleb128 0xe
 5509 018d 3A       		.uleb128 0x3a
 5510 018e 0B       		.uleb128 0xb
 5511 018f 3B       		.uleb128 0x3b
 5512 0190 05       		.uleb128 0x5
 5513 0191 49       		.uleb128 0x49
 5514 0192 13       		.uleb128 0x13
 5515 0193 02       		.uleb128 0x2
 5516 0194 18       		.uleb128 0x18
 5517 0195 00       		.byte	0
 5518 0196 00       		.byte	0
 5519 0197 1F       		.uleb128 0x1f
 5520 0198 34       		.uleb128 0x34
 5521 0199 00       		.byte	0
 5522 019a 03       		.uleb128 0x3
 5523 019b 0E       		.uleb128 0xe
 5524 019c 3A       		.uleb128 0x3a
 5525 019d 0B       		.uleb128 0xb
 5526 019e 3B       		.uleb128 0x3b
 5527 019f 05       		.uleb128 0x5
 5528 01a0 49       		.uleb128 0x49
 5529 01a1 13       		.uleb128 0x13
 5530 01a2 02       		.uleb128 0x2
 5531 01a3 17       		.uleb128 0x17
 5532 01a4 00       		.byte	0
 5533 01a5 00       		.byte	0
 5534 01a6 20       		.uleb128 0x20
 5535 01a7 2E       		.uleb128 0x2e
 5536 01a8 01       		.byte	0x1
 5537 01a9 3F       		.uleb128 0x3f
 5538 01aa 19       		.uleb128 0x19
 5539 01ab 03       		.uleb128 0x3
 5540 01ac 0E       		.uleb128 0xe
 5541 01ad 3A       		.uleb128 0x3a
 5542 01ae 0B       		.uleb128 0xb
 5543 01af 3B       		.uleb128 0x3b
 5544 01b0 0B       		.uleb128 0xb
 5545 01b1 27       		.uleb128 0x27
 5546 01b2 19       		.uleb128 0x19
ARM GAS  C:\Users\kiwamu\AppData\Local\Temp\ccE2Z6Jb.s 			page 124


 5547 01b3 11       		.uleb128 0x11
 5548 01b4 01       		.uleb128 0x1
 5549 01b5 12       		.uleb128 0x12
 5550 01b6 06       		.uleb128 0x6
 5551 01b7 40       		.uleb128 0x40
 5552 01b8 18       		.uleb128 0x18
 5553 01b9 9742     		.uleb128 0x2117
 5554 01bb 19       		.uleb128 0x19
 5555 01bc 01       		.uleb128 0x1
 5556 01bd 13       		.uleb128 0x13
 5557 01be 00       		.byte	0
 5558 01bf 00       		.byte	0
 5559 01c0 21       		.uleb128 0x21
 5560 01c1 05       		.uleb128 0x5
 5561 01c2 00       		.byte	0
 5562 01c3 03       		.uleb128 0x3
 5563 01c4 0E       		.uleb128 0xe
 5564 01c5 3A       		.uleb128 0x3a
 5565 01c6 0B       		.uleb128 0xb
 5566 01c7 3B       		.uleb128 0x3b
 5567 01c8 0B       		.uleb128 0xb
 5568 01c9 49       		.uleb128 0x49
 5569 01ca 13       		.uleb128 0x13
 5570 01cb 02       		.uleb128 0x2
 5571 01cc 17       		.uleb128 0x17
 5572 01cd 00       		.byte	0
 5573 01ce 00       		.byte	0
 5574 01cf 22       		.uleb128 0x22
 5575 01d0 898201   		.uleb128 0x4109
 5576 01d3 00       		.byte	0
 5577 01d4 11       		.uleb128 0x11
 5578 01d5 01       		.uleb128 0x1
 5579 01d6 31       		.uleb128 0x31
 5580 01d7 13       		.uleb128 0x13
 5581 01d8 00       		.byte	0
 5582 01d9 00       		.byte	0
 5583 01da 23       		.uleb128 0x23
 5584 01db 2E       		.uleb128 0x2e
 5585 01dc 01       		.byte	0x1
 5586 01dd 3F       		.uleb128 0x3f
 5587 01de 19       		.uleb128 0x19
 5588 01df 03       		.uleb128 0x3
 5589 01e0 0E       		.uleb128 0xe
 5590 01e1 3A       		.uleb128 0x3a
 5591 01e2 0B       		.uleb128 0xb
 5592 01e3 3B       		.uleb128 0x3b
 5593 01e4 0B       		.uleb128 0xb
 5594 01e5 27       		.uleb128 0x27
 5595 01e6 19       		.uleb128 0x19
 5596 01e7 8701     		.uleb128 0x87
 5597 01e9 19       		.uleb128 0x19
 5598 01ea 11       		.uleb128 0x11
 5599 01eb 01       		.uleb128 0x1
 5600 01ec 12       		.uleb128 0x12
 5601 01ed 06       		.uleb128 0x6
 5602 01ee 40       		.uleb128 0x40
 5603 01ef 18       		.uleb128 0x18
ARM GAS  C:\Users\kiwamu\AppData\Local\Temp\ccE2Z6Jb.s 			page 125


 5604 01f0 9742     		.uleb128 0x2117
 5605 01f2 19       		.uleb128 0x19
 5606 01f3 01       		.uleb128 0x1
 5607 01f4 13       		.uleb128 0x13
 5608 01f5 00       		.byte	0
 5609 01f6 00       		.byte	0
 5610 01f7 24       		.uleb128 0x24
 5611 01f8 05       		.uleb128 0x5
 5612 01f9 00       		.byte	0
 5613 01fa 03       		.uleb128 0x3
 5614 01fb 0E       		.uleb128 0xe
 5615 01fc 3A       		.uleb128 0x3a
 5616 01fd 0B       		.uleb128 0xb
 5617 01fe 3B       		.uleb128 0x3b
 5618 01ff 0B       		.uleb128 0xb
 5619 0200 49       		.uleb128 0x49
 5620 0201 13       		.uleb128 0x13
 5621 0202 02       		.uleb128 0x2
 5622 0203 18       		.uleb128 0x18
 5623 0204 00       		.byte	0
 5624 0205 00       		.byte	0
 5625 0206 25       		.uleb128 0x25
 5626 0207 898201   		.uleb128 0x4109
 5627 020a 01       		.byte	0x1
 5628 020b 11       		.uleb128 0x11
 5629 020c 01       		.uleb128 0x1
 5630 020d 31       		.uleb128 0x31
 5631 020e 13       		.uleb128 0x13
 5632 020f 01       		.uleb128 0x1
 5633 0210 13       		.uleb128 0x13
 5634 0211 00       		.byte	0
 5635 0212 00       		.byte	0
 5636 0213 26       		.uleb128 0x26
 5637 0214 8A8201   		.uleb128 0x410a
 5638 0217 00       		.byte	0
 5639 0218 02       		.uleb128 0x2
 5640 0219 18       		.uleb128 0x18
 5641 021a 9142     		.uleb128 0x2111
 5642 021c 18       		.uleb128 0x18
 5643 021d 00       		.byte	0
 5644 021e 00       		.byte	0
 5645 021f 27       		.uleb128 0x27
 5646 0220 898201   		.uleb128 0x4109
 5647 0223 01       		.byte	0x1
 5648 0224 11       		.uleb128 0x11
 5649 0225 01       		.uleb128 0x1
 5650 0226 31       		.uleb128 0x31
 5651 0227 13       		.uleb128 0x13
 5652 0228 00       		.byte	0
 5653 0229 00       		.byte	0
 5654 022a 28       		.uleb128 0x28
 5655 022b 0F       		.uleb128 0xf
 5656 022c 00       		.byte	0
 5657 022d 0B       		.uleb128 0xb
 5658 022e 0B       		.uleb128 0xb
 5659 022f 49       		.uleb128 0x49
 5660 0230 13       		.uleb128 0x13
ARM GAS  C:\Users\kiwamu\AppData\Local\Temp\ccE2Z6Jb.s 			page 126


 5661 0231 00       		.byte	0
 5662 0232 00       		.byte	0
 5663 0233 29       		.uleb128 0x29
 5664 0234 2E       		.uleb128 0x2e
 5665 0235 00       		.byte	0
 5666 0236 3F       		.uleb128 0x3f
 5667 0237 19       		.uleb128 0x19
 5668 0238 03       		.uleb128 0x3
 5669 0239 0E       		.uleb128 0xe
 5670 023a 3A       		.uleb128 0x3a
 5671 023b 0B       		.uleb128 0xb
 5672 023c 3B       		.uleb128 0x3b
 5673 023d 0B       		.uleb128 0xb
 5674 023e 27       		.uleb128 0x27
 5675 023f 19       		.uleb128 0x19
 5676 0240 11       		.uleb128 0x11
 5677 0241 01       		.uleb128 0x1
 5678 0242 12       		.uleb128 0x12
 5679 0243 06       		.uleb128 0x6
 5680 0244 40       		.uleb128 0x40
 5681 0245 18       		.uleb128 0x18
 5682 0246 9742     		.uleb128 0x2117
 5683 0248 19       		.uleb128 0x19
 5684 0249 00       		.byte	0
 5685 024a 00       		.byte	0
 5686 024b 2A       		.uleb128 0x2a
 5687 024c 2E       		.uleb128 0x2e
 5688 024d 00       		.byte	0
 5689 024e 3F       		.uleb128 0x3f
 5690 024f 19       		.uleb128 0x19
 5691 0250 03       		.uleb128 0x3
 5692 0251 0E       		.uleb128 0xe
 5693 0252 3A       		.uleb128 0x3a
 5694 0253 0B       		.uleb128 0xb
 5695 0254 3B       		.uleb128 0x3b
 5696 0255 0B       		.uleb128 0xb
 5697 0256 27       		.uleb128 0x27
 5698 0257 19       		.uleb128 0x19
 5699 0258 49       		.uleb128 0x49
 5700 0259 13       		.uleb128 0x13
 5701 025a 11       		.uleb128 0x11
 5702 025b 01       		.uleb128 0x1
 5703 025c 12       		.uleb128 0x12
 5704 025d 06       		.uleb128 0x6
 5705 025e 40       		.uleb128 0x40
 5706 025f 18       		.uleb128 0x18
 5707 0260 9742     		.uleb128 0x2117
 5708 0262 19       		.uleb128 0x19
 5709 0263 00       		.byte	0
 5710 0264 00       		.byte	0
 5711 0265 2B       		.uleb128 0x2b
 5712 0266 2E       		.uleb128 0x2e
 5713 0267 01       		.byte	0x1
 5714 0268 3F       		.uleb128 0x3f
 5715 0269 19       		.uleb128 0x19
 5716 026a 03       		.uleb128 0x3
 5717 026b 0E       		.uleb128 0xe
ARM GAS  C:\Users\kiwamu\AppData\Local\Temp\ccE2Z6Jb.s 			page 127


 5718 026c 3A       		.uleb128 0x3a
 5719 026d 0B       		.uleb128 0xb
 5720 026e 3B       		.uleb128 0x3b
 5721 026f 05       		.uleb128 0x5
 5722 0270 27       		.uleb128 0x27
 5723 0271 19       		.uleb128 0x19
 5724 0272 49       		.uleb128 0x49
 5725 0273 13       		.uleb128 0x13
 5726 0274 11       		.uleb128 0x11
 5727 0275 01       		.uleb128 0x1
 5728 0276 12       		.uleb128 0x12
 5729 0277 06       		.uleb128 0x6
 5730 0278 40       		.uleb128 0x40
 5731 0279 18       		.uleb128 0x18
 5732 027a 9742     		.uleb128 0x2117
 5733 027c 19       		.uleb128 0x19
 5734 027d 01       		.uleb128 0x1
 5735 027e 13       		.uleb128 0x13
 5736 027f 00       		.byte	0
 5737 0280 00       		.byte	0
 5738 0281 2C       		.uleb128 0x2c
 5739 0282 34       		.uleb128 0x34
 5740 0283 00       		.byte	0
 5741 0284 03       		.uleb128 0x3
 5742 0285 0E       		.uleb128 0xe
 5743 0286 3A       		.uleb128 0x3a
 5744 0287 0B       		.uleb128 0xb
 5745 0288 3B       		.uleb128 0x3b
 5746 0289 05       		.uleb128 0x5
 5747 028a 49       		.uleb128 0x49
 5748 028b 13       		.uleb128 0x13
 5749 028c 02       		.uleb128 0x2
 5750 028d 18       		.uleb128 0x18
 5751 028e 00       		.byte	0
 5752 028f 00       		.byte	0
 5753 0290 2D       		.uleb128 0x2d
 5754 0291 2E       		.uleb128 0x2e
 5755 0292 00       		.byte	0
 5756 0293 3F       		.uleb128 0x3f
 5757 0294 19       		.uleb128 0x19
 5758 0295 03       		.uleb128 0x3
 5759 0296 0E       		.uleb128 0xe
 5760 0297 3A       		.uleb128 0x3a
 5761 0298 0B       		.uleb128 0xb
 5762 0299 3B       		.uleb128 0x3b
 5763 029a 05       		.uleb128 0x5
 5764 029b 27       		.uleb128 0x27
 5765 029c 19       		.uleb128 0x19
 5766 029d 11       		.uleb128 0x11
 5767 029e 01       		.uleb128 0x1
 5768 029f 12       		.uleb128 0x12
 5769 02a0 06       		.uleb128 0x6
 5770 02a1 40       		.uleb128 0x40
 5771 02a2 18       		.uleb128 0x18
 5772 02a3 9742     		.uleb128 0x2117
 5773 02a5 19       		.uleb128 0x19
 5774 02a6 00       		.byte	0
ARM GAS  C:\Users\kiwamu\AppData\Local\Temp\ccE2Z6Jb.s 			page 128


 5775 02a7 00       		.byte	0
 5776 02a8 2E       		.uleb128 0x2e
 5777 02a9 2E       		.uleb128 0x2e
 5778 02aa 01       		.byte	0x1
 5779 02ab 3F       		.uleb128 0x3f
 5780 02ac 19       		.uleb128 0x19
 5781 02ad 03       		.uleb128 0x3
 5782 02ae 0E       		.uleb128 0xe
 5783 02af 3A       		.uleb128 0x3a
 5784 02b0 0B       		.uleb128 0xb
 5785 02b1 3B       		.uleb128 0x3b
 5786 02b2 05       		.uleb128 0x5
 5787 02b3 27       		.uleb128 0x27
 5788 02b4 19       		.uleb128 0x19
 5789 02b5 11       		.uleb128 0x11
 5790 02b6 01       		.uleb128 0x1
 5791 02b7 12       		.uleb128 0x12
 5792 02b8 06       		.uleb128 0x6
 5793 02b9 40       		.uleb128 0x40
 5794 02ba 18       		.uleb128 0x18
 5795 02bb 9742     		.uleb128 0x2117
 5796 02bd 19       		.uleb128 0x19
 5797 02be 01       		.uleb128 0x1
 5798 02bf 13       		.uleb128 0x13
 5799 02c0 00       		.byte	0
 5800 02c1 00       		.byte	0
 5801 02c2 2F       		.uleb128 0x2f
 5802 02c3 05       		.uleb128 0x5
 5803 02c4 00       		.byte	0
 5804 02c5 03       		.uleb128 0x3
 5805 02c6 0E       		.uleb128 0xe
 5806 02c7 3A       		.uleb128 0x3a
 5807 02c8 0B       		.uleb128 0xb
 5808 02c9 3B       		.uleb128 0x3b
 5809 02ca 05       		.uleb128 0x5
 5810 02cb 49       		.uleb128 0x49
 5811 02cc 13       		.uleb128 0x13
 5812 02cd 02       		.uleb128 0x2
 5813 02ce 17       		.uleb128 0x17
 5814 02cf 00       		.byte	0
 5815 02d0 00       		.byte	0
 5816 02d1 30       		.uleb128 0x30
 5817 02d2 1D       		.uleb128 0x1d
 5818 02d3 01       		.byte	0x1
 5819 02d4 31       		.uleb128 0x31
 5820 02d5 13       		.uleb128 0x13
 5821 02d6 11       		.uleb128 0x11
 5822 02d7 01       		.uleb128 0x1
 5823 02d8 12       		.uleb128 0x12
 5824 02d9 06       		.uleb128 0x6
 5825 02da 58       		.uleb128 0x58
 5826 02db 0B       		.uleb128 0xb
 5827 02dc 59       		.uleb128 0x59
 5828 02dd 05       		.uleb128 0x5
 5829 02de 01       		.uleb128 0x1
 5830 02df 13       		.uleb128 0x13
 5831 02e0 00       		.byte	0
ARM GAS  C:\Users\kiwamu\AppData\Local\Temp\ccE2Z6Jb.s 			page 129


 5832 02e1 00       		.byte	0
 5833 02e2 31       		.uleb128 0x31
 5834 02e3 0B       		.uleb128 0xb
 5835 02e4 01       		.byte	0x1
 5836 02e5 11       		.uleb128 0x11
 5837 02e6 01       		.uleb128 0x1
 5838 02e7 12       		.uleb128 0x12
 5839 02e8 06       		.uleb128 0x6
 5840 02e9 00       		.byte	0
 5841 02ea 00       		.byte	0
 5842 02eb 32       		.uleb128 0x32
 5843 02ec 34       		.uleb128 0x34
 5844 02ed 00       		.byte	0
 5845 02ee 31       		.uleb128 0x31
 5846 02ef 13       		.uleb128 0x13
 5847 02f0 00       		.byte	0
 5848 02f1 00       		.byte	0
 5849 02f2 33       		.uleb128 0x33
 5850 02f3 34       		.uleb128 0x34
 5851 02f4 00       		.byte	0
 5852 02f5 03       		.uleb128 0x3
 5853 02f6 0E       		.uleb128 0xe
 5854 02f7 3A       		.uleb128 0x3a
 5855 02f8 0B       		.uleb128 0xb
 5856 02f9 3B       		.uleb128 0x3b
 5857 02fa 05       		.uleb128 0x5
 5858 02fb 49       		.uleb128 0x49
 5859 02fc 13       		.uleb128 0x13
 5860 02fd 3F       		.uleb128 0x3f
 5861 02fe 19       		.uleb128 0x19
 5862 02ff 3C       		.uleb128 0x3c
 5863 0300 19       		.uleb128 0x19
 5864 0301 00       		.byte	0
 5865 0302 00       		.byte	0
 5866 0303 34       		.uleb128 0x34
 5867 0304 34       		.uleb128 0x34
 5868 0305 00       		.byte	0
 5869 0306 03       		.uleb128 0x3
 5870 0307 0E       		.uleb128 0xe
 5871 0308 3A       		.uleb128 0x3a
 5872 0309 0B       		.uleb128 0xb
 5873 030a 3B       		.uleb128 0x3b
 5874 030b 0B       		.uleb128 0xb
 5875 030c 49       		.uleb128 0x49
 5876 030d 13       		.uleb128 0x13
 5877 030e 3F       		.uleb128 0x3f
 5878 030f 19       		.uleb128 0x19
 5879 0310 02       		.uleb128 0x2
 5880 0311 18       		.uleb128 0x18
 5881 0312 00       		.byte	0
 5882 0313 00       		.byte	0
 5883 0314 35       		.uleb128 0x35
 5884 0315 2E       		.uleb128 0x2e
 5885 0316 00       		.byte	0
 5886 0317 3F       		.uleb128 0x3f
 5887 0318 19       		.uleb128 0x19
 5888 0319 3C       		.uleb128 0x3c
ARM GAS  C:\Users\kiwamu\AppData\Local\Temp\ccE2Z6Jb.s 			page 130


 5889 031a 19       		.uleb128 0x19
 5890 031b 6E       		.uleb128 0x6e
 5891 031c 0E       		.uleb128 0xe
 5892 031d 03       		.uleb128 0x3
 5893 031e 0E       		.uleb128 0xe
 5894 031f 3A       		.uleb128 0x3a
 5895 0320 0B       		.uleb128 0xb
 5896 0321 3B       		.uleb128 0x3b
 5897 0322 05       		.uleb128 0x5
 5898 0323 00       		.byte	0
 5899 0324 00       		.byte	0
 5900 0325 36       		.uleb128 0x36
 5901 0326 2E       		.uleb128 0x2e
 5902 0327 00       		.byte	0
 5903 0328 3F       		.uleb128 0x3f
 5904 0329 19       		.uleb128 0x19
 5905 032a 3C       		.uleb128 0x3c
 5906 032b 19       		.uleb128 0x19
 5907 032c 6E       		.uleb128 0x6e
 5908 032d 0E       		.uleb128 0xe
 5909 032e 03       		.uleb128 0x3
 5910 032f 0E       		.uleb128 0xe
 5911 0330 3A       		.uleb128 0x3a
 5912 0331 0B       		.uleb128 0xb
 5913 0332 3B       		.uleb128 0x3b
 5914 0333 0B       		.uleb128 0xb
 5915 0334 00       		.byte	0
 5916 0335 00       		.byte	0
 5917 0336 00       		.byte	0
 5918              		.section	.debug_loc,"",%progbits
 5919              	.Ldebug_loc0:
 5920              	.LLST0:
 5921 0000 0A000000 		.4byte	.LVL1
 5922 0004 1A000000 		.4byte	.LVL2
 5923 0008 0100     		.2byte	0x1
 5924 000a 51       		.byte	0x51
 5925 000b 1A000000 		.4byte	.LVL2
 5926 000f 30000000 		.4byte	.LVL3
 5927 0013 0200     		.2byte	0x2
 5928 0015 30       		.byte	0x30
 5929 0016 9F       		.byte	0x9f
 5930 0017 30000000 		.4byte	.LVL3
 5931 001b 40000000 		.4byte	.LVL4
 5932 001f 0100     		.2byte	0x1
 5933 0021 51       		.byte	0x51
 5934 0022 40000000 		.4byte	.LVL4
 5935 0026 6E000000 		.4byte	.LVL5
 5936 002a 0200     		.2byte	0x2
 5937 002c 30       		.byte	0x30
 5938 002d 9F       		.byte	0x9f
 5939 002e 6E000000 		.4byte	.LVL5
 5940 0032 84000000 		.4byte	.LFE154
 5941 0036 0100     		.2byte	0x1
 5942 0038 51       		.byte	0x51
 5943 0039 00000000 		.4byte	0
 5944 003d 00000000 		.4byte	0
 5945              	.LLST1:
ARM GAS  C:\Users\kiwamu\AppData\Local\Temp\ccE2Z6Jb.s 			page 131


 5946 0041 0A000000 		.4byte	.LVL7
 5947 0045 1A000000 		.4byte	.LVL8
 5948 0049 0100     		.2byte	0x1
 5949 004b 51       		.byte	0x51
 5950 004c 1A000000 		.4byte	.LVL8
 5951 0050 30000000 		.4byte	.LVL9
 5952 0054 0200     		.2byte	0x2
 5953 0056 30       		.byte	0x30
 5954 0057 9F       		.byte	0x9f
 5955 0058 30000000 		.4byte	.LVL9
 5956 005c 40000000 		.4byte	.LVL10
 5957 0060 0100     		.2byte	0x1
 5958 0062 51       		.byte	0x51
 5959 0063 40000000 		.4byte	.LVL10
 5960 0067 5E000000 		.4byte	.LVL11
 5961 006b 0200     		.2byte	0x2
 5962 006d 30       		.byte	0x30
 5963 006e 9F       		.byte	0x9f
 5964 006f 5E000000 		.4byte	.LVL11
 5965 0073 74000000 		.4byte	.LFE155
 5966 0077 0100     		.2byte	0x1
 5967 0079 51       		.byte	0x51
 5968 007a 00000000 		.4byte	0
 5969 007e 00000000 		.4byte	0
 5970              	.LLST2:
 5971 0082 00000000 		.4byte	.LVL12
 5972 0086 06000000 		.4byte	.LVL13
 5973 008a 0100     		.2byte	0x1
 5974 008c 50       		.byte	0x50
 5975 008d 06000000 		.4byte	.LVL13
 5976 0091 26000000 		.4byte	.LVL17
 5977 0095 0100     		.2byte	0x1
 5978 0097 54       		.byte	0x54
 5979 0098 00000000 		.4byte	0
 5980 009c 00000000 		.4byte	0
 5981              	.LLST3:
 5982 00a0 00000000 		.4byte	.LVL18
 5983 00a4 0A000000 		.4byte	.LVL19
 5984 00a8 0100     		.2byte	0x1
 5985 00aa 50       		.byte	0x50
 5986 00ab 0A000000 		.4byte	.LVL19
 5987 00af 14000000 		.4byte	.LFE143
 5988 00b3 0400     		.2byte	0x4
 5989 00b5 F3       		.byte	0xf3
 5990 00b6 01       		.uleb128 0x1
 5991 00b7 50       		.byte	0x50
 5992 00b8 9F       		.byte	0x9f
 5993 00b9 00000000 		.4byte	0
 5994 00bd 00000000 		.4byte	0
 5995              	.LLST4:
 5996 00c1 00000000 		.4byte	.LVL22
 5997 00c5 0C000000 		.4byte	.LVL24
 5998 00c9 0100     		.2byte	0x1
 5999 00cb 50       		.byte	0x50
 6000 00cc 0C000000 		.4byte	.LVL24
 6001 00d0 0F000000 		.4byte	.LVL25-1
 6002 00d4 0100     		.2byte	0x1
ARM GAS  C:\Users\kiwamu\AppData\Local\Temp\ccE2Z6Jb.s 			page 132


 6003 00d6 51       		.byte	0x51
 6004 00d7 0F000000 		.4byte	.LVL25-1
 6005 00db 1C000000 		.4byte	.LFE145
 6006 00df 0400     		.2byte	0x4
 6007 00e1 F3       		.byte	0xf3
 6008 00e2 01       		.uleb128 0x1
 6009 00e3 50       		.byte	0x50
 6010 00e4 9F       		.byte	0x9f
 6011 00e5 00000000 		.4byte	0
 6012 00e9 00000000 		.4byte	0
 6013              	.LLST5:
 6014 00ed 00000000 		.4byte	.LVL22
 6015 00f1 0A000000 		.4byte	.LVL23
 6016 00f5 0100     		.2byte	0x1
 6017 00f7 51       		.byte	0x51
 6018 00f8 0A000000 		.4byte	.LVL23
 6019 00fc 1C000000 		.4byte	.LFE145
 6020 0100 0100     		.2byte	0x1
 6021 0102 55       		.byte	0x55
 6022 0103 00000000 		.4byte	0
 6023 0107 00000000 		.4byte	0
 6024              	.LLST6:
 6025 010b 62000000 		.4byte	.LVL29
 6026 010f 66000000 		.4byte	.LVL30
 6027 0113 0B00     		.2byte	0xb
 6028 0115 70       		.byte	0x70
 6029 0116 00       		.sleb128 0
 6030 0117 F7       		.byte	0xf7
 6031 0118 2C       		.uleb128 0x2c
 6032 0119 F7       		.byte	0xf7
 6033 011a 25       		.uleb128 0x25
 6034 011b F5       		.byte	0xf5
 6035 011c 02       		.uleb128 0x2
 6036 011d 25       		.uleb128 0x25
 6037 011e 21       		.byte	0x21
 6038 011f 9F       		.byte	0x9f
 6039 0120 66000000 		.4byte	.LVL30
 6040 0124 6E000000 		.4byte	.LFE150
 6041 0128 0600     		.2byte	0x6
 6042 012a 52       		.byte	0x52
 6043 012b 93       		.byte	0x93
 6044 012c 04       		.uleb128 0x4
 6045 012d 53       		.byte	0x53
 6046 012e 93       		.byte	0x93
 6047 012f 04       		.uleb128 0x4
 6048 0130 00000000 		.4byte	0
 6049 0134 00000000 		.4byte	0
 6050              	.LLST7:
 6051 0138 00000000 		.4byte	.LVL31
 6052 013c 97000000 		.4byte	.LVL32-1
 6053 0140 0100     		.2byte	0x1
 6054 0142 50       		.byte	0x50
 6055 0143 97000000 		.4byte	.LVL32-1
 6056 0147 A4000000 		.4byte	.LFE151
 6057 014b 0400     		.2byte	0x4
 6058 014d F3       		.byte	0xf3
 6059 014e 01       		.uleb128 0x1
ARM GAS  C:\Users\kiwamu\AppData\Local\Temp\ccE2Z6Jb.s 			page 133


 6060 014f 50       		.byte	0x50
 6061 0150 9F       		.byte	0x9f
 6062 0151 00000000 		.4byte	0
 6063 0155 00000000 		.4byte	0
 6064              	.LLST8:
 6065 0159 00000000 		.4byte	.LVL33
 6066 015d 06000000 		.4byte	.LVL34
 6067 0161 0100     		.2byte	0x1
 6068 0163 50       		.byte	0x50
 6069 0164 06000000 		.4byte	.LVL34
 6070 0168 0C000000 		.4byte	.LVL36
 6071 016c 0400     		.2byte	0x4
 6072 016e F3       		.byte	0xf3
 6073 016f 01       		.uleb128 0x1
 6074 0170 50       		.byte	0x50
 6075 0171 9F       		.byte	0x9f
 6076 0172 0C000000 		.4byte	.LVL36
 6077 0176 0E000000 		.4byte	.LVL37
 6078 017a 0100     		.2byte	0x1
 6079 017c 50       		.byte	0x50
 6080 017d 0E000000 		.4byte	.LVL37
 6081 0181 14000000 		.4byte	.LFE153
 6082 0185 0400     		.2byte	0x4
 6083 0187 F3       		.byte	0xf3
 6084 0188 01       		.uleb128 0x1
 6085 0189 50       		.byte	0x50
 6086 018a 9F       		.byte	0x9f
 6087 018b 00000000 		.4byte	0
 6088 018f 00000000 		.4byte	0
 6089              	.LLST9:
 6090 0193 00000000 		.4byte	.LVL33
 6091 0197 09000000 		.4byte	.LVL35-1
 6092 019b 0100     		.2byte	0x1
 6093 019d 51       		.byte	0x51
 6094 019e 09000000 		.4byte	.LVL35-1
 6095 01a2 0C000000 		.4byte	.LVL36
 6096 01a6 0400     		.2byte	0x4
 6097 01a8 F3       		.byte	0xf3
 6098 01a9 01       		.uleb128 0x1
 6099 01aa 51       		.byte	0x51
 6100 01ab 9F       		.byte	0x9f
 6101 01ac 0C000000 		.4byte	.LVL36
 6102 01b0 11000000 		.4byte	.LVL38-1
 6103 01b4 0100     		.2byte	0x1
 6104 01b6 51       		.byte	0x51
 6105 01b7 11000000 		.4byte	.LVL38-1
 6106 01bb 14000000 		.4byte	.LFE153
 6107 01bf 0400     		.2byte	0x4
 6108 01c1 F3       		.byte	0xf3
 6109 01c2 01       		.uleb128 0x1
 6110 01c3 51       		.byte	0x51
 6111 01c4 9F       		.byte	0x9f
 6112 01c5 00000000 		.4byte	0
 6113 01c9 00000000 		.4byte	0
 6114              		.section	.debug_aranges,"",%progbits
 6115 0000 84000000 		.4byte	0x84
 6116 0004 0200     		.2byte	0x2
ARM GAS  C:\Users\kiwamu\AppData\Local\Temp\ccE2Z6Jb.s 			page 134


 6117 0006 00000000 		.4byte	.Ldebug_info0
 6118 000a 04       		.byte	0x4
 6119 000b 00       		.byte	0
 6120 000c 0000     		.2byte	0
 6121 000e 0000     		.2byte	0
 6122 0010 00000000 		.4byte	.LFB154
 6123 0014 84000000 		.4byte	.LFE154-.LFB154
 6124 0018 00000000 		.4byte	.LFB155
 6125 001c 74000000 		.4byte	.LFE155-.LFB155
 6126 0020 00000000 		.4byte	.LFB142
 6127 0024 30000000 		.4byte	.LFE142-.LFB142
 6128 0028 00000000 		.4byte	.LFB143
 6129 002c 14000000 		.4byte	.LFE143-.LFB143
 6130 0030 00000000 		.4byte	.LFB144
 6131 0034 04000000 		.4byte	.LFE144-.LFB144
 6132 0038 00000000 		.4byte	.LFB145
 6133 003c 1C000000 		.4byte	.LFE145-.LFB145
 6134 0040 00000000 		.4byte	.LFB146
 6135 0044 0C000000 		.4byte	.LFE146-.LFB146
 6136 0048 00000000 		.4byte	.LFB147
 6137 004c 20000000 		.4byte	.LFE147-.LFB147
 6138 0050 00000000 		.4byte	.LFB148
 6139 0054 18000000 		.4byte	.LFE148-.LFB148
 6140 0058 00000000 		.4byte	.LFB149
 6141 005c 28000000 		.4byte	.LFE149-.LFB149
 6142 0060 00000000 		.4byte	.LFB150
 6143 0064 6E000000 		.4byte	.LFE150-.LFB150
 6144 0068 00000000 		.4byte	.LFB152
 6145 006c 02000000 		.4byte	.LFE152-.LFB152
 6146 0070 00000000 		.4byte	.LFB151
 6147 0074 A4000000 		.4byte	.LFE151-.LFB151
 6148 0078 00000000 		.4byte	.LFB153
 6149 007c 14000000 		.4byte	.LFE153-.LFB153
 6150 0080 00000000 		.4byte	0
 6151 0084 00000000 		.4byte	0
 6152              		.section	.debug_ranges,"",%progbits
 6153              	.Ldebug_ranges0:
 6154 0000 00000000 		.4byte	.LFB154
 6155 0004 84000000 		.4byte	.LFE154
 6156 0008 00000000 		.4byte	.LFB155
 6157 000c 74000000 		.4byte	.LFE155
 6158 0010 00000000 		.4byte	.LFB142
 6159 0014 30000000 		.4byte	.LFE142
 6160 0018 00000000 		.4byte	.LFB143
 6161 001c 14000000 		.4byte	.LFE143
 6162 0020 00000000 		.4byte	.LFB144
 6163 0024 04000000 		.4byte	.LFE144
 6164 0028 00000000 		.4byte	.LFB145
 6165 002c 1C000000 		.4byte	.LFE145
 6166 0030 00000000 		.4byte	.LFB146
 6167 0034 0C000000 		.4byte	.LFE146
 6168 0038 00000000 		.4byte	.LFB147
 6169 003c 20000000 		.4byte	.LFE147
 6170 0040 00000000 		.4byte	.LFB148
 6171 0044 18000000 		.4byte	.LFE148
 6172 0048 00000000 		.4byte	.LFB149
 6173 004c 28000000 		.4byte	.LFE149
ARM GAS  C:\Users\kiwamu\AppData\Local\Temp\ccE2Z6Jb.s 			page 135


 6174 0050 00000000 		.4byte	.LFB150
 6175 0054 6E000000 		.4byte	.LFE150
 6176 0058 00000000 		.4byte	.LFB152
 6177 005c 02000000 		.4byte	.LFE152
 6178 0060 00000000 		.4byte	.LFB151
 6179 0064 A4000000 		.4byte	.LFE151
 6180 0068 00000000 		.4byte	.LFB153
 6181 006c 14000000 		.4byte	.LFE153
 6182 0070 00000000 		.4byte	0
 6183 0074 00000000 		.4byte	0
 6184              		.section	.debug_line,"",%progbits
 6185              	.Ldebug_line0:
 6186 0000 20040000 		.section	.debug_str,"MS",%progbits,1
 6186      0200B002 
 6186      00000201 
 6186      FB0E0D00 
 6186      01010101 
 6187              	.LASF343:
 6188 0000 696D7072 		.ascii	"imprecisErr\000"
 6188      65636973 
 6188      45727200 
 6189              	.LASF326:
 6190 000c 4241434B 		.ascii	"BACKUP_Type\000"
 6190      55505F54 
 6190      79706500 
 6191              	.LASF374:
 6192 0018 62757346 		.ascii	"busFaultEna\000"
 6192      61756C74 
 6192      456E6100 
 6193              	.LASF355:
 6194 0024 64697642 		.ascii	"divByZero\000"
 6194      795A6572 
 6194      6F00
 6195              	.LASF311:
 6196 002e 53525353 		.ascii	"SRSS_Type\000"
 6196      5F547970 
 6196      6500
 6197              	.LASF116:
 6198 0038 52544F43 		.ascii	"RTOC2_FIRST_USER_APP_ADDR\000"
 6198      325F4649 
 6198      5253545F 
 6198      55534552 
 6198      5F415050 
 6199              	.LASF34:
 6200 0052 43504143 		.ascii	"CPACR\000"
 6200      5200
 6201              	.LASF420:
 6202 0058 49544D5F 		.ascii	"ITM_RxBuffer\000"
 6202      52784275 
 6202      66666572 
 6202      00
 6203              	.LASF389:
 6204 0065 63795F73 		.ascii	"cy_stc_fault_frame_t\000"
 6204      74635F66 
 6204      61756C74 
 6204      5F667261 
 6204      6D655F74 
ARM GAS  C:\Users\kiwamu\AppData\Local\Temp\ccE2Z6Jb.s 			page 136


 6205              	.LASF86:
 6206 007a 544F4331 		.ascii	"TOC1_UNIQUE_ID_ADDR\000"
 6206      5F554E49 
 6206      5155455F 
 6206      49445F41 
 6206      44445200 
 6207              	.LASF399:
 6208 008e 6D696C6C 		.ascii	"milliseconds\000"
 6208      69736563 
 6208      6F6E6473 
 6208      00
 6209              	.LASF91:
 6210 009b 52544F43 		.ascii	"RTOC1_OBJECT_SIZE\000"
 6210      315F4F42 
 6210      4A454354 
 6210      5F53495A 
 6210      4500
 6211              	.LASF59:
 6212 00ad 5354414E 		.ascii	"STANDARD_SMPU_STRUCT_SLAVE_ATTR\000"
 6212      44415244 
 6212      5F534D50 
 6212      555F5354 
 6212      52554354 
 6213              	.LASF315:
 6214 00cd 5254435F 		.ascii	"RTC_DATE\000"
 6214      44415445 
 6214      00
 6215              	.LASF365:
 6216 00d6 73764361 		.ascii	"svCallAct\000"
 6216      6C6C4163 
 6216      7400
 6217              	.LASF152:
 6218 00e0 44505F53 		.ascii	"DP_STATUS\000"
 6218      54415455 
 6218      5300
 6219              	.LASF105:
 6220 00ea 544F4332 		.ascii	"TOC2_FIRST_USER_APP_FORMAT\000"
 6220      5F464952 
 6220      53545F55 
 6220      5345525F 
 6220      4150505F 
 6221              	.LASF150:
 6222 0105 5544425F 		.ascii	"UDB_PWR_DELAY_CTL\000"
 6222      5057525F 
 6222      44454C41 
 6222      595F4354 
 6222      4C00
 6223              	.LASF387:
 6224 0117 62666172 		.ascii	"bfar\000"
 6224      00
 6225              	.LASF370:
 6226 011c 6D656D46 		.ascii	"memFaultPended\000"
 6226      61756C74 
 6226      50656E64 
 6226      656400
 6227              	.LASF248:
 6228 012b 464C4153 		.ascii	"FLASHC_Type\000"
ARM GAS  C:\Users\kiwamu\AppData\Local\Temp\ccE2Z6Jb.s 			page 137


 6228      48435F54 
 6228      79706500 
 6229              	.LASF238:
 6230 0137 4457305F 		.ascii	"DW0_BUFF_CTL\000"
 6230      42554646 
 6230      5F43544C 
 6230      00
 6231              	.LASF381:
 6232 0144 73686373 		.ascii	"shcsrReg\000"
 6232      72526567 
 6232      00
 6233              	.LASF95:
 6234 014d 52544F43 		.ascii	"RTOC1_UNIQUE_ID_ADDR\000"
 6234      315F554E 
 6234      49515545 
 6234      5F49445F 
 6234      41444452 
 6235              	.LASF407:
 6236 0162 43795F53 		.ascii	"Cy_SysLib_Halt\000"
 6236      79734C69 
 6236      625F4861 
 6236      6C7400
 6237              	.LASF56:
 6238 0171 44455649 		.ascii	"DEVICE_UID\000"
 6238      43455F55 
 6238      494400
 6239              	.LASF41:
 6240 017c 4449455F 		.ascii	"DIE_X\000"
 6240      5800
 6241              	.LASF42:
 6242 0182 4449455F 		.ascii	"DIE_Y\000"
 6242      5900
 6243              	.LASF289:
 6244 0188 434C4B5F 		.ascii	"CLK_FLL_STATUS\000"
 6244      464C4C5F 
 6244      53544154 
 6244      555300
 6245              	.LASF265:
 6246 0197 5057525F 		.ascii	"PWR_LVD_STATUS\000"
 6246      4C56445F 
 6246      53544154 
 6246      555300
 6247              	.LASF298:
 6248 01a6 5245535F 		.ascii	"RES_CAUSE2\000"
 6248      43415553 
 6248      453200
 6249              	.LASF112:
 6250 01b1 52544F43 		.ascii	"RTOC2_OBJECT_SIZE\000"
 6250      325F4F42 
 6250      4A454354 
 6250      5F53495A 
 6250      4500
 6251              	.LASF118:
 6252 01c3 52544F43 		.ascii	"RTOC2_SECOND_USER_APP_ADDR\000"
 6252      325F5345 
 6252      434F4E44 
 6252      5F555345 
ARM GAS  C:\Users\kiwamu\AppData\Local\Temp\ccE2Z6Jb.s 			page 138


 6252      525F4150 
 6253              	.LASF127:
 6254 01de 434D305F 		.ascii	"CM0_CLOCK_CTL\000"
 6254      434C4F43 
 6254      4B5F4354 
 6254      4C00
 6255              	.LASF294:
 6256 01ec 53525353 		.ascii	"SRSS_INTR_MASK\000"
 6256      5F494E54 
 6256      525F4D41 
 6256      534B00
 6257              	.LASF27:
 6258 01fb 44465352 		.ascii	"DFSR\000"
 6258      00
 6259              	.LASF179:
 6260 0200 464D5F41 		.ascii	"FM_ADDR\000"
 6260      44445200 
 6261              	.LASF162:
 6262 0208 434D345F 		.ascii	"CM4_VECTOR_TABLE_BASE\000"
 6262      56454354 
 6262      4F525F54 
 6262      41424C45 
 6262      5F424153 
 6263              	.LASF388:
 6264 021e 66707363 		.ascii	"fpscr\000"
 6264      7200
 6265              	.LASF101:
 6266 0224 544F4332 		.ascii	"TOC2_MAGIC_NUMBER\000"
 6266      5F4D4147 
 6266      49435F4E 
 6266      554D4245 
 6266      5200
 6267              	.LASF8:
 6268 0236 5F5F696E 		.ascii	"__int32_t\000"
 6268      7433325F 
 6268      7400
 6269              	.LASF430:
 6270 0240 47656E65 		.ascii	"Generated_Source\\PSoC6\\pdl\\drivers\\peripheral\\"
 6270      72617465 
 6270      645F536F 
 6270      75726365 
 6270      5C50536F 
 6271 026e 7379736C 		.ascii	"syslib\\cy_syslib.c\000"
 6271      69625C63 
 6271      795F7379 
 6271      736C6962 
 6271      2E6300
 6272              	.LASF276:
 6273 0281 434C4B5F 		.ascii	"CLK_ILO_CONFIG\000"
 6273      494C4F5F 
 6273      434F4E46 
 6273      494700
 6274              	.LASF338:
 6275 0290 6D6C7370 		.ascii	"mlspErr\000"
 6275      45727200 
 6276              	.LASF376:
 6277 0298 63795F73 		.ascii	"cy_stc_fault_shcsr_t\000"
ARM GAS  C:\Users\kiwamu\AppData\Local\Temp\ccE2Z6Jb.s 			page 139


 6277      74635F66 
 6277      61756C74 
 6277      5F736863 
 6277      73725F74 
 6278              	.LASF119:
 6279 02ad 52544F43 		.ascii	"RTOC2_SECOND_USER_APP_FORMAT\000"
 6279      325F5345 
 6279      434F4E44 
 6279      5F555345 
 6279      525F4150 
 6280              	.LASF287:
 6281 02ca 434C4B5F 		.ascii	"CLK_FLL_CONFIG3\000"
 6281      464C4C5F 
 6281      434F4E46 
 6281      49473300 
 6282              	.LASF282:
 6283 02da 434C4B5F 		.ascii	"CLK_ECO_CONFIG\000"
 6283      45434F5F 
 6283      434F4E46 
 6283      494700
 6284              	.LASF412:
 6285 02e9 43795F53 		.ascii	"Cy_SysLib_GetUniqueId\000"
 6285      79734C69 
 6285      625F4765 
 6285      74556E69 
 6285      71756549 
 6286              	.LASF366:
 6287 02ff 6D6F6E69 		.ascii	"monitorAct\000"
 6287      746F7241 
 6287      637400
 6288              	.LASF279:
 6289 030a 434C4B5F 		.ascii	"CLK_OUTPUT_SLOW\000"
 6289      4F555450 
 6289      55545F53 
 6289      4C4F5700 
 6290              	.LASF225:
 6291 031a 434D305F 		.ascii	"CM0_CA_CMD\000"
 6291      43415F43 
 6291      4D4400
 6292              	.LASF333:
 6293 0325 69616363 		.ascii	"iaccViol\000"
 6293      56696F6C 
 6293      00
 6294              	.LASF73:
 6295 032e 464C4153 		.ascii	"FLASH_BOOT_N_CORES\000"
 6295      485F424F 
 6295      4F545F4E 
 6295      5F434F52 
 6295      455300
 6296              	.LASF419:
 6297 0341 5F426F6F 		.ascii	"_Bool\000"
 6297      6C00
 6298              	.LASF274:
 6299 0347 434C4B5F 		.ascii	"CLK_SELECT\000"
 6299      53454C45 
 6299      435400
 6300              	.LASF174:
ARM GAS  C:\Users\kiwamu\AppData\Local\Temp\ccE2Z6Jb.s 			page 140


 6301 0352 5452494D 		.ascii	"TRIM_ROM_CTL\000"
 6301      5F524F4D 
 6301      5F43544C 
 6301      00
 6302              	.LASF113:
 6303 035f 52544F43 		.ascii	"RTOC2_MAGIC_NUMBER\000"
 6303      325F4D41 
 6303      4749435F 
 6303      4E554D42 
 6303      455200
 6304              	.LASF193:
 6305 0372 494E5452 		.ascii	"INTR_SET\000"
 6305      5F534554 
 6305      00
 6306              	.LASF121:
 6307 037b 52544F43 		.ascii	"RTOC2_SIGNATURE_VERIF_KEY\000"
 6307      325F5349 
 6307      474E4154 
 6307      5552455F 
 6307      56455249 
 6308              	.LASF156:
 6309 0395 44444654 		.ascii	"DDFT_CTL\000"
 6309      5F43544C 
 6309      00
 6310              	.LASF190:
 6311 039e 48565F43 		.ascii	"HV_CTL\000"
 6311      544C00
 6312              	.LASF181:
 6313 03a5 47454F4D 		.ascii	"GEOMETRY_SUPERVISORY\000"
 6313      45545259 
 6313      5F535550 
 6313      45525649 
 6313      534F5259 
 6314              	.LASF300:
 6315 03ba 5057525F 		.ascii	"PWR_TRIM_BODOVP_CTL\000"
 6315      5452494D 
 6315      5F424F44 
 6315      4F56505F 
 6315      43544C00 
 6316              	.LASF60:
 6317 03ce 5354414E 		.ascii	"STANDARD_SMPU_STRUCT_MASTER_ATTR\000"
 6317      44415244 
 6317      5F534D50 
 6317      555F5354 
 6317      52554354 
 6318              	.LASF362:
 6319 03ef 6D656D46 		.ascii	"memFaultAct\000"
 6319      61756C74 
 6319      41637400 
 6320              	.LASF354:
 6321 03fb 756E616C 		.ascii	"unaligned\000"
 6321      69676E65 
 6321      6400
 6322              	.LASF281:
 6323 0405 434C4B5F 		.ascii	"CLK_CAL_CNT2\000"
 6323      43414C5F 
 6323      434E5432 
ARM GAS  C:\Users\kiwamu\AppData\Local\Temp\ccE2Z6Jb.s 			page 141


 6323      00
 6324              	.LASF429:
 6325 0412 474E5520 		.ascii	"GNU C11 5.4.1 20160609 (release) [ARM/embedded-5-br"
 6325      43313120 
 6325      352E342E 
 6325      31203230 
 6325      31363036 
 6326 0445 616E6368 		.ascii	"anch revision 237715] -mcpu=cortex-m4 -mfloat-abi=s"
 6326      20726576 
 6326      6973696F 
 6326      6E203233 
 6326      37373135 
 6327 0478 6F667466 		.ascii	"oftfp -mfpu=fpv4-sp-d16 -mthumb -g -Og -ffunction-s"
 6327      70202D6D 
 6327      6670753D 
 6327      66707634 
 6327      2D73702D 
 6328 04ab 65637469 		.ascii	"ections -ffat-lto-objects\000"
 6328      6F6E7320 
 6328      2D666661 
 6328      742D6C74 
 6328      6F2D6F62 
 6329              	.LASF148:
 6330 04c5 524F4D5F 		.ascii	"ROM_CTL\000"
 6330      43544C00 
 6331              	.LASF208:
 6332 04cd 464D5F48 		.ascii	"FM_HV_DATA\000"
 6332      565F4441 
 6332      544100
 6333              	.LASF126:
 6334 04d8 434D305F 		.ascii	"CM0_STATUS\000"
 6334      53544154 
 6334      555300
 6335              	.LASF36:
 6336 04e3 52455345 		.ascii	"RESERVED\000"
 6336      52564544 
 6336      00
 6337              	.LASF348:
 6338 04ec 62666172 		.ascii	"bfarValid\000"
 6338      56616C69 
 6338      6400
 6339              	.LASF371:
 6340 04f6 62757346 		.ascii	"busFaultPended\000"
 6340      61756C74 
 6340      50656E64 
 6340      656400
 6341              	.LASF347:
 6342 0505 72657365 		.ascii	"reserved3\000"
 6342      72766564 
 6342      3300
 6343              	.LASF397:
 6344 050f 636C6B48 		.ascii	"clkHfMHz\000"
 6344      664D487A 
 6344      00
 6345              	.LASF356:
 6346 0518 72657365 		.ascii	"reserved5\000"
 6346      72766564 
ARM GAS  C:\Users\kiwamu\AppData\Local\Temp\ccE2Z6Jb.s 			page 142


 6346      3500
 6347              	.LASF187:
 6348 0522 57414954 		.ascii	"WAIT_CTL\000"
 6348      5F43544C 
 6348      00
 6349              	.LASF51:
 6350 052b 424C455F 		.ascii	"BLE_DEVICE_ADDRESS\000"
 6350      44455649 
 6350      43455F41 
 6350      44445245 
 6350      535300
 6351              	.LASF233:
 6352 053e 434D345F 		.ascii	"CM4_CA_STATUS0\000"
 6352      43415F53 
 6352      54415455 
 6352      533000
 6353              	.LASF234:
 6354 054d 434D345F 		.ascii	"CM4_CA_STATUS1\000"
 6354      43415F53 
 6354      54415455 
 6354      533100
 6355              	.LASF260:
 6356 055c 5057525F 		.ascii	"PWR_CTL\000"
 6356      43544C00 
 6357              	.LASF210:
 6358 0564 464C4153 		.ascii	"FLASHC_FM_CTL_Type\000"
 6358      48435F46 
 6358      4D5F4354 
 6358      4C5F5479 
 6358      706500
 6359              	.LASF303:
 6360 0577 5057525F 		.ascii	"PWR_TRIM_WAKE_CTL\000"
 6360      5452494D 
 6360      5F57414B 
 6360      455F4354 
 6360      4C00
 6361              	.LASF266:
 6362 0589 5057525F 		.ascii	"PWR_HIB_DATA\000"
 6362      4849425F 
 6362      44415441 
 6362      00
 6363              	.LASF83:
 6364 0596 544F4331 		.ascii	"TOC1_MAGIC_NUMBER\000"
 6364      5F4D4147 
 6364      49435F4E 
 6364      554D4245 
 6364      5200
 6365              	.LASF250:
 6366 05a8 4D435744 		.ascii	"MCWDT_CNTHIGH\000"
 6366      545F434E 
 6366      54484947 
 6366      4800
 6367              	.LASF259:
 6368 05b6 4D435744 		.ascii	"MCWDT_STRUCT_Type\000"
 6368      545F5354 
 6368      52554354 
 6368      5F547970 
ARM GAS  C:\Users\kiwamu\AppData\Local\Temp\ccE2Z6Jb.s 			page 143


 6368      6500
 6369              	.LASF344:
 6370 05c8 756E7374 		.ascii	"unstkErr\000"
 6370      6B457272 
 6370      00
 6371              	.LASF144:
 6372 05d1 52414D31 		.ascii	"RAM1_PWR_CTL\000"
 6372      5F505752 
 6372      5F43544C 
 6372      00
 6373              	.LASF235:
 6374 05de 434D345F 		.ascii	"CM4_CA_STATUS2\000"
 6374      43415F53 
 6374      54415455 
 6374      533200
 6375              	.LASF17:
 6376 05ed 75696E74 		.ascii	"uint32_t\000"
 6376      33325F74 
 6376      00
 6377              	.LASF418:
 6378 05f6 756C704D 		.ascii	"ulpMode\000"
 6378      6F646500 
 6379              	.LASF123:
 6380 05fe 52544F43 		.ascii	"RTOC2_CRC_ADDR\000"
 6380      325F4352 
 6380      435F4144 
 6380      445200
 6381              	.LASF43:
 6382 060d 4449455F 		.ascii	"DIE_SORT\000"
 6382      534F5254 
 6382      00
 6383              	.LASF31:
 6384 0616 4D4D4652 		.ascii	"MMFR\000"
 6384      00
 6385              	.LASF379:
 6386 061b 68667372 		.ascii	"hfsrReg\000"
 6386      52656700 
 6387              	.LASF192:
 6388 0623 494E5452 		.ascii	"INTR\000"
 6388      00
 6389              	.LASF305:
 6390 0628 434C4B5F 		.ascii	"CLK_TRIM_ILO_CTL\000"
 6390      5452494D 
 6390      5F494C4F 
 6390      5F43544C 
 6390      00
 6391              	.LASF257:
 6392 0639 4D435744 		.ascii	"MCWDT_INTR_MASKED\000"
 6392      545F494E 
 6392      54525F4D 
 6392      41534B45 
 6392      4400
 6393              	.LASF392:
 6394 064b 666C6F61 		.ascii	"float\000"
 6394      7400
 6395              	.LASF329:
 6396 0651 43595F53 		.ascii	"CY_SYSLIB_TIMEOUT\000"
ARM GAS  C:\Users\kiwamu\AppData\Local\Temp\ccE2Z6Jb.s 			page 144


 6396      59534C49 
 6396      425F5449 
 6396      4D454F55 
 6396      5400
 6397              	.LASF107:
 6398 0663 544F4332 		.ascii	"TOC2_SECOND_USER_APP_FORMAT\000"
 6398      5F534543 
 6398      4F4E445F 
 6398      55534552 
 6398      5F415050 
 6399              	.LASF211:
 6400 067f 464C4153 		.ascii	"FLASH_CTL\000"
 6400      485F4354 
 6400      4C00
 6401              	.LASF400:
 6402 0689 43795F53 		.ascii	"Cy_SysLib_Delay\000"
 6402      79734C69 
 6402      625F4465 
 6402      6C617900 
 6403              	.LASF124:
 6404 0699 53464C41 		.ascii	"SFLASH_Type\000"
 6404      53485F54 
 6404      79706500 
 6405              	.LASF244:
 6406 06a5 4558545F 		.ascii	"EXT_MS0_BUFF_CTL\000"
 6406      4D53305F 
 6406      42554646 
 6406      5F43544C 
 6406      00
 6407              	.LASF94:
 6408 06b6 52544F43 		.ascii	"RTOC1_SFLASH_GENERAL_TRIM_ADDR\000"
 6408      315F5346 
 6408      4C415348 
 6408      5F47454E 
 6408      4552414C 
 6409              	.LASF104:
 6410 06d5 544F4332 		.ascii	"TOC2_FIRST_USER_APP_ADDR\000"
 6410      5F464952 
 6410      53545F55 
 6410      5345525F 
 6410      4150505F 
 6411              	.LASF327:
 6412 06ee 43595F53 		.ascii	"CY_SYSLIB_SUCCESS\000"
 6412      59534C49 
 6412      425F5355 
 6412      43434553 
 6412      5300
 6413              	.LASF307:
 6414 0700 434C4B5F 		.ascii	"CLK_TRIM_ECO_CTL\000"
 6414      5452494D 
 6414      5F45434F 
 6414      5F43544C 
 6414      00
 6415              	.LASF433:
 6416 0711 72657375 		.ascii	"result\000"
 6416      6C7400
 6417              	.LASF304:
ARM GAS  C:\Users\kiwamu\AppData\Local\Temp\ccE2Z6Jb.s 			page 145


 6418 0718 5057525F 		.ascii	"PWR_TRIM_LVD_CTL\000"
 6418      5452494D 
 6418      5F4C5644 
 6418      5F43544C 
 6418      00
 6419              	.LASF142:
 6420 0729 52414D30 		.ascii	"RAM0_PWR_MACRO_CTL\000"
 6420      5F505752 
 6420      5F4D4143 
 6420      524F5F43 
 6420      544C00
 6421              	.LASF0:
 6422 073c 6C6F6E67 		.ascii	"long long unsigned int\000"
 6422      206C6F6E 
 6422      6720756E 
 6422      7369676E 
 6422      65642069 
 6423              	.LASF322:
 6424 0753 504D4943 		.ascii	"PMIC_CTL\000"
 6424      5F43544C 
 6424      00
 6425              	.LASF428:
 6426 075c 7374726E 		.ascii	"strncpy\000"
 6426      63707900 
 6427              	.LASF403:
 6428 0764 72656173 		.ascii	"reason\000"
 6428      6F6E00
 6429              	.LASF423:
 6430 076b 63795F64 		.ascii	"cy_delay32kMs\000"
 6430      656C6179 
 6430      33326B4D 
 6430      7300
 6431              	.LASF87:
 6432 0779 544F4331 		.ascii	"TOC1_FB_OBJECT_ADDR\000"
 6432      5F46425F 
 6432      4F424A45 
 6432      43545F41 
 6432      44445200 
 6433              	.LASF120:
 6434 078d 52544F43 		.ascii	"RTOC2_SCMAC_OBJECTS\000"
 6434      325F5343 
 6434      4D41435F 
 6434      4F424A45 
 6434      43545300 
 6435              	.LASF145:
 6436 07a1 52414D32 		.ascii	"RAM2_CTL0\000"
 6436      5F43544C 
 6436      3000
 6437              	.LASF431:
 6438 07ab 433A5C55 		.ascii	"C:\\Users\\kiwamu\\Downloads\\CE220465\\CE220465_PS"
 6438      73657273 
 6438      5C6B6977 
 6438      616D755C 
 6438      446F776E 
 6439 07d9 6F435F36 		.ascii	"oC_6_MCU_Cryptography_AES_Demonstration.cydsn\000"
 6439      5F4D4355 
 6439      5F437279 
ARM GAS  C:\Users\kiwamu\AppData\Local\Temp\ccE2Z6Jb.s 			page 146


 6439      70746F67 
 6439      72617068 
 6440              	.LASF6:
 6441 0807 5F5F7569 		.ascii	"__uint16_t\000"
 6441      6E743136 
 6441      5F7400
 6442              	.LASF264:
 6443 0812 5057525F 		.ascii	"PWR_BUCK_CTL2\000"
 6443      4255434B 
 6443      5F43544C 
 6443      3200
 6444              	.LASF70:
 6445 0820 464C4153 		.ascii	"FLASH_BOOT_OBJECT_SIZE\000"
 6445      485F424F 
 6445      4F545F4F 
 6445      424A4543 
 6445      545F5349 
 6446              	.LASF240:
 6447 0837 4457315F 		.ascii	"DW1_BUFF_CTL\000"
 6447      42554646 
 6447      5F43544C 
 6447      00
 6448              	.LASF377:
 6449 0844 63667372 		.ascii	"cfsrReg\000"
 6449      52656700 
 6450              	.LASF404:
 6451 084c 43795F53 		.ascii	"Cy_SysLib_AssertFailed\000"
 6451      79734C69 
 6451      625F4173 
 6451      73657274 
 6451      4661696C 
 6452              	.LASF285:
 6453 0863 434C4B5F 		.ascii	"CLK_FLL_CONFIG\000"
 6453      464C4C5F 
 6453      434F4E46 
 6453      494700
 6454              	.LASF408:
 6455 0872 43795F53 		.ascii	"Cy_SysLib_GetResetReason\000"
 6455      79734C69 
 6455      625F4765 
 6455      74526573 
 6455      65745265 
 6456              	.LASF316:
 6457 088b 414C4D31 		.ascii	"ALM1_TIME\000"
 6457      5F54494D 
 6457      4500
 6458              	.LASF176:
 6459 0895 43505553 		.ascii	"CPUSS_Type\000"
 6459      535F5479 
 6459      706500
 6460              	.LASF283:
 6461 08a0 434C4B5F 		.ascii	"CLK_ECO_STATUS\000"
 6461      45434F5F 
 6461      53544154 
 6461      555300
 6462              	.LASF199:
 6463 08af 43414C5F 		.ascii	"CAL_CTL2\000"
ARM GAS  C:\Users\kiwamu\AppData\Local\Temp\ccE2Z6Jb.s 			page 147


 6463      43544C32 
 6463      00
 6464              	.LASF45:
 6465 08b8 4449455F 		.ascii	"DIE_DAY\000"
 6465      44415900 
 6466              	.LASF103:
 6467 08c0 544F4332 		.ascii	"TOC2_SMIF_CFG_STRUCT_ADDR\000"
 6467      5F534D49 
 6467      465F4346 
 6467      475F5354 
 6467      52554354 
 6468              	.LASF191:
 6469 08da 41434C4B 		.ascii	"ACLK_CTL\000"
 6469      5F43544C 
 6469      00
 6470              	.LASF286:
 6471 08e3 434C4B5F 		.ascii	"CLK_FLL_CONFIG2\000"
 6471      464C4C5F 
 6471      434F4E46 
 6471      49473200 
 6472              	.LASF359:
 6473 08f3 666F7263 		.ascii	"forced\000"
 6473      656400
 6474              	.LASF288:
 6475 08fa 434C4B5F 		.ascii	"CLK_FLL_CONFIG4\000"
 6475      464C4C5F 
 6475      434F4E46 
 6475      49473400 
 6476              	.LASF280:
 6477 090a 434C4B5F 		.ascii	"CLK_CAL_CNT1\000"
 6477      43414C5F 
 6477      434E5431 
 6477      00
 6478              	.LASF37:
 6479 0917 53494C49 		.ascii	"SILICON_ID\000"
 6479      434F4E5F 
 6479      494400
 6480              	.LASF349:
 6481 0922 756E6465 		.ascii	"undefInstr\000"
 6481      66496E73 
 6481      747200
 6482              	.LASF62:
 6483 092d 5354414E 		.ascii	"STANDARD_PPU_STRUCT\000"
 6483      44415244 
 6483      5F505055 
 6483      5F535452 
 6483      55435400 
 6484              	.LASF20:
 6485 0941 43505549 		.ascii	"CPUID\000"
 6485      4400
 6486              	.LASF85:
 6487 0947 544F4331 		.ascii	"TOC1_SFLASH_GENERAL_TRIM_ADDR\000"
 6487      5F53464C 
 6487      4153485F 
 6487      47454E45 
 6487      52414C5F 
 6488              	.LASF226:
ARM GAS  C:\Users\kiwamu\AppData\Local\Temp\ccE2Z6Jb.s 			page 148


 6489 0965 434D305F 		.ascii	"CM0_CA_STATUS0\000"
 6489      43415F53 
 6489      54415455 
 6489      533000
 6490              	.LASF236:
 6491 0974 43525950 		.ascii	"CRYPTO_BUFF_CTL\000"
 6491      544F5F42 
 6491      5546465F 
 6491      43544C00 
 6492              	.LASF228:
 6493 0984 434D305F 		.ascii	"CM0_CA_STATUS2\000"
 6493      43415F53 
 6493      54415455 
 6493      533200
 6494              	.LASF314:
 6495 0993 5254435F 		.ascii	"RTC_TIME\000"
 6495      54494D45 
 6495      00
 6496              	.LASF141:
 6497 099c 52414D30 		.ascii	"RAM0_CTL0\000"
 6497      5F43544C 
 6497      3000
 6498              	.LASF410:
 6499 09a6 43795F53 		.ascii	"Cy_SysLib_ClearFlashCacheAndBuffer\000"
 6499      79734C69 
 6499      625F436C 
 6499      65617246 
 6499      6C617368 
 6500              	.LASF256:
 6501 09c9 4D435744 		.ascii	"MCWDT_INTR_MASK\000"
 6501      545F494E 
 6501      54525F4D 
 6501      41534B00 
 6502              	.LASF382:
 6503 09d9 73686373 		.ascii	"shcsrBits\000"
 6503      72426974 
 6503      7300
 6504              	.LASF317:
 6505 09e3 414C4D31 		.ascii	"ALM1_DATE\000"
 6505      5F444154 
 6505      4500
 6506              	.LASF100:
 6507 09ed 544F4332 		.ascii	"TOC2_OBJECT_SIZE\000"
 6507      5F4F424A 
 6507      4543545F 
 6507      53495A45 
 6507      00
 6508              	.LASF46:
 6509 09fe 4449455F 		.ascii	"DIE_MONTH\000"
 6509      4D4F4E54 
 6509      4800
 6510              	.LASF346:
 6511 0a08 6C737045 		.ascii	"lspErr\000"
 6511      727200
 6512              	.LASF164:
 6513 0a0f 434D305F 		.ascii	"CM0_PC0_HANDLER\000"
 6513      5043305F 
ARM GAS  C:\Users\kiwamu\AppData\Local\Temp\ccE2Z6Jb.s 			page 149


 6513      48414E44 
 6513      4C455200 
 6514              	.LASF364:
 6515 0a1f 75736746 		.ascii	"usgFaultAct\000"
 6515      61756C74 
 6515      41637400 
 6516              	.LASF291:
 6517 0a2b 434C4B5F 		.ascii	"CLK_PLL_STATUS\000"
 6517      504C4C5F 
 6517      53544154 
 6517      555300
 6518              	.LASF426:
 6519 0a3a 63795F66 		.ascii	"cy_faultFrame\000"
 6519      61756C74 
 6519      4672616D 
 6519      6500
 6520              	.LASF296:
 6521 0a48 53525353 		.ascii	"SRSS_INTR_CFG\000"
 6521      5F494E54 
 6521      525F4346 
 6521      4700
 6522              	.LASF321:
 6523 0a56 5449434B 		.ascii	"TICKS\000"
 6523      5300
 6524              	.LASF186:
 6525 0a5c 54455354 		.ascii	"TEST_CTL\000"
 6525      5F43544C 
 6525      00
 6526              	.LASF372:
 6527 0a65 73764361 		.ascii	"svCallPended\000"
 6527      6C6C5065 
 6527      6E646564 
 6527      00
 6528              	.LASF114:
 6529 0a72 52544F43 		.ascii	"RTOC2_KEY_BLOCK_ADDR\000"
 6529      325F4B45 
 6529      595F424C 
 6529      4F434B5F 
 6529      41444452 
 6530              	.LASF309:
 6531 0a87 434C4B5F 		.ascii	"CLK_TRIM_PILO_CTL2\000"
 6531      5452494D 
 6531      5F50494C 
 6531      4F5F4354 
 6531      4C3200
 6532              	.LASF310:
 6533 0a9a 434C4B5F 		.ascii	"CLK_TRIM_PILO_CTL3\000"
 6533      5452494D 
 6533      5F50494C 
 6533      4F5F4354 
 6533      4C3300
 6534              	.LASF345:
 6535 0aad 73746B45 		.ascii	"stkErr\000"
 6535      727200
 6536              	.LASF180:
 6537 0ab4 47454F4D 		.ascii	"GEOMETRY\000"
 6537      45545259 
ARM GAS  C:\Users\kiwamu\AppData\Local\Temp\ccE2Z6Jb.s 			page 150


 6537      00
 6538              	.LASF115:
 6539 0abd 52544F43 		.ascii	"RTOC2_SMIF_CFG_STRUCT_ADDR\000"
 6539      325F534D 
 6539      49465F43 
 6539      46475F53 
 6539      54525543 
 6540              	.LASF277:
 6541 0ad8 434C4B5F 		.ascii	"CLK_IMO_CONFIG\000"
 6541      494D4F5F 
 6541      434F4E46 
 6541      494700
 6542              	.LASF109:
 6543 0ae7 544F4332 		.ascii	"TOC2_SIGNATURE_VERIF_KEY\000"
 6543      5F534947 
 6543      4E415455 
 6543      52455F56 
 6543      45524946 
 6544              	.LASF96:
 6545 0b00 52544F43 		.ascii	"RTOC1_FB_OBJECT_ADDR\000"
 6545      315F4642 
 6545      5F4F424A 
 6545      4543545F 
 6545      41444452 
 6546              	.LASF414:
 6547 0b15 43795F53 		.ascii	"Cy_SysLib_ProcessingFault\000"
 6547      79734C69 
 6547      625F5072 
 6547      6F636573 
 6547      73696E67 
 6548              	.LASF207:
 6549 0b2f 544D5F43 		.ascii	"TM_CMPR\000"
 6549      4D505200 
 6550              	.LASF26:
 6551 0b37 48465352 		.ascii	"HFSR\000"
 6551      00
 6552              	.LASF301:
 6553 0b3c 434C4B5F 		.ascii	"CLK_TRIM_CCO_CTL\000"
 6553      5452494D 
 6553      5F43434F 
 6553      5F43544C 
 6553      00
 6554              	.LASF170:
 6555 0b4d 434D305F 		.ascii	"CM0_NMI_CTL\000"
 6555      4E4D495F 
 6555      43544C00 
 6556              	.LASF261:
 6557 0b59 5057525F 		.ascii	"PWR_HIBERNATE\000"
 6557      48494245 
 6557      524E4154 
 6557      4500
 6558              	.LASF149:
 6559 0b67 5544425F 		.ascii	"UDB_PWR_CTL\000"
 6559      5057525F 
 6559      43544C00 
 6560              	.LASF216:
 6561 0b73 42495354 		.ascii	"BIST_ADDR_START\000"
ARM GAS  C:\Users\kiwamu\AppData\Local\Temp\ccE2Z6Jb.s 			page 151


 6561      5F414444 
 6561      525F5354 
 6561      41525400 
 6562              	.LASF391:
 6563 0b83 63686172 		.ascii	"char\000"
 6563      00
 6564              	.LASF71:
 6565 0b88 464C4153 		.ascii	"FLASH_BOOT_APP_ID\000"
 6565      485F424F 
 6565      4F545F41 
 6565      50505F49 
 6565      4400
 6566              	.LASF139:
 6567 0b9a 434D345F 		.ascii	"CM4_CLOCK_CTL\000"
 6567      434C4F43 
 6567      4B5F4354 
 6567      4C00
 6568              	.LASF255:
 6569 0ba8 4D435744 		.ascii	"MCWDT_INTR_SET\000"
 6569      545F494E 
 6569      54525F53 
 6569      455400
 6570              	.LASF214:
 6571 0bb7 42495354 		.ascii	"BIST_CTL\000"
 6571      5F43544C 
 6571      00
 6572              	.LASF23:
 6573 0bc0 41495243 		.ascii	"AIRCR\000"
 6573      5200
 6574              	.LASF217:
 6575 0bc6 42495354 		.ascii	"BIST_DATA\000"
 6575      5F444154 
 6575      4100
 6576              	.LASF97:
 6577 0bd0 52544F43 		.ascii	"RTOC1_SYSCALL_TABLE_ADDR\000"
 6577      315F5359 
 6577      5343414C 
 6577      4C5F5441 
 6577      424C455F 
 6578              	.LASF422:
 6579 0be9 63795F64 		.ascii	"cy_delayFreqMhz\000"
 6579      656C6179 
 6579      46726571 
 6579      4D687A00 
 6580              	.LASF21:
 6581 0bf9 49435352 		.ascii	"ICSR\000"
 6581      00
 6582              	.LASF222:
 6583 0bfe 434D305F 		.ascii	"CM0_CA_CTL0\000"
 6583      43415F43 
 6583      544C3000 
 6584              	.LASF223:
 6585 0c0a 434D305F 		.ascii	"CM0_CA_CTL1\000"
 6585      43415F43 
 6585      544C3100 
 6586              	.LASF262:
 6587 0c16 5057525F 		.ascii	"PWR_LVD_CTL\000"
ARM GAS  C:\Users\kiwamu\AppData\Local\Temp\ccE2Z6Jb.s 			page 152


 6587      4C56445F 
 6587      43544C00 
 6588              	.LASF25:
 6589 0c22 43465352 		.ascii	"CFSR\000"
 6589      00
 6590              	.LASF268:
 6591 0c27 5744545F 		.ascii	"WDT_CNT\000"
 6591      434E5400 
 6592              	.LASF405:
 6593 0c2f 66696C65 		.ascii	"file\000"
 6593      00
 6594              	.LASF293:
 6595 0c34 53525353 		.ascii	"SRSS_INTR_SET\000"
 6595      5F494E54 
 6595      525F5345 
 6595      5400
 6596              	.LASF14:
 6597 0c42 75696E74 		.ascii	"uint8_t\000"
 6597      385F7400 
 6598              	.LASF275:
 6599 0c4a 434C4B5F 		.ascii	"CLK_TIMER_CTL\000"
 6599      54494D45 
 6599      525F4354 
 6599      4C00
 6600              	.LASF246:
 6601 0c58 4558545F 		.ascii	"EXT_MS1_BUFF_CTL\000"
 6601      4D53315F 
 6601      42554646 
 6601      5F43544C 
 6601      00
 6602              	.LASF358:
 6603 0c69 76656374 		.ascii	"vectTbl\000"
 6603      54626C00 
 6604              	.LASF380:
 6605 0c71 68667372 		.ascii	"hfsrBits\000"
 6605      42697473 
 6605      00
 6606              	.LASF324:
 6607 0c7a 42524547 		.ascii	"BREG\000"
 6607      00
 6608              	.LASF80:
 6609 0c7f 5055424C 		.ascii	"PUBLIC_KEY\000"
 6609      49435F4B 
 6609      455900
 6610              	.LASF168:
 6611 0c8a 50524F54 		.ascii	"PROTECTION\000"
 6611      45435449 
 6611      4F4E00
 6612              	.LASF269:
 6613 0c95 5744545F 		.ascii	"WDT_MATCH\000"
 6613      4D415443 
 6613      4800
 6614              	.LASF146:
 6615 0c9f 52414D32 		.ascii	"RAM2_PWR_CTL\000"
 6615      5F505752 
 6615      5F43544C 
 6615      00
ARM GAS  C:\Users\kiwamu\AppData\Local\Temp\ccE2Z6Jb.s 			page 153


 6616              	.LASF249:
 6617 0cac 4D435744 		.ascii	"MCWDT_CNTLOW\000"
 6617      545F434E 
 6617      544C4F57 
 6617      00
 6618              	.LASF12:
 6619 0cb9 6C6F6E67 		.ascii	"long long int\000"
 6619      206C6F6E 
 6619      6720696E 
 6619      7400
 6620              	.LASF242:
 6621 0cc7 4441505F 		.ascii	"DAP_BUFF_CTL\000"
 6621      42554646 
 6621      5F43544C 
 6621      00
 6622              	.LASF24:
 6623 0cd4 53484353 		.ascii	"SHCSR\000"
 6623      5200
 6624              	.LASF49:
 6625 0cda 4353505F 		.ascii	"CSP_PANEL_ID\000"
 6625      50414E45 
 6625      4C5F4944 
 6625      00
 6626              	.LASF202:
 6627 0ce7 5245445F 		.ascii	"RED_CTL01\000"
 6627      43544C30 
 6627      3100
 6628              	.LASF254:
 6629 0cf1 4D435744 		.ascii	"MCWDT_INTR\000"
 6629      545F494E 
 6629      545200
 6630              	.LASF421:
 6631 0cfc 63795F64 		.ascii	"cy_delayFreqKhz\000"
 6631      656C6179 
 6631      46726571 
 6631      4B687A00 
 6632              	.LASF220:
 6633 0d0c 42495354 		.ascii	"BIST_ADDR\000"
 6633      5F414444 
 6633      5200
 6634              	.LASF88:
 6635 0d16 544F4331 		.ascii	"TOC1_SYSCALL_TABLE_ADDR\000"
 6635      5F535953 
 6635      43414C4C 
 6635      5F544142 
 6635      4C455F41 
 6636              	.LASF137:
 6637 0d2e 434D345F 		.ascii	"CM4_PWR_DELAY_CTL\000"
 6637      5057525F 
 6637      44454C41 
 6637      595F4354 
 6637      4C00
 6638              	.LASF330:
 6639 0d40 43595F53 		.ascii	"CY_SYSLIB_INVALID_STATE\000"
 6639      59534C49 
 6639      425F494E 
 6639      56414C49 
ARM GAS  C:\Users\kiwamu\AppData\Local\Temp\ccE2Z6Jb.s 			page 154


 6639      445F5354 
 6640              	.LASF166:
 6641 0d58 4944454E 		.ascii	"IDENTITY\000"
 6641      54495459 
 6641      00
 6642              	.LASF196:
 6643 0d61 464D5F48 		.ascii	"FM_HV_DATA_ALL\000"
 6643      565F4441 
 6643      54415F41 
 6643      4C4C00
 6644              	.LASF230:
 6645 0d70 434D345F 		.ascii	"CM4_CA_CTL1\000"
 6645      43415F43 
 6645      544C3100 
 6646              	.LASF350:
 6647 0d7c 696E7653 		.ascii	"invState\000"
 6647      74617465 
 6647      00
 6648              	.LASF352:
 6649 0d85 6E6F4350 		.ascii	"noCP\000"
 6649      00
 6650              	.LASF75:
 6651 0d8a 464C4153 		.ascii	"FLASH_BOOT_CORE_CPUID\000"
 6651      485F424F 
 6651      4F545F43 
 6651      4F52455F 
 6651      43505549 
 6652              	.LASF188:
 6653 0da0 4D4F4E49 		.ascii	"MONITOR_STATUS\000"
 6653      544F525F 
 6653      53544154 
 6653      555300
 6654              	.LASF221:
 6655 0daf 42495354 		.ascii	"BIST_STATUS\000"
 6655      5F535441 
 6655      54555300 
 6656              	.LASF395:
 6657 0dbb 43795F53 		.ascii	"Cy_SysLib_SetWaitStates_LP\000"
 6657      79734C69 
 6657      625F5365 
 6657      74576169 
 6657      74537461 
 6658              	.LASF172:
 6659 0dd6 4D424953 		.ascii	"MBIST_STAT\000"
 6659      545F5354 
 6659      415400
 6660              	.LASF360:
 6661 0de1 64656275 		.ascii	"debugEvt\000"
 6661      67457674 
 6661      00
 6662              	.LASF432:
 6663 0dea 5F5F6765 		.ascii	"__get_FPSCR\000"
 6663      745F4650 
 6663      53435200 
 6664              	.LASF194:
 6665 0df6 494E5452 		.ascii	"INTR_MASK\000"
 6665      5F4D4153 
ARM GAS  C:\Users\kiwamu\AppData\Local\Temp\ccE2Z6Jb.s 			page 155


 6665      4B00
 6666              	.LASF74:
 6667 0e00 464C4153 		.ascii	"FLASH_BOOT_VT_OFFSET\000"
 6667      485F424F 
 6667      4F545F56 
 6667      545F4F46 
 6667      46534554 
 6668              	.LASF185:
 6669 0e15 47454F4D 		.ascii	"GEOMETRY_GEN\000"
 6669      45545259 
 6669      5F47454E 
 6669      00
 6670              	.LASF90:
 6671 0e22 544F4331 		.ascii	"TOC1_CRC_ADDR\000"
 6671      5F435243 
 6671      5F414444 
 6671      5200
 6672              	.LASF290:
 6673 0e30 434C4B5F 		.ascii	"CLK_PLL_CONFIG\000"
 6673      504C4C5F 
 6673      434F4E46 
 6673      494700
 6674              	.LASF342:
 6675 0e3f 70726563 		.ascii	"precisErr\000"
 6675      69734572 
 6675      7200
 6676              	.LASF363:
 6677 0e49 62757346 		.ascii	"busFaultAct\000"
 6677      61756C74 
 6677      41637400 
 6678              	.LASF4:
 6679 0e55 73686F72 		.ascii	"short int\000"
 6679      7420696E 
 6679      7400
 6680              	.LASF229:
 6681 0e5f 434D345F 		.ascii	"CM4_CA_CTL0\000"
 6681      43415F43 
 6681      544C3000 
 6682              	.LASF44:
 6683 0e6b 4449455F 		.ascii	"DIE_MINOR\000"
 6683      4D494E4F 
 6683      5200
 6684              	.LASF231:
 6685 0e75 434D345F 		.ascii	"CM4_CA_CTL2\000"
 6685      43415F43 
 6685      544C3200 
 6686              	.LASF239:
 6687 0e81 4457305F 		.ascii	"DW0_BUFF_CMD\000"
 6687      42554646 
 6687      5F434D44 
 6687      00
 6688              	.LASF47:
 6689 0e8e 4449455F 		.ascii	"DIE_YEAR\000"
 6689      59454152 
 6689      00
 6690              	.LASF284:
 6691 0e97 434C4B5F 		.ascii	"CLK_PILO_CONFIG\000"
ARM GAS  C:\Users\kiwamu\AppData\Local\Temp\ccE2Z6Jb.s 			page 156


 6691      50494C4F 
 6691      5F434F4E 
 6691      46494700 
 6692              	.LASF386:
 6693 0ea7 6D6D6661 		.ascii	"mmfar\000"
 6693      7200
 6694              	.LASF197:
 6695 0ead 43414C5F 		.ascii	"CAL_CTL0\000"
 6695      43544C30 
 6695      00
 6696              	.LASF378:
 6697 0eb6 63667372 		.ascii	"cfsrBits\000"
 6697      42697473 
 6697      00
 6698              	.LASF278:
 6699 0ebf 434C4B5F 		.ascii	"CLK_OUTPUT_FAST\000"
 6699      4F555450 
 6699      55545F46 
 6699      41535400 
 6700              	.LASF398:
 6701 0ecf 77616974 		.ascii	"waitStates\000"
 6701      53746174 
 6701      657300
 6702              	.LASF213:
 6703 0eda 464C4153 		.ascii	"FLASH_CMD\000"
 6703      485F434D 
 6703      4400
 6704              	.LASF136:
 6705 0ee4 434D345F 		.ascii	"CM4_PWR_CTL\000"
 6705      5057525F 
 6705      43544C00 
 6706              	.LASF328:
 6707 0ef0 43595F53 		.ascii	"CY_SYSLIB_BAD_PARAM\000"
 6707      59534C49 
 6707      425F4241 
 6707      445F5041 
 6707      52414D00 
 6708              	.LASF175:
 6709 0f04 5452494D 		.ascii	"TRIM_RAM_CTL\000"
 6709      5F52414D 
 6709      5F43544C 
 6709      00
 6710              	.LASF13:
 6711 0f11 5F5F7569 		.ascii	"__uint64_t\000"
 6711      6E743634 
 6711      5F7400
 6712              	.LASF258:
 6713 0f1c 4D435744 		.ascii	"MCWDT_LOCK\000"
 6713      545F4C4F 
 6713      434B00
 6714              	.LASF232:
 6715 0f27 434D345F 		.ascii	"CM4_CA_CMD\000"
 6715      43415F43 
 6715      4D4400
 6716              	.LASF215:
 6717 0f32 42495354 		.ascii	"BIST_CMD\000"
 6717      5F434D44 
ARM GAS  C:\Users\kiwamu\AppData\Local\Temp\ccE2Z6Jb.s 			page 157


 6717      00
 6718              	.LASF394:
 6719 0f3b 6C6F6E67 		.ascii	"long double\000"
 6719      20646F75 
 6719      626C6500 
 6720              	.LASF15:
 6721 0f47 75696E74 		.ascii	"uint16_t\000"
 6721      31365F74 
 6721      00
 6722              	.LASF58:
 6723 0f50 5354414E 		.ascii	"STANDARD_SMPU_STRUCT_SLAVE_ADDR\000"
 6723      44415244 
 6723      5F534D50 
 6723      555F5354 
 6723      52554354 
 6724              	.LASF64:
 6725 0f70 50494C4F 		.ascii	"PILO_FREQ_STEP\000"
 6725      5F465245 
 6725      515F5354 
 6725      455000
 6726              	.LASF203:
 6727 0f7f 5245445F 		.ascii	"RED_CTL23\000"
 6727      43544C32 
 6727      3300
 6728              	.LASF312:
 6729 0f89 5254435F 		.ascii	"RTC_RW\000"
 6729      525700
 6730              	.LASF40:
 6731 0f90 4449455F 		.ascii	"DIE_WAFER\000"
 6731      57414645 
 6731      5200
 6732              	.LASF61:
 6733 0f9a 5354414E 		.ascii	"STANDARD_MPU_STRUCT\000"
 6733      44415244 
 6733      5F4D5055 
 6733      5F535452 
 6733      55435400 
 6734              	.LASF273:
 6735 0fae 434C4B5F 		.ascii	"CLK_ROOT_SELECT\000"
 6735      524F4F54 
 6735      5F53454C 
 6735      45435400 
 6736              	.LASF375:
 6737 0fbe 75736746 		.ascii	"usgFaultEna\000"
 6737      61756C74 
 6737      456E6100 
 6738              	.LASF72:
 6739 0fca 464C4153 		.ascii	"FLASH_BOOT_ATTRIBUTE\000"
 6739      485F424F 
 6739      4F545F41 
 6739      54545249 
 6739      42555445 
 6740              	.LASF198:
 6741 0fdf 43414C5F 		.ascii	"CAL_CTL1\000"
 6741      43544C31 
 6741      00
 6742              	.LASF28:
ARM GAS  C:\Users\kiwamu\AppData\Local\Temp\ccE2Z6Jb.s 			page 158


 6743 0fe8 4D4D4641 		.ascii	"MMFAR\000"
 6743      5200
 6744              	.LASF200:
 6745 0fee 43414C5F 		.ascii	"CAL_CTL3\000"
 6745      43544C33 
 6745      00
 6746              	.LASF369:
 6747 0ff7 75736746 		.ascii	"usgFaultPended\000"
 6747      61756C74 
 6747      50656E64 
 6747      656400
 6748              	.LASF138:
 6749 1006 434D345F 		.ascii	"CM4_STATUS\000"
 6749      53544154 
 6749      555300
 6750              	.LASF19:
 6751 1011 73697A65 		.ascii	"sizetype\000"
 6751      74797065 
 6751      00
 6752              	.LASF33:
 6753 101a 52455345 		.ascii	"RESERVED0\000"
 6753      52564544 
 6753      3000
 6754              	.LASF38:
 6755 1024 52455345 		.ascii	"RESERVED1\000"
 6755      52564544 
 6755      3100
 6756              	.LASF48:
 6757 102e 52455345 		.ascii	"RESERVED2\000"
 6757      52564544 
 6757      3200
 6758              	.LASF50:
 6759 1038 52455345 		.ascii	"RESERVED3\000"
 6759      52564544 
 6759      3300
 6760              	.LASF55:
 6761 1042 52455345 		.ascii	"RESERVED4\000"
 6761      52564544 
 6761      3400
 6762              	.LASF63:
 6763 104c 52455345 		.ascii	"RESERVED5\000"
 6763      52564544 
 6763      3500
 6764              	.LASF65:
 6765 1056 52455345 		.ascii	"RESERVED6\000"
 6765      52564544 
 6765      3600
 6766              	.LASF69:
 6767 1060 52455345 		.ascii	"RESERVED7\000"
 6767      52564544 
 6767      3700
 6768              	.LASF79:
 6769 106a 52455345 		.ascii	"RESERVED8\000"
 6769      52564544 
 6769      3800
 6770              	.LASF81:
 6771 1074 52455345 		.ascii	"RESERVED9\000"
ARM GAS  C:\Users\kiwamu\AppData\Local\Temp\ccE2Z6Jb.s 			page 159


 6771      52564544 
 6771      3900
 6772              	.LASF66:
 6773 107e 43534456 		.ascii	"CSDV2_CSD0_ADC_VREF0\000"
 6773      325F4353 
 6773      44305F41 
 6773      44435F56 
 6773      52454630 
 6774              	.LASF67:
 6775 1093 43534456 		.ascii	"CSDV2_CSD0_ADC_VREF1\000"
 6775      325F4353 
 6775      44305F41 
 6775      44435F56 
 6775      52454631 
 6776              	.LASF68:
 6777 10a8 43534456 		.ascii	"CSDV2_CSD0_ADC_VREF2\000"
 6777      325F4353 
 6777      44305F41 
 6777      44435F56 
 6777      52454632 
 6778              	.LASF272:
 6779 10bd 434C4B5F 		.ascii	"CLK_PATH_SELECT\000"
 6779      50415448 
 6779      5F53454C 
 6779      45435400 
 6780              	.LASF384:
 6781 10cd 68667372 		.ascii	"hfsr\000"
 6781      00
 6782              	.LASF9:
 6783 10d2 6C6F6E67 		.ascii	"long int\000"
 6783      20696E74 
 6783      00
 6784              	.LASF385:
 6785 10db 73686373 		.ascii	"shcsr\000"
 6785      7200
 6786              	.LASF368:
 6787 10e1 73797354 		.ascii	"sysTickAct\000"
 6787      69636B41 
 6787      637400
 6788              	.LASF308:
 6789 10ec 434C4B5F 		.ascii	"CLK_TRIM_PILO_CTL\000"
 6789      5452494D 
 6789      5F50494C 
 6789      4F5F4354 
 6789      4C00
 6790              	.LASF295:
 6791 10fe 53525353 		.ascii	"SRSS_INTR_MASKED\000"
 6791      5F494E54 
 6791      525F4D41 
 6791      534B4544 
 6791      00
 6792              	.LASF263:
 6793 110f 5057525F 		.ascii	"PWR_BUCK_CTL\000"
 6793      4255434B 
 6793      5F43544C 
 6793      00
 6794              	.LASF160:
ARM GAS  C:\Users\kiwamu\AppData\Local\Temp\ccE2Z6Jb.s 			page 160


 6795 111c 434D305F 		.ascii	"CM0_VECTOR_TABLE_BASE\000"
 6795      56454354 
 6795      4F525F54 
 6795      41424C45 
 6795      5F424153 
 6796              	.LASF434:
 6797 1132 43795F53 		.ascii	"Cy_SysLib_ResetBackupDomain\000"
 6797      79734C69 
 6797      625F5265 
 6797      73657442 
 6797      61636B75 
 6798              	.LASF76:
 6799 114e 464C4153 		.ascii	"FLASH_BOOT_VECTOR_TABLE\000"
 6799      485F424F 
 6799      4F545F56 
 6799      4543544F 
 6799      525F5441 
 6800              	.LASF78:
 6801 1166 464C4153 		.ascii	"FLASH_BOOT_CMAC\000"
 6801      485F424F 
 6801      4F545F43 
 6801      4D414300 
 6802              	.LASF270:
 6803 1176 4D435744 		.ascii	"MCWDT_STRUCT\000"
 6803      545F5354 
 6803      52554354 
 6803      00
 6804              	.LASF390:
 6805 1183 63686172 		.ascii	"char_t\000"
 6805      5F7400
 6806              	.LASF323:
 6807 118a 52455345 		.ascii	"RESET\000"
 6807      5400
 6808              	.LASF18:
 6809 1190 75696E74 		.ascii	"uint64_t\000"
 6809      36345F74 
 6809      00
 6810              	.LASF182:
 6811 1199 54494D45 		.ascii	"TIMER_CTL\000"
 6811      525F4354 
 6811      4C00
 6812              	.LASF143:
 6813 11a3 52414D31 		.ascii	"RAM1_CTL0\000"
 6813      5F43544C 
 6813      3000
 6814              	.LASF224:
 6815 11ad 434D305F 		.ascii	"CM0_CA_CTL2\000"
 6815      43415F43 
 6815      544C3200 
 6816              	.LASF313:
 6817 11b9 43414C5F 		.ascii	"CAL_CTL\000"
 6817      43544C00 
 6818              	.LASF125:
 6819 11c1 434D305F 		.ascii	"CM0_CTL\000"
 6819      43544C00 
 6820              	.LASF417:
 6821 11c9 43795F53 		.ascii	"Cy_SysLib_SetWaitStates\000"
ARM GAS  C:\Users\kiwamu\AppData\Local\Temp\ccE2Z6Jb.s 			page 161


 6821      79734C69 
 6821      625F5365 
 6821      74576169 
 6821      74537461 
 6822              	.LASF335:
 6823 11e1 72657365 		.ascii	"reserved1\000"
 6823      72766564 
 6823      3100
 6824              	.LASF339:
 6825 11eb 72657365 		.ascii	"reserved2\000"
 6825      72766564 
 6825      3200
 6826              	.LASF5:
 6827 11f5 5F5F7569 		.ascii	"__uint8_t\000"
 6827      6E74385F 
 6827      7400
 6828              	.LASF353:
 6829 11ff 72657365 		.ascii	"reserved4\000"
 6829      72766564 
 6829      3400
 6830              	.LASF337:
 6831 1209 6D53746B 		.ascii	"mStkErr\000"
 6831      45727200 
 6832              	.LASF35:
 6833 1211 5343425F 		.ascii	"SCB_Type\000"
 6833      54797065 
 6833      00
 6834              	.LASF219:
 6835 121a 42495354 		.ascii	"BIST_DATA_EXP\000"
 6835      5F444154 
 6835      415F4558 
 6835      5000
 6836              	.LASF29:
 6837 1228 42464152 		.ascii	"BFAR\000"
 6837      00
 6838              	.LASF292:
 6839 122d 53525353 		.ascii	"SRSS_INTR\000"
 6839      5F494E54 
 6839      5200
 6840              	.LASF129:
 6841 1237 434D305F 		.ascii	"CM0_INT_CTL1\000"
 6841      494E545F 
 6841      43544C31 
 6841      00
 6842              	.LASF1:
 6843 1244 756E7369 		.ascii	"unsigned int\000"
 6843      676E6564 
 6843      20696E74 
 6843      00
 6844              	.LASF245:
 6845 1251 4558545F 		.ascii	"EXT_MS0_BUFF_CMD\000"
 6845      4D53305F 
 6845      42554646 
 6845      5F434D44 
 6845      00
 6846              	.LASF22:
 6847 1262 56544F52 		.ascii	"VTOR\000"
ARM GAS  C:\Users\kiwamu\AppData\Local\Temp\ccE2Z6Jb.s 			page 162


 6847      00
 6848              	.LASF373:
 6849 1267 6D656D46 		.ascii	"memFaultEna\000"
 6849      61756C74 
 6849      456E6100 
 6850              	.LASF108:
 6851 1273 544F4332 		.ascii	"TOC2_SCMAC_OBJECTS\000"
 6851      5F53434D 
 6851      41435F4F 
 6851      424A4543 
 6851      545300
 6852              	.LASF195:
 6853 1286 494E5452 		.ascii	"INTR_MASKED\000"
 6853      5F4D4153 
 6853      4B454400 
 6854              	.LASF102:
 6855 1292 544F4332 		.ascii	"TOC2_KEY_BLOCK_ADDR\000"
 6855      5F4B4559 
 6855      5F424C4F 
 6855      434B5F41 
 6855      44445200 
 6856              	.LASF134:
 6857 12a6 434D305F 		.ascii	"CM0_INT_CTL6\000"
 6857      494E545F 
 6857      43544C36 
 6857      00
 6858              	.LASF140:
 6859 12b3 434D345F 		.ascii	"CM4_NMI_CTL\000"
 6859      4E4D495F 
 6859      43544C00 
 6860              	.LASF367:
 6861 12bf 70656E64 		.ascii	"pendSVAct\000"
 6861      53564163 
 6861      7400
 6862              	.LASF39:
 6863 12c9 4449455F 		.ascii	"DIE_LOT\000"
 6863      4C4F5400 
 6864              	.LASF297:
 6865 12d1 5245535F 		.ascii	"RES_CAUSE\000"
 6865      43415553 
 6865      4500
 6866              	.LASF111:
 6867 12db 544F4332 		.ascii	"TOC2_CRC_ADDR\000"
 6867      5F435243 
 6867      5F414444 
 6867      5200
 6868              	.LASF11:
 6869 12e9 6C6F6E67 		.ascii	"long unsigned int\000"
 6869      20756E73 
 6869      69676E65 
 6869      6420696E 
 6869      7400
 6870              	.LASF409:
 6871 12fb 72657456 		.ascii	"retVal\000"
 6871      616C00
 6872              	.LASF218:
 6873 1302 42495354 		.ascii	"BIST_DATA_ACT\000"
ARM GAS  C:\Users\kiwamu\AppData\Local\Temp\ccE2Z6Jb.s 			page 163


 6873      5F444154 
 6873      415F4143 
 6873      5400
 6874              	.LASF201:
 6875 1310 424F4F4B 		.ascii	"BOOKMARK\000"
 6875      4D41524B 
 6875      00
 6876              	.LASF209:
 6877 1319 464D5F4D 		.ascii	"FM_MEM_DATA\000"
 6877      454D5F44 
 6877      41544100 
 6878              	.LASF383:
 6879 1325 63667372 		.ascii	"cfsr\000"
 6879      00
 6880              	.LASF84:
 6881 132a 544F4331 		.ascii	"TOC1_FCMAC_OBJECTS\000"
 6881      5F46434D 
 6881      41435F4F 
 6881      424A4543 
 6881      545300
 6882              	.LASF77:
 6883 133d 464C4153 		.ascii	"FLASH_BOOT_CODE\000"
 6883      485F424F 
 6883      4F545F43 
 6883      4F444500 
 6884              	.LASF16:
 6885 134d 696E7433 		.ascii	"int32_t\000"
 6885      325F7400 
 6886              	.LASF320:
 6887 1355 4F534343 		.ascii	"OSCCNT\000"
 6887      4E5400
 6888              	.LASF241:
 6889 135c 4457315F 		.ascii	"DW1_BUFF_CMD\000"
 6889      42554646 
 6889      5F434D44 
 6889      00
 6890              	.LASF425:
 6891 1369 63795F61 		.ascii	"cy_assertLine\000"
 6891      73736572 
 6891      744C696E 
 6891      6500
 6892              	.LASF130:
 6893 1377 434D305F 		.ascii	"CM0_INT_CTL2\000"
 6893      494E545F 
 6893      43544C32 
 6893      00
 6894              	.LASF131:
 6895 1384 434D305F 		.ascii	"CM0_INT_CTL3\000"
 6895      494E545F 
 6895      43544C33 
 6895      00
 6896              	.LASF132:
 6897 1391 434D305F 		.ascii	"CM0_INT_CTL4\000"
 6897      494E545F 
 6897      43544C34 
 6897      00
 6898              	.LASF133:
ARM GAS  C:\Users\kiwamu\AppData\Local\Temp\ccE2Z6Jb.s 			page 164


 6899 139e 434D305F 		.ascii	"CM0_INT_CTL5\000"
 6899      494E545F 
 6899      43544C35 
 6899      00
 6900              	.LASF401:
 6901 13ab 43795F53 		.ascii	"Cy_SysLib_DelayUs\000"
 6901      79734C69 
 6901      625F4465 
 6901      6C617955 
 6901      7300
 6902              	.LASF135:
 6903 13bd 434D305F 		.ascii	"CM0_INT_CTL7\000"
 6903      494E545F 
 6903      43544C37 
 6903      00
 6904              	.LASF341:
 6905 13ca 69427573 		.ascii	"iBusErr\000"
 6905      45727200 
 6906              	.LASF411:
 6907 13d2 43795F53 		.ascii	"Cy_SysLib_ClearResetReason\000"
 6907      79734C69 
 6907      625F436C 
 6907      65617252 
 6907      65736574 
 6908              	.LASF396:
 6909 13ed 43795F53 		.ascii	"Cy_SysLib_SetWaitStates_ULP\000"
 6909      79734C69 
 6909      625F5365 
 6909      74576169 
 6909      74537461 
 6910              	.LASF82:
 6911 1409 544F4331 		.ascii	"TOC1_OBJECT_SIZE\000"
 6911      5F4F424A 
 6911      4543545F 
 6911      53495A45 
 6911      00
 6912              	.LASF189:
 6913 141a 53435241 		.ascii	"SCRATCH_CTL\000"
 6913      5443485F 
 6913      43544C00 
 6914              	.LASF267:
 6915 1426 5744545F 		.ascii	"WDT_CTL\000"
 6915      43544C00 
 6916              	.LASF3:
 6917 142e 756E7369 		.ascii	"unsigned char\000"
 6917      676E6564 
 6917      20636861 
 6917      7200
 6918              	.LASF10:
 6919 143c 5F5F7569 		.ascii	"__uint32_t\000"
 6919      6E743332 
 6919      5F7400
 6920              	.LASF340:
 6921 1447 6D6D6172 		.ascii	"mmarValid\000"
 6921      56616C69 
 6921      6400
 6922              	.LASF406:
ARM GAS  C:\Users\kiwamu\AppData\Local\Temp\ccE2Z6Jb.s 			page 165


 6923 1451 6C696E65 		.ascii	"line\000"
 6923      00
 6924              	.LASF52:
 6925 1456 55534552 		.ascii	"USER_FREE_ROW1\000"
 6925      5F465245 
 6925      455F524F 
 6925      573100
 6926              	.LASF53:
 6927 1465 55534552 		.ascii	"USER_FREE_ROW2\000"
 6927      5F465245 
 6927      455F524F 
 6927      573200
 6928              	.LASF54:
 6929 1474 55534552 		.ascii	"USER_FREE_ROW3\000"
 6929      5F465245 
 6929      455F524F 
 6929      573300
 6930              	.LASF416:
 6931 1483 6661756C 		.ascii	"faultStackAddr\000"
 6931      74537461 
 6931      636B4164 
 6931      647200
 6932              	.LASF402:
 6933 1492 6D696372 		.ascii	"microseconds\000"
 6933      6F736563 
 6933      6F6E6473 
 6933      00
 6934              	.LASF128:
 6935 149f 434D305F 		.ascii	"CM0_INT_CTL0\000"
 6935      494E545F 
 6935      43544C30 
 6935      00
 6936              	.LASF89:
 6937 14ac 52455345 		.ascii	"RESERVED10\000"
 6937      52564544 
 6937      313000
 6938              	.LASF98:
 6939 14b7 52455345 		.ascii	"RESERVED11\000"
 6939      52564544 
 6939      313100
 6940              	.LASF110:
 6941 14c2 52455345 		.ascii	"RESERVED12\000"
 6941      52564544 
 6941      313200
 6942              	.LASF122:
 6943 14cd 52455345 		.ascii	"RESERVED13\000"
 6943      52564544 
 6943      313300
 6944              	.LASF151:
 6945 14d8 52455345 		.ascii	"RESERVED14\000"
 6945      52564544 
 6945      313400
 6946              	.LASF153:
 6947 14e3 52455345 		.ascii	"RESERVED15\000"
 6947      52564544 
 6947      313500
 6948              	.LASF155:
ARM GAS  C:\Users\kiwamu\AppData\Local\Temp\ccE2Z6Jb.s 			page 166


 6949 14ee 52455345 		.ascii	"RESERVED16\000"
 6949      52564544 
 6949      313600
 6950              	.LASF157:
 6951 14f9 52455345 		.ascii	"RESERVED17\000"
 6951      52564544 
 6951      313700
 6952              	.LASF159:
 6953 1504 52455345 		.ascii	"RESERVED18\000"
 6953      52564544 
 6953      313800
 6954              	.LASF161:
 6955 150f 52455345 		.ascii	"RESERVED19\000"
 6955      52564544 
 6955      313900
 6956              	.LASF227:
 6957 151a 434D305F 		.ascii	"CM0_CA_STATUS1\000"
 6957      43415F53 
 6957      54415455 
 6957      533100
 6958              	.LASF332:
 6959 1529 63795F65 		.ascii	"cy_en_syslib_status_t\000"
 6959      6E5F7379 
 6959      736C6962 
 6959      5F737461 
 6959      7475735F 
 6960              	.LASF357:
 6961 153f 63795F73 		.ascii	"cy_stc_fault_cfsr_t\000"
 6961      74635F66 
 6961      61756C74 
 6961      5F636673 
 6961      725F7400 
 6962              	.LASF424:
 6963 1553 63795F61 		.ascii	"cy_assertFileName\000"
 6963      73736572 
 6963      7446696C 
 6963      654E616D 
 6963      6500
 6964              	.LASF237:
 6965 1565 43525950 		.ascii	"CRYPTO_BUFF_CMD\000"
 6965      544F5F42 
 6965      5546465F 
 6965      434D4400 
 6966              	.LASF253:
 6967 1575 4D435744 		.ascii	"MCWDT_CTL\000"
 6967      545F4354 
 6967      4C00
 6968              	.LASF183:
 6969 157f 414E415F 		.ascii	"ANA_CTL0\000"
 6969      43544C30 
 6969      00
 6970              	.LASF184:
 6971 1588 414E415F 		.ascii	"ANA_CTL1\000"
 6971      43544C31 
 6971      00
 6972              	.LASF331:
 6973 1591 43595F53 		.ascii	"CY_SYSLIB_UNKNOWN\000"
ARM GAS  C:\Users\kiwamu\AppData\Local\Temp\ccE2Z6Jb.s 			page 167


 6973      59534C49 
 6973      425F554E 
 6973      4B4E4F57 
 6973      4E00
 6974              	.LASF252:
 6975 15a3 4D435744 		.ascii	"MCWDT_CONFIG\000"
 6975      545F434F 
 6975      4E464947 
 6975      00
 6976              	.LASF204:
 6977 15b0 5245445F 		.ascii	"RED_CTL45\000"
 6977      43544C34 
 6977      3500
 6978              	.LASF306:
 6979 15ba 5057525F 		.ascii	"PWR_TRIM_PWRSYS_CTL\000"
 6979      5452494D 
 6979      5F505752 
 6979      5359535F 
 6979      43544C00 
 6980              	.LASF154:
 6981 15ce 42554646 		.ascii	"BUFF_CTL\000"
 6981      5F43544C 
 6981      00
 6982              	.LASF177:
 6983 15d7 464D5F43 		.ascii	"FM_CTL\000"
 6983      544C00
 6984              	.LASF205:
 6985 15de 5245445F 		.ascii	"RED_CTL67\000"
 6985      43544C36 
 6985      3700
 6986              	.LASF243:
 6987 15e8 4441505F 		.ascii	"DAP_BUFF_CMD\000"
 6987      42554646 
 6987      5F434D44 
 6987      00
 6988              	.LASF117:
 6989 15f5 52544F43 		.ascii	"RTOC2_FIRST_USER_APP_FORMAT\000"
 6989      325F4649 
 6989      5253545F 
 6989      55534552 
 6989      5F415050 
 6990              	.LASF206:
 6991 1611 5245445F 		.ascii	"RED_CTL_SM01\000"
 6991      43544C5F 
 6991      534D3031 
 6991      00
 6992              	.LASF2:
 6993 161e 7369676E 		.ascii	"signed char\000"
 6993      65642063 
 6993      68617200 
 6994              	.LASF299:
 6995 162a 5057525F 		.ascii	"PWR_TRIM_REF_CTL\000"
 6995      5452494D 
 6995      5F524546 
 6995      5F43544C 
 6995      00
 6996              	.LASF302:
ARM GAS  C:\Users\kiwamu\AppData\Local\Temp\ccE2Z6Jb.s 			page 168


 6997 163b 434C4B5F 		.ascii	"CLK_TRIM_CCO_CTL2\000"
 6997      5452494D 
 6997      5F43434F 
 6997      5F43544C 
 6997      3200
 6998              	.LASF93:
 6999 164d 52544F43 		.ascii	"RTOC1_FCMAC_OBJECTS\000"
 6999      315F4643 
 6999      4D41435F 
 6999      4F424A45 
 6999      43545300 
 7000              	.LASF7:
 7001 1661 73686F72 		.ascii	"short unsigned int\000"
 7001      7420756E 
 7001      7369676E 
 7001      65642069 
 7001      6E7400
 7002              	.LASF163:
 7003 1674 52455345 		.ascii	"RESERVED20\000"
 7003      52564544 
 7003      323000
 7004              	.LASF165:
 7005 167f 52455345 		.ascii	"RESERVED21\000"
 7005      52564544 
 7005      323100
 7006              	.LASF167:
 7007 168a 52455345 		.ascii	"RESERVED22\000"
 7007      52564544 
 7007      323200
 7008              	.LASF169:
 7009 1695 52455345 		.ascii	"RESERVED23\000"
 7009      52564544 
 7009      323300
 7010              	.LASF171:
 7011 16a0 52455345 		.ascii	"RESERVED24\000"
 7011      52564544 
 7011      323400
 7012              	.LASF173:
 7013 16ab 52455345 		.ascii	"RESERVED25\000"
 7013      52564544 
 7013      323500
 7014              	.LASF413:
 7015 16b6 756E6971 		.ascii	"uniqueId\000"
 7015      75654964 
 7015      00
 7016              	.LASF415:
 7017 16bf 43795F53 		.ascii	"Cy_SysLib_FaultHandler\000"
 7017      79734C69 
 7017      625F4661 
 7017      756C7448 
 7017      616E646C 
 7018              	.LASF336:
 7019 16d6 6D556E73 		.ascii	"mUnstkErr\000"
 7019      746B4572 
 7019      7200
 7020              	.LASF92:
 7021 16e0 52544F43 		.ascii	"RTOC1_MAGIC_NUMBER\000"
ARM GAS  C:\Users\kiwamu\AppData\Local\Temp\ccE2Z6Jb.s 			page 169


 7021      315F4D41 
 7021      4749435F 
 7021      4E554D42 
 7021      455200
 7022              	.LASF318:
 7023 16f3 414C4D32 		.ascii	"ALM2_TIME\000"
 7023      5F54494D 
 7023      4500
 7024              	.LASF351:
 7025 16fd 696E7650 		.ascii	"invPC\000"
 7025      4300
 7026              	.LASF393:
 7027 1703 646F7562 		.ascii	"double\000"
 7027      6C6500
 7028              	.LASF106:
 7029 170a 544F4332 		.ascii	"TOC2_SECOND_USER_APP_ADDR\000"
 7029      5F534543 
 7029      4F4E445F 
 7029      55534552 
 7029      5F415050 
 7030              	.LASF325:
 7031 1724 5452494D 		.ascii	"TRIM\000"
 7031      00
 7032              	.LASF251:
 7033 1729 4D435744 		.ascii	"MCWDT_MATCH\000"
 7033      545F4D41 
 7033      54434800 
 7034              	.LASF32:
 7035 1735 49534152 		.ascii	"ISAR\000"
 7035      00
 7036              	.LASF178:
 7037 173a 53544154 		.ascii	"STATUS\000"
 7037      555300
 7038              	.LASF57:
 7039 1741 4D415354 		.ascii	"MASTER_KEY\000"
 7039      45525F4B 
 7039      455900
 7040              	.LASF361:
 7041 174c 63795F73 		.ascii	"cy_stc_fault_hfsr_t\000"
 7041      74635F66 
 7041      61756C74 
 7041      5F686673 
 7041      725F7400 
 7042              	.LASF271:
 7043 1760 434C4B5F 		.ascii	"CLK_DSI_SELECT\000"
 7043      4453495F 
 7043      53454C45 
 7043      435400
 7044              	.LASF147:
 7045 176f 52414D5F 		.ascii	"RAM_PWR_DELAY_CTL\000"
 7045      5057525F 
 7045      44454C41 
 7045      595F4354 
 7045      4C00
 7046              	.LASF99:
 7047 1781 52544F43 		.ascii	"RTOC1_CRC_ADDR\000"
 7047      315F4352 
ARM GAS  C:\Users\kiwamu\AppData\Local\Temp\ccE2Z6Jb.s 			page 170


 7047      435F4144 
 7047      445200
 7048              	.LASF30:
 7049 1790 41465352 		.ascii	"AFSR\000"
 7049      00
 7050              	.LASF212:
 7051 1795 464C4153 		.ascii	"FLASH_PWR_CTL\000"
 7051      485F5057 
 7051      525F4354 
 7051      4C00
 7052              	.LASF247:
 7053 17a3 4558545F 		.ascii	"EXT_MS1_BUFF_CMD\000"
 7053      4D53315F 
 7053      42554646 
 7053      5F434D44 
 7053      00
 7054              	.LASF158:
 7055 17b4 53595354 		.ascii	"SYSTICK_CTL\000"
 7055      49434B5F 
 7055      43544C00 
 7056              	.LASF319:
 7057 17c0 414C4D32 		.ascii	"ALM2_DATE\000"
 7057      5F444154 
 7057      4500
 7058              	.LASF427:
 7059 17ca 43795F53 		.ascii	"Cy_SysLib_DelayCycles\000"
 7059      79734C69 
 7059      625F4465 
 7059      6C617943 
 7059      79636C65 
 7060              	.LASF334:
 7061 17e0 64616363 		.ascii	"daccViol\000"
 7061      56696F6C 
 7061      00
 7062              		.ident	"GCC: (GNU Tools for ARM Embedded Processors) 5.4.1 20160609 (release) [ARM/embedded-5-bran
