ARM GAS  C:\Users\kiwamu\AppData\Local\Temp\ccE2Z6Jb.s 			page 1


   1              		.syntax unified
   2              		.cpu cortex-m4
   3              		.eabi_attribute 27, 1
   4              		.fpu fpv4-sp-d16
   5              		.eabi_attribute 20, 1
   6              		.eabi_attribute 21, 1
   7              		.eabi_attribute 23, 3
   8              		.eabi_attribute 24, 1
   9              		.eabi_attribute 25, 1
  10              		.eabi_attribute 26, 1
  11              		.eabi_attribute 30, 1
  12              		.eabi_attribute 34, 1
  13              		.eabi_attribute 18, 4
  14              		.thumb
  15              		.syntax unified
  16              		.file	"cy_syslib.c"
  17              		.text
  18              	.Ltext0:
  19              		.cfi_sections	.debug_frame
  20              		.section	.text.Cy_SysLib_SetWaitStates_LP,"ax",%progbits
  21              		.align	2
  22              		.thumb
  23              		.thumb_func
  24              		.type	Cy_SysLib_SetWaitStates_LP, %function
  25              	Cy_SysLib_SetWaitStates_LP:
  26              	.LFB154:
  27              		.file 1 "Generated_Source\\PSoC6\\pdl\\drivers\\peripheral\\syslib\\cy_syslib.c"
   1:Generated_Source\PSoC6\pdl\drivers\peripheral\syslib/cy_syslib.c **** /***************************************************************************//**
   2:Generated_Source\PSoC6\pdl\drivers\peripheral\syslib/cy_syslib.c **** * \file cy_syslib.c
   3:Generated_Source\PSoC6\pdl\drivers\peripheral\syslib/cy_syslib.c **** * \version 2.0
   4:Generated_Source\PSoC6\pdl\drivers\peripheral\syslib/cy_syslib.c **** *
   5:Generated_Source\PSoC6\pdl\drivers\peripheral\syslib/cy_syslib.c **** *  Description:
   6:Generated_Source\PSoC6\pdl\drivers\peripheral\syslib/cy_syslib.c **** *   Provides system API implementation for the syslib driver.
   7:Generated_Source\PSoC6\pdl\drivers\peripheral\syslib/cy_syslib.c **** *
   8:Generated_Source\PSoC6\pdl\drivers\peripheral\syslib/cy_syslib.c **** ********************************************************************************
   9:Generated_Source\PSoC6\pdl\drivers\peripheral\syslib/cy_syslib.c **** * Copyright 2016-2017, Cypress Semiconductor Corporation. All rights reserved.
  10:Generated_Source\PSoC6\pdl\drivers\peripheral\syslib/cy_syslib.c **** * You may use this file only in accordance with the license, terms, conditions,
  11:Generated_Source\PSoC6\pdl\drivers\peripheral\syslib/cy_syslib.c **** * disclaimers, and limitations in the end user license agreement accompanying
  12:Generated_Source\PSoC6\pdl\drivers\peripheral\syslib/cy_syslib.c **** * the software package with which this file was provided.
  13:Generated_Source\PSoC6\pdl\drivers\peripheral\syslib/cy_syslib.c **** *******************************************************************************/
  14:Generated_Source\PSoC6\pdl\drivers\peripheral\syslib/cy_syslib.c **** 
  15:Generated_Source\PSoC6\pdl\drivers\peripheral\syslib/cy_syslib.c **** #include "cy_syslib.h"
  16:Generated_Source\PSoC6\pdl\drivers\peripheral\syslib/cy_syslib.c **** #include "ipc/cy_ipc_drv.h"
  17:Generated_Source\PSoC6\pdl\drivers\peripheral\syslib/cy_syslib.c **** #if !defined(NDEBUG)
  18:Generated_Source\PSoC6\pdl\drivers\peripheral\syslib/cy_syslib.c ****     #include <string.h>
  19:Generated_Source\PSoC6\pdl\drivers\peripheral\syslib/cy_syslib.c **** #endif /* NDEBUG */
  20:Generated_Source\PSoC6\pdl\drivers\peripheral\syslib/cy_syslib.c **** 
  21:Generated_Source\PSoC6\pdl\drivers\peripheral\syslib/cy_syslib.c **** /* Flash wait states (LP mode at 1.1v) */
  22:Generated_Source\PSoC6\pdl\drivers\peripheral\syslib/cy_syslib.c **** #define CY_SYSLIB_FLASH_LP_WS_0_FREQ_MAX     ( 29UL)
  23:Generated_Source\PSoC6\pdl\drivers\peripheral\syslib/cy_syslib.c **** #define CY_SYSLIB_FLASH_LP_WS_1_FREQ_MAX     ( 58UL)
  24:Generated_Source\PSoC6\pdl\drivers\peripheral\syslib/cy_syslib.c **** #define CY_SYSLIB_FLASH_LP_WS_2_FREQ_MAX     ( 87UL)
  25:Generated_Source\PSoC6\pdl\drivers\peripheral\syslib/cy_syslib.c **** #define CY_SYSLIB_FLASH_LP_WS_3_FREQ_MAX     (120UL)
  26:Generated_Source\PSoC6\pdl\drivers\peripheral\syslib/cy_syslib.c **** #define CY_SYSLIB_FLASH_LP_WS_4_FREQ_MAX     (150UL)
  27:Generated_Source\PSoC6\pdl\drivers\peripheral\syslib/cy_syslib.c **** 
  28:Generated_Source\PSoC6\pdl\drivers\peripheral\syslib/cy_syslib.c **** /* Flash wait states (ULP mode at 0.9v) */
  29:Generated_Source\PSoC6\pdl\drivers\peripheral\syslib/cy_syslib.c **** #define CY_SYSLIB_FLASH_ULP_WS_0_FREQ_MAX    ( 16UL)
  30:Generated_Source\PSoC6\pdl\drivers\peripheral\syslib/cy_syslib.c **** #define CY_SYSLIB_FLASH_ULP_WS_1_FREQ_MAX    ( 33UL)
ARM GAS  C:\Users\kiwamu\AppData\Local\Temp\ccE2Z6Jb.s 			page 2


  31:Generated_Source\PSoC6\pdl\drivers\peripheral\syslib/cy_syslib.c **** #define CY_SYSLIB_FLASH_ULP_WS_2_FREQ_MAX    ( 50UL)
  32:Generated_Source\PSoC6\pdl\drivers\peripheral\syslib/cy_syslib.c **** 
  33:Generated_Source\PSoC6\pdl\drivers\peripheral\syslib/cy_syslib.c **** /* ROM wait states for the slow clock domain (LP mode at 1.1v) */
  34:Generated_Source\PSoC6\pdl\drivers\peripheral\syslib/cy_syslib.c **** #define CY_SYSLIB_ROM_LP_SLOW_WS_0_FREQ_MAX  (100UL)
  35:Generated_Source\PSoC6\pdl\drivers\peripheral\syslib/cy_syslib.c **** #define CY_SYSLIB_ROM_LP_SLOW_WS_1_FREQ_MAX  (120UL)
  36:Generated_Source\PSoC6\pdl\drivers\peripheral\syslib/cy_syslib.c **** 
  37:Generated_Source\PSoC6\pdl\drivers\peripheral\syslib/cy_syslib.c **** /* ROM wait states for the slow clock domain (ULP mode at 0.9v) */
  38:Generated_Source\PSoC6\pdl\drivers\peripheral\syslib/cy_syslib.c **** #define CY_SYSLIB_ROM_ULP_SLOW_WS_0_FREQ_MAX ( 25UL)
  39:Generated_Source\PSoC6\pdl\drivers\peripheral\syslib/cy_syslib.c **** #define CY_SYSLIB_ROM_ULP_SLOW_WS_1_FREQ_MAX ( 50UL)
  40:Generated_Source\PSoC6\pdl\drivers\peripheral\syslib/cy_syslib.c **** 
  41:Generated_Source\PSoC6\pdl\drivers\peripheral\syslib/cy_syslib.c **** /* ROM wait states for the fast clock domain (LP mode at 1.1v) */
  42:Generated_Source\PSoC6\pdl\drivers\peripheral\syslib/cy_syslib.c **** #define CY_SYSLIB_ROM_LP_FAST_WS_0_FREQ_MAX  (120UL)
  43:Generated_Source\PSoC6\pdl\drivers\peripheral\syslib/cy_syslib.c **** 
  44:Generated_Source\PSoC6\pdl\drivers\peripheral\syslib/cy_syslib.c **** /* ROM wait states for the slow clock domain (ULP mode at 0.9v) */
  45:Generated_Source\PSoC6\pdl\drivers\peripheral\syslib/cy_syslib.c **** #define CY_SYSLIB_ROM_ULP_FAST_WS_0_FREQ_MAX ( 50UL)
  46:Generated_Source\PSoC6\pdl\drivers\peripheral\syslib/cy_syslib.c **** 
  47:Generated_Source\PSoC6\pdl\drivers\peripheral\syslib/cy_syslib.c **** /* SRAM wait states for the slow clock domain (LP mode at 1.1v) */
  48:Generated_Source\PSoC6\pdl\drivers\peripheral\syslib/cy_syslib.c **** #define CY_SYSLIB_RAM_LP_SLOW_WS_0_FREQ_MAX  (100UL)
  49:Generated_Source\PSoC6\pdl\drivers\peripheral\syslib/cy_syslib.c **** #define CY_SYSLIB_RAM_LP_SLOW_WS_1_FREQ_MAX  (120UL)
  50:Generated_Source\PSoC6\pdl\drivers\peripheral\syslib/cy_syslib.c **** 
  51:Generated_Source\PSoC6\pdl\drivers\peripheral\syslib/cy_syslib.c **** /* SRAM wait states for the slow clock domain (ULP mode at 0.9v) */
  52:Generated_Source\PSoC6\pdl\drivers\peripheral\syslib/cy_syslib.c **** #define CY_SYSLIB_RAM_ULP_SLOW_WS_0_FREQ_MAX ( 25UL)
  53:Generated_Source\PSoC6\pdl\drivers\peripheral\syslib/cy_syslib.c **** #define CY_SYSLIB_RAM_ULP_SLOW_WS_1_FREQ_MAX ( 50UL)
  54:Generated_Source\PSoC6\pdl\drivers\peripheral\syslib/cy_syslib.c **** 
  55:Generated_Source\PSoC6\pdl\drivers\peripheral\syslib/cy_syslib.c **** /* SRAM wait states for the fast clock domain (LP mode at 1.1v) */
  56:Generated_Source\PSoC6\pdl\drivers\peripheral\syslib/cy_syslib.c **** #define CY_SYSLIB_RAM_LP_FAST_WS_0_FREQ_MAX  (120UL)
  57:Generated_Source\PSoC6\pdl\drivers\peripheral\syslib/cy_syslib.c **** 
  58:Generated_Source\PSoC6\pdl\drivers\peripheral\syslib/cy_syslib.c **** /* SRAM wait states for the fast clock domain (ULP mode at 0.9v) */
  59:Generated_Source\PSoC6\pdl\drivers\peripheral\syslib/cy_syslib.c **** #define CY_SYSLIB_RAM_ULP_FAST_WS_0_FREQ_MAX ( 50UL)
  60:Generated_Source\PSoC6\pdl\drivers\peripheral\syslib/cy_syslib.c **** 
  61:Generated_Source\PSoC6\pdl\drivers\peripheral\syslib/cy_syslib.c **** 
  62:Generated_Source\PSoC6\pdl\drivers\peripheral\syslib/cy_syslib.c **** #if !defined(NDEBUG)
  63:Generated_Source\PSoC6\pdl\drivers\peripheral\syslib/cy_syslib.c ****     CY_NOINIT char_t cy_assertFileName[CY_MAX_FILE_NAME_SIZE];
  64:Generated_Source\PSoC6\pdl\drivers\peripheral\syslib/cy_syslib.c ****     CY_NOINIT uint32_t cy_assertLine;
  65:Generated_Source\PSoC6\pdl\drivers\peripheral\syslib/cy_syslib.c **** #endif /* NDEBUG */
  66:Generated_Source\PSoC6\pdl\drivers\peripheral\syslib/cy_syslib.c **** 
  67:Generated_Source\PSoC6\pdl\drivers\peripheral\syslib/cy_syslib.c **** #if (CY_ARM_FAULT_DEBUG == CY_ARM_FAULT_DEBUG_ENABLED)
  68:Generated_Source\PSoC6\pdl\drivers\peripheral\syslib/cy_syslib.c ****     CY_NOINIT cy_stc_fault_frame_t cy_faultFrame;
  69:Generated_Source\PSoC6\pdl\drivers\peripheral\syslib/cy_syslib.c **** #endif /* (CY_ARM_FAULT_DEBUG == CY_ARM_FAULT_DEBUG_ENABLED) */
  70:Generated_Source\PSoC6\pdl\drivers\peripheral\syslib/cy_syslib.c **** 
  71:Generated_Source\PSoC6\pdl\drivers\peripheral\syslib/cy_syslib.c **** static void Cy_SysLib_SetWaitStates_ULP(uint32_t clkHfMHz);
  72:Generated_Source\PSoC6\pdl\drivers\peripheral\syslib/cy_syslib.c **** static void Cy_SysLib_SetWaitStates_LP(uint32_t clkHfMHz);
  73:Generated_Source\PSoC6\pdl\drivers\peripheral\syslib/cy_syslib.c **** 
  74:Generated_Source\PSoC6\pdl\drivers\peripheral\syslib/cy_syslib.c **** #if defined(__ARMCC_VERSION)
  75:Generated_Source\PSoC6\pdl\drivers\peripheral\syslib/cy_syslib.c ****     static __ASM void Cy_SysLib_AsmInfiniteLoop(void) { b . };
  76:Generated_Source\PSoC6\pdl\drivers\peripheral\syslib/cy_syslib.c **** #endif  /* (__ARMCC_VERSION) */
  77:Generated_Source\PSoC6\pdl\drivers\peripheral\syslib/cy_syslib.c **** 
  78:Generated_Source\PSoC6\pdl\drivers\peripheral\syslib/cy_syslib.c **** 
  79:Generated_Source\PSoC6\pdl\drivers\peripheral\syslib/cy_syslib.c **** /*******************************************************************************
  80:Generated_Source\PSoC6\pdl\drivers\peripheral\syslib/cy_syslib.c **** * Function Name: Cy_SysLib_Delay
  81:Generated_Source\PSoC6\pdl\drivers\peripheral\syslib/cy_syslib.c **** ****************************************************************************//**
  82:Generated_Source\PSoC6\pdl\drivers\peripheral\syslib/cy_syslib.c **** *
  83:Generated_Source\PSoC6\pdl\drivers\peripheral\syslib/cy_syslib.c **** * The function delays by the specified number of milliseconds.
  84:Generated_Source\PSoC6\pdl\drivers\peripheral\syslib/cy_syslib.c **** * By default, the number of cycles to delay is calculated based on the
  85:Generated_Source\PSoC6\pdl\drivers\peripheral\syslib/cy_syslib.c **** * \ref SystemCoreClock.
  86:Generated_Source\PSoC6\pdl\drivers\peripheral\syslib/cy_syslib.c **** *
  87:Generated_Source\PSoC6\pdl\drivers\peripheral\syslib/cy_syslib.c **** * \param milliseconds  The number of milliseconds to delay.
ARM GAS  C:\Users\kiwamu\AppData\Local\Temp\ccE2Z6Jb.s 			page 3


  88:Generated_Source\PSoC6\pdl\drivers\peripheral\syslib/cy_syslib.c **** *
  89:Generated_Source\PSoC6\pdl\drivers\peripheral\syslib/cy_syslib.c **** * \note The function calls \ref Cy_SysLib_DelayCycles() API to generate a delay.
  90:Generated_Source\PSoC6\pdl\drivers\peripheral\syslib/cy_syslib.c **** *       If the function parameter (milliseconds) is bigger than 
  91:Generated_Source\PSoC6\pdl\drivers\peripheral\syslib/cy_syslib.c **** *       CY_DELAY_MS_OVERFLOW constant, then an additional loop runs to prevent
  92:Generated_Source\PSoC6\pdl\drivers\peripheral\syslib/cy_syslib.c **** *       an overflow in parameter passed to \ref Cy_SysLib_DelayCycles() API.
  93:Generated_Source\PSoC6\pdl\drivers\peripheral\syslib/cy_syslib.c **** *
  94:Generated_Source\PSoC6\pdl\drivers\peripheral\syslib/cy_syslib.c **** *******************************************************************************/
  95:Generated_Source\PSoC6\pdl\drivers\peripheral\syslib/cy_syslib.c **** void Cy_SysLib_Delay(uint32_t milliseconds)
  96:Generated_Source\PSoC6\pdl\drivers\peripheral\syslib/cy_syslib.c **** {
  97:Generated_Source\PSoC6\pdl\drivers\peripheral\syslib/cy_syslib.c ****     while(milliseconds > CY_DELAY_MS_OVERFLOW)
  98:Generated_Source\PSoC6\pdl\drivers\peripheral\syslib/cy_syslib.c ****     {
  99:Generated_Source\PSoC6\pdl\drivers\peripheral\syslib/cy_syslib.c ****         /* This loop prevents an overflow in value passed to Cy_SysLib_DelayCycles() API.
 100:Generated_Source\PSoC6\pdl\drivers\peripheral\syslib/cy_syslib.c ****          * At 100 MHz, (milliseconds * cy_delayFreqKhz) product overflows
 101:Generated_Source\PSoC6\pdl\drivers\peripheral\syslib/cy_syslib.c ****          * in case if milliseconds parameter is more than 42 seconds.
 102:Generated_Source\PSoC6\pdl\drivers\peripheral\syslib/cy_syslib.c ****          */
 103:Generated_Source\PSoC6\pdl\drivers\peripheral\syslib/cy_syslib.c ****         Cy_SysLib_DelayCycles(cy_delay32kMs);
 104:Generated_Source\PSoC6\pdl\drivers\peripheral\syslib/cy_syslib.c ****         milliseconds -= CY_DELAY_MS_OVERFLOW;
 105:Generated_Source\PSoC6\pdl\drivers\peripheral\syslib/cy_syslib.c ****     }
 106:Generated_Source\PSoC6\pdl\drivers\peripheral\syslib/cy_syslib.c **** 
 107:Generated_Source\PSoC6\pdl\drivers\peripheral\syslib/cy_syslib.c ****     Cy_SysLib_DelayCycles(milliseconds * cy_delayFreqKhz);
 108:Generated_Source\PSoC6\pdl\drivers\peripheral\syslib/cy_syslib.c **** }
 109:Generated_Source\PSoC6\pdl\drivers\peripheral\syslib/cy_syslib.c **** 
 110:Generated_Source\PSoC6\pdl\drivers\peripheral\syslib/cy_syslib.c **** 
 111:Generated_Source\PSoC6\pdl\drivers\peripheral\syslib/cy_syslib.c **** /*******************************************************************************
 112:Generated_Source\PSoC6\pdl\drivers\peripheral\syslib/cy_syslib.c **** * Function Name: Cy_SysLib_DelayUs
 113:Generated_Source\PSoC6\pdl\drivers\peripheral\syslib/cy_syslib.c **** ****************************************************************************//**
 114:Generated_Source\PSoC6\pdl\drivers\peripheral\syslib/cy_syslib.c **** *
 115:Generated_Source\PSoC6\pdl\drivers\peripheral\syslib/cy_syslib.c **** * The function delays by the specified number of microseconds.
 116:Generated_Source\PSoC6\pdl\drivers\peripheral\syslib/cy_syslib.c **** * By default, the number of cycles to delay is calculated based on the
 117:Generated_Source\PSoC6\pdl\drivers\peripheral\syslib/cy_syslib.c **** * \ref SystemCoreClock.
 118:Generated_Source\PSoC6\pdl\drivers\peripheral\syslib/cy_syslib.c **** *
 119:Generated_Source\PSoC6\pdl\drivers\peripheral\syslib/cy_syslib.c **** * \param microseconds  The number of microseconds to delay.
 120:Generated_Source\PSoC6\pdl\drivers\peripheral\syslib/cy_syslib.c **** *
 121:Generated_Source\PSoC6\pdl\drivers\peripheral\syslib/cy_syslib.c **** * \note If the CPU frequency is a small non-integer number, the actual delay
 122:Generated_Source\PSoC6\pdl\drivers\peripheral\syslib/cy_syslib.c **** *       can be up to twice as long as the nominal value. The actual delay
 123:Generated_Source\PSoC6\pdl\drivers\peripheral\syslib/cy_syslib.c **** *       cannot be shorter than the nominal one.
 124:Generated_Source\PSoC6\pdl\drivers\peripheral\syslib/cy_syslib.c **** *
 125:Generated_Source\PSoC6\pdl\drivers\peripheral\syslib/cy_syslib.c **** *******************************************************************************/
 126:Generated_Source\PSoC6\pdl\drivers\peripheral\syslib/cy_syslib.c **** void Cy_SysLib_DelayUs(uint16_t microseconds)
 127:Generated_Source\PSoC6\pdl\drivers\peripheral\syslib/cy_syslib.c **** {
 128:Generated_Source\PSoC6\pdl\drivers\peripheral\syslib/cy_syslib.c ****     Cy_SysLib_DelayCycles((uint32_t) microseconds * cy_delayFreqMhz);
 129:Generated_Source\PSoC6\pdl\drivers\peripheral\syslib/cy_syslib.c **** }
 130:Generated_Source\PSoC6\pdl\drivers\peripheral\syslib/cy_syslib.c **** 
 131:Generated_Source\PSoC6\pdl\drivers\peripheral\syslib/cy_syslib.c **** 
 132:Generated_Source\PSoC6\pdl\drivers\peripheral\syslib/cy_syslib.c **** /*******************************************************************************
 133:Generated_Source\PSoC6\pdl\drivers\peripheral\syslib/cy_syslib.c **** * Function Name: Cy_SysLib_Halt
 134:Generated_Source\PSoC6\pdl\drivers\peripheral\syslib/cy_syslib.c **** ****************************************************************************//**
 135:Generated_Source\PSoC6\pdl\drivers\peripheral\syslib/cy_syslib.c **** *
 136:Generated_Source\PSoC6\pdl\drivers\peripheral\syslib/cy_syslib.c **** * This function halts the CPU but only the CPU which calls the function.
 137:Generated_Source\PSoC6\pdl\drivers\peripheral\syslib/cy_syslib.c **** * It doesn't affect other CPUs.
 138:Generated_Source\PSoC6\pdl\drivers\peripheral\syslib/cy_syslib.c **** *
 139:Generated_Source\PSoC6\pdl\drivers\peripheral\syslib/cy_syslib.c **** * \param reason  The value to be used during debugging.
 140:Generated_Source\PSoC6\pdl\drivers\peripheral\syslib/cy_syslib.c **** *
 141:Generated_Source\PSoC6\pdl\drivers\peripheral\syslib/cy_syslib.c **** * \note The function executes the BKPT instruction for halting CPU and is
 142:Generated_Source\PSoC6\pdl\drivers\peripheral\syslib/cy_syslib.c **** *       intended to be used for the debug purpose. A regular use case requires
 143:Generated_Source\PSoC6\pdl\drivers\peripheral\syslib/cy_syslib.c **** *       Debugger attachment before the function call.
 144:Generated_Source\PSoC6\pdl\drivers\peripheral\syslib/cy_syslib.c **** *       The BKPT instruction causes the CPU to enter the Debug state. Debug
ARM GAS  C:\Users\kiwamu\AppData\Local\Temp\ccE2Z6Jb.s 			page 4


 145:Generated_Source\PSoC6\pdl\drivers\peripheral\syslib/cy_syslib.c **** *       tools can use this to investigate the system state, when the
 146:Generated_Source\PSoC6\pdl\drivers\peripheral\syslib/cy_syslib.c **** *       instruction at a particular address is reached.
 147:Generated_Source\PSoC6\pdl\drivers\peripheral\syslib/cy_syslib.c **** *
 148:Generated_Source\PSoC6\pdl\drivers\peripheral\syslib/cy_syslib.c **** * \note Execution of a BKPT instruction without a debugger attached produces
 149:Generated_Source\PSoC6\pdl\drivers\peripheral\syslib/cy_syslib.c **** *       a fault. The fault results in the HardFault exception being taken
 150:Generated_Source\PSoC6\pdl\drivers\peripheral\syslib/cy_syslib.c **** *       or causes a Lockup state if it occurs in the NMI or HardFault handler.
 151:Generated_Source\PSoC6\pdl\drivers\peripheral\syslib/cy_syslib.c **** *       The default HardFault handler make a software reset if the build option
 152:Generated_Source\PSoC6\pdl\drivers\peripheral\syslib/cy_syslib.c **** *       is the release mode (NDEBUG). If the build option is the debug mode,
 153:Generated_Source\PSoC6\pdl\drivers\peripheral\syslib/cy_syslib.c **** *       the system will stay in the infinite loop of the
 154:Generated_Source\PSoC6\pdl\drivers\peripheral\syslib/cy_syslib.c **** *       \ref Cy_SysLib_ProcessingFault() function.
 155:Generated_Source\PSoC6\pdl\drivers\peripheral\syslib/cy_syslib.c **** *
 156:Generated_Source\PSoC6\pdl\drivers\peripheral\syslib/cy_syslib.c **** *******************************************************************************/
 157:Generated_Source\PSoC6\pdl\drivers\peripheral\syslib/cy_syslib.c **** __NO_RETURN void Cy_SysLib_Halt(uint32_t reason)
 158:Generated_Source\PSoC6\pdl\drivers\peripheral\syslib/cy_syslib.c **** {
 159:Generated_Source\PSoC6\pdl\drivers\peripheral\syslib/cy_syslib.c ****     if(0u != reason)
 160:Generated_Source\PSoC6\pdl\drivers\peripheral\syslib/cy_syslib.c ****     {
 161:Generated_Source\PSoC6\pdl\drivers\peripheral\syslib/cy_syslib.c ****         /* To remove an unreferenced local variable warning */
 162:Generated_Source\PSoC6\pdl\drivers\peripheral\syslib/cy_syslib.c ****     }
 163:Generated_Source\PSoC6\pdl\drivers\peripheral\syslib/cy_syslib.c **** 
 164:Generated_Source\PSoC6\pdl\drivers\peripheral\syslib/cy_syslib.c ****     #if defined (__ARMCC_VERSION)
 165:Generated_Source\PSoC6\pdl\drivers\peripheral\syslib/cy_syslib.c ****         __breakpoint(0x0);
 166:Generated_Source\PSoC6\pdl\drivers\peripheral\syslib/cy_syslib.c ****     #elif defined(__GNUC__)
 167:Generated_Source\PSoC6\pdl\drivers\peripheral\syslib/cy_syslib.c ****         __asm("    bkpt    1");
 168:Generated_Source\PSoC6\pdl\drivers\peripheral\syslib/cy_syslib.c ****     #elif defined (__ICCARM__)
 169:Generated_Source\PSoC6\pdl\drivers\peripheral\syslib/cy_syslib.c ****         __asm("    bkpt    1");
 170:Generated_Source\PSoC6\pdl\drivers\peripheral\syslib/cy_syslib.c ****     #else
 171:Generated_Source\PSoC6\pdl\drivers\peripheral\syslib/cy_syslib.c ****         #error "An unsupported toolchain"
 172:Generated_Source\PSoC6\pdl\drivers\peripheral\syslib/cy_syslib.c ****     #endif  /* (__ARMCC_VERSION) */
 173:Generated_Source\PSoC6\pdl\drivers\peripheral\syslib/cy_syslib.c **** 
 174:Generated_Source\PSoC6\pdl\drivers\peripheral\syslib/cy_syslib.c ****     while(1) {}
 175:Generated_Source\PSoC6\pdl\drivers\peripheral\syslib/cy_syslib.c **** }
 176:Generated_Source\PSoC6\pdl\drivers\peripheral\syslib/cy_syslib.c **** 
 177:Generated_Source\PSoC6\pdl\drivers\peripheral\syslib/cy_syslib.c **** 
 178:Generated_Source\PSoC6\pdl\drivers\peripheral\syslib/cy_syslib.c **** #if !defined(NDEBUG) || defined(CY_DOXYGEN)
 179:Generated_Source\PSoC6\pdl\drivers\peripheral\syslib/cy_syslib.c **** /*******************************************************************************
 180:Generated_Source\PSoC6\pdl\drivers\peripheral\syslib/cy_syslib.c **** * Macro Name: Cy_SysLib_AssertFailed
 181:Generated_Source\PSoC6\pdl\drivers\peripheral\syslib/cy_syslib.c **** ****************************************************************************//**
 182:Generated_Source\PSoC6\pdl\drivers\peripheral\syslib/cy_syslib.c **** *
 183:Generated_Source\PSoC6\pdl\drivers\peripheral\syslib/cy_syslib.c **** * This function stores the ASSERT location of the file name (including path
 184:Generated_Source\PSoC6\pdl\drivers\peripheral\syslib/cy_syslib.c **** * to file) and line number in a non-zero init area for debugging. Also it calls
 185:Generated_Source\PSoC6\pdl\drivers\peripheral\syslib/cy_syslib.c **** * the \ref Cy_SysLib_Halt() function to halt the processor.
 186:Generated_Source\PSoC6\pdl\drivers\peripheral\syslib/cy_syslib.c **** *
 187:Generated_Source\PSoC6\pdl\drivers\peripheral\syslib/cy_syslib.c **** * \param file  The file name of the ASSERT location.
 188:Generated_Source\PSoC6\pdl\drivers\peripheral\syslib/cy_syslib.c **** * \param line  The line number of the ASSERT location.
 189:Generated_Source\PSoC6\pdl\drivers\peripheral\syslib/cy_syslib.c **** *
 190:Generated_Source\PSoC6\pdl\drivers\peripheral\syslib/cy_syslib.c **** * \note A stored file name and line number could be accessed by
 191:Generated_Source\PSoC6\pdl\drivers\peripheral\syslib/cy_syslib.c **** *       cy_assertFileName and cy_assertLine global variables.
 192:Generated_Source\PSoC6\pdl\drivers\peripheral\syslib/cy_syslib.c **** * \note This function has the WEAK option, so the user can redefine
 193:Generated_Source\PSoC6\pdl\drivers\peripheral\syslib/cy_syslib.c **** *       the function for a custom processing.
 194:Generated_Source\PSoC6\pdl\drivers\peripheral\syslib/cy_syslib.c **** *
 195:Generated_Source\PSoC6\pdl\drivers\peripheral\syslib/cy_syslib.c **** *******************************************************************************/
 196:Generated_Source\PSoC6\pdl\drivers\peripheral\syslib/cy_syslib.c **** __WEAK void Cy_SysLib_AssertFailed(const char_t * file, uint32_t line)
 197:Generated_Source\PSoC6\pdl\drivers\peripheral\syslib/cy_syslib.c **** {
 198:Generated_Source\PSoC6\pdl\drivers\peripheral\syslib/cy_syslib.c ****     (void) strncpy(cy_assertFileName, file, CY_MAX_FILE_NAME_SIZE);
 199:Generated_Source\PSoC6\pdl\drivers\peripheral\syslib/cy_syslib.c ****     cy_assertLine = line;
 200:Generated_Source\PSoC6\pdl\drivers\peripheral\syslib/cy_syslib.c ****     Cy_SysLib_Halt(0UL);
 201:Generated_Source\PSoC6\pdl\drivers\peripheral\syslib/cy_syslib.c **** }
ARM GAS  C:\Users\kiwamu\AppData\Local\Temp\ccE2Z6Jb.s 			page 5


 202:Generated_Source\PSoC6\pdl\drivers\peripheral\syslib/cy_syslib.c **** #endif  /* !defined(NDEBUG) || defined(CY_DOXYGEN) */
 203:Generated_Source\PSoC6\pdl\drivers\peripheral\syslib/cy_syslib.c **** 
 204:Generated_Source\PSoC6\pdl\drivers\peripheral\syslib/cy_syslib.c **** 
 205:Generated_Source\PSoC6\pdl\drivers\peripheral\syslib/cy_syslib.c **** /*******************************************************************************
 206:Generated_Source\PSoC6\pdl\drivers\peripheral\syslib/cy_syslib.c **** * Function Name: Cy_SysLib_ClearFlashCacheAndBuffer
 207:Generated_Source\PSoC6\pdl\drivers\peripheral\syslib/cy_syslib.c **** ****************************************************************************//**
 208:Generated_Source\PSoC6\pdl\drivers\peripheral\syslib/cy_syslib.c **** *
 209:Generated_Source\PSoC6\pdl\drivers\peripheral\syslib/cy_syslib.c **** * This function invalidates the flash cache and buffer. It ensures the valid
 210:Generated_Source\PSoC6\pdl\drivers\peripheral\syslib/cy_syslib.c **** * data is read from flash instead of using outdated data from the cache.
 211:Generated_Source\PSoC6\pdl\drivers\peripheral\syslib/cy_syslib.c **** * The caches' LRU structure is also reset to their default state.
 212:Generated_Source\PSoC6\pdl\drivers\peripheral\syslib/cy_syslib.c **** *
 213:Generated_Source\PSoC6\pdl\drivers\peripheral\syslib/cy_syslib.c **** * \note The operation takes a maximum of three clock cycles on the slowest of
 214:Generated_Source\PSoC6\pdl\drivers\peripheral\syslib/cy_syslib.c **** *       the clk_slow and clk_fast clocks.
 215:Generated_Source\PSoC6\pdl\drivers\peripheral\syslib/cy_syslib.c **** *
 216:Generated_Source\PSoC6\pdl\drivers\peripheral\syslib/cy_syslib.c **** *******************************************************************************/
 217:Generated_Source\PSoC6\pdl\drivers\peripheral\syslib/cy_syslib.c **** void Cy_SysLib_ClearFlashCacheAndBuffer(void)
 218:Generated_Source\PSoC6\pdl\drivers\peripheral\syslib/cy_syslib.c **** {
 219:Generated_Source\PSoC6\pdl\drivers\peripheral\syslib/cy_syslib.c ****     FLASHC->FLASH_CMD = FLASHC_FLASH_CMD_INV_Msk;
 220:Generated_Source\PSoC6\pdl\drivers\peripheral\syslib/cy_syslib.c **** }
 221:Generated_Source\PSoC6\pdl\drivers\peripheral\syslib/cy_syslib.c **** 
 222:Generated_Source\PSoC6\pdl\drivers\peripheral\syslib/cy_syslib.c **** 
 223:Generated_Source\PSoC6\pdl\drivers\peripheral\syslib/cy_syslib.c **** /*******************************************************************************
 224:Generated_Source\PSoC6\pdl\drivers\peripheral\syslib/cy_syslib.c **** * Function Name: Cy_SysLib_ResetBackupDomain
 225:Generated_Source\PSoC6\pdl\drivers\peripheral\syslib/cy_syslib.c **** ****************************************************************************//**
 226:Generated_Source\PSoC6\pdl\drivers\peripheral\syslib/cy_syslib.c **** *
 227:Generated_Source\PSoC6\pdl\drivers\peripheral\syslib/cy_syslib.c **** * This function resets the backup domain power to avoid the ILO glitch. The
 228:Generated_Source\PSoC6\pdl\drivers\peripheral\syslib/cy_syslib.c **** * glitch can occur when the device is reset due to POR/BOD/XRES while
 229:Generated_Source\PSoC6\pdl\drivers\peripheral\syslib/cy_syslib.c **** * the backup voltage is supplied into the system.
 230:Generated_Source\PSoC6\pdl\drivers\peripheral\syslib/cy_syslib.c **** *
 231:Generated_Source\PSoC6\pdl\drivers\peripheral\syslib/cy_syslib.c **** * \note Writing 1 to BACKUP->RESET resets the backup logic. Hardware clears it
 232:Generated_Source\PSoC6\pdl\drivers\peripheral\syslib/cy_syslib.c **** *       when the reset is complete. After setting the register, this function
 233:Generated_Source\PSoC6\pdl\drivers\peripheral\syslib/cy_syslib.c **** *       reads the register immediately for returning the result of the backup
 234:Generated_Source\PSoC6\pdl\drivers\peripheral\syslib/cy_syslib.c **** *       domain reset state. The reading register is important because the Read
 235:Generated_Source\PSoC6\pdl\drivers\peripheral\syslib/cy_syslib.c **** *       itself takes multiple AHB clock cycles, and the reset is actually
 236:Generated_Source\PSoC6\pdl\drivers\peripheral\syslib/cy_syslib.c **** *       finishing during that time.
 237:Generated_Source\PSoC6\pdl\drivers\peripheral\syslib/cy_syslib.c **** *
 238:Generated_Source\PSoC6\pdl\drivers\peripheral\syslib/cy_syslib.c **** * \return CY_SYSLIB_SUCCESS, if BACKUP->RESET read-back is 0.
 239:Generated_Source\PSoC6\pdl\drivers\peripheral\syslib/cy_syslib.c **** *         Otherwise returns CY_SYSLIB_INVALID_STATE.
 240:Generated_Source\PSoC6\pdl\drivers\peripheral\syslib/cy_syslib.c **** *
 241:Generated_Source\PSoC6\pdl\drivers\peripheral\syslib/cy_syslib.c **** *******************************************************************************/
 242:Generated_Source\PSoC6\pdl\drivers\peripheral\syslib/cy_syslib.c **** cy_en_syslib_status_t Cy_SysLib_ResetBackupDomain(void)
 243:Generated_Source\PSoC6\pdl\drivers\peripheral\syslib/cy_syslib.c **** {
 244:Generated_Source\PSoC6\pdl\drivers\peripheral\syslib/cy_syslib.c ****     BACKUP->RESET = BACKUP_RESET_RESET_Msk;
 245:Generated_Source\PSoC6\pdl\drivers\peripheral\syslib/cy_syslib.c **** 
 246:Generated_Source\PSoC6\pdl\drivers\peripheral\syslib/cy_syslib.c ****     return ( ((BACKUP->RESET & BACKUP_RESET_RESET_Msk) == 0UL) ? CY_SYSLIB_SUCCESS : CY_SYSLIB_INVA
 247:Generated_Source\PSoC6\pdl\drivers\peripheral\syslib/cy_syslib.c **** }
 248:Generated_Source\PSoC6\pdl\drivers\peripheral\syslib/cy_syslib.c **** 
 249:Generated_Source\PSoC6\pdl\drivers\peripheral\syslib/cy_syslib.c **** 
 250:Generated_Source\PSoC6\pdl\drivers\peripheral\syslib/cy_syslib.c **** /*******************************************************************************
 251:Generated_Source\PSoC6\pdl\drivers\peripheral\syslib/cy_syslib.c **** * Function Name: Cy_SysLib_GetResetReason
 252:Generated_Source\PSoC6\pdl\drivers\peripheral\syslib/cy_syslib.c **** ****************************************************************************//**
 253:Generated_Source\PSoC6\pdl\drivers\peripheral\syslib/cy_syslib.c **** *
 254:Generated_Source\PSoC6\pdl\drivers\peripheral\syslib/cy_syslib.c **** * The function returns the cause for the latest reset(s) that occurred in
 255:Generated_Source\PSoC6\pdl\drivers\peripheral\syslib/cy_syslib.c **** * the system. The reset causes include an HFCLK error, system faults, and
 256:Generated_Source\PSoC6\pdl\drivers\peripheral\syslib/cy_syslib.c **** * device reset on a wakeup from Hibernate mode.
 257:Generated_Source\PSoC6\pdl\drivers\peripheral\syslib/cy_syslib.c **** * The return results are consolidated reset causes from reading RES_CAUSE,
 258:Generated_Source\PSoC6\pdl\drivers\peripheral\syslib/cy_syslib.c **** * RES_CAUSE2 and PWR_HIBERNATE token registers.
ARM GAS  C:\Users\kiwamu\AppData\Local\Temp\ccE2Z6Jb.s 			page 6


 259:Generated_Source\PSoC6\pdl\drivers\peripheral\syslib/cy_syslib.c **** *
 260:Generated_Source\PSoC6\pdl\drivers\peripheral\syslib/cy_syslib.c **** * \return The cause of a system reset.
 261:Generated_Source\PSoC6\pdl\drivers\peripheral\syslib/cy_syslib.c **** *
 262:Generated_Source\PSoC6\pdl\drivers\peripheral\syslib/cy_syslib.c **** * | Name                          | Value
 263:Generated_Source\PSoC6\pdl\drivers\peripheral\syslib/cy_syslib.c **** * |-------------------------------|---------------------
 264:Generated_Source\PSoC6\pdl\drivers\peripheral\syslib/cy_syslib.c **** * | CY_SYSLIB_RESET_HWWDT         | 0x00001 (bit0)
 265:Generated_Source\PSoC6\pdl\drivers\peripheral\syslib/cy_syslib.c **** * | CY_SYSLIB_RESET_ACT_FAULT     | 0x00002 (bit1)
 266:Generated_Source\PSoC6\pdl\drivers\peripheral\syslib/cy_syslib.c **** * | CY_SYSLIB_RESET_DPSLP_FAULT   | 0x00004 (bit2)
 267:Generated_Source\PSoC6\pdl\drivers\peripheral\syslib/cy_syslib.c **** * | CY_SYSLIB_RESET_CSV_WCO_LOSS  | 0x00008 (bit3)
 268:Generated_Source\PSoC6\pdl\drivers\peripheral\syslib/cy_syslib.c **** * | CY_SYSLIB_RESET_SOFT          | 0x00010 (bit4)
 269:Generated_Source\PSoC6\pdl\drivers\peripheral\syslib/cy_syslib.c **** * | CY_SYSLIB_RESET_SWWDT0        | 0x00020 (bit5)
 270:Generated_Source\PSoC6\pdl\drivers\peripheral\syslib/cy_syslib.c **** * | CY_SYSLIB_RESET_SWWDT1        | 0x00040 (bit6)
 271:Generated_Source\PSoC6\pdl\drivers\peripheral\syslib/cy_syslib.c **** * | CY_SYSLIB_RESET_SWWDT2        | 0x00080 (bit7)
 272:Generated_Source\PSoC6\pdl\drivers\peripheral\syslib/cy_syslib.c **** * | CY_SYSLIB_RESET_SWWDT3        | 0x00100 (bit8)
 273:Generated_Source\PSoC6\pdl\drivers\peripheral\syslib/cy_syslib.c **** * | CY_SYSLIB_RESET_HFCLK_LOSS    | 0x10000 (bit16)
 274:Generated_Source\PSoC6\pdl\drivers\peripheral\syslib/cy_syslib.c **** * | CY_SYSLIB_RESET_HFCLK_ERR     | 0x20000 (bit17)
 275:Generated_Source\PSoC6\pdl\drivers\peripheral\syslib/cy_syslib.c **** * | CY_SYSLIB_RESET_HIB_WAKEUP    | 0x40000 (bit18)
 276:Generated_Source\PSoC6\pdl\drivers\peripheral\syslib/cy_syslib.c **** *
 277:Generated_Source\PSoC6\pdl\drivers\peripheral\syslib/cy_syslib.c **** * \note CY_SYSLIB_RESET_CSV_WCO_LOSS, CY_SYSLIB_RESET_HFCLK_LOSS and
 278:Generated_Source\PSoC6\pdl\drivers\peripheral\syslib/cy_syslib.c **** *       CY_SYSLIB_RESET_HFCLK_ERR causes of a system reset available only if
 279:Generated_Source\PSoC6\pdl\drivers\peripheral\syslib/cy_syslib.c **** *       WCO CSV present in the device.
 280:Generated_Source\PSoC6\pdl\drivers\peripheral\syslib/cy_syslib.c **** *
 281:Generated_Source\PSoC6\pdl\drivers\peripheral\syslib/cy_syslib.c **** *******************************************************************************/
 282:Generated_Source\PSoC6\pdl\drivers\peripheral\syslib/cy_syslib.c **** uint32_t Cy_SysLib_GetResetReason(void)
 283:Generated_Source\PSoC6\pdl\drivers\peripheral\syslib/cy_syslib.c **** {
 284:Generated_Source\PSoC6\pdl\drivers\peripheral\syslib/cy_syslib.c ****     uint32_t retVal;
 285:Generated_Source\PSoC6\pdl\drivers\peripheral\syslib/cy_syslib.c **** 
 286:Generated_Source\PSoC6\pdl\drivers\peripheral\syslib/cy_syslib.c ****     retVal = SRSS->RES_CAUSE;
 287:Generated_Source\PSoC6\pdl\drivers\peripheral\syslib/cy_syslib.c **** 
 288:Generated_Source\PSoC6\pdl\drivers\peripheral\syslib/cy_syslib.c **** #if (SRSS_WCOCSV_PRESENT != 0u)
 289:Generated_Source\PSoC6\pdl\drivers\peripheral\syslib/cy_syslib.c ****     retVal |= ((CY_LO16(SRSS->RES_CAUSE2) > 0u) ? CY_SYSLIB_RESET_HFCLK_LOSS : 0u) |
 290:Generated_Source\PSoC6\pdl\drivers\peripheral\syslib/cy_syslib.c ****               ((CY_HI16(SRSS->RES_CAUSE2) > 0u) ? CY_SYSLIB_RESET_HFCLK_ERR  : 0u);
 291:Generated_Source\PSoC6\pdl\drivers\peripheral\syslib/cy_syslib.c **** #endif /* (SRSS_WCOCSV_PRESENT != 0u) */
 292:Generated_Source\PSoC6\pdl\drivers\peripheral\syslib/cy_syslib.c **** 
 293:Generated_Source\PSoC6\pdl\drivers\peripheral\syslib/cy_syslib.c ****     if(0u != _FLD2VAL(SRSS_PWR_HIBERNATE_TOKEN, SRSS->PWR_HIBERNATE))
 294:Generated_Source\PSoC6\pdl\drivers\peripheral\syslib/cy_syslib.c ****     {
 295:Generated_Source\PSoC6\pdl\drivers\peripheral\syslib/cy_syslib.c ****         retVal |= CY_SYSLIB_RESET_HIB_WAKEUP;
 296:Generated_Source\PSoC6\pdl\drivers\peripheral\syslib/cy_syslib.c ****     }
 297:Generated_Source\PSoC6\pdl\drivers\peripheral\syslib/cy_syslib.c **** 
 298:Generated_Source\PSoC6\pdl\drivers\peripheral\syslib/cy_syslib.c ****     return (retVal);
 299:Generated_Source\PSoC6\pdl\drivers\peripheral\syslib/cy_syslib.c **** }
 300:Generated_Source\PSoC6\pdl\drivers\peripheral\syslib/cy_syslib.c **** 
 301:Generated_Source\PSoC6\pdl\drivers\peripheral\syslib/cy_syslib.c **** 
 302:Generated_Source\PSoC6\pdl\drivers\peripheral\syslib/cy_syslib.c **** #if (SRSS_WCOCSV_PRESENT != 0u) || defined(CY_DOXYGEN)
 303:Generated_Source\PSoC6\pdl\drivers\peripheral\syslib/cy_syslib.c **** /*******************************************************************************
 304:Generated_Source\PSoC6\pdl\drivers\peripheral\syslib/cy_syslib.c **** * Function Name: Cy_SysLib_GetNumHfclkResetCause
 305:Generated_Source\PSoC6\pdl\drivers\peripheral\syslib/cy_syslib.c **** ****************************************************************************//**
 306:Generated_Source\PSoC6\pdl\drivers\peripheral\syslib/cy_syslib.c **** *
 307:Generated_Source\PSoC6\pdl\drivers\peripheral\syslib/cy_syslib.c **** * This function returns the number of HF_CLK which is a reset cause (RES_CAUSE2)
 308:Generated_Source\PSoC6\pdl\drivers\peripheral\syslib/cy_syslib.c **** * by a loss or an error of the high frequency clock.
 309:Generated_Source\PSoC6\pdl\drivers\peripheral\syslib/cy_syslib.c **** *
 310:Generated_Source\PSoC6\pdl\drivers\peripheral\syslib/cy_syslib.c **** * The Clock supervisors (CSV) can make a reset as CSV_FREQ_ACTION setting
 311:Generated_Source\PSoC6\pdl\drivers\peripheral\syslib/cy_syslib.c **** * when a CSV frequency anomaly is detected. The function returns the index
 312:Generated_Source\PSoC6\pdl\drivers\peripheral\syslib/cy_syslib.c **** * of HF_CLK, if a reset occurred due to an anomaly HF_CLK. There are two
 313:Generated_Source\PSoC6\pdl\drivers\peripheral\syslib/cy_syslib.c **** * different options for monitoring on HF_CLK which are a frequency loss
 314:Generated_Source\PSoC6\pdl\drivers\peripheral\syslib/cy_syslib.c **** * and a frequency error.
 315:Generated_Source\PSoC6\pdl\drivers\peripheral\syslib/cy_syslib.c **** *
ARM GAS  C:\Users\kiwamu\AppData\Local\Temp\ccE2Z6Jb.s 			page 7


 316:Generated_Source\PSoC6\pdl\drivers\peripheral\syslib/cy_syslib.c **** * \return
 317:Generated_Source\PSoC6\pdl\drivers\peripheral\syslib/cy_syslib.c **** *   - The number HF_CLK from Clock Supervisor High Frequency Loss:  Bits[15:0]
 318:Generated_Source\PSoC6\pdl\drivers\peripheral\syslib/cy_syslib.c **** *   - The number HF_CLK from Clock Supervisor High Frequency error: Bits[31:16]
 319:Generated_Source\PSoC6\pdl\drivers\peripheral\syslib/cy_syslib.c **** *
 320:Generated_Source\PSoC6\pdl\drivers\peripheral\syslib/cy_syslib.c **** *******************************************************************************/
 321:Generated_Source\PSoC6\pdl\drivers\peripheral\syslib/cy_syslib.c **** uint32_t Cy_SysLib_GetNumHfclkResetCause(void)
 322:Generated_Source\PSoC6\pdl\drivers\peripheral\syslib/cy_syslib.c **** {
 323:Generated_Source\PSoC6\pdl\drivers\peripheral\syslib/cy_syslib.c ****     return (SRSS->RES_CAUSE2);
 324:Generated_Source\PSoC6\pdl\drivers\peripheral\syslib/cy_syslib.c **** }
 325:Generated_Source\PSoC6\pdl\drivers\peripheral\syslib/cy_syslib.c **** #endif /* (SRSS_WCOCSV_PRESENT != 0u) || defined(CY_DOXYGEN) */
 326:Generated_Source\PSoC6\pdl\drivers\peripheral\syslib/cy_syslib.c **** 
 327:Generated_Source\PSoC6\pdl\drivers\peripheral\syslib/cy_syslib.c **** 
 328:Generated_Source\PSoC6\pdl\drivers\peripheral\syslib/cy_syslib.c **** /*******************************************************************************
 329:Generated_Source\PSoC6\pdl\drivers\peripheral\syslib/cy_syslib.c **** * Function Name: Cy_SysLib_ClearResetReason
 330:Generated_Source\PSoC6\pdl\drivers\peripheral\syslib/cy_syslib.c **** ****************************************************************************//**
 331:Generated_Source\PSoC6\pdl\drivers\peripheral\syslib/cy_syslib.c **** *
 332:Generated_Source\PSoC6\pdl\drivers\peripheral\syslib/cy_syslib.c **** * This function clears the values of RES_CAUSE and RES_CAUSE2. Also it clears
 333:Generated_Source\PSoC6\pdl\drivers\peripheral\syslib/cy_syslib.c **** * PWR_HIBERNATE token, which indicates reset event on waking up from HIBERNATE.
 334:Generated_Source\PSoC6\pdl\drivers\peripheral\syslib/cy_syslib.c **** *
 335:Generated_Source\PSoC6\pdl\drivers\peripheral\syslib/cy_syslib.c **** *******************************************************************************/
 336:Generated_Source\PSoC6\pdl\drivers\peripheral\syslib/cy_syslib.c **** void Cy_SysLib_ClearResetReason(void)
 337:Generated_Source\PSoC6\pdl\drivers\peripheral\syslib/cy_syslib.c **** {
 338:Generated_Source\PSoC6\pdl\drivers\peripheral\syslib/cy_syslib.c ****     /* RES_CAUSE and RES_CAUSE2 register's bits are RW1C (every bit is cleared upon writing 1),
 339:Generated_Source\PSoC6\pdl\drivers\peripheral\syslib/cy_syslib.c ****      * so write all ones to clear all the reset reasons.
 340:Generated_Source\PSoC6\pdl\drivers\peripheral\syslib/cy_syslib.c ****      */
 341:Generated_Source\PSoC6\pdl\drivers\peripheral\syslib/cy_syslib.c ****     SRSS->RES_CAUSE  = 0xFFFFFFFFu;
 342:Generated_Source\PSoC6\pdl\drivers\peripheral\syslib/cy_syslib.c ****     SRSS->RES_CAUSE2 = 0xFFFFFFFFu;
 343:Generated_Source\PSoC6\pdl\drivers\peripheral\syslib/cy_syslib.c ****     
 344:Generated_Source\PSoC6\pdl\drivers\peripheral\syslib/cy_syslib.c ****     if(0u != _FLD2VAL(SRSS_PWR_HIBERNATE_TOKEN, SRSS->PWR_HIBERNATE))
 345:Generated_Source\PSoC6\pdl\drivers\peripheral\syslib/cy_syslib.c ****     {
 346:Generated_Source\PSoC6\pdl\drivers\peripheral\syslib/cy_syslib.c ****         /* Clears PWR_HIBERNATE token */
 347:Generated_Source\PSoC6\pdl\drivers\peripheral\syslib/cy_syslib.c ****         SRSS->PWR_HIBERNATE &= ~SRSS_PWR_HIBERNATE_TOKEN_Msk;
 348:Generated_Source\PSoC6\pdl\drivers\peripheral\syslib/cy_syslib.c ****     }
 349:Generated_Source\PSoC6\pdl\drivers\peripheral\syslib/cy_syslib.c **** }
 350:Generated_Source\PSoC6\pdl\drivers\peripheral\syslib/cy_syslib.c **** 
 351:Generated_Source\PSoC6\pdl\drivers\peripheral\syslib/cy_syslib.c **** 
 352:Generated_Source\PSoC6\pdl\drivers\peripheral\syslib/cy_syslib.c **** #if (CY_CPU_CORTEX_M0P) || defined(CY_DOXYGEN)
 353:Generated_Source\PSoC6\pdl\drivers\peripheral\syslib/cy_syslib.c **** /*******************************************************************************
 354:Generated_Source\PSoC6\pdl\drivers\peripheral\syslib/cy_syslib.c **** * Function Name: Cy_SysLib_SoftResetCM4
 355:Generated_Source\PSoC6\pdl\drivers\peripheral\syslib/cy_syslib.c **** ****************************************************************************//**
 356:Generated_Source\PSoC6\pdl\drivers\peripheral\syslib/cy_syslib.c **** *
 357:Generated_Source\PSoC6\pdl\drivers\peripheral\syslib/cy_syslib.c **** * This function performs a CM4 Core software reset using the CM4_PWR_CTL
 358:Generated_Source\PSoC6\pdl\drivers\peripheral\syslib/cy_syslib.c **** * register. The register is accessed by CM0 Core by using a command transferred
 359:Generated_Source\PSoC6\pdl\drivers\peripheral\syslib/cy_syslib.c **** * to SROM API through the IPC channel. When the command is sent, the API waits
 360:Generated_Source\PSoC6\pdl\drivers\peripheral\syslib/cy_syslib.c **** * for the IPC channel release.
 361:Generated_Source\PSoC6\pdl\drivers\peripheral\syslib/cy_syslib.c **** *
 362:Generated_Source\PSoC6\pdl\drivers\peripheral\syslib/cy_syslib.c **** * \note This function should be called only when the CM4 core is in Deep
 363:Generated_Source\PSoC6\pdl\drivers\peripheral\syslib/cy_syslib.c **** *       Sleep mode.
 364:Generated_Source\PSoC6\pdl\drivers\peripheral\syslib/cy_syslib.c **** * \note This function will not reset CM0+ Core.
 365:Generated_Source\PSoC6\pdl\drivers\peripheral\syslib/cy_syslib.c **** * \note This function waits for an IPC channel release state.
 366:Generated_Source\PSoC6\pdl\drivers\peripheral\syslib/cy_syslib.c **** *
 367:Generated_Source\PSoC6\pdl\drivers\peripheral\syslib/cy_syslib.c **** *******************************************************************************/
 368:Generated_Source\PSoC6\pdl\drivers\peripheral\syslib/cy_syslib.c **** void Cy_SysLib_SoftResetCM4(void)
 369:Generated_Source\PSoC6\pdl\drivers\peripheral\syslib/cy_syslib.c **** {
 370:Generated_Source\PSoC6\pdl\drivers\peripheral\syslib/cy_syslib.c ****     volatile uint32_t msg = CY_IPC_DATA_FOR_CM4_SOFT_RESET;
 371:Generated_Source\PSoC6\pdl\drivers\peripheral\syslib/cy_syslib.c **** 
 372:Generated_Source\PSoC6\pdl\drivers\peripheral\syslib/cy_syslib.c ****     /* Tries to acquire the IPC structure and pass the arguments to SROM API.
ARM GAS  C:\Users\kiwamu\AppData\Local\Temp\ccE2Z6Jb.s 			page 8


 373:Generated_Source\PSoC6\pdl\drivers\peripheral\syslib/cy_syslib.c ****     *  SROM API parameters:
 374:Generated_Source\PSoC6\pdl\drivers\peripheral\syslib/cy_syslib.c ****     *   ipcPtr: IPC_STRUCT0 - IPC Structure 0 reserved for M0+ Secure Access.
 375:Generated_Source\PSoC6\pdl\drivers\peripheral\syslib/cy_syslib.c ****     *   notifyEvent_Intr: 1u - IPC Interrupt Structure 1 is used for Releasing IPC 0 (M0+ NMI Handl
 376:Generated_Source\PSoC6\pdl\drivers\peripheral\syslib/cy_syslib.c ****     *   msgPtr: &msg - The address of SRAM with the API's parameters.
 377:Generated_Source\PSoC6\pdl\drivers\peripheral\syslib/cy_syslib.c ****     */
 378:Generated_Source\PSoC6\pdl\drivers\peripheral\syslib/cy_syslib.c ****     if(CY_IPC_DRV_SUCCESS != Cy_IPC_Drv_SendMsgPtr(IPC_STRUCT0, 1u, (void *) &msg))
 379:Generated_Source\PSoC6\pdl\drivers\peripheral\syslib/cy_syslib.c ****     {
 380:Generated_Source\PSoC6\pdl\drivers\peripheral\syslib/cy_syslib.c ****         CY_ASSERT(0u != 0u);
 381:Generated_Source\PSoC6\pdl\drivers\peripheral\syslib/cy_syslib.c ****     }
 382:Generated_Source\PSoC6\pdl\drivers\peripheral\syslib/cy_syslib.c **** 
 383:Generated_Source\PSoC6\pdl\drivers\peripheral\syslib/cy_syslib.c ****     while(Cy_IPC_Drv_IsLockAcquired(IPC_STRUCT0))
 384:Generated_Source\PSoC6\pdl\drivers\peripheral\syslib/cy_syslib.c ****     {
 385:Generated_Source\PSoC6\pdl\drivers\peripheral\syslib/cy_syslib.c ****         /* Waits until SROM API runs the command (sent over the IPC channel) and releases the IPC_S
 386:Generated_Source\PSoC6\pdl\drivers\peripheral\syslib/cy_syslib.c ****     }
 387:Generated_Source\PSoC6\pdl\drivers\peripheral\syslib/cy_syslib.c **** }
 388:Generated_Source\PSoC6\pdl\drivers\peripheral\syslib/cy_syslib.c **** #endif /* CY_CPU_CORTEX_M0P || defined(CY_DOXYGEN) */
 389:Generated_Source\PSoC6\pdl\drivers\peripheral\syslib/cy_syslib.c **** 
 390:Generated_Source\PSoC6\pdl\drivers\peripheral\syslib/cy_syslib.c **** 
 391:Generated_Source\PSoC6\pdl\drivers\peripheral\syslib/cy_syslib.c **** /*******************************************************************************
 392:Generated_Source\PSoC6\pdl\drivers\peripheral\syslib/cy_syslib.c **** * Function Name: Cy_SysLib_GetUniqueId
 393:Generated_Source\PSoC6\pdl\drivers\peripheral\syslib/cy_syslib.c **** ****************************************************************************//**
 394:Generated_Source\PSoC6\pdl\drivers\peripheral\syslib/cy_syslib.c **** *
 395:Generated_Source\PSoC6\pdl\drivers\peripheral\syslib/cy_syslib.c **** * This function returns the silicon unique ID.
 396:Generated_Source\PSoC6\pdl\drivers\peripheral\syslib/cy_syslib.c **** * The ID includes Die lot[3]#, Die Wafer#, Die X, Die Y, Die Sort#, Die Minor
 397:Generated_Source\PSoC6\pdl\drivers\peripheral\syslib/cy_syslib.c **** * and Die Year.
 398:Generated_Source\PSoC6\pdl\drivers\peripheral\syslib/cy_syslib.c **** *
 399:Generated_Source\PSoC6\pdl\drivers\peripheral\syslib/cy_syslib.c **** * \return  A combined 64-bit unique ID.
 400:Generated_Source\PSoC6\pdl\drivers\peripheral\syslib/cy_syslib.c **** *          [63:57] - DIE_YEAR
 401:Generated_Source\PSoC6\pdl\drivers\peripheral\syslib/cy_syslib.c **** *          [56:56] - DIE_MINOR
 402:Generated_Source\PSoC6\pdl\drivers\peripheral\syslib/cy_syslib.c **** *          [55:48] - DIE_SORT
 403:Generated_Source\PSoC6\pdl\drivers\peripheral\syslib/cy_syslib.c **** *          [47:40] - DIE_Y
 404:Generated_Source\PSoC6\pdl\drivers\peripheral\syslib/cy_syslib.c **** *          [39:32] - DIE_X
 405:Generated_Source\PSoC6\pdl\drivers\peripheral\syslib/cy_syslib.c **** *          [31:24] - DIE_WAFER
 406:Generated_Source\PSoC6\pdl\drivers\peripheral\syslib/cy_syslib.c **** *          [23:16] - DIE_LOT[2]
 407:Generated_Source\PSoC6\pdl\drivers\peripheral\syslib/cy_syslib.c **** *          [15: 8] - DIE_LOT[1]
 408:Generated_Source\PSoC6\pdl\drivers\peripheral\syslib/cy_syslib.c **** *          [ 7: 0] - DIE_LOT[0]
 409:Generated_Source\PSoC6\pdl\drivers\peripheral\syslib/cy_syslib.c **** *
 410:Generated_Source\PSoC6\pdl\drivers\peripheral\syslib/cy_syslib.c **** *******************************************************************************/
 411:Generated_Source\PSoC6\pdl\drivers\peripheral\syslib/cy_syslib.c **** uint64_t Cy_SysLib_GetUniqueId(void)
 412:Generated_Source\PSoC6\pdl\drivers\peripheral\syslib/cy_syslib.c **** {
 413:Generated_Source\PSoC6\pdl\drivers\peripheral\syslib/cy_syslib.c ****     uint64_t uniqueId;
 414:Generated_Source\PSoC6\pdl\drivers\peripheral\syslib/cy_syslib.c **** 
 415:Generated_Source\PSoC6\pdl\drivers\peripheral\syslib/cy_syslib.c ****     uniqueId = ((uint64_t)SFLASH->DIE_YEAR         << CY_UNIQUE_ID_DIE_YEAR_Pos)  |
 416:Generated_Source\PSoC6\pdl\drivers\peripheral\syslib/cy_syslib.c ****                (((uint64_t)SFLASH->DIE_MINOR & 1u) << CY_UNIQUE_ID_DIE_MINOR_Pos) |
 417:Generated_Source\PSoC6\pdl\drivers\peripheral\syslib/cy_syslib.c ****                ((uint64_t)SFLASH->DIE_SORT         << CY_UNIQUE_ID_DIE_SORT_Pos)  |
 418:Generated_Source\PSoC6\pdl\drivers\peripheral\syslib/cy_syslib.c ****                ((uint64_t)SFLASH->DIE_Y            << CY_UNIQUE_ID_DIE_Y_Pos)     |
 419:Generated_Source\PSoC6\pdl\drivers\peripheral\syslib/cy_syslib.c ****                ((uint64_t)SFLASH->DIE_X            << CY_UNIQUE_ID_DIE_X_Pos)     |
 420:Generated_Source\PSoC6\pdl\drivers\peripheral\syslib/cy_syslib.c ****                ((uint64_t)SFLASH->DIE_WAFER        << CY_UNIQUE_ID_DIE_WAFER_Pos) |
 421:Generated_Source\PSoC6\pdl\drivers\peripheral\syslib/cy_syslib.c ****                ((uint64_t)SFLASH->DIE_LOT[2u]      << CY_UNIQUE_ID_DIE_LOT_2_Pos) |
 422:Generated_Source\PSoC6\pdl\drivers\peripheral\syslib/cy_syslib.c ****                ((uint64_t)SFLASH->DIE_LOT[1u]      << CY_UNIQUE_ID_DIE_LOT_1_Pos) |
 423:Generated_Source\PSoC6\pdl\drivers\peripheral\syslib/cy_syslib.c ****                ((uint64_t)SFLASH->DIE_LOT[0u]      << CY_UNIQUE_ID_DIE_LOT_0_Pos);
 424:Generated_Source\PSoC6\pdl\drivers\peripheral\syslib/cy_syslib.c **** 
 425:Generated_Source\PSoC6\pdl\drivers\peripheral\syslib/cy_syslib.c ****     return (uniqueId);
 426:Generated_Source\PSoC6\pdl\drivers\peripheral\syslib/cy_syslib.c **** }
 427:Generated_Source\PSoC6\pdl\drivers\peripheral\syslib/cy_syslib.c **** 
 428:Generated_Source\PSoC6\pdl\drivers\peripheral\syslib/cy_syslib.c **** 
 429:Generated_Source\PSoC6\pdl\drivers\peripheral\syslib/cy_syslib.c **** #if (CY_ARM_FAULT_DEBUG == CY_ARM_FAULT_DEBUG_ENABLED) || defined(CY_DOXYGEN)
ARM GAS  C:\Users\kiwamu\AppData\Local\Temp\ccE2Z6Jb.s 			page 9


 430:Generated_Source\PSoC6\pdl\drivers\peripheral\syslib/cy_syslib.c **** /*******************************************************************************
 431:Generated_Source\PSoC6\pdl\drivers\peripheral\syslib/cy_syslib.c **** * Function Name: Cy_SysLib_FaultHandler
 432:Generated_Source\PSoC6\pdl\drivers\peripheral\syslib/cy_syslib.c **** ****************************************************************************//**
 433:Generated_Source\PSoC6\pdl\drivers\peripheral\syslib/cy_syslib.c **** *
 434:Generated_Source\PSoC6\pdl\drivers\peripheral\syslib/cy_syslib.c **** * This function stores the ARM Cortex registers into a non-zero init area for
 435:Generated_Source\PSoC6\pdl\drivers\peripheral\syslib/cy_syslib.c **** * debugging. This function calls Cy_SysLib_ProcessingFault() after storing all
 436:Generated_Source\PSoC6\pdl\drivers\peripheral\syslib/cy_syslib.c **** * information.
 437:Generated_Source\PSoC6\pdl\drivers\peripheral\syslib/cy_syslib.c **** *
 438:Generated_Source\PSoC6\pdl\drivers\peripheral\syslib/cy_syslib.c **** * \param faultStackAddr The address of the stack pointer, indicates the lowest
 439:Generated_Source\PSoC6\pdl\drivers\peripheral\syslib/cy_syslib.c **** *                       address in the fault stack frame to be stored.
 440:Generated_Source\PSoC6\pdl\drivers\peripheral\syslib/cy_syslib.c **** * \note This function stores the fault stack frame only for the first occurred
 441:Generated_Source\PSoC6\pdl\drivers\peripheral\syslib/cy_syslib.c **** *       fault.
 442:Generated_Source\PSoC6\pdl\drivers\peripheral\syslib/cy_syslib.c **** * \note This function sets two flags into the fault structure: one flag checks
 443:Generated_Source\PSoC6\pdl\drivers\peripheral\syslib/cy_syslib.c **** *       which core caused the fault, another checks the type of the fault for
 444:Generated_Source\PSoC6\pdl\drivers\peripheral\syslib/cy_syslib.c **** *       the CM4 core. The flags should be cleared after analysis of the stored
 445:Generated_Source\PSoC6\pdl\drivers\peripheral\syslib/cy_syslib.c **** *       register values, to have a possibility to distinguish the next fault.
 446:Generated_Source\PSoC6\pdl\drivers\peripheral\syslib/cy_syslib.c **** * \note The PDL doesn't provide an API to analyse the stored register
 447:Generated_Source\PSoC6\pdl\drivers\peripheral\syslib/cy_syslib.c **** *       values. The user has to add additional functions for the analysis,
 448:Generated_Source\PSoC6\pdl\drivers\peripheral\syslib/cy_syslib.c **** *       if necessary.
 449:Generated_Source\PSoC6\pdl\drivers\peripheral\syslib/cy_syslib.c **** * \note The CY_ARM_FAULT_DEBUG macro defines if the Fault Handler is enabled.
 450:Generated_Source\PSoC6\pdl\drivers\peripheral\syslib/cy_syslib.c **** *       By default it is set to CY_ARM_FAULT_DEBUG_ENABLED and enables the
 451:Generated_Source\PSoC6\pdl\drivers\peripheral\syslib/cy_syslib.c **** *       Fault Handler.
 452:Generated_Source\PSoC6\pdl\drivers\peripheral\syslib/cy_syslib.c **** *       If there is a necessity to save memory or have some specific custom
 453:Generated_Source\PSoC6\pdl\drivers\peripheral\syslib/cy_syslib.c **** *       handler, etc. then CY_ARM_FAULT_DEBUG should be redefined as
 454:Generated_Source\PSoC6\pdl\drivers\peripheral\syslib/cy_syslib.c **** *       CY_ARM_FAULT_DEBUG_DISABLED. To do this, the following definition should
 455:Generated_Source\PSoC6\pdl\drivers\peripheral\syslib/cy_syslib.c **** *       be added to the compiler Command Line (through the project Build
 456:Generated_Source\PSoC6\pdl\drivers\peripheral\syslib/cy_syslib.c **** *       Settings): "-D CY_ARM_FAULT_DEBUG=0".
 457:Generated_Source\PSoC6\pdl\drivers\peripheral\syslib/cy_syslib.c **** *
 458:Generated_Source\PSoC6\pdl\drivers\peripheral\syslib/cy_syslib.c **** *******************************************************************************/
 459:Generated_Source\PSoC6\pdl\drivers\peripheral\syslib/cy_syslib.c **** void Cy_SysLib_FaultHandler(uint32_t const *faultStackAddr)
 460:Generated_Source\PSoC6\pdl\drivers\peripheral\syslib/cy_syslib.c **** {
 461:Generated_Source\PSoC6\pdl\drivers\peripheral\syslib/cy_syslib.c ****     /* Stores general registers */
 462:Generated_Source\PSoC6\pdl\drivers\peripheral\syslib/cy_syslib.c ****     cy_faultFrame.r0  = faultStackAddr[CY_R0_Pos];
 463:Generated_Source\PSoC6\pdl\drivers\peripheral\syslib/cy_syslib.c ****     cy_faultFrame.r1  = faultStackAddr[CY_R1_Pos];
 464:Generated_Source\PSoC6\pdl\drivers\peripheral\syslib/cy_syslib.c ****     cy_faultFrame.r2  = faultStackAddr[CY_R2_Pos];
 465:Generated_Source\PSoC6\pdl\drivers\peripheral\syslib/cy_syslib.c ****     cy_faultFrame.r3  = faultStackAddr[CY_R3_Pos];
 466:Generated_Source\PSoC6\pdl\drivers\peripheral\syslib/cy_syslib.c ****     cy_faultFrame.r12 = faultStackAddr[CY_R12_Pos];
 467:Generated_Source\PSoC6\pdl\drivers\peripheral\syslib/cy_syslib.c ****     cy_faultFrame.lr  = faultStackAddr[CY_LR_Pos];
 468:Generated_Source\PSoC6\pdl\drivers\peripheral\syslib/cy_syslib.c ****     cy_faultFrame.pc  = faultStackAddr[CY_PC_Pos];
 469:Generated_Source\PSoC6\pdl\drivers\peripheral\syslib/cy_syslib.c ****     cy_faultFrame.psr = faultStackAddr[CY_PSR_Pos];
 470:Generated_Source\PSoC6\pdl\drivers\peripheral\syslib/cy_syslib.c **** 
 471:Generated_Source\PSoC6\pdl\drivers\peripheral\syslib/cy_syslib.c ****     #if (CY_CPU_CORTEX_M4)
 472:Generated_Source\PSoC6\pdl\drivers\peripheral\syslib/cy_syslib.c ****         /* Stores the Configurable Fault Status Register state with the fault cause */
 473:Generated_Source\PSoC6\pdl\drivers\peripheral\syslib/cy_syslib.c ****         cy_faultFrame.cfsr.cfsrReg = SCB->CFSR;
 474:Generated_Source\PSoC6\pdl\drivers\peripheral\syslib/cy_syslib.c ****         /* Stores the Hard Fault Status Register */
 475:Generated_Source\PSoC6\pdl\drivers\peripheral\syslib/cy_syslib.c ****         cy_faultFrame.hfsr.hfsrReg = SCB->HFSR;
 476:Generated_Source\PSoC6\pdl\drivers\peripheral\syslib/cy_syslib.c ****         /* Stores the System Handler Control and State Register */
 477:Generated_Source\PSoC6\pdl\drivers\peripheral\syslib/cy_syslib.c ****         cy_faultFrame.shcsr.shcsrReg = SCB->SHCSR;
 478:Generated_Source\PSoC6\pdl\drivers\peripheral\syslib/cy_syslib.c ****         /* Store MemMange fault address */
 479:Generated_Source\PSoC6\pdl\drivers\peripheral\syslib/cy_syslib.c ****         cy_faultFrame.mmfar = SCB->MMFAR;
 480:Generated_Source\PSoC6\pdl\drivers\peripheral\syslib/cy_syslib.c ****         /* Store Bus fault address */
 481:Generated_Source\PSoC6\pdl\drivers\peripheral\syslib/cy_syslib.c ****         cy_faultFrame.bfar = SCB->BFAR;
 482:Generated_Source\PSoC6\pdl\drivers\peripheral\syslib/cy_syslib.c **** 
 483:Generated_Source\PSoC6\pdl\drivers\peripheral\syslib/cy_syslib.c ****         #if ((defined (__FPU_PRESENT) && (__FPU_PRESENT == 1U)) && \
 484:Generated_Source\PSoC6\pdl\drivers\peripheral\syslib/cy_syslib.c ****              (defined (__FPU_USED   ) && (__FPU_USED    == 1U)))
 485:Generated_Source\PSoC6\pdl\drivers\peripheral\syslib/cy_syslib.c ****             /* Checks cumulative exception bits for floating-point exceptions */
 486:Generated_Source\PSoC6\pdl\drivers\peripheral\syslib/cy_syslib.c ****             if(0U != (__get_FPSCR() & (CY_FPSCR_IXC_Msk | CY_FPSCR_IDC_Msk)))
ARM GAS  C:\Users\kiwamu\AppData\Local\Temp\ccE2Z6Jb.s 			page 10


 487:Generated_Source\PSoC6\pdl\drivers\peripheral\syslib/cy_syslib.c ****             {
 488:Generated_Source\PSoC6\pdl\drivers\peripheral\syslib/cy_syslib.c ****                 cy_faultFrame.s0    = faultStackAddr[CY_S0_Pos];
 489:Generated_Source\PSoC6\pdl\drivers\peripheral\syslib/cy_syslib.c ****                 cy_faultFrame.s1    = faultStackAddr[CY_S1_Pos];
 490:Generated_Source\PSoC6\pdl\drivers\peripheral\syslib/cy_syslib.c ****                 cy_faultFrame.s2    = faultStackAddr[CY_S2_Pos];
 491:Generated_Source\PSoC6\pdl\drivers\peripheral\syslib/cy_syslib.c ****                 cy_faultFrame.s3    = faultStackAddr[CY_S3_Pos];
 492:Generated_Source\PSoC6\pdl\drivers\peripheral\syslib/cy_syslib.c ****                 cy_faultFrame.s4    = faultStackAddr[CY_S4_Pos];
 493:Generated_Source\PSoC6\pdl\drivers\peripheral\syslib/cy_syslib.c ****                 cy_faultFrame.s5    = faultStackAddr[CY_S5_Pos];
 494:Generated_Source\PSoC6\pdl\drivers\peripheral\syslib/cy_syslib.c ****                 cy_faultFrame.s6    = faultStackAddr[CY_S6_Pos];
 495:Generated_Source\PSoC6\pdl\drivers\peripheral\syslib/cy_syslib.c ****                 cy_faultFrame.s7    = faultStackAddr[CY_S7_Pos];
 496:Generated_Source\PSoC6\pdl\drivers\peripheral\syslib/cy_syslib.c ****                 cy_faultFrame.s8    = faultStackAddr[CY_S8_Pos];
 497:Generated_Source\PSoC6\pdl\drivers\peripheral\syslib/cy_syslib.c ****                 cy_faultFrame.s9    = faultStackAddr[CY_S9_Pos];
 498:Generated_Source\PSoC6\pdl\drivers\peripheral\syslib/cy_syslib.c ****                 cy_faultFrame.s10   = faultStackAddr[CY_S10_Pos];
 499:Generated_Source\PSoC6\pdl\drivers\peripheral\syslib/cy_syslib.c ****                 cy_faultFrame.s11   = faultStackAddr[CY_S11_Pos];
 500:Generated_Source\PSoC6\pdl\drivers\peripheral\syslib/cy_syslib.c ****                 cy_faultFrame.s12   = faultStackAddr[CY_S12_Pos];
 501:Generated_Source\PSoC6\pdl\drivers\peripheral\syslib/cy_syslib.c ****                 cy_faultFrame.s13   = faultStackAddr[CY_S13_Pos];
 502:Generated_Source\PSoC6\pdl\drivers\peripheral\syslib/cy_syslib.c ****                 cy_faultFrame.s14   = faultStackAddr[CY_S14_Pos];
 503:Generated_Source\PSoC6\pdl\drivers\peripheral\syslib/cy_syslib.c ****                 cy_faultFrame.s15   = faultStackAddr[CY_S15_Pos];
 504:Generated_Source\PSoC6\pdl\drivers\peripheral\syslib/cy_syslib.c ****                 cy_faultFrame.fpscr = faultStackAddr[CY_FPSCR_Pos];
 505:Generated_Source\PSoC6\pdl\drivers\peripheral\syslib/cy_syslib.c ****             }
 506:Generated_Source\PSoC6\pdl\drivers\peripheral\syslib/cy_syslib.c ****         #endif /* __FPU_PRESENT */
 507:Generated_Source\PSoC6\pdl\drivers\peripheral\syslib/cy_syslib.c ****     #endif /* CY_CPU_CORTEX_M4 */
 508:Generated_Source\PSoC6\pdl\drivers\peripheral\syslib/cy_syslib.c **** 
 509:Generated_Source\PSoC6\pdl\drivers\peripheral\syslib/cy_syslib.c ****     Cy_SysLib_ProcessingFault();
 510:Generated_Source\PSoC6\pdl\drivers\peripheral\syslib/cy_syslib.c **** }
 511:Generated_Source\PSoC6\pdl\drivers\peripheral\syslib/cy_syslib.c **** 
 512:Generated_Source\PSoC6\pdl\drivers\peripheral\syslib/cy_syslib.c **** 
 513:Generated_Source\PSoC6\pdl\drivers\peripheral\syslib/cy_syslib.c **** /*******************************************************************************
 514:Generated_Source\PSoC6\pdl\drivers\peripheral\syslib/cy_syslib.c **** * Function Name: Cy_SysLib_ProcessingFault
 515:Generated_Source\PSoC6\pdl\drivers\peripheral\syslib/cy_syslib.c **** ****************************************************************************//**
 516:Generated_Source\PSoC6\pdl\drivers\peripheral\syslib/cy_syslib.c **** *
 517:Generated_Source\PSoC6\pdl\drivers\peripheral\syslib/cy_syslib.c **** * This function determines how to process the current fault state. By default
 518:Generated_Source\PSoC6\pdl\drivers\peripheral\syslib/cy_syslib.c **** * in case of exception the system will stay in the infinite loop of this
 519:Generated_Source\PSoC6\pdl\drivers\peripheral\syslib/cy_syslib.c **** * function.
 520:Generated_Source\PSoC6\pdl\drivers\peripheral\syslib/cy_syslib.c **** *
 521:Generated_Source\PSoC6\pdl\drivers\peripheral\syslib/cy_syslib.c **** * \note This function has the WEAK option, so the user can redefine the function
 522:Generated_Source\PSoC6\pdl\drivers\peripheral\syslib/cy_syslib.c **** *       behaviour for a custom processing.
 523:Generated_Source\PSoC6\pdl\drivers\peripheral\syslib/cy_syslib.c **** *       For example, the function redefinition could be constructed from fault
 524:Generated_Source\PSoC6\pdl\drivers\peripheral\syslib/cy_syslib.c **** *       stack processing and NVIC_SystemReset() function call.
 525:Generated_Source\PSoC6\pdl\drivers\peripheral\syslib/cy_syslib.c **** *
 526:Generated_Source\PSoC6\pdl\drivers\peripheral\syslib/cy_syslib.c **** *******************************************************************************/
 527:Generated_Source\PSoC6\pdl\drivers\peripheral\syslib/cy_syslib.c **** __WEAK void Cy_SysLib_ProcessingFault(void)
 528:Generated_Source\PSoC6\pdl\drivers\peripheral\syslib/cy_syslib.c **** {
 529:Generated_Source\PSoC6\pdl\drivers\peripheral\syslib/cy_syslib.c ****     #if defined(__ARMCC_VERSION)
 530:Generated_Source\PSoC6\pdl\drivers\peripheral\syslib/cy_syslib.c ****         /* Assembly implementation of an infinite loop
 531:Generated_Source\PSoC6\pdl\drivers\peripheral\syslib/cy_syslib.c ****          * is used for the armcc compiler to preserve the call stack.
 532:Generated_Source\PSoC6\pdl\drivers\peripheral\syslib/cy_syslib.c ****          * Otherwise, the compiler destroys the call stack,
 533:Generated_Source\PSoC6\pdl\drivers\peripheral\syslib/cy_syslib.c ****          * because treats this API as a no return function.
 534:Generated_Source\PSoC6\pdl\drivers\peripheral\syslib/cy_syslib.c ****          */
 535:Generated_Source\PSoC6\pdl\drivers\peripheral\syslib/cy_syslib.c ****         Cy_SysLib_AsmInfiniteLoop();
 536:Generated_Source\PSoC6\pdl\drivers\peripheral\syslib/cy_syslib.c ****     #else
 537:Generated_Source\PSoC6\pdl\drivers\peripheral\syslib/cy_syslib.c ****         while(1) {}
 538:Generated_Source\PSoC6\pdl\drivers\peripheral\syslib/cy_syslib.c ****     #endif  /* (__ARMCC_VERSION) */
 539:Generated_Source\PSoC6\pdl\drivers\peripheral\syslib/cy_syslib.c **** }
 540:Generated_Source\PSoC6\pdl\drivers\peripheral\syslib/cy_syslib.c **** #endif /* (CY_ARM_FAULT_DEBUG == CY_ARM_FAULT_DEBUG_ENABLED) || defined(CY_DOXYGEN) */
 541:Generated_Source\PSoC6\pdl\drivers\peripheral\syslib/cy_syslib.c **** 
 542:Generated_Source\PSoC6\pdl\drivers\peripheral\syslib/cy_syslib.c **** 
 543:Generated_Source\PSoC6\pdl\drivers\peripheral\syslib/cy_syslib.c **** /*******************************************************************************
ARM GAS  C:\Users\kiwamu\AppData\Local\Temp\ccE2Z6Jb.s 			page 11


 544:Generated_Source\PSoC6\pdl\drivers\peripheral\syslib/cy_syslib.c **** * Function Name: Cy_SysLib_SetWaitStates
 545:Generated_Source\PSoC6\pdl\drivers\peripheral\syslib/cy_syslib.c **** ****************************************************************************//**
 546:Generated_Source\PSoC6\pdl\drivers\peripheral\syslib/cy_syslib.c **** *
 547:Generated_Source\PSoC6\pdl\drivers\peripheral\syslib/cy_syslib.c **** * Sets the number of clock cycles the cache will wait for, before it samples
 548:Generated_Source\PSoC6\pdl\drivers\peripheral\syslib/cy_syslib.c **** * data coming back from ROM, SRAM, and Flash.
 549:Generated_Source\PSoC6\pdl\drivers\peripheral\syslib/cy_syslib.c **** *
 550:Generated_Source\PSoC6\pdl\drivers\peripheral\syslib/cy_syslib.c **** * Call this function before increasing the HFClk0 High Frequency clock.
 551:Generated_Source\PSoC6\pdl\drivers\peripheral\syslib/cy_syslib.c **** * Call this function optionally after lowering the HFClk0 High Frequency clock
 552:Generated_Source\PSoC6\pdl\drivers\peripheral\syslib/cy_syslib.c **** * in order to improve the CPU performance.
 553:Generated_Source\PSoC6\pdl\drivers\peripheral\syslib/cy_syslib.c **** *
 554:Generated_Source\PSoC6\pdl\drivers\peripheral\syslib/cy_syslib.c **** * Also, call this function before switching the core supply regulator voltage
 555:Generated_Source\PSoC6\pdl\drivers\peripheral\syslib/cy_syslib.c **** * (LDO or SIMO Buck) from 1.1V to 0.9V.
 556:Generated_Source\PSoC6\pdl\drivers\peripheral\syslib/cy_syslib.c **** * Call this function optionally after switching the core supply regulator
 557:Generated_Source\PSoC6\pdl\drivers\peripheral\syslib/cy_syslib.c **** * voltage from 0.9V to 1.1V in order to improve the CPU performance.
 558:Generated_Source\PSoC6\pdl\drivers\peripheral\syslib/cy_syslib.c **** *
 559:Generated_Source\PSoC6\pdl\drivers\peripheral\syslib/cy_syslib.c **** * \param ulpMode  The device power mode.
 560:Generated_Source\PSoC6\pdl\drivers\peripheral\syslib/cy_syslib.c **** *        true  if the device should be switched to the ULP mode (nominal
 561:Generated_Source\PSoC6\pdl\drivers\peripheral\syslib/cy_syslib.c **** *              voltage of the core supply regulator should be switched to 0.9V);
 562:Generated_Source\PSoC6\pdl\drivers\peripheral\syslib/cy_syslib.c **** *        false if the device should be switched to the LP mode (nominal
 563:Generated_Source\PSoC6\pdl\drivers\peripheral\syslib/cy_syslib.c **** *              voltage of the core supply regulator should be switched to 1.1V).
 564:Generated_Source\PSoC6\pdl\drivers\peripheral\syslib/cy_syslib.c **** *
 565:Generated_Source\PSoC6\pdl\drivers\peripheral\syslib/cy_syslib.c **** * \note Refer to the device TRM for the low power modes description.
 566:Generated_Source\PSoC6\pdl\drivers\peripheral\syslib/cy_syslib.c **** *
 567:Generated_Source\PSoC6\pdl\drivers\peripheral\syslib/cy_syslib.c **** * \param clkHfMHz  The HFClk0 clock frequency in MHz. Specifying a frequency
 568:Generated_Source\PSoC6\pdl\drivers\peripheral\syslib/cy_syslib.c **** *                  above the supported maximum will set the Wait states as for
 569:Generated_Source\PSoC6\pdl\drivers\peripheral\syslib/cy_syslib.c **** *                  the maximum frequency.
 570:Generated_Source\PSoC6\pdl\drivers\peripheral\syslib/cy_syslib.c **** *
 571:Generated_Source\PSoC6\pdl\drivers\peripheral\syslib/cy_syslib.c **** *******************************************************************************/
 572:Generated_Source\PSoC6\pdl\drivers\peripheral\syslib/cy_syslib.c **** void Cy_SysLib_SetWaitStates(bool ulpMode, uint32_t clkHfMHz)
 573:Generated_Source\PSoC6\pdl\drivers\peripheral\syslib/cy_syslib.c **** {
 574:Generated_Source\PSoC6\pdl\drivers\peripheral\syslib/cy_syslib.c ****     if (ulpMode)
 575:Generated_Source\PSoC6\pdl\drivers\peripheral\syslib/cy_syslib.c ****     {
 576:Generated_Source\PSoC6\pdl\drivers\peripheral\syslib/cy_syslib.c ****         Cy_SysLib_SetWaitStates_ULP(clkHfMHz);
 577:Generated_Source\PSoC6\pdl\drivers\peripheral\syslib/cy_syslib.c ****     }
 578:Generated_Source\PSoC6\pdl\drivers\peripheral\syslib/cy_syslib.c ****     else
 579:Generated_Source\PSoC6\pdl\drivers\peripheral\syslib/cy_syslib.c ****     {
 580:Generated_Source\PSoC6\pdl\drivers\peripheral\syslib/cy_syslib.c ****         Cy_SysLib_SetWaitStates_LP(clkHfMHz);
 581:Generated_Source\PSoC6\pdl\drivers\peripheral\syslib/cy_syslib.c ****     }
 582:Generated_Source\PSoC6\pdl\drivers\peripheral\syslib/cy_syslib.c **** }
 583:Generated_Source\PSoC6\pdl\drivers\peripheral\syslib/cy_syslib.c **** 
 584:Generated_Source\PSoC6\pdl\drivers\peripheral\syslib/cy_syslib.c **** 
 585:Generated_Source\PSoC6\pdl\drivers\peripheral\syslib/cy_syslib.c **** /*******************************************************************************
 586:Generated_Source\PSoC6\pdl\drivers\peripheral\syslib/cy_syslib.c **** * Function Name: Cy_SysLib_SetWaitStates_LP
 587:Generated_Source\PSoC6\pdl\drivers\peripheral\syslib/cy_syslib.c **** ****************************************************************************//**
 588:Generated_Source\PSoC6\pdl\drivers\peripheral\syslib/cy_syslib.c **** *
 589:Generated_Source\PSoC6\pdl\drivers\peripheral\syslib/cy_syslib.c **** * Sets the ROM, SRAM, and Flash Wait states for the low power mode.
 590:Generated_Source\PSoC6\pdl\drivers\peripheral\syslib/cy_syslib.c **** * This function is called by \ref Cy_SysLib_SetWaitStates().
 591:Generated_Source\PSoC6\pdl\drivers\peripheral\syslib/cy_syslib.c **** *
 592:Generated_Source\PSoC6\pdl\drivers\peripheral\syslib/cy_syslib.c **** * \param clkHfMHz  The HFClk0 clock frequency in MHz. Specifying a frequency
 593:Generated_Source\PSoC6\pdl\drivers\peripheral\syslib/cy_syslib.c **** *                  above the supported maximum will set the Wait states as for
 594:Generated_Source\PSoC6\pdl\drivers\peripheral\syslib/cy_syslib.c **** *                  the maximum frequency.
 595:Generated_Source\PSoC6\pdl\drivers\peripheral\syslib/cy_syslib.c **** *
 596:Generated_Source\PSoC6\pdl\drivers\peripheral\syslib/cy_syslib.c **** *******************************************************************************/
 597:Generated_Source\PSoC6\pdl\drivers\peripheral\syslib/cy_syslib.c **** static void Cy_SysLib_SetWaitStates_LP(uint32_t clkHfMHz)
 598:Generated_Source\PSoC6\pdl\drivers\peripheral\syslib/cy_syslib.c **** {
  28              		.loc 1 598 0
  29              		.cfi_startproc
ARM GAS  C:\Users\kiwamu\AppData\Local\Temp\ccE2Z6Jb.s 			page 12


  30              		@ args = 0, pretend = 0, frame = 0
  31              		@ frame_needed = 0, uses_anonymous_args = 0
  32              		@ link register save eliminated.
  33              	.LVL0:
 599:Generated_Source\PSoC6\pdl\drivers\peripheral\syslib/cy_syslib.c ****     uint32_t waitStates;
 600:Generated_Source\PSoC6\pdl\drivers\peripheral\syslib/cy_syslib.c **** 
 601:Generated_Source\PSoC6\pdl\drivers\peripheral\syslib/cy_syslib.c ****     /* ROM */
 602:Generated_Source\PSoC6\pdl\drivers\peripheral\syslib/cy_syslib.c ****     if (clkHfMHz < CY_SYSLIB_ROM_LP_SLOW_WS_0_FREQ_MAX)
  34              		.loc 1 602 0
  35 0000 6328     		cmp	r0, #99
  36 0002 01D8     		bhi	.L5
 603:Generated_Source\PSoC6\pdl\drivers\peripheral\syslib/cy_syslib.c ****     {
 604:Generated_Source\PSoC6\pdl\drivers\peripheral\syslib/cy_syslib.c ****         waitStates = 0UL;
  37              		.loc 1 604 0
  38 0004 0021     		movs	r1, #0
  39 0006 00E0     		b	.L2
  40              	.L5:
 605:Generated_Source\PSoC6\pdl\drivers\peripheral\syslib/cy_syslib.c ****     } else
 606:Generated_Source\PSoC6\pdl\drivers\peripheral\syslib/cy_syslib.c ****     {
 607:Generated_Source\PSoC6\pdl\drivers\peripheral\syslib/cy_syslib.c ****         waitStates = 1UL;
  41              		.loc 1 607 0
  42 0008 0121     		movs	r1, #1
  43              	.L2:
  44              	.LVL1:
 608:Generated_Source\PSoC6\pdl\drivers\peripheral\syslib/cy_syslib.c ****     }
 609:Generated_Source\PSoC6\pdl\drivers\peripheral\syslib/cy_syslib.c ****     CPUSS->ROM_CTL = _CLR_SET_FLD32U(CPUSS->ROM_CTL, CPUSS_ROM_CTL_SLOW_WS, waitStates);
  45              		.loc 1 609 0
  46 000a 1C4A     		ldr	r2, .L11
  47 000c D2F8D031 		ldr	r3, [r2, #464]
  48 0010 23F00303 		bic	r3, r3, #3
  49 0014 0B43     		orrs	r3, r3, r1
  50 0016 C2F8D031 		str	r3, [r2, #464]
  51              	.LVL2:
 610:Generated_Source\PSoC6\pdl\drivers\peripheral\syslib/cy_syslib.c **** 
 611:Generated_Source\PSoC6\pdl\drivers\peripheral\syslib/cy_syslib.c ****     waitStates = 0UL;
 612:Generated_Source\PSoC6\pdl\drivers\peripheral\syslib/cy_syslib.c ****     CPUSS->ROM_CTL = _CLR_SET_FLD32U(CPUSS->ROM_CTL, CPUSS_ROM_CTL_FAST_WS, waitStates);
  52              		.loc 1 612 0
  53 001a D2F8D031 		ldr	r3, [r2, #464]
  54 001e 23F44073 		bic	r3, r3, #768
  55 0022 C2F8D031 		str	r3, [r2, #464]
 613:Generated_Source\PSoC6\pdl\drivers\peripheral\syslib/cy_syslib.c **** 
 614:Generated_Source\PSoC6\pdl\drivers\peripheral\syslib/cy_syslib.c ****     /* SRAM */
 615:Generated_Source\PSoC6\pdl\drivers\peripheral\syslib/cy_syslib.c ****     if (clkHfMHz < CY_SYSLIB_RAM_LP_SLOW_WS_0_FREQ_MAX)
  56              		.loc 1 615 0
  57 0026 6328     		cmp	r0, #99
  58 0028 01D8     		bhi	.L6
 616:Generated_Source\PSoC6\pdl\drivers\peripheral\syslib/cy_syslib.c ****     {
 617:Generated_Source\PSoC6\pdl\drivers\peripheral\syslib/cy_syslib.c ****         waitStates = 0UL;
  59              		.loc 1 617 0
  60 002a 0021     		movs	r1, #0
  61 002c 00E0     		b	.L3
  62              	.L6:
 618:Generated_Source\PSoC6\pdl\drivers\peripheral\syslib/cy_syslib.c ****     } else
 619:Generated_Source\PSoC6\pdl\drivers\peripheral\syslib/cy_syslib.c ****     {
 620:Generated_Source\PSoC6\pdl\drivers\peripheral\syslib/cy_syslib.c ****         waitStates = 1UL;
  63              		.loc 1 620 0
  64 002e 0121     		movs	r1, #1
ARM GAS  C:\Users\kiwamu\AppData\Local\Temp\ccE2Z6Jb.s 			page 13


  65              	.L3:
  66              	.LVL3:
 621:Generated_Source\PSoC6\pdl\drivers\peripheral\syslib/cy_syslib.c ****     }
 622:Generated_Source\PSoC6\pdl\drivers\peripheral\syslib/cy_syslib.c ****     CPUSS->RAM0_CTL0 = _CLR_SET_FLD32U(CPUSS->RAM0_CTL0, CPUSS_RAM0_CTL0_SLOW_WS, waitStates);
  67              		.loc 1 622 0
  68 0030 124A     		ldr	r2, .L11
  69 0032 D2F80031 		ldr	r3, [r2, #256]
  70 0036 23F00303 		bic	r3, r3, #3
  71 003a 0B43     		orrs	r3, r3, r1
  72 003c C2F80031 		str	r3, [r2, #256]
  73              	.LVL4:
 623:Generated_Source\PSoC6\pdl\drivers\peripheral\syslib/cy_syslib.c ****     #if defined (RAMC1_PRESENT) && (RAMC1_PRESENT == 1UL)
 624:Generated_Source\PSoC6\pdl\drivers\peripheral\syslib/cy_syslib.c ****         CPUSS->RAM1_CTL0 = _CLR_SET_FLD32U(CPUSS->RAM1_CTL0, CPUSS_RAM1_CTL0_SLOW_WS, waitStates);
 625:Generated_Source\PSoC6\pdl\drivers\peripheral\syslib/cy_syslib.c ****     #endif /* defined (RAMC1_PRESENT) && (RAMC1_PRESENT == 1UL) */
 626:Generated_Source\PSoC6\pdl\drivers\peripheral\syslib/cy_syslib.c ****     #if defined (RAMC2_PRESENT) && (RAMC2_PRESENT == 1UL)
 627:Generated_Source\PSoC6\pdl\drivers\peripheral\syslib/cy_syslib.c ****         CPUSS->RAM2_CTL0 = _CLR_SET_FLD32U(CPUSS->RAM2_CTL0, CPUSS_RAM2_CTL0_SLOW_WS, waitStates);
 628:Generated_Source\PSoC6\pdl\drivers\peripheral\syslib/cy_syslib.c ****     #endif /* defined (RAMC2_PRESENT) && (RAMC2_PRESENT == 1UL) */
 629:Generated_Source\PSoC6\pdl\drivers\peripheral\syslib/cy_syslib.c **** 
 630:Generated_Source\PSoC6\pdl\drivers\peripheral\syslib/cy_syslib.c ****     waitStates = 0UL;
 631:Generated_Source\PSoC6\pdl\drivers\peripheral\syslib/cy_syslib.c ****     CPUSS->RAM0_CTL0 = _CLR_SET_FLD32U(CPUSS->RAM0_CTL0, CPUSS_RAM0_CTL0_FAST_WS, waitStates);
  74              		.loc 1 631 0
  75 0040 D2F80031 		ldr	r3, [r2, #256]
  76 0044 23F44073 		bic	r3, r3, #768
  77 0048 C2F80031 		str	r3, [r2, #256]
 632:Generated_Source\PSoC6\pdl\drivers\peripheral\syslib/cy_syslib.c ****     #if defined (RAMC1_PRESENT) && (RAMC1_PRESENT == 1UL)
 633:Generated_Source\PSoC6\pdl\drivers\peripheral\syslib/cy_syslib.c ****         CPUSS->RAM1_CTL0 = _CLR_SET_FLD32U(CPUSS->RAM1_CTL0, CPUSS_RAM1_CTL0_SLOW_WS, waitStates);
 634:Generated_Source\PSoC6\pdl\drivers\peripheral\syslib/cy_syslib.c ****     #endif /* defined (RAMC1_PRESENT) && (RAMC1_PRESENT == 1UL) */
 635:Generated_Source\PSoC6\pdl\drivers\peripheral\syslib/cy_syslib.c ****     #if defined (RAMC2_PRESENT) && (RAMC2_PRESENT == 1UL)
 636:Generated_Source\PSoC6\pdl\drivers\peripheral\syslib/cy_syslib.c ****         CPUSS->RAM2_CTL0 = _CLR_SET_FLD32U(CPUSS->RAM2_CTL0, CPUSS_RAM2_CTL0_SLOW_WS, waitStates);
 637:Generated_Source\PSoC6\pdl\drivers\peripheral\syslib/cy_syslib.c ****     #endif /* defined (RAMC2_PRESENT) && (RAMC2_PRESENT == 1UL) */
 638:Generated_Source\PSoC6\pdl\drivers\peripheral\syslib/cy_syslib.c **** 
 639:Generated_Source\PSoC6\pdl\drivers\peripheral\syslib/cy_syslib.c ****     /* Flash */
 640:Generated_Source\PSoC6\pdl\drivers\peripheral\syslib/cy_syslib.c ****     if (clkHfMHz <= CY_SYSLIB_FLASH_LP_WS_0_FREQ_MAX)
  78              		.loc 1 640 0
  79 004c 1D28     		cmp	r0, #29
  80 004e 07D9     		bls	.L7
 641:Generated_Source\PSoC6\pdl\drivers\peripheral\syslib/cy_syslib.c ****     {
 642:Generated_Source\PSoC6\pdl\drivers\peripheral\syslib/cy_syslib.c ****         waitStates = 0UL;
 643:Generated_Source\PSoC6\pdl\drivers\peripheral\syslib/cy_syslib.c ****     } else if (clkHfMHz <= CY_SYSLIB_FLASH_LP_WS_1_FREQ_MAX)
  81              		.loc 1 643 0
  82 0050 3A28     		cmp	r0, #58
  83 0052 07D9     		bls	.L8
 644:Generated_Source\PSoC6\pdl\drivers\peripheral\syslib/cy_syslib.c ****     {
 645:Generated_Source\PSoC6\pdl\drivers\peripheral\syslib/cy_syslib.c ****         waitStates = 1UL;
 646:Generated_Source\PSoC6\pdl\drivers\peripheral\syslib/cy_syslib.c ****     } else if (clkHfMHz <= CY_SYSLIB_FLASH_LP_WS_2_FREQ_MAX)
  84              		.loc 1 646 0
  85 0054 5728     		cmp	r0, #87
  86 0056 07D9     		bls	.L9
 647:Generated_Source\PSoC6\pdl\drivers\peripheral\syslib/cy_syslib.c ****     {
 648:Generated_Source\PSoC6\pdl\drivers\peripheral\syslib/cy_syslib.c ****         waitStates = 2UL;
 649:Generated_Source\PSoC6\pdl\drivers\peripheral\syslib/cy_syslib.c ****     } else if (clkHfMHz <= CY_SYSLIB_FLASH_LP_WS_3_FREQ_MAX)
  87              		.loc 1 649 0
  88 0058 7828     		cmp	r0, #120
  89 005a 07D8     		bhi	.L10
 650:Generated_Source\PSoC6\pdl\drivers\peripheral\syslib/cy_syslib.c ****     {
 651:Generated_Source\PSoC6\pdl\drivers\peripheral\syslib/cy_syslib.c ****         waitStates = 3UL;
  90              		.loc 1 651 0
ARM GAS  C:\Users\kiwamu\AppData\Local\Temp\ccE2Z6Jb.s 			page 14


  91 005c 0321     		movs	r1, #3
  92 005e 06E0     		b	.L4
  93              	.L7:
 642:Generated_Source\PSoC6\pdl\drivers\peripheral\syslib/cy_syslib.c ****     } else if (clkHfMHz <= CY_SYSLIB_FLASH_LP_WS_1_FREQ_MAX)
  94              		.loc 1 642 0
  95 0060 0021     		movs	r1, #0
  96 0062 04E0     		b	.L4
  97              	.L8:
 645:Generated_Source\PSoC6\pdl\drivers\peripheral\syslib/cy_syslib.c ****     } else if (clkHfMHz <= CY_SYSLIB_FLASH_LP_WS_2_FREQ_MAX)
  98              		.loc 1 645 0
  99 0064 0121     		movs	r1, #1
 100 0066 02E0     		b	.L4
 101              	.L9:
 648:Generated_Source\PSoC6\pdl\drivers\peripheral\syslib/cy_syslib.c ****     } else if (clkHfMHz <= CY_SYSLIB_FLASH_LP_WS_3_FREQ_MAX)
 102              		.loc 1 648 0
 103 0068 0221     		movs	r1, #2
 104 006a 00E0     		b	.L4
 105              	.L10:
 652:Generated_Source\PSoC6\pdl\drivers\peripheral\syslib/cy_syslib.c ****     } else
 653:Generated_Source\PSoC6\pdl\drivers\peripheral\syslib/cy_syslib.c ****     {
 654:Generated_Source\PSoC6\pdl\drivers\peripheral\syslib/cy_syslib.c ****         waitStates = 4UL;
 106              		.loc 1 654 0
 107 006c 0421     		movs	r1, #4
 108              	.L4:
 109              	.LVL5:
 655:Generated_Source\PSoC6\pdl\drivers\peripheral\syslib/cy_syslib.c ****     }
 656:Generated_Source\PSoC6\pdl\drivers\peripheral\syslib/cy_syslib.c **** 
 657:Generated_Source\PSoC6\pdl\drivers\peripheral\syslib/cy_syslib.c ****     FLASHC->FLASH_CTL = _CLR_SET_FLD32U(FLASHC->FLASH_CTL, FLASHC_FLASH_CTL_MAIN_WS, waitStates);
 110              		.loc 1 657 0
 111 006e 044A     		ldr	r2, .L11+4
 112 0070 1368     		ldr	r3, [r2]
 113 0072 23F00F03 		bic	r3, r3, #15
 114 0076 0B43     		orrs	r3, r3, r1
 115 0078 1360     		str	r3, [r2]
 116 007a 7047     		bx	lr
 117              	.L12:
 118              		.align	2
 119              	.L11:
 120 007c 00002140 		.word	1075904512
 121 0080 00002540 		.word	1076166656
 122              		.cfi_endproc
 123              	.LFE154:
 124              		.size	Cy_SysLib_SetWaitStates_LP, .-Cy_SysLib_SetWaitStates_LP
 125              		.section	.text.Cy_SysLib_SetWaitStates_ULP,"ax",%progbits
 126              		.align	2
 127              		.thumb
 128              		.thumb_func
 129              		.type	Cy_SysLib_SetWaitStates_ULP, %function
 130              	Cy_SysLib_SetWaitStates_ULP:
 131              	.LFB155:
 658:Generated_Source\PSoC6\pdl\drivers\peripheral\syslib/cy_syslib.c **** }
 659:Generated_Source\PSoC6\pdl\drivers\peripheral\syslib/cy_syslib.c **** 
 660:Generated_Source\PSoC6\pdl\drivers\peripheral\syslib/cy_syslib.c **** 
 661:Generated_Source\PSoC6\pdl\drivers\peripheral\syslib/cy_syslib.c **** /*******************************************************************************
 662:Generated_Source\PSoC6\pdl\drivers\peripheral\syslib/cy_syslib.c **** * Function Name: Cy_SysLib_SetWaitStates_ULP
 663:Generated_Source\PSoC6\pdl\drivers\peripheral\syslib/cy_syslib.c **** ****************************************************************************//**
 664:Generated_Source\PSoC6\pdl\drivers\peripheral\syslib/cy_syslib.c **** *
ARM GAS  C:\Users\kiwamu\AppData\Local\Temp\ccE2Z6Jb.s 			page 15


 665:Generated_Source\PSoC6\pdl\drivers\peripheral\syslib/cy_syslib.c **** * Sets the ROM, SRAM, and Flash Wait states for the ultra-low power mode.
 666:Generated_Source\PSoC6\pdl\drivers\peripheral\syslib/cy_syslib.c **** * This function is called by \ref Cy_SysLib_SetWaitStates().
 667:Generated_Source\PSoC6\pdl\drivers\peripheral\syslib/cy_syslib.c **** *
 668:Generated_Source\PSoC6\pdl\drivers\peripheral\syslib/cy_syslib.c **** * \param clkHfMHz  The HFClk0 clock frequency in MHz. Specifying a frequency
 669:Generated_Source\PSoC6\pdl\drivers\peripheral\syslib/cy_syslib.c **** *                  above the supported maximum will set the Wait states as for
 670:Generated_Source\PSoC6\pdl\drivers\peripheral\syslib/cy_syslib.c **** *                  the maximum frequency.
 671:Generated_Source\PSoC6\pdl\drivers\peripheral\syslib/cy_syslib.c **** *
 672:Generated_Source\PSoC6\pdl\drivers\peripheral\syslib/cy_syslib.c **** *******************************************************************************/
 673:Generated_Source\PSoC6\pdl\drivers\peripheral\syslib/cy_syslib.c **** static void Cy_SysLib_SetWaitStates_ULP(uint32_t clkHfMHz)
 674:Generated_Source\PSoC6\pdl\drivers\peripheral\syslib/cy_syslib.c **** {
 132              		.loc 1 674 0
 133              		.cfi_startproc
 134              		@ args = 0, pretend = 0, frame = 0
 135              		@ frame_needed = 0, uses_anonymous_args = 0
 136              		@ link register save eliminated.
 137              	.LVL6:
 675:Generated_Source\PSoC6\pdl\drivers\peripheral\syslib/cy_syslib.c ****     uint32_t waitStates;
 676:Generated_Source\PSoC6\pdl\drivers\peripheral\syslib/cy_syslib.c **** 
 677:Generated_Source\PSoC6\pdl\drivers\peripheral\syslib/cy_syslib.c ****     /* ROM */
 678:Generated_Source\PSoC6\pdl\drivers\peripheral\syslib/cy_syslib.c ****     if (clkHfMHz < CY_SYSLIB_ROM_ULP_SLOW_WS_0_FREQ_MAX)
 138              		.loc 1 678 0
 139 0000 1828     		cmp	r0, #24
 140 0002 01D8     		bhi	.L17
 679:Generated_Source\PSoC6\pdl\drivers\peripheral\syslib/cy_syslib.c ****     {
 680:Generated_Source\PSoC6\pdl\drivers\peripheral\syslib/cy_syslib.c ****         waitStates = 0UL;
 141              		.loc 1 680 0
 142 0004 0021     		movs	r1, #0
 143 0006 00E0     		b	.L14
 144              	.L17:
 681:Generated_Source\PSoC6\pdl\drivers\peripheral\syslib/cy_syslib.c ****     } else
 682:Generated_Source\PSoC6\pdl\drivers\peripheral\syslib/cy_syslib.c ****     {
 683:Generated_Source\PSoC6\pdl\drivers\peripheral\syslib/cy_syslib.c ****         waitStates = 1UL;
 145              		.loc 1 683 0
 146 0008 0121     		movs	r1, #1
 147              	.L14:
 148              	.LVL7:
 684:Generated_Source\PSoC6\pdl\drivers\peripheral\syslib/cy_syslib.c ****     }
 685:Generated_Source\PSoC6\pdl\drivers\peripheral\syslib/cy_syslib.c ****     CPUSS->ROM_CTL = _CLR_SET_FLD32U(CPUSS->ROM_CTL, CPUSS_ROM_CTL_SLOW_WS, waitStates);
 149              		.loc 1 685 0
 150 000a 184A     		ldr	r2, .L21
 151 000c D2F8D031 		ldr	r3, [r2, #464]
 152 0010 23F00303 		bic	r3, r3, #3
 153 0014 0B43     		orrs	r3, r3, r1
 154 0016 C2F8D031 		str	r3, [r2, #464]
 155              	.LVL8:
 686:Generated_Source\PSoC6\pdl\drivers\peripheral\syslib/cy_syslib.c **** 
 687:Generated_Source\PSoC6\pdl\drivers\peripheral\syslib/cy_syslib.c ****     waitStates = 0UL;
 688:Generated_Source\PSoC6\pdl\drivers\peripheral\syslib/cy_syslib.c ****     CPUSS->ROM_CTL = _CLR_SET_FLD32U(CPUSS->ROM_CTL, CPUSS_ROM_CTL_FAST_WS, waitStates);
 156              		.loc 1 688 0
 157 001a D2F8D031 		ldr	r3, [r2, #464]
 158 001e 23F44073 		bic	r3, r3, #768
 159 0022 C2F8D031 		str	r3, [r2, #464]
 689:Generated_Source\PSoC6\pdl\drivers\peripheral\syslib/cy_syslib.c **** 
 690:Generated_Source\PSoC6\pdl\drivers\peripheral\syslib/cy_syslib.c ****     /* SRAM */
 691:Generated_Source\PSoC6\pdl\drivers\peripheral\syslib/cy_syslib.c ****     if (clkHfMHz < CY_SYSLIB_RAM_ULP_SLOW_WS_0_FREQ_MAX)
 160              		.loc 1 691 0
 161 0026 1828     		cmp	r0, #24
ARM GAS  C:\Users\kiwamu\AppData\Local\Temp\ccE2Z6Jb.s 			page 16


 162 0028 01D8     		bhi	.L18
 692:Generated_Source\PSoC6\pdl\drivers\peripheral\syslib/cy_syslib.c ****     {
 693:Generated_Source\PSoC6\pdl\drivers\peripheral\syslib/cy_syslib.c ****         waitStates = 0UL;
 163              		.loc 1 693 0
 164 002a 0021     		movs	r1, #0
 165 002c 00E0     		b	.L15
 166              	.L18:
 694:Generated_Source\PSoC6\pdl\drivers\peripheral\syslib/cy_syslib.c ****     } else
 695:Generated_Source\PSoC6\pdl\drivers\peripheral\syslib/cy_syslib.c ****     {
 696:Generated_Source\PSoC6\pdl\drivers\peripheral\syslib/cy_syslib.c ****         waitStates = 1UL;
 167              		.loc 1 696 0
 168 002e 0121     		movs	r1, #1
 169              	.L15:
 170              	.LVL9:
 697:Generated_Source\PSoC6\pdl\drivers\peripheral\syslib/cy_syslib.c ****     }
 698:Generated_Source\PSoC6\pdl\drivers\peripheral\syslib/cy_syslib.c ****     CPUSS->RAM0_CTL0 = _CLR_SET_FLD32U(CPUSS->RAM0_CTL0, CPUSS_RAM0_CTL0_SLOW_WS, waitStates);
 171              		.loc 1 698 0
 172 0030 0E4A     		ldr	r2, .L21
 173 0032 D2F80031 		ldr	r3, [r2, #256]
 174 0036 23F00303 		bic	r3, r3, #3
 175 003a 0B43     		orrs	r3, r3, r1
 176 003c C2F80031 		str	r3, [r2, #256]
 177              	.LVL10:
 699:Generated_Source\PSoC6\pdl\drivers\peripheral\syslib/cy_syslib.c ****     #if defined (RAMC1_PRESENT) && (RAMC1_PRESENT == 1UL)
 700:Generated_Source\PSoC6\pdl\drivers\peripheral\syslib/cy_syslib.c ****         CPUSS->RAM1_CTL0 = _CLR_SET_FLD32U(CPUSS->RAM1_CTL0, CPUSS_RAM1_CTL0_SLOW_WS, waitStates);
 701:Generated_Source\PSoC6\pdl\drivers\peripheral\syslib/cy_syslib.c ****     #endif /* defined (RAMC1_PRESENT) && (RAMC1_PRESENT == 1UL) */
 702:Generated_Source\PSoC6\pdl\drivers\peripheral\syslib/cy_syslib.c ****     #if defined (RAMC2_PRESENT) && (RAMC2_PRESENT == 1UL)
 703:Generated_Source\PSoC6\pdl\drivers\peripheral\syslib/cy_syslib.c ****         CPUSS->RAM2_CTL0 = _CLR_SET_FLD32U(CPUSS->RAM2_CTL0, CPUSS_RAM2_CTL0_SLOW_WS, waitStates);
 704:Generated_Source\PSoC6\pdl\drivers\peripheral\syslib/cy_syslib.c ****     #endif /* defined (RAMC2_PRESENT) && (RAMC2_PRESENT == 1UL) */
 705:Generated_Source\PSoC6\pdl\drivers\peripheral\syslib/cy_syslib.c **** 
 706:Generated_Source\PSoC6\pdl\drivers\peripheral\syslib/cy_syslib.c ****     waitStates = 0UL;
 707:Generated_Source\PSoC6\pdl\drivers\peripheral\syslib/cy_syslib.c ****     CPUSS->RAM0_CTL0 = _CLR_SET_FLD32U(CPUSS->RAM0_CTL0, CPUSS_RAM0_CTL0_FAST_WS, waitStates);
 178              		.loc 1 707 0
 179 0040 D2F80031 		ldr	r3, [r2, #256]
 180 0044 23F44073 		bic	r3, r3, #768
 181 0048 C2F80031 		str	r3, [r2, #256]
 708:Generated_Source\PSoC6\pdl\drivers\peripheral\syslib/cy_syslib.c ****     #if defined (RAMC1_PRESENT) && (RAMC1_PRESENT == 1UL)
 709:Generated_Source\PSoC6\pdl\drivers\peripheral\syslib/cy_syslib.c ****         CPUSS->RAM1_CTL0 = _CLR_SET_FLD32U(CPUSS->RAM1_CTL0, CPUSS_RAM1_CTL0_SLOW_WS, waitStates);
 710:Generated_Source\PSoC6\pdl\drivers\peripheral\syslib/cy_syslib.c ****     #endif /* defined (RAMC1_PRESENT) && (RAMC1_PRESENT == 1UL) */
 711:Generated_Source\PSoC6\pdl\drivers\peripheral\syslib/cy_syslib.c ****     #if defined (RAMC2_PRESENT) && (RAMC2_PRESENT == 1UL)
 712:Generated_Source\PSoC6\pdl\drivers\peripheral\syslib/cy_syslib.c ****         CPUSS->RAM2_CTL0 = _CLR_SET_FLD32U(CPUSS->RAM2_CTL0, CPUSS_RAM2_CTL0_SLOW_WS, waitStates);
 713:Generated_Source\PSoC6\pdl\drivers\peripheral\syslib/cy_syslib.c ****     #endif /* defined (RAMC2_PRESENT) && (RAMC2_PRESENT == 1UL) */
 714:Generated_Source\PSoC6\pdl\drivers\peripheral\syslib/cy_syslib.c **** 
 715:Generated_Source\PSoC6\pdl\drivers\peripheral\syslib/cy_syslib.c ****     /* Flash */
 716:Generated_Source\PSoC6\pdl\drivers\peripheral\syslib/cy_syslib.c ****     if (clkHfMHz <= CY_SYSLIB_FLASH_ULP_WS_0_FREQ_MAX)
 182              		.loc 1 716 0
 183 004c 1028     		cmp	r0, #16
 184 004e 03D9     		bls	.L19
 717:Generated_Source\PSoC6\pdl\drivers\peripheral\syslib/cy_syslib.c ****     {
 718:Generated_Source\PSoC6\pdl\drivers\peripheral\syslib/cy_syslib.c ****         waitStates = 0UL;
 719:Generated_Source\PSoC6\pdl\drivers\peripheral\syslib/cy_syslib.c ****     } else if (clkHfMHz <= CY_SYSLIB_FLASH_ULP_WS_1_FREQ_MAX)
 185              		.loc 1 719 0
 186 0050 2128     		cmp	r0, #33
 187 0052 03D8     		bhi	.L20
 720:Generated_Source\PSoC6\pdl\drivers\peripheral\syslib/cy_syslib.c ****     {
 721:Generated_Source\PSoC6\pdl\drivers\peripheral\syslib/cy_syslib.c ****         waitStates = 1UL;
 188              		.loc 1 721 0
ARM GAS  C:\Users\kiwamu\AppData\Local\Temp\ccE2Z6Jb.s 			page 17


 189 0054 0121     		movs	r1, #1
 190 0056 02E0     		b	.L16
 191              	.L19:
 718:Generated_Source\PSoC6\pdl\drivers\peripheral\syslib/cy_syslib.c ****     } else if (clkHfMHz <= CY_SYSLIB_FLASH_ULP_WS_1_FREQ_MAX)
 192              		.loc 1 718 0
 193 0058 0021     		movs	r1, #0
 194 005a 00E0     		b	.L16
 195              	.L20:
 722:Generated_Source\PSoC6\pdl\drivers\peripheral\syslib/cy_syslib.c ****     } else
 723:Generated_Source\PSoC6\pdl\drivers\peripheral\syslib/cy_syslib.c ****     {
 724:Generated_Source\PSoC6\pdl\drivers\peripheral\syslib/cy_syslib.c ****         waitStates = 2UL;
 196              		.loc 1 724 0
 197 005c 0221     		movs	r1, #2
 198              	.L16:
 199              	.LVL11:
 725:Generated_Source\PSoC6\pdl\drivers\peripheral\syslib/cy_syslib.c ****     }
 726:Generated_Source\PSoC6\pdl\drivers\peripheral\syslib/cy_syslib.c ****     FLASHC->FLASH_CTL = _CLR_SET_FLD32U(FLASHC->FLASH_CTL, FLASHC_FLASH_CTL_MAIN_WS, waitStates);
 200              		.loc 1 726 0
 201 005e 044A     		ldr	r2, .L21+4
 202 0060 1368     		ldr	r3, [r2]
 203 0062 23F00F03 		bic	r3, r3, #15
 204 0066 0B43     		orrs	r3, r3, r1
 205 0068 1360     		str	r3, [r2]
 206 006a 7047     		bx	lr
 207              	.L22:
 208              		.align	2
 209              	.L21:
 210 006c 00002140 		.word	1075904512
 211 0070 00002540 		.word	1076166656
 212              		.cfi_endproc
 213              	.LFE155:
 214              		.size	Cy_SysLib_SetWaitStates_ULP, .-Cy_SysLib_SetWaitStates_ULP
 215              		.section	.text.Cy_SysLib_Delay,"ax",%progbits
 216              		.align	2
 217              		.global	Cy_SysLib_Delay
 218              		.thumb
 219              		.thumb_func
 220              		.type	Cy_SysLib_Delay, %function
 221              	Cy_SysLib_Delay:
 222              	.LFB142:
  96:Generated_Source\PSoC6\pdl\drivers\peripheral\syslib/cy_syslib.c ****     while(milliseconds > CY_DELAY_MS_OVERFLOW)
 223              		.loc 1 96 0
 224              		.cfi_startproc
 225              		@ args = 0, pretend = 0, frame = 0
 226              		@ frame_needed = 0, uses_anonymous_args = 0
 227              	.LVL12:
 228 0000 10B5     		push	{r4, lr}
 229              		.cfi_def_cfa_offset 8
 230              		.cfi_offset 4, -8
 231              		.cfi_offset 14, -4
 232 0002 0446     		mov	r4, r0
  97:Generated_Source\PSoC6\pdl\drivers\peripheral\syslib/cy_syslib.c ****     {
 233              		.loc 1 97 0
 234 0004 05E0     		b	.L24
 235              	.LVL13:
 236              	.L25:
 103:Generated_Source\PSoC6\pdl\drivers\peripheral\syslib/cy_syslib.c ****         milliseconds -= CY_DELAY_MS_OVERFLOW;
ARM GAS  C:\Users\kiwamu\AppData\Local\Temp\ccE2Z6Jb.s 			page 18


 237              		.loc 1 103 0
 238 0006 084B     		ldr	r3, .L27
 239 0008 1868     		ldr	r0, [r3]
 240 000a FFF7FEFF 		bl	Cy_SysLib_DelayCycles
 241              	.LVL14:
 104:Generated_Source\PSoC6\pdl\drivers\peripheral\syslib/cy_syslib.c ****     }
 242              		.loc 1 104 0
 243 000e A4F50044 		sub	r4, r4, #32768
 244              	.LVL15:
 245              	.L24:
  97:Generated_Source\PSoC6\pdl\drivers\peripheral\syslib/cy_syslib.c ****     {
 246              		.loc 1 97 0
 247 0012 B4F5004F 		cmp	r4, #32768
 248 0016 F6D8     		bhi	.L25
 107:Generated_Source\PSoC6\pdl\drivers\peripheral\syslib/cy_syslib.c **** }
 249              		.loc 1 107 0
 250 0018 044B     		ldr	r3, .L27+4
 251 001a 1868     		ldr	r0, [r3]
 252 001c 00FB04F0 		mul	r0, r0, r4
 253 0020 FFF7FEFF 		bl	Cy_SysLib_DelayCycles
 254              	.LVL16:
 255 0024 10BD     		pop	{r4, pc}
 256              	.LVL17:
 257              	.L28:
 258 0026 00BF     		.align	2
 259              	.L27:
 260 0028 00000000 		.word	cy_delay32kMs
 261 002c 00000000 		.word	cy_delayFreqKhz
 262              		.cfi_endproc
 263              	.LFE142:
 264              		.size	Cy_SysLib_Delay, .-Cy_SysLib_Delay
 265              		.section	.text.Cy_SysLib_DelayUs,"ax",%progbits
 266              		.align	2
 267              		.global	Cy_SysLib_DelayUs
 268              		.thumb
 269              		.thumb_func
 270              		.type	Cy_SysLib_DelayUs, %function
 271              	Cy_SysLib_DelayUs:
 272              	.LFB143:
 127:Generated_Source\PSoC6\pdl\drivers\peripheral\syslib/cy_syslib.c ****     Cy_SysLib_DelayCycles((uint32_t) microseconds * cy_delayFreqMhz);
 273              		.loc 1 127 0
 274              		.cfi_startproc
 275              		@ args = 0, pretend = 0, frame = 0
 276              		@ frame_needed = 0, uses_anonymous_args = 0
 277              	.LVL18:
 278 0000 08B5     		push	{r3, lr}
 279              		.cfi_def_cfa_offset 8
 280              		.cfi_offset 3, -8
 281              		.cfi_offset 14, -4
 128:Generated_Source\PSoC6\pdl\drivers\peripheral\syslib/cy_syslib.c **** }
 282              		.loc 1 128 0
 283 0002 034B     		ldr	r3, .L31
 284 0004 1B78     		ldrb	r3, [r3]	@ zero_extendqisi2
 285 0006 00FB03F0 		mul	r0, r0, r3
 286              	.LVL19:
 287 000a FFF7FEFF 		bl	Cy_SysLib_DelayCycles
 288              	.LVL20:
ARM GAS  C:\Users\kiwamu\AppData\Local\Temp\ccE2Z6Jb.s 			page 19


 289 000e 08BD     		pop	{r3, pc}
 290              	.L32:
 291              		.align	2
 292              	.L31:
 293 0010 00000000 		.word	cy_delayFreqMhz
 294              		.cfi_endproc
 295              	.LFE143:
 296              		.size	Cy_SysLib_DelayUs, .-Cy_SysLib_DelayUs
 297              		.section	.text.Cy_SysLib_Halt,"ax",%progbits
 298              		.align	2
 299              		.global	Cy_SysLib_Halt
 300              		.thumb
 301              		.thumb_func
 302              		.type	Cy_SysLib_Halt, %function
 303              	Cy_SysLib_Halt:
 304              	.LFB144:
 158:Generated_Source\PSoC6\pdl\drivers\peripheral\syslib/cy_syslib.c ****     if(0u != reason)
 305              		.loc 1 158 0
 306              		.cfi_startproc
 307              		@ Volatile: function does not return.
 308              		@ args = 0, pretend = 0, frame = 0
 309              		@ frame_needed = 0, uses_anonymous_args = 0
 310              		@ link register save eliminated.
 311              	.LVL21:
 167:Generated_Source\PSoC6\pdl\drivers\peripheral\syslib/cy_syslib.c ****     #elif defined (__ICCARM__)
 312              		.loc 1 167 0
 313              		.syntax unified
 314              	@ 167 "Generated_Source\PSoC6\pdl\drivers\peripheral\syslib\cy_syslib.c" 1
 315 0000 01BE     		    bkpt    1
 316              	@ 0 "" 2
 317              		.thumb
 318              		.syntax unified
 319              	.L34:
 320 0002 FEE7     		b	.L34
 321              		.cfi_endproc
 322              	.LFE144:
 323              		.size	Cy_SysLib_Halt, .-Cy_SysLib_Halt
 324              		.section	.text.Cy_SysLib_AssertFailed,"ax",%progbits
 325              		.align	2
 326              		.weak	Cy_SysLib_AssertFailed
 327              		.thumb
 328              		.thumb_func
 329              		.type	Cy_SysLib_AssertFailed, %function
 330              	Cy_SysLib_AssertFailed:
 331              	.LFB145:
 197:Generated_Source\PSoC6\pdl\drivers\peripheral\syslib/cy_syslib.c ****     (void) strncpy(cy_assertFileName, file, CY_MAX_FILE_NAME_SIZE);
 332              		.loc 1 197 0
 333              		.cfi_startproc
 334              		@ args = 0, pretend = 0, frame = 0
 335              		@ frame_needed = 0, uses_anonymous_args = 0
 336              	.LVL22:
 337 0000 38B5     		push	{r3, r4, r5, lr}
 338              		.cfi_def_cfa_offset 16
 339              		.cfi_offset 3, -16
 340              		.cfi_offset 4, -12
 341              		.cfi_offset 5, -8
 342              		.cfi_offset 14, -4
ARM GAS  C:\Users\kiwamu\AppData\Local\Temp\ccE2Z6Jb.s 			page 20


 343 0002 0D46     		mov	r5, r1
 198:Generated_Source\PSoC6\pdl\drivers\peripheral\syslib/cy_syslib.c ****     cy_assertLine = line;
 344              		.loc 1 198 0
 345 0004 044C     		ldr	r4, .L37
 346 0006 1822     		movs	r2, #24
 347 0008 0146     		mov	r1, r0
 348              	.LVL23:
 349 000a 2046     		mov	r0, r4
 350              	.LVL24:
 351 000c FFF7FEFF 		bl	strncpy
 352              	.LVL25:
 199:Generated_Source\PSoC6\pdl\drivers\peripheral\syslib/cy_syslib.c ****     Cy_SysLib_Halt(0UL);
 353              		.loc 1 199 0
 354 0010 A561     		str	r5, [r4, #24]
 200:Generated_Source\PSoC6\pdl\drivers\peripheral\syslib/cy_syslib.c **** }
 355              		.loc 1 200 0
 356 0012 0020     		movs	r0, #0
 357 0014 FFF7FEFF 		bl	Cy_SysLib_Halt
 358              	.LVL26:
 359              	.L38:
 360              		.align	2
 361              	.L37:
 362 0018 00000000 		.word	.LANCHOR0
 363              		.cfi_endproc
 364              	.LFE145:
 365              		.size	Cy_SysLib_AssertFailed, .-Cy_SysLib_AssertFailed
 366              		.section	.text.Cy_SysLib_ClearFlashCacheAndBuffer,"ax",%progbits
 367              		.align	2
 368              		.global	Cy_SysLib_ClearFlashCacheAndBuffer
 369              		.thumb
 370              		.thumb_func
 371              		.type	Cy_SysLib_ClearFlashCacheAndBuffer, %function
 372              	Cy_SysLib_ClearFlashCacheAndBuffer:
 373              	.LFB146:
 218:Generated_Source\PSoC6\pdl\drivers\peripheral\syslib/cy_syslib.c ****     FLASHC->FLASH_CMD = FLASHC_FLASH_CMD_INV_Msk;
 374              		.loc 1 218 0
 375              		.cfi_startproc
 376              		@ args = 0, pretend = 0, frame = 0
 377              		@ frame_needed = 0, uses_anonymous_args = 0
 378              		@ link register save eliminated.
 219:Generated_Source\PSoC6\pdl\drivers\peripheral\syslib/cy_syslib.c **** }
 379              		.loc 1 219 0
 380 0000 0122     		movs	r2, #1
 381 0002 014B     		ldr	r3, .L40
 382 0004 9A60     		str	r2, [r3, #8]
 383 0006 7047     		bx	lr
 384              	.L41:
 385              		.align	2
 386              	.L40:
 387 0008 00002540 		.word	1076166656
 388              		.cfi_endproc
 389              	.LFE146:
 390              		.size	Cy_SysLib_ClearFlashCacheAndBuffer, .-Cy_SysLib_ClearFlashCacheAndBuffer
 391              		.section	.text.Cy_SysLib_ResetBackupDomain,"ax",%progbits
 392              		.align	2
 393              		.global	Cy_SysLib_ResetBackupDomain
 394              		.thumb
ARM GAS  C:\Users\kiwamu\AppData\Local\Temp\ccE2Z6Jb.s 			page 21


 395              		.thumb_func
 396              		.type	Cy_SysLib_ResetBackupDomain, %function
 397              	Cy_SysLib_ResetBackupDomain:
 398              	.LFB147:
 243:Generated_Source\PSoC6\pdl\drivers\peripheral\syslib/cy_syslib.c ****     BACKUP->RESET = BACKUP_RESET_RESET_Msk;
 399              		.loc 1 243 0
 400              		.cfi_startproc
 401              		@ args = 0, pretend = 0, frame = 0
 402              		@ frame_needed = 0, uses_anonymous_args = 0
 403              		@ link register save eliminated.
 244:Generated_Source\PSoC6\pdl\drivers\peripheral\syslib/cy_syslib.c **** 
 404              		.loc 1 244 0
 405 0000 054B     		ldr	r3, .L45
 406 0002 4FF00042 		mov	r2, #-2147483648
 407 0006 9A64     		str	r2, [r3, #72]
 246:Generated_Source\PSoC6\pdl\drivers\peripheral\syslib/cy_syslib.c **** }
 408              		.loc 1 246 0
 409 0008 9B6C     		ldr	r3, [r3, #72]
 410 000a 002B     		cmp	r3, #0
 411 000c 01DB     		blt	.L44
 412 000e 0020     		movs	r0, #0
 413 0010 7047     		bx	lr
 414              	.L44:
 415 0012 0248     		ldr	r0, .L45+4
 247:Generated_Source\PSoC6\pdl\drivers\peripheral\syslib/cy_syslib.c **** 
 416              		.loc 1 247 0
 417 0014 7047     		bx	lr
 418              	.L46:
 419 0016 00BF     		.align	2
 420              	.L45:
 421 0018 00002740 		.word	1076297728
 422 001c 03004600 		.word	4587523
 423              		.cfi_endproc
 424              	.LFE147:
 425              		.size	Cy_SysLib_ResetBackupDomain, .-Cy_SysLib_ResetBackupDomain
 426              		.section	.text.Cy_SysLib_GetResetReason,"ax",%progbits
 427              		.align	2
 428              		.global	Cy_SysLib_GetResetReason
 429              		.thumb
 430              		.thumb_func
 431              		.type	Cy_SysLib_GetResetReason, %function
 432              	Cy_SysLib_GetResetReason:
 433              	.LFB148:
 283:Generated_Source\PSoC6\pdl\drivers\peripheral\syslib/cy_syslib.c ****     uint32_t retVal;
 434              		.loc 1 283 0
 435              		.cfi_startproc
 436              		@ args = 0, pretend = 0, frame = 0
 437              		@ frame_needed = 0, uses_anonymous_args = 0
 438              		@ link register save eliminated.
 286:Generated_Source\PSoC6\pdl\drivers\peripheral\syslib/cy_syslib.c **** 
 439              		.loc 1 286 0
 440 0000 044B     		ldr	r3, .L49
 441 0002 D3F80008 		ldr	r0, [r3, #2048]
 442              	.LVL27:
 293:Generated_Source\PSoC6\pdl\drivers\peripheral\syslib/cy_syslib.c ****     {
 443              		.loc 1 293 0
 444 0006 5B68     		ldr	r3, [r3, #4]
ARM GAS  C:\Users\kiwamu\AppData\Local\Temp\ccE2Z6Jb.s 			page 22


 445 0008 13F0FF0F 		tst	r3, #255
 446 000c 01D0     		beq	.L48
 295:Generated_Source\PSoC6\pdl\drivers\peripheral\syslib/cy_syslib.c ****     }
 447              		.loc 1 295 0
 448 000e 40F48020 		orr	r0, r0, #262144
 449              	.LVL28:
 450              	.L48:
 299:Generated_Source\PSoC6\pdl\drivers\peripheral\syslib/cy_syslib.c **** 
 451              		.loc 1 299 0
 452 0012 7047     		bx	lr
 453              	.L50:
 454              		.align	2
 455              	.L49:
 456 0014 00002640 		.word	1076232192
 457              		.cfi_endproc
 458              	.LFE148:
 459              		.size	Cy_SysLib_GetResetReason, .-Cy_SysLib_GetResetReason
 460              		.section	.text.Cy_SysLib_ClearResetReason,"ax",%progbits
 461              		.align	2
 462              		.global	Cy_SysLib_ClearResetReason
 463              		.thumb
 464              		.thumb_func
 465              		.type	Cy_SysLib_ClearResetReason, %function
 466              	Cy_SysLib_ClearResetReason:
 467              	.LFB149:
 337:Generated_Source\PSoC6\pdl\drivers\peripheral\syslib/cy_syslib.c ****     /* RES_CAUSE and RES_CAUSE2 register's bits are RW1C (every bit is cleared upon writing 1),
 468              		.loc 1 337 0
 469              		.cfi_startproc
 470              		@ args = 0, pretend = 0, frame = 0
 471              		@ frame_needed = 0, uses_anonymous_args = 0
 472              		@ link register save eliminated.
 341:Generated_Source\PSoC6\pdl\drivers\peripheral\syslib/cy_syslib.c ****     SRSS->RES_CAUSE2 = 0xFFFFFFFFu;
 473              		.loc 1 341 0
 474 0000 084B     		ldr	r3, .L53
 475 0002 4FF0FF32 		mov	r2, #-1
 476 0006 C3F80028 		str	r2, [r3, #2048]
 342:Generated_Source\PSoC6\pdl\drivers\peripheral\syslib/cy_syslib.c ****     
 477              		.loc 1 342 0
 478 000a C3F80428 		str	r2, [r3, #2052]
 344:Generated_Source\PSoC6\pdl\drivers\peripheral\syslib/cy_syslib.c ****     {
 479              		.loc 1 344 0
 480 000e 5B68     		ldr	r3, [r3, #4]
 481 0010 13F0FF0F 		tst	r3, #255
 482 0014 04D0     		beq	.L51
 347:Generated_Source\PSoC6\pdl\drivers\peripheral\syslib/cy_syslib.c ****     }
 483              		.loc 1 347 0
 484 0016 034A     		ldr	r2, .L53
 485 0018 5368     		ldr	r3, [r2, #4]
 486 001a 23F0FF03 		bic	r3, r3, #255
 487 001e 5360     		str	r3, [r2, #4]
 488              	.L51:
 489 0020 7047     		bx	lr
 490              	.L54:
 491 0022 00BF     		.align	2
 492              	.L53:
 493 0024 00002640 		.word	1076232192
 494              		.cfi_endproc
ARM GAS  C:\Users\kiwamu\AppData\Local\Temp\ccE2Z6Jb.s 			page 23


 495              	.LFE149:
 496              		.size	Cy_SysLib_ClearResetReason, .-Cy_SysLib_ClearResetReason
 497              		.section	.text.Cy_SysLib_GetUniqueId,"ax",%progbits
 498              		.align	2
 499              		.global	Cy_SysLib_GetUniqueId
 500              		.thumb
 501              		.thumb_func
 502              		.type	Cy_SysLib_GetUniqueId, %function
 503              	Cy_SysLib_GetUniqueId:
 504              	.LFB150:
 412:Generated_Source\PSoC6\pdl\drivers\peripheral\syslib/cy_syslib.c ****     uint64_t uniqueId;
 505              		.loc 1 412 0
 506              		.cfi_startproc
 507              		@ args = 0, pretend = 0, frame = 0
 508              		@ frame_needed = 0, uses_anonymous_args = 0
 509              		@ link register save eliminated.
 510 0000 F0B4     		push	{r4, r5, r6, r7}
 511              		.cfi_def_cfa_offset 16
 512              		.cfi_offset 4, -16
 513              		.cfi_offset 5, -12
 514              		.cfi_offset 6, -8
 515              		.cfi_offset 7, -4
 415:Generated_Source\PSoC6\pdl\drivers\peripheral\syslib/cy_syslib.c ****                (((uint64_t)SFLASH->DIE_MINOR & 1u) << CY_UNIQUE_ID_DIE_MINOR_Pos) |
 516              		.loc 1 415 0
 517 0002 4FF0B051 		mov	r1, #369098752
 518 0006 91F80A36 		ldrb	r3, [r1, #1546]	@ zero_extendqisi2
 519 000a 0024     		movs	r4, #0
 520 000c 5D06     		lsls	r5, r3, #25
 416:Generated_Source\PSoC6\pdl\drivers\peripheral\syslib/cy_syslib.c ****                ((uint64_t)SFLASH->DIE_SORT         << CY_UNIQUE_ID_DIE_SORT_Pos)  |
 521              		.loc 1 416 0
 522 000e 91F80706 		ldrb	r0, [r1, #1543]	@ zero_extendqisi2
 523 0012 00F00100 		and	r0, r0, #1
 524 0016 0306     		lsls	r3, r0, #24
 525 0018 2246     		mov	r2, r4
 415:Generated_Source\PSoC6\pdl\drivers\peripheral\syslib/cy_syslib.c ****                (((uint64_t)SFLASH->DIE_MINOR & 1u) << CY_UNIQUE_ID_DIE_MINOR_Pos) |
 526              		.loc 1 415 0
 527 001a 2243     		orrs	r2, r2, r4
 528 001c 2B43     		orrs	r3, r3, r5
 417:Generated_Source\PSoC6\pdl\drivers\peripheral\syslib/cy_syslib.c ****                ((uint64_t)SFLASH->DIE_Y            << CY_UNIQUE_ID_DIE_Y_Pos)     |
 529              		.loc 1 417 0
 530 001e 91F80606 		ldrb	r0, [r1, #1542]	@ zero_extendqisi2
 531 0022 0704     		lsls	r7, r0, #16
 416:Generated_Source\PSoC6\pdl\drivers\peripheral\syslib/cy_syslib.c ****                ((uint64_t)SFLASH->DIE_SORT         << CY_UNIQUE_ID_DIE_SORT_Pos)  |
 532              		.loc 1 416 0
 533 0024 2243     		orrs	r2, r2, r4
 534 0026 3B43     		orrs	r3, r3, r7
 418:Generated_Source\PSoC6\pdl\drivers\peripheral\syslib/cy_syslib.c ****                ((uint64_t)SFLASH->DIE_X            << CY_UNIQUE_ID_DIE_X_Pos)     |
 535              		.loc 1 418 0
 536 0028 91F80506 		ldrb	r0, [r1, #1541]	@ zero_extendqisi2
 537 002c 0702     		lsls	r7, r0, #8
 417:Generated_Source\PSoC6\pdl\drivers\peripheral\syslib/cy_syslib.c ****                ((uint64_t)SFLASH->DIE_Y            << CY_UNIQUE_ID_DIE_Y_Pos)     |
 538              		.loc 1 417 0
 539 002e 2243     		orrs	r2, r2, r4
 540 0030 3B43     		orrs	r3, r3, r7
 419:Generated_Source\PSoC6\pdl\drivers\peripheral\syslib/cy_syslib.c ****                ((uint64_t)SFLASH->DIE_WAFER        << CY_UNIQUE_ID_DIE_WAFER_Pos) |
 541              		.loc 1 419 0
 542 0032 91F80406 		ldrb	r0, [r1, #1540]	@ zero_extendqisi2
ARM GAS  C:\Users\kiwamu\AppData\Local\Temp\ccE2Z6Jb.s 			page 24


 418:Generated_Source\PSoC6\pdl\drivers\peripheral\syslib/cy_syslib.c ****                ((uint64_t)SFLASH->DIE_X            << CY_UNIQUE_ID_DIE_X_Pos)     |
 543              		.loc 1 418 0
 544 0036 2243     		orrs	r2, r2, r4
 545 0038 0343     		orrs	r3, r3, r0
 420:Generated_Source\PSoC6\pdl\drivers\peripheral\syslib/cy_syslib.c ****                ((uint64_t)SFLASH->DIE_LOT[2u]      << CY_UNIQUE_ID_DIE_LOT_2_Pos) |
 546              		.loc 1 420 0
 547 003a 91F80306 		ldrb	r0, [r1, #1539]	@ zero_extendqisi2
 548 003e 0025     		movs	r5, #0
 549 0040 0406     		lsls	r4, r0, #24
 419:Generated_Source\PSoC6\pdl\drivers\peripheral\syslib/cy_syslib.c ****                ((uint64_t)SFLASH->DIE_WAFER        << CY_UNIQUE_ID_DIE_WAFER_Pos) |
 550              		.loc 1 419 0
 551 0042 2243     		orrs	r2, r2, r4
 552 0044 2B43     		orrs	r3, r3, r5
 421:Generated_Source\PSoC6\pdl\drivers\peripheral\syslib/cy_syslib.c ****                ((uint64_t)SFLASH->DIE_LOT[1u]      << CY_UNIQUE_ID_DIE_LOT_1_Pos) |
 553              		.loc 1 421 0
 554 0046 91F80206 		ldrb	r0, [r1, #1538]	@ zero_extendqisi2
 555 004a 0025     		movs	r5, #0
 556 004c 0404     		lsls	r4, r0, #16
 420:Generated_Source\PSoC6\pdl\drivers\peripheral\syslib/cy_syslib.c ****                ((uint64_t)SFLASH->DIE_LOT[2u]      << CY_UNIQUE_ID_DIE_LOT_2_Pos) |
 557              		.loc 1 420 0
 558 004e 2243     		orrs	r2, r2, r4
 559 0050 2B43     		orrs	r3, r3, r5
 422:Generated_Source\PSoC6\pdl\drivers\peripheral\syslib/cy_syslib.c ****                ((uint64_t)SFLASH->DIE_LOT[0u]      << CY_UNIQUE_ID_DIE_LOT_0_Pos);
 560              		.loc 1 422 0
 561 0052 91F80106 		ldrb	r0, [r1, #1537]	@ zero_extendqisi2
 562 0056 0025     		movs	r5, #0
 563 0058 0402     		lsls	r4, r0, #8
 421:Generated_Source\PSoC6\pdl\drivers\peripheral\syslib/cy_syslib.c ****                ((uint64_t)SFLASH->DIE_LOT[1u]      << CY_UNIQUE_ID_DIE_LOT_1_Pos) |
 564              		.loc 1 421 0
 565 005a 2243     		orrs	r2, r2, r4
 566 005c 2B43     		orrs	r3, r3, r5
 423:Generated_Source\PSoC6\pdl\drivers\peripheral\syslib/cy_syslib.c **** 
 567              		.loc 1 423 0
 568 005e 91F80006 		ldrb	r0, [r1, #1536]	@ zero_extendqisi2
 569              	.LVL29:
 426:Generated_Source\PSoC6\pdl\drivers\peripheral\syslib/cy_syslib.c **** 
 570              		.loc 1 426 0
 571 0062 42EA0002 		orr	r2, r2, r0
 572              	.LVL30:
 573 0066 1046     		mov	r0, r2
 574 0068 1946     		mov	r1, r3
 575 006a F0BC     		pop	{r4, r5, r6, r7}
 576              		.cfi_restore 7
 577              		.cfi_restore 6
 578              		.cfi_restore 5
 579              		.cfi_restore 4
 580              		.cfi_def_cfa_offset 0
 581 006c 7047     		bx	lr
 582              		.cfi_endproc
 583              	.LFE150:
 584              		.size	Cy_SysLib_GetUniqueId, .-Cy_SysLib_GetUniqueId
 585 006e 00BF     		.section	.text.Cy_SysLib_ProcessingFault,"ax",%progbits
 586              		.align	2
 587              		.weak	Cy_SysLib_ProcessingFault
 588              		.thumb
 589              		.thumb_func
 590              		.type	Cy_SysLib_ProcessingFault, %function
ARM GAS  C:\Users\kiwamu\AppData\Local\Temp\ccE2Z6Jb.s 			page 25


 591              	Cy_SysLib_ProcessingFault:
 592              	.LFB152:
 528:Generated_Source\PSoC6\pdl\drivers\peripheral\syslib/cy_syslib.c ****     #if defined(__ARMCC_VERSION)
 593              		.loc 1 528 0
 594              		.cfi_startproc
 595              		@ args = 0, pretend = 0, frame = 0
 596              		@ frame_needed = 0, uses_anonymous_args = 0
 597              		@ link register save eliminated.
 598              	.L58:
 599 0000 FEE7     		b	.L58
 600              		.cfi_endproc
 601              	.LFE152:
 602              		.size	Cy_SysLib_ProcessingFault, .-Cy_SysLib_ProcessingFault
 603 0002 00BF     		.section	.text.Cy_SysLib_FaultHandler,"ax",%progbits
 604              		.align	2
 605              		.global	Cy_SysLib_FaultHandler
 606              		.thumb
 607              		.thumb_func
 608              		.type	Cy_SysLib_FaultHandler, %function
 609              	Cy_SysLib_FaultHandler:
 610              	.LFB151:
 460:Generated_Source\PSoC6\pdl\drivers\peripheral\syslib/cy_syslib.c ****     /* Stores general registers */
 611              		.loc 1 460 0
 612              		.cfi_startproc
 613              		@ args = 0, pretend = 0, frame = 0
 614              		@ frame_needed = 0, uses_anonymous_args = 0
 615              	.LVL31:
 460:Generated_Source\PSoC6\pdl\drivers\peripheral\syslib/cy_syslib.c ****     /* Stores general registers */
 616              		.loc 1 460 0
 617 0000 08B5     		push	{r3, lr}
 618              		.cfi_def_cfa_offset 8
 619              		.cfi_offset 3, -8
 620              		.cfi_offset 14, -4
 462:Generated_Source\PSoC6\pdl\drivers\peripheral\syslib/cy_syslib.c ****     cy_faultFrame.r1  = faultStackAddr[CY_R1_Pos];
 621              		.loc 1 462 0
 622 0002 0268     		ldr	r2, [r0]
 623 0004 254B     		ldr	r3, .L62
 624 0006 DA61     		str	r2, [r3, #28]
 463:Generated_Source\PSoC6\pdl\drivers\peripheral\syslib/cy_syslib.c ****     cy_faultFrame.r2  = faultStackAddr[CY_R2_Pos];
 625              		.loc 1 463 0
 626 0008 4268     		ldr	r2, [r0, #4]
 627 000a 1A62     		str	r2, [r3, #32]
 464:Generated_Source\PSoC6\pdl\drivers\peripheral\syslib/cy_syslib.c ****     cy_faultFrame.r3  = faultStackAddr[CY_R3_Pos];
 628              		.loc 1 464 0
 629 000c 8268     		ldr	r2, [r0, #8]
 630 000e 5A62     		str	r2, [r3, #36]
 465:Generated_Source\PSoC6\pdl\drivers\peripheral\syslib/cy_syslib.c ****     cy_faultFrame.r12 = faultStackAddr[CY_R12_Pos];
 631              		.loc 1 465 0
 632 0010 C268     		ldr	r2, [r0, #12]
 633 0012 9A62     		str	r2, [r3, #40]
 466:Generated_Source\PSoC6\pdl\drivers\peripheral\syslib/cy_syslib.c ****     cy_faultFrame.lr  = faultStackAddr[CY_LR_Pos];
 634              		.loc 1 466 0
 635 0014 0269     		ldr	r2, [r0, #16]
 636 0016 DA62     		str	r2, [r3, #44]
 467:Generated_Source\PSoC6\pdl\drivers\peripheral\syslib/cy_syslib.c ****     cy_faultFrame.pc  = faultStackAddr[CY_PC_Pos];
 637              		.loc 1 467 0
 638 0018 4269     		ldr	r2, [r0, #20]
ARM GAS  C:\Users\kiwamu\AppData\Local\Temp\ccE2Z6Jb.s 			page 26


 639 001a 1A63     		str	r2, [r3, #48]
 468:Generated_Source\PSoC6\pdl\drivers\peripheral\syslib/cy_syslib.c ****     cy_faultFrame.psr = faultStackAddr[CY_PSR_Pos];
 640              		.loc 1 468 0
 641 001c 8269     		ldr	r2, [r0, #24]
 642 001e 5A63     		str	r2, [r3, #52]
 469:Generated_Source\PSoC6\pdl\drivers\peripheral\syslib/cy_syslib.c **** 
 643              		.loc 1 469 0
 644 0020 C269     		ldr	r2, [r0, #28]
 645 0022 9A63     		str	r2, [r3, #56]
 473:Generated_Source\PSoC6\pdl\drivers\peripheral\syslib/cy_syslib.c ****         /* Stores the Hard Fault Status Register */
 646              		.loc 1 473 0
 647 0024 1E4A     		ldr	r2, .L62+4
 648 0026 916A     		ldr	r1, [r2, #40]
 649 0028 D963     		str	r1, [r3, #60]
 475:Generated_Source\PSoC6\pdl\drivers\peripheral\syslib/cy_syslib.c ****         /* Stores the System Handler Control and State Register */
 650              		.loc 1 475 0
 651 002a D16A     		ldr	r1, [r2, #44]
 652 002c 1964     		str	r1, [r3, #64]
 477:Generated_Source\PSoC6\pdl\drivers\peripheral\syslib/cy_syslib.c ****         /* Store MemMange fault address */
 653              		.loc 1 477 0
 654 002e 516A     		ldr	r1, [r2, #36]
 655 0030 5964     		str	r1, [r3, #68]
 479:Generated_Source\PSoC6\pdl\drivers\peripheral\syslib/cy_syslib.c ****         /* Store Bus fault address */
 656              		.loc 1 479 0
 657 0032 516B     		ldr	r1, [r2, #52]
 658 0034 9964     		str	r1, [r3, #72]
 481:Generated_Source\PSoC6\pdl\drivers\peripheral\syslib/cy_syslib.c **** 
 659              		.loc 1 481 0
 660 0036 926B     		ldr	r2, [r2, #56]
 661 0038 DA64     		str	r2, [r3, #76]
 662              	.LBB4:
 663              	.LBB5:
 664              		.file 2 "Generated_Source\\PSoC6\\pdl\\cmsis/include/cmsis_gcc.h"
   1:Generated_Source\PSoC6\pdl\cmsis/include/cmsis_gcc.h **** /**************************************************************************//**
   2:Generated_Source\PSoC6\pdl\cmsis/include/cmsis_gcc.h ****  * @file     cmsis_gcc.h
   3:Generated_Source\PSoC6\pdl\cmsis/include/cmsis_gcc.h ****  * @brief    CMSIS compiler GCC header file
   4:Generated_Source\PSoC6\pdl\cmsis/include/cmsis_gcc.h ****  * @version  V5.0.1
   5:Generated_Source\PSoC6\pdl\cmsis/include/cmsis_gcc.h ****  * @date     02. February 2017
   6:Generated_Source\PSoC6\pdl\cmsis/include/cmsis_gcc.h ****  ******************************************************************************/
   7:Generated_Source\PSoC6\pdl\cmsis/include/cmsis_gcc.h **** /*
   8:Generated_Source\PSoC6\pdl\cmsis/include/cmsis_gcc.h ****  * Copyright (c) 2009-2017 ARM Limited. All rights reserved.
   9:Generated_Source\PSoC6\pdl\cmsis/include/cmsis_gcc.h ****  *
  10:Generated_Source\PSoC6\pdl\cmsis/include/cmsis_gcc.h ****  * SPDX-License-Identifier: Apache-2.0
  11:Generated_Source\PSoC6\pdl\cmsis/include/cmsis_gcc.h ****  *
  12:Generated_Source\PSoC6\pdl\cmsis/include/cmsis_gcc.h ****  * Licensed under the Apache License, Version 2.0 (the License); you may
  13:Generated_Source\PSoC6\pdl\cmsis/include/cmsis_gcc.h ****  * not use this file except in compliance with the License.
  14:Generated_Source\PSoC6\pdl\cmsis/include/cmsis_gcc.h ****  * You may obtain a copy of the License at
  15:Generated_Source\PSoC6\pdl\cmsis/include/cmsis_gcc.h ****  *
  16:Generated_Source\PSoC6\pdl\cmsis/include/cmsis_gcc.h ****  * www.apache.org/licenses/LICENSE-2.0
  17:Generated_Source\PSoC6\pdl\cmsis/include/cmsis_gcc.h ****  *
  18:Generated_Source\PSoC6\pdl\cmsis/include/cmsis_gcc.h ****  * Unless required by applicable law or agreed to in writing, software
  19:Generated_Source\PSoC6\pdl\cmsis/include/cmsis_gcc.h ****  * distributed under the License is distributed on an AS IS BASIS, WITHOUT
  20:Generated_Source\PSoC6\pdl\cmsis/include/cmsis_gcc.h ****  * WARRANTIES OR CONDITIONS OF ANY KIND, either express or implied.
  21:Generated_Source\PSoC6\pdl\cmsis/include/cmsis_gcc.h ****  * See the License for the specific language governing permissions and
  22:Generated_Source\PSoC6\pdl\cmsis/include/cmsis_gcc.h ****  * limitations under the License.
  23:Generated_Source\PSoC6\pdl\cmsis/include/cmsis_gcc.h ****  */
  24:Generated_Source\PSoC6\pdl\cmsis/include/cmsis_gcc.h **** 
ARM GAS  C:\Users\kiwamu\AppData\Local\Temp\ccE2Z6Jb.s 			page 27


  25:Generated_Source\PSoC6\pdl\cmsis/include/cmsis_gcc.h **** #ifndef __CMSIS_GCC_H
  26:Generated_Source\PSoC6\pdl\cmsis/include/cmsis_gcc.h **** #define __CMSIS_GCC_H
  27:Generated_Source\PSoC6\pdl\cmsis/include/cmsis_gcc.h **** 
  28:Generated_Source\PSoC6\pdl\cmsis/include/cmsis_gcc.h **** /* ignore some GCC warnings */
  29:Generated_Source\PSoC6\pdl\cmsis/include/cmsis_gcc.h **** #pragma GCC diagnostic push
  30:Generated_Source\PSoC6\pdl\cmsis/include/cmsis_gcc.h **** #pragma GCC diagnostic ignored "-Wsign-conversion"
  31:Generated_Source\PSoC6\pdl\cmsis/include/cmsis_gcc.h **** #pragma GCC diagnostic ignored "-Wconversion"
  32:Generated_Source\PSoC6\pdl\cmsis/include/cmsis_gcc.h **** #pragma GCC diagnostic ignored "-Wunused-parameter"
  33:Generated_Source\PSoC6\pdl\cmsis/include/cmsis_gcc.h **** 
  34:Generated_Source\PSoC6\pdl\cmsis/include/cmsis_gcc.h **** /* CMSIS compiler specific defines */
  35:Generated_Source\PSoC6\pdl\cmsis/include/cmsis_gcc.h **** #ifndef   __ASM
  36:Generated_Source\PSoC6\pdl\cmsis/include/cmsis_gcc.h ****   #define __ASM                     __asm
  37:Generated_Source\PSoC6\pdl\cmsis/include/cmsis_gcc.h **** #endif
  38:Generated_Source\PSoC6\pdl\cmsis/include/cmsis_gcc.h **** #ifndef   __INLINE
  39:Generated_Source\PSoC6\pdl\cmsis/include/cmsis_gcc.h ****   #define __INLINE                  inline
  40:Generated_Source\PSoC6\pdl\cmsis/include/cmsis_gcc.h **** #endif
  41:Generated_Source\PSoC6\pdl\cmsis/include/cmsis_gcc.h **** #ifndef   __STATIC_INLINE
  42:Generated_Source\PSoC6\pdl\cmsis/include/cmsis_gcc.h ****   #define __STATIC_INLINE           static inline
  43:Generated_Source\PSoC6\pdl\cmsis/include/cmsis_gcc.h **** #endif
  44:Generated_Source\PSoC6\pdl\cmsis/include/cmsis_gcc.h **** #ifndef   __NO_RETURN
  45:Generated_Source\PSoC6\pdl\cmsis/include/cmsis_gcc.h ****   #define __NO_RETURN               __attribute__((noreturn))
  46:Generated_Source\PSoC6\pdl\cmsis/include/cmsis_gcc.h **** #endif
  47:Generated_Source\PSoC6\pdl\cmsis/include/cmsis_gcc.h **** #ifndef   __USED
  48:Generated_Source\PSoC6\pdl\cmsis/include/cmsis_gcc.h ****   #define __USED                    __attribute__((used))
  49:Generated_Source\PSoC6\pdl\cmsis/include/cmsis_gcc.h **** #endif
  50:Generated_Source\PSoC6\pdl\cmsis/include/cmsis_gcc.h **** #ifndef   __WEAK
  51:Generated_Source\PSoC6\pdl\cmsis/include/cmsis_gcc.h ****   #define __WEAK                    __attribute__((weak))
  52:Generated_Source\PSoC6\pdl\cmsis/include/cmsis_gcc.h **** #endif
  53:Generated_Source\PSoC6\pdl\cmsis/include/cmsis_gcc.h **** #ifndef   __UNALIGNED_UINT32
  54:Generated_Source\PSoC6\pdl\cmsis/include/cmsis_gcc.h **** #pragma GCC diagnostic push
  55:Generated_Source\PSoC6\pdl\cmsis/include/cmsis_gcc.h **** #pragma GCC diagnostic ignored "-Wpacked"
  56:Generated_Source\PSoC6\pdl\cmsis/include/cmsis_gcc.h **** #pragma GCC diagnostic ignored "-Wattributes"
  57:Generated_Source\PSoC6\pdl\cmsis/include/cmsis_gcc.h ****   struct __attribute__((packed)) T_UINT32 { uint32_t v; };
  58:Generated_Source\PSoC6\pdl\cmsis/include/cmsis_gcc.h **** #pragma GCC diagnostic pop
  59:Generated_Source\PSoC6\pdl\cmsis/include/cmsis_gcc.h ****   #define __UNALIGNED_UINT32(x)     (((struct T_UINT32 *)(x))->v)
  60:Generated_Source\PSoC6\pdl\cmsis/include/cmsis_gcc.h **** #endif
  61:Generated_Source\PSoC6\pdl\cmsis/include/cmsis_gcc.h **** #ifndef   __ALIGNED
  62:Generated_Source\PSoC6\pdl\cmsis/include/cmsis_gcc.h ****   #define __ALIGNED(x)              __attribute__((aligned(x)))
  63:Generated_Source\PSoC6\pdl\cmsis/include/cmsis_gcc.h **** #endif
  64:Generated_Source\PSoC6\pdl\cmsis/include/cmsis_gcc.h **** #ifndef   __PACKED
  65:Generated_Source\PSoC6\pdl\cmsis/include/cmsis_gcc.h ****   #define __PACKED                  __attribute__((packed, aligned(1)))
  66:Generated_Source\PSoC6\pdl\cmsis/include/cmsis_gcc.h **** #endif
  67:Generated_Source\PSoC6\pdl\cmsis/include/cmsis_gcc.h **** #ifndef   __PACKED_STRUCT
  68:Generated_Source\PSoC6\pdl\cmsis/include/cmsis_gcc.h ****   #define __PACKED_STRUCT           struct __attribute__((packed, aligned(1)))
  69:Generated_Source\PSoC6\pdl\cmsis/include/cmsis_gcc.h **** #endif
  70:Generated_Source\PSoC6\pdl\cmsis/include/cmsis_gcc.h **** 
  71:Generated_Source\PSoC6\pdl\cmsis/include/cmsis_gcc.h **** 
  72:Generated_Source\PSoC6\pdl\cmsis/include/cmsis_gcc.h **** /* ###########################  Core Function Access  ########################### */
  73:Generated_Source\PSoC6\pdl\cmsis/include/cmsis_gcc.h **** /** \ingroup  CMSIS_Core_FunctionInterface
  74:Generated_Source\PSoC6\pdl\cmsis/include/cmsis_gcc.h ****     \defgroup CMSIS_Core_RegAccFunctions CMSIS Core Register Access Functions
  75:Generated_Source\PSoC6\pdl\cmsis/include/cmsis_gcc.h ****   @{
  76:Generated_Source\PSoC6\pdl\cmsis/include/cmsis_gcc.h ****  */
  77:Generated_Source\PSoC6\pdl\cmsis/include/cmsis_gcc.h **** 
  78:Generated_Source\PSoC6\pdl\cmsis/include/cmsis_gcc.h **** /**
  79:Generated_Source\PSoC6\pdl\cmsis/include/cmsis_gcc.h ****   \brief   Enable IRQ Interrupts
  80:Generated_Source\PSoC6\pdl\cmsis/include/cmsis_gcc.h ****   \details Enables IRQ interrupts by clearing the I-bit in the CPSR.
  81:Generated_Source\PSoC6\pdl\cmsis/include/cmsis_gcc.h ****            Can only be executed in Privileged modes.
ARM GAS  C:\Users\kiwamu\AppData\Local\Temp\ccE2Z6Jb.s 			page 28


  82:Generated_Source\PSoC6\pdl\cmsis/include/cmsis_gcc.h ****  */
  83:Generated_Source\PSoC6\pdl\cmsis/include/cmsis_gcc.h **** __attribute__((always_inline)) __STATIC_INLINE void __enable_irq(void)
  84:Generated_Source\PSoC6\pdl\cmsis/include/cmsis_gcc.h **** {
  85:Generated_Source\PSoC6\pdl\cmsis/include/cmsis_gcc.h ****   __ASM volatile ("cpsie i" : : : "memory");
  86:Generated_Source\PSoC6\pdl\cmsis/include/cmsis_gcc.h **** }
  87:Generated_Source\PSoC6\pdl\cmsis/include/cmsis_gcc.h **** 
  88:Generated_Source\PSoC6\pdl\cmsis/include/cmsis_gcc.h **** 
  89:Generated_Source\PSoC6\pdl\cmsis/include/cmsis_gcc.h **** /**
  90:Generated_Source\PSoC6\pdl\cmsis/include/cmsis_gcc.h ****   \brief   Disable IRQ Interrupts
  91:Generated_Source\PSoC6\pdl\cmsis/include/cmsis_gcc.h ****   \details Disables IRQ interrupts by setting the I-bit in the CPSR.
  92:Generated_Source\PSoC6\pdl\cmsis/include/cmsis_gcc.h ****            Can only be executed in Privileged modes.
  93:Generated_Source\PSoC6\pdl\cmsis/include/cmsis_gcc.h ****  */
  94:Generated_Source\PSoC6\pdl\cmsis/include/cmsis_gcc.h **** __attribute__((always_inline)) __STATIC_INLINE void __disable_irq(void)
  95:Generated_Source\PSoC6\pdl\cmsis/include/cmsis_gcc.h **** {
  96:Generated_Source\PSoC6\pdl\cmsis/include/cmsis_gcc.h ****   __ASM volatile ("cpsid i" : : : "memory");
  97:Generated_Source\PSoC6\pdl\cmsis/include/cmsis_gcc.h **** }
  98:Generated_Source\PSoC6\pdl\cmsis/include/cmsis_gcc.h **** 
  99:Generated_Source\PSoC6\pdl\cmsis/include/cmsis_gcc.h **** 
 100:Generated_Source\PSoC6\pdl\cmsis/include/cmsis_gcc.h **** /**
 101:Generated_Source\PSoC6\pdl\cmsis/include/cmsis_gcc.h ****   \brief   Get Control Register
 102:Generated_Source\PSoC6\pdl\cmsis/include/cmsis_gcc.h ****   \details Returns the content of the Control Register.
 103:Generated_Source\PSoC6\pdl\cmsis/include/cmsis_gcc.h ****   \return               Control Register value
 104:Generated_Source\PSoC6\pdl\cmsis/include/cmsis_gcc.h ****  */
 105:Generated_Source\PSoC6\pdl\cmsis/include/cmsis_gcc.h **** __attribute__((always_inline)) __STATIC_INLINE uint32_t __get_CONTROL(void)
 106:Generated_Source\PSoC6\pdl\cmsis/include/cmsis_gcc.h **** {
 107:Generated_Source\PSoC6\pdl\cmsis/include/cmsis_gcc.h ****   uint32_t result;
 108:Generated_Source\PSoC6\pdl\cmsis/include/cmsis_gcc.h **** 
 109:Generated_Source\PSoC6\pdl\cmsis/include/cmsis_gcc.h ****   __ASM volatile ("MRS %0, control" : "=r" (result) );
 110:Generated_Source\PSoC6\pdl\cmsis/include/cmsis_gcc.h ****   return(result);
 111:Generated_Source\PSoC6\pdl\cmsis/include/cmsis_gcc.h **** }
 112:Generated_Source\PSoC6\pdl\cmsis/include/cmsis_gcc.h **** 
 113:Generated_Source\PSoC6\pdl\cmsis/include/cmsis_gcc.h **** 
 114:Generated_Source\PSoC6\pdl\cmsis/include/cmsis_gcc.h **** #if (defined (__ARM_FEATURE_CMSE ) && (__ARM_FEATURE_CMSE == 3))
 115:Generated_Source\PSoC6\pdl\cmsis/include/cmsis_gcc.h **** /**
 116:Generated_Source\PSoC6\pdl\cmsis/include/cmsis_gcc.h ****   \brief   Get Control Register (non-secure)
 117:Generated_Source\PSoC6\pdl\cmsis/include/cmsis_gcc.h ****   \details Returns the content of the non-secure Control Register when in secure mode.
 118:Generated_Source\PSoC6\pdl\cmsis/include/cmsis_gcc.h ****   \return               non-secure Control Register value
 119:Generated_Source\PSoC6\pdl\cmsis/include/cmsis_gcc.h ****  */
 120:Generated_Source\PSoC6\pdl\cmsis/include/cmsis_gcc.h **** __attribute__((always_inline)) __STATIC_INLINE uint32_t __TZ_get_CONTROL_NS(void)
 121:Generated_Source\PSoC6\pdl\cmsis/include/cmsis_gcc.h **** {
 122:Generated_Source\PSoC6\pdl\cmsis/include/cmsis_gcc.h ****   uint32_t result;
 123:Generated_Source\PSoC6\pdl\cmsis/include/cmsis_gcc.h **** 
 124:Generated_Source\PSoC6\pdl\cmsis/include/cmsis_gcc.h ****   __ASM volatile ("MRS %0, control_ns" : "=r" (result) );
 125:Generated_Source\PSoC6\pdl\cmsis/include/cmsis_gcc.h ****   return(result);
 126:Generated_Source\PSoC6\pdl\cmsis/include/cmsis_gcc.h **** }
 127:Generated_Source\PSoC6\pdl\cmsis/include/cmsis_gcc.h **** #endif
 128:Generated_Source\PSoC6\pdl\cmsis/include/cmsis_gcc.h **** 
 129:Generated_Source\PSoC6\pdl\cmsis/include/cmsis_gcc.h **** 
 130:Generated_Source\PSoC6\pdl\cmsis/include/cmsis_gcc.h **** /**
 131:Generated_Source\PSoC6\pdl\cmsis/include/cmsis_gcc.h ****   \brief   Set Control Register
 132:Generated_Source\PSoC6\pdl\cmsis/include/cmsis_gcc.h ****   \details Writes the given value to the Control Register.
 133:Generated_Source\PSoC6\pdl\cmsis/include/cmsis_gcc.h ****   \param [in]    control  Control Register value to set
 134:Generated_Source\PSoC6\pdl\cmsis/include/cmsis_gcc.h ****  */
 135:Generated_Source\PSoC6\pdl\cmsis/include/cmsis_gcc.h **** __attribute__((always_inline)) __STATIC_INLINE void __set_CONTROL(uint32_t control)
 136:Generated_Source\PSoC6\pdl\cmsis/include/cmsis_gcc.h **** {
 137:Generated_Source\PSoC6\pdl\cmsis/include/cmsis_gcc.h ****   __ASM volatile ("MSR control, %0" : : "r" (control) : "memory");
 138:Generated_Source\PSoC6\pdl\cmsis/include/cmsis_gcc.h **** }
ARM GAS  C:\Users\kiwamu\AppData\Local\Temp\ccE2Z6Jb.s 			page 29


 139:Generated_Source\PSoC6\pdl\cmsis/include/cmsis_gcc.h **** 
 140:Generated_Source\PSoC6\pdl\cmsis/include/cmsis_gcc.h **** 
 141:Generated_Source\PSoC6\pdl\cmsis/include/cmsis_gcc.h **** #if (defined (__ARM_FEATURE_CMSE ) && (__ARM_FEATURE_CMSE == 3))
 142:Generated_Source\PSoC6\pdl\cmsis/include/cmsis_gcc.h **** /**
 143:Generated_Source\PSoC6\pdl\cmsis/include/cmsis_gcc.h ****   \brief   Set Control Register (non-secure)
 144:Generated_Source\PSoC6\pdl\cmsis/include/cmsis_gcc.h ****   \details Writes the given value to the non-secure Control Register when in secure state.
 145:Generated_Source\PSoC6\pdl\cmsis/include/cmsis_gcc.h ****   \param [in]    control  Control Register value to set
 146:Generated_Source\PSoC6\pdl\cmsis/include/cmsis_gcc.h ****  */
 147:Generated_Source\PSoC6\pdl\cmsis/include/cmsis_gcc.h **** __attribute__((always_inline)) __STATIC_INLINE void __TZ_set_CONTROL_NS(uint32_t control)
 148:Generated_Source\PSoC6\pdl\cmsis/include/cmsis_gcc.h **** {
 149:Generated_Source\PSoC6\pdl\cmsis/include/cmsis_gcc.h ****   __ASM volatile ("MSR control_ns, %0" : : "r" (control) : "memory");
 150:Generated_Source\PSoC6\pdl\cmsis/include/cmsis_gcc.h **** }
 151:Generated_Source\PSoC6\pdl\cmsis/include/cmsis_gcc.h **** #endif
 152:Generated_Source\PSoC6\pdl\cmsis/include/cmsis_gcc.h **** 
 153:Generated_Source\PSoC6\pdl\cmsis/include/cmsis_gcc.h **** 
 154:Generated_Source\PSoC6\pdl\cmsis/include/cmsis_gcc.h **** /**
 155:Generated_Source\PSoC6\pdl\cmsis/include/cmsis_gcc.h ****   \brief   Get IPSR Register
 156:Generated_Source\PSoC6\pdl\cmsis/include/cmsis_gcc.h ****   \details Returns the content of the IPSR Register.
 157:Generated_Source\PSoC6\pdl\cmsis/include/cmsis_gcc.h ****   \return               IPSR Register value
 158:Generated_Source\PSoC6\pdl\cmsis/include/cmsis_gcc.h ****  */
 159:Generated_Source\PSoC6\pdl\cmsis/include/cmsis_gcc.h **** __attribute__((always_inline)) __STATIC_INLINE uint32_t __get_IPSR(void)
 160:Generated_Source\PSoC6\pdl\cmsis/include/cmsis_gcc.h **** {
 161:Generated_Source\PSoC6\pdl\cmsis/include/cmsis_gcc.h ****   uint32_t result;
 162:Generated_Source\PSoC6\pdl\cmsis/include/cmsis_gcc.h **** 
 163:Generated_Source\PSoC6\pdl\cmsis/include/cmsis_gcc.h ****   __ASM volatile ("MRS %0, ipsr" : "=r" (result) );
 164:Generated_Source\PSoC6\pdl\cmsis/include/cmsis_gcc.h ****   return(result);
 165:Generated_Source\PSoC6\pdl\cmsis/include/cmsis_gcc.h **** }
 166:Generated_Source\PSoC6\pdl\cmsis/include/cmsis_gcc.h **** 
 167:Generated_Source\PSoC6\pdl\cmsis/include/cmsis_gcc.h **** 
 168:Generated_Source\PSoC6\pdl\cmsis/include/cmsis_gcc.h **** /**
 169:Generated_Source\PSoC6\pdl\cmsis/include/cmsis_gcc.h ****   \brief   Get APSR Register
 170:Generated_Source\PSoC6\pdl\cmsis/include/cmsis_gcc.h ****   \details Returns the content of the APSR Register.
 171:Generated_Source\PSoC6\pdl\cmsis/include/cmsis_gcc.h ****   \return               APSR Register value
 172:Generated_Source\PSoC6\pdl\cmsis/include/cmsis_gcc.h ****  */
 173:Generated_Source\PSoC6\pdl\cmsis/include/cmsis_gcc.h **** __attribute__((always_inline)) __STATIC_INLINE uint32_t __get_APSR(void)
 174:Generated_Source\PSoC6\pdl\cmsis/include/cmsis_gcc.h **** {
 175:Generated_Source\PSoC6\pdl\cmsis/include/cmsis_gcc.h ****   uint32_t result;
 176:Generated_Source\PSoC6\pdl\cmsis/include/cmsis_gcc.h **** 
 177:Generated_Source\PSoC6\pdl\cmsis/include/cmsis_gcc.h ****   __ASM volatile ("MRS %0, apsr" : "=r" (result) );
 178:Generated_Source\PSoC6\pdl\cmsis/include/cmsis_gcc.h ****   return(result);
 179:Generated_Source\PSoC6\pdl\cmsis/include/cmsis_gcc.h **** }
 180:Generated_Source\PSoC6\pdl\cmsis/include/cmsis_gcc.h **** 
 181:Generated_Source\PSoC6\pdl\cmsis/include/cmsis_gcc.h **** 
 182:Generated_Source\PSoC6\pdl\cmsis/include/cmsis_gcc.h **** /**
 183:Generated_Source\PSoC6\pdl\cmsis/include/cmsis_gcc.h ****   \brief   Get xPSR Register
 184:Generated_Source\PSoC6\pdl\cmsis/include/cmsis_gcc.h ****   \details Returns the content of the xPSR Register.
 185:Generated_Source\PSoC6\pdl\cmsis/include/cmsis_gcc.h ****   \return               xPSR Register value
 186:Generated_Source\PSoC6\pdl\cmsis/include/cmsis_gcc.h ****  */
 187:Generated_Source\PSoC6\pdl\cmsis/include/cmsis_gcc.h **** __attribute__((always_inline)) __STATIC_INLINE uint32_t __get_xPSR(void)
 188:Generated_Source\PSoC6\pdl\cmsis/include/cmsis_gcc.h **** {
 189:Generated_Source\PSoC6\pdl\cmsis/include/cmsis_gcc.h ****   uint32_t result;
 190:Generated_Source\PSoC6\pdl\cmsis/include/cmsis_gcc.h **** 
 191:Generated_Source\PSoC6\pdl\cmsis/include/cmsis_gcc.h ****   __ASM volatile ("MRS %0, xpsr" : "=r" (result) );
 192:Generated_Source\PSoC6\pdl\cmsis/include/cmsis_gcc.h ****   return(result);
 193:Generated_Source\PSoC6\pdl\cmsis/include/cmsis_gcc.h **** }
 194:Generated_Source\PSoC6\pdl\cmsis/include/cmsis_gcc.h **** 
 195:Generated_Source\PSoC6\pdl\cmsis/include/cmsis_gcc.h **** 
ARM GAS  C:\Users\kiwamu\AppData\Local\Temp\ccE2Z6Jb.s 			page 30


 196:Generated_Source\PSoC6\pdl\cmsis/include/cmsis_gcc.h **** /**
 197:Generated_Source\PSoC6\pdl\cmsis/include/cmsis_gcc.h ****   \brief   Get Process Stack Pointer
 198:Generated_Source\PSoC6\pdl\cmsis/include/cmsis_gcc.h ****   \details Returns the current value of the Process Stack Pointer (PSP).
 199:Generated_Source\PSoC6\pdl\cmsis/include/cmsis_gcc.h ****   \return               PSP Register value
 200:Generated_Source\PSoC6\pdl\cmsis/include/cmsis_gcc.h ****  */
 201:Generated_Source\PSoC6\pdl\cmsis/include/cmsis_gcc.h **** __attribute__((always_inline)) __STATIC_INLINE uint32_t __get_PSP(void)
 202:Generated_Source\PSoC6\pdl\cmsis/include/cmsis_gcc.h **** {
 203:Generated_Source\PSoC6\pdl\cmsis/include/cmsis_gcc.h ****   register uint32_t result;
 204:Generated_Source\PSoC6\pdl\cmsis/include/cmsis_gcc.h **** 
 205:Generated_Source\PSoC6\pdl\cmsis/include/cmsis_gcc.h ****   __ASM volatile ("MRS %0, psp"  : "=r" (result) );
 206:Generated_Source\PSoC6\pdl\cmsis/include/cmsis_gcc.h ****   return(result);
 207:Generated_Source\PSoC6\pdl\cmsis/include/cmsis_gcc.h **** }
 208:Generated_Source\PSoC6\pdl\cmsis/include/cmsis_gcc.h **** 
 209:Generated_Source\PSoC6\pdl\cmsis/include/cmsis_gcc.h **** 
 210:Generated_Source\PSoC6\pdl\cmsis/include/cmsis_gcc.h **** #if (defined (__ARM_FEATURE_CMSE ) && (__ARM_FEATURE_CMSE == 3))
 211:Generated_Source\PSoC6\pdl\cmsis/include/cmsis_gcc.h **** /**
 212:Generated_Source\PSoC6\pdl\cmsis/include/cmsis_gcc.h ****   \brief   Get Process Stack Pointer (non-secure)
 213:Generated_Source\PSoC6\pdl\cmsis/include/cmsis_gcc.h ****   \details Returns the current value of the non-secure Process Stack Pointer (PSP) when in secure s
 214:Generated_Source\PSoC6\pdl\cmsis/include/cmsis_gcc.h ****   \return               PSP Register value
 215:Generated_Source\PSoC6\pdl\cmsis/include/cmsis_gcc.h ****  */
 216:Generated_Source\PSoC6\pdl\cmsis/include/cmsis_gcc.h **** __attribute__((always_inline)) __STATIC_INLINE uint32_t __TZ_get_PSP_NS(void)
 217:Generated_Source\PSoC6\pdl\cmsis/include/cmsis_gcc.h **** {
 218:Generated_Source\PSoC6\pdl\cmsis/include/cmsis_gcc.h ****   register uint32_t result;
 219:Generated_Source\PSoC6\pdl\cmsis/include/cmsis_gcc.h **** 
 220:Generated_Source\PSoC6\pdl\cmsis/include/cmsis_gcc.h ****   __ASM volatile ("MRS %0, psp_ns"  : "=r" (result) );
 221:Generated_Source\PSoC6\pdl\cmsis/include/cmsis_gcc.h ****   return(result);
 222:Generated_Source\PSoC6\pdl\cmsis/include/cmsis_gcc.h **** }
 223:Generated_Source\PSoC6\pdl\cmsis/include/cmsis_gcc.h **** #endif
 224:Generated_Source\PSoC6\pdl\cmsis/include/cmsis_gcc.h **** 
 225:Generated_Source\PSoC6\pdl\cmsis/include/cmsis_gcc.h **** 
 226:Generated_Source\PSoC6\pdl\cmsis/include/cmsis_gcc.h **** /**
 227:Generated_Source\PSoC6\pdl\cmsis/include/cmsis_gcc.h ****   \brief   Set Process Stack Pointer
 228:Generated_Source\PSoC6\pdl\cmsis/include/cmsis_gcc.h ****   \details Assigns the given value to the Process Stack Pointer (PSP).
 229:Generated_Source\PSoC6\pdl\cmsis/include/cmsis_gcc.h ****   \param [in]    topOfProcStack  Process Stack Pointer value to set
 230:Generated_Source\PSoC6\pdl\cmsis/include/cmsis_gcc.h ****  */
 231:Generated_Source\PSoC6\pdl\cmsis/include/cmsis_gcc.h **** __attribute__((always_inline)) __STATIC_INLINE void __set_PSP(uint32_t topOfProcStack)
 232:Generated_Source\PSoC6\pdl\cmsis/include/cmsis_gcc.h **** {
 233:Generated_Source\PSoC6\pdl\cmsis/include/cmsis_gcc.h ****   __ASM volatile ("MSR psp, %0" : : "r" (topOfProcStack) : );
 234:Generated_Source\PSoC6\pdl\cmsis/include/cmsis_gcc.h **** }
 235:Generated_Source\PSoC6\pdl\cmsis/include/cmsis_gcc.h **** 
 236:Generated_Source\PSoC6\pdl\cmsis/include/cmsis_gcc.h **** 
 237:Generated_Source\PSoC6\pdl\cmsis/include/cmsis_gcc.h **** #if (defined (__ARM_FEATURE_CMSE ) && (__ARM_FEATURE_CMSE == 3))
 238:Generated_Source\PSoC6\pdl\cmsis/include/cmsis_gcc.h **** /**
 239:Generated_Source\PSoC6\pdl\cmsis/include/cmsis_gcc.h ****   \brief   Set Process Stack Pointer (non-secure)
 240:Generated_Source\PSoC6\pdl\cmsis/include/cmsis_gcc.h ****   \details Assigns the given value to the non-secure Process Stack Pointer (PSP) when in secure sta
 241:Generated_Source\PSoC6\pdl\cmsis/include/cmsis_gcc.h ****   \param [in]    topOfProcStack  Process Stack Pointer value to set
 242:Generated_Source\PSoC6\pdl\cmsis/include/cmsis_gcc.h ****  */
 243:Generated_Source\PSoC6\pdl\cmsis/include/cmsis_gcc.h **** __attribute__((always_inline)) __STATIC_INLINE void __TZ_set_PSP_NS(uint32_t topOfProcStack)
 244:Generated_Source\PSoC6\pdl\cmsis/include/cmsis_gcc.h **** {
 245:Generated_Source\PSoC6\pdl\cmsis/include/cmsis_gcc.h ****   __ASM volatile ("MSR psp_ns, %0" : : "r" (topOfProcStack) : );
 246:Generated_Source\PSoC6\pdl\cmsis/include/cmsis_gcc.h **** }
 247:Generated_Source\PSoC6\pdl\cmsis/include/cmsis_gcc.h **** #endif
 248:Generated_Source\PSoC6\pdl\cmsis/include/cmsis_gcc.h **** 
 249:Generated_Source\PSoC6\pdl\cmsis/include/cmsis_gcc.h **** 
 250:Generated_Source\PSoC6\pdl\cmsis/include/cmsis_gcc.h **** /**
 251:Generated_Source\PSoC6\pdl\cmsis/include/cmsis_gcc.h ****   \brief   Get Main Stack Pointer
 252:Generated_Source\PSoC6\pdl\cmsis/include/cmsis_gcc.h ****   \details Returns the current value of the Main Stack Pointer (MSP).
ARM GAS  C:\Users\kiwamu\AppData\Local\Temp\ccE2Z6Jb.s 			page 31


 253:Generated_Source\PSoC6\pdl\cmsis/include/cmsis_gcc.h ****   \return               MSP Register value
 254:Generated_Source\PSoC6\pdl\cmsis/include/cmsis_gcc.h ****  */
 255:Generated_Source\PSoC6\pdl\cmsis/include/cmsis_gcc.h **** __attribute__((always_inline)) __STATIC_INLINE uint32_t __get_MSP(void)
 256:Generated_Source\PSoC6\pdl\cmsis/include/cmsis_gcc.h **** {
 257:Generated_Source\PSoC6\pdl\cmsis/include/cmsis_gcc.h ****   register uint32_t result;
 258:Generated_Source\PSoC6\pdl\cmsis/include/cmsis_gcc.h **** 
 259:Generated_Source\PSoC6\pdl\cmsis/include/cmsis_gcc.h ****   __ASM volatile ("MRS %0, msp" : "=r" (result) );
 260:Generated_Source\PSoC6\pdl\cmsis/include/cmsis_gcc.h ****   return(result);
 261:Generated_Source\PSoC6\pdl\cmsis/include/cmsis_gcc.h **** }
 262:Generated_Source\PSoC6\pdl\cmsis/include/cmsis_gcc.h **** 
 263:Generated_Source\PSoC6\pdl\cmsis/include/cmsis_gcc.h **** 
 264:Generated_Source\PSoC6\pdl\cmsis/include/cmsis_gcc.h **** #if (defined (__ARM_FEATURE_CMSE ) && (__ARM_FEATURE_CMSE == 3))
 265:Generated_Source\PSoC6\pdl\cmsis/include/cmsis_gcc.h **** /**
 266:Generated_Source\PSoC6\pdl\cmsis/include/cmsis_gcc.h ****   \brief   Get Main Stack Pointer (non-secure)
 267:Generated_Source\PSoC6\pdl\cmsis/include/cmsis_gcc.h ****   \details Returns the current value of the non-secure Main Stack Pointer (MSP) when in secure stat
 268:Generated_Source\PSoC6\pdl\cmsis/include/cmsis_gcc.h ****   \return               MSP Register value
 269:Generated_Source\PSoC6\pdl\cmsis/include/cmsis_gcc.h ****  */
 270:Generated_Source\PSoC6\pdl\cmsis/include/cmsis_gcc.h **** __attribute__((always_inline)) __STATIC_INLINE uint32_t __TZ_get_MSP_NS(void)
 271:Generated_Source\PSoC6\pdl\cmsis/include/cmsis_gcc.h **** {
 272:Generated_Source\PSoC6\pdl\cmsis/include/cmsis_gcc.h ****   register uint32_t result;
 273:Generated_Source\PSoC6\pdl\cmsis/include/cmsis_gcc.h **** 
 274:Generated_Source\PSoC6\pdl\cmsis/include/cmsis_gcc.h ****   __ASM volatile ("MRS %0, msp_ns" : "=r" (result) );
 275:Generated_Source\PSoC6\pdl\cmsis/include/cmsis_gcc.h ****   return(result);
 276:Generated_Source\PSoC6\pdl\cmsis/include/cmsis_gcc.h **** }
 277:Generated_Source\PSoC6\pdl\cmsis/include/cmsis_gcc.h **** #endif
 278:Generated_Source\PSoC6\pdl\cmsis/include/cmsis_gcc.h **** 
 279:Generated_Source\PSoC6\pdl\cmsis/include/cmsis_gcc.h **** 
 280:Generated_Source\PSoC6\pdl\cmsis/include/cmsis_gcc.h **** /**
 281:Generated_Source\PSoC6\pdl\cmsis/include/cmsis_gcc.h ****   \brief   Set Main Stack Pointer
 282:Generated_Source\PSoC6\pdl\cmsis/include/cmsis_gcc.h ****   \details Assigns the given value to the Main Stack Pointer (MSP).
 283:Generated_Source\PSoC6\pdl\cmsis/include/cmsis_gcc.h ****   \param [in]    topOfMainStack  Main Stack Pointer value to set
 284:Generated_Source\PSoC6\pdl\cmsis/include/cmsis_gcc.h ****  */
 285:Generated_Source\PSoC6\pdl\cmsis/include/cmsis_gcc.h **** __attribute__((always_inline)) __STATIC_INLINE void __set_MSP(uint32_t topOfMainStack)
 286:Generated_Source\PSoC6\pdl\cmsis/include/cmsis_gcc.h **** {
 287:Generated_Source\PSoC6\pdl\cmsis/include/cmsis_gcc.h ****   __ASM volatile ("MSR msp, %0" : : "r" (topOfMainStack) : );
 288:Generated_Source\PSoC6\pdl\cmsis/include/cmsis_gcc.h **** }
 289:Generated_Source\PSoC6\pdl\cmsis/include/cmsis_gcc.h **** 
 290:Generated_Source\PSoC6\pdl\cmsis/include/cmsis_gcc.h **** 
 291:Generated_Source\PSoC6\pdl\cmsis/include/cmsis_gcc.h **** #if (defined (__ARM_FEATURE_CMSE ) && (__ARM_FEATURE_CMSE == 3))
 292:Generated_Source\PSoC6\pdl\cmsis/include/cmsis_gcc.h **** /**
 293:Generated_Source\PSoC6\pdl\cmsis/include/cmsis_gcc.h ****   \brief   Set Main Stack Pointer (non-secure)
 294:Generated_Source\PSoC6\pdl\cmsis/include/cmsis_gcc.h ****   \details Assigns the given value to the non-secure Main Stack Pointer (MSP) when in secure state.
 295:Generated_Source\PSoC6\pdl\cmsis/include/cmsis_gcc.h ****   \param [in]    topOfMainStack  Main Stack Pointer value to set
 296:Generated_Source\PSoC6\pdl\cmsis/include/cmsis_gcc.h ****  */
 297:Generated_Source\PSoC6\pdl\cmsis/include/cmsis_gcc.h **** __attribute__((always_inline)) __STATIC_INLINE void __TZ_set_MSP_NS(uint32_t topOfMainStack)
 298:Generated_Source\PSoC6\pdl\cmsis/include/cmsis_gcc.h **** {
 299:Generated_Source\PSoC6\pdl\cmsis/include/cmsis_gcc.h ****   __ASM volatile ("MSR msp_ns, %0" : : "r" (topOfMainStack) : );
 300:Generated_Source\PSoC6\pdl\cmsis/include/cmsis_gcc.h **** }
 301:Generated_Source\PSoC6\pdl\cmsis/include/cmsis_gcc.h **** #endif
 302:Generated_Source\PSoC6\pdl\cmsis/include/cmsis_gcc.h **** 
 303:Generated_Source\PSoC6\pdl\cmsis/include/cmsis_gcc.h **** 
 304:Generated_Source\PSoC6\pdl\cmsis/include/cmsis_gcc.h **** /**
 305:Generated_Source\PSoC6\pdl\cmsis/include/cmsis_gcc.h ****   \brief   Get Priority Mask
 306:Generated_Source\PSoC6\pdl\cmsis/include/cmsis_gcc.h ****   \details Returns the current state of the priority mask bit from the Priority Mask Register.
 307:Generated_Source\PSoC6\pdl\cmsis/include/cmsis_gcc.h ****   \return               Priority Mask value
 308:Generated_Source\PSoC6\pdl\cmsis/include/cmsis_gcc.h ****  */
 309:Generated_Source\PSoC6\pdl\cmsis/include/cmsis_gcc.h **** __attribute__((always_inline)) __STATIC_INLINE uint32_t __get_PRIMASK(void)
ARM GAS  C:\Users\kiwamu\AppData\Local\Temp\ccE2Z6Jb.s 			page 32


 310:Generated_Source\PSoC6\pdl\cmsis/include/cmsis_gcc.h **** {
 311:Generated_Source\PSoC6\pdl\cmsis/include/cmsis_gcc.h ****   uint32_t result;
 312:Generated_Source\PSoC6\pdl\cmsis/include/cmsis_gcc.h **** 
 313:Generated_Source\PSoC6\pdl\cmsis/include/cmsis_gcc.h ****   __ASM volatile ("MRS %0, primask" : "=r" (result) );
 314:Generated_Source\PSoC6\pdl\cmsis/include/cmsis_gcc.h ****   return(result);
 315:Generated_Source\PSoC6\pdl\cmsis/include/cmsis_gcc.h **** }
 316:Generated_Source\PSoC6\pdl\cmsis/include/cmsis_gcc.h **** 
 317:Generated_Source\PSoC6\pdl\cmsis/include/cmsis_gcc.h **** 
 318:Generated_Source\PSoC6\pdl\cmsis/include/cmsis_gcc.h **** #if (defined (__ARM_FEATURE_CMSE ) && (__ARM_FEATURE_CMSE == 3))
 319:Generated_Source\PSoC6\pdl\cmsis/include/cmsis_gcc.h **** /**
 320:Generated_Source\PSoC6\pdl\cmsis/include/cmsis_gcc.h ****   \brief   Get Priority Mask (non-secure)
 321:Generated_Source\PSoC6\pdl\cmsis/include/cmsis_gcc.h ****   \details Returns the current state of the non-secure priority mask bit from the Priority Mask Reg
 322:Generated_Source\PSoC6\pdl\cmsis/include/cmsis_gcc.h ****   \return               Priority Mask value
 323:Generated_Source\PSoC6\pdl\cmsis/include/cmsis_gcc.h ****  */
 324:Generated_Source\PSoC6\pdl\cmsis/include/cmsis_gcc.h **** __attribute__((always_inline)) __STATIC_INLINE uint32_t __TZ_get_PRIMASK_NS(void)
 325:Generated_Source\PSoC6\pdl\cmsis/include/cmsis_gcc.h **** {
 326:Generated_Source\PSoC6\pdl\cmsis/include/cmsis_gcc.h ****   uint32_t result;
 327:Generated_Source\PSoC6\pdl\cmsis/include/cmsis_gcc.h **** 
 328:Generated_Source\PSoC6\pdl\cmsis/include/cmsis_gcc.h ****   __ASM volatile ("MRS %0, primask_ns" : "=r" (result) );
 329:Generated_Source\PSoC6\pdl\cmsis/include/cmsis_gcc.h ****   return(result);
 330:Generated_Source\PSoC6\pdl\cmsis/include/cmsis_gcc.h **** }
 331:Generated_Source\PSoC6\pdl\cmsis/include/cmsis_gcc.h **** #endif
 332:Generated_Source\PSoC6\pdl\cmsis/include/cmsis_gcc.h **** 
 333:Generated_Source\PSoC6\pdl\cmsis/include/cmsis_gcc.h **** 
 334:Generated_Source\PSoC6\pdl\cmsis/include/cmsis_gcc.h **** /**
 335:Generated_Source\PSoC6\pdl\cmsis/include/cmsis_gcc.h ****   \brief   Set Priority Mask
 336:Generated_Source\PSoC6\pdl\cmsis/include/cmsis_gcc.h ****   \details Assigns the given value to the Priority Mask Register.
 337:Generated_Source\PSoC6\pdl\cmsis/include/cmsis_gcc.h ****   \param [in]    priMask  Priority Mask
 338:Generated_Source\PSoC6\pdl\cmsis/include/cmsis_gcc.h ****  */
 339:Generated_Source\PSoC6\pdl\cmsis/include/cmsis_gcc.h **** __attribute__((always_inline)) __STATIC_INLINE void __set_PRIMASK(uint32_t priMask)
 340:Generated_Source\PSoC6\pdl\cmsis/include/cmsis_gcc.h **** {
 341:Generated_Source\PSoC6\pdl\cmsis/include/cmsis_gcc.h ****   __ASM volatile ("MSR primask, %0" : : "r" (priMask) : "memory");
 342:Generated_Source\PSoC6\pdl\cmsis/include/cmsis_gcc.h **** }
 343:Generated_Source\PSoC6\pdl\cmsis/include/cmsis_gcc.h **** 
 344:Generated_Source\PSoC6\pdl\cmsis/include/cmsis_gcc.h **** 
 345:Generated_Source\PSoC6\pdl\cmsis/include/cmsis_gcc.h **** #if (defined (__ARM_FEATURE_CMSE ) && (__ARM_FEATURE_CMSE == 3))
 346:Generated_Source\PSoC6\pdl\cmsis/include/cmsis_gcc.h **** /**
 347:Generated_Source\PSoC6\pdl\cmsis/include/cmsis_gcc.h ****   \brief   Set Priority Mask (non-secure)
 348:Generated_Source\PSoC6\pdl\cmsis/include/cmsis_gcc.h ****   \details Assigns the given value to the non-secure Priority Mask Register when in secure state.
 349:Generated_Source\PSoC6\pdl\cmsis/include/cmsis_gcc.h ****   \param [in]    priMask  Priority Mask
 350:Generated_Source\PSoC6\pdl\cmsis/include/cmsis_gcc.h ****  */
 351:Generated_Source\PSoC6\pdl\cmsis/include/cmsis_gcc.h **** __attribute__((always_inline)) __STATIC_INLINE void __TZ_set_PRIMASK_NS(uint32_t priMask)
 352:Generated_Source\PSoC6\pdl\cmsis/include/cmsis_gcc.h **** {
 353:Generated_Source\PSoC6\pdl\cmsis/include/cmsis_gcc.h ****   __ASM volatile ("MSR primask_ns, %0" : : "r" (priMask) : "memory");
 354:Generated_Source\PSoC6\pdl\cmsis/include/cmsis_gcc.h **** }
 355:Generated_Source\PSoC6\pdl\cmsis/include/cmsis_gcc.h **** #endif
 356:Generated_Source\PSoC6\pdl\cmsis/include/cmsis_gcc.h **** 
 357:Generated_Source\PSoC6\pdl\cmsis/include/cmsis_gcc.h **** 
 358:Generated_Source\PSoC6\pdl\cmsis/include/cmsis_gcc.h **** #if ((defined (__ARM_ARCH_7M__      ) && (__ARM_ARCH_7M__      == 1)) || \
 359:Generated_Source\PSoC6\pdl\cmsis/include/cmsis_gcc.h ****      (defined (__ARM_ARCH_7EM__     ) && (__ARM_ARCH_7EM__     == 1)) || \
 360:Generated_Source\PSoC6\pdl\cmsis/include/cmsis_gcc.h ****      (defined (__ARM_ARCH_8M_MAIN__ ) && (__ARM_ARCH_8M_MAIN__ == 1))    )
 361:Generated_Source\PSoC6\pdl\cmsis/include/cmsis_gcc.h **** /**
 362:Generated_Source\PSoC6\pdl\cmsis/include/cmsis_gcc.h ****   \brief   Enable FIQ
 363:Generated_Source\PSoC6\pdl\cmsis/include/cmsis_gcc.h ****   \details Enables FIQ interrupts by clearing the F-bit in the CPSR.
 364:Generated_Source\PSoC6\pdl\cmsis/include/cmsis_gcc.h ****            Can only be executed in Privileged modes.
 365:Generated_Source\PSoC6\pdl\cmsis/include/cmsis_gcc.h ****  */
 366:Generated_Source\PSoC6\pdl\cmsis/include/cmsis_gcc.h **** __attribute__((always_inline)) __STATIC_INLINE void __enable_fault_irq(void)
ARM GAS  C:\Users\kiwamu\AppData\Local\Temp\ccE2Z6Jb.s 			page 33


 367:Generated_Source\PSoC6\pdl\cmsis/include/cmsis_gcc.h **** {
 368:Generated_Source\PSoC6\pdl\cmsis/include/cmsis_gcc.h ****   __ASM volatile ("cpsie f" : : : "memory");
 369:Generated_Source\PSoC6\pdl\cmsis/include/cmsis_gcc.h **** }
 370:Generated_Source\PSoC6\pdl\cmsis/include/cmsis_gcc.h **** 
 371:Generated_Source\PSoC6\pdl\cmsis/include/cmsis_gcc.h **** 
 372:Generated_Source\PSoC6\pdl\cmsis/include/cmsis_gcc.h **** /**
 373:Generated_Source\PSoC6\pdl\cmsis/include/cmsis_gcc.h ****   \brief   Disable FIQ
 374:Generated_Source\PSoC6\pdl\cmsis/include/cmsis_gcc.h ****   \details Disables FIQ interrupts by setting the F-bit in the CPSR.
 375:Generated_Source\PSoC6\pdl\cmsis/include/cmsis_gcc.h ****            Can only be executed in Privileged modes.
 376:Generated_Source\PSoC6\pdl\cmsis/include/cmsis_gcc.h ****  */
 377:Generated_Source\PSoC6\pdl\cmsis/include/cmsis_gcc.h **** __attribute__((always_inline)) __STATIC_INLINE void __disable_fault_irq(void)
 378:Generated_Source\PSoC6\pdl\cmsis/include/cmsis_gcc.h **** {
 379:Generated_Source\PSoC6\pdl\cmsis/include/cmsis_gcc.h ****   __ASM volatile ("cpsid f" : : : "memory");
 380:Generated_Source\PSoC6\pdl\cmsis/include/cmsis_gcc.h **** }
 381:Generated_Source\PSoC6\pdl\cmsis/include/cmsis_gcc.h **** 
 382:Generated_Source\PSoC6\pdl\cmsis/include/cmsis_gcc.h **** 
 383:Generated_Source\PSoC6\pdl\cmsis/include/cmsis_gcc.h **** /**
 384:Generated_Source\PSoC6\pdl\cmsis/include/cmsis_gcc.h ****   \brief   Get Base Priority
 385:Generated_Source\PSoC6\pdl\cmsis/include/cmsis_gcc.h ****   \details Returns the current value of the Base Priority register.
 386:Generated_Source\PSoC6\pdl\cmsis/include/cmsis_gcc.h ****   \return               Base Priority register value
 387:Generated_Source\PSoC6\pdl\cmsis/include/cmsis_gcc.h ****  */
 388:Generated_Source\PSoC6\pdl\cmsis/include/cmsis_gcc.h **** __attribute__((always_inline)) __STATIC_INLINE uint32_t __get_BASEPRI(void)
 389:Generated_Source\PSoC6\pdl\cmsis/include/cmsis_gcc.h **** {
 390:Generated_Source\PSoC6\pdl\cmsis/include/cmsis_gcc.h ****   uint32_t result;
 391:Generated_Source\PSoC6\pdl\cmsis/include/cmsis_gcc.h **** 
 392:Generated_Source\PSoC6\pdl\cmsis/include/cmsis_gcc.h ****   __ASM volatile ("MRS %0, basepri" : "=r" (result) );
 393:Generated_Source\PSoC6\pdl\cmsis/include/cmsis_gcc.h ****   return(result);
 394:Generated_Source\PSoC6\pdl\cmsis/include/cmsis_gcc.h **** }
 395:Generated_Source\PSoC6\pdl\cmsis/include/cmsis_gcc.h **** 
 396:Generated_Source\PSoC6\pdl\cmsis/include/cmsis_gcc.h **** 
 397:Generated_Source\PSoC6\pdl\cmsis/include/cmsis_gcc.h **** #if (defined (__ARM_FEATURE_CMSE ) && (__ARM_FEATURE_CMSE == 3))
 398:Generated_Source\PSoC6\pdl\cmsis/include/cmsis_gcc.h **** /**
 399:Generated_Source\PSoC6\pdl\cmsis/include/cmsis_gcc.h ****   \brief   Get Base Priority (non-secure)
 400:Generated_Source\PSoC6\pdl\cmsis/include/cmsis_gcc.h ****   \details Returns the current value of the non-secure Base Priority register when in secure state.
 401:Generated_Source\PSoC6\pdl\cmsis/include/cmsis_gcc.h ****   \return               Base Priority register value
 402:Generated_Source\PSoC6\pdl\cmsis/include/cmsis_gcc.h ****  */
 403:Generated_Source\PSoC6\pdl\cmsis/include/cmsis_gcc.h **** __attribute__((always_inline)) __STATIC_INLINE uint32_t __TZ_get_BASEPRI_NS(void)
 404:Generated_Source\PSoC6\pdl\cmsis/include/cmsis_gcc.h **** {
 405:Generated_Source\PSoC6\pdl\cmsis/include/cmsis_gcc.h ****   uint32_t result;
 406:Generated_Source\PSoC6\pdl\cmsis/include/cmsis_gcc.h **** 
 407:Generated_Source\PSoC6\pdl\cmsis/include/cmsis_gcc.h ****   __ASM volatile ("MRS %0, basepri_ns" : "=r" (result) );
 408:Generated_Source\PSoC6\pdl\cmsis/include/cmsis_gcc.h ****   return(result);
 409:Generated_Source\PSoC6\pdl\cmsis/include/cmsis_gcc.h **** }
 410:Generated_Source\PSoC6\pdl\cmsis/include/cmsis_gcc.h **** #endif
 411:Generated_Source\PSoC6\pdl\cmsis/include/cmsis_gcc.h **** 
 412:Generated_Source\PSoC6\pdl\cmsis/include/cmsis_gcc.h **** 
 413:Generated_Source\PSoC6\pdl\cmsis/include/cmsis_gcc.h **** /**
 414:Generated_Source\PSoC6\pdl\cmsis/include/cmsis_gcc.h ****   \brief   Set Base Priority
 415:Generated_Source\PSoC6\pdl\cmsis/include/cmsis_gcc.h ****   \details Assigns the given value to the Base Priority register.
 416:Generated_Source\PSoC6\pdl\cmsis/include/cmsis_gcc.h ****   \param [in]    basePri  Base Priority value to set
 417:Generated_Source\PSoC6\pdl\cmsis/include/cmsis_gcc.h ****  */
 418:Generated_Source\PSoC6\pdl\cmsis/include/cmsis_gcc.h **** __attribute__((always_inline)) __STATIC_INLINE void __set_BASEPRI(uint32_t basePri)
 419:Generated_Source\PSoC6\pdl\cmsis/include/cmsis_gcc.h **** {
 420:Generated_Source\PSoC6\pdl\cmsis/include/cmsis_gcc.h ****   __ASM volatile ("MSR basepri, %0" : : "r" (basePri) : "memory");
 421:Generated_Source\PSoC6\pdl\cmsis/include/cmsis_gcc.h **** }
 422:Generated_Source\PSoC6\pdl\cmsis/include/cmsis_gcc.h **** 
 423:Generated_Source\PSoC6\pdl\cmsis/include/cmsis_gcc.h **** 
ARM GAS  C:\Users\kiwamu\AppData\Local\Temp\ccE2Z6Jb.s 			page 34


 424:Generated_Source\PSoC6\pdl\cmsis/include/cmsis_gcc.h **** #if (defined (__ARM_FEATURE_CMSE ) && (__ARM_FEATURE_CMSE == 3))
 425:Generated_Source\PSoC6\pdl\cmsis/include/cmsis_gcc.h **** /**
 426:Generated_Source\PSoC6\pdl\cmsis/include/cmsis_gcc.h ****   \brief   Set Base Priority (non-secure)
 427:Generated_Source\PSoC6\pdl\cmsis/include/cmsis_gcc.h ****   \details Assigns the given value to the non-secure Base Priority register when in secure state.
 428:Generated_Source\PSoC6\pdl\cmsis/include/cmsis_gcc.h ****   \param [in]    basePri  Base Priority value to set
 429:Generated_Source\PSoC6\pdl\cmsis/include/cmsis_gcc.h ****  */
 430:Generated_Source\PSoC6\pdl\cmsis/include/cmsis_gcc.h **** __attribute__((always_inline)) __STATIC_INLINE void __TZ_set_BASEPRI_NS(uint32_t basePri)
 431:Generated_Source\PSoC6\pdl\cmsis/include/cmsis_gcc.h **** {
 432:Generated_Source\PSoC6\pdl\cmsis/include/cmsis_gcc.h ****   __ASM volatile ("MSR basepri_ns, %0" : : "r" (basePri) : "memory");
 433:Generated_Source\PSoC6\pdl\cmsis/include/cmsis_gcc.h **** }
 434:Generated_Source\PSoC6\pdl\cmsis/include/cmsis_gcc.h **** #endif
 435:Generated_Source\PSoC6\pdl\cmsis/include/cmsis_gcc.h **** 
 436:Generated_Source\PSoC6\pdl\cmsis/include/cmsis_gcc.h **** 
 437:Generated_Source\PSoC6\pdl\cmsis/include/cmsis_gcc.h **** /**
 438:Generated_Source\PSoC6\pdl\cmsis/include/cmsis_gcc.h ****   \brief   Set Base Priority with condition
 439:Generated_Source\PSoC6\pdl\cmsis/include/cmsis_gcc.h ****   \details Assigns the given value to the Base Priority register only if BASEPRI masking is disable
 440:Generated_Source\PSoC6\pdl\cmsis/include/cmsis_gcc.h ****            or the new value increases the BASEPRI priority level.
 441:Generated_Source\PSoC6\pdl\cmsis/include/cmsis_gcc.h ****   \param [in]    basePri  Base Priority value to set
 442:Generated_Source\PSoC6\pdl\cmsis/include/cmsis_gcc.h ****  */
 443:Generated_Source\PSoC6\pdl\cmsis/include/cmsis_gcc.h **** __attribute__((always_inline)) __STATIC_INLINE void __set_BASEPRI_MAX(uint32_t basePri)
 444:Generated_Source\PSoC6\pdl\cmsis/include/cmsis_gcc.h **** {
 445:Generated_Source\PSoC6\pdl\cmsis/include/cmsis_gcc.h ****   __ASM volatile ("MSR basepri_max, %0" : : "r" (basePri) : "memory");
 446:Generated_Source\PSoC6\pdl\cmsis/include/cmsis_gcc.h **** }
 447:Generated_Source\PSoC6\pdl\cmsis/include/cmsis_gcc.h **** 
 448:Generated_Source\PSoC6\pdl\cmsis/include/cmsis_gcc.h **** 
 449:Generated_Source\PSoC6\pdl\cmsis/include/cmsis_gcc.h **** /**
 450:Generated_Source\PSoC6\pdl\cmsis/include/cmsis_gcc.h ****   \brief   Get Fault Mask
 451:Generated_Source\PSoC6\pdl\cmsis/include/cmsis_gcc.h ****   \details Returns the current value of the Fault Mask register.
 452:Generated_Source\PSoC6\pdl\cmsis/include/cmsis_gcc.h ****   \return               Fault Mask register value
 453:Generated_Source\PSoC6\pdl\cmsis/include/cmsis_gcc.h ****  */
 454:Generated_Source\PSoC6\pdl\cmsis/include/cmsis_gcc.h **** __attribute__((always_inline)) __STATIC_INLINE uint32_t __get_FAULTMASK(void)
 455:Generated_Source\PSoC6\pdl\cmsis/include/cmsis_gcc.h **** {
 456:Generated_Source\PSoC6\pdl\cmsis/include/cmsis_gcc.h ****   uint32_t result;
 457:Generated_Source\PSoC6\pdl\cmsis/include/cmsis_gcc.h **** 
 458:Generated_Source\PSoC6\pdl\cmsis/include/cmsis_gcc.h ****   __ASM volatile ("MRS %0, faultmask" : "=r" (result) );
 459:Generated_Source\PSoC6\pdl\cmsis/include/cmsis_gcc.h ****   return(result);
 460:Generated_Source\PSoC6\pdl\cmsis/include/cmsis_gcc.h **** }
 461:Generated_Source\PSoC6\pdl\cmsis/include/cmsis_gcc.h **** 
 462:Generated_Source\PSoC6\pdl\cmsis/include/cmsis_gcc.h **** 
 463:Generated_Source\PSoC6\pdl\cmsis/include/cmsis_gcc.h **** #if (defined (__ARM_FEATURE_CMSE ) && (__ARM_FEATURE_CMSE == 3))
 464:Generated_Source\PSoC6\pdl\cmsis/include/cmsis_gcc.h **** /**
 465:Generated_Source\PSoC6\pdl\cmsis/include/cmsis_gcc.h ****   \brief   Get Fault Mask (non-secure)
 466:Generated_Source\PSoC6\pdl\cmsis/include/cmsis_gcc.h ****   \details Returns the current value of the non-secure Fault Mask register when in secure state.
 467:Generated_Source\PSoC6\pdl\cmsis/include/cmsis_gcc.h ****   \return               Fault Mask register value
 468:Generated_Source\PSoC6\pdl\cmsis/include/cmsis_gcc.h ****  */
 469:Generated_Source\PSoC6\pdl\cmsis/include/cmsis_gcc.h **** __attribute__((always_inline)) __STATIC_INLINE uint32_t __TZ_get_FAULTMASK_NS(void)
 470:Generated_Source\PSoC6\pdl\cmsis/include/cmsis_gcc.h **** {
 471:Generated_Source\PSoC6\pdl\cmsis/include/cmsis_gcc.h ****   uint32_t result;
 472:Generated_Source\PSoC6\pdl\cmsis/include/cmsis_gcc.h **** 
 473:Generated_Source\PSoC6\pdl\cmsis/include/cmsis_gcc.h ****   __ASM volatile ("MRS %0, faultmask_ns" : "=r" (result) );
 474:Generated_Source\PSoC6\pdl\cmsis/include/cmsis_gcc.h ****   return(result);
 475:Generated_Source\PSoC6\pdl\cmsis/include/cmsis_gcc.h **** }
 476:Generated_Source\PSoC6\pdl\cmsis/include/cmsis_gcc.h **** #endif
 477:Generated_Source\PSoC6\pdl\cmsis/include/cmsis_gcc.h **** 
 478:Generated_Source\PSoC6\pdl\cmsis/include/cmsis_gcc.h **** 
 479:Generated_Source\PSoC6\pdl\cmsis/include/cmsis_gcc.h **** /**
 480:Generated_Source\PSoC6\pdl\cmsis/include/cmsis_gcc.h ****   \brief   Set Fault Mask
ARM GAS  C:\Users\kiwamu\AppData\Local\Temp\ccE2Z6Jb.s 			page 35


 481:Generated_Source\PSoC6\pdl\cmsis/include/cmsis_gcc.h ****   \details Assigns the given value to the Fault Mask register.
 482:Generated_Source\PSoC6\pdl\cmsis/include/cmsis_gcc.h ****   \param [in]    faultMask  Fault Mask value to set
 483:Generated_Source\PSoC6\pdl\cmsis/include/cmsis_gcc.h ****  */
 484:Generated_Source\PSoC6\pdl\cmsis/include/cmsis_gcc.h **** __attribute__((always_inline)) __STATIC_INLINE void __set_FAULTMASK(uint32_t faultMask)
 485:Generated_Source\PSoC6\pdl\cmsis/include/cmsis_gcc.h **** {
 486:Generated_Source\PSoC6\pdl\cmsis/include/cmsis_gcc.h ****   __ASM volatile ("MSR faultmask, %0" : : "r" (faultMask) : "memory");
 487:Generated_Source\PSoC6\pdl\cmsis/include/cmsis_gcc.h **** }
 488:Generated_Source\PSoC6\pdl\cmsis/include/cmsis_gcc.h **** 
 489:Generated_Source\PSoC6\pdl\cmsis/include/cmsis_gcc.h **** 
 490:Generated_Source\PSoC6\pdl\cmsis/include/cmsis_gcc.h **** #if (defined (__ARM_FEATURE_CMSE ) && (__ARM_FEATURE_CMSE == 3))
 491:Generated_Source\PSoC6\pdl\cmsis/include/cmsis_gcc.h **** /**
 492:Generated_Source\PSoC6\pdl\cmsis/include/cmsis_gcc.h ****   \brief   Set Fault Mask (non-secure)
 493:Generated_Source\PSoC6\pdl\cmsis/include/cmsis_gcc.h ****   \details Assigns the given value to the non-secure Fault Mask register when in secure state.
 494:Generated_Source\PSoC6\pdl\cmsis/include/cmsis_gcc.h ****   \param [in]    faultMask  Fault Mask value to set
 495:Generated_Source\PSoC6\pdl\cmsis/include/cmsis_gcc.h ****  */
 496:Generated_Source\PSoC6\pdl\cmsis/include/cmsis_gcc.h **** __attribute__((always_inline)) __STATIC_INLINE void __TZ_set_FAULTMASK_NS(uint32_t faultMask)
 497:Generated_Source\PSoC6\pdl\cmsis/include/cmsis_gcc.h **** {
 498:Generated_Source\PSoC6\pdl\cmsis/include/cmsis_gcc.h ****   __ASM volatile ("MSR faultmask_ns, %0" : : "r" (faultMask) : "memory");
 499:Generated_Source\PSoC6\pdl\cmsis/include/cmsis_gcc.h **** }
 500:Generated_Source\PSoC6\pdl\cmsis/include/cmsis_gcc.h **** #endif
 501:Generated_Source\PSoC6\pdl\cmsis/include/cmsis_gcc.h **** 
 502:Generated_Source\PSoC6\pdl\cmsis/include/cmsis_gcc.h **** #endif /* ((defined (__ARM_ARCH_7M__      ) && (__ARM_ARCH_7M__      == 1)) || \
 503:Generated_Source\PSoC6\pdl\cmsis/include/cmsis_gcc.h ****            (defined (__ARM_ARCH_7EM__     ) && (__ARM_ARCH_7EM__     == 1)) || \
 504:Generated_Source\PSoC6\pdl\cmsis/include/cmsis_gcc.h ****            (defined (__ARM_ARCH_8M_MAIN__ ) && (__ARM_ARCH_8M_MAIN__ == 1))    ) */
 505:Generated_Source\PSoC6\pdl\cmsis/include/cmsis_gcc.h **** 
 506:Generated_Source\PSoC6\pdl\cmsis/include/cmsis_gcc.h **** 
 507:Generated_Source\PSoC6\pdl\cmsis/include/cmsis_gcc.h **** #if ((defined (__ARM_ARCH_8M_MAIN__ ) && (__ARM_ARCH_8M_MAIN__ == 1)) || \
 508:Generated_Source\PSoC6\pdl\cmsis/include/cmsis_gcc.h ****      (defined (__ARM_ARCH_8M_BASE__ ) && (__ARM_ARCH_8M_BASE__ == 1))    )
 509:Generated_Source\PSoC6\pdl\cmsis/include/cmsis_gcc.h **** 
 510:Generated_Source\PSoC6\pdl\cmsis/include/cmsis_gcc.h **** /**
 511:Generated_Source\PSoC6\pdl\cmsis/include/cmsis_gcc.h ****   \brief   Get Process Stack Pointer Limit
 512:Generated_Source\PSoC6\pdl\cmsis/include/cmsis_gcc.h ****   \details Returns the current value of the Process Stack Pointer Limit (PSPLIM).
 513:Generated_Source\PSoC6\pdl\cmsis/include/cmsis_gcc.h ****   \return               PSPLIM Register value
 514:Generated_Source\PSoC6\pdl\cmsis/include/cmsis_gcc.h ****  */
 515:Generated_Source\PSoC6\pdl\cmsis/include/cmsis_gcc.h **** __attribute__((always_inline)) __STATIC_INLINE uint32_t __get_PSPLIM(void)
 516:Generated_Source\PSoC6\pdl\cmsis/include/cmsis_gcc.h **** {
 517:Generated_Source\PSoC6\pdl\cmsis/include/cmsis_gcc.h ****   register uint32_t result;
 518:Generated_Source\PSoC6\pdl\cmsis/include/cmsis_gcc.h **** 
 519:Generated_Source\PSoC6\pdl\cmsis/include/cmsis_gcc.h ****   __ASM volatile ("MRS %0, psplim"  : "=r" (result) );
 520:Generated_Source\PSoC6\pdl\cmsis/include/cmsis_gcc.h ****   return(result);
 521:Generated_Source\PSoC6\pdl\cmsis/include/cmsis_gcc.h **** }
 522:Generated_Source\PSoC6\pdl\cmsis/include/cmsis_gcc.h **** 
 523:Generated_Source\PSoC6\pdl\cmsis/include/cmsis_gcc.h **** 
 524:Generated_Source\PSoC6\pdl\cmsis/include/cmsis_gcc.h **** #if ((defined (__ARM_FEATURE_CMSE  ) && (__ARM_FEATURE_CMSE   == 3)) && \
 525:Generated_Source\PSoC6\pdl\cmsis/include/cmsis_gcc.h ****      (defined (__ARM_ARCH_8M_MAIN__) && (__ARM_ARCH_8M_MAIN__ == 1))    )
 526:Generated_Source\PSoC6\pdl\cmsis/include/cmsis_gcc.h **** /**
 527:Generated_Source\PSoC6\pdl\cmsis/include/cmsis_gcc.h ****   \brief   Get Process Stack Pointer Limit (non-secure)
 528:Generated_Source\PSoC6\pdl\cmsis/include/cmsis_gcc.h ****   \details Returns the current value of the non-secure Process Stack Pointer Limit (PSPLIM) when in
 529:Generated_Source\PSoC6\pdl\cmsis/include/cmsis_gcc.h ****   \return               PSPLIM Register value
 530:Generated_Source\PSoC6\pdl\cmsis/include/cmsis_gcc.h ****  */
 531:Generated_Source\PSoC6\pdl\cmsis/include/cmsis_gcc.h **** __attribute__((always_inline)) __STATIC_INLINE uint32_t __TZ_get_PSPLIM_NS(void)
 532:Generated_Source\PSoC6\pdl\cmsis/include/cmsis_gcc.h **** {
 533:Generated_Source\PSoC6\pdl\cmsis/include/cmsis_gcc.h ****   register uint32_t result;
 534:Generated_Source\PSoC6\pdl\cmsis/include/cmsis_gcc.h **** 
 535:Generated_Source\PSoC6\pdl\cmsis/include/cmsis_gcc.h ****   __ASM volatile ("MRS %0, psplim_ns"  : "=r" (result) );
 536:Generated_Source\PSoC6\pdl\cmsis/include/cmsis_gcc.h ****   return(result);
 537:Generated_Source\PSoC6\pdl\cmsis/include/cmsis_gcc.h **** }
ARM GAS  C:\Users\kiwamu\AppData\Local\Temp\ccE2Z6Jb.s 			page 36


 538:Generated_Source\PSoC6\pdl\cmsis/include/cmsis_gcc.h **** #endif
 539:Generated_Source\PSoC6\pdl\cmsis/include/cmsis_gcc.h **** 
 540:Generated_Source\PSoC6\pdl\cmsis/include/cmsis_gcc.h **** 
 541:Generated_Source\PSoC6\pdl\cmsis/include/cmsis_gcc.h **** /**
 542:Generated_Source\PSoC6\pdl\cmsis/include/cmsis_gcc.h ****   \brief   Set Process Stack Pointer Limit
 543:Generated_Source\PSoC6\pdl\cmsis/include/cmsis_gcc.h ****   \details Assigns the given value to the Process Stack Pointer Limit (PSPLIM).
 544:Generated_Source\PSoC6\pdl\cmsis/include/cmsis_gcc.h ****   \param [in]    ProcStackPtrLimit  Process Stack Pointer Limit value to set
 545:Generated_Source\PSoC6\pdl\cmsis/include/cmsis_gcc.h ****  */
 546:Generated_Source\PSoC6\pdl\cmsis/include/cmsis_gcc.h **** __attribute__((always_inline)) __STATIC_INLINE void __set_PSPLIM(uint32_t ProcStackPtrLimit)
 547:Generated_Source\PSoC6\pdl\cmsis/include/cmsis_gcc.h **** {
 548:Generated_Source\PSoC6\pdl\cmsis/include/cmsis_gcc.h ****   __ASM volatile ("MSR psplim, %0" : : "r" (ProcStackPtrLimit));
 549:Generated_Source\PSoC6\pdl\cmsis/include/cmsis_gcc.h **** }
 550:Generated_Source\PSoC6\pdl\cmsis/include/cmsis_gcc.h **** 
 551:Generated_Source\PSoC6\pdl\cmsis/include/cmsis_gcc.h **** 
 552:Generated_Source\PSoC6\pdl\cmsis/include/cmsis_gcc.h **** #if ((defined (__ARM_FEATURE_CMSE  ) && (__ARM_FEATURE_CMSE   == 3)) && \
 553:Generated_Source\PSoC6\pdl\cmsis/include/cmsis_gcc.h ****      (defined (__ARM_ARCH_8M_MAIN__) && (__ARM_ARCH_8M_MAIN__ == 1))    )
 554:Generated_Source\PSoC6\pdl\cmsis/include/cmsis_gcc.h **** /**
 555:Generated_Source\PSoC6\pdl\cmsis/include/cmsis_gcc.h ****   \brief   Set Process Stack Pointer (non-secure)
 556:Generated_Source\PSoC6\pdl\cmsis/include/cmsis_gcc.h ****   \details Assigns the given value to the non-secure Process Stack Pointer Limit (PSPLIM) when in s
 557:Generated_Source\PSoC6\pdl\cmsis/include/cmsis_gcc.h ****   \param [in]    ProcStackPtrLimit  Process Stack Pointer Limit value to set
 558:Generated_Source\PSoC6\pdl\cmsis/include/cmsis_gcc.h ****  */
 559:Generated_Source\PSoC6\pdl\cmsis/include/cmsis_gcc.h **** __attribute__((always_inline)) __STATIC_INLINE void __TZ_set_PSPLIM_NS(uint32_t ProcStackPtrLimit)
 560:Generated_Source\PSoC6\pdl\cmsis/include/cmsis_gcc.h **** {
 561:Generated_Source\PSoC6\pdl\cmsis/include/cmsis_gcc.h ****   __ASM volatile ("MSR psplim_ns, %0\n" : : "r" (ProcStackPtrLimit));
 562:Generated_Source\PSoC6\pdl\cmsis/include/cmsis_gcc.h **** }
 563:Generated_Source\PSoC6\pdl\cmsis/include/cmsis_gcc.h **** #endif
 564:Generated_Source\PSoC6\pdl\cmsis/include/cmsis_gcc.h **** 
 565:Generated_Source\PSoC6\pdl\cmsis/include/cmsis_gcc.h **** 
 566:Generated_Source\PSoC6\pdl\cmsis/include/cmsis_gcc.h **** /**
 567:Generated_Source\PSoC6\pdl\cmsis/include/cmsis_gcc.h ****   \brief   Get Main Stack Pointer Limit
 568:Generated_Source\PSoC6\pdl\cmsis/include/cmsis_gcc.h ****   \details Returns the current value of the Main Stack Pointer Limit (MSPLIM).
 569:Generated_Source\PSoC6\pdl\cmsis/include/cmsis_gcc.h ****   \return               MSPLIM Register value
 570:Generated_Source\PSoC6\pdl\cmsis/include/cmsis_gcc.h ****  */
 571:Generated_Source\PSoC6\pdl\cmsis/include/cmsis_gcc.h **** __attribute__((always_inline)) __STATIC_INLINE uint32_t __get_MSPLIM(void)
 572:Generated_Source\PSoC6\pdl\cmsis/include/cmsis_gcc.h **** {
 573:Generated_Source\PSoC6\pdl\cmsis/include/cmsis_gcc.h ****   register uint32_t result;
 574:Generated_Source\PSoC6\pdl\cmsis/include/cmsis_gcc.h **** 
 575:Generated_Source\PSoC6\pdl\cmsis/include/cmsis_gcc.h ****   __ASM volatile ("MRS %0, msplim" : "=r" (result) );
 576:Generated_Source\PSoC6\pdl\cmsis/include/cmsis_gcc.h **** 
 577:Generated_Source\PSoC6\pdl\cmsis/include/cmsis_gcc.h ****   return(result);
 578:Generated_Source\PSoC6\pdl\cmsis/include/cmsis_gcc.h **** }
 579:Generated_Source\PSoC6\pdl\cmsis/include/cmsis_gcc.h **** 
 580:Generated_Source\PSoC6\pdl\cmsis/include/cmsis_gcc.h **** 
 581:Generated_Source\PSoC6\pdl\cmsis/include/cmsis_gcc.h **** #if ((defined (__ARM_FEATURE_CMSE  ) && (__ARM_FEATURE_CMSE   == 3)) && \
 582:Generated_Source\PSoC6\pdl\cmsis/include/cmsis_gcc.h ****      (defined (__ARM_ARCH_8M_MAIN__) && (__ARM_ARCH_8M_MAIN__ == 1))    )
 583:Generated_Source\PSoC6\pdl\cmsis/include/cmsis_gcc.h **** /**
 584:Generated_Source\PSoC6\pdl\cmsis/include/cmsis_gcc.h ****   \brief   Get Main Stack Pointer Limit (non-secure)
 585:Generated_Source\PSoC6\pdl\cmsis/include/cmsis_gcc.h ****   \details Returns the current value of the non-secure Main Stack Pointer Limit(MSPLIM) when in sec
 586:Generated_Source\PSoC6\pdl\cmsis/include/cmsis_gcc.h ****   \return               MSPLIM Register value
 587:Generated_Source\PSoC6\pdl\cmsis/include/cmsis_gcc.h ****  */
 588:Generated_Source\PSoC6\pdl\cmsis/include/cmsis_gcc.h **** __attribute__((always_inline)) __STATIC_INLINE uint32_t __TZ_get_MSPLIM_NS(void)
 589:Generated_Source\PSoC6\pdl\cmsis/include/cmsis_gcc.h **** {
 590:Generated_Source\PSoC6\pdl\cmsis/include/cmsis_gcc.h ****   register uint32_t result;
 591:Generated_Source\PSoC6\pdl\cmsis/include/cmsis_gcc.h **** 
 592:Generated_Source\PSoC6\pdl\cmsis/include/cmsis_gcc.h ****   __ASM volatile ("MRS %0, msplim_ns" : "=r" (result) );
 593:Generated_Source\PSoC6\pdl\cmsis/include/cmsis_gcc.h ****   return(result);
 594:Generated_Source\PSoC6\pdl\cmsis/include/cmsis_gcc.h **** }
ARM GAS  C:\Users\kiwamu\AppData\Local\Temp\ccE2Z6Jb.s 			page 37


 595:Generated_Source\PSoC6\pdl\cmsis/include/cmsis_gcc.h **** #endif
 596:Generated_Source\PSoC6\pdl\cmsis/include/cmsis_gcc.h **** 
 597:Generated_Source\PSoC6\pdl\cmsis/include/cmsis_gcc.h **** 
 598:Generated_Source\PSoC6\pdl\cmsis/include/cmsis_gcc.h **** /**
 599:Generated_Source\PSoC6\pdl\cmsis/include/cmsis_gcc.h ****   \brief   Set Main Stack Pointer Limit
 600:Generated_Source\PSoC6\pdl\cmsis/include/cmsis_gcc.h ****   \details Assigns the given value to the Main Stack Pointer Limit (MSPLIM).
 601:Generated_Source\PSoC6\pdl\cmsis/include/cmsis_gcc.h ****   \param [in]    MainStackPtrLimit  Main Stack Pointer Limit value to set
 602:Generated_Source\PSoC6\pdl\cmsis/include/cmsis_gcc.h ****  */
 603:Generated_Source\PSoC6\pdl\cmsis/include/cmsis_gcc.h **** __attribute__((always_inline)) __STATIC_INLINE void __set_MSPLIM(uint32_t MainStackPtrLimit)
 604:Generated_Source\PSoC6\pdl\cmsis/include/cmsis_gcc.h **** {
 605:Generated_Source\PSoC6\pdl\cmsis/include/cmsis_gcc.h ****   __ASM volatile ("MSR msplim, %0" : : "r" (MainStackPtrLimit));
 606:Generated_Source\PSoC6\pdl\cmsis/include/cmsis_gcc.h **** }
 607:Generated_Source\PSoC6\pdl\cmsis/include/cmsis_gcc.h **** 
 608:Generated_Source\PSoC6\pdl\cmsis/include/cmsis_gcc.h **** 
 609:Generated_Source\PSoC6\pdl\cmsis/include/cmsis_gcc.h **** #if ((defined (__ARM_FEATURE_CMSE  ) && (__ARM_FEATURE_CMSE   == 3)) && \
 610:Generated_Source\PSoC6\pdl\cmsis/include/cmsis_gcc.h ****      (defined (__ARM_ARCH_8M_MAIN__) && (__ARM_ARCH_8M_MAIN__ == 1))    )
 611:Generated_Source\PSoC6\pdl\cmsis/include/cmsis_gcc.h **** /**
 612:Generated_Source\PSoC6\pdl\cmsis/include/cmsis_gcc.h ****   \brief   Set Main Stack Pointer Limit (non-secure)
 613:Generated_Source\PSoC6\pdl\cmsis/include/cmsis_gcc.h ****   \details Assigns the given value to the non-secure Main Stack Pointer Limit (MSPLIM) when in secu
 614:Generated_Source\PSoC6\pdl\cmsis/include/cmsis_gcc.h ****   \param [in]    MainStackPtrLimit  Main Stack Pointer value to set
 615:Generated_Source\PSoC6\pdl\cmsis/include/cmsis_gcc.h ****  */
 616:Generated_Source\PSoC6\pdl\cmsis/include/cmsis_gcc.h **** __attribute__((always_inline)) __STATIC_INLINE void __TZ_set_MSPLIM_NS(uint32_t MainStackPtrLimit)
 617:Generated_Source\PSoC6\pdl\cmsis/include/cmsis_gcc.h **** {
 618:Generated_Source\PSoC6\pdl\cmsis/include/cmsis_gcc.h ****   __ASM volatile ("MSR msplim_ns, %0" : : "r" (MainStackPtrLimit));
 619:Generated_Source\PSoC6\pdl\cmsis/include/cmsis_gcc.h **** }
 620:Generated_Source\PSoC6\pdl\cmsis/include/cmsis_gcc.h **** #endif
 621:Generated_Source\PSoC6\pdl\cmsis/include/cmsis_gcc.h **** 
 622:Generated_Source\PSoC6\pdl\cmsis/include/cmsis_gcc.h **** #endif /* ((defined (__ARM_ARCH_8M_MAIN__ ) && (__ARM_ARCH_8M_MAIN__ == 1)) || \
 623:Generated_Source\PSoC6\pdl\cmsis/include/cmsis_gcc.h ****            (defined (__ARM_ARCH_8M_BASE__ ) && (__ARM_ARCH_8M_BASE__ == 1))    ) */
 624:Generated_Source\PSoC6\pdl\cmsis/include/cmsis_gcc.h **** 
 625:Generated_Source\PSoC6\pdl\cmsis/include/cmsis_gcc.h **** 
 626:Generated_Source\PSoC6\pdl\cmsis/include/cmsis_gcc.h **** #if ((defined (__ARM_ARCH_7EM__     ) && (__ARM_ARCH_7EM__     == 1)) || \
 627:Generated_Source\PSoC6\pdl\cmsis/include/cmsis_gcc.h ****      (defined (__ARM_ARCH_8M_MAIN__ ) && (__ARM_ARCH_8M_MAIN__ == 1))    )
 628:Generated_Source\PSoC6\pdl\cmsis/include/cmsis_gcc.h **** 
 629:Generated_Source\PSoC6\pdl\cmsis/include/cmsis_gcc.h **** /**
 630:Generated_Source\PSoC6\pdl\cmsis/include/cmsis_gcc.h ****   \brief   Get FPSCR
 631:Generated_Source\PSoC6\pdl\cmsis/include/cmsis_gcc.h ****   \details Returns the current value of the Floating Point Status/Control register.
 632:Generated_Source\PSoC6\pdl\cmsis/include/cmsis_gcc.h ****   \return               Floating Point Status/Control register value
 633:Generated_Source\PSoC6\pdl\cmsis/include/cmsis_gcc.h ****  */
 634:Generated_Source\PSoC6\pdl\cmsis/include/cmsis_gcc.h **** __attribute__((always_inline)) __STATIC_INLINE uint32_t __get_FPSCR(void)
 635:Generated_Source\PSoC6\pdl\cmsis/include/cmsis_gcc.h **** {
 636:Generated_Source\PSoC6\pdl\cmsis/include/cmsis_gcc.h **** #if ((defined (__FPU_PRESENT) && (__FPU_PRESENT == 1U)) && \
 637:Generated_Source\PSoC6\pdl\cmsis/include/cmsis_gcc.h ****      (defined (__FPU_USED   ) && (__FPU_USED    == 1U))     )
 638:Generated_Source\PSoC6\pdl\cmsis/include/cmsis_gcc.h ****   uint32_t result;
 639:Generated_Source\PSoC6\pdl\cmsis/include/cmsis_gcc.h **** 
 640:Generated_Source\PSoC6\pdl\cmsis/include/cmsis_gcc.h ****   __ASM volatile ("VMRS %0, fpscr" : "=r" (result) );
 665              		.loc 2 640 0
 666              		.syntax unified
 667              	@ 640 "Generated_Source\PSoC6\pdl\cmsis/include/cmsis_gcc.h" 1
 668 003a F1EE103A 		VMRS r3, fpscr
 669              	@ 0 "" 2
 670              		.thumb
 671              		.syntax unified
 672              	.LBE5:
 673              	.LBE4:
 486:Generated_Source\PSoC6\pdl\drivers\peripheral\syslib/cy_syslib.c ****             {
 674              		.loc 1 486 0
ARM GAS  C:\Users\kiwamu\AppData\Local\Temp\ccE2Z6Jb.s 			page 38


 675 003e 13F0900F 		tst	r3, #144
 676 0042 27D0     		beq	.L60
 488:Generated_Source\PSoC6\pdl\drivers\peripheral\syslib/cy_syslib.c ****                 cy_faultFrame.s1    = faultStackAddr[CY_S1_Pos];
 677              		.loc 1 488 0
 678 0044 026A     		ldr	r2, [r0, #32]
 679 0046 154B     		ldr	r3, .L62
 680 0048 1A65     		str	r2, [r3, #80]
 489:Generated_Source\PSoC6\pdl\drivers\peripheral\syslib/cy_syslib.c ****                 cy_faultFrame.s2    = faultStackAddr[CY_S2_Pos];
 681              		.loc 1 489 0
 682 004a 426A     		ldr	r2, [r0, #36]
 683 004c 5A65     		str	r2, [r3, #84]
 490:Generated_Source\PSoC6\pdl\drivers\peripheral\syslib/cy_syslib.c ****                 cy_faultFrame.s3    = faultStackAddr[CY_S3_Pos];
 684              		.loc 1 490 0
 685 004e 826A     		ldr	r2, [r0, #40]
 686 0050 9A65     		str	r2, [r3, #88]
 491:Generated_Source\PSoC6\pdl\drivers\peripheral\syslib/cy_syslib.c ****                 cy_faultFrame.s4    = faultStackAddr[CY_S4_Pos];
 687              		.loc 1 491 0
 688 0052 C26A     		ldr	r2, [r0, #44]
 689 0054 DA65     		str	r2, [r3, #92]
 492:Generated_Source\PSoC6\pdl\drivers\peripheral\syslib/cy_syslib.c ****                 cy_faultFrame.s5    = faultStackAddr[CY_S5_Pos];
 690              		.loc 1 492 0
 691 0056 026B     		ldr	r2, [r0, #48]
 692 0058 1A66     		str	r2, [r3, #96]
 493:Generated_Source\PSoC6\pdl\drivers\peripheral\syslib/cy_syslib.c ****                 cy_faultFrame.s6    = faultStackAddr[CY_S6_Pos];
 693              		.loc 1 493 0
 694 005a 426B     		ldr	r2, [r0, #52]
 695 005c 5A66     		str	r2, [r3, #100]
 494:Generated_Source\PSoC6\pdl\drivers\peripheral\syslib/cy_syslib.c ****                 cy_faultFrame.s7    = faultStackAddr[CY_S7_Pos];
 696              		.loc 1 494 0
 697 005e 826B     		ldr	r2, [r0, #56]
 698 0060 9A66     		str	r2, [r3, #104]
 495:Generated_Source\PSoC6\pdl\drivers\peripheral\syslib/cy_syslib.c ****                 cy_faultFrame.s8    = faultStackAddr[CY_S8_Pos];
 699              		.loc 1 495 0
 700 0062 C26B     		ldr	r2, [r0, #60]
 701 0064 DA66     		str	r2, [r3, #108]
 496:Generated_Source\PSoC6\pdl\drivers\peripheral\syslib/cy_syslib.c ****                 cy_faultFrame.s9    = faultStackAddr[CY_S9_Pos];
 702              		.loc 1 496 0
 703 0066 026C     		ldr	r2, [r0, #64]
 704 0068 1A67     		str	r2, [r3, #112]
 497:Generated_Source\PSoC6\pdl\drivers\peripheral\syslib/cy_syslib.c ****                 cy_faultFrame.s10   = faultStackAddr[CY_S10_Pos];
 705              		.loc 1 497 0
 706 006a 426C     		ldr	r2, [r0, #68]
 707 006c 5A67     		str	r2, [r3, #116]
 498:Generated_Source\PSoC6\pdl\drivers\peripheral\syslib/cy_syslib.c ****                 cy_faultFrame.s11   = faultStackAddr[CY_S11_Pos];
 708              		.loc 1 498 0
 709 006e 826C     		ldr	r2, [r0, #72]
 710 0070 9A67     		str	r2, [r3, #120]
 499:Generated_Source\PSoC6\pdl\drivers\peripheral\syslib/cy_syslib.c ****                 cy_faultFrame.s12   = faultStackAddr[CY_S12_Pos];
 711              		.loc 1 499 0
 712 0072 C26C     		ldr	r2, [r0, #76]
 713 0074 DA67     		str	r2, [r3, #124]
 500:Generated_Source\PSoC6\pdl\drivers\peripheral\syslib/cy_syslib.c ****                 cy_faultFrame.s13   = faultStackAddr[CY_S13_Pos];
 714              		.loc 1 500 0
 715 0076 026D     		ldr	r2, [r0, #80]
 716 0078 C3F88020 		str	r2, [r3, #128]
 501:Generated_Source\PSoC6\pdl\drivers\peripheral\syslib/cy_syslib.c ****                 cy_faultFrame.s14   = faultStackAddr[CY_S14_Pos];
 717              		.loc 1 501 0
ARM GAS  C:\Users\kiwamu\AppData\Local\Temp\ccE2Z6Jb.s 			page 39


 718 007c 426D     		ldr	r2, [r0, #84]
 719 007e C3F88420 		str	r2, [r3, #132]
 502:Generated_Source\PSoC6\pdl\drivers\peripheral\syslib/cy_syslib.c ****                 cy_faultFrame.s15   = faultStackAddr[CY_S15_Pos];
 720              		.loc 1 502 0
 721 0082 826D     		ldr	r2, [r0, #88]
 722 0084 C3F88820 		str	r2, [r3, #136]
 503:Generated_Source\PSoC6\pdl\drivers\peripheral\syslib/cy_syslib.c ****                 cy_faultFrame.fpscr = faultStackAddr[CY_FPSCR_Pos];
 723              		.loc 1 503 0
 724 0088 C26D     		ldr	r2, [r0, #92]
 725 008a C3F88C20 		str	r2, [r3, #140]
 504:Generated_Source\PSoC6\pdl\drivers\peripheral\syslib/cy_syslib.c ****             }
 726              		.loc 1 504 0
 727 008e 026E     		ldr	r2, [r0, #96]
 728 0090 C3F89020 		str	r2, [r3, #144]
 729              	.L60:
 509:Generated_Source\PSoC6\pdl\drivers\peripheral\syslib/cy_syslib.c **** }
 730              		.loc 1 509 0
 731 0094 FFF7FEFF 		bl	Cy_SysLib_ProcessingFault
 732              	.LVL32:
 733 0098 08BD     		pop	{r3, pc}
 734              	.L63:
 735 009a 00BF     		.align	2
 736              	.L62:
 737 009c 00000000 		.word	.LANCHOR0
 738 00a0 00ED00E0 		.word	-536810240
 739              		.cfi_endproc
 740              	.LFE151:
 741              		.size	Cy_SysLib_FaultHandler, .-Cy_SysLib_FaultHandler
 742              		.section	.text.Cy_SysLib_SetWaitStates,"ax",%progbits
 743              		.align	2
 744              		.global	Cy_SysLib_SetWaitStates
 745              		.thumb
 746              		.thumb_func
 747              		.type	Cy_SysLib_SetWaitStates, %function
 748              	Cy_SysLib_SetWaitStates:
 749              	.LFB153:
 573:Generated_Source\PSoC6\pdl\drivers\peripheral\syslib/cy_syslib.c ****     if (ulpMode)
 750              		.loc 1 573 0
 751              		.cfi_startproc
 752              		@ args = 0, pretend = 0, frame = 0
 753              		@ frame_needed = 0, uses_anonymous_args = 0
 754              	.LVL33:
 755 0000 08B5     		push	{r3, lr}
 756              		.cfi_def_cfa_offset 8
 757              		.cfi_offset 3, -8
 758              		.cfi_offset 14, -4
 574:Generated_Source\PSoC6\pdl\drivers\peripheral\syslib/cy_syslib.c ****     {
 759              		.loc 1 574 0
 760 0002 18B1     		cbz	r0, .L65
 576:Generated_Source\PSoC6\pdl\drivers\peripheral\syslib/cy_syslib.c ****     }
 761              		.loc 1 576 0
 762 0004 0846     		mov	r0, r1
 763              	.LVL34:
 764 0006 FFF7FEFF 		bl	Cy_SysLib_SetWaitStates_ULP
 765              	.LVL35:
 766 000a 08BD     		pop	{r3, pc}
 767              	.LVL36:
ARM GAS  C:\Users\kiwamu\AppData\Local\Temp\ccE2Z6Jb.s 			page 40


 768              	.L65:
 580:Generated_Source\PSoC6\pdl\drivers\peripheral\syslib/cy_syslib.c ****     }
 769              		.loc 1 580 0
 770 000c 0846     		mov	r0, r1
 771              	.LVL37:
 772 000e FFF7FEFF 		bl	Cy_SysLib_SetWaitStates_LP
 773              	.LVL38:
 774 0012 08BD     		pop	{r3, pc}
 775              		.cfi_endproc
 776              	.LFE153:
 777              		.size	Cy_SysLib_SetWaitStates, .-Cy_SysLib_SetWaitStates
 778              		.global	cy_faultFrame
 779              		.global	cy_assertLine
 780              		.global	cy_assertFileName
 781              		.section	.noinit,"aw",%progbits
 782              		.align	2
 783              		.set	.LANCHOR0,. + 0
 784              		.type	cy_assertFileName, %object
 785              		.size	cy_assertFileName, 24
 786              	cy_assertFileName:
 787 0000 00000000 		.space	24
 787      00000000 
 787      00000000 
 787      00000000 
 787      00000000 
 788              		.type	cy_assertLine, %object
 789              		.size	cy_assertLine, 4
 790              	cy_assertLine:
 791 0018 00000000 		.space	4
 792              		.type	cy_faultFrame, %object
 793              		.size	cy_faultFrame, 120
 794              	cy_faultFrame:
 795 001c 00000000 		.space	120
 795      00000000 
 795      00000000 
 795      00000000 
 795      00000000 
 796              		.text
 797              	.Letext0:
 798              		.file 3 "c:\\program files (x86)\\cypress\\psoc creator\\4.2\\psoc creator\\import\\gnu\\arm\\5.4.
 799              		.file 4 "c:\\program files (x86)\\cypress\\psoc creator\\4.2\\psoc creator\\import\\gnu\\arm\\5.4.
 800              		.file 5 "Generated_Source\\PSoC6\\pdl\\cmsis/include/core_cm4.h"
 801              		.file 6 "Generated_Source\\PSoC6\\pdl\\devices/psoc6/ip/cyip_sflash.h"
 802              		.file 7 "Generated_Source\\PSoC6\\pdl\\devices/psoc6/ip/cyip_cpuss.h"
 803              		.file 8 "Generated_Source\\PSoC6\\pdl\\devices/psoc6/ip/cyip_flashc.h"
 804              		.file 9 "Generated_Source\\PSoC6\\pdl\\devices/psoc6/ip/cyip_srss.h"
 805              		.file 10 "Generated_Source\\PSoC6\\pdl\\devices/psoc6/ip/cyip_backup.h"
 806              		.file 11 "Generated_Source\\PSoC6\\pdl\\drivers\\peripheral\\syslib\\cy_syslib.h"
 807              		.file 12 "./system_psoc63.h"
 808              		.file 13 "c:\\program files (x86)\\cypress\\psoc creator\\4.2\\psoc creator\\import\\gnu\\arm\\5.4